; Listing generated by Microsoft (R) Optimizing Compiler Version 19.16.27027.1 

	TITLE	C:\Users\DAG\Documents\_Clients\CodeProject Authors Group\Windows on ARM\libxml2\libxml2-2.9.9\DOCBparser.c
	.686P
	.XMM
	include listing.inc
	.model	flat

INCLUDELIB MSVCRT
INCLUDELIB OLDNAMES

_DATA	SEGMENT
COMM	_xmlIsBaseCharGroup:BYTE:010H
COMM	_xmlIsCharGroup:BYTE:010H
COMM	_xmlIsCombiningGroup:BYTE:010H
COMM	_xmlIsDigitGroup:BYTE:010H
COMM	_xmlIsExtenderGroup:BYTE:010H
COMM	_xmlIsIdeographicGroup:BYTE:010H
COMM	_xmlIsPubidChar_tab:BYTE:0100H
COMM	_xmlParserMaxDepth:DWORD
COMM	_forbiddenExp:DWORD
COMM	_emptyExp:DWORD
COMM	_xmlMalloc:DWORD
COMM	_xmlMallocAtomic:DWORD
COMM	_xmlRealloc:DWORD
COMM	_xmlFree:DWORD
COMM	_xmlMemStrdup:DWORD
_DATA	ENDS
msvcjmc	SEGMENT
__188180DA_corecrt_math@h DB 01H
__2CC6E67D_corecrt_stdio_config@h DB 01H
__05476D76_corecrt_wstdio@h DB 01H
__A452D4A0_stdio@h DB 01H
__4FC8C4B1_docbparser@c DB 01H
msvcjmc	ENDS
PUBLIC	_docbEncodeEntities
PUBLIC	_docbSAXParseDoc
PUBLIC	_docbParseDoc
PUBLIC	_docbSAXParseFile
PUBLIC	_docbParseFile
PUBLIC	_docbFreeParserCtxt
PUBLIC	_docbCreatePushParserCtxt
PUBLIC	_docbParseChunk
PUBLIC	_docbCreateFileParserCtxt
PUBLIC	_docbParseDocument
PUBLIC	__JustMyCode_Default
PUBLIC	??_C@_0DC@BOMECCGF@docbEncodeEntities?$CI?$CJ?5deprecated@ ; `string'
PUBLIC	??_C@_0DB@NDDOLLGP@docbParseDocument?$CI?$CJ?5deprecated?5@ ; `string'
PUBLIC	??_C@_0DC@FKBIEDMA@docbFreeParserCtxt?$CI?$CJ?5deprecated@ ; `string'
PUBLIC	??_C@_0CO@NKDAPPKB@docbParseChunk?$CI?$CJ?5deprecated?5fun@ ; `string'
PUBLIC	??_C@_0DI@INHANBFE@docbCreateFileParserCtxt?$CI?$CJ?5depr@ ; `string'
PUBLIC	??_C@_0DA@FOPOJOII@docbSAXParseFile?$CI?$CJ?5deprecated?5f@ ; `string'
PUBLIC	??_C@_0CN@PHDHKKPB@docbParseFile?$CI?$CJ?5deprecated?5func@ ; `string'
EXTRN	_xmlStrlen:PROC
EXTRN	___xmlGenericError:PROC
EXTRN	___xmlGenericErrorContext:PROC
EXTRN	_xmlParseDoc:PROC
EXTRN	_xmlParseFile:PROC
EXTRN	_xmlParseDocument:PROC
EXTRN	_xmlSAXParseMemoryWithData:PROC
EXTRN	_xmlSAXParseFileWithData:PROC
EXTRN	_xmlFreeParserCtxt:PROC
EXTRN	_xmlCreatePushParserCtxt:PROC
EXTRN	_xmlParseChunk:PROC
EXTRN	_xmlCreateFileParserCtxt:PROC
EXTRN	@__CheckForDebuggerJustMyCode@4:PROC
_BSS	SEGMENT
?deprecated@?1??docbEncodeEntities@@9@9 DD 01H DUP (?)	; `docbEncodeEntities'::`2'::deprecated
?deprecated@?1??docbParseDocument@@9@9 DD 01H DUP (?)	; `docbParseDocument'::`2'::deprecated
?deprecated@?1??docbFreeParserCtxt@@9@9 DD 01H DUP (?)	; `docbFreeParserCtxt'::`2'::deprecated
?deprecated@?1??docbParseChunk@@9@9 DD 01H DUP (?)	; `docbParseChunk'::`2'::deprecated
?deprecated@?1??docbCreatePushParserCtxt@@9@9 DD 01H DUP (?) ; `docbCreatePushParserCtxt'::`2'::deprecated
?deprecated@?1??docbSAXParseDoc@@9@9 DD 01H DUP (?)	; `docbSAXParseDoc'::`2'::deprecated
?deprecated@?1??docbParseDoc@@9@9 DD 01H DUP (?)	; `docbParseDoc'::`2'::deprecated
?deprecated@?1??docbCreateFileParserCtxt@@9@9 DD 01H DUP (?) ; `docbCreateFileParserCtxt'::`2'::deprecated
?deprecated@?1??docbSAXParseFile@@9@9 DD 01H DUP (?)	; `docbSAXParseFile'::`2'::deprecated
?deprecated@?1??docbParseFile@@9@9 DD 01H DUP (?)	; `docbParseFile'::`2'::deprecated
_BSS	ENDS
;	COMDAT ??_C@_0CN@PHDHKKPB@docbParseFile?$CI?$CJ?5deprecated?5func@
CONST	SEGMENT
??_C@_0CN@PHDHKKPB@docbParseFile?$CI?$CJ?5deprecated?5func@ DB 'docbParse'
	DB	'File() deprecated function reached', 0aH, 00H ; `string'
CONST	ENDS
;	COMDAT ??_C@_0DA@FOPOJOII@docbSAXParseFile?$CI?$CJ?5deprecated?5f@
CONST	SEGMENT
??_C@_0DA@FOPOJOII@docbSAXParseFile?$CI?$CJ?5deprecated?5f@ DB 'docbSAXPa'
	DB	'rseFile() deprecated function reached', 0aH, 00H ; `string'
CONST	ENDS
;	COMDAT ??_C@_0DI@INHANBFE@docbCreateFileParserCtxt?$CI?$CJ?5depr@
CONST	SEGMENT
??_C@_0DI@INHANBFE@docbCreateFileParserCtxt?$CI?$CJ?5depr@ DB 'docbCreate'
	DB	'FileParserCtxt() deprecated function reached', 0aH, 00H ; `string'
CONST	ENDS
;	COMDAT ??_C@_0CO@NKDAPPKB@docbParseChunk?$CI?$CJ?5deprecated?5fun@
CONST	SEGMENT
??_C@_0CO@NKDAPPKB@docbParseChunk?$CI?$CJ?5deprecated?5fun@ DB 'docbParse'
	DB	'Chunk() deprecated function reached', 0aH, 00H ; `string'
CONST	ENDS
;	COMDAT ??_C@_0DC@FKBIEDMA@docbFreeParserCtxt?$CI?$CJ?5deprecated@
CONST	SEGMENT
??_C@_0DC@FKBIEDMA@docbFreeParserCtxt?$CI?$CJ?5deprecated@ DB 'docbFreePa'
	DB	'rserCtxt() deprecated function reached', 0aH, 00H ; `string'
CONST	ENDS
;	COMDAT ??_C@_0DB@NDDOLLGP@docbParseDocument?$CI?$CJ?5deprecated?5@
CONST	SEGMENT
??_C@_0DB@NDDOLLGP@docbParseDocument?$CI?$CJ?5deprecated?5@ DB 'docbParse'
	DB	'Document() deprecated function reached', 0aH, 00H ; `string'
CONST	ENDS
;	COMDAT ??_C@_0DC@BOMECCGF@docbEncodeEntities?$CI?$CJ?5deprecated@
CONST	SEGMENT
??_C@_0DC@BOMECCGF@docbEncodeEntities?$CI?$CJ?5deprecated@ DB 'docbEncode'
	DB	'Entities() deprecated function reached', 0aH, 00H ; `string'
CONST	ENDS
; Function compile flags: /Odt
;	COMDAT __JustMyCode_Default
_TEXT	SEGMENT
__JustMyCode_Default PROC				; COMDAT
	push	ebp
	mov	ebp, esp
	pop	ebp
	ret	0
__JustMyCode_Default ENDP
_TEXT	ENDS
; Function compile flags: /Ogtp
; File c:\users\dag\documents\_clients\codeproject authors group\windows on arm\libxml2\libxml2-2.9.9\docbparser.c
;	COMDAT _docbParseDocument
_TEXT	SEGMENT
_ctxt$ = 8						; size = 4
_docbParseDocument PROC					; COMDAT

; 66   : {

	push	ebp
	mov	ebp, esp
	mov	ecx, OFFSET __4FC8C4B1_docbparser@c
	call	@__CheckForDebuggerJustMyCode@4
	cmp	DWORD PTR ?deprecated@?1??docbParseDocument@@9@9, 0
	jne	SHORT $LN2@docbParseD

; 67   :     static int deprecated = 0;
; 68   : 
; 69   :     if (!deprecated) {
; 70   :         xmlGenericError(xmlGenericErrorContext,

	push	esi
	call	___xmlGenericError
	mov	esi, eax
	call	___xmlGenericErrorContext
	push	OFFSET ??_C@_0DB@NDDOLLGP@docbParseDocument?$CI?$CJ?5deprecated?5@
	push	DWORD PTR [eax]
	mov	eax, DWORD PTR [esi]
	call	eax
	add	esp, 8

; 71   :                         "docbParseDocument() deprecated function reached\n");
; 72   :         deprecated = 1;

	mov	DWORD PTR ?deprecated@?1??docbParseDocument@@9@9, 1
	pop	esi
$LN2@docbParseD:

; 75   : }

	pop	ebp

; 73   :     }
; 74   :     return (xmlParseDocument(ctxt));

	jmp	_xmlParseDocument
_docbParseDocument ENDP
_TEXT	ENDS
; Function compile flags: /Ogtp
; File c:\users\dag\documents\_clients\codeproject authors group\windows on arm\libxml2\libxml2-2.9.9\docbparser.c
;	COMDAT _docbCreateFileParserCtxt
_TEXT	SEGMENT
_filename$ = 8						; size = 4
_encoding$ = 12						; size = 4
_docbCreateFileParserCtxt PROC				; COMDAT

; 233  : {

	push	ebp
	mov	ebp, esp
	mov	ecx, OFFSET __4FC8C4B1_docbparser@c
	call	@__CheckForDebuggerJustMyCode@4
	cmp	DWORD PTR ?deprecated@?1??docbCreateFileParserCtxt@@9@9, 0
	jne	SHORT $LN2@docbCreate

; 234  :     static int deprecated = 0;
; 235  : 
; 236  :     if (!deprecated) {
; 237  :         xmlGenericError(xmlGenericErrorContext,

	push	esi
	call	___xmlGenericError
	mov	esi, eax
	call	___xmlGenericErrorContext
	push	OFFSET ??_C@_0DI@INHANBFE@docbCreateFileParserCtxt?$CI?$CJ?5depr@
	push	DWORD PTR [eax]
	mov	eax, DWORD PTR [esi]
	call	eax
	add	esp, 8

; 238  :                         "docbCreateFileParserCtxt() deprecated function reached\n");
; 239  :         deprecated = 1;

	mov	DWORD PTR ?deprecated@?1??docbCreateFileParserCtxt@@9@9, 1
	pop	esi
$LN2@docbCreate:

; 240  :     }
; 241  : 
; 242  :     return (xmlCreateFileParserCtxt(filename));

	push	DWORD PTR _filename$[ebp]
	call	_xmlCreateFileParserCtxt
	add	esp, 4

; 243  : }

	pop	ebp
	ret	0
_docbCreateFileParserCtxt ENDP
_TEXT	ENDS
; Function compile flags: /Ogtp
; File c:\users\dag\documents\_clients\codeproject authors group\windows on arm\libxml2\libxml2-2.9.9\docbparser.c
;	COMDAT _docbParseChunk
_TEXT	SEGMENT
_ctxt$ = 8						; size = 4
_chunk$ = 12						; size = 4
_size$ = 16						; size = 4
_terminate$ = 20					; size = 4
_docbParseChunk PROC					; COMDAT

; 114  : {

	push	ebp
	mov	ebp, esp
	mov	ecx, OFFSET __4FC8C4B1_docbparser@c
	call	@__CheckForDebuggerJustMyCode@4
	cmp	DWORD PTR ?deprecated@?1??docbParseChunk@@9@9, 0
	jne	SHORT $LN2@docbParseC

; 115  :     static int deprecated = 0;
; 116  : 
; 117  :     if (!deprecated) {
; 118  :         xmlGenericError(xmlGenericErrorContext,

	push	esi
	call	___xmlGenericError
	mov	esi, eax
	call	___xmlGenericErrorContext
	push	OFFSET ??_C@_0CO@NKDAPPKB@docbParseChunk?$CI?$CJ?5deprecated?5fun@
	push	DWORD PTR [eax]
	mov	eax, DWORD PTR [esi]
	call	eax
	add	esp, 8

; 119  :                         "docbParseChunk() deprecated function reached\n");
; 120  :         deprecated = 1;

	mov	DWORD PTR ?deprecated@?1??docbParseChunk@@9@9, 1
	pop	esi
$LN2@docbParseC:

; 124  : }

	pop	ebp

; 121  :     }
; 122  : 
; 123  :     return (xmlParseChunk(ctxt, chunk, size, terminate));

	jmp	_xmlParseChunk
_docbParseChunk ENDP
_TEXT	ENDS
; Function compile flags: /Ogtp
; File c:\users\dag\documents\_clients\codeproject authors group\windows on arm\libxml2\libxml2-2.9.9\docbparser.c
;	COMDAT _docbCreatePushParserCtxt
_TEXT	SEGMENT
_sax$ = 8						; size = 4
_user_data$ = 12					; size = 4
_chunk$ = 16						; size = 4
_size$ = 20						; size = 4
_filename$ = 24						; size = 4
_enc$ = 28						; size = 4
_docbCreatePushParserCtxt PROC				; COMDAT

; 149  : {

	push	ebp
	mov	ebp, esp
	mov	ecx, OFFSET __4FC8C4B1_docbparser@c
	call	@__CheckForDebuggerJustMyCode@4
	cmp	DWORD PTR ?deprecated@?1??docbCreatePushParserCtxt@@9@9, 0
	jne	SHORT $LN2@docbCreate

; 150  :     static int deprecated = 0;
; 151  : 
; 152  :     if (!deprecated) {
; 153  :         xmlGenericError(xmlGenericErrorContext,

	push	esi
	call	___xmlGenericError
	mov	esi, eax
	call	___xmlGenericErrorContext
	push	OFFSET ??_C@_0CO@NKDAPPKB@docbParseChunk?$CI?$CJ?5deprecated?5fun@
	push	DWORD PTR [eax]
	mov	eax, DWORD PTR [esi]
	call	eax
	add	esp, 8

; 154  :                         "docbParseChunk() deprecated function reached\n");
; 155  :         deprecated = 1;

	mov	DWORD PTR ?deprecated@?1??docbCreatePushParserCtxt@@9@9, 1
	pop	esi
$LN2@docbCreate:

; 156  :     }
; 157  : 
; 158  :     return(xmlCreatePushParserCtxt(sax, user_data, chunk, size, filename));

	push	DWORD PTR _filename$[ebp]
	push	DWORD PTR _size$[ebp]
	push	DWORD PTR _chunk$[ebp]
	push	DWORD PTR _user_data$[ebp]
	push	DWORD PTR _sax$[ebp]
	call	_xmlCreatePushParserCtxt
	add	esp, 20					; 00000014H

; 159  : }

	pop	ebp
	ret	0
_docbCreatePushParserCtxt ENDP
_TEXT	ENDS
; Function compile flags: /Ogtp
; File c:\users\dag\documents\_clients\codeproject authors group\windows on arm\libxml2\libxml2-2.9.9\docbparser.c
;	COMDAT _docbFreeParserCtxt
_TEXT	SEGMENT
_ctxt$ = 8						; size = 4
_docbFreeParserCtxt PROC				; COMDAT

; 87   : {

	push	ebp
	mov	ebp, esp
	mov	ecx, OFFSET __4FC8C4B1_docbparser@c
	call	@__CheckForDebuggerJustMyCode@4
	cmp	DWORD PTR ?deprecated@?1??docbFreeParserCtxt@@9@9, 0
	jne	SHORT $LN2@docbFreePa

; 88   :     static int deprecated = 0;
; 89   : 
; 90   :     if (!deprecated) {
; 91   :         xmlGenericError(xmlGenericErrorContext,

	push	esi
	call	___xmlGenericError
	mov	esi, eax
	call	___xmlGenericErrorContext
	push	OFFSET ??_C@_0DC@FKBIEDMA@docbFreeParserCtxt?$CI?$CJ?5deprecated@
	push	DWORD PTR [eax]
	mov	eax, DWORD PTR [esi]
	call	eax
	add	esp, 8

; 92   :                         "docbFreeParserCtxt() deprecated function reached\n");
; 93   :         deprecated = 1;

	mov	DWORD PTR ?deprecated@?1??docbFreeParserCtxt@@9@9, 1
	pop	esi
$LN2@docbFreePa:

; 96   : }

	pop	ebp

; 94   :     }
; 95   :     xmlFreeParserCtxt(ctxt);

	jmp	_xmlFreeParserCtxt
_docbFreeParserCtxt ENDP
_TEXT	ENDS
; Function compile flags: /Ogtp
; File c:\users\dag\documents\_clients\codeproject authors group\windows on arm\libxml2\libxml2-2.9.9\docbparser.c
;	COMDAT _docbParseFile
_TEXT	SEGMENT
_filename$ = 8						; size = 4
_encoding$ = 12						; size = 4
_docbParseFile PROC					; COMDAT

; 292  : {

	push	ebp
	mov	ebp, esp
	mov	ecx, OFFSET __4FC8C4B1_docbparser@c
	call	@__CheckForDebuggerJustMyCode@4
	cmp	DWORD PTR ?deprecated@?1??docbParseFile@@9@9, 0
	jne	SHORT $LN2@docbParseF

; 293  :     static int deprecated = 0;
; 294  : 
; 295  :     if (!deprecated) {
; 296  :         xmlGenericError(xmlGenericErrorContext,

	push	esi
	call	___xmlGenericError
	mov	esi, eax
	call	___xmlGenericErrorContext
	push	OFFSET ??_C@_0CN@PHDHKKPB@docbParseFile?$CI?$CJ?5deprecated?5func@
	push	DWORD PTR [eax]
	mov	eax, DWORD PTR [esi]
	call	eax
	add	esp, 8

; 297  :                         "docbParseFile() deprecated function reached\n");
; 298  :         deprecated = 1;

	mov	DWORD PTR ?deprecated@?1??docbParseFile@@9@9, 1
	pop	esi
$LN2@docbParseF:

; 299  :     }
; 300  : 
; 301  :     return (xmlParseFile(filename));

	push	DWORD PTR _filename$[ebp]
	call	_xmlParseFile
	add	esp, 4

; 302  : }

	pop	ebp
	ret	0
_docbParseFile ENDP
_TEXT	ENDS
; Function compile flags: /Ogtp
; File c:\users\dag\documents\_clients\codeproject authors group\windows on arm\libxml2\libxml2-2.9.9\docbparser.c
;	COMDAT _docbSAXParseFile
_TEXT	SEGMENT
_filename$ = 8						; size = 4
_encoding$ = 12						; size = 4
_sax$ = 16						; size = 4
_userData$ = 20						; size = 4
_docbSAXParseFile PROC					; COMDAT

; 265  : {

	push	ebp
	mov	ebp, esp
	mov	ecx, OFFSET __4FC8C4B1_docbparser@c
	call	@__CheckForDebuggerJustMyCode@4
	cmp	DWORD PTR ?deprecated@?1??docbSAXParseFile@@9@9, 0
	jne	SHORT $LN2@docbSAXPar

; 266  :     static int deprecated = 0;
; 267  : 
; 268  :     if (!deprecated) {
; 269  :         xmlGenericError(xmlGenericErrorContext,

	push	esi
	call	___xmlGenericError
	mov	esi, eax
	call	___xmlGenericErrorContext
	push	OFFSET ??_C@_0DA@FOPOJOII@docbSAXParseFile?$CI?$CJ?5deprecated?5f@
	push	DWORD PTR [eax]
	mov	eax, DWORD PTR [esi]
	call	eax
	add	esp, 8

; 270  :                         "docbSAXParseFile() deprecated function reached\n");
; 271  :         deprecated = 1;

	mov	DWORD PTR ?deprecated@?1??docbSAXParseFile@@9@9, 1
	pop	esi
$LN2@docbSAXPar:

; 272  :     }
; 273  : 
; 274  :     return (xmlSAXParseFileWithData(sax, filename, 0, userData));

	push	DWORD PTR _userData$[ebp]
	push	0
	push	DWORD PTR _filename$[ebp]
	push	DWORD PTR _sax$[ebp]
	call	_xmlSAXParseFileWithData
	add	esp, 16					; 00000010H

; 275  : }

	pop	ebp
	ret	0
_docbSAXParseFile ENDP
_TEXT	ENDS
; Function compile flags: /Ogtp
; File c:\users\dag\documents\_clients\codeproject authors group\windows on arm\libxml2\libxml2-2.9.9\docbparser.c
;	COMDAT _docbParseDoc
_TEXT	SEGMENT
_cur$ = 8						; size = 4
_encoding$ = 12						; size = 4
_docbParseDoc PROC					; COMDAT

; 206  : {

	push	ebp
	mov	ebp, esp
	mov	ecx, OFFSET __4FC8C4B1_docbparser@c
	call	@__CheckForDebuggerJustMyCode@4
	cmp	DWORD PTR ?deprecated@?1??docbParseDoc@@9@9, 0
	jne	SHORT $LN2@docbParseD

; 207  :     static int deprecated = 0;
; 208  : 
; 209  :     if (!deprecated) {
; 210  :         xmlGenericError(xmlGenericErrorContext,

	push	esi
	call	___xmlGenericError
	mov	esi, eax
	call	___xmlGenericErrorContext
	push	OFFSET ??_C@_0CO@NKDAPPKB@docbParseChunk?$CI?$CJ?5deprecated?5fun@
	push	DWORD PTR [eax]
	mov	eax, DWORD PTR [esi]
	call	eax
	add	esp, 8

; 211  :                         "docbParseChunk() deprecated function reached\n");
; 212  :         deprecated = 1;

	mov	DWORD PTR ?deprecated@?1??docbParseDoc@@9@9, 1
	pop	esi
$LN2@docbParseD:

; 213  :     }
; 214  : 
; 215  :     return (xmlParseDoc(cur));

	push	DWORD PTR _cur$[ebp]
	call	_xmlParseDoc
	add	esp, 4

; 216  : }

	pop	ebp
	ret	0
_docbParseDoc ENDP
_TEXT	ENDS
; Function compile flags: /Ogtp
; File c:\users\dag\documents\_clients\codeproject authors group\windows on arm\libxml2\libxml2-2.9.9\docbparser.c
;	COMDAT _docbSAXParseDoc
_TEXT	SEGMENT
_cur$ = 8						; size = 4
_encoding$ = 12						; size = 4
_sax$ = 16						; size = 4
_userData$ = 20						; size = 4
_docbSAXParseDoc PROC					; COMDAT

; 180  : {

	push	ebp
	mov	ebp, esp
	push	esi
	mov	ecx, OFFSET __4FC8C4B1_docbparser@c
	call	@__CheckForDebuggerJustMyCode@4
	cmp	DWORD PTR ?deprecated@?1??docbSAXParseDoc@@9@9, 0
	jne	SHORT $LN2@docbSAXPar

; 181  :     static int deprecated = 0;
; 182  : 
; 183  :     if (!deprecated) {
; 184  :         xmlGenericError(xmlGenericErrorContext,

	call	___xmlGenericError
	mov	esi, eax
	call	___xmlGenericErrorContext
	push	OFFSET ??_C@_0CO@NKDAPPKB@docbParseChunk?$CI?$CJ?5deprecated?5fun@
	push	DWORD PTR [eax]
	mov	eax, DWORD PTR [esi]
	call	eax
	add	esp, 8

; 185  :                         "docbParseChunk() deprecated function reached\n");
; 186  :         deprecated = 1;

	mov	DWORD PTR ?deprecated@?1??docbSAXParseDoc@@9@9, 1
$LN2@docbSAXPar:

; 187  :     }
; 188  : 
; 189  :     return (xmlSAXParseMemoryWithData(sax, (const char *)cur,

	push	DWORD PTR _userData$[ebp]
	mov	esi, DWORD PTR _cur$[ebp]
	push	0
	push	esi
	call	_xmlStrlen
	add	esp, 4
	push	eax
	push	esi
	push	DWORD PTR _sax$[ebp]
	call	_xmlSAXParseMemoryWithData
	add	esp, 20					; 00000014H
	pop	esi

; 190  : 			  xmlStrlen((const xmlChar *) cur), 0,  userData));
; 191  : }

	pop	ebp
	ret	0
_docbSAXParseDoc ENDP
_TEXT	ENDS
; Function compile flags: /Ogtp
; File c:\users\dag\documents\_clients\codeproject authors group\windows on arm\libxml2\libxml2-2.9.9\docbparser.c
;	COMDAT _docbEncodeEntities
_TEXT	SEGMENT
_out$ = 8						; size = 4
_outlen$ = 12						; size = 4
_in$ = 16						; size = 4
_inlen$ = 20						; size = 4
_quoteChar$ = 24					; size = 4
_docbEncodeEntities PROC				; COMDAT
	mov	ecx, OFFSET __4FC8C4B1_docbparser@c
	call	@__CheckForDebuggerJustMyCode@4
	cmp	DWORD PTR ?deprecated@?1??docbEncodeEntities@@9@9, 0
	jne	SHORT $LN4@docbEncode

; 43   :     static int deprecated = 0;
; 44   : 
; 45   :     if (!deprecated) {
; 46   :         xmlGenericError(xmlGenericErrorContext,

	push	esi
	call	___xmlGenericError
	mov	esi, eax
	call	___xmlGenericErrorContext
	push	OFFSET ??_C@_0DC@BOMECCGF@docbEncodeEntities?$CI?$CJ?5deprecated@
	push	DWORD PTR [eax]
	mov	eax, DWORD PTR [esi]
	call	eax
	add	esp, 8

; 47   :                         "docbEncodeEntities() deprecated function reached\n");
; 48   :         deprecated = 1;

	mov	DWORD PTR ?deprecated@?1??docbEncodeEntities@@9@9, 1

; 49   :     }
; 50   :     return(-1);

	pop	esi
$LN4@docbEncode:

; 51   : }

	or	eax, -1
	ret	0
_docbEncodeEntities ENDP
_TEXT	ENDS
END
