; Listing generated by Microsoft (R) Optimizing Compiler Version 19.16.27027.1 

	TITLE	C:\Users\DAG\Documents\_Clients\CodeProject Authors Group\Windows on ARM\libxml2\libxml2-2.9.9\entities.c
	.686P
	.XMM
	include listing.inc
	.model	flat

INCLUDELIB MSVCRT
INCLUDELIB OLDNAMES

PUBLIC	??_C@_02KCAKIFL@lt@				; `string'
PUBLIC	??_C@_01MNNFJEPP@?$DM@				; `string'
PUBLIC	??_C@_02GHFEHLK@gt@				; `string'
PUBLIC	??_C@_01PPODPGHN@?$DO@				; `string'
PUBLIC	??_C@_03DCBBJBAA@amp@				; `string'
PUBLIC	??_C@_01HNPIGOCE@?$CG@				; `string'
PUBLIC	??_C@_04KJFGKBNM@quot@				; `string'
PUBLIC	??_C@_01BJJEKLCA@?$CC@				; `string'
PUBLIC	??_C@_04LBCJFAKL@apos@				; `string'
PUBLIC	??_C@_01GEODFPGF@?8@				; `string'
_DATA	SEGMENT
COMM	_xmlMalloc:DWORD
COMM	_xmlMallocAtomic:DWORD
COMM	_xmlRealloc:DWORD
COMM	_xmlFree:DWORD
COMM	_xmlMemStrdup:DWORD
COMM	_xmlIsBaseCharGroup:BYTE:010H
COMM	_xmlIsCharGroup:BYTE:010H
COMM	_xmlIsCombiningGroup:BYTE:010H
COMM	_xmlIsDigitGroup:BYTE:010H
COMM	_xmlIsExtenderGroup:BYTE:010H
COMM	_xmlIsIdeographicGroup:BYTE:010H
COMM	_xmlIsPubidChar_tab:BYTE:0100H
COMM	_xmlParserMaxDepth:DWORD
COMM	_forbiddenExp:DWORD
COMM	_emptyExp:DWORD
_DATA	ENDS
msvcjmc	SEGMENT
__188180DA_corecrt_math@h DB 01H
__2CC6E67D_corecrt_stdio_config@h DB 01H
__05476D76_corecrt_wstdio@h DB 01H
__A452D4A0_stdio@h DB 01H
__4384A2D9_corecrt_memcpy_s@h DB 01H
__4E51A221_corecrt_wstring@h DB 01H
__2140C079_string@h DB 01H
__128F40C8_entities@c DB 01H
msvcjmc	ENDS
;	COMDAT ??_C@_01GEODFPGF@?8@
CONST	SEGMENT
??_C@_01GEODFPGF@?8@ DB '''', 00H			; `string'
CONST	ENDS
;	COMDAT ??_C@_04LBCJFAKL@apos@
CONST	SEGMENT
??_C@_04LBCJFAKL@apos@ DB 'apos', 00H			; `string'
CONST	ENDS
;	COMDAT ??_C@_01BJJEKLCA@?$CC@
CONST	SEGMENT
??_C@_01BJJEKLCA@?$CC@ DB '"', 00H			; `string'
CONST	ENDS
;	COMDAT ??_C@_04KJFGKBNM@quot@
CONST	SEGMENT
??_C@_04KJFGKBNM@quot@ DB 'quot', 00H			; `string'
CONST	ENDS
;	COMDAT ??_C@_01HNPIGOCE@?$CG@
CONST	SEGMENT
??_C@_01HNPIGOCE@?$CG@ DB '&', 00H			; `string'
CONST	ENDS
;	COMDAT ??_C@_03DCBBJBAA@amp@
CONST	SEGMENT
??_C@_03DCBBJBAA@amp@ DB 'amp', 00H			; `string'
CONST	ENDS
;	COMDAT ??_C@_01PPODPGHN@?$DO@
CONST	SEGMENT
??_C@_01PPODPGHN@?$DO@ DB '>', 00H			; `string'
CONST	ENDS
;	COMDAT ??_C@_02GHFEHLK@gt@
CONST	SEGMENT
??_C@_02GHFEHLK@gt@ DB 'gt', 00H			; `string'
CONST	ENDS
;	COMDAT ??_C@_01MNNFJEPP@?$DM@
CONST	SEGMENT
??_C@_01MNNFJEPP@?$DM@ DB '<', 00H			; `string'
CONST	ENDS
;	COMDAT ??_C@_02KCAKIFL@lt@
CONST	SEGMENT
??_C@_02KCAKIFL@lt@ DB 'lt', 00H			; `string'
CONST	ENDS
PUBLIC	___local_stdio_printf_options
PUBLIC	_snprintf
PUBLIC	_xmlNewEntity
PUBLIC	_xmlAddDocEntity
PUBLIC	_xmlAddDtdEntity
PUBLIC	_xmlGetPredefinedEntity
PUBLIC	_xmlGetDocEntity
PUBLIC	_xmlGetDtdEntity
PUBLIC	_xmlGetParameterEntity
PUBLIC	_xmlEncodeEntitiesReentrant
PUBLIC	_xmlEncodeSpecialChars
PUBLIC	_xmlCreateEntitiesTable
PUBLIC	_xmlCopyEntitiesTable
PUBLIC	_xmlFreeEntitiesTable
PUBLIC	_xmlDumpEntitiesTable
PUBLIC	_xmlDumpEntityDecl
PUBLIC	_xmlEncodeAttributeEntities
PUBLIC	__JustMyCode_Default
PUBLIC	??_C@_0BP@DHPODGDH@xmlCreateEntity?3?5malloc?5failed@ ; `string'
PUBLIC	??_C@_0CC@DMDBCNC@xmlAddDtdEntity?3?5document?5is?5NU@ ; `string'
PUBLIC	??_C@_0DC@JLIKFHBI@xmlAddDtdEntity?3?5document?5witho@ ; `string'
PUBLIC	??_C@_0CC@PEGCDJOI@xmlAddDocEntity?3?5document?5is?5NU@ ; `string'
PUBLIC	??_C@_0DC@LNFPIBEF@xmlAddDocEntity?3?5document?5witho@ ; `string'
PUBLIC	??_C@_0CB@KNMFEFGD@xmlEncodeEntities?3?5malloc?5faile@ ; `string'
PUBLIC	??_C@_03PNLDJJMO@?9?9?$DO@			; `string'
PUBLIC	??_C@_0CD@NODHNPMI@xmlEncodeEntities?3?5input?5not?5UT@ ; `string'
PUBLIC	??_C@_0L@GJIJNDEK@ISO?98859?91@			; `string'
PUBLIC	??_C@_05PNCJDOGL@?$CG?$CD?$CFd?$DL@		; `string'
PUBLIC	??_C@_0CG@BLNNOKKO@xmlEncodeEntities?3?5char?5out?5of?5@ ; `string'
PUBLIC	??_C@_06EPJFDPIN@?$CG?$CDx?$CFX?$DL@		; `string'
PUBLIC	??_C@_0CC@INAAIMLK@xmlEncodeEntities?3?5realloc?5fail@ ; `string'
PUBLIC	??_C@_0CF@FLMLIOHD@xmlEncodeSpecialChars?3?5malloc?5f@ ; `string'
PUBLIC	??_C@_0CG@JAEBJCBF@xmlEncodeSpecialChars?3?5realloc?5@ ; `string'
PUBLIC	??_C@_0BO@CKONHBAN@xmlCopyEntity?3?3?5malloc?5failed@ ; `string'
PUBLIC	??_C@_06DDLNFFBN@?$CGquot?$DL@			; `string'
PUBLIC	??_C@_06MCFEAINI@?$CG?$CDx25?$DL@		; `string'
PUBLIC	??_C@_09POADHIMD@?$DM?$CBENTITY?5@		; `string'
PUBLIC	??_C@_01CLKCMJKC@?5@				; `string'
PUBLIC	??_C@_02NEKEAGPN@?$DO?6@			; `string'
PUBLIC	??_C@_08GBBLECIH@?5PUBLIC?5@			; `string'
PUBLIC	??_C@_08PAGGLANP@?5SYSTEM?5@			; `string'
PUBLIC	??_C@_07CGHGCOMH@?5NDATA?5@			; `string'
PUBLIC	??_C@_0M@BFALCDCJ@?$DM?$CBENTITY?5?$CF?5@	; `string'
PUBLIC	??_C@_0DI@PPMLKPJL@xmlDumpEntitiesDecl?3?5internal?3?5@ ; `string'
EXTRN	_xmlStrdup:PROC
EXTRN	_xmlStrndup:PROC
EXTRN	_xmlStrchr:PROC
EXTRN	_xmlStrstr:PROC
EXTRN	_xmlStrEqual:PROC
EXTRN	_xmlStrlen:PROC
EXTRN	__imp____stdio_common_vsprintf:PROC
EXTRN	_strchr:PROC
EXTRN	_xmlDictLookup:PROC
EXTRN	_xmlDictOwns:PROC
EXTRN	_xmlBufferAdd:PROC
EXTRN	_xmlBufferCCat:PROC
EXTRN	_xmlFreeNodeList:PROC
EXTRN	_xmlBufferWriteCHAR:PROC
EXTRN	_xmlBufferWriteChar:PROC
EXTRN	_xmlBufferWriteQuotedString:PROC
EXTRN	_xmlHashCreate:PROC
EXTRN	_xmlHashCreateDict:PROC
EXTRN	_xmlHashFree:PROC
EXTRN	_xmlHashAddEntry:PROC
EXTRN	_xmlHashLookup:PROC
EXTRN	_xmlHashCopy:PROC
EXTRN	_xmlHashScan:PROC
EXTRN	___xmlSimpleError:PROC
EXTRN	@__CheckForDebuggerJustMyCode@4:PROC
EXTRN	_memset:PROC
_DATA	SEGMENT
COMM	?_OptionsStorage@?1??__local_stdio_printf_options@@9@9:QWORD							; `__local_stdio_printf_options'::`2'::_OptionsStorage
_DATA	ENDS
;	COMDAT ??_C@_0DI@PPMLKPJL@xmlDumpEntitiesDecl?3?5internal?3?5@
CONST	SEGMENT
??_C@_0DI@PPMLKPJL@xmlDumpEntitiesDecl?3?5internal?3?5@ DB 'xmlDumpEntiti'
	DB	'esDecl: internal: unknown type entity type', 00H ; `string'
CONST	ENDS
;	COMDAT ??_C@_0M@BFALCDCJ@?$DM?$CBENTITY?5?$CF?5@
CONST	SEGMENT
??_C@_0M@BFALCDCJ@?$DM?$CBENTITY?5?$CF?5@ DB '<!ENTITY % ', 00H ; `string'
CONST	ENDS
;	COMDAT ??_C@_07CGHGCOMH@?5NDATA?5@
CONST	SEGMENT
??_C@_07CGHGCOMH@?5NDATA?5@ DB ' NDATA ', 00H		; `string'
CONST	ENDS
;	COMDAT ??_C@_08PAGGLANP@?5SYSTEM?5@
CONST	SEGMENT
??_C@_08PAGGLANP@?5SYSTEM?5@ DB ' SYSTEM ', 00H		; `string'
CONST	ENDS
;	COMDAT ??_C@_08GBBLECIH@?5PUBLIC?5@
CONST	SEGMENT
??_C@_08GBBLECIH@?5PUBLIC?5@ DB ' PUBLIC ', 00H		; `string'
CONST	ENDS
;	COMDAT ??_C@_02NEKEAGPN@?$DO?6@
CONST	SEGMENT
??_C@_02NEKEAGPN@?$DO?6@ DB '>', 0aH, 00H		; `string'
CONST	ENDS
;	COMDAT ??_C@_01CLKCMJKC@?5@
CONST	SEGMENT
??_C@_01CLKCMJKC@?5@ DB ' ', 00H			; `string'
CONST	ENDS
;	COMDAT ??_C@_09POADHIMD@?$DM?$CBENTITY?5@
CONST	SEGMENT
??_C@_09POADHIMD@?$DM?$CBENTITY?5@ DB '<!ENTITY ', 00H	; `string'
CONST	ENDS
;	COMDAT ??_C@_06MCFEAINI@?$CG?$CDx25?$DL@
CONST	SEGMENT
??_C@_06MCFEAINI@?$CG?$CDx25?$DL@ DB '&#x25;', 00H	; `string'
CONST	ENDS
;	COMDAT ??_C@_06DDLNFFBN@?$CGquot?$DL@
CONST	SEGMENT
??_C@_06DDLNFFBN@?$CGquot?$DL@ DB '&quot;', 00H		; `string'
CONST	ENDS
;	COMDAT ??_C@_0BO@CKONHBAN@xmlCopyEntity?3?3?5malloc?5failed@
CONST	SEGMENT
??_C@_0BO@CKONHBAN@xmlCopyEntity?3?3?5malloc?5failed@ DB 'xmlCopyEntity::'
	DB	' malloc failed', 00H			; `string'
CONST	ENDS
;	COMDAT ??_C@_0CG@JAEBJCBF@xmlEncodeSpecialChars?3?5realloc?5@
CONST	SEGMENT
??_C@_0CG@JAEBJCBF@xmlEncodeSpecialChars?3?5realloc?5@ DB 'xmlEncodeSpeci'
	DB	'alChars: realloc failed', 00H		; `string'
CONST	ENDS
;	COMDAT ??_C@_0CF@FLMLIOHD@xmlEncodeSpecialChars?3?5malloc?5f@
CONST	SEGMENT
??_C@_0CF@FLMLIOHD@xmlEncodeSpecialChars?3?5malloc?5f@ DB 'xmlEncodeSpeci'
	DB	'alChars: malloc failed', 00H		; `string'
CONST	ENDS
;	COMDAT ??_C@_0CC@INAAIMLK@xmlEncodeEntities?3?5realloc?5fail@
CONST	SEGMENT
??_C@_0CC@INAAIMLK@xmlEncodeEntities?3?5realloc?5fail@ DB 'xmlEncodeEntit'
	DB	'ies: realloc failed', 00H			; `string'
CONST	ENDS
;	COMDAT ??_C@_06EPJFDPIN@?$CG?$CDx?$CFX?$DL@
CONST	SEGMENT
??_C@_06EPJFDPIN@?$CG?$CDx?$CFX?$DL@ DB '&#x%X;', 00H	; `string'
CONST	ENDS
;	COMDAT ??_C@_0CG@BLNNOKKO@xmlEncodeEntities?3?5char?5out?5of?5@
CONST	SEGMENT
??_C@_0CG@BLNNOKKO@xmlEncodeEntities?3?5char?5out?5of?5@ DB 'xmlEncodeEnt'
	DB	'ities: char out of range', 0aH, 00H		; `string'
CONST	ENDS
;	COMDAT ??_C@_05PNCJDOGL@?$CG?$CD?$CFd?$DL@
CONST	SEGMENT
??_C@_05PNCJDOGL@?$CG?$CD?$CFd?$DL@ DB '&#%d;', 00H	; `string'
CONST	ENDS
;	COMDAT ??_C@_0L@GJIJNDEK@ISO?98859?91@
CONST	SEGMENT
??_C@_0L@GJIJNDEK@ISO?98859?91@ DB 'ISO-8859-1', 00H	; `string'
CONST	ENDS
;	COMDAT ??_C@_0CD@NODHNPMI@xmlEncodeEntities?3?5input?5not?5UT@
CONST	SEGMENT
??_C@_0CD@NODHNPMI@xmlEncodeEntities?3?5input?5not?5UT@ DB 'xmlEncodeEnti'
	DB	'ties: input not UTF-8', 00H			; `string'
CONST	ENDS
;	COMDAT ??_C@_03PNLDJJMO@?9?9?$DO@
CONST	SEGMENT
??_C@_03PNLDJJMO@?9?9?$DO@ DB '-->', 00H		; `string'
CONST	ENDS
;	COMDAT ??_C@_0CB@KNMFEFGD@xmlEncodeEntities?3?5malloc?5faile@
CONST	SEGMENT
??_C@_0CB@KNMFEFGD@xmlEncodeEntities?3?5malloc?5faile@ DB 'xmlEncodeEntit'
	DB	'ies: malloc failed', 00H			; `string'
CONST	ENDS
;	COMDAT ??_C@_0DC@LNFPIBEF@xmlAddDocEntity?3?5document?5witho@
CONST	SEGMENT
??_C@_0DC@LNFPIBEF@xmlAddDocEntity?3?5document?5witho@ DB 'xmlAddDocEntit'
	DB	'y: document without internal subset', 00H	; `string'
CONST	ENDS
;	COMDAT ??_C@_0CC@PEGCDJOI@xmlAddDocEntity?3?5document?5is?5NU@
CONST	SEGMENT
??_C@_0CC@PEGCDJOI@xmlAddDocEntity?3?5document?5is?5NU@ DB 'xmlAddDocEnti'
	DB	'ty: document is NULL', 00H			; `string'
CONST	ENDS
;	COMDAT ??_C@_0DC@JLIKFHBI@xmlAddDtdEntity?3?5document?5witho@
CONST	SEGMENT
??_C@_0DC@JLIKFHBI@xmlAddDtdEntity?3?5document?5witho@ DB 'xmlAddDtdEntit'
	DB	'y: document without external subset', 00H	; `string'
CONST	ENDS
;	COMDAT ??_C@_0CC@DMDBCNC@xmlAddDtdEntity?3?5document?5is?5NU@
CONST	SEGMENT
??_C@_0CC@DMDBCNC@xmlAddDtdEntity?3?5document?5is?5NU@ DB 'xmlAddDtdEntit'
	DB	'y: document is NULL', 00H			; `string'
CONST	ENDS
;	COMDAT ??_C@_0BP@DHPODGDH@xmlCreateEntity?3?5malloc?5failed@
CONST	SEGMENT
??_C@_0BP@DHPODGDH@xmlCreateEntity?3?5malloc?5failed@ DB 'xmlCreateEntity'
	DB	': malloc failed', 00H			; `string'
CONST	ENDS
_DATA	SEGMENT
_xmlEntityLt DD	00H
	DD	011H
	DD	FLAT:??_C@_02KCAKIFL@lt@
	DD	00H
	DD	00H
	DD	00H
	DD	00H
	DD	00H
	DD	00H
	DD	FLAT:??_C@_01MNNFJEPP@?$DM@
	DD	FLAT:??_C@_01MNNFJEPP@?$DM@
	DD	01H
	DD	06H
	DD	00H
	DD	00H
	DD	00H
	DD	00H
	DD	00H
	DD	01H
	ORG $+4
_xmlEntityGt DD	00H
	DD	011H
	DD	FLAT:??_C@_02GHFEHLK@gt@
	DD	00H
	DD	00H
	DD	00H
	DD	00H
	DD	00H
	DD	00H
	DD	FLAT:??_C@_01PPODPGHN@?$DO@
	DD	FLAT:??_C@_01PPODPGHN@?$DO@
	DD	01H
	DD	06H
	DD	00H
	DD	00H
	DD	00H
	DD	00H
	DD	00H
	DD	01H
	ORG $+4
_xmlEntityAmp DD 00H
	DD	011H
	DD	FLAT:??_C@_03DCBBJBAA@amp@
	DD	00H
	DD	00H
	DD	00H
	DD	00H
	DD	00H
	DD	00H
	DD	FLAT:??_C@_01HNPIGOCE@?$CG@
	DD	FLAT:??_C@_01HNPIGOCE@?$CG@
	DD	01H
	DD	06H
	DD	00H
	DD	00H
	DD	00H
	DD	00H
	DD	00H
	DD	01H
	ORG $+4
_xmlEntityQuot DD 00H
	DD	011H
	DD	FLAT:??_C@_04KJFGKBNM@quot@
	DD	00H
	DD	00H
	DD	00H
	DD	00H
	DD	00H
	DD	00H
	DD	FLAT:??_C@_01BJJEKLCA@?$CC@
	DD	FLAT:??_C@_01BJJEKLCA@?$CC@
	DD	01H
	DD	06H
	DD	00H
	DD	00H
	DD	00H
	DD	00H
	DD	00H
	DD	01H
	ORG $+4
_xmlEntityApos DD 00H
	DD	011H
	DD	FLAT:??_C@_04LBCJFAKL@apos@
	DD	00H
	DD	00H
	DD	00H
	DD	00H
	DD	00H
	DD	00H
	DD	FLAT:??_C@_01GEODFPGF@?8@
	DD	FLAT:??_C@_01GEODFPGF@?8@
	DD	01H
	DD	06H
	DD	00H
	DD	00H
	DD	00H
	DD	00H
	DD	00H
	DD	01H
_DATA	ENDS
; Function compile flags: /Odt
;	COMDAT __JustMyCode_Default
_TEXT	SEGMENT
__JustMyCode_Default PROC				; COMDAT
	push	ebp
	mov	ebp, esp
	pop	ebp
	ret	0
__JustMyCode_Default ENDP
_TEXT	ENDS
; Function compile flags: /Ogtp
; File c:\users\dag\documents\_clients\codeproject authors group\windows on arm\libxml2\libxml2-2.9.9\entities.c
;	COMDAT _xmlDumpEntityDeclScan
_TEXT	SEGMENT
_ent$ = 8						; size = 4
_buf$ = 12						; size = 4
_name$ = 16						; size = 4
_xmlDumpEntityDeclScan PROC				; COMDAT

; 1094 :                       const xmlChar *name ATTRIBUTE_UNUSED) {

	push	ebp
	mov	ebp, esp
	mov	ecx, OFFSET __128F40C8_entities@c
	call	@__CheckForDebuggerJustMyCode@4
	push	DWORD PTR _ent$[ebp]
	push	DWORD PTR _buf$[ebp]
	call	_xmlDumpEntityDecl
	add	esp, 8

; 1095 :     xmlDumpEntityDecl((xmlBufferPtr) buf, (xmlEntityPtr) ent);
; 1096 : }

	pop	ebp
	ret	0
_xmlDumpEntityDeclScan ENDP
_TEXT	ENDS
; Function compile flags: /Ogtp
; File c:\users\dag\documents\_clients\codeproject authors group\windows on arm\libxml2\libxml2-2.9.9\entities.c
;	COMDAT _xmlDumpEntityContent
_TEXT	SEGMENT
_buf$ = 8						; size = 4
_content$ = 12						; size = 4
_xmlDumpEntityContent PROC				; COMDAT

; 967  : xmlDumpEntityContent(xmlBufferPtr buf, const xmlChar *content) {

	push	ebp
	mov	ebp, esp
	push	edi
	mov	ecx, OFFSET __128F40C8_entities@c
	call	@__CheckForDebuggerJustMyCode@4
	mov	edi, DWORD PTR _buf$[ebp]
	cmp	DWORD PTR [edi+12], 2
	je	$LN6@xmlDumpEnt

; 968  :     if (buf->alloc == XML_BUFFER_ALLOC_IMMUTABLE) return;
; 969  :     if (xmlStrchr(content, '%')) {

	push	esi
	mov	esi, DWORD PTR _content$[ebp]
	push	37					; 00000025H
	push	esi
	call	_xmlStrchr
	add	esp, 8
	test	eax, eax
	je	$LN5@xmlDumpEnt

; 970  :         const xmlChar * base, *cur;
; 971  : 
; 972  : 	xmlBufferCCat(buf, "\"");

	push	OFFSET ??_C@_01BJJEKLCA@?$CC@
	push	edi
	call	_xmlBufferCCat

; 973  : 	base = cur = content;
; 974  : 	while (*cur != 0) {

	mov	al, BYTE PTR [esi]
	add	esp, 8
	mov	ecx, esi
	test	al, al
	je	SHORT $LN13@xmlDumpEnt
$LL2@xmlDumpEnt:

; 975  : 	    if (*cur == '"') {

	cmp	al, 34					; 00000022H
	jne	SHORT $LN7@xmlDumpEnt

; 976  : 		if (base != cur)

	cmp	ecx, esi
	je	SHORT $LN9@xmlDumpEnt

; 977  : 		    xmlBufferAdd(buf, base, cur - base);

	mov	eax, esi
	sub	eax, ecx
	push	eax
	push	ecx
	push	edi
	call	_xmlBufferAdd
	add	esp, 12					; 0000000cH
$LN9@xmlDumpEnt:

; 978  : 		xmlBufferAdd(buf, BAD_CAST "&quot;", 6);

	push	6
	push	OFFSET ??_C@_06DDLNFFBN@?$CGquot?$DL@

; 979  : 		cur++;
; 980  : 		base = cur;

	jmp	SHORT $LN20@xmlDumpEnt
$LN7@xmlDumpEnt:

; 981  : 	    } else if (*cur == '%') {

	cmp	al, 37					; 00000025H
	jne	SHORT $LN10@xmlDumpEnt

; 982  : 		if (base != cur)

	cmp	ecx, esi
	je	SHORT $LN17@xmlDumpEnt

; 983  : 		    xmlBufferAdd(buf, base, cur - base);

	mov	eax, esi
	sub	eax, ecx
	push	eax
	push	ecx
	push	edi
	call	_xmlBufferAdd
	add	esp, 12					; 0000000cH
$LN17@xmlDumpEnt:

; 984  : 		xmlBufferAdd(buf, BAD_CAST "&#x25;", 6);

	push	6
	push	OFFSET ??_C@_06MCFEAINI@?$CG?$CDx25?$DL@
$LN20@xmlDumpEnt:

; 973  : 	base = cur = content;
; 974  : 	while (*cur != 0) {

	push	edi
	call	_xmlBufferAdd
	lea	ecx, DWORD PTR [esi+1]
	add	esp, 12					; 0000000cH
$LN10@xmlDumpEnt:
	mov	al, BYTE PTR [esi+1]
	inc	esi
	test	al, al
	jne	SHORT $LL2@xmlDumpEnt

; 985  : 		cur++;
; 986  : 		base = cur;
; 987  : 	    } else {
; 988  : 		cur++;
; 989  : 	    }
; 990  : 	}
; 991  : 	if (base != cur)

	cmp	ecx, esi
	je	SHORT $LN13@xmlDumpEnt

; 992  : 	    xmlBufferAdd(buf, base, cur - base);

	sub	esi, ecx
	push	esi
	push	ecx
	push	edi
	call	_xmlBufferAdd
	add	esp, 12					; 0000000cH
$LN13@xmlDumpEnt:

; 993  : 	xmlBufferCCat(buf, "\"");

	push	OFFSET ??_C@_01BJJEKLCA@?$CC@
	push	edi
	call	_xmlBufferCCat

; 994  :     } else {
; 995  :         xmlBufferWriteQuotedString(buf, content);

	add	esp, 8
	pop	esi
	pop	edi

; 996  :     }
; 997  : }

	pop	ebp
	ret	0
$LN5@xmlDumpEnt:

; 994  :     } else {
; 995  :         xmlBufferWriteQuotedString(buf, content);

	push	esi
	push	edi
	call	_xmlBufferWriteQuotedString
	add	esp, 8
	pop	esi
$LN6@xmlDumpEnt:
	pop	edi

; 996  :     }
; 997  : }

	pop	ebp
	ret	0
_xmlDumpEntityContent ENDP
_TEXT	ENDS
; Function compile flags: /Ogtp
; File c:\users\dag\documents\_clients\codeproject authors group\windows on arm\libxml2\libxml2-2.9.9\entities.c
;	COMDAT _xmlCopyEntity
_TEXT	SEGMENT
_payload$ = 8						; size = 4
_name$ = 12						; size = 4
_xmlCopyEntity PROC					; COMDAT

; 914  : xmlCopyEntity(void *payload, const xmlChar *name ATTRIBUTE_UNUSED) {

	push	ebp
	mov	ebp, esp
	push	esi
	mov	ecx, OFFSET __128F40C8_entities@c
	call	@__CheckForDebuggerJustMyCode@4
	push	76					; 0000004cH
	call	DWORD PTR _xmlMalloc
	mov	esi, eax
	add	esp, 4
	test	esi, esi
	jne	SHORT $LN2@xmlCopyEnt

; 81   :     __xmlSimpleError(XML_FROM_TREE, XML_ERR_NO_MEMORY, NULL, NULL, extra);

	push	OFFSET ??_C@_0BO@CKONHBAN@xmlCopyEntity?3?3?5malloc?5failed@
	push	eax
	push	eax
	push	2
	push	2
	call	___xmlSimpleError
	add	esp, 20					; 00000014H

; 915  :     xmlEntityPtr ent = (xmlEntityPtr) payload;
; 916  :     xmlEntityPtr cur;
; 917  : 
; 918  :     cur = (xmlEntityPtr) xmlMalloc(sizeof(xmlEntity));
; 919  :     if (cur == NULL) {
; 920  :         xmlEntitiesErrMemory("xmlCopyEntity:: malloc failed");
; 921  : 	return(NULL);

	xor	eax, eax
	pop	esi

; 940  : }

	pop	ebp
	ret	0
$LN2@xmlCopyEnt:
	push	edi

; 922  :     }
; 923  :     memset(cur, 0, sizeof(xmlEntity));

	push	76					; 0000004cH
	push	0
	push	esi
	call	_memset

; 924  :     cur->type = XML_ENTITY_DECL;
; 925  : 
; 926  :     cur->etype = ent->etype;

	mov	edi, DWORD PTR _payload$[ebp]
	add	esp, 12					; 0000000cH
	mov	DWORD PTR [esi+4], 17			; 00000011H
	mov	eax, DWORD PTR [edi+48]
	mov	DWORD PTR [esi+48], eax

; 927  :     if (ent->name != NULL)

	mov	eax, DWORD PTR [edi+8]
	test	eax, eax
	je	SHORT $LN3@xmlCopyEnt

; 928  : 	cur->name = xmlStrdup(ent->name);

	push	eax
	call	_xmlStrdup
	add	esp, 4
	mov	DWORD PTR [esi+8], eax
$LN3@xmlCopyEnt:

; 929  :     if (ent->ExternalID != NULL)

	mov	eax, DWORD PTR [edi+52]
	test	eax, eax
	je	SHORT $LN4@xmlCopyEnt

; 930  : 	cur->ExternalID = xmlStrdup(ent->ExternalID);

	push	eax
	call	_xmlStrdup
	add	esp, 4
	mov	DWORD PTR [esi+52], eax
$LN4@xmlCopyEnt:

; 931  :     if (ent->SystemID != NULL)

	mov	eax, DWORD PTR [edi+56]
	test	eax, eax
	je	SHORT $LN5@xmlCopyEnt

; 932  : 	cur->SystemID = xmlStrdup(ent->SystemID);

	push	eax
	call	_xmlStrdup
	add	esp, 4
	mov	DWORD PTR [esi+56], eax
$LN5@xmlCopyEnt:

; 933  :     if (ent->content != NULL)

	mov	eax, DWORD PTR [edi+40]
	test	eax, eax
	je	SHORT $LN6@xmlCopyEnt

; 934  : 	cur->content = xmlStrdup(ent->content);

	push	eax
	call	_xmlStrdup
	add	esp, 4
	mov	DWORD PTR [esi+40], eax
$LN6@xmlCopyEnt:

; 935  :     if (ent->orig != NULL)

	mov	eax, DWORD PTR [edi+36]
	test	eax, eax
	je	SHORT $LN7@xmlCopyEnt

; 936  : 	cur->orig = xmlStrdup(ent->orig);

	push	eax
	call	_xmlStrdup
	add	esp, 4
	mov	DWORD PTR [esi+36], eax
$LN7@xmlCopyEnt:

; 937  :     if (ent->URI != NULL)

	mov	eax, DWORD PTR [edi+64]
	pop	edi
	test	eax, eax
	je	SHORT $LN8@xmlCopyEnt

; 938  : 	cur->URI = xmlStrdup(ent->URI);

	push	eax
	call	_xmlStrdup
	add	esp, 4
	mov	DWORD PTR [esi+64], eax
$LN8@xmlCopyEnt:

; 939  :     return(cur);

	mov	eax, esi
	pop	esi

; 940  : }

	pop	ebp
	ret	0
_xmlCopyEntity ENDP
_TEXT	ENDS
; Function compile flags: /Ogtp
; File c:\users\dag\documents\_clients\codeproject authors group\windows on arm\libxml2\libxml2-2.9.9\entities.c
;	COMDAT _xmlFreeEntityWrapper
_TEXT	SEGMENT
_entity$ = 8						; size = 4
_name$ = 12						; size = 4
_xmlFreeEntityWrapper PROC				; COMDAT

; 888  : xmlFreeEntityWrapper(void *entity, const xmlChar *name ATTRIBUTE_UNUSED) {

	push	ebp
	mov	ebp, esp
	mov	ecx, OFFSET __128F40C8_entities@c
	call	@__CheckForDebuggerJustMyCode@4
	mov	eax, DWORD PTR _entity$[ebp]
	test	eax, eax
	je	SHORT $LN2@xmlFreeEnt

; 889  :     if (entity != NULL)
; 890  : 	xmlFreeEntity((xmlEntityPtr) entity);

	push	eax
	call	_xmlFreeEntity
	add	esp, 4
$LN2@xmlFreeEnt:

; 891  : }

	pop	ebp
	ret	0
_xmlFreeEntityWrapper ENDP
_TEXT	ENDS
; Function compile flags: /Ogtp
; File c:\users\dag\documents\_clients\codeproject authors group\windows on arm\libxml2\libxml2-2.9.9\entities.c
;	COMDAT _xmlEncodeEntitiesInternal
_TEXT	SEGMENT
_buf$1 = -36						; size = 11
_buf$2 = -24						; size = 11
_end$1$ = -12						; size = 4
_indx$3$ = -12						; size = 4
_l$1$ = -8						; size = 4
_indx$2$ = -8						; size = 4
_indx$1$ = -8						; size = 4
_html$1$ = -4						; size = 4
_doc$ = 8						; size = 4
_buffer$1$ = 12						; size = 4
_input$ = 12						; size = 4
_attr$ = 16						; size = 4
_xmlEncodeEntitiesInternal PROC				; COMDAT

; 561  : xmlEncodeEntitiesInternal(xmlDocPtr doc, const xmlChar *input, int attr) {

	push	ebp
	mov	ebp, esp
	sub	esp, 36					; 00000024H
	push	edi
	mov	ecx, OFFSET __128F40C8_entities@c
	call	@__CheckForDebuggerJustMyCode@4
	mov	edi, DWORD PTR _input$[ebp]
	mov	DWORD PTR _html$1$[ebp], 0
	test	edi, edi
	jne	SHORT $LN16@xmlEncodeE

; 562  :     const xmlChar *cur = input;
; 563  :     xmlChar *buffer = NULL;
; 564  :     xmlChar *out = NULL;
; 565  :     size_t buffer_size = 0;
; 566  :     int html = 0;
; 567  : 
; 568  :     if (input == NULL) return(NULL);

	xor	eax, eax
	pop	edi

; 745  : }

	mov	esp, ebp
	pop	ebp
	ret	0
$LN16@xmlEncodeE:

; 569  :     if (doc != NULL)

	mov	eax, DWORD PTR _doc$[ebp]
	test	eax, eax
	je	SHORT $LN17@xmlEncodeE

; 570  :         html = (doc->type == XML_HTML_DOCUMENT_NODE);

	xor	ecx, ecx
	cmp	DWORD PTR [eax+4], 13			; 0000000dH
	sete	cl
	mov	DWORD PTR _html$1$[ebp], ecx
$LN17@xmlEncodeE:

; 571  : 
; 572  :     /*
; 573  :      * allocate an translation buffer.
; 574  :      */
; 575  :     buffer_size = 1000;

	push	ebx
	mov	ebx, 1000				; 000003e8H

; 576  :     buffer = (xmlChar *) xmlMalloc(buffer_size * sizeof(xmlChar));

	push	ebx
	call	DWORD PTR _xmlMalloc
	mov	ecx, eax
	add	esp, 4
	mov	DWORD PTR _buffer$1$[ebp], ecx

; 577  :     if (buffer == NULL) {

	test	ecx, ecx
	jne	SHORT $LN18@xmlEncodeE

; 81   :     __xmlSimpleError(XML_FROM_TREE, XML_ERR_NO_MEMORY, NULL, NULL, extra);

	push	OFFSET ??_C@_0CB@KNMFEFGD@xmlEncodeEntities?3?5malloc?5faile@
	push	eax
	push	eax
	push	2
	push	2
	call	___xmlSimpleError
	add	esp, 20					; 00000014H

; 578  :         xmlEntitiesErrMemory("xmlEncodeEntities: malloc failed");
; 579  : 	return(NULL);

	xor	eax, eax
	pop	ebx
	pop	edi

; 745  : }

	mov	esp, ebp
	pop	ebp
	ret	0
$LN18@xmlEncodeE:
	push	esi

; 580  :     }
; 581  :     out = buffer;

	mov	esi, ecx
$LN119@xmlEncodeE:

; 584  :         size_t indx = out - buffer;

	cmp	BYTE PTR [edi], 0
	je	$LN114@xmlEncodeE
	mov	edx, DWORD PTR _attr$[ebp]
	mov	eax, esi
	sub	eax, ecx
	mov	DWORD PTR _indx$1$[ebp], eax

; 585  :         if (indx + 100 > buffer_size) {

	add	eax, 100				; 00000064H
	cmp	eax, ebx
	jbe	SHORT $LN19@xmlEncodeE

; 586  : 
; 587  : 	    growBufferReentrant();

	lea	esi, DWORD PTR [ebx+ebx]
	cmp	esi, ebx
	jb	$mem_error$121
	push	esi
	push	ecx
	call	DWORD PTR _xmlRealloc
	mov	ecx, eax
	add	esp, 8
	test	ecx, ecx
	je	$mem_error$121

; 588  : 	    out = &buffer[indx];

	mov	eax, DWORD PTR _indx$1$[ebp]
	mov	ebx, esi
	mov	edx, DWORD PTR _attr$[ebp]
	mov	DWORD PTR _buffer$1$[ebp], ecx
	lea	esi, DWORD PTR [ecx+eax]
$LN19@xmlEncodeE:

; 589  : 	}
; 590  : 
; 591  : 	/*
; 592  : 	 * By default one have to encode at least '<', '>', '"' and '&' !
; 593  : 	 */
; 594  : 	if (*cur == '<') {

	mov	al, BYTE PTR [edi]
	cmp	al, 60					; 0000003cH
	jne	$LN22@xmlEncodeE

; 595  : 	    const xmlChar *end;
; 596  : 
; 597  : 	    /*
; 598  : 	     * Special handling of server side include in HTML attributes
; 599  : 	     */
; 600  : 	    if (html && attr &&
; 601  : 	        (cur[1] == '!') && (cur[2] == '-') && (cur[3] == '-') &&

	cmp	DWORD PTR _html$1$[ebp], 0
	je	$LN24@xmlEncodeE
	test	edx, edx
	je	$LN24@xmlEncodeE
	cmp	BYTE PTR [edi+1], 33			; 00000021H
	jne	$LN24@xmlEncodeE
	cmp	BYTE PTR [edi+2], 45			; 0000002dH
	jne	$LN24@xmlEncodeE
	cmp	BYTE PTR [edi+3], 45			; 0000002dH
	jne	$LN24@xmlEncodeE
	push	OFFSET ??_C@_03PNLDJJMO@?9?9?$DO@
	push	edi
	call	_xmlStrstr
	add	esp, 8
	mov	DWORD PTR _end$1$[ebp], eax
	test	eax, eax
	je	SHORT $LN24@xmlEncodeE

; 602  : 	        ((end = xmlStrstr(cur, BAD_CAST "-->")) != NULL)) {
; 603  : 	        while (cur != end) {

	cmp	edi, eax
	je	SHORT $LN5@xmlEncodeE
	mov	edx, DWORD PTR _buffer$1$[ebp]
	npad	2
$LL4@xmlEncodeE:

; 604  : 		    *out++ = *cur++;

	mov	cl, BYTE PTR [edi]
	inc	edi
	mov	BYTE PTR [esi], cl
	inc	esi

; 605  : 		    indx = out - buffer;

	mov	eax, esi
	sub	eax, edx
	mov	DWORD PTR _indx$2$[ebp], eax

; 606  : 		    if (indx + 100 > buffer_size) {

	add	eax, 100				; 00000064H
	cmp	eax, ebx
	jbe	SHORT $LN25@xmlEncodeE

; 607  : 			growBufferReentrant();

	lea	esi, DWORD PTR [ebx+ebx]
	cmp	esi, ebx
	jb	$mem_error$121
	push	esi
	push	edx
	call	DWORD PTR _xmlRealloc
	add	esp, 8
	test	eax, eax
	je	$mem_error$121
	mov	ebx, esi
	mov	edx, eax

; 608  : 			out = &buffer[indx];

	mov	esi, DWORD PTR _indx$2$[ebp]
	mov	DWORD PTR _buffer$1$[ebp], edx
	add	esi, eax
$LN25@xmlEncodeE:

; 602  : 	        ((end = xmlStrstr(cur, BAD_CAST "-->")) != NULL)) {
; 603  : 	        while (cur != end) {

	cmp	edi, DWORD PTR _end$1$[ebp]
	jne	SHORT $LL4@xmlEncodeE
$LN5@xmlEncodeE:

; 609  : 		    }
; 610  : 		}
; 611  : 		*out++ = *cur++;

	movzx	eax, BYTE PTR [edi]
	mov	ecx, DWORD PTR _buffer$1$[ebp]
	mov	BYTE PTR [esi], al

; 612  : 		*out++ = *cur++;

	movzx	eax, BYTE PTR [edi+1]
	mov	BYTE PTR [esi+1], al

; 613  : 		*out++ = *cur++;

	movzx	eax, BYTE PTR [edi+2]
	mov	BYTE PTR [esi+2], al
	add	esi, 3
	add	edi, 3
	jmp	$LN119@xmlEncodeE
$LN24@xmlEncodeE:

; 582  : 
; 583  :     while (*cur != '\0') {

	mov	ecx, DWORD PTR _buffer$1$[ebp]

; 614  : 		continue;
; 615  : 	    }
; 616  : 	    *out++ = '&';

	mov	DWORD PTR [esi], 997485606		; 3b746c26H

; 617  : 	    *out++ = 'l';
; 618  : 	    *out++ = 't';
; 619  : 	    *out++ = ';';

	add	esi, 4
	inc	edi
	jmp	$LN119@xmlEncodeE
$LN22@xmlEncodeE:

; 620  : 	} else if (*cur == '>') {

	cmp	al, 62					; 0000003eH
	jne	SHORT $LN28@xmlEncodeE

; 621  : 	    *out++ = '&';

	mov	ecx, DWORD PTR _buffer$1$[ebp]
	mov	DWORD PTR [esi], 997484326		; 3b746726H

; 622  : 	    *out++ = 'g';
; 623  : 	    *out++ = 't';
; 624  : 	    *out++ = ';';

	add	esi, 4
	inc	edi
	jmp	$LN119@xmlEncodeE
$LN28@xmlEncodeE:

; 625  : 	} else if (*cur == '&') {

	cmp	al, 38					; 00000026H
	jne	$LN30@xmlEncodeE

; 626  : 	    /*
; 627  : 	     * Special handling of &{...} construct from HTML 4, see
; 628  : 	     * http://www.w3.org/TR/html401/appendix/notes.html#h-B.7.1
; 629  : 	     */
; 630  : 	    if (html && attr && (cur[1] == '{') &&

	cmp	DWORD PTR _html$1$[ebp], 0
	je	SHORT $LN32@xmlEncodeE
	test	edx, edx
	je	SHORT $LN32@xmlEncodeE
	cmp	BYTE PTR [edi+1], 123			; 0000007bH
	jne	SHORT $LN32@xmlEncodeE
	push	125					; 0000007dH
	push	edi
	call	_strchr
	add	esp, 8
	test	eax, eax
	je	SHORT $LN32@xmlEncodeE

; 631  : 	        (strchr((const char *) cur, '}'))) {
; 632  : 	        while (*cur != '}') {

	mov	al, BYTE PTR [edi]
	cmp	al, 125					; 0000007dH
	je	SHORT $LN38@xmlEncodeE
	mov	edx, DWORD PTR _buffer$1$[ebp]
	npad	4
$LL6@xmlEncodeE:

; 633  : 		    *out++ = *cur++;

	mov	BYTE PTR [esi], al
	inc	edi
	inc	esi

; 634  : 		    indx = out - buffer;

	mov	eax, esi
	sub	eax, edx
	mov	DWORD PTR _indx$3$[ebp], eax

; 635  : 		    if (indx + 100 > buffer_size) {

	add	eax, 100				; 00000064H
	cmp	eax, ebx
	jbe	SHORT $LN33@xmlEncodeE

; 636  : 			growBufferReentrant();

	lea	esi, DWORD PTR [ebx+ebx]
	cmp	esi, ebx
	jb	$mem_error$121
	push	esi
	push	edx
	call	DWORD PTR _xmlRealloc
	mov	ecx, eax
	add	esp, 8
	test	ecx, ecx
	je	$mem_error$121

; 637  : 			out = &buffer[indx];

	mov	eax, DWORD PTR _indx$3$[ebp]
	mov	edx, ecx
	mov	ebx, esi
	mov	DWORD PTR _buffer$1$[ebp], edx
	lea	esi, DWORD PTR [ecx+eax]
$LN33@xmlEncodeE:

; 631  : 	        (strchr((const char *) cur, '}'))) {
; 632  : 	        while (*cur != '}') {

	mov	al, BYTE PTR [edi]
	cmp	al, 125					; 0000007dH
	jne	SHORT $LL6@xmlEncodeE
$LN38@xmlEncodeE:

; 582  : 
; 583  :     while (*cur != '\0') {

	mov	BYTE PTR [esi], al
	inc	esi
$LN15@xmlEncodeE:
	mov	ecx, DWORD PTR _buffer$1$[ebp]
	inc	edi
	jmp	$LN119@xmlEncodeE
$LN32@xmlEncodeE:
	mov	ecx, DWORD PTR _buffer$1$[ebp]

; 638  : 		    }
; 639  : 		}
; 640  : 		*out++ = *cur++;
; 641  : 		continue;
; 642  : 	    }
; 643  : 	    *out++ = '&';

	mov	DWORD PTR [esi], 1886216486		; 706d6126H

; 644  : 	    *out++ = 'a';
; 645  : 	    *out++ = 'm';
; 646  : 	    *out++ = 'p';
; 647  : 	    *out++ = ';';

	mov	BYTE PTR [esi+4], 59			; 0000003bH
	add	esi, 5
	inc	edi
	jmp	$LN119@xmlEncodeE
$LN30@xmlEncodeE:

; 648  : 	} else if (((*cur >= 0x20) && (*cur < 0x80)) ||
; 649  : 	    (*cur == '\n') || (*cur == '\t') || ((html) && (*cur == '\r'))) {

	cmp	al, 32					; 00000020H
	jb	SHORT $LN39@xmlEncodeE
	cmp	al, 128					; 00000080H
	jb	SHORT $LN38@xmlEncodeE
$LN39@xmlEncodeE:
	cmp	al, 10					; 0000000aH
	je	SHORT $LN38@xmlEncodeE
	cmp	al, 9
	je	SHORT $LN38@xmlEncodeE
	mov	edx, DWORD PTR _html$1$[ebp]
	test	edx, edx
	je	SHORT $LN36@xmlEncodeE
	cmp	al, 13					; 0000000dH
	je	SHORT $LN38@xmlEncodeE
$LN36@xmlEncodeE:

; 650  : 	    /*
; 651  : 	     * default case, just copy !
; 652  : 	     */
; 653  : 	    *out++ = *cur;
; 654  : 	} else if (*cur >= 0x80) {

	cmp	al, 128					; 00000080H
	jb	$LN40@xmlEncodeE

; 655  : 	    if (((doc != NULL) && (doc->encoding != NULL)) || (html)) {

	mov	ecx, DWORD PTR _doc$[ebp]
	test	ecx, ecx
	je	SHORT $LN45@xmlEncodeE
	cmp	DWORD PTR [ecx+60], 0
	jne	SHORT $LN38@xmlEncodeE
$LN45@xmlEncodeE:
	test	edx, edx
	jne	SHORT $LN38@xmlEncodeE

; 656  : 		/*
; 657  : 		 * Bjørn Reese <br@sseusa.com> provided the patch
; 658  : 	        xmlChar xc;
; 659  : 	        xc = (*cur & 0x3F) << 6;
; 660  : 	        if (cur[1] != 0) {
; 661  : 		    xc += *(++cur) & 0x3F;
; 662  : 		    *out++ = xc;
; 663  : 	        } else
; 664  : 		 */
; 665  : 		*out++ = *cur;
; 666  : 	    } else {
; 667  : 		/*
; 668  : 		 * We assume we have UTF-8 input.
; 669  : 		 */
; 670  : 		char buf[11], *ptr;
; 671  : 		int val = 0, l = 1;

	xor	ecx, ecx
	mov	edx, 1
	mov	DWORD PTR _l$1$[ebp], edx

; 672  : 
; 673  : 		if (*cur < 0xC0) {

	cmp	al, 192					; 000000c0H
	jae	SHORT $LN46@xmlEncodeE

; 674  : 		    xmlEntitiesErr(XML_CHECK_NOT_UTF8,

	push	OFFSET ??_C@_0CD@NODHNPMI@xmlEncodeEntities?3?5input?5not?5UT@
	push	5032					; 000013a8H
	call	_xmlEntitiesErr
	add	esp, 8

; 675  : 			    "xmlEncodeEntities: input not UTF-8");
; 676  : 		    if (doc != NULL)

	cmp	DWORD PTR _doc$[ebp], 0
	je	SHORT $LN48@xmlEncodeE

; 677  : 			doc->encoding = xmlStrdup(BAD_CAST "ISO-8859-1");

	push	OFFSET ??_C@_0L@GJIJNDEK@ISO?98859?91@
	call	_xmlStrdup
	mov	ecx, DWORD PTR _doc$[ebp]
	add	esp, 4
	mov	DWORD PTR [ecx+60], eax
$LN48@xmlEncodeE:

; 678  : 		    snprintf(buf, sizeof(buf), "&#%d;", *cur);

	movzx	eax, BYTE PTR [edi]
	push	eax
	push	OFFSET ??_C@_05PNCJDOGL@?$CG?$CD?$CFd?$DL@
	lea	eax, DWORD PTR _buf$2[ebp]
	push	11					; 0000000bH
	push	eax
	call	_snprintf

; 679  : 		    buf[sizeof(buf) - 1] = 0;
; 680  : 		    ptr = buf;
; 681  : 		    while (*ptr != 0) *out++ = *ptr++;

	mov	al, BYTE PTR _buf$2[ebp]
	add	esp, 16					; 00000010H
	mov	BYTE PTR _buf$2[ebp+10], 0
	test	al, al
	je	$LN15@xmlEncodeE
	lea	ecx, DWORD PTR _buf$2[ebp]
	sub	ecx, esi
	npad	1
$LL8@xmlEncodeE:
	mov	BYTE PTR [esi], al
	inc	esi
	mov	al, BYTE PTR [ecx+esi]
	test	al, al
	jne	SHORT $LL8@xmlEncodeE

; 582  : 
; 583  :     while (*cur != '\0') {

	mov	ecx, DWORD PTR _buffer$1$[ebp]
	inc	edi
	jmp	$LN119@xmlEncodeE
$LN46@xmlEncodeE:

; 682  : 		    cur++;
; 683  : 		    continue;
; 684  : 		} else if (*cur < 0xE0) {

	cmp	al, 224					; 000000e0H
	jae	SHORT $LN49@xmlEncodeE

; 685  :                     val = (cur[0]) & 0x1F;
; 686  : 		    val <<= 6;
; 687  : 		    val |= (cur[1]) & 0x3F;

	movzx	ecx, al
	movzx	eax, BYTE PTR [edi+1]
	and	ecx, 31					; 0000001fH
	shl	ecx, 6
	and	eax, 63					; 0000003fH
	or	ecx, eax

; 688  : 		    l = 2;

	mov	DWORD PTR _l$1$[ebp], 2
	jmp	SHORT $LN112@xmlEncodeE
$LN49@xmlEncodeE:

; 689  : 		} else if (*cur < 0xF0) {

	cmp	al, 240					; 000000f0H
	jae	SHORT $LN51@xmlEncodeE

; 690  :                     val = (cur[0]) & 0x0F;
; 691  : 		    val <<= 6;
; 692  : 		    val |= (cur[1]) & 0x3F;
; 693  : 		    val <<= 6;
; 694  : 		    val |= (cur[2]) & 0x3F;

	movzx	ecx, al
	movzx	eax, BYTE PTR [edi+1]
	and	ecx, 15					; 0000000fH
	and	eax, 63					; 0000003fH
	shl	ecx, 6
	or	ecx, eax

; 695  : 		    l = 3;

	mov	DWORD PTR _l$1$[ebp], 3
	movzx	eax, BYTE PTR [edi+2]
	shl	ecx, 6
	and	eax, 63					; 0000003fH
	or	ecx, eax
	jmp	SHORT $LN112@xmlEncodeE
$LN51@xmlEncodeE:

; 696  : 		} else if (*cur < 0xF8) {

	cmp	al, 248					; 000000f8H
	jae	SHORT $LN53@xmlEncodeE

; 697  :                     val = (cur[0]) & 0x07;
; 698  : 		    val <<= 6;
; 699  : 		    val |= (cur[1]) & 0x3F;
; 700  : 		    val <<= 6;
; 701  : 		    val |= (cur[2]) & 0x3F;
; 702  : 		    val <<= 6;
; 703  : 		    val |= (cur[3]) & 0x3F;

	movzx	ecx, al

; 704  : 		    l = 4;

	mov	edx, 4
	movzx	eax, BYTE PTR [edi+1]
	and	ecx, 7
	and	eax, 63					; 0000003fH
	shl	ecx, 6
	or	ecx, eax
	mov	DWORD PTR _l$1$[ebp], edx
	movzx	eax, BYTE PTR [edi+2]
	and	eax, 63					; 0000003fH
	shl	ecx, 6
	or	ecx, eax
	movzx	eax, BYTE PTR [edi+3]
	shl	ecx, 6
	and	eax, 63					; 0000003fH
	or	ecx, eax
$LN53@xmlEncodeE:

; 705  : 		}
; 706  : 		if ((l == 1) || (!IS_CHAR(val))) {

	cmp	edx, 1
	je	SHORT $LN55@xmlEncodeE
$LN112@xmlEncodeE:
	cmp	ecx, 256				; 00000100H
	jae	$LN69@xmlEncodeE
	cmp	ecx, 9
	jb	SHORT $LN61@xmlEncodeE
	cmp	ecx, 10					; 0000000aH
	jbe	$LN113@xmlEncodeE
$LN61@xmlEncodeE:
	cmp	ecx, 13					; 0000000dH
	je	$LN113@xmlEncodeE
	cmp	ecx, 32					; 00000020H
	jae	$LN113@xmlEncodeE
$LN55@xmlEncodeE:

; 707  : 		    xmlEntitiesErr(XML_ERR_INVALID_CHAR,

	push	OFFSET ??_C@_0CG@BLNNOKKO@xmlEncodeEntities?3?5char?5out?5of?5@
	push	9
	call	_xmlEntitiesErr
	add	esp, 8

; 708  : 			"xmlEncodeEntities: char out of range\n");
; 709  : 		    if (doc != NULL)

	cmp	DWORD PTR _doc$[ebp], 0
	je	SHORT $LN56@xmlEncodeE

; 710  : 			doc->encoding = xmlStrdup(BAD_CAST "ISO-8859-1");

	push	OFFSET ??_C@_0L@GJIJNDEK@ISO?98859?91@
	call	_xmlStrdup
	mov	ecx, DWORD PTR _doc$[ebp]
	add	esp, 4
	mov	DWORD PTR [ecx+60], eax
$LN56@xmlEncodeE:

; 711  : 		    snprintf(buf, sizeof(buf), "&#%d;", *cur);

	movzx	eax, BYTE PTR [edi]
	push	eax
	push	OFFSET ??_C@_05PNCJDOGL@?$CG?$CD?$CFd?$DL@
	lea	eax, DWORD PTR _buf$2[ebp]
	push	11					; 0000000bH
	push	eax
	call	_snprintf

; 712  : 		    buf[sizeof(buf) - 1] = 0;
; 713  : 		    ptr = buf;
; 714  : 		    while (*ptr != 0) *out++ = *ptr++;

	mov	al, BYTE PTR _buf$2[ebp]
	lea	ecx, DWORD PTR _buf$2[ebp]
	add	esp, 16					; 00000010H
	mov	BYTE PTR _buf$2[ebp+10], 0
	test	al, al
	je	$LN15@xmlEncodeE
$LL10@xmlEncodeE:
	mov	BYTE PTR [esi], al
	lea	ecx, DWORD PTR [ecx+1]
	mov	al, BYTE PTR [ecx]
	inc	esi
	test	al, al
	jne	SHORT $LL10@xmlEncodeE

; 582  : 
; 583  :     while (*cur != '\0') {

	mov	ecx, DWORD PTR _buffer$1$[ebp]
	inc	edi
	jmp	$LN119@xmlEncodeE
$LN69@xmlEncodeE:

; 705  : 		}
; 706  : 		if ((l == 1) || (!IS_CHAR(val))) {

	cmp	ecx, 55295				; 0000d7ffH
	jbe	SHORT $LN113@xmlEncodeE
	cmp	ecx, 57344				; 0000e000H
	jb	SHORT $LN64@xmlEncodeE
	cmp	ecx, 65533				; 0000fffdH
	jbe	SHORT $LN113@xmlEncodeE
$LN64@xmlEncodeE:
	lea	eax, DWORD PTR [ecx-65536]
	cmp	eax, 1048575				; 000fffffH
	ja	$LN55@xmlEncodeE
$LN113@xmlEncodeE:

; 715  : 		    cur++;
; 716  : 		    continue;
; 717  : 		}
; 718  : 		/*
; 719  : 		 * We could do multiple things here. Just save as a char ref
; 720  : 		 */
; 721  : 		snprintf(buf, sizeof(buf), "&#x%X;", val);

	push	ecx
	push	OFFSET ??_C@_06EPJFDPIN@?$CG?$CDx?$CFX?$DL@
	lea	eax, DWORD PTR _buf$2[ebp]
	push	11					; 0000000bH
	push	eax
	call	_snprintf

; 722  : 		buf[sizeof(buf) - 1] = 0;
; 723  : 		ptr = buf;
; 724  : 		while (*ptr != 0) *out++ = *ptr++;

	mov	cl, BYTE PTR _buf$2[ebp]
	lea	eax, DWORD PTR _buf$2[ebp]
	add	esp, 16					; 00000010H
	mov	BYTE PTR _buf$2[ebp+10], 0
	test	cl, cl
	je	SHORT $LN13@xmlEncodeE
$LL12@xmlEncodeE:
	mov	BYTE PTR [esi], cl
	lea	eax, DWORD PTR [eax+1]
	mov	cl, BYTE PTR [eax]
	inc	esi
	test	cl, cl
	jne	SHORT $LL12@xmlEncodeE
$LN13@xmlEncodeE:

; 725  : 		cur += l;

	add	edi, DWORD PTR _l$1$[ebp]
	mov	ecx, DWORD PTR _buffer$1$[ebp]
	jmp	$LN119@xmlEncodeE
$LN40@xmlEncodeE:

; 726  : 		continue;
; 727  : 	    }
; 728  : 	} else if (IS_BYTE_CHAR(*cur)) {

	cmp	al, 9
	jb	SHORT $LN59@xmlEncodeE
	cmp	al, 10					; 0000000aH
	jbe	SHORT $LN58@xmlEncodeE
$LN59@xmlEncodeE:
	cmp	al, 13					; 0000000dH
	je	SHORT $LN58@xmlEncodeE
	cmp	al, 32					; 00000020H
	jb	$LN15@xmlEncodeE
$LN58@xmlEncodeE:

; 729  : 	    char buf[11], *ptr;
; 730  : 
; 731  : 	    snprintf(buf, sizeof(buf), "&#%d;", *cur);

	movzx	eax, al
	push	eax
	push	OFFSET ??_C@_05PNCJDOGL@?$CG?$CD?$CFd?$DL@
	lea	eax, DWORD PTR _buf$1[ebp]
	push	11					; 0000000bH
	push	eax
	call	_snprintf

; 732  : 	    buf[sizeof(buf) - 1] = 0;
; 733  :             ptr = buf;
; 734  : 	    while (*ptr != 0) *out++ = *ptr++;

	mov	al, BYTE PTR _buf$1[ebp]
	add	esp, 16					; 00000010H
	mov	BYTE PTR _buf$1[ebp+10], 0
	test	al, al
	je	$LN15@xmlEncodeE
	lea	ecx, DWORD PTR _buf$1[ebp]
	sub	ecx, esi
	npad	5
$LL14@xmlEncodeE:
	mov	BYTE PTR [esi], al
	inc	esi
	mov	al, BYTE PTR [ecx+esi]
	test	al, al
	jne	SHORT $LL14@xmlEncodeE

; 582  : 
; 583  :     while (*cur != '\0') {

	mov	ecx, DWORD PTR _buffer$1$[ebp]
	inc	edi
	jmp	$LN119@xmlEncodeE
$mem_error$121:

; 81   :     __xmlSimpleError(XML_FROM_TREE, XML_ERR_NO_MEMORY, NULL, NULL, extra);

	push	OFFSET ??_C@_0CC@INAAIMLK@xmlEncodeEntities?3?5realloc?5fail@
	push	0
	push	0
	push	2
	push	2
	call	___xmlSimpleError

; 740  : 
; 741  : mem_error:
; 742  :     xmlEntitiesErrMemory("xmlEncodeEntities: realloc failed");
; 743  :     xmlFree(buffer);

	mov	eax, DWORD PTR _buffer$1$[ebp]
	push	eax
	call	DWORD PTR _xmlFree
	add	esp, 24					; 00000018H

; 744  :     return(NULL);

	xor	eax, eax
	pop	esi
	pop	ebx
	pop	edi

; 745  : }

	mov	esp, ebp
	pop	ebp
	ret	0
$LN114@xmlEncodeE:

; 735  : 	}
; 736  : 	cur++;
; 737  :     }
; 738  :     *out = 0;

	mov	BYTE PTR [esi], 0

; 739  :     return(buffer);

	mov	eax, ecx
	pop	esi
	pop	ebx
	pop	edi

; 745  : }

	mov	esp, ebp
	pop	ebp
	ret	0
_xmlEncodeEntitiesInternal ENDP
_TEXT	ENDS
; Function compile flags: /Ogtp
; File c:\users\dag\documents\_clients\codeproject authors group\windows on arm\libxml2\libxml2-2.9.9\entities.c
;	COMDAT _xmlGetEntityFromTable
_TEXT	SEGMENT
_table$ = 8						; size = 4
_name$ = 12						; size = 4
_xmlGetEntityFromTable PROC				; COMDAT

; 440  : xmlGetEntityFromTable(xmlEntitiesTablePtr table, const xmlChar *name) {

	push	ebp
	mov	ebp, esp
	mov	ecx, OFFSET __128F40C8_entities@c
	call	@__CheckForDebuggerJustMyCode@4

; 442  : }

	pop	ebp

; 441  :     return((xmlEntityPtr) xmlHashLookup(table, name));

	jmp	_xmlHashLookup
_xmlGetEntityFromTable ENDP
_TEXT	ENDS
; Function compile flags: /Ogtp
; File c:\users\dag\documents\_clients\codeproject authors group\windows on arm\libxml2\libxml2-2.9.9\entities.c
;	COMDAT _xmlAddEntity
_TEXT	SEGMENT
_dtd$ = 8						; size = 4
_name$ = 12						; size = 4
_type$ = 16						; size = 4
_ExternalID$ = 20					; size = 4
_SystemID$ = 24						; size = 4
_content$ = 28						; size = 4
_xmlAddEntity PROC					; COMDAT

; 210  : 	  const xmlChar *content) {

	push	ebp
	mov	ebp, esp
	push	ebx
	push	esi
	push	edi
	mov	ecx, OFFSET __128F40C8_entities@c
	call	@__CheckForDebuggerJustMyCode@4
	mov	ecx, DWORD PTR _name$[ebp]
	xor	ebx, ebx
	test	ecx, ecx
	je	$LN17@xmlAddEnti

; 211  :     xmlDictPtr dict = NULL;
; 212  :     xmlEntitiesTablePtr table = NULL;
; 213  :     xmlEntityPtr ret;
; 214  : 
; 215  :     if (name == NULL)
; 216  : 	return(NULL);
; 217  :     if (dtd == NULL)

	mov	edi, DWORD PTR _dtd$[ebp]
	test	edi, edi
	je	$LN17@xmlAddEnti

; 218  : 	return(NULL);
; 219  :     if (dtd->doc != NULL)

	mov	eax, DWORD PTR [edi+32]
	test	eax, eax
	je	SHORT $LN6@xmlAddEnti

; 220  :         dict = dtd->doc->dict;

	mov	ebx, DWORD PTR [eax+80]
$LN6@xmlAddEnti:

; 221  : 
; 222  :     switch (type) {

	mov	edx, DWORD PTR _type$[ebp]
	lea	eax, DWORD PTR [edx-1]
	cmp	eax, 5
	ja	SHORT $LN17@xmlAddEnti
	jmp	DWORD PTR $LN22@xmlAddEnti[eax*4]
$LN7@xmlAddEnti:

; 223  :         case XML_INTERNAL_GENERAL_ENTITY:
; 224  :         case XML_EXTERNAL_GENERAL_PARSED_ENTITY:
; 225  :         case XML_EXTERNAL_GENERAL_UNPARSED_ENTITY:
; 226  : 	    if (dtd->entities == NULL)

	mov	esi, DWORD PTR [edi+48]
	test	esi, esi
	jne	SHORT $LN19@xmlAddEnti

; 227  : 		dtd->entities = xmlHashCreateDict(0, dict);

	push	ebx
	push	esi
	call	_xmlHashCreateDict
	mov	esi, eax
	mov	DWORD PTR [edi+48], esi

; 228  : 	    table = dtd->entities;
; 229  : 	    break;

	jmp	SHORT $LN20@xmlAddEnti
$LN9@xmlAddEnti:

; 230  :         case XML_INTERNAL_PARAMETER_ENTITY:
; 231  :         case XML_EXTERNAL_PARAMETER_ENTITY:
; 232  : 	    if (dtd->pentities == NULL)

	mov	esi, DWORD PTR [edi+60]
	test	esi, esi
	jne	SHORT $LN19@xmlAddEnti

; 233  : 		dtd->pentities = xmlHashCreateDict(0, dict);

	push	ebx
	push	esi
	call	_xmlHashCreateDict
	mov	esi, eax
	mov	DWORD PTR [edi+60], esi
$LN20@xmlAddEnti:

; 234  : 	    table = dtd->pentities;
; 235  : 	    break;
; 236  :         case XML_INTERNAL_PREDEFINED_ENTITY:
; 237  : 	    return(NULL);
; 238  :     }
; 239  :     if (table == NULL)

	mov	edx, DWORD PTR _type$[ebp]
	add	esp, 8
	mov	ecx, DWORD PTR _name$[ebp]
	test	esi, esi
	je	SHORT $LN17@xmlAddEnti
$LN19@xmlAddEnti:

; 240  : 	return(NULL);
; 241  :     ret = xmlCreateEntity(dict, name, type, ExternalID, SystemID, content);

	push	DWORD PTR _content$[ebp]
	push	DWORD PTR _SystemID$[ebp]
	push	DWORD PTR _ExternalID$[ebp]
	push	edx
	push	ecx
	push	ebx
	call	_xmlCreateEntity
	mov	ebx, eax
	add	esp, 24					; 00000018H

; 242  :     if (ret == NULL)

	test	ebx, ebx
	je	SHORT $LN17@xmlAddEnti

; 243  :         return(NULL);
; 244  :     ret->doc = dtd->doc;

	mov	ecx, DWORD PTR [edi+32]

; 245  : 
; 246  :     if (xmlHashAddEntry(table, name, ret)) {

	push	ebx
	push	DWORD PTR _name$[ebp]
	mov	DWORD PTR [ebx+32], ecx
	push	esi
	call	_xmlHashAddEntry
	add	esp, 12					; 0000000cH
	test	eax, eax
	je	SHORT $LN14@xmlAddEnti

; 247  : 	/*
; 248  : 	 * entity was already defined at another level.
; 249  : 	 */
; 250  :         xmlFreeEntity(ret);

	push	ebx
	call	_xmlFreeEntity
	add	esp, 4
$LN17@xmlAddEnti:

; 251  : 	return(NULL);
; 252  :     }
; 253  :     return(ret);
; 254  : }

	pop	edi
	pop	esi
	xor	eax, eax
	pop	ebx
	pop	ebp
	ret	0
$LN14@xmlAddEnti:
	pop	edi
	pop	esi
	mov	eax, ebx
	pop	ebx
	pop	ebp
	ret	0
	npad	3
$LN22@xmlAddEnti:
	DD	$LN7@xmlAddEnti
	DD	$LN7@xmlAddEnti
	DD	$LN7@xmlAddEnti
	DD	$LN9@xmlAddEnti
	DD	$LN9@xmlAddEnti
	DD	$LN17@xmlAddEnti
_xmlAddEntity ENDP
_TEXT	ENDS
; Function compile flags: /Ogtp
; File c:\users\dag\documents\_clients\codeproject authors group\windows on arm\libxml2\libxml2-2.9.9\entities.c
;	COMDAT _xmlCreateEntity
_TEXT	SEGMENT
_dict$ = 8						; size = 4
_name$ = 12						; size = 4
_type$ = 16						; size = 4
_ExternalID$ = 20					; size = 4
_SystemID$ = 24						; size = 4
_content$ = 28						; size = 4
_xmlCreateEntity PROC					; COMDAT

; 156  : 	        const xmlChar *content) {

	push	ebp
	mov	ebp, esp
	push	esi
	mov	ecx, OFFSET __128F40C8_entities@c
	call	@__CheckForDebuggerJustMyCode@4
	push	76					; 0000004cH
	call	DWORD PTR _xmlMalloc
	mov	esi, eax
	add	esp, 4
	test	esi, esi
	jne	SHORT $LN2@xmlCreateE

; 81   :     __xmlSimpleError(XML_FROM_TREE, XML_ERR_NO_MEMORY, NULL, NULL, extra);

	push	OFFSET ??_C@_0BP@DHPODGDH@xmlCreateEntity?3?5malloc?5failed@
	push	eax
	push	eax
	push	2
	push	2
	call	___xmlSimpleError
	add	esp, 20					; 00000014H

; 157  :     xmlEntityPtr ret;
; 158  : 
; 159  :     ret = (xmlEntityPtr) xmlMalloc(sizeof(xmlEntity));
; 160  :     if (ret == NULL) {
; 161  :         xmlEntitiesErrMemory("xmlCreateEntity: malloc failed");
; 162  : 	return(NULL);

	xor	eax, eax
	pop	esi

; 202  : }

	pop	ebp
	ret	0
$LN2@xmlCreateE:

; 163  :     }
; 164  :     memset(ret, 0, sizeof(xmlEntity));

	mov	DWORD PTR [esi], 0

; 165  :     ret->type = XML_ENTITY_DECL;
; 166  :     ret->checked = 0;
; 167  : 
; 168  :     /*
; 169  :      * fill the structure.
; 170  :      */
; 171  :     ret->etype = (xmlEntityType) type;

	mov	eax, DWORD PTR _type$[ebp]
	mov	DWORD PTR [esi+8], 0
	mov	DWORD PTR [esi+12], 0
	mov	DWORD PTR [esi+16], 0
	mov	DWORD PTR [esi+20], 0
	mov	DWORD PTR [esi+24], 0
	mov	DWORD PTR [esi+28], 0
	mov	DWORD PTR [esi+32], 0
	mov	DWORD PTR [esi+36], 0
	mov	DWORD PTR [esi+40], 0
	mov	DWORD PTR [esi+44], 0
	mov	DWORD PTR [esi+52], 0
	mov	DWORD PTR [esi+56], 0
	mov	DWORD PTR [esi+60], 0
	push	ebx
	mov	DWORD PTR [esi+64], 0
	push	edi

; 172  :     if (dict == NULL) {

	mov	edi, DWORD PTR _dict$[ebp]
	mov	DWORD PTR [esi+68], 0
	mov	DWORD PTR [esi+4], 17			; 00000011H
	mov	DWORD PTR [esi+72], 0
	mov	DWORD PTR [esi+48], eax
	test	edi, edi
	jne	SHORT $LN3@xmlCreateE

; 173  : 	ret->name = xmlStrdup(name);

	push	DWORD PTR _name$[ebp]
	call	_xmlStrdup
	mov	DWORD PTR [esi+8], eax
	add	esp, 4

; 174  : 	if (ExternalID != NULL)

	mov	eax, DWORD PTR _ExternalID$[ebp]
	test	eax, eax
	je	SHORT $LN5@xmlCreateE

; 175  : 	    ret->ExternalID = xmlStrdup(ExternalID);

	push	eax
	call	_xmlStrdup
	add	esp, 4
	mov	DWORD PTR [esi+52], eax
$LN5@xmlCreateE:

; 176  : 	if (SystemID != NULL)

	mov	eax, DWORD PTR _SystemID$[ebp]
	test	eax, eax
	je	SHORT $LN8@xmlCreateE

; 177  : 	    ret->SystemID = xmlStrdup(SystemID);

	push	eax
	call	_xmlStrdup
	add	esp, 4

; 178  :     } else {

	jmp	SHORT $LN17@xmlCreateE
$LN3@xmlCreateE:

; 179  :         ret->name = xmlDictLookup(dict, name, -1);

	push	-1
	push	DWORD PTR _name$[ebp]
	push	edi
	call	_xmlDictLookup
	mov	DWORD PTR [esi+8], eax
	add	esp, 12					; 0000000cH

; 180  : 	if (ExternalID != NULL)

	mov	eax, DWORD PTR _ExternalID$[ebp]
	test	eax, eax
	je	SHORT $LN7@xmlCreateE

; 181  : 	    ret->ExternalID = xmlDictLookup(dict, ExternalID, -1);

	push	-1
	push	eax
	push	edi
	call	_xmlDictLookup
	add	esp, 12					; 0000000cH
	mov	DWORD PTR [esi+52], eax
$LN7@xmlCreateE:

; 182  : 	if (SystemID != NULL)

	mov	eax, DWORD PTR _SystemID$[ebp]
	test	eax, eax
	je	SHORT $LN8@xmlCreateE

; 183  : 	    ret->SystemID = xmlDictLookup(dict, SystemID, -1);

	push	-1
	push	eax
	push	edi
	call	_xmlDictLookup
	add	esp, 12					; 0000000cH
$LN17@xmlCreateE:

; 184  :     }
; 185  :     if (content != NULL) {

	mov	DWORD PTR [esi+56], eax
$LN8@xmlCreateE:
	mov	ebx, DWORD PTR _content$[ebp]
	test	ebx, ebx
	je	SHORT $LN9@xmlCreateE

; 186  :         ret->length = xmlStrlen(content);

	push	ebx
	call	_xmlStrlen
	add	esp, 4
	mov	DWORD PTR [esi+44], eax

; 187  : 	if ((dict != NULL) && (ret->length < 5))

	test	edi, edi
	je	SHORT $LN16@xmlCreateE
	cmp	eax, 5
	jge	SHORT $LN16@xmlCreateE

; 188  : 	    ret->content = (xmlChar *)

	push	eax
	push	ebx
	push	edi
	call	_xmlDictLookup
	add	esp, 12					; 0000000cH
	jmp	SHORT $LN12@xmlCreateE
$LN16@xmlCreateE:

; 189  : 	                   xmlDictLookup(dict, content, ret->length);
; 190  : 	else
; 191  : 	    ret->content = xmlStrndup(content, ret->length);

	push	eax
	push	ebx
	call	_xmlStrndup
	add	esp, 8

; 192  :      } else {

	jmp	SHORT $LN12@xmlCreateE
$LN9@xmlCreateE:

; 193  :         ret->length = 0;

	mov	DWORD PTR [esi+44], 0

; 194  :         ret->content = NULL;

	xor	eax, eax
$LN12@xmlCreateE:

; 195  :     }
; 196  :     ret->URI = NULL; /* to be computed by the layer knowing

	mov	ecx, esi

; 197  : 			the defining entity */
; 198  :     ret->orig = NULL;
; 199  :     ret->owner = 0;
; 200  : 
; 201  :     return(ret);

	pop	edi
	pop	ebx
	mov	DWORD PTR [ecx+40], eax
	mov	eax, esi
	mov	DWORD PTR [esi+64], 0
	mov	DWORD PTR [esi+36], 0
	mov	DWORD PTR [esi+68], 0
	pop	esi

; 202  : }

	pop	ebp
	ret	0
_xmlCreateEntity ENDP
_TEXT	ENDS
; Function compile flags: /Ogtp
; File c:\users\dag\documents\_clients\codeproject authors group\windows on arm\libxml2\libxml2-2.9.9\entities.c
;	COMDAT _xmlFreeEntity
_TEXT	SEGMENT
_entity$ = 8						; size = 4
_xmlFreeEntity PROC					; COMDAT

; 102  : {

	push	ebp
	mov	ebp, esp
	push	esi
	push	edi
	mov	ecx, OFFSET __128F40C8_entities@c
	call	@__CheckForDebuggerJustMyCode@4
	mov	esi, DWORD PTR _entity$[ebp]
	xor	edi, edi
	test	esi, esi
	je	$LN1@xmlFreeEnt

; 103  :     xmlDictPtr dict = NULL;
; 104  : 
; 105  :     if (entity == NULL)
; 106  :         return;
; 107  : 
; 108  :     if (entity->doc != NULL)

	mov	eax, DWORD PTR [esi+32]
	test	eax, eax
	je	SHORT $LN3@xmlFreeEnt

; 109  :         dict = entity->doc->dict;

	mov	edi, DWORD PTR [eax+80]
$LN3@xmlFreeEnt:

; 110  : 
; 111  : 
; 112  :     if ((entity->children) && (entity->owner == 1) &&

	mov	eax, DWORD PTR [esi+12]
	test	eax, eax
	je	SHORT $LN4@xmlFreeEnt
	cmp	DWORD PTR [esi+68], 1
	jne	SHORT $LN4@xmlFreeEnt
	cmp	esi, DWORD PTR [eax+20]
	jne	SHORT $LN4@xmlFreeEnt

; 113  :         (entity == (xmlEntityPtr) entity->children->parent))
; 114  :         xmlFreeNodeList(entity->children);

	push	eax
	call	_xmlFreeNodeList
	add	esp, 4
$LN4@xmlFreeEnt:

; 115  :     if (dict != NULL) {

	mov	eax, DWORD PTR [esi+8]
	test	edi, edi
	je	$LN5@xmlFreeEnt

; 116  :         if ((entity->name != NULL) && (!xmlDictOwns(dict, entity->name)))

	test	eax, eax
	je	SHORT $LN7@xmlFreeEnt
	push	eax
	push	edi
	call	_xmlDictOwns
	add	esp, 8
	test	eax, eax
	jne	SHORT $LN7@xmlFreeEnt

; 117  :             xmlFree((char *) entity->name);

	push	DWORD PTR [esi+8]
	call	DWORD PTR _xmlFree
	add	esp, 4
$LN7@xmlFreeEnt:

; 118  :         if ((entity->ExternalID != NULL) &&

	mov	eax, DWORD PTR [esi+52]
	test	eax, eax
	je	SHORT $LN8@xmlFreeEnt
	push	eax
	push	edi
	call	_xmlDictOwns
	add	esp, 8
	test	eax, eax
	jne	SHORT $LN8@xmlFreeEnt

; 119  : 	    (!xmlDictOwns(dict, entity->ExternalID)))
; 120  :             xmlFree((char *) entity->ExternalID);

	push	DWORD PTR [esi+52]
	call	DWORD PTR _xmlFree
	add	esp, 4
$LN8@xmlFreeEnt:

; 121  :         if ((entity->SystemID != NULL) &&

	mov	eax, DWORD PTR [esi+56]
	test	eax, eax
	je	SHORT $LN9@xmlFreeEnt
	push	eax
	push	edi
	call	_xmlDictOwns
	add	esp, 8
	test	eax, eax
	jne	SHORT $LN9@xmlFreeEnt

; 122  : 	    (!xmlDictOwns(dict, entity->SystemID)))
; 123  :             xmlFree((char *) entity->SystemID);

	push	DWORD PTR [esi+56]
	call	DWORD PTR _xmlFree
	add	esp, 4
$LN9@xmlFreeEnt:

; 124  :         if ((entity->URI != NULL) && (!xmlDictOwns(dict, entity->URI)))

	mov	eax, DWORD PTR [esi+64]
	test	eax, eax
	je	SHORT $LN10@xmlFreeEnt
	push	eax
	push	edi
	call	_xmlDictOwns
	add	esp, 8
	test	eax, eax
	jne	SHORT $LN10@xmlFreeEnt

; 125  :             xmlFree((char *) entity->URI);

	push	DWORD PTR [esi+64]
	call	DWORD PTR _xmlFree
	add	esp, 4
$LN10@xmlFreeEnt:

; 126  :         if ((entity->content != NULL)
; 127  :             && (!xmlDictOwns(dict, entity->content)))

	mov	eax, DWORD PTR [esi+40]
	test	eax, eax
	je	SHORT $LN11@xmlFreeEnt
	push	eax
	push	edi
	call	_xmlDictOwns
	add	esp, 8
	test	eax, eax
	jne	SHORT $LN11@xmlFreeEnt

; 128  :             xmlFree((char *) entity->content);

	push	DWORD PTR [esi+40]
	call	DWORD PTR _xmlFree
	add	esp, 4
$LN11@xmlFreeEnt:

; 129  :         if ((entity->orig != NULL) && (!xmlDictOwns(dict, entity->orig)))

	mov	eax, DWORD PTR [esi+36]
	test	eax, eax
	je	SHORT $LN18@xmlFreeEnt
	push	eax
	push	edi
	call	_xmlDictOwns
	add	esp, 8
	test	eax, eax
	jne	SHORT $LN18@xmlFreeEnt

; 130  :             xmlFree((char *) entity->orig);

	push	DWORD PTR [esi+36]

; 131  :     } else {

	jmp	SHORT $LN20@xmlFreeEnt
$LN5@xmlFreeEnt:

; 132  :         if (entity->name != NULL)

	test	eax, eax
	je	SHORT $LN13@xmlFreeEnt

; 133  :             xmlFree((char *) entity->name);

	push	eax
	call	DWORD PTR _xmlFree
	add	esp, 4
$LN13@xmlFreeEnt:

; 134  :         if (entity->ExternalID != NULL)

	mov	eax, DWORD PTR [esi+52]
	test	eax, eax
	je	SHORT $LN14@xmlFreeEnt

; 135  :             xmlFree((char *) entity->ExternalID);

	push	eax
	call	DWORD PTR _xmlFree
	add	esp, 4
$LN14@xmlFreeEnt:

; 136  :         if (entity->SystemID != NULL)

	mov	eax, DWORD PTR [esi+56]
	test	eax, eax
	je	SHORT $LN15@xmlFreeEnt

; 137  :             xmlFree((char *) entity->SystemID);

	push	eax
	call	DWORD PTR _xmlFree
	add	esp, 4
$LN15@xmlFreeEnt:

; 138  :         if (entity->URI != NULL)

	mov	eax, DWORD PTR [esi+64]
	test	eax, eax
	je	SHORT $LN16@xmlFreeEnt

; 139  :             xmlFree((char *) entity->URI);

	push	eax
	call	DWORD PTR _xmlFree
	add	esp, 4
$LN16@xmlFreeEnt:

; 140  :         if (entity->content != NULL)

	mov	eax, DWORD PTR [esi+40]
	test	eax, eax
	je	SHORT $LN17@xmlFreeEnt

; 141  :             xmlFree((char *) entity->content);

	push	eax
	call	DWORD PTR _xmlFree
	add	esp, 4
$LN17@xmlFreeEnt:

; 142  :         if (entity->orig != NULL)

	mov	eax, DWORD PTR [esi+36]
	test	eax, eax
	je	SHORT $LN18@xmlFreeEnt

; 143  :             xmlFree((char *) entity->orig);

	push	eax
$LN20@xmlFreeEnt:

; 144  :     }
; 145  :     xmlFree(entity);

	call	DWORD PTR _xmlFree
	add	esp, 4
$LN18@xmlFreeEnt:
	push	esi
	call	DWORD PTR _xmlFree
	add	esp, 4
$LN1@xmlFreeEnt:

; 146  : }

	pop	edi
	pop	esi
	pop	ebp
	ret	0
_xmlFreeEntity ENDP
_TEXT	ENDS
; Function compile flags: /Ogtp
; File c:\users\dag\documents\_clients\codeproject authors group\windows on arm\libxml2\libxml2-2.9.9\entities.c
;	COMDAT _xmlEntitiesErr
_TEXT	SEGMENT
_code$ = 8						; size = 4
_msg$ = 12						; size = 4
_xmlEntitiesErr PROC					; COMDAT

; 93   : {

	push	ebp
	mov	ebp, esp
	mov	ecx, OFFSET __128F40C8_entities@c
	call	@__CheckForDebuggerJustMyCode@4
	push	0
	push	DWORD PTR _msg$[ebp]
	push	0
	push	DWORD PTR _code$[ebp]
	push	2
	call	___xmlSimpleError
	add	esp, 20					; 00000014H

; 94   :     __xmlSimpleError(XML_FROM_TREE, code, NULL, msg, NULL);
; 95   : }

	pop	ebp
	ret	0
_xmlEntitiesErr ENDP
_TEXT	ENDS
; Function compile flags: /Ogtp
; File c:\users\dag\documents\_clients\codeproject authors group\windows on arm\libxml2\libxml2-2.9.9\entities.c
;	COMDAT _xmlEntitiesErrMemory
_TEXT	SEGMENT
_extra$ = 8						; size = 4
_xmlEntitiesErrMemory PROC				; COMDAT

; 80   : {

	push	ebp
	mov	ebp, esp
	mov	ecx, OFFSET __128F40C8_entities@c
	call	@__CheckForDebuggerJustMyCode@4
	push	DWORD PTR _extra$[ebp]
	push	0
	push	0
	push	2
	push	2
	call	___xmlSimpleError
	add	esp, 20					; 00000014H

; 81   :     __xmlSimpleError(XML_FROM_TREE, XML_ERR_NO_MEMORY, NULL, NULL, extra);
; 82   : }

	pop	ebp
	ret	0
_xmlEntitiesErrMemory ENDP
_TEXT	ENDS
; Function compile flags: /Ogtp
; File c:\users\dag\documents\_clients\codeproject authors group\windows on arm\libxml2\libxml2-2.9.9\entities.c
;	COMDAT _xmlEncodeAttributeEntities
_TEXT	SEGMENT
_doc$ = 8						; size = 4
_input$ = 12						; size = 4
_xmlEncodeAttributeEntities PROC			; COMDAT

; 759  : xmlEncodeAttributeEntities(xmlDocPtr doc, const xmlChar *input) {

	push	ebp
	mov	ebp, esp
	mov	ecx, OFFSET __128F40C8_entities@c
	call	@__CheckForDebuggerJustMyCode@4
	push	1
	push	DWORD PTR _input$[ebp]
	push	DWORD PTR _doc$[ebp]
	call	_xmlEncodeEntitiesInternal
	add	esp, 12					; 0000000cH

; 760  :     return xmlEncodeEntitiesInternal(doc, input, 1);
; 761  : }

	pop	ebp
	ret	0
_xmlEncodeAttributeEntities ENDP
_TEXT	ENDS
; Function compile flags: /Ogtp
; File c:\users\dag\documents\_clients\codeproject authors group\windows on arm\libxml2\libxml2-2.9.9\entities.c
;	COMDAT _xmlDumpEntityDecl
_TEXT	SEGMENT
_buf$ = 8						; size = 4
_ent$ = 12						; size = 4
_xmlDumpEntityDecl PROC					; COMDAT

; 1007 : xmlDumpEntityDecl(xmlBufferPtr buf, xmlEntityPtr ent) {

	push	ebp
	mov	ebp, esp
	push	esi
	mov	esi, DWORD PTR _buf$[ebp]
	mov	ecx, OFFSET __128F40C8_entities@c
	call	@__CheckForDebuggerJustMyCode@4
	test	esi, esi
	je	$LN5@xmlDumpEnt

; 1008 :     if ((buf == NULL) || (ent == NULL)) return;

	push	edi
	mov	edi, DWORD PTR _ent$[ebp]
	test	edi, edi
	je	$LN28@xmlDumpEnt

; 1009 :     switch (ent->etype) {

	mov	eax, DWORD PTR [edi+48]
	dec	eax
	cmp	eax, 4
	ja	$LN24@xmlDumpEnt
	jmp	DWORD PTR $LN32@xmlDumpEnt[eax*4]
$LN6@xmlDumpEnt:

; 1010 : 	case XML_INTERNAL_GENERAL_ENTITY:
; 1011 : 	    xmlBufferWriteChar(buf, "<!ENTITY ");

	push	OFFSET ??_C@_09POADHIMD@?$DM?$CBENTITY?5@
	push	esi
	call	_xmlBufferWriteChar

; 1012 : 	    xmlBufferWriteCHAR(buf, ent->name);

	push	DWORD PTR [edi+8]
	push	esi
	call	_xmlBufferWriteCHAR

; 1013 : 	    xmlBufferWriteChar(buf, " ");

	push	OFFSET ??_C@_01CLKCMJKC@?5@
	push	esi
	call	_xmlBufferWriteChar

; 1014 : 	    if (ent->orig != NULL)

	mov	eax, DWORD PTR [edi+36]
	add	esp, 24					; 00000018H
	test	eax, eax
	jne	$LN19@xmlDumpEnt

; 1015 : 		xmlBufferWriteQuotedString(buf, ent->orig);
; 1016 : 	    else
; 1017 : 		xmlDumpEntityContent(buf, ent->content);

	push	DWORD PTR [edi+40]
	push	esi
	call	_xmlDumpEntityContent
	jmp	$LN29@xmlDumpEnt
$LN9@xmlDumpEnt:

; 1018 : 	    xmlBufferWriteChar(buf, ">\n");
; 1019 : 	    break;
; 1020 : 	case XML_EXTERNAL_GENERAL_PARSED_ENTITY:
; 1021 : 	    xmlBufferWriteChar(buf, "<!ENTITY ");

	push	OFFSET ??_C@_09POADHIMD@?$DM?$CBENTITY?5@

; 1022 : 	    xmlBufferWriteCHAR(buf, ent->name);
; 1023 : 	    if (ent->ExternalID != NULL) {
; 1024 : 		 xmlBufferWriteChar(buf, " PUBLIC ");
; 1025 : 		 xmlBufferWriteQuotedString(buf, ent->ExternalID);
; 1026 : 		 xmlBufferWriteChar(buf, " ");
; 1027 : 		 xmlBufferWriteQuotedString(buf, ent->SystemID);
; 1028 : 	    } else {

	jmp	$LN30@xmlDumpEnt
$LN12@xmlDumpEnt:

; 1029 : 		 xmlBufferWriteChar(buf, " SYSTEM ");
; 1030 : 		 xmlBufferWriteQuotedString(buf, ent->SystemID);
; 1031 : 	    }
; 1032 : 	    xmlBufferWriteChar(buf, ">\n");
; 1033 : 	    break;
; 1034 : 	case XML_EXTERNAL_GENERAL_UNPARSED_ENTITY:
; 1035 : 	    xmlBufferWriteChar(buf, "<!ENTITY ");

	push	OFFSET ??_C@_09POADHIMD@?$DM?$CBENTITY?5@
	push	esi
	call	_xmlBufferWriteChar

; 1036 : 	    xmlBufferWriteCHAR(buf, ent->name);

	push	DWORD PTR [edi+8]
	push	esi
	call	_xmlBufferWriteCHAR
	add	esp, 16					; 00000010H

; 1037 : 	    if (ent->ExternalID != NULL) {

	cmp	DWORD PTR [edi+52], 0
	je	SHORT $LN13@xmlDumpEnt

; 1038 : 		 xmlBufferWriteChar(buf, " PUBLIC ");

	push	OFFSET ??_C@_08GBBLECIH@?5PUBLIC?5@
	push	esi
	call	_xmlBufferWriteChar

; 1039 : 		 xmlBufferWriteQuotedString(buf, ent->ExternalID);

	push	DWORD PTR [edi+52]
	push	esi
	call	_xmlBufferWriteQuotedString
	add	esp, 16					; 00000010H

; 1040 : 		 xmlBufferWriteChar(buf, " ");

	mov	eax, OFFSET ??_C@_01CLKCMJKC@?5@

; 1041 : 		 xmlBufferWriteQuotedString(buf, ent->SystemID);
; 1042 : 	    } else {

	jmp	SHORT $LN14@xmlDumpEnt
$LN13@xmlDumpEnt:

; 1043 : 		 xmlBufferWriteChar(buf, " SYSTEM ");

	mov	eax, OFFSET ??_C@_08PAGGLANP@?5SYSTEM?5@
$LN14@xmlDumpEnt:

; 1044 : 		 xmlBufferWriteQuotedString(buf, ent->SystemID);
; 1045 : 	    }
; 1046 : 	    if (ent->content != NULL) { /* Should be true ! */

	push	eax
	push	esi
	call	_xmlBufferWriteChar
	mov	eax, DWORD PTR [edi+56]
	push	eax
	push	esi
	call	_xmlBufferWriteQuotedString
	add	esp, 16					; 00000010H
	cmp	DWORD PTR [edi+40], 0
	je	SHORT $LN20@xmlDumpEnt

; 1047 : 		xmlBufferWriteChar(buf, " NDATA ");

	push	OFFSET ??_C@_07CGHGCOMH@?5NDATA?5@
	push	esi
	call	_xmlBufferWriteChar

; 1048 : 		if (ent->orig != NULL)

	mov	eax, DWORD PTR [edi+36]
	add	esp, 8
	test	eax, eax
	je	SHORT $LN16@xmlDumpEnt

; 1049 : 		    xmlBufferWriteCHAR(buf, ent->orig);

	push	eax
	push	esi
	call	_xmlBufferWriteCHAR
	jmp	SHORT $LN29@xmlDumpEnt
$LN16@xmlDumpEnt:

; 1050 : 		else
; 1051 : 		    xmlBufferWriteCHAR(buf, ent->content);

	push	DWORD PTR [edi+40]
	push	esi
	call	_xmlBufferWriteCHAR
	jmp	SHORT $LN29@xmlDumpEnt
$LN18@xmlDumpEnt:

; 1052 : 	    }
; 1053 : 	    xmlBufferWriteChar(buf, ">\n");
; 1054 : 	    break;
; 1055 : 	case XML_INTERNAL_PARAMETER_ENTITY:
; 1056 : 	    xmlBufferWriteChar(buf, "<!ENTITY % ");

	push	OFFSET ??_C@_0M@BFALCDCJ@?$DM?$CBENTITY?5?$CF?5@
	push	esi
	call	_xmlBufferWriteChar

; 1057 : 	    xmlBufferWriteCHAR(buf, ent->name);

	push	DWORD PTR [edi+8]
	push	esi
	call	_xmlBufferWriteCHAR

; 1058 : 	    xmlBufferWriteChar(buf, " ");

	push	OFFSET ??_C@_01CLKCMJKC@?5@
	push	esi
	call	_xmlBufferWriteChar

; 1059 : 	    if (ent->orig == NULL)

	mov	eax, DWORD PTR [edi+36]
	add	esp, 24					; 00000018H
	test	eax, eax
	jne	SHORT $LN19@xmlDumpEnt

; 1060 : 		xmlDumpEntityContent(buf, ent->content);

	push	DWORD PTR [edi+40]
	push	esi
	call	_xmlDumpEntityContent
	jmp	SHORT $LN29@xmlDumpEnt
$LN19@xmlDumpEnt:

; 1061 : 	    else
; 1062 : 		xmlBufferWriteQuotedString(buf, ent->orig);
; 1063 : 	    xmlBufferWriteChar(buf, ">\n");

	push	eax
	push	esi
	call	_xmlBufferWriteQuotedString
$LN29@xmlDumpEnt:
	add	esp, 8
$LN20@xmlDumpEnt:
	push	OFFSET ??_C@_02NEKEAGPN@?$DO?6@
	push	esi
	call	_xmlBufferWriteChar
	add	esp, 8
	pop	edi
	pop	esi

; 1078 : 	    break;
; 1079 : 	default:
; 1080 : 	    xmlEntitiesErr(XML_DTD_UNKNOWN_ENTITY,
; 1081 : 		"xmlDumpEntitiesDecl: internal: unknown type entity type");
; 1082 :     }
; 1083 : }

	pop	ebp
	ret	0
$LN21@xmlDumpEnt:

; 1064 : 	    break;
; 1065 : 	case XML_EXTERNAL_PARAMETER_ENTITY:
; 1066 : 	    xmlBufferWriteChar(buf, "<!ENTITY % ");

	push	OFFSET ??_C@_0M@BFALCDCJ@?$DM?$CBENTITY?5?$CF?5@
$LN30@xmlDumpEnt:

; 1075 : 		 xmlBufferWriteQuotedString(buf, ent->SystemID);
; 1076 : 	    }
; 1077 : 	    xmlBufferWriteChar(buf, ">\n");

	push	esi
	call	_xmlBufferWriteChar
	push	DWORD PTR [edi+8]
	push	esi
	call	_xmlBufferWriteCHAR
	add	esp, 16					; 00000010H
	cmp	DWORD PTR [edi+52], 0
	je	SHORT $LN22@xmlDumpEnt
	push	OFFSET ??_C@_08GBBLECIH@?5PUBLIC?5@
	push	esi
	call	_xmlBufferWriteChar
	push	DWORD PTR [edi+52]
	push	esi
	call	_xmlBufferWriteQuotedString
	add	esp, 16					; 00000010H
	mov	eax, OFFSET ??_C@_01CLKCMJKC@?5@
	jmp	SHORT $LN23@xmlDumpEnt
$LN22@xmlDumpEnt:

; 1067 : 	    xmlBufferWriteCHAR(buf, ent->name);
; 1068 : 	    if (ent->ExternalID != NULL) {
; 1069 : 		 xmlBufferWriteChar(buf, " PUBLIC ");
; 1070 : 		 xmlBufferWriteQuotedString(buf, ent->ExternalID);
; 1071 : 		 xmlBufferWriteChar(buf, " ");
; 1072 : 		 xmlBufferWriteQuotedString(buf, ent->SystemID);
; 1073 : 	    } else {
; 1074 : 		 xmlBufferWriteChar(buf, " SYSTEM ");

	mov	eax, OFFSET ??_C@_08PAGGLANP@?5SYSTEM?5@
$LN23@xmlDumpEnt:

; 1075 : 		 xmlBufferWriteQuotedString(buf, ent->SystemID);
; 1076 : 	    }
; 1077 : 	    xmlBufferWriteChar(buf, ">\n");

	push	eax
	push	esi
	call	_xmlBufferWriteChar
	mov	eax, DWORD PTR [edi+56]
	push	eax
	push	esi
	call	_xmlBufferWriteQuotedString
	push	OFFSET ??_C@_02NEKEAGPN@?$DO?6@
	push	esi
	call	_xmlBufferWriteChar
	add	esp, 24					; 00000018H
	pop	edi
	pop	esi

; 1078 : 	    break;
; 1079 : 	default:
; 1080 : 	    xmlEntitiesErr(XML_DTD_UNKNOWN_ENTITY,
; 1081 : 		"xmlDumpEntitiesDecl: internal: unknown type entity type");
; 1082 :     }
; 1083 : }

	pop	ebp
	ret	0
$LN24@xmlDumpEnt:

; 94   :     __xmlSimpleError(XML_FROM_TREE, code, NULL, msg, NULL);

	push	0
	push	OFFSET ??_C@_0DI@PPMLKPJL@xmlDumpEntitiesDecl?3?5internal?3?5@
	push	0
	push	535					; 00000217H
	push	2
	call	___xmlSimpleError
	add	esp, 20					; 00000014H
$LN28@xmlDumpEnt:
	pop	edi
$LN5@xmlDumpEnt:
	pop	esi

; 1078 : 	    break;
; 1079 : 	default:
; 1080 : 	    xmlEntitiesErr(XML_DTD_UNKNOWN_ENTITY,
; 1081 : 		"xmlDumpEntitiesDecl: internal: unknown type entity type");
; 1082 :     }
; 1083 : }

	pop	ebp
	ret	0
$LN32@xmlDumpEnt:
	DD	$LN6@xmlDumpEnt
	DD	$LN9@xmlDumpEnt
	DD	$LN12@xmlDumpEnt
	DD	$LN18@xmlDumpEnt
	DD	$LN21@xmlDumpEnt
_xmlDumpEntityDecl ENDP
_TEXT	ENDS
; Function compile flags: /Ogtp
; File c:\users\dag\documents\_clients\codeproject authors group\windows on arm\libxml2\libxml2-2.9.9\entities.c
;	COMDAT _xmlDumpEntitiesTable
_TEXT	SEGMENT
_buf$ = 8						; size = 4
_table$ = 12						; size = 4
_xmlDumpEntitiesTable PROC				; COMDAT

; 1106 : xmlDumpEntitiesTable(xmlBufferPtr buf, xmlEntitiesTablePtr table) {

	push	ebp
	mov	ebp, esp
	mov	ecx, OFFSET __128F40C8_entities@c
	call	@__CheckForDebuggerJustMyCode@4
	push	DWORD PTR _buf$[ebp]
	push	OFFSET _xmlDumpEntityDeclScan
	push	DWORD PTR _table$[ebp]
	call	_xmlHashScan
	add	esp, 12					; 0000000cH

; 1107 :     xmlHashScan(table, xmlDumpEntityDeclScan, buf);
; 1108 : }

	pop	ebp
	ret	0
_xmlDumpEntitiesTable ENDP
_TEXT	ENDS
; Function compile flags: /Ogtp
; File c:\users\dag\documents\_clients\codeproject authors group\windows on arm\libxml2\libxml2-2.9.9\entities.c
;	COMDAT _xmlFreeEntitiesTable
_TEXT	SEGMENT
_table$ = 8						; size = 4
_xmlFreeEntitiesTable PROC				; COMDAT

; 900  : xmlFreeEntitiesTable(xmlEntitiesTablePtr table) {

	push	ebp
	mov	ebp, esp
	mov	ecx, OFFSET __128F40C8_entities@c
	call	@__CheckForDebuggerJustMyCode@4
	push	OFFSET _xmlFreeEntityWrapper
	push	DWORD PTR _table$[ebp]
	call	_xmlHashFree
	add	esp, 8

; 901  :     xmlHashFree(table, xmlFreeEntityWrapper);
; 902  : }

	pop	ebp
	ret	0
_xmlFreeEntitiesTable ENDP
_TEXT	ENDS
; Function compile flags: /Ogtp
; File c:\users\dag\documents\_clients\codeproject authors group\windows on arm\libxml2\libxml2-2.9.9\entities.c
;	COMDAT _xmlCopyEntitiesTable
_TEXT	SEGMENT
_table$ = 8						; size = 4
_xmlCopyEntitiesTable PROC				; COMDAT

; 951  : xmlCopyEntitiesTable(xmlEntitiesTablePtr table) {

	push	ebp
	mov	ebp, esp
	mov	ecx, OFFSET __128F40C8_entities@c
	call	@__CheckForDebuggerJustMyCode@4
	push	OFFSET _xmlCopyEntity
	push	DWORD PTR _table$[ebp]
	call	_xmlHashCopy
	add	esp, 8

; 952  :     return(xmlHashCopy(table, xmlCopyEntity));
; 953  : }

	pop	ebp
	ret	0
_xmlCopyEntitiesTable ENDP
_TEXT	ENDS
; Function compile flags: /Ogtp
; File c:\users\dag\documents\_clients\codeproject authors group\windows on arm\libxml2\libxml2-2.9.9\entities.c
;	COMDAT _xmlCreateEntitiesTable
_TEXT	SEGMENT
_xmlCreateEntitiesTable PROC				; COMDAT
	mov	ecx, OFFSET __128F40C8_entities@c
	call	@__CheckForDebuggerJustMyCode@4
	push	0
	call	_xmlHashCreate
	add	esp, 4
	ret	0
_xmlCreateEntitiesTable ENDP
_TEXT	ENDS
; Function compile flags: /Ogtp
; File c:\users\dag\documents\_clients\codeproject authors group\windows on arm\libxml2\libxml2-2.9.9\entities.c
;	COMDAT _xmlEncodeSpecialChars
_TEXT	SEGMENT
_buffer_size$1$ = -4					; size = 4
_doc$ = 8						; size = 4
_buffer$1$ = 12						; size = 4
_input$ = 12						; size = 4
_xmlEncodeSpecialChars PROC				; COMDAT

; 791  : xmlEncodeSpecialChars(const xmlDoc *doc ATTRIBUTE_UNUSED, const xmlChar *input) {

	push	ebp
	mov	ebp, esp
	push	ecx
	push	esi
	mov	ecx, OFFSET __128F40C8_entities@c
	call	@__CheckForDebuggerJustMyCode@4
	mov	esi, DWORD PTR _input$[ebp]
	test	esi, esi
	jne	SHORT $LN4@xmlEncodeS

; 792  :     const xmlChar *cur = input;
; 793  :     xmlChar *buffer = NULL;
; 794  :     xmlChar *out = NULL;
; 795  :     size_t buffer_size = 0;
; 796  :     if (input == NULL) return(NULL);

	xor	eax, eax
	pop	esi

; 865  : }

	mov	esp, ebp
	pop	ebp
	ret	0
$LN4@xmlEncodeS:
	push	ebx

; 797  : 
; 798  :     /*
; 799  :      * allocate an translation buffer.
; 800  :      */
; 801  :     buffer_size = 1000;

	mov	ebx, 1000				; 000003e8H

; 802  :     buffer = (xmlChar *) xmlMalloc(buffer_size * sizeof(xmlChar));

	push	ebx
	mov	DWORD PTR _buffer_size$1$[ebp], ebx
	call	DWORD PTR _xmlMalloc
	mov	edx, eax
	add	esp, 4
	mov	DWORD PTR _buffer$1$[ebp], edx

; 803  :     if (buffer == NULL) {

	test	edx, edx
	jne	SHORT $LN5@xmlEncodeS

; 81   :     __xmlSimpleError(XML_FROM_TREE, XML_ERR_NO_MEMORY, NULL, NULL, extra);

	push	OFFSET ??_C@_0CF@FLMLIOHD@xmlEncodeSpecialChars?3?5malloc?5f@
	push	eax
	push	eax
	push	2
	push	2
	call	___xmlSimpleError
	add	esp, 20					; 00000014H

; 804  :         xmlEntitiesErrMemory("xmlEncodeSpecialChars: malloc failed");
; 805  : 	return(NULL);

	xor	eax, eax
	pop	ebx
	pop	esi

; 865  : }

	mov	esp, ebp
	pop	ebp
	ret	0
$LN5@xmlEncodeS:
	push	edi
$LN35@xmlEncodeS:

; 810  :         size_t indx = out - buffer;

	cmp	BYTE PTR [esi], 0
	je	$LN30@xmlEncodeS
	mov	edi, eax
	sub	edi, edx

; 811  :         if (indx + 10 > buffer_size) {

	lea	ecx, DWORD PTR [edi+10]
	cmp	ecx, ebx
	jbe	SHORT $LN6@xmlEncodeS

; 812  : 
; 813  : 	    growBufferReentrant();

	add	ebx, ebx
	cmp	ebx, DWORD PTR _buffer_size$1$[ebp]
	jb	$mem_error$37
	push	ebx
	push	edx
	call	DWORD PTR _xmlRealloc
	add	esp, 8
	test	eax, eax
	je	$mem_error$37
	mov	ecx, eax
	mov	DWORD PTR _buffer_size$1$[ebp], ebx
	mov	DWORD PTR _buffer$1$[ebp], ecx

; 814  : 	    out = &buffer[indx];

	add	eax, edi
$LN6@xmlEncodeS:

; 815  : 	}
; 816  : 
; 817  : 	/*
; 818  : 	 * By default one have to encode at least '<', '>', '"' and '&' !
; 819  : 	 */
; 820  : 	if (*cur == '<') {

	mov	cl, BYTE PTR [esi]
	cmp	cl, 60					; 0000003cH
	jne	SHORT $LN9@xmlEncodeS

; 821  : 	    *out++ = '&';

	mov	edx, DWORD PTR _buffer$1$[ebp]
	mov	DWORD PTR [eax], 997485606		; 3b746c26H

; 822  : 	    *out++ = 'l';
; 823  : 	    *out++ = 't';
; 824  : 	    *out++ = ';';

	add	eax, 4

; 855  : 	}
; 856  : 	cur++;

	inc	esi
	jmp	SHORT $LN35@xmlEncodeS
$LN9@xmlEncodeS:

; 825  : 	} else if (*cur == '>') {

	cmp	cl, 62					; 0000003eH
	jne	SHORT $LN11@xmlEncodeS

; 826  : 	    *out++ = '&';

	mov	edx, DWORD PTR _buffer$1$[ebp]
	mov	DWORD PTR [eax], 997484326		; 3b746726H

; 827  : 	    *out++ = 'g';
; 828  : 	    *out++ = 't';
; 829  : 	    *out++ = ';';

	add	eax, 4

; 855  : 	}
; 856  : 	cur++;

	inc	esi
	jmp	SHORT $LN35@xmlEncodeS
$LN11@xmlEncodeS:

; 830  : 	} else if (*cur == '&') {

	cmp	cl, 38					; 00000026H
	jne	SHORT $LN13@xmlEncodeS

; 831  : 	    *out++ = '&';

	mov	edx, DWORD PTR _buffer$1$[ebp]
	mov	DWORD PTR [eax], 1886216486		; 706d6126H

; 832  : 	    *out++ = 'a';
; 833  : 	    *out++ = 'm';
; 834  : 	    *out++ = 'p';
; 835  : 	    *out++ = ';';

	mov	BYTE PTR [eax+4], 59			; 0000003bH
	add	eax, 5

; 855  : 	}
; 856  : 	cur++;

	inc	esi
	jmp	SHORT $LN35@xmlEncodeS
$LN13@xmlEncodeS:

; 836  : 	} else if (*cur == '"') {

	cmp	cl, 34					; 00000022H
	jne	SHORT $LN15@xmlEncodeS

; 837  : 	    *out++ = '&';

	mov	edx, DWORD PTR _buffer$1$[ebp]
	mov	DWORD PTR [eax], 1869967654		; 6f757126H

; 838  : 	    *out++ = 'q';
; 839  : 	    *out++ = 'u';
; 840  : 	    *out++ = 'o';
; 841  : 	    *out++ = 't';

	mov	WORD PTR [eax+4], 15220			; 00003b74H

; 842  : 	    *out++ = ';';

	add	eax, 6

; 855  : 	}
; 856  : 	cur++;

	inc	esi
	jmp	$LN35@xmlEncodeS
$LN15@xmlEncodeS:

; 843  : 	} else if (*cur == '\r') {

	cmp	cl, 13					; 0000000dH
	jne	SHORT $LN17@xmlEncodeS

; 844  : 	    *out++ = '&';

	mov	edx, DWORD PTR _buffer$1$[ebp]
	mov	DWORD PTR [eax], 858858278		; 33312326H

; 845  : 	    *out++ = '#';
; 846  : 	    *out++ = '1';
; 847  : 	    *out++ = '3';
; 848  : 	    *out++ = ';';

	mov	BYTE PTR [eax+4], 59			; 0000003bH
	add	eax, 5

; 855  : 	}
; 856  : 	cur++;

	inc	esi
	jmp	$LN35@xmlEncodeS
$LN17@xmlEncodeS:

; 806  :     }
; 807  :     out = buffer;
; 808  : 
; 809  :     while (*cur != '\0') {

	mov	edx, DWORD PTR _buffer$1$[ebp]

; 849  : 	} else {
; 850  : 	    /*
; 851  : 	     * Works because on UTF-8, all extended sequences cannot
; 852  : 	     * result in bytes in the ASCII range.
; 853  : 	     */
; 854  : 	    *out++ = *cur;

	mov	BYTE PTR [eax], cl
	inc	eax

; 855  : 	}
; 856  : 	cur++;

	inc	esi
	jmp	$LN35@xmlEncodeS
$mem_error$37:

; 81   :     __xmlSimpleError(XML_FROM_TREE, XML_ERR_NO_MEMORY, NULL, NULL, extra);

	push	OFFSET ??_C@_0CG@JAEBJCBF@xmlEncodeSpecialChars?3?5realloc?5@
	push	0
	push	0
	push	2
	push	2
	call	___xmlSimpleError

; 860  : 
; 861  : mem_error:
; 862  :     xmlEntitiesErrMemory("xmlEncodeSpecialChars: realloc failed");
; 863  :     xmlFree(buffer);

	mov	ecx, DWORD PTR _buffer$1$[ebp]
	push	ecx
	call	DWORD PTR _xmlFree
	add	esp, 24					; 00000018H

; 864  :     return(NULL);

	xor	eax, eax
	pop	edi
	pop	ebx
	pop	esi

; 865  : }

	mov	esp, ebp
	pop	ebp
	ret	0
$LN30@xmlEncodeS:
	pop	edi
	pop	ebx

; 857  :     }
; 858  :     *out = 0;

	mov	BYTE PTR [eax], 0

; 859  :     return(buffer);

	mov	eax, edx
	pop	esi

; 865  : }

	mov	esp, ebp
	pop	ebp
	ret	0
_xmlEncodeSpecialChars ENDP
_TEXT	ENDS
; Function compile flags: /Ogtp
; File c:\users\dag\documents\_clients\codeproject authors group\windows on arm\libxml2\libxml2-2.9.9\entities.c
;	COMDAT _xmlEncodeEntitiesReentrant
_TEXT	SEGMENT
_doc$ = 8						; size = 4
_input$ = 12						; size = 4
_xmlEncodeEntitiesReentrant PROC			; COMDAT

; 776  : xmlEncodeEntitiesReentrant(xmlDocPtr doc, const xmlChar *input) {

	push	ebp
	mov	ebp, esp
	mov	ecx, OFFSET __128F40C8_entities@c
	call	@__CheckForDebuggerJustMyCode@4
	push	0
	push	DWORD PTR _input$[ebp]
	push	DWORD PTR _doc$[ebp]
	call	_xmlEncodeEntitiesInternal
	add	esp, 12					; 0000000cH

; 777  :     return xmlEncodeEntitiesInternal(doc, input, 0);
; 778  : }

	pop	ebp
	ret	0
_xmlEncodeEntitiesReentrant ENDP
_TEXT	ENDS
; Function compile flags: /Ogtp
; File c:\users\dag\documents\_clients\codeproject authors group\windows on arm\libxml2\libxml2-2.9.9\entities.c
;	COMDAT _xmlGetParameterEntity
_TEXT	SEGMENT
_doc$ = 8						; size = 4
_name$ = 12						; size = 4
_xmlGetParameterEntity PROC				; COMDAT

; 455  : xmlGetParameterEntity(xmlDocPtr doc, const xmlChar *name) {

	push	ebp
	mov	ebp, esp
	push	esi
	mov	ecx, OFFSET __128F40C8_entities@c
	call	@__CheckForDebuggerJustMyCode@4
	mov	esi, DWORD PTR _doc$[ebp]
	test	esi, esi
	je	SHORT $LN5@xmlGetPara

; 456  :     xmlEntitiesTablePtr table;
; 457  :     xmlEntityPtr ret;
; 458  : 
; 459  :     if (doc == NULL)
; 460  : 	return(NULL);
; 461  :     if ((doc->intSubset != NULL) && (doc->intSubset->pentities != NULL)) {

	mov	eax, DWORD PTR [esi+44]
	test	eax, eax
	je	SHORT $LN4@xmlGetPara
	mov	eax, DWORD PTR [eax+60]
	test	eax, eax
	je	SHORT $LN4@xmlGetPara

; 441  :     return((xmlEntityPtr) xmlHashLookup(table, name));

	push	DWORD PTR _name$[ebp]
	push	eax
	call	_xmlHashLookup
	add	esp, 8

; 462  : 	table = (xmlEntitiesTablePtr) doc->intSubset->pentities;
; 463  : 	ret = xmlGetEntityFromTable(table, name);
; 464  : 	if (ret != NULL)

	test	eax, eax
	jne	SHORT $LN1@xmlGetPara
$LN4@xmlGetPara:

; 465  : 	    return(ret);
; 466  :     }
; 467  :     if ((doc->extSubset != NULL) && (doc->extSubset->pentities != NULL)) {

	mov	eax, DWORD PTR [esi+48]
	test	eax, eax
	je	SHORT $LN5@xmlGetPara
	mov	eax, DWORD PTR [eax+60]
	test	eax, eax
	je	SHORT $LN5@xmlGetPara
	pop	esi

; 441  :     return((xmlEntityPtr) xmlHashLookup(table, name));

	mov	DWORD PTR _doc$[ebp], eax

; 472  : }

	pop	ebp

; 441  :     return((xmlEntityPtr) xmlHashLookup(table, name));

	jmp	_xmlHashLookup
$LN5@xmlGetPara:

; 468  : 	table = (xmlEntitiesTablePtr) doc->extSubset->pentities;
; 469  : 	return(xmlGetEntityFromTable(table, name));
; 470  :     }
; 471  :     return(NULL);

	xor	eax, eax
$LN1@xmlGetPara:
	pop	esi

; 472  : }

	pop	ebp
	ret	0
_xmlGetParameterEntity ENDP
_TEXT	ENDS
; Function compile flags: /Ogtp
; File c:\users\dag\documents\_clients\codeproject authors group\windows on arm\libxml2\libxml2-2.9.9\entities.c
;	COMDAT _xmlGetDtdEntity
_TEXT	SEGMENT
_doc$ = 8						; size = 4
_name$ = 12						; size = 4
_xmlGetDtdEntity PROC					; COMDAT

; 486  : xmlGetDtdEntity(xmlDocPtr doc, const xmlChar *name) {

	push	ebp
	mov	ebp, esp
	mov	ecx, OFFSET __128F40C8_entities@c
	call	@__CheckForDebuggerJustMyCode@4
	mov	eax, DWORD PTR _doc$[ebp]
	test	eax, eax
	je	SHORT $LN3@xmlGetDtdE

; 487  :     xmlEntitiesTablePtr table;
; 488  : 
; 489  :     if (doc == NULL)
; 490  : 	return(NULL);
; 491  :     if ((doc->extSubset != NULL) && (doc->extSubset->entities != NULL)) {

	mov	eax, DWORD PTR [eax+48]
	test	eax, eax
	je	SHORT $LN3@xmlGetDtdE
	mov	eax, DWORD PTR [eax+48]
	test	eax, eax
	je	SHORT $LN3@xmlGetDtdE

; 441  :     return((xmlEntityPtr) xmlHashLookup(table, name));

	mov	DWORD PTR _doc$[ebp], eax

; 496  : }

	pop	ebp

; 441  :     return((xmlEntityPtr) xmlHashLookup(table, name));

	jmp	_xmlHashLookup
$LN3@xmlGetDtdE:

; 492  : 	table = (xmlEntitiesTablePtr) doc->extSubset->entities;
; 493  : 	return(xmlGetEntityFromTable(table, name));
; 494  :     }
; 495  :     return(NULL);

	xor	eax, eax

; 496  : }

	pop	ebp
	ret	0
_xmlGetDtdEntity ENDP
_TEXT	ENDS
; Function compile flags: /Ogtp
; File c:\users\dag\documents\_clients\codeproject authors group\windows on arm\libxml2\libxml2-2.9.9\entities.c
;	COMDAT _xmlGetDocEntity
_TEXT	SEGMENT
_doc$ = 8						; size = 4
_name$ = 12						; size = 4
_xmlGetDocEntity PROC					; COMDAT

; 510  : xmlGetDocEntity(const xmlDoc *doc, const xmlChar *name) {

	push	ebp
	mov	ebp, esp
	push	esi
	push	edi
	mov	ecx, OFFSET __128F40C8_entities@c
	call	@__CheckForDebuggerJustMyCode@4
	mov	esi, DWORD PTR _doc$[ebp]
	mov	edi, DWORD PTR _name$[ebp]
	test	esi, esi
	je	SHORT $LN7@xmlGetDocE

; 511  :     xmlEntityPtr cur;
; 512  :     xmlEntitiesTablePtr table;
; 513  : 
; 514  :     if (doc != NULL) {
; 515  : 	if ((doc->intSubset != NULL) && (doc->intSubset->entities != NULL)) {

	mov	eax, DWORD PTR [esi+44]
	test	eax, eax
	je	SHORT $LN4@xmlGetDocE
	mov	eax, DWORD PTR [eax+48]
	test	eax, eax
	je	SHORT $LN4@xmlGetDocE

; 441  :     return((xmlEntityPtr) xmlHashLookup(table, name));

	push	edi
	push	eax
	call	_xmlHashLookup
	add	esp, 8

; 516  : 	    table = (xmlEntitiesTablePtr) doc->intSubset->entities;
; 517  : 	    cur = xmlGetEntityFromTable(table, name);
; 518  : 	    if (cur != NULL)

	test	eax, eax
	jne	SHORT $LN1@xmlGetDocE
$LN4@xmlGetDocE:

; 519  : 		return(cur);
; 520  : 	}
; 521  : 	if (doc->standalone != 1) {

	cmp	DWORD PTR [esi+40], 1
	je	SHORT $LN7@xmlGetDocE

; 522  : 	    if ((doc->extSubset != NULL) &&

	mov	eax, DWORD PTR [esi+48]
	test	eax, eax
	je	SHORT $LN7@xmlGetDocE
	mov	eax, DWORD PTR [eax+48]
	test	eax, eax
	je	SHORT $LN7@xmlGetDocE

; 441  :     return((xmlEntityPtr) xmlHashLookup(table, name));

	push	edi
	push	eax
	call	_xmlHashLookup
	add	esp, 8

; 523  : 		(doc->extSubset->entities != NULL)) {
; 524  : 		table = (xmlEntitiesTablePtr) doc->extSubset->entities;
; 525  : 		cur = xmlGetEntityFromTable(table, name);
; 526  : 		if (cur != NULL)

	test	eax, eax
	jne	SHORT $LN1@xmlGetDocE
$LN7@xmlGetDocE:

; 527  : 		    return(cur);
; 528  : 	    }
; 529  : 	}
; 530  :     }
; 531  :     return(xmlGetPredefinedEntity(name));

	push	edi
	call	_xmlGetPredefinedEntity
	add	esp, 4
$LN1@xmlGetDocE:

; 532  : }

	pop	edi
	pop	esi
	pop	ebp
	ret	0
_xmlGetDocEntity ENDP
_TEXT	ENDS
; Function compile flags: /Ogtp
; File c:\users\dag\documents\_clients\codeproject authors group\windows on arm\libxml2\libxml2-2.9.9\entities.c
;	COMDAT _xmlGetPredefinedEntity
_TEXT	SEGMENT
_name$ = 8						; size = 4
_xmlGetPredefinedEntity PROC				; COMDAT

; 265  : xmlGetPredefinedEntity(const xmlChar *name) {

	push	ebp
	mov	ebp, esp
	push	esi
	mov	ecx, OFFSET __128F40C8_entities@c
	call	@__CheckForDebuggerJustMyCode@4
	mov	esi, DWORD PTR _name$[ebp]
	test	esi, esi
	je	$LN13@xmlGetPred

; 266  :     if (name == NULL) return(NULL);
; 267  :     switch (name[0]) {

	movzx	eax, BYTE PTR [esi]
	add	eax, -97				; ffffff9fH
	cmp	eax, 16					; 00000010H
	ja	$LN13@xmlGetPred
	movzx	eax, BYTE PTR $LN16@xmlGetPred[eax]
	jmp	DWORD PTR $LN18@xmlGetPred[eax*4]
$LN5@xmlGetPred:

; 268  :         case 'l':
; 269  : 	    if (xmlStrEqual(name, BAD_CAST "lt"))

	push	OFFSET ??_C@_02KCAKIFL@lt@
	push	esi
	call	_xmlStrEqual
	add	esp, 8
	test	eax, eax
	je	SHORT $LN13@xmlGetPred

; 270  : 	        return(&xmlEntityLt);

	mov	eax, OFFSET _xmlEntityLt
	pop	esi

; 290  : }

	pop	ebp
	ret	0
$LN7@xmlGetPred:

; 271  : 	    break;
; 272  :         case 'g':
; 273  : 	    if (xmlStrEqual(name, BAD_CAST "gt"))

	push	OFFSET ??_C@_02GHFEHLK@gt@
	push	esi
	call	_xmlStrEqual
	add	esp, 8
	test	eax, eax
	je	SHORT $LN13@xmlGetPred

; 274  : 	        return(&xmlEntityGt);

	mov	eax, OFFSET _xmlEntityGt
	pop	esi

; 290  : }

	pop	ebp
	ret	0
$LN9@xmlGetPred:

; 275  : 	    break;
; 276  :         case 'a':
; 277  : 	    if (xmlStrEqual(name, BAD_CAST "amp"))

	push	OFFSET ??_C@_03DCBBJBAA@amp@
	push	esi
	call	_xmlStrEqual
	add	esp, 8
	test	eax, eax
	je	SHORT $LN10@xmlGetPred

; 278  : 	        return(&xmlEntityAmp);

	mov	eax, OFFSET _xmlEntityAmp
	pop	esi

; 290  : }

	pop	ebp
	ret	0
$LN10@xmlGetPred:

; 279  : 	    if (xmlStrEqual(name, BAD_CAST "apos"))

	push	OFFSET ??_C@_04LBCJFAKL@apos@
	push	esi
	call	_xmlStrEqual
	add	esp, 8
	test	eax, eax
	je	SHORT $LN13@xmlGetPred

; 280  : 	        return(&xmlEntityApos);

	mov	eax, OFFSET _xmlEntityApos
	pop	esi

; 290  : }

	pop	ebp
	ret	0
$LN12@xmlGetPred:

; 281  : 	    break;
; 282  :         case 'q':
; 283  : 	    if (xmlStrEqual(name, BAD_CAST "quot"))

	push	OFFSET ??_C@_04KJFGKBNM@quot@
	push	esi
	call	_xmlStrEqual
	add	esp, 8
	test	eax, eax
	je	SHORT $LN13@xmlGetPred

; 284  : 	        return(&xmlEntityQuot);

	mov	eax, OFFSET _xmlEntityQuot
	pop	esi

; 290  : }

	pop	ebp
	ret	0
$LN13@xmlGetPred:

; 285  : 	    break;
; 286  : 	default:
; 287  : 	    break;
; 288  :     }
; 289  :     return(NULL);

	xor	eax, eax
	pop	esi

; 290  : }

	pop	ebp
	ret	0
	npad	3
$LN18@xmlGetPred:
	DD	$LN9@xmlGetPred
	DD	$LN7@xmlGetPred
	DD	$LN5@xmlGetPred
	DD	$LN12@xmlGetPred
	DD	$LN13@xmlGetPred
$LN16@xmlGetPred:
	DB	0
	DB	4
	DB	4
	DB	4
	DB	4
	DB	4
	DB	1
	DB	4
	DB	4
	DB	4
	DB	4
	DB	2
	DB	4
	DB	4
	DB	4
	DB	4
	DB	3
_xmlGetPredefinedEntity ENDP
_TEXT	ENDS
; Function compile flags: /Ogtp
; File c:\users\dag\documents\_clients\codeproject authors group\windows on arm\libxml2\libxml2-2.9.9\entities.c
;	COMDAT _xmlAddDtdEntity
_TEXT	SEGMENT
_doc$ = 8						; size = 4
_name$ = 12						; size = 4
_type$ = 16						; size = 4
_ExternalID$ = 20					; size = 4
_SystemID$ = 24						; size = 4
_content$ = 28						; size = 4
_xmlAddDtdEntity PROC					; COMDAT

; 308  : 		const xmlChar *content) {

	push	ebp
	mov	ebp, esp
	push	esi
	mov	ecx, OFFSET __128F40C8_entities@c
	call	@__CheckForDebuggerJustMyCode@4
	mov	esi, DWORD PTR _doc$[ebp]
	test	esi, esi
	jne	SHORT $LN2@xmlAddDtdE

; 94   :     __xmlSimpleError(XML_FROM_TREE, code, NULL, msg, NULL);

	push	esi
	push	OFFSET ??_C@_0CC@DMDBCNC@xmlAddDtdEntity?3?5document?5is?5NU@
	push	esi
	push	521					; 00000209H
	push	2
	call	___xmlSimpleError
	add	esp, 20					; 00000014H
$LN12@xmlAddDtdE:

; 339  : }

	xor	eax, eax
	pop	esi
	pop	ebp
	ret	0
$LN2@xmlAddDtdE:

; 309  :     xmlEntityPtr ret;
; 310  :     xmlDtdPtr dtd;
; 311  : 
; 312  :     if (doc == NULL) {
; 313  : 	xmlEntitiesErr(XML_DTD_NO_DOC,
; 314  : 	        "xmlAddDtdEntity: document is NULL");
; 315  : 	return(NULL);
; 316  :     }
; 317  :     if (doc->extSubset == NULL) {

	mov	esi, DWORD PTR [esi+48]
	test	esi, esi
	jne	SHORT $LN3@xmlAddDtdE

; 94   :     __xmlSimpleError(XML_FROM_TREE, code, NULL, msg, NULL);

	push	esi
	push	OFFSET ??_C@_0DC@JLIKFHBI@xmlAddDtdEntity?3?5document?5witho@
	push	esi
	push	522					; 0000020aH
	push	2
	call	___xmlSimpleError
	add	esp, 20					; 00000014H

; 318  : 	xmlEntitiesErr(XML_DTD_NO_DTD,
; 319  : 	        "xmlAddDtdEntity: document without external subset");
; 320  : 	return(NULL);

	xor	eax, eax
	pop	esi

; 339  : }

	pop	ebp
	ret	0
$LN3@xmlAddDtdE:

; 321  :     }
; 322  :     dtd = doc->extSubset;
; 323  :     ret = xmlAddEntity(dtd, name, type, ExternalID, SystemID, content);

	push	DWORD PTR _content$[ebp]
	push	DWORD PTR _SystemID$[ebp]
	push	DWORD PTR _ExternalID$[ebp]
	push	DWORD PTR _type$[ebp]
	push	DWORD PTR _name$[ebp]
	push	esi
	call	_xmlAddEntity
	mov	ecx, eax
	add	esp, 24					; 00000018H

; 324  :     if (ret == NULL) return(NULL);

	test	ecx, ecx
	je	SHORT $LN12@xmlAddDtdE

; 325  : 
; 326  :     /*
; 327  :      * Link it to the DTD
; 328  :      */
; 329  :     ret->parent = dtd;

	mov	DWORD PTR [ecx+20], esi

; 330  :     ret->doc = dtd->doc;

	mov	eax, DWORD PTR [esi+32]
	mov	DWORD PTR [ecx+32], eax

; 331  :     if (dtd->last == NULL) {

	mov	eax, DWORD PTR [esi+16]
	test	eax, eax
	jne	SHORT $LN5@xmlAddDtdE

; 332  : 	dtd->children = dtd->last = (xmlNodePtr) ret;

	mov	DWORD PTR [esi+12], ecx

; 336  : 	dtd->last = (xmlNodePtr) ret;
; 337  :     }
; 338  :     return(ret);

	mov	eax, ecx
	mov	DWORD PTR [esi+16], ecx
	pop	esi

; 339  : }

	pop	ebp
	ret	0
$LN5@xmlAddDtdE:

; 333  :     } else {
; 334  :         dtd->last->next = (xmlNodePtr) ret;

	mov	DWORD PTR [eax+24], ecx

; 335  : 	ret->prev = dtd->last;

	mov	eax, DWORD PTR [esi+16]
	mov	DWORD PTR [ecx+28], eax

; 336  : 	dtd->last = (xmlNodePtr) ret;
; 337  :     }
; 338  :     return(ret);

	mov	eax, ecx
	mov	DWORD PTR [esi+16], ecx
	pop	esi

; 339  : }

	pop	ebp
	ret	0
_xmlAddDtdEntity ENDP
_TEXT	ENDS
; Function compile flags: /Ogtp
; File c:\users\dag\documents\_clients\codeproject authors group\windows on arm\libxml2\libxml2-2.9.9\entities.c
;	COMDAT _xmlAddDocEntity
_TEXT	SEGMENT
_doc$ = 8						; size = 4
_name$ = 12						; size = 4
_type$ = 16						; size = 4
_ExternalID$ = 20					; size = 4
_SystemID$ = 24						; size = 4
_content$ = 28						; size = 4
_xmlAddDocEntity PROC					; COMDAT

; 357  : 	        const xmlChar *content) {

	push	ebp
	mov	ebp, esp
	push	esi
	mov	ecx, OFFSET __128F40C8_entities@c
	call	@__CheckForDebuggerJustMyCode@4
	mov	esi, DWORD PTR _doc$[ebp]
	test	esi, esi
	jne	SHORT $LN2@xmlAddDocE

; 94   :     __xmlSimpleError(XML_FROM_TREE, code, NULL, msg, NULL);

	push	esi
	push	OFFSET ??_C@_0CC@PEGCDJOI@xmlAddDocEntity?3?5document?5is?5NU@
	push	esi
	push	521					; 00000209H
	push	2
	call	___xmlSimpleError
	add	esp, 20					; 00000014H
$LN12@xmlAddDocE:

; 388  : }

	xor	eax, eax
	pop	esi
	pop	ebp
	ret	0
$LN2@xmlAddDocE:

; 358  :     xmlEntityPtr ret;
; 359  :     xmlDtdPtr dtd;
; 360  : 
; 361  :     if (doc == NULL) {
; 362  : 	xmlEntitiesErr(XML_DTD_NO_DOC,
; 363  : 	        "xmlAddDocEntity: document is NULL");
; 364  : 	return(NULL);
; 365  :     }
; 366  :     if (doc->intSubset == NULL) {

	mov	esi, DWORD PTR [esi+44]
	test	esi, esi
	jne	SHORT $LN3@xmlAddDocE

; 94   :     __xmlSimpleError(XML_FROM_TREE, code, NULL, msg, NULL);

	push	esi
	push	OFFSET ??_C@_0DC@LNFPIBEF@xmlAddDocEntity?3?5document?5witho@
	push	esi
	push	522					; 0000020aH
	push	2
	call	___xmlSimpleError
	add	esp, 20					; 00000014H

; 367  : 	xmlEntitiesErr(XML_DTD_NO_DTD,
; 368  : 	        "xmlAddDocEntity: document without internal subset");
; 369  : 	return(NULL);

	xor	eax, eax
	pop	esi

; 388  : }

	pop	ebp
	ret	0
$LN3@xmlAddDocE:

; 370  :     }
; 371  :     dtd = doc->intSubset;
; 372  :     ret = xmlAddEntity(dtd, name, type, ExternalID, SystemID, content);

	push	DWORD PTR _content$[ebp]
	push	DWORD PTR _SystemID$[ebp]
	push	DWORD PTR _ExternalID$[ebp]
	push	DWORD PTR _type$[ebp]
	push	DWORD PTR _name$[ebp]
	push	esi
	call	_xmlAddEntity
	mov	ecx, eax
	add	esp, 24					; 00000018H

; 373  :     if (ret == NULL) return(NULL);

	test	ecx, ecx
	je	SHORT $LN12@xmlAddDocE

; 374  : 
; 375  :     /*
; 376  :      * Link it to the DTD
; 377  :      */
; 378  :     ret->parent = dtd;

	mov	DWORD PTR [ecx+20], esi

; 379  :     ret->doc = dtd->doc;

	mov	eax, DWORD PTR [esi+32]
	mov	DWORD PTR [ecx+32], eax

; 380  :     if (dtd->last == NULL) {

	mov	eax, DWORD PTR [esi+16]
	test	eax, eax
	jne	SHORT $LN5@xmlAddDocE

; 381  : 	dtd->children = dtd->last = (xmlNodePtr) ret;

	mov	DWORD PTR [esi+12], ecx

; 385  : 	dtd->last = (xmlNodePtr) ret;
; 386  :     }
; 387  :     return(ret);

	mov	eax, ecx
	mov	DWORD PTR [esi+16], ecx
	pop	esi

; 388  : }

	pop	ebp
	ret	0
$LN5@xmlAddDocE:

; 382  :     } else {
; 383  : 	dtd->last->next = (xmlNodePtr) ret;

	mov	DWORD PTR [eax+24], ecx

; 384  : 	ret->prev = dtd->last;

	mov	eax, DWORD PTR [esi+16]
	mov	DWORD PTR [ecx+28], eax

; 385  : 	dtd->last = (xmlNodePtr) ret;
; 386  :     }
; 387  :     return(ret);

	mov	eax, ecx
	mov	DWORD PTR [esi+16], ecx
	pop	esi

; 388  : }

	pop	ebp
	ret	0
_xmlAddDocEntity ENDP
_TEXT	ENDS
; Function compile flags: /Ogtp
; File c:\users\dag\documents\_clients\codeproject authors group\windows on arm\libxml2\libxml2-2.9.9\entities.c
;	COMDAT _xmlNewEntity
_TEXT	SEGMENT
_doc$ = 8						; size = 4
_name$ = 12						; size = 4
_type$ = 16						; size = 4
_ExternalID$ = 20					; size = 4
_SystemID$ = 24						; size = 4
_content$ = 28						; size = 4
_xmlNewEntity PROC					; COMDAT

; 410  : 	     const xmlChar *content) {

	push	ebp
	mov	ebp, esp
	push	esi
	mov	ecx, OFFSET __128F40C8_entities@c
	call	@__CheckForDebuggerJustMyCode@4
	mov	esi, DWORD PTR _doc$[ebp]
	test	esi, esi
	je	SHORT $LN3@xmlNewEnti

; 411  :     xmlEntityPtr ret;
; 412  :     xmlDictPtr dict;
; 413  : 
; 414  :     if ((doc != NULL) && (doc->intSubset != NULL)) {

	cmp	DWORD PTR [esi+44], 0
	je	SHORT $LN2@xmlNewEnti

; 415  : 	return(xmlAddDocEntity(doc, name, type, ExternalID, SystemID, content));

	push	DWORD PTR _content$[ebp]
	push	DWORD PTR _SystemID$[ebp]
	push	DWORD PTR _ExternalID$[ebp]
	push	DWORD PTR _type$[ebp]
	push	DWORD PTR _name$[ebp]
	push	esi
	call	_xmlAddDocEntity
	add	esp, 24					; 00000018H
	pop	esi

; 425  :     return(ret);
; 426  : }

	pop	ebp
	ret	0
$LN2@xmlNewEnti:

; 416  :     }
; 417  :     if (doc != NULL)
; 418  :         dict = doc->dict;

	mov	eax, DWORD PTR [esi+80]
	jmp	SHORT $LN4@xmlNewEnti
$LN3@xmlNewEnti:

; 419  :     else
; 420  :         dict = NULL;

	xor	eax, eax
$LN4@xmlNewEnti:

; 421  :     ret = xmlCreateEntity(dict, name, type, ExternalID, SystemID, content);

	push	DWORD PTR _content$[ebp]
	push	DWORD PTR _SystemID$[ebp]
	push	DWORD PTR _ExternalID$[ebp]
	push	DWORD PTR _type$[ebp]
	push	DWORD PTR _name$[ebp]
	push	eax
	call	_xmlCreateEntity
	add	esp, 24					; 00000018H

; 422  :     if (ret == NULL)

	test	eax, eax
	jne	SHORT $LN5@xmlNewEnti
	pop	esi

; 425  :     return(ret);
; 426  : }

	pop	ebp
	ret	0
$LN5@xmlNewEnti:

; 423  :         return(NULL);
; 424  :     ret->doc = doc;

	mov	DWORD PTR [eax+32], esi
	pop	esi

; 425  :     return(ret);
; 426  : }

	pop	ebp
	ret	0
_xmlNewEntity ENDP
_TEXT	ENDS
; Function compile flags: /Ogtp
; File c:\program files (x86)\windows kits\10\include\10.0.17763.0\ucrt\stdio.h
;	COMDAT _snprintf
_TEXT	SEGMENT
__Buffer$ = 8						; size = 4
__BufferCount$ = 12					; size = 4
__Format$ = 16						; size = 4
_snprintf PROC						; COMDAT

; 1948 :     {

	push	ebp
	mov	ebp, esp
	push	esi
	mov	ecx, OFFSET __A452D4A0_stdio@h
	call	@__CheckForDebuggerJustMyCode@4
	mov	esi, DWORD PTR __Format$[ebp]

; 1440 :         int const _Result = __stdio_common_vsprintf(

	call	___local_stdio_printf_options
	lea	ecx, DWORD PTR __Format$[ebp+4]
	push	ecx
	push	0
	mov	ecx, DWORD PTR [eax]
	push	esi
	push	DWORD PTR __BufferCount$[ebp]
	or	ecx, 2
	push	DWORD PTR __Buffer$[ebp]
	push	DWORD PTR [eax+4]
	push	ecx
	call	DWORD PTR __imp____stdio_common_vsprintf
	add	esp, 28					; 0000001cH

; 1441 :             _CRT_INTERNAL_LOCAL_PRINTF_OPTIONS | _CRT_INTERNAL_PRINTF_STANDARD_SNPRINTF_BEHAVIOR,
; 1442 :             _Buffer, _BufferCount, _Format, NULL, _ArgList);
; 1443 : 
; 1444 :         return _Result < 0 ? -1 : _Result;

	or	ecx, -1
	test	eax, eax
	cmovs	eax, ecx

; 1949 :         int _Result;
; 1950 :         va_list _ArgList;
; 1951 :         __crt_va_start(_ArgList, _Format);
; 1952 :     #pragma warning(suppress:28719)    // 28719
; 1953 :         _Result = vsnprintf(_Buffer, _BufferCount, _Format, _ArgList);
; 1954 :         __crt_va_end(_ArgList);
; 1955 :         return _Result;

	pop	esi

; 1956 :     }

	pop	ebp
	ret	0
_snprintf ENDP
_TEXT	ENDS
; Function compile flags: /Ogtp
; File c:\program files (x86)\windows kits\10\include\10.0.17763.0\ucrt\stdio.h
;	COMDAT _vsnprintf
_TEXT	SEGMENT
__Buffer$ = 8						; size = 4
__BufferCount$ = 12					; size = 4
__Format$ = 16						; size = 4
__ArgList$ = 20						; size = 4
_vsnprintf PROC						; COMDAT

; 1439 :     {

	push	ebp
	mov	ebp, esp
	mov	ecx, OFFSET __A452D4A0_stdio@h
	call	@__CheckForDebuggerJustMyCode@4
	call	___local_stdio_printf_options
	push	DWORD PTR __ArgList$[ebp]
	mov	ecx, eax
	push	0
	push	DWORD PTR __Format$[ebp]
	push	DWORD PTR __BufferCount$[ebp]
	mov	eax, DWORD PTR [ecx]
	push	DWORD PTR __Buffer$[ebp]
	or	eax, 2
	push	DWORD PTR [ecx+4]
	push	eax
	call	DWORD PTR __imp____stdio_common_vsprintf
	or	ecx, -1
	add	esp, 28					; 0000001cH
	test	eax, eax
	cmovs	eax, ecx

; 1440 :         int const _Result = __stdio_common_vsprintf(
; 1441 :             _CRT_INTERNAL_LOCAL_PRINTF_OPTIONS | _CRT_INTERNAL_PRINTF_STANDARD_SNPRINTF_BEHAVIOR,
; 1442 :             _Buffer, _BufferCount, _Format, NULL, _ArgList);
; 1443 : 
; 1444 :         return _Result < 0 ? -1 : _Result;
; 1445 :     }

	pop	ebp
	ret	0
_vsnprintf ENDP
_TEXT	ENDS
; Function compile flags: /Ogtp
; File c:\program files (x86)\windows kits\10\include\10.0.17763.0\ucrt\corecrt_stdio_config.h
;	COMDAT ___local_stdio_printf_options
_TEXT	SEGMENT
___local_stdio_printf_options PROC			; COMDAT
	mov	ecx, OFFSET __2CC6E67D_corecrt_stdio_config@h
	call	@__CheckForDebuggerJustMyCode@4
	mov	eax, OFFSET ?_OptionsStorage@?1??__local_stdio_printf_options@@9@9 ; `__local_stdio_printf_options'::`2'::_OptionsStorage
	ret	0
___local_stdio_printf_options ENDP
_TEXT	ENDS
END
