; Listing generated by Microsoft (R) Optimizing Compiler Version 19.16.27027.1 

	TITLE	C:\Users\DAG\Documents\_Clients\CodeProject Authors Group\Windows on ARM\libxml2\libxml2-2.9.9\HTMLparser.c
	.686P
	.XMM
	include listing.inc
	.model	flat

INCLUDELIB MSVCRT
INCLUDELIB OLDNAMES

PUBLIC	??_C@_0CL@ILDKNODA@greek?5capital?5letter?5omega?0?5U?$CL0@ ; `string'
PUBLIC	??_C@_05IAEKHIAN@alpha@				; `string'
PUBLIC	??_C@_0CJ@NGKKADHM@greek?5small?5letter?5alpha?0?5U?$CL03B@ ; `string'
PUBLIC	??_C@_04PJMJLBJE@beta@				; `string'
PUBLIC	??_C@_0CI@HELPLLEJ@greek?5small?5letter?5beta?0?5U?$CL03B2@ ; `string'
PUBLIC	??_C@_05KDLBCAI@gamma@				; `string'
PUBLIC	??_C@_0CJ@GAGCCHKA@greek?5small?5letter?5gamma?0?5U?$CL03B@ ; `string'
PUBLIC	??_C@_05NCGEDJPM@delta@				; `string'
PUBLIC	??_C@_0CJ@BFJAILD@greek?5small?5letter?5delta?0?5U?$CL03B@ ; `string'
PUBLIC	??_C@_07DOCPLGLO@epsilon@			; `string'
PUBLIC	??_C@_0CL@DLPCDOME@greek?5small?5letter?5epsilon?0?5U?$CL0@ ; `string'
PUBLIC	??_C@_04KJFJGNNH@zeta@				; `string'
PUBLIC	??_C@_0CI@BDECAAKJ@greek?5small?5letter?5zeta?0?5U?$CL03B6@ ; `string'
PUBLIC	??_C@_03PNFNLNLI@eta@				; `string'
PUBLIC	??_C@_0CH@KEKGFBMN@greek?5small?5letter?5eta?0?5U?$CL03B7?5@ ; `string'
PUBLIC	??_C@_05FECKLAFM@theta@				; `string'
PUBLIC	??_C@_0CJ@OCPPMBNL@greek?5small?5letter?5theta?0?5U?$CL03B@ ; `string'
PUBLIC	??_C@_04OBKEGAOB@iota@				; `string'
PUBLIC	??_C@_0CI@IFKGGLBF@greek?5small?5letter?5iota?0?5U?$CL03B9@ ; `string'
PUBLIC	??_C@_05MLHEGNBC@kappa@				; `string'
PUBLIC	??_C@_0CJ@FMCMBLI@greek?5small?5letter?5kappa?0?5U?$CL03B@ ; `string'
PUBLIC	??_C@_06COJIGPIB@lambda@			; `string'
PUBLIC	??_C@_0CK@PECPLDML@greek?5small?5letter?5lambda?0?5U?$CL03@ ; `string'
PUBLIC	??_C@_02BCPJPDCN@mu@				; `string'
PUBLIC	??_C@_0CG@GBCBMJNP@greek?5small?5letter?5mu?0?5U?$CL03BC?5I@ ; `string'
PUBLIC	??_C@_02BALPENHE@nu@				; `string'
PUBLIC	??_C@_0CG@CAKLFEAP@greek?5small?5letter?5nu?0?5U?$CL03BD?5I@ ; `string'
PUBLIC	??_C@_02OOGDMPOL@xi@				; `string'
PUBLIC	??_C@_0CG@HDKNCKDK@greek?5small?5letter?5xi?0?5U?$CL03BE?5I@ ; `string'
PUBLIC	??_C@_07PBNNEOII@omicron@			; `string'
PUBLIC	??_C@_0CH@GIJCJIME@greek?5small?5letter?5omicron?0?5U?$CL0@ ; `string'
PUBLIC	??_C@_02OAHAJOFD@pi@				; `string'
PUBLIC	??_C@_0CG@KLOCKGKD@greek?5small?5letter?5pi?0?5U?$CL03C0?5I@ ; `string'
PUBLIC	??_C@_03LLCMKFAE@rho@				; `string'
PUBLIC	??_C@_0CH@IDBCMKBI@greek?5small?5letter?5rho?0?5U?$CL03C1?5@ ; `string'
PUBLIC	??_C@_06IAEFNBA@sigmaf@				; `string'
PUBLIC	??_C@_0CP@IIMCBNML@greek?5small?5letter?5final?5sigma?0@ ; `string'
PUBLIC	??_C@_05MNLBPJCA@sigma@				; `string'
PUBLIC	??_C@_0CJ@CGFNIIGJ@greek?5small?5letter?5sigma?0?5U?$CL03C@ ; `string'
PUBLIC	??_C@_03CBLLDLIM@tau@				; `string'
PUBLIC	??_C@_0CH@DHNJIMD@greek?5small?5letter?5tau?0?5U?$CL03C4?5@ ; `string'
PUBLIC	??_C@_07ECJEIHJF@upsilon@			; `string'
PUBLIC	??_C@_0CL@IFBHJODJ@greek?5small?5letter?5upsilon?0?5U?$CL0@ ; `string'
PUBLIC	??_C@_03EHHPMKAJ@phi@				; `string'
PUBLIC	??_C@_0CH@KFHMBLGI@greek?5small?5letter?5phi?0?5U?$CL03C6?5@ ; `string'
PUBLIC	??_C@_03FNDDCHI@chi@				; `string'
PUBLIC	??_C@_0CH@FNBJGLJ@greek?5small?5letter?5chi?0?5U?$CL03C7?5@ ; `string'
PUBLIC	??_C@_03FHAMIGJI@psi@				; `string'
PUBLIC	??_C@_0CH@CAAILPN@greek?5small?5letter?5psi?0?5U?$CL03C8?5@ ; `string'
PUBLIC	??_C@_05OLLLNAFN@omega@				; `string'
PUBLIC	??_C@_0CJ@NIEIIOKC@greek?5small?5letter?5omega?0?5U?$CL03C@ ; `string'
PUBLIC	??_C@_08KICBPJKJ@thetasym@			; `string'
PUBLIC	??_C@_0CM@BLIOHCJH@greek?5small?5letter?5theta?5symbol@ ; `string'
PUBLIC	??_C@_05HPKIDMJD@upsih@				; `string'
PUBLIC	??_C@_0CL@EJFICJGP@greek?5upsilon?5with?5hook?5symbol?0@ ; `string'
PUBLIC	??_C@_03ILOHKOKA@piv@				; `string'
PUBLIC	??_C@_0CA@BEPNCOE@greek?5pi?5symbol?0?5U?$CL03D6?5ISOgrk3@ ; `string'
PUBLIC	??_C@_04MKHONPBA@ensp@				; `string'
PUBLIC	??_C@_0BI@MFLEMBMM@en?5space?0?5U?$CL2002?5ISOpub@ ; `string'
PUBLIC	??_C@_04NIMLHAPO@emsp@				; `string'
PUBLIC	??_C@_0BI@KECKOMLC@em?5space?0?5U?$CL2003?5ISOpub@ ; `string'
PUBLIC	??_C@_06KIEAGDHN@thinsp@			; `string'
PUBLIC	??_C@_0BK@BMAGNFEE@thin?5space?0?5U?$CL2009?5ISOpub@ ; `string'
PUBLIC	??_C@_04KBAMANKO@zwnj@				; `string'
PUBLIC	??_C@_0CL@DLBANCKG@zero?5width?5non?9joiner?0?5U?$CL200C?5N@ ; `string'
PUBLIC	??_C@_03BEJFJNOD@zwj@				; `string'
PUBLIC	??_C@_0CH@HBJLDPCB@zero?5width?5joiner?0?5U?$CL200D?5NEW?5R@ ; `string'
PUBLIC	??_C@_03CIGNMBIM@lrm@				; `string'
PUBLIC	??_C@_0CI@JMDAIFJP@left?9to?9right?5mark?0?5U?$CL200E?5NEW?5@ ; `string'
PUBLIC	??_C@_03IOBDGPFK@rlm@				; `string'
PUBLIC	??_C@_0CI@CAGBGDGP@right?9to?9left?5mark?0?5U?$CL200F?5NEW?5@ ; `string'
PUBLIC	??_C@_05GIHIEGDL@ndash@				; `string'
PUBLIC	??_C@_0BH@PNMIOILG@en?5dash?0?5U?$CL2013?5ISOpub@ ; `string'
PUBLIC	??_C@_05OOOMDEJF@mdash@				; `string'
PUBLIC	??_C@_0BH@KANBCIDP@em?5dash?0?5U?$CL2014?5ISOpub@ ; `string'
PUBLIC	??_C@_05OMKFBBEI@lsquo@				; `string'
PUBLIC	??_C@_0CK@GNEELPIK@left?5single?5quotation?5mark?0?5U?$CL2@ ; `string'
PUBLIC	??_C@_05NFHJHCKD@rsquo@				; `string'
PUBLIC	??_C@_0CL@GEEKPFIM@right?5single?5quotation?5mark?0?5U?$CL@ ; `string'
PUBLIC	??_C@_05EDKFBPDE@sbquo@				; `string'
PUBLIC	??_C@_0CI@NPEPNHFF@single?5low?99?5quotation?5mark?0?5U?$CL@ ; `string'
PUBLIC	??_C@_05DOGFFKNK@ldquo@				; `string'
PUBLIC	??_C@_0CK@DIJLOOKF@left?5double?5quotation?5mark?0?5U?$CL2@ ; `string'
PUBLIC	??_C@_05HLJDJDB@rdquo@				; `string'
PUBLIC	??_C@_0CL@ECIPNNCJ@right?5double?5quotation?5mark?0?5U?$CL@ ; `string'
PUBLIC	??_C@_05EGPDLKK@bdquo@				; `string'
PUBLIC	??_C@_0CI@JHNLBCGB@double?5low?99?5quotation?5mark?0?5U?$CL@ ; `string'
PUBLIC	??_C@_06DEOCNA@dagger@				; `string'
PUBLIC	??_C@_0BG@KCAEGFLE@dagger?0?5U?$CL2020?5ISOpub@	; `string'
PUBLIC	??_C@_06MPIJNLEM@Dagger@			; `string'
PUBLIC	??_C@_0BN@EMJEPPHC@double?5dagger?0?5U?$CL2021?5ISOpub@ ; `string'
PUBLIC	??_C@_04OELGKIO@bull@				; `string'
PUBLIC	??_C@_0CL@DGNFAKNB@bullet?5?$DN?5black?5small?5circle?0?5U?$CL@ ; `string'
PUBLIC	??_C@_06MHPIOHEE@hellip@			; `string'
PUBLIC	??_C@_0DG@IFMGDAHK@horizontal?5ellipsis?5?$DN?5three?5dot@ ; `string'
PUBLIC	??_C@_06BCNCCGDG@permil@			; `string'
PUBLIC	??_C@_0BP@MOFLNGGL@per?5mille?5sign?0?5U?$CL2030?5ISOtech@ ; `string'
PUBLIC	??_C@_05NIKGJPCK@prime@				; `string'
PUBLIC	??_C@_0CH@BOHNNDDJ@prime?5?$DN?5minutes?5?$DN?5feet?0?5U?$CL2032?5@ ; `string'
PUBLIC	??_C@_05NPAKJKBM@Prime@				; `string'
PUBLIC	??_C@_0DA@NOHFAGMO@double?5prime?5?$DN?5seconds?5?$DN?5inches@ ; `string'
PUBLIC	??_C@_06GELNDNKI@lsaquo@			; `string'
PUBLIC	??_C@_0DP@FIMACBKH@single?5left?9pointing?5angle?5quot@ ; `string'
PUBLIC	??_C@_06FDFMNKDL@rsaquo@			; `string'
PUBLIC	??_C@_0EA@GOMGFHEI@single?5right?9pointing?5angle?5quo@ ; `string'
PUBLIC	??_C@_05PHLALINO@oline@				; `string'
PUBLIC	??_C@_0CJ@PIHCOGHN@overline?5?$DN?5spacing?5overscore?0?5U@ ; `string'
PUBLIC	??_C@_05POHGDHA@frasl@				; `string'
PUBLIC	??_C@_0BL@ECLANJNI@fraction?5slash?0?5U?$CL2044?5NEW@ ; `string'
PUBLIC	??_C@_04IBPOGLCH@euro@				; `string'
PUBLIC	??_C@_0BG@JOOOHDJA@euro?5sign?0?5U?$CL20AC?5NEW@ ; `string'
PUBLIC	??_C@_05NGOMGBBD@image@				; `string'
PUBLIC	??_C@_0DH@HDIEDNLH@blackletter?5capital?5I?5?$DN?5imagina@ ; `string'
PUBLIC	??_C@_06PDPFIHAI@weierp@			; `string'
PUBLIC	??_C@_0DN@GALPCJE@script?5capital?5P?5?$DN?5power?5set?5?$DN?5@ ; `string'
PUBLIC	??_C@_04DGGKDJMA@real@				; `string'
PUBLIC	??_C@_0DJ@HIEIFFHC@blackletter?5capital?5R?5?$DN?5real?5pa@ ; `string'
PUBLIC	??_C@_05IJFCMOFM@trade@				; `string'
PUBLIC	??_C@_0BP@FGOALMKH@trade?5mark?5sign?0?5U?$CL2122?5ISOnum@ ; `string'
PUBLIC	??_C@_07HGDIPDGB@alefsym@			; `string'
PUBLIC	??_C@_0DF@FEFKAOCF@alef?5symbol?5?$DN?5first?5transfinite@ ; `string'
PUBLIC	??_C@_04KMPJKFIC@larr@				; `string'
PUBLIC	??_C@_0BP@MANNKCID@leftwards?5arrow?0?5U?$CL2190?5ISOnum@ ; `string'
PUBLIC	??_C@_04MBAJFAHB@uarr@				; `string'
PUBLIC	??_C@_0BN@OACCONEB@upwards?5arrow?0?5U?$CL2191?5ISOnum@ ; `string'
PUBLIC	??_C@_04HDCJIMGB@rarr@				; `string'
PUBLIC	??_C@_0CA@IGGHOOCM@rightwards?5arrow?0?5U?$CL2192?5ISOnum@ ; `string'
PUBLIC	??_C@_04JMIJOOED@darr@				; `string'
PUBLIC	??_C@_0BP@DOIMJHPM@downwards?5arrow?0?5U?$CL2193?5ISOnum@ ; `string'
PUBLIC	??_C@_04FJHJADEC@harr@				; `string'
PUBLIC	??_C@_0CB@IHAAEEFA@left?5right?5arrow?0?5U?$CL2194?5ISOams@ ; `string'
PUBLIC	??_C@_05IKKJKHCL@crarr@				; `string'
PUBLIC	??_C@_0EE@KKIJJMBC@downwards?5arrow?5with?5corner?5lef@ ; `string'
PUBLIC	??_C@_04MMLAKLM@lArr@				; `string'
PUBLIC	??_C@_0CH@MGOLKEFA@leftwards?5double?5arrow?0?5U?$CL21D0?5@ ; `string'
PUBLIC	??_C@_04GBDLPPEP@uArr@				; `string'
PUBLIC	??_C@_0CF@KBBKONBL@upwards?5double?5arrow?0?5U?$CL21D1?5IS@ ; `string'
PUBLIC	??_C@_04NDBLCDFP@rArr@				; `string'
PUBLIC	??_C@_0CI@IKAGJDHN@rightwards?5double?5arrow?0?5U?$CL21D2@ ; `string'
PUBLIC	??_C@_04DMLLEBHN@dArr@				; `string'
PUBLIC	??_C@_0CH@GBOLFAFE@downwards?5double?5arrow?0?5U?$CL21D3?5@ ; `string'
PUBLIC	??_C@_04PJELKMHM@hArr@				; `string'
PUBLIC	??_C@_0CI@IFCBBNJJ@left?5right?5double?5arrow?0?5U?$CL21D4@ ; `string'
PUBLIC	??_C@_06PLFKNBPH@forall@			; `string'
PUBLIC	??_C@_0BI@NOOLIOLI@for?5all?0?5U?$CL2200?5ISOtech@ ; `string'
PUBLIC	??_C@_04FPLDHIIH@part@				; `string'
PUBLIC	??_C@_0CF@GGOIFMBL@partial?5differential?0?5U?$CL2202?5IS@ ; `string'
PUBLIC	??_C@_05IEGMLJMJ@exist@				; `string'
PUBLIC	??_C@_0BN@EAFHKNPG@there?5exists?0?5U?$CL2203?5ISOtech@ ; `string'
PUBLIC	??_C@_05LBJMNBOG@empty@				; `string'
PUBLIC	??_C@_0DA@LKCPIGBO@empty?5set?5?$DN?5null?5set?5?$DN?5diameter@ ; `string'
PUBLIC	??_C@_05HEJFDJKB@nabla@				; `string'
PUBLIC	??_C@_0CM@GCEKGKCK@nabla?5?$DN?5backward?5difference?0?5U?$CL@ ; `string'
PUBLIC	??_C@_04GIANKECK@isin@				; `string'
PUBLIC	??_C@_0BL@GDBOMBIM@element?5of?0?5U?$CL2208?5ISOtech@ ; `string'
PUBLIC	??_C@_05DPIEFBKH@notin@				; `string'
PUBLIC	??_C@_0CC@DDLOCPFN@not?5an?5element?5of?0?5U?$CL2209?5ISOte@ ; `string'
PUBLIC	??_C@_02PGMIBACJ@ni@				; `string'
PUBLIC	??_C@_0CD@BGLAPDGA@contains?5as?5member?0?5U?$CL220B?5ISOt@ ; `string'
PUBLIC	??_C@_04EDCDKCIE@prod@				; `string'
PUBLIC	??_C@_0CN@JGMMGEDP@n?9ary?5product?5?$DN?5product?5sign?0?5U@ ; `string'
PUBLIC	??_C@_03CFFIJAMA@sum@				; `string'
PUBLIC	??_C@_0CA@MLFCAEFK@n?9ary?5summation?0?5U?$CL2211?5ISOamsb@ ; `string'
PUBLIC	??_C@_05ODKEFHFK@minus@				; `string'
PUBLIC	??_C@_0BL@FJCONNGD@minus?5sign?0?5U?$CL2212?5ISOtech@ ; `string'
PUBLIC	??_C@_06CKLHNNN@lowast@				; `string'
PUBLIC	??_C@_0CC@CNKJAFM@asterisk?5operator?0?5U?$CL2217?5ISOte@ ; `string'
PUBLIC	??_C@_05BBBHAEPE@radic@				; `string'
PUBLIC	??_C@_0CL@ILNDCHNK@square?5root?5?$DN?5radical?5sign?0?5U?$CL2@ ; `string'
PUBLIC	??_C@_04GNINHFNB@prop@				; `string'
PUBLIC	??_C@_0CA@BMLNCKCC@proportional?5to?0?5U?$CL221D?5ISOtech@ ; `string'
PUBLIC	??_C@_05OFPBNHLL@infin@				; `string'
PUBLIC	??_C@_0BJ@MNMMNFFJ@infinity?0?5U?$CL221E?5ISOtech@ ; `string'
PUBLIC	??_C@_03DFNEKLMP@ang@				; `string'
PUBLIC	??_C@_0BG@GBCFPCNE@angle?0?5U?$CL2220?5ISOamso@	; `string'
PUBLIC	??_C@_03BOPJPIAM@and@				; `string'
PUBLIC	??_C@_0CE@NKBACHGA@logical?5and?5?$DN?5wedge?0?5U?$CL2227?5ISO@ ; `string'
PUBLIC	??_C@_02FODMLBIE@or@				; `string'
PUBLIC	??_C@_0CB@FLAIEBBA@logical?5or?5?$DN?5vee?0?5U?$CL2228?5ISOtec@ ; `string'
PUBLIC	??_C@_03JBACKAOP@cap@				; `string'
PUBLIC	??_C@_0CD@JBIOOGBO@intersection?5?$DN?5cap?0?5U?$CL2229?5ISOt@ ; `string'
PUBLIC	??_C@_03IKCNKLED@cup@				; `string'
PUBLIC	??_C@_0BM@JDEPIPG@union?5?$DN?5cup?0?5U?$CL222A?5ISOtech@ ; `string'
PUBLIC	??_C@_03JBIPMCLC@int@				; `string'
PUBLIC	??_C@_0BJ@DAPJHJHO@integral?0?5U?$CL222B?5ISOtech@ ; `string'
PUBLIC	??_C@_06PLMBDDJI@there4@			; `string'
PUBLIC	??_C@_0BK@MEMCAFFC@therefore?0?5U?$CL2234?5ISOtech@ ; `string'
PUBLIC	??_C@_03DAGEMKNE@sim@				; `string'
PUBLIC	??_C@_0DK@DFMGNFEL@tilde?5operator?5?$DN?5varies?5with?5?$DN?5@ ; `string'
PUBLIC	??_C@_04OMPPPJGA@cong@				; `string'
PUBLIC	??_C@_0CH@JKKBMPFH@approximately?5equal?5to?0?5U?$CL2245?5@ ; `string'
PUBLIC	??_C@_05EKOANGCP@asymp@				; `string'
PUBLIC	??_C@_0DA@ELDFLNNK@almost?5equal?5to?5?$DN?5asymptotic?5to@ ; `string'
PUBLIC	??_C@_02FKHNFPCF@ne@				; `string'
PUBLIC	??_C@_0BN@PJGPJIIG@not?5equal?5to?0?5U?$CL2260?5ISOtech@ ; `string'
PUBLIC	??_C@_05LADEHHLL@equiv@				; `string'
PUBLIC	??_C@_0BN@MJCNDCCF@identical?5to?0?5U?$CL2261?5ISOtech@ ; `string'
PUBLIC	??_C@_02FJPJILEL@le@				; `string'
PUBLIC	??_C@_0CG@EDHLKJHI@less?9than?5or?5equal?5to?0?5U?$CL2264?5I@ ; `string'
PUBLIC	??_C@_02FFKMGEKK@ge@				; `string'
PUBLIC	??_C@_0CJ@OOFAGHNB@greater?9than?5or?5equal?5to?0?5U?$CL226@ ; `string'
PUBLIC	??_C@_0BK@JKNHIPAJ@subset?5of?0?5U?$CL2282?5ISOtech@ ; `string'
PUBLIC	??_C@_0BM@ICBAIMLO@superset?5of?0?5U?$CL2283?5ISOtech@ ; `string'
PUBLIC	??_C@_04GDKEGNCC@nsub@				; `string'
PUBLIC	??_C@_0CA@PMHNPAEI@not?5a?5subset?5of?0?5U?$CL2284?5ISOamsn@ ; `string'
PUBLIC	??_C@_04IIJHECPP@sube@				; `string'
PUBLIC	??_C@_0CG@IBKNAAAC@subset?5of?5or?5equal?5to?0?5U?$CL2286?5I@ ; `string'
PUBLIC	??_C@_04JHDFDFOB@supe@				; `string'
PUBLIC	??_C@_0CI@GNKICMCH@superset?5of?5or?5equal?5to?0?5U?$CL2287@ ; `string'
PUBLIC	??_C@_05GJJFMLCJ@oplus@				; `string'
PUBLIC	??_C@_0CK@PJJPJOGF@circled?5plus?5?$DN?5direct?5sum?0?5U?$CL22@ ; `string'
PUBLIC	??_C@_06JILOEKEG@otimes@			; `string'
PUBLIC	??_C@_0CP@BNGPDPFL@circled?5times?5?$DN?5vector?5product?0@ ; `string'
PUBLIC	??_C@_04LELNCKNE@perp@				; `string'
PUBLIC	??_C@_0DI@FJMFCLO@up?5tack?5?$DN?5orthogonal?5to?5?$DN?5perpe@ ; `string'
PUBLIC	??_C@_04DLDDMCEG@sdot@				; `string'
PUBLIC	??_C@_0BN@IIJHENBC@dot?5operator?0?5U?$CL22C5?5ISOamsb@ ; `string'
PUBLIC	??_C@_05GNCPEPNF@lceil@				; `string'
PUBLIC	??_C@_0CL@JGNLAJJH@left?5ceiling?5?$DN?5apl?5upstile?0?5U?$CL2@ ; `string'
PUBLIC	??_C@_05FEPDCMDO@rceil@				; `string'
PUBLIC	??_C@_0BO@BHDCDMKC@right?5ceiling?0?5U?$CL2309?5ISOamsc@ ; `string'
PUBLIC	??_C@_06JBCNAACH@lfloor@			; `string'
PUBLIC	??_C@_0CL@MFJOBEGJ@left?5floor?5?$DN?5apl?5downstile?0?5U?$CL2@ ; `string'
PUBLIC	??_C@_06KGMMOHLE@rfloor@			; `string'
PUBLIC	??_C@_0BM@CNFHBOON@right?5floor?0?5U?$CL230B?5ISOamsc@ ; `string'
PUBLIC	??_C@_0DC@PHLLJIFD@left?9pointing?5angle?5bracket?5?$DN?5b@ ; `string'
PUBLIC	??_C@_04FBKADAGB@rang@				; `string'
PUBLIC	??_C@_0DD@OPBENGIH@right?9pointing?5angle?5bracket?5?$DN?5@ ; `string'
PUBLIC	??_C@_03DJBAHFDJ@loz@				; `string'
PUBLIC	??_C@_0BH@EDOKOFKC@lozenge?0?5U?$CL25CA?5ISOpub@ ; `string'
PUBLIC	??_C@_06OOCJPKKB@spades@			; `string'
PUBLIC	??_C@_0CA@PJGGGHFM@black?5spade?5suit?0?5U?$CL2660?5ISOpub@ ; `string'
PUBLIC	??_C@_05IPDPNMDB@clubs@				; `string'
PUBLIC	??_C@_0CK@IOPKIONM@black?5club?5suit?5?$DN?5shamrock?0?5U?$CL2@ ; `string'
PUBLIC	??_C@_06LAHNGALJ@hearts@			; `string'
PUBLIC	??_C@_0CM@FKGBKKJF@black?5heart?5suit?5?$DN?5valentine?0?5U@ ; `string'
PUBLIC	??_C@_05IOPNOEAM@diams@				; `string'
PUBLIC	??_C@_0CC@EHCGNBJI@black?5diamond?5suit?0?5U?$CL2666?5ISOp@ ; `string'
PUBLIC	??_C@_04NEODDMOL@head@				; `string'
PUBLIC	??_C@_04IEJGKNJ@body@				; `string'
PUBLIC	??_C@_02IACHLLMH@h1@				; `string'
PUBLIC	??_C@_02KLAKOIAE@h2@				; `string'
PUBLIC	??_C@_02LCBBNJEF@h3@				; `string'
PUBLIC	??_C@_02PNFAEPIC@h4@				; `string'
PUBLIC	??_C@_02OEELHOMD@h5@				; `string'
PUBLIC	??_C@_02MPGGCNAA@h6@				; `string'
PUBLIC	??_C@_02JLMMKIPN@ul@				; `string'
PUBLIC	??_C@_02IKHNIOFL@ol@				; `string'
PUBLIC	??_C@_03DAPAKLGM@dir@				; `string'
PUBLIC	??_C@_04EEIGNHLG@menu@				; `string'
PUBLIC	??_C@_03PKHLKDKD@pre@				; `string'
PUBLIC	??_C@_01JBBJJEPG@p@				; `string'
PUBLIC	??_C@_02IGCIGBLK@dl@				; `string'
PUBLIC	??_C@_03FEJMGOGI@div@				; `string'
PUBLIC	??_C@_06BBLOAEEI@center@			; `string'
PUBLIC	??_C@_08NOCGLLG@noscript@			; `string'
PUBLIC	??_C@_08NAAIELI@noframes@			; `string'
PUBLIC	??_C@_0L@NKGPHNMG@blockquote@			; `string'
PUBLIC	??_C@_04MLMMMEIO@form@				; `string'
PUBLIC	??_C@_07JMLOFMGP@isindex@			; `string'
PUBLIC	??_C@_02FLHDKHAB@hr@				; `string'
PUBLIC	??_C@_05LCLENNFI@table@				; `string'
PUBLIC	??_C@_08EPOEGPEK@fieldset@			; `string'
PUBLIC	??_C@_07LHEPONKL@address@			; `string'
PUBLIC	??_C@_02BIBFFKJD@tt@				; `string'
PUBLIC	??_C@_01KBJDNOO@i@				; `string'
PUBLIC	??_C@_01OJONOECF@b@				; `string'
PUBLIC	??_C@_01OMGOGALD@u@				; `string'
PUBLIC	??_C@_01LKDEMHDF@s@				; `string'
PUBLIC	??_C@_06LGJEBFOF@strike@			; `string'
PUBLIC	??_C@_03CCCOBCKE@big@				; `string'
PUBLIC	??_C@_05KJDGBEEG@small@				; `string'
PUBLIC	??_C@_02JOPBDKMM@em@				; `string'
PUBLIC	??_C@_06KHACOKFA@strong@			; `string'
PUBLIC	??_C@_03NNNLLBAM@dfn@				; `string'
PUBLIC	??_C@_04NDFOBODE@code@				; `string'
PUBLIC	??_C@_04GLAFCDBO@samp@				; `string'
PUBLIC	??_C@_03HIFOOBAM@kbd@				; `string'
PUBLIC	??_C@_03MEPDGFMA@var@				; `string'
PUBLIC	??_C@_04OKBDOCJI@cite@				; `string'
PUBLIC	??_C@_04FKPKGNKN@abbr@				; `string'
PUBLIC	??_C@_07DBMAFMJI@acronym@			; `string'
PUBLIC	??_C@_01MCMALHOG@a@				; `string'
PUBLIC	??_C@_03PCCGDNHJ@img@				; `string'
PUBLIC	??_C@_06MJBNHHFM@applet@			; `string'
PUBLIC	??_C@_05KJAEOLKJ@embed@				; `string'
PUBLIC	??_C@_06IEOJBDIK@object@			; `string'
PUBLIC	??_C@_04EFPADHIC@font@				; `string'
PUBLIC	??_C@_08IOLGIJGJ@basefont@			; `string'
PUBLIC	??_C@_02FGOECCNH@br@				; `string'
PUBLIC	??_C@_06OLONEIEH@script@			; `string'
PUBLIC	??_C@_03HBNNNHNM@map@				; `string'
PUBLIC	??_C@_01IIACKFLH@q@				; `string'
PUBLIC	??_C@_03KCMAIMAP@sub@				; `string'
PUBLIC	??_C@_03NKDEPMNM@sup@				; `string'
PUBLIC	??_C@_04FOPLNFFP@span@				; `string'
PUBLIC	??_C@_03OCCPALPP@bdo@				; `string'
PUBLIC	??_C@_06PKBNCBKI@iframe@			; `string'
PUBLIC	??_C@_05DFJCHPDH@input@				; `string'
PUBLIC	??_C@_06LGNCCACI@select@			; `string'
PUBLIC	??_C@_08DEBIGDAL@textarea@			; `string'
PUBLIC	??_C@_05IDCCNNGI@label@				; `string'
PUBLIC	??_C@_06HFKPFKMP@button@			; `string'
PUBLIC	??_C@_02EGCJHIOB@id@				; `string'
PUBLIC	??_C@_05ENKANFLO@class@				; `string'
PUBLIC	??_C@_05IAKJCFIM@style@				; `string'
PUBLIC	??_C@_05PHLGJONK@title@				; `string'
PUBLIC	??_C@_04IOHABJIC@lang@				; `string'
PUBLIC	??_C@_07BAILDNBN@onclick@			; `string'
PUBLIC	??_C@_0L@BPDJNBPF@ondblclick@			; `string'
PUBLIC	??_C@_0M@LPLDHDON@onmousedown@			; `string'
PUBLIC	??_C@_09KEIMJDF@onmouseup@			; `string'
PUBLIC	??_C@_0M@BMKHHAKK@onmouseover@			; `string'
PUBLIC	??_C@_0L@CEIFEFAI@onmouseout@			; `string'
PUBLIC	??_C@_0L@HBNKHJBD@onkeypress@			; `string'
PUBLIC	??_C@_09HFCNBPMA@onkeydown@			; `string'
PUBLIC	??_C@_07BAEMJOMG@onkeyup@			; `string'
PUBLIC	??_C@_07EAJPFAFH@charset@			; `string'
PUBLIC	??_C@_04GPMDFGEJ@type@				; `string'
PUBLIC	??_C@_04MEMAJGDJ@name@				; `string'
PUBLIC	??_C@_04CMBCJJJD@href@				; `string'
PUBLIC	??_C@_08KALGMAGF@hreflang@			; `string'
PUBLIC	??_C@_03JINJGFJE@rel@				; `string'
PUBLIC	??_C@_03CIPEJPEP@rev@				; `string'
PUBLIC	??_C@_09KPFGNPLK@accesskey@			; `string'
PUBLIC	??_C@_05KFCIHKGL@shape@				; `string'
PUBLIC	??_C@_06LAPHAKDE@coords@			; `string'
PUBLIC	??_C@_08KAJGIJLO@tabindex@			; `string'
PUBLIC	??_C@_07PCOLHBIB@onfocus@			; `string'
PUBLIC	??_C@_06PAKCKPPO@onblur@			; `string'
PUBLIC	??_C@_06JJLAMBGK@target@			; `string'
PUBLIC	??_C@_04IMCGAIPI@rows@				; `string'
PUBLIC	??_C@_04MBNFPKFL@cols@				; `string'
PUBLIC	??_C@_03FHLPDODD@alt@				; `string'
PUBLIC	??_C@_03LOJEKLML@src@				; `string'
PUBLIC	??_C@_05MEHLAELG@clear@				; `string'
PUBLIC	??_C@_05LJDNNBIK@param@				; `string'
PUBLIC	??_C@_08HMEGOPJI@codebase@			; `string'
PUBLIC	??_C@_07NEJBDDEA@archive@			; `string'
PUBLIC	??_C@_06LNLHEAAG@height@			; `string'
PUBLIC	??_C@_05IGKADHGO@width@				; `string'
PUBLIC	??_C@_05CBJPDLOK@align@				; `string'
PUBLIC	??_C@_06HPCPMHFO@hspace@			; `string'
PUBLIC	??_C@_06EIMOCAMN@vspace@			; `string'
PUBLIC	??_C@_06FFHHDLMH@nohref@			; `string'
PUBLIC	??_C@_04IAGNFIBA@size@				; `string'
PUBLIC	??_C@_05PEENBMOG@color@				; `string'
PUBLIC	??_C@_04POCOPAPC@face@				; `string'
PUBLIC	??_C@_03NOMOFEHF@ins@				; `string'
PUBLIC	??_C@_03ONKLGNNH@del@				; `string'
PUBLIC	??_C@_06FKJAAAAK@onload@			; `string'
PUBLIC	??_C@_08KEOAPEKG@onunload@			; `string'
PUBLIC	??_C@_0L@EGCKCJDC@background@			; `string'
PUBLIC	??_C@_07PMHCLHIB@bgcolor@			; `string'
PUBLIC	??_C@_04CIMGMMMG@text@				; `string'
PUBLIC	??_C@_04OHHBHOGB@link@				; `string'
PUBLIC	??_C@_05ENOKMGAD@vlink@				; `string'
PUBLIC	??_C@_05FDDJPECA@alink@				; `string'
PUBLIC	??_C@_05MFEJDJP@value@				; `string'
PUBLIC	??_C@_08BEHKFNNO@disabled@			; `string'
PUBLIC	??_C@_04ENMBGAPA@char@				; `string'
PUBLIC	??_C@_07CAOCHGPK@charoff@			; `string'
PUBLIC	??_C@_06ICIJKACG@valign@			; `string'
PUBLIC	??_C@_03HNOLNALI@col@				; `string'
PUBLIC	??_C@_08FGNPMIBK@datetime@			; `string'
PUBLIC	??_C@_07HGKHBOGE@compact@			; `string'
PUBLIC	??_C@_02EDDPJOD@dt@				; `string'
PUBLIC	??_C@_02EOPBOLLC@dd@				; `string'
PUBLIC	??_C@_06BCIOHMBM@legend@			; `string'
PUBLIC	??_C@_06GABBCIBA@method@			; `string'
PUBLIC	??_C@_07BCBJKKO@enctype@			; `string'
PUBLIC	??_C@_06MPKMECK@accept@				; `string'
PUBLIC	??_C@_08PPMJAGMH@onsubmit@			; `string'
PUBLIC	??_C@_07CDGCELIF@onreset@			; `string'
PUBLIC	??_C@_0P@IIOBAHEN@accept?9charset@		; `string'
PUBLIC	??_C@_08BMDPBLHN@longdesc@			; `string'
PUBLIC	??_C@_0M@GPMBJNCP@frameborder@			; `string'
PUBLIC	??_C@_0M@LFIDEBFM@marginwidth@			; `string'
PUBLIC	??_C@_0N@HFFDDCPA@marginheight@			; `string'
PUBLIC	??_C@_08BOOCAMGJ@noresize@			; `string'
PUBLIC	??_C@_09PKEBEIDM@scrolling@			; `string'
PUBLIC	??_C@_08GMEGJMDB@frameset@			; `string'
PUBLIC	??_C@_05MIJNFGED@frame@				; `string'
PUBLIC	??_C@_07LNMDFKEJ@profile@			; `string'
PUBLIC	??_C@_04BHIIPFEC@base@				; `string'
PUBLIC	??_C@_04HLJJCGEF@meta@				; `string'
PUBLIC	??_C@_07NCHIIBII@noshade@			; `string'
PUBLIC	??_C@_07CPCPJPKL@version@			; `string'
PUBLIC	??_C@_06KPMBKPGA@usemap@			; `string'
PUBLIC	??_C@_05HANCGNOO@ismap@				; `string'
PUBLIC	??_C@_06ODFLABIG@border@			; `string'
PUBLIC	??_C@_06JIKFICKK@hidden@			; `string'
PUBLIC	??_C@_07JKIHKJOO@palette@			; `string'
PUBLIC	??_C@_0M@GDAEHHFP@pluginspace@			; `string'
PUBLIC	??_C@_09DBOPNCLL@pluginurl@			; `string'
PUBLIC	??_C@_05CCBEFJDC@units@				; `string'
PUBLIC	??_C@_07FJOBMBFC@checked@			; `string'
PUBLIC	??_C@_08JOKHDEJH@readonly@			; `string'
PUBLIC	??_C@_09GGMBJIEG@maxlength@			; `string'
PUBLIC	??_C@_08ILAMBHAE@onselect@			; `string'
PUBLIC	??_C@_08CLANFAGI@onchange@			; `string'
PUBLIC	??_C@_06FJNEHIA@prompt@				; `string'
PUBLIC	??_C@_03JOHEBPFF@for@				; `string'
PUBLIC	??_C@_05CECBHAPI@media@				; `string'
PUBLIC	??_C@_04GOEDGNCF@area@				; `string'
PUBLIC	??_C@_06DDLLCOJG@action@			; `string'
PUBLIC	??_C@_02PFEMMEEH@li@				; `string'
PUBLIC	??_C@_0L@NALBGOHO@http?9equiv@			; `string'
PUBLIC	??_C@_06MMEMGLOP@scheme@			; `string'
PUBLIC	??_C@_07ICAJMOAO@content@			; `string'
PUBLIC	??_C@_07JDFLJJH@declare@			; `string'
PUBLIC	??_C@_07MKGILGMB@classid@			; `string'
PUBLIC	??_C@_04PJOLNDGD@data@				; `string'
PUBLIC	??_C@_08EANEMJD@codetype@			; `string'
PUBLIC	??_C@_07EEGFOKKL@standby@			; `string'
PUBLIC	??_C@_05FAGFPHJG@start@				; `string'
PUBLIC	??_C@_06OGMGCFPO@option@			; `string'
PUBLIC	??_C@_08CJLOJPNI@selected@			; `string'
PUBLIC	??_C@_09JLAJHNIL@valuetype@			; `string'
PUBLIC	??_C@_05MBNCFBEN@defer@				; `string'
PUBLIC	??_C@_05GFHEIIDD@event@				; `string'
PUBLIC	??_C@_08JGCCIMAA@language@			; `string'
PUBLIC	??_C@_08KGPIHINJ@optgroup@			; `string'
PUBLIC	??_C@_08CKJFGDBG@multiple@			; `string'
PUBLIC	??_C@_07PJIIAIPG@summary@			; `string'
PUBLIC	??_C@_05CBLPGGM@rules@				; `string'
PUBLIC	??_C@_0M@HGLPBPKF@cellspacing@			; `string'
PUBLIC	??_C@_0M@NLHEMCJP@cellpadding@			; `string'
PUBLIC	??_C@_0N@LOJCLIGN@datapagesize@			; `string'
PUBLIC	??_C@_07BANDPJOM@caption@			; `string'
PUBLIC	??_C@_08LBGGHKOD@colgroup@			; `string'
PUBLIC	??_C@_05DDLACFIC@thead@				; `string'
PUBLIC	??_C@_05KDGBEENM@tfoot@				; `string'
PUBLIC	??_C@_05OPBKHDLA@tbody@				; `string'
PUBLIC	??_C@_02EOEPPNBF@tr@				; `string'
PUBLIC	??_C@_06KMFGCGJP@nowrap@			; `string'
PUBLIC	??_C@_04HABAAEPG@axis@				; `string'
PUBLIC	??_C@_07LANIGEJC@headers@			; `string'
PUBLIC	??_C@_05DCCHDMEJ@scope@				; `string'
PUBLIC	??_C@_07HIFHGKLD@rowspan@			; `string'
PUBLIC	??_C@_07KBFHKJFO@colspan@			; `string'
PUBLIC	??_C@_02POGCAHMO@th@				; `string'
PUBLIC	??_C@_02FCNHEIMC@td@				; `string'
PUBLIC	??_C@_07NLIDIJLK@anchor?5@			; `string'
PUBLIC	??_C@_0BB@OPBMKOHB@abbreviated?5form@		; `string'
PUBLIC	??_C@_00CNPNBAHC@@				; `string'
PUBLIC	??_C@_0BH@PNOGHPJ@information?5on?5author?5@	; `string'
PUBLIC	??_C@_0N@LANOFEKD@java?5applet?5@		; `string'
PUBLIC	??_C@_0BM@EIGPEHBO@client?9side?5image?5map?5area?5@ ; `string'
PUBLIC	??_C@_0BA@NADNLNKK@bold?5text?5style@		; `string'
PUBLIC	??_C@_0BD@JABNPIOC@document?5base?5uri?5@	; `string'
PUBLIC	??_C@_0BA@OGIGFOOK@base?5font?5size?5@		; `string'
PUBLIC	??_C@_0BF@EJIKDIMB@i18n?5bidi?5over?9ride?5@	; `string'
PUBLIC	??_C@_0BB@BAJOIDME@large?5text?5style@		; `string'
PUBLIC	??_C@_0BA@KOLCJLFL@long?5quotation?5@		; `string'
PUBLIC	??_C@_0P@MOMBBGBM@document?5body?5@		; `string'
PUBLIC	??_C@_0BD@EKEEJOJN@forced?5line?5break?5@	; `string'
PUBLIC	??_C@_0N@NFGALFIH@push?5button?5@		; `string'
PUBLIC	??_C@_0P@LNCJOIOH@table?5caption?5@		; `string'
PUBLIC	??_C@_0CA@LHLKAMHN@shorthand?5for?5div?5align?$DNcenter?5@ ; `string'
PUBLIC	??_C@_08JKLKPBNF@citation@			; `string'
PUBLIC	??_C@_0BH@LEOBKMKN@computer?5code?5fragment@	; `string'
PUBLIC	??_C@_0O@FGGFNENO@table?5column?5@		; `string'
PUBLIC	??_C@_0BE@LOIFNDJE@table?5column?5group?5@	; `string'
PUBLIC	??_C@_0BI@HABKMEJP@definition?5description?5@	; `string'
PUBLIC	??_C@_0O@HPOOFJNH@deleted?5text?5@		; `string'
PUBLIC	??_C@_0BE@BOOBDIMI@instance?5definition@	; `string'
PUBLIC	??_C@_0P@IKNDKLJF@directory?5list@		; `string'
PUBLIC	??_C@_0CB@MBOOJGEG@generic?5language?1style?5containe@ ; `string'
PUBLIC	??_C@_0BB@MIKJLFPH@definition?5list?5@		; `string'
PUBLIC	??_C@_0BB@EJJHCHJK@definition?5term?5@		; `string'
PUBLIC	??_C@_08NCOPEMNJ@emphasis@			; `string'
PUBLIC	??_C@_0BJ@EHDFJKJB@generic?5embedded?5object?5@	; `string'
PUBLIC	??_C@_0BE@NIBLILIK@form?5control?5group?5@	; `string'
PUBLIC	??_C@_0BG@MPBFEMBF@local?5change?5to?5font?5@	; `string'
PUBLIC	??_C@_0BC@CONPLKGA@interactive?5form?5@		; `string'
PUBLIC	??_C@_0L@NAMFAOCF@subwindow?5@			; `string'
PUBLIC	??_C@_0BD@NKGGDHCH@window?5subdivision@		; `string'
PUBLIC	??_C@_08EPCFAACE@heading?5@			; `string'
PUBLIC	??_C@_0P@GMKONMK@document?5head?5@		; `string'
PUBLIC	??_C@_0BB@GBCDCJBE@horizontal?5rule?5@		; `string'
PUBLIC	??_C@_04PNIFHPHN@html@				; `string'
PUBLIC	??_C@_0BH@MPDMFBKE@document?5root?5element?5@	; `string'
PUBLIC	??_C@_0BC@JCIMLGAN@italic?5text?5style@		; `string'
PUBLIC	??_C@_0BC@BHNEGLHO@inline?5subwindow?5@		; `string'
PUBLIC	??_C@_0BA@OHBCJHIG@embedded?5image?5@		; `string'
PUBLIC	??_C@_0O@HMLFLPEN@form?5control?5@		; `string'
PUBLIC	??_C@_0O@CEDLIJIG@inserted?5text@		; `string'
PUBLIC	??_C@_0BE@NOGKIGME@single?5line?5prompt?5@	; `string'
PUBLIC	??_C@_0BP@HBOCGMHA@text?5to?5be?5entered?5by?5the?5user@ ; `string'
PUBLIC	??_C@_0BH@INJKJBGO@form?5field?5label?5text?5@	; `string'
PUBLIC	??_C@_0BB@LGOCAIB@fieldset?5legend?5@		; `string'
PUBLIC	??_C@_0L@DHBHFPMN@list?5item?5@			; `string'
PUBLIC	??_C@_0BK@GCIIKCBE@a?5media?9independent?5link?5@ ; `string'
PUBLIC	??_C@_0BH@LIKCJKCB@client?9side?5image?5map?5@	; `string'
PUBLIC	??_C@_0L@NDLIJHAH@menu?5list?5@			; `string'
PUBLIC	??_C@_0BJ@OJDJPIOL@generic?5metainformation?5@	; `string'
PUBLIC	??_C@_0DL@IAGMJJEB@alternate?5content?5container?5for@ ; `string'
PUBLIC	??_C@_0DM@CPJFPKPD@alternate?5content?5container?5for@ ; `string'
PUBLIC	??_C@_0O@PMECOPH@ordered?5list?5@		; `string'
PUBLIC	??_C@_0O@IBBKJGKJ@option?5group?5@		; `string'
PUBLIC	??_C@_0BD@HJHAAEHL@selectable?5choice?5@	; `string'
PUBLIC	??_C@_0L@ICLNKGCC@paragraph?5@			; `string'
PUBLIC	??_C@_0BG@OGBECHLM@named?5property?5value?5@	; `string'
PUBLIC	??_C@_0BD@OKGNAEP@preformatted?5text?5@		; `string'
PUBLIC	??_C@_0BI@IDGHJEGP@short?5inline?5quotation?5@	; `string'
PUBLIC	??_C@_0BK@GECKKPAM@strike?9through?5text?5style@ ; `string'
PUBLIC	??_C@_0CF@MKBFLFJI@sample?5program?5output?0?5scripts?0@ ; `string'
PUBLIC	??_C@_0BD@EEALOKGK@script?5statements?5@	; `string'
PUBLIC	??_C@_0BB@OKAAEBHI@option?5selector?5@		; `string'
PUBLIC	??_C@_0BB@PLNNDOJH@small?5text?5style@		; `string'
PUBLIC	??_C@_0CC@KPKCOJB@generic?5language?1style?5containe@ ; `string'
PUBLIC	??_C@_0BE@KLPAPDBO@strike?9through?5text@	; `string'
PUBLIC	??_C@_0BA@HHIAOMPI@strong?5emphasis@		; `string'
PUBLIC	??_C@_0M@LPADJHJK@style?5info?5@		; `string'
PUBLIC	??_C@_09KAIPOAII@subscript@			; `string'
PUBLIC	??_C@_0N@LLOPBEAI@superscript?5@		; `string'
PUBLIC	??_C@_0M@COHBKCLJ@table?5body?5@		; `string'
PUBLIC	??_C@_0BA@OHMNJJHC@table?5data?5cell@		; `string'
PUBLIC	??_C@_0BH@ODGBEBOO@multi?9line?5text?5field?5@	; `string'
PUBLIC	??_C@_0O@HFPJPDFP@table?5footer?5@		; `string'
PUBLIC	??_C@_0BC@CCIFOICB@table?5header?5cell@		; `string'
PUBLIC	??_C@_0O@JOOJEINB@table?5header?5@		; `string'
PUBLIC	??_C@_0BA@CCGKIMBG@document?5title?5@		; `string'
PUBLIC	??_C@_0L@OLDIHEAD@table?5row?5@			; `string'
PUBLIC	??_C@_0CC@HPKPLEFL@teletype?5or?5monospaced?5text?5sty@ ; `string'
PUBLIC	??_C@_0BG@NHDOOMEA@underlined?5text?5style@	; `string'
PUBLIC	??_C@_0BA@DILGCPPM@unordered?5list?5@		; `string'
PUBLIC	??_C@_0CL@IOIBPELD@instance?5of?5a?5variable?5or?5progr@ ; `string'
PUBLIC	??_C@_07KMIIAGPH@listing@			; `string'
PUBLIC	??_C@_03BPAAIJBF@xmp@				; `string'
PUBLIC	??_C@_04KJFGKBNM@quot@				; `string'
PUBLIC	??_C@_0CK@JDDAPBGE@quotation?5mark?5?$DN?5APL?5quote?0?5U?$CL0@ ; `string'
PUBLIC	??_C@_03DCBBJBAA@amp@				; `string'
PUBLIC	??_C@_0BJ@FIPLPGNA@ampersand?0?5U?$CL0026?5ISOnum@ ; `string'
PUBLIC	??_C@_04LBCJFAKL@apos@				; `string'
PUBLIC	??_C@_0N@EHENLBIK@single?5quote@		; `string'
PUBLIC	??_C@_02KCAKIFL@lt@				; `string'
PUBLIC	??_C@_0BO@IKPLCPFL@less?9than?5sign?0?5U?$CL003C?5ISOnum@ ; `string'
PUBLIC	??_C@_02GHFEHLK@gt@				; `string'
PUBLIC	??_C@_0CB@INPPCIDE@greater?9than?5sign?0?5U?$CL003E?5ISOnu@ ; `string'
PUBLIC	??_C@_04PHHIFBLJ@nbsp@				; `string'
PUBLIC	??_C@_0DD@LJPHBFKA@no?9break?5space?5?$DN?5non?9breaking?5s@ ; `string'
PUBLIC	??_C@_05BNEGCBFC@iexcl@				; `string'
PUBLIC	??_C@_0CJ@LDCHJPND@inverted?5exclamation?5mark?0?5U?$CL00@ ; `string'
PUBLIC	??_C@_04OCKNFIJG@cent@				; `string'
PUBLIC	??_C@_0BJ@JAJDJOGE@cent?5sign?0?5U?$CL00A2?5ISOnum@ ; `string'
PUBLIC	??_C@_05EBEEKLCG@pound@				; `string'
PUBLIC	??_C@_0BK@CBLMFKEA@pound?5sign?0?5U?$CL00A3?5ISOnum@ ; `string'
PUBLIC	??_C@_06HEGEHONB@curren@			; `string'
PUBLIC	??_C@_0BN@KCBDNOJC@currency?5sign?0?5U?$CL00A4?5ISOnum@ ; `string'
PUBLIC	??_C@_03HNOOIABH@yen@				; `string'
PUBLIC	??_C@_0CE@IIBMKILI@yen?5sign?5?$DN?5yuan?5sign?0?5U?$CL00A5?5IS@ ; `string'
PUBLIC	??_C@_06ILPBEBAD@brvbar@			; `string'
PUBLIC	??_C@_0DA@CCMOAPKD@broken?5bar?5?$DN?5broken?5vertical?5ba@ ; `string'
PUBLIC	??_C@_04IKJFFMEH@sect@				; `string'
PUBLIC	??_C@_0BM@NBPOBBLJ@section?5sign?0?5U?$CL00A7?5ISOnum@ ; `string'
PUBLIC	??_C@_03LBNAMJF@uml@				; `string'
PUBLIC	??_C@_0CN@DADBLGNL@diaeresis?5?$DN?5spacing?5diaeresis?0?5@ ; `string'
PUBLIC	??_C@_04COAGEIMF@copy@				; `string'
PUBLIC	??_C@_0BO@GKHKBHFO@copyright?5sign?0?5U?$CL00A9?5ISOnum@ ; `string'
PUBLIC	??_C@_04JPPACPLE@ordf@				; `string'
PUBLIC	??_C@_0CK@IDODFDJH@feminine?5ordinal?5indicator?0?5U?$CL0@ ; `string'
PUBLIC	??_C@_05PGIFNFKK@laquo@				; `string'
PUBLIC	??_C@_0FD@BNFCAIHO@left?9pointing?5double?5angle?5quot@ ; `string'
PUBLIC	??_C@_03NJKJADM@not@				; `string'
PUBLIC	??_C@_0BI@BCMLJBGJ@not?5sign?0?5U?$CL00AC?5ISOnum@ ; `string'
PUBLIC	??_C@_03BPAIHHLG@shy@				; `string'
PUBLIC	??_C@_0DC@LBOPPEOL@soft?5hyphen?5?$DN?5discretionary?5hyp@ ; `string'
PUBLIC	??_C@_03HLCNLMFP@reg@				; `string'
PUBLIC	??_C@_0DM@GCGJPANE@registered?5sign?5?$DN?5registered?5tr@ ; `string'
PUBLIC	??_C@_04IMHNEFHF@macr@				; `string'
PUBLIC	??_C@_0EA@HOMEIEDB@macron?5?$DN?5spacing?5macron?5?$DN?5overl@ ; `string'
PUBLIC	??_C@_03OFPLEBM@deg@				; `string'
PUBLIC	??_C@_0BL@CCCHHGNH@degree?5sign?0?5U?$CL00B0?5ISOnum@ ; `string'
PUBLIC	??_C@_06CAEEBBM@plusmn@				; `string'
PUBLIC	??_C@_0DE@CHKDBJJG@plus?9minus?5sign?5?$DN?5plus?9or?9minus@ ; `string'
PUBLIC	??_C@_04GCMPPOHC@sup2@				; `string'
PUBLIC	??_C@_0EB@LEPBNIBM@superscript?5two?5?$DN?5superscript?5d@ ; `string'
PUBLIC	??_C@_04HLNEMPDD@sup3@				; `string'
PUBLIC	??_C@_0ED@GIKFIKLK@superscript?5three?5?$DN?5superscript@ ; `string'
PUBLIC	??_C@_05EEJEIAPO@acute@				; `string'
PUBLIC	??_C@_0CM@HPINDAMO@acute?5accent?5?$DN?5spacing?5acute?0?5U@ ; `string'
PUBLIC	??_C@_05PCPGMEFP@micro@				; `string'
PUBLIC	??_C@_0BK@KOECHADG@micro?5sign?0?5U?$CL00B5?5ISOnum@ ; `string'
PUBLIC	??_C@_04GIAGJOJD@para@				; `string'
PUBLIC	??_C@_0CN@MOKENOBK@pilcrow?5sign?5?$DN?5paragraph?5sign?0?5@ ; `string'
PUBLIC	??_C@_06HHCHNCAA@middot@			; `string'
PUBLIC	??_C@_0DM@HGAIAHA@middle?5dot?5?$DN?5Georgian?5comma?5Gre@ ; `string'
PUBLIC	??_C@_05KLIFGPMF@cedil@				; `string'
PUBLIC	??_C@_0CJ@ILEJKNLC@cedilla?5?$DN?5spacing?5cedilla?0?5U?$CL00@ ; `string'
PUBLIC	??_C@_04EJOCKNLB@sup1@				; `string'
PUBLIC	??_C@_0DH@CNBAIMGE@superscript?5one?5?$DN?5superscript?5d@ ; `string'
PUBLIC	??_C@_04HMAEPGHP@ordm@				; `string'
PUBLIC	??_C@_0CL@FJKJODCC@masculine?5ordinal?5indicator?0?5U?$CL@ ; `string'
PUBLIC	??_C@_05MPFJLGEB@raquo@				; `string'
PUBLIC	??_C@_0FD@EGIHNJHG@right?9pointing?5double?5angle?5quo@ ; `string'
PUBLIC	??_C@_06NPFNIPNE@frac14@			; `string'
PUBLIC	??_C@_0EC@KBCMBOHG@vulgar?5fraction?5one?5quarter?5?$DN?5f@ ; `string'
PUBLIC	??_C@_06IJAHCIFC@frac12@			; `string'
PUBLIC	??_C@_0DM@DIGGMOPD@vulgar?5fraction?5one?5half?5?$DN?5frac@ ; `string'
PUBLIC	??_C@_06NMNJFLLK@frac34@			; `string'
PUBLIC	??_C@_0EI@KLKHBCM@vulgar?5fraction?5three?5quarters?5@ ; `string'
PUBLIC	??_C@_06JMONPFKG@iquest@			; `string'
PUBLIC	??_C@_0DN@EEILHCCA@inverted?5question?5mark?5?$DN?5turned@ ; `string'
PUBLIC	??_C@_06NNGAMJGH@Agrave@			; `string'
PUBLIC	??_C@_0FB@KEPDLJAE@latin?5capital?5letter?5A?5with?5gra@ ; `string'
PUBLIC	??_C@_06IKEGIAOO@Aacute@			; `string'
PUBLIC	??_C@_0DC@MHBNMNMK@latin?5capital?5letter?5A?5with?5acu@ ; `string'
PUBLIC	??_C@_05LCALGNL@Acirc@				; `string'
PUBLIC	??_C@_0DH@KHFDKONJ@latin?5capital?5letter?5A?5with?5cir@ ; `string'
PUBLIC	??_C@_06KCNKLAAC@Atilde@			; `string'
PUBLIC	??_C@_0DC@OLJINFKG@latin?5capital?5letter?5A?5with?5til@ ; `string'
PUBLIC	??_C@_04IJOIFFGN@Auml@				; `string'
PUBLIC	??_C@_0DG@FBFBPIGP@latin?5capital?5letter?5A?5with?5dia@ ; `string'
PUBLIC	??_C@_05CHPAJHPJ@Aring@				; `string'
PUBLIC	??_C@_0FF@OIKGDIMD@latin?5capital?5letter?5A?5with?5rin@ ; `string'
PUBLIC	??_C@_05GGABFNI@AElig@				; `string'
PUBLIC	??_C@_0EE@MODCPHBF@latin?5capital?5letter?5AE?5?$DN?5latin@ ; `string'
PUBLIC	??_C@_06PCMIHOPM@Ccedil@			; `string'
PUBLIC	??_C@_0DE@JIEMILBI@latin?5capital?5letter?5C?5with?5ced@ ; `string'
PUBLIC	??_C@_06CJCPONHE@Egrave@			; `string'
PUBLIC	??_C@_0DC@BADGAJKO@latin?5capital?5letter?5E?5with?5gra@ ; `string'
PUBLIC	??_C@_06HOAJKEPN@Eacute@			; `string'
PUBLIC	??_C@_0DC@IDKEOPOP@latin?5capital?5letter?5E?5with?5acu@ ; `string'
PUBLIC	??_C@_05JALBPEMN@Ecirc@				; `string'
PUBLIC	??_C@_0DH@CICENEJK@latin?5capital?5letter?5E?5with?5cir@ ; `string'
PUBLIC	??_C@_04HMGIPDKN@Euml@				; `string'
PUBLIC	??_C@_0DG@HBMMEOHM@latin?5capital?5letter?5E?5with?5dia@ ; `string'
PUBLIC	??_C@_06OOIPIHAA@Igrave@			; `string'
PUBLIC	??_C@_0DC@OHCNNALC@latin?5capital?5letter?5I?5with?5gra@ ; `string'
PUBLIC	??_C@_06LJKJMOIJ@Iacute@			; `string'
PUBLIC	??_C@_0DC@HJKBEGLE@latin?5capital?5letter?5I?5with?5acu@ ; `string'
PUBLIC	??_C@_05OHHDDELG@Icirc@				; `string'
PUBLIC	??_C@_0DH@EMKFLPMJ@latin?5capital?5letter?5I?5with?5cir@ ; `string'
PUBLIC	??_C@_04LJJIBOKM@Iuml@				; `string'
PUBLIC	??_C@_0DG@MPAICMBD@latin?5capital?5letter?5I?5with?5dia@ ; `string'
PUBLIC	??_C@_03CBGEMLIN@ETH@				; `string'
PUBLIC	??_C@_0CJ@LDDCJAMI@latin?5capital?5letter?5ETH?0?5U?$CL00D@ ; `string'
PUBLIC	??_C@_06FEJCMAOL@Ntilde@			; `string'
PUBLIC	??_C@_0DC@JKOMNMAH@latin?5capital?5letter?5N?5with?5til@ ; `string'
PUBLIC	??_C@_06INFPLCDK@Ograve@			; `string'
PUBLIC	??_C@_0DC@EGPMPLAO@latin?5capital?5letter?5O?5with?5gra@ ; `string'
PUBLIC	??_C@_06NKHJPLLD@Oacute@			; `string'
PUBLIC	??_C@_0DC@NFGOBNEP@latin?5capital?5letter?5O?5with?5acu@ ; `string'
PUBLIC	??_C@_05DBCKNHKL@Ocirc@				; `string'
PUBLIC	??_C@_0DH@KHBIKCFI@latin?5capital?5letter?5O?5with?5cir@ ; `string'
PUBLIC	??_C@_06PCOFMLFP@Otilde@			; `string'
PUBLIC	??_C@_0DC@PAAAKFFJ@latin?5capital?5letter?5O?5with?5til@ ; `string'
PUBLIC	??_C@_04DGNIOLAM@Ouml@				; `string'
PUBLIC	??_C@_0DG@KGFFNOCC@latin?5capital?5letter?5O?5with?5dia@ ; `string'
PUBLIC	??_C@_05MJOOAIJH@times@				; `string'
PUBLIC	??_C@_0CD@DGCLGCAP@multiplication?5sign?0?5U?$CL00D7?5ISO@ ; `string'
PUBLIC	??_C@_06HJKNGHPC@Oslash@			; `string'
PUBLIC	??_C@_0FA@JOMDMBPL@latin?5capital?5letter?5O?5with?5str@ ; `string'
PUBLIC	??_C@_06EOPBHBLK@Ugrave@			; `string'
PUBLIC	??_C@_0DC@FAAHPKBG@latin?5capital?5letter?5U?5with?5gra@ ; `string'
PUBLIC	??_C@_06BJNHDIDD@Uacute@			; `string'
PUBLIC	??_C@_0DC@MJMJLCAF@latin?5capital?5letter?5U?5with?5acu@ ; `string'
PUBLIC	??_C@_05JDGHPGFG@Ucirc@				; `string'
PUBLIC	??_C@_0DH@MPJOGDLJ@latin?5capital?5letter?5U?5with?5cir@ ; `string'
PUBLIC	??_C@_04BMIIGECP@Uuml@				; `string'
PUBLIC	??_C@_0DG@GOPODDHD@latin?5capital?5letter?5U?5with?5dia@ ; `string'
PUBLIC	??_C@_06NOHHFCEH@Yacute@			; `string'
PUBLIC	??_C@_0DC@NGFCNODC@latin?5capital?5letter?5Y?5with?5acu@ ; `string'
PUBLIC	??_C@_05HDBENHAL@THORN@				; `string'
PUBLIC	??_C@_0CL@CHGPFKBD@latin?5capital?5letter?5THORN?0?5U?$CL0@ ; `string'
PUBLIC	??_C@_05GMKDJMCJ@szlig@				; `string'
PUBLIC	??_C@_0DF@GONKECDL@latin?5small?5letter?5sharp?5s?5?$DN?5es@ ; `string'
PUBLIC	??_C@_06BCNNPAPL@agrave@			; `string'
PUBLIC	??_C@_0EN@PDCHJIBF@latin?5small?5letter?5a?5with?5grave@ ; `string'
PUBLIC	??_C@_06EFPLLJHC@aacute@			; `string'
PUBLIC	??_C@_0DA@FMJKAKAM@latin?5small?5letter?5a?5with?5acute@ ; `string'
PUBLIC	??_C@_05MIMLDON@acirc@				; `string'
PUBLIC	??_C@_0DF@OHHHJIGO@latin?5small?5letter?5a?5with?5circu@ ; `string'
PUBLIC	??_C@_06GNGHIJJO@atilde@			; `string'
PUBLIC	??_C@_0DA@HABPBCGA@latin?5small?5letter?5a?5with?5tilde@ ; `string'
PUBLIC	??_C@_04EICJHKGJ@auml@				; `string'
PUBLIC	??_C@_0DE@EPMHJDIB@latin?5small?5letter?5a?5with?5diaer@ ; `string'
PUBLIC	??_C@_05CAFMJCMP@aring@				; `string'
PUBLIC	??_C@_0FB@ICHFIEOC@latin?5small?5letter?5a?5with?5ring?5@ ; `string'
PUBLIC	??_C@_05MAANDPOK@aelig@				; `string'
PUBLIC	??_C@_0EA@CAAHFPMH@latin?5small?5letter?5ae?5?$DN?5latin?5s@ ; `string'
PUBLIC	??_C@_06DNHFEHGA@ccedil@			; `string'
PUBLIC	??_C@_0DC@EILMCCNK@latin?5small?5letter?5c?5with?5cedil@ ; `string'
PUBLIC	??_C@_06OGJCNEOI@egrave@			; `string'
PUBLIC	??_C@_0DA@ILLBMOGI@latin?5small?5letter?5e?5with?5grave@ ; `string'
PUBLIC	??_C@_06LBLEJNGB@eacute@			; `string'
PUBLIC	??_C@_0DA@BICDCICJ@latin?5small?5letter?5e?5with?5acute@ ; `string'
PUBLIC	??_C@_05JHBNPBPL@ecirc@				; `string'
PUBLIC	??_C@_0DF@GIAAOCCN@latin?5small?5letter?5e?5with?5circu@ ; `string'
PUBLIC	??_C@_04LNKJNMKJ@euml@				; `string'
PUBLIC	??_C@_0DE@GPFKCFJC@latin?5small?5letter?5e?5with?5diaer@ ; `string'
PUBLIC	??_C@_06CBDCLOJM@igrave@			; `string'
PUBLIC	??_C@_0DA@HMKKBHHE@latin?5small?5letter?5i?5with?5grave@ ; `string'
PUBLIC	??_C@_06HGBEPHBF@iacute@			; `string'
PUBLIC	??_C@_0DA@OCCGIBHC@latin?5small?5letter?5i?5with?5acute@ ; `string'
PUBLIC	??_C@_05OANPDBIA@icirc@				; `string'
PUBLIC	??_C@_0DF@MIBIJHO@latin?5small?5letter?5i?5with?5circu@ ; `string'
PUBLIC	??_C@_04HIFJDBKI@iuml@				; `string'
PUBLIC	??_C@_0DE@NBJOEHPN@latin?5small?5letter?5i?5with?5diaer@ ; `string'
PUBLIC	??_C@_03CMJPAGPB@eth@				; `string'
PUBLIC	??_C@_0CH@LGCMOCIP@latin?5small?5letter?5eth?0?5U?$CL00F0?5@ ; `string'
PUBLIC	??_C@_06JLCPPJHH@ntilde@			; `string'
PUBLIC	??_C@_0DA@LBLCGIED@latin?5small?5letter?5n?5with?5tilde@ ; `string'
PUBLIC	??_C@_06ECOCILKG@ograve@			; `string'
PUBLIC	??_C@_0DA@GNKCEPEK@latin?5small?5letter?5o?5with?5grave@ ; `string'
PUBLIC	??_C@_06BFMEMCCP@oacute@			; `string'
PUBLIC	??_C@_0DA@PODAKJAL@latin?5small?5letter?5o?5with?5acute@ ; `string'
PUBLIC	??_C@_05DGIGNCJN@ocirc@				; `string'
PUBLIC	??_C@_0DF@FHOFOHGN@latin?5small?5letter?5o?5with?5circu@ ; `string'
PUBLIC	??_C@_06DNFIPCMD@otilde@			; `string'
PUBLIC	??_C@_0DA@NLFOBBBN@latin?5small?5letter?5o?5with?5tilde@ ; `string'
PUBLIC	??_C@_04PHBJMEAI@ouml@				; `string'
PUBLIC	??_C@_0DE@IBKMGEO@latin?5small?5letter?5o?5with?5diaer@ ; `string'
PUBLIC	??_C@_06FFHJEHBN@divide@			; `string'
PUBLIC	??_C@_0BN@DJHBCHKN@division?5sign?0?5U?$CL00F7?5ISOnum@ ; `string'
PUBLIC	??_C@_06LGBAFOGO@oslash@			; `string'
PUBLIC	??_C@_0EP@JDKOEFON@latin?5small?5letter?5o?5with?5strok@ ; `string'
PUBLIC	??_C@_06IBEMEICG@ugrave@			; `string'
PUBLIC	??_C@_0DA@HLFJEOFC@latin?5small?5letter?5u?5with?5grave@ ; `string'
PUBLIC	??_C@_06NGGKABKP@uacute@			; `string'
PUBLIC	??_C@_0DA@OCJHAGEB@latin?5small?5letter?5u?5with?5acute@ ; `string'
PUBLIC	??_C@_05JEMLPDGA@ucirc@				; `string'
PUBLIC	??_C@_0DF@DPGDCGIM@latin?5small?5letter?5u?5with?5circu@ ; `string'
PUBLIC	??_C@_04NNEJELCL@uuml@				; `string'
PUBLIC	??_C@_0DE@MALBCLBP@latin?5small?5letter?5u?5with?5diaer@ ; `string'
PUBLIC	??_C@_06BBMKGLNL@yacute@			; `string'
PUBLIC	??_C@_0DA@PNAMGKHG@latin?5small?5letter?5y?5with?5acute@ ; `string'
PUBLIC	??_C@_05LIICDAEF@thorn@				; `string'
PUBLIC	??_C@_0CO@PJIHMBHF@latin?5small?5letter?5thorn?5with?0?5@ ; `string'
PUBLIC	??_C@_04BILJKGCK@yuml@				; `string'
PUBLIC	??_C@_0DE@JBLHCCEO@latin?5small?5letter?5y?5with?5diaer@ ; `string'
PUBLIC	??_C@_05DMGKHEKI@OElig@				; `string'
PUBLIC	??_C@_0CK@MKAIEJDG@latin?5capital?5ligature?5OE?0?5U?$CL01@ ; `string'
PUBLIC	??_C@_05PKAHFOJK@oelig@				; `string'
PUBLIC	??_C@_0CI@PBDOLLDF@latin?5small?5ligature?5oe?0?5U?$CL0153@ ; `string'
PUBLIC	??_C@_06CDFPFCIB@Scaron@			; `string'
PUBLIC	??_C@_0DC@DIFHMFIC@latin?5capital?5letter?5S?5with?5car@ ; `string'
PUBLIC	??_C@_06OMOCGLBN@scaron@			; `string'
PUBLIC	??_C@_0DA@KEKHKDDJ@latin?5small?5letter?5s?5with?5caron@ ; `string'
PUBLIC	??_C@_04NJHIIJCO@Yuml@				; `string'
PUBLIC	??_C@_0DG@DAKEFH@latin?5capital?5letter?5Y?5with?5dia@ ; `string'
PUBLIC	??_C@_04IEHKEKAD@fnof@				; `string'
PUBLIC	??_C@_0DM@ONFHMKBH@latin?5small?5f?5with?5hook?5?$DN?5funct@ ; `string'
PUBLIC	??_C@_04LIMEDJKM@circ@				; `string'
PUBLIC	??_C@_0DB@JBEBEMPM@modifier?5letter?5circumflex?5acce@ ; `string'
PUBLIC	??_C@_05GMAILABC@tilde@				; `string'
PUBLIC	??_C@_0BL@KGODGBKN@small?5tilde?0?5U?$CL02DC?5ISOdia@ ; `string'
PUBLIC	??_C@_05IHOGHNDL@Alpha@				; `string'
PUBLIC	??_C@_0CD@LPBPODOI@greek?5capital?5letter?5alpha?0?5U?$CL0@ ; `string'
PUBLIC	??_C@_04DIAIJOJA@Beta@				; `string'
PUBLIC	??_C@_0CC@OOBPMHFM@greek?5capital?5letter?5beta?0?5U?$CL03@ ; `string'
PUBLIC	??_C@_05NJHBHDO@Gamma@				; `string'
PUBLIC	??_C@_0CL@LGHPBLEE@greek?5capital?5letter?5gamma?0?5U?$CL0@ ; `string'
PUBLIC	??_C@_05NFMIDMMK@Delta@				; `string'
PUBLIC	??_C@_0CL@NHEEDEFH@greek?5capital?5letter?5delta?0?5U?$CL0@ ; `string'
PUBLIC	??_C@_07MHFJNEOI@Epsilon@			; `string'
PUBLIC	??_C@_0CF@JDHAIGGH@greek?5capital?5letter?5epsilon?0?5U@ ; `string'
PUBLIC	??_C@_04GIJIECND@Zeta@				; `string'
PUBLIC	??_C@_0CC@GEHHHHOP@greek?5capital?5letter?5zeta?0?5U?$CL03@ ; `string'
PUBLIC	??_C@_03FNGPBCIG@Eta@				; `string'
PUBLIC	??_C@_0CB@GCINFKKN@greek?5capital?5letter?5eta?0?5U?$CL039@ ; `string'
PUBLIC	??_C@_05FDIGLFGK@Theta@				; `string'
PUBLIC	??_C@_0CL@DEOCPNDP@greek?5capital?5letter?5theta?0?5U?$CL0@ ; `string'
PUBLIC	??_C@_04CAGFEPOF@Iota@				; `string'
PUBLIC	??_C@_0CC@BFEJFF@greek?5capital?5letter?5iota?0?5U?$CL03@ ; `string'
PUBLIC	??_C@_05MMNIGICE@Kappa@				; `string'
PUBLIC	??_C@_0CD@BBAOAFHF@greek?5capital?5letter?5kappa?0?5U?$CL0@ ; `string'
PUBLIC	??_C@_06OBCFFGBN@Lambda@			; `string'
PUBLIC	??_C@_0CM@NLEFHINL@greek?5capital?5letter?5lambda?0?5U?$CL@ ; `string'
PUBLIC	??_C@_02CKLELFMN@Mu@				; `string'
PUBLIC	??_C@_0CA@JHDDCCNN@greek?5capital?5letter?5mu?0?5U?$CL039C@ ; `string'
PUBLIC	??_C@_02CIPCALJE@Nu@				; `string'
PUBLIC	??_C@_0CA@EBJANCBL@greek?5capital?5letter?5nu?0?5U?$CL039D@ ; `string'
PUBLIC	??_C@_02NGCOIJAL@Xi@				; `string'
PUBLIC	??_C@_0CI@DEKDLEND@greek?5capital?5letter?5xi?0?5U?$CL039E@ ; `string'
PUBLIC	??_C@_07IKLCMNO@Omicron@			; `string'
PUBLIC	??_C@_0CF@LAEOEFAO@greek?5capital?5letter?5omicron?0?5U@ ; `string'
PUBLIC	??_C@_02NIDNNILD@Pi@				; `string'
PUBLIC	??_C@_0CI@GJIDFEDM@greek?5capital?5letter?5pi?0?5U?$CL03A0@ ; `string'
PUBLIC	??_C@_03BLBOAKDK@Rho@				; `string'
PUBLIC	??_C@_0CB@KMJAKGAP@greek?5capital?5letter?5rho?0?5U?$CL03A@ ; `string'
PUBLIC	??_C@_05MKBNPMBG@Sigma@				; `string'
PUBLIC	??_C@_0CL@HFCPNIPL@greek?5capital?5letter?5sigma?0?5U?$CL0@ ; `string'
PUBLIC	??_C@_03IBIJJELC@Tau@				; `string'
PUBLIC	??_C@_0CB@HFBLNIAO@greek?5capital?5letter?5tau?0?5U?$CL03A@ ; `string'
PUBLIC	??_C@_07LLOCOFMD@Upsilon@			; `string'
PUBLIC	??_C@_0CN@JFDLHIKN@greek?5capital?5letter?5upsilon?0?5U@ ; `string'
PUBLIC	??_C@_03OHENGFDH@Phi@				; `string'
PUBLIC	??_C@_0CJ@HBFJNDBB@greek?5capital?5letter?5phi?0?5U?$CL03A@ ; `string'
PUBLIC	??_C@_03KFOBJNEG@Chi@				; `string'
PUBLIC	??_C@_0CB@GAGJNAFN@greek?5capital?5letter?5chi?0?5U?$CL03A@ ; `string'
PUBLIC	??_C@_03PHDOCJKG@Psi@				; `string'
PUBLIC	??_C@_0CJ@NGCFEDIE@greek?5capital?5letter?5psi?0?5U?$CL03A@ ; `string'
PUBLIC	??_C@_05OMBHNFGL@Omega@				; `string'
_DATA	SEGMENT
COMM	_forbiddenExp:DWORD
COMM	_emptyExp:DWORD
COMM	_xmlMalloc:DWORD
COMM	_xmlMallocAtomic:DWORD
COMM	_xmlRealloc:DWORD
COMM	_xmlFree:DWORD
COMM	_xmlMemStrdup:DWORD
COMM	_xmlIsBaseCharGroup:BYTE:010H
COMM	_xmlIsCharGroup:BYTE:010H
COMM	_xmlIsCombiningGroup:BYTE:010H
COMM	_xmlIsDigitGroup:BYTE:010H
COMM	_xmlIsExtenderGroup:BYTE:010H
COMM	_xmlIsIdeographicGroup:BYTE:010H
COMM	_xmlIsPubidChar_tab:BYTE:0100H
COMM	_xmlParserMaxDepth:DWORD
_DATA	ENDS
;	COMDAT ??_C@_05OMBHNFGL@Omega@
CONST	SEGMENT
??_C@_05OMBHNFGL@Omega@ DB 'Omega', 00H			; `string'
CONST	ENDS
;	COMDAT ??_C@_0CJ@NGCFEDIE@greek?5capital?5letter?5psi?0?5U?$CL03A@
CONST	SEGMENT
??_C@_0CJ@NGCFEDIE@greek?5capital?5letter?5psi?0?5U?$CL03A@ DB 'greek cap'
	DB	'ital letter psi, U+03A8 ISOgrk3', 00H	; `string'
CONST	ENDS
;	COMDAT ??_C@_03PHDOCJKG@Psi@
CONST	SEGMENT
??_C@_03PHDOCJKG@Psi@ DB 'Psi', 00H			; `string'
CONST	ENDS
;	COMDAT ??_C@_0CB@GAGJNAFN@greek?5capital?5letter?5chi?0?5U?$CL03A@
CONST	SEGMENT
??_C@_0CB@GAGJNAFN@greek?5capital?5letter?5chi?0?5U?$CL03A@ DB 'greek cap'
	DB	'ital letter chi, U+03A7', 00H		; `string'
CONST	ENDS
;	COMDAT ??_C@_03KFOBJNEG@Chi@
CONST	SEGMENT
??_C@_03KFOBJNEG@Chi@ DB 'Chi', 00H			; `string'
CONST	ENDS
;	COMDAT ??_C@_0CJ@HBFJNDBB@greek?5capital?5letter?5phi?0?5U?$CL03A@
CONST	SEGMENT
??_C@_0CJ@HBFJNDBB@greek?5capital?5letter?5phi?0?5U?$CL03A@ DB 'greek cap'
	DB	'ital letter phi, U+03A6 ISOgrk3', 00H	; `string'
CONST	ENDS
;	COMDAT ??_C@_03OHENGFDH@Phi@
CONST	SEGMENT
??_C@_03OHENGFDH@Phi@ DB 'Phi', 00H			; `string'
CONST	ENDS
;	COMDAT ??_C@_0CN@JFDLHIKN@greek?5capital?5letter?5upsilon?0?5U@
CONST	SEGMENT
??_C@_0CN@JFDLHIKN@greek?5capital?5letter?5upsilon?0?5U@ DB 'greek capita'
	DB	'l letter upsilon, U+03A5 ISOgrk3', 00H	; `string'
CONST	ENDS
;	COMDAT ??_C@_07LLOCOFMD@Upsilon@
CONST	SEGMENT
??_C@_07LLOCOFMD@Upsilon@ DB 'Upsilon', 00H		; `string'
CONST	ENDS
;	COMDAT ??_C@_0CB@HFBLNIAO@greek?5capital?5letter?5tau?0?5U?$CL03A@
CONST	SEGMENT
??_C@_0CB@HFBLNIAO@greek?5capital?5letter?5tau?0?5U?$CL03A@ DB 'greek cap'
	DB	'ital letter tau, U+03A4', 00H		; `string'
CONST	ENDS
;	COMDAT ??_C@_03IBIJJELC@Tau@
CONST	SEGMENT
??_C@_03IBIJJELC@Tau@ DB 'Tau', 00H			; `string'
CONST	ENDS
;	COMDAT ??_C@_0CL@HFCPNIPL@greek?5capital?5letter?5sigma?0?5U?$CL0@
CONST	SEGMENT
??_C@_0CL@HFCPNIPL@greek?5capital?5letter?5sigma?0?5U?$CL0@ DB 'greek cap'
	DB	'ital letter sigma, U+03A3 ISOgrk3', 00H	; `string'
CONST	ENDS
;	COMDAT ??_C@_05MKBNPMBG@Sigma@
CONST	SEGMENT
??_C@_05MKBNPMBG@Sigma@ DB 'Sigma', 00H			; `string'
CONST	ENDS
;	COMDAT ??_C@_0CB@KMJAKGAP@greek?5capital?5letter?5rho?0?5U?$CL03A@
CONST	SEGMENT
??_C@_0CB@KMJAKGAP@greek?5capital?5letter?5rho?0?5U?$CL03A@ DB 'greek cap'
	DB	'ital letter rho, U+03A1', 00H		; `string'
CONST	ENDS
;	COMDAT ??_C@_03BLBOAKDK@Rho@
CONST	SEGMENT
??_C@_03BLBOAKDK@Rho@ DB 'Rho', 00H			; `string'
CONST	ENDS
;	COMDAT ??_C@_0CI@GJIDFEDM@greek?5capital?5letter?5pi?0?5U?$CL03A0@
CONST	SEGMENT
??_C@_0CI@GJIDFEDM@greek?5capital?5letter?5pi?0?5U?$CL03A0@ DB 'greek cap'
	DB	'ital letter pi, U+03A0 ISOgrk3', 00H	; `string'
CONST	ENDS
;	COMDAT ??_C@_02NIDNNILD@Pi@
CONST	SEGMENT
??_C@_02NIDNNILD@Pi@ DB 'Pi', 00H			; `string'
CONST	ENDS
;	COMDAT ??_C@_0CF@LAEOEFAO@greek?5capital?5letter?5omicron?0?5U@
CONST	SEGMENT
??_C@_0CF@LAEOEFAO@greek?5capital?5letter?5omicron?0?5U@ DB 'greek capita'
	DB	'l letter omicron, U+039F', 00H		; `string'
CONST	ENDS
;	COMDAT ??_C@_07IKLCMNO@Omicron@
CONST	SEGMENT
??_C@_07IKLCMNO@Omicron@ DB 'Omicron', 00H		; `string'
CONST	ENDS
;	COMDAT ??_C@_0CI@DEKDLEND@greek?5capital?5letter?5xi?0?5U?$CL039E@
CONST	SEGMENT
??_C@_0CI@DEKDLEND@greek?5capital?5letter?5xi?0?5U?$CL039E@ DB 'greek cap'
	DB	'ital letter xi, U+039E ISOgrk3', 00H	; `string'
CONST	ENDS
;	COMDAT ??_C@_02NGCOIJAL@Xi@
CONST	SEGMENT
??_C@_02NGCOIJAL@Xi@ DB 'Xi', 00H			; `string'
CONST	ENDS
;	COMDAT ??_C@_0CA@EBJANCBL@greek?5capital?5letter?5nu?0?5U?$CL039D@
CONST	SEGMENT
??_C@_0CA@EBJANCBL@greek?5capital?5letter?5nu?0?5U?$CL039D@ DB 'greek cap'
	DB	'ital letter nu, U+039D', 00H		; `string'
CONST	ENDS
;	COMDAT ??_C@_02CIPCALJE@Nu@
CONST	SEGMENT
??_C@_02CIPCALJE@Nu@ DB 'Nu', 00H			; `string'
CONST	ENDS
;	COMDAT ??_C@_0CA@JHDDCCNN@greek?5capital?5letter?5mu?0?5U?$CL039C@
CONST	SEGMENT
??_C@_0CA@JHDDCCNN@greek?5capital?5letter?5mu?0?5U?$CL039C@ DB 'greek cap'
	DB	'ital letter mu, U+039C', 00H		; `string'
CONST	ENDS
;	COMDAT ??_C@_02CKLELFMN@Mu@
CONST	SEGMENT
??_C@_02CKLELFMN@Mu@ DB 'Mu', 00H			; `string'
CONST	ENDS
;	COMDAT ??_C@_0CM@NLEFHINL@greek?5capital?5letter?5lambda?0?5U?$CL@
CONST	SEGMENT
??_C@_0CM@NLEFHINL@greek?5capital?5letter?5lambda?0?5U?$CL@ DB 'greek cap'
	DB	'ital letter lambda, U+039B ISOgrk3', 00H	; `string'
CONST	ENDS
;	COMDAT ??_C@_06OBCFFGBN@Lambda@
CONST	SEGMENT
??_C@_06OBCFFGBN@Lambda@ DB 'Lambda', 00H		; `string'
CONST	ENDS
;	COMDAT ??_C@_0CD@BBAOAFHF@greek?5capital?5letter?5kappa?0?5U?$CL0@
CONST	SEGMENT
??_C@_0CD@BBAOAFHF@greek?5capital?5letter?5kappa?0?5U?$CL0@ DB 'greek cap'
	DB	'ital letter kappa, U+039A', 00H		; `string'
CONST	ENDS
;	COMDAT ??_C@_05MMNIGICE@Kappa@
CONST	SEGMENT
??_C@_05MMNIGICE@Kappa@ DB 'Kappa', 00H			; `string'
CONST	ENDS
;	COMDAT ??_C@_0CC@BFEJFF@greek?5capital?5letter?5iota?0?5U?$CL03@
CONST	SEGMENT
??_C@_0CC@BFEJFF@greek?5capital?5letter?5iota?0?5U?$CL03@ DB 'greek capit'
	DB	'al letter iota, U+0399', 00H		; `string'
CONST	ENDS
;	COMDAT ??_C@_04CAGFEPOF@Iota@
CONST	SEGMENT
??_C@_04CAGFEPOF@Iota@ DB 'Iota', 00H			; `string'
CONST	ENDS
;	COMDAT ??_C@_0CL@DEOCPNDP@greek?5capital?5letter?5theta?0?5U?$CL0@
CONST	SEGMENT
??_C@_0CL@DEOCPNDP@greek?5capital?5letter?5theta?0?5U?$CL0@ DB 'greek cap'
	DB	'ital letter theta, U+0398 ISOgrk3', 00H	; `string'
CONST	ENDS
;	COMDAT ??_C@_05FDIGLFGK@Theta@
CONST	SEGMENT
??_C@_05FDIGLFGK@Theta@ DB 'Theta', 00H			; `string'
CONST	ENDS
;	COMDAT ??_C@_0CB@GCINFKKN@greek?5capital?5letter?5eta?0?5U?$CL039@
CONST	SEGMENT
??_C@_0CB@GCINFKKN@greek?5capital?5letter?5eta?0?5U?$CL039@ DB 'greek cap'
	DB	'ital letter eta, U+0397', 00H		; `string'
CONST	ENDS
;	COMDAT ??_C@_03FNGPBCIG@Eta@
CONST	SEGMENT
??_C@_03FNGPBCIG@Eta@ DB 'Eta', 00H			; `string'
CONST	ENDS
;	COMDAT ??_C@_0CC@GEHHHHOP@greek?5capital?5letter?5zeta?0?5U?$CL03@
CONST	SEGMENT
??_C@_0CC@GEHHHHOP@greek?5capital?5letter?5zeta?0?5U?$CL03@ DB 'greek cap'
	DB	'ital letter zeta, U+0396', 00H		; `string'
CONST	ENDS
;	COMDAT ??_C@_04GIJIECND@Zeta@
CONST	SEGMENT
??_C@_04GIJIECND@Zeta@ DB 'Zeta', 00H			; `string'
CONST	ENDS
;	COMDAT ??_C@_0CF@JDHAIGGH@greek?5capital?5letter?5epsilon?0?5U@
CONST	SEGMENT
??_C@_0CF@JDHAIGGH@greek?5capital?5letter?5epsilon?0?5U@ DB 'greek capita'
	DB	'l letter epsilon, U+0395', 00H		; `string'
CONST	ENDS
;	COMDAT ??_C@_07MHFJNEOI@Epsilon@
CONST	SEGMENT
??_C@_07MHFJNEOI@Epsilon@ DB 'Epsilon', 00H		; `string'
CONST	ENDS
;	COMDAT ??_C@_0CL@NHEEDEFH@greek?5capital?5letter?5delta?0?5U?$CL0@
CONST	SEGMENT
??_C@_0CL@NHEEDEFH@greek?5capital?5letter?5delta?0?5U?$CL0@ DB 'greek cap'
	DB	'ital letter delta, U+0394 ISOgrk3', 00H	; `string'
CONST	ENDS
;	COMDAT ??_C@_05NFMIDMMK@Delta@
CONST	SEGMENT
??_C@_05NFMIDMMK@Delta@ DB 'Delta', 00H			; `string'
CONST	ENDS
;	COMDAT ??_C@_0CL@LGHPBLEE@greek?5capital?5letter?5gamma?0?5U?$CL0@
CONST	SEGMENT
??_C@_0CL@LGHPBLEE@greek?5capital?5letter?5gamma?0?5U?$CL0@ DB 'greek cap'
	DB	'ital letter gamma, U+0393 ISOgrk3', 00H	; `string'
CONST	ENDS
;	COMDAT ??_C@_05NJHBHDO@Gamma@
CONST	SEGMENT
??_C@_05NJHBHDO@Gamma@ DB 'Gamma', 00H			; `string'
CONST	ENDS
;	COMDAT ??_C@_0CC@OOBPMHFM@greek?5capital?5letter?5beta?0?5U?$CL03@
CONST	SEGMENT
??_C@_0CC@OOBPMHFM@greek?5capital?5letter?5beta?0?5U?$CL03@ DB 'greek cap'
	DB	'ital letter beta, U+0392', 00H		; `string'
CONST	ENDS
;	COMDAT ??_C@_04DIAIJOJA@Beta@
CONST	SEGMENT
??_C@_04DIAIJOJA@Beta@ DB 'Beta', 00H			; `string'
CONST	ENDS
;	COMDAT ??_C@_0CD@LPBPODOI@greek?5capital?5letter?5alpha?0?5U?$CL0@
CONST	SEGMENT
??_C@_0CD@LPBPODOI@greek?5capital?5letter?5alpha?0?5U?$CL0@ DB 'greek cap'
	DB	'ital letter alpha, U+0391', 00H		; `string'
CONST	ENDS
;	COMDAT ??_C@_05IHOGHNDL@Alpha@
CONST	SEGMENT
??_C@_05IHOGHNDL@Alpha@ DB 'Alpha', 00H			; `string'
CONST	ENDS
;	COMDAT ??_C@_0BL@KGODGBKN@small?5tilde?0?5U?$CL02DC?5ISOdia@
CONST	SEGMENT
??_C@_0BL@KGODGBKN@small?5tilde?0?5U?$CL02DC?5ISOdia@ DB 'small tilde, U+'
	DB	'02DC ISOdia', 00H				; `string'
CONST	ENDS
;	COMDAT ??_C@_05GMAILABC@tilde@
CONST	SEGMENT
??_C@_05GMAILABC@tilde@ DB 'tilde', 00H			; `string'
CONST	ENDS
;	COMDAT ??_C@_0DB@JBEBEMPM@modifier?5letter?5circumflex?5acce@
CONST	SEGMENT
??_C@_0DB@JBEBEMPM@modifier?5letter?5circumflex?5acce@ DB 'modifier lette'
	DB	'r circumflex accent, U+02C6 ISOpub', 00H	; `string'
CONST	ENDS
;	COMDAT ??_C@_04LIMEDJKM@circ@
CONST	SEGMENT
??_C@_04LIMEDJKM@circ@ DB 'circ', 00H			; `string'
CONST	ENDS
;	COMDAT ??_C@_0DM@ONFHMKBH@latin?5small?5f?5with?5hook?5?$DN?5funct@
CONST	SEGMENT
??_C@_0DM@ONFHMKBH@latin?5small?5f?5with?5hook?5?$DN?5funct@ DB 'latin sm'
	DB	'all f with hook = function = florin, U+0192 ISOtech', 00H ; `string'
CONST	ENDS
;	COMDAT ??_C@_04IEHKEKAD@fnof@
CONST	SEGMENT
??_C@_04IEHKEKAD@fnof@ DB 'fnof', 00H			; `string'
CONST	ENDS
;	COMDAT ??_C@_0DG@DAKEFH@latin?5capital?5letter?5Y?5with?5dia@
CONST	SEGMENT
??_C@_0DG@DAKEFH@latin?5capital?5letter?5Y?5with?5dia@ DB 'latin capital '
	DB	'letter Y with diaeresis, U+0178 ISOlat2', 00H ; `string'
CONST	ENDS
;	COMDAT ??_C@_04NJHIIJCO@Yuml@
CONST	SEGMENT
??_C@_04NJHIIJCO@Yuml@ DB 'Yuml', 00H			; `string'
CONST	ENDS
;	COMDAT ??_C@_0DA@KEKHKDDJ@latin?5small?5letter?5s?5with?5caron@
CONST	SEGMENT
??_C@_0DA@KEKHKDDJ@latin?5small?5letter?5s?5with?5caron@ DB 'latin small '
	DB	'letter s with caron, U+0161 ISOlat2', 00H	; `string'
CONST	ENDS
;	COMDAT ??_C@_06OMOCGLBN@scaron@
CONST	SEGMENT
??_C@_06OMOCGLBN@scaron@ DB 'scaron', 00H		; `string'
CONST	ENDS
;	COMDAT ??_C@_0DC@DIFHMFIC@latin?5capital?5letter?5S?5with?5car@
CONST	SEGMENT
??_C@_0DC@DIFHMFIC@latin?5capital?5letter?5S?5with?5car@ DB 'latin capita'
	DB	'l letter S with caron, U+0160 ISOlat2', 00H	; `string'
CONST	ENDS
;	COMDAT ??_C@_06CDFPFCIB@Scaron@
CONST	SEGMENT
??_C@_06CDFPFCIB@Scaron@ DB 'Scaron', 00H		; `string'
CONST	ENDS
;	COMDAT ??_C@_0CI@PBDOLLDF@latin?5small?5ligature?5oe?0?5U?$CL0153@
CONST	SEGMENT
??_C@_0CI@PBDOLLDF@latin?5small?5ligature?5oe?0?5U?$CL0153@ DB 'latin sma'
	DB	'll ligature oe, U+0153 ISOlat2', 00H	; `string'
CONST	ENDS
;	COMDAT ??_C@_05PKAHFOJK@oelig@
CONST	SEGMENT
??_C@_05PKAHFOJK@oelig@ DB 'oelig', 00H			; `string'
CONST	ENDS
;	COMDAT ??_C@_0CK@MKAIEJDG@latin?5capital?5ligature?5OE?0?5U?$CL01@
CONST	SEGMENT
??_C@_0CK@MKAIEJDG@latin?5capital?5ligature?5OE?0?5U?$CL01@ DB 'latin cap'
	DB	'ital ligature OE, U+0152 ISOlat2', 00H	; `string'
CONST	ENDS
;	COMDAT ??_C@_05DMGKHEKI@OElig@
CONST	SEGMENT
??_C@_05DMGKHEKI@OElig@ DB 'OElig', 00H			; `string'
CONST	ENDS
;	COMDAT ??_C@_0DE@JBLHCCEO@latin?5small?5letter?5y?5with?5diaer@
CONST	SEGMENT
??_C@_0DE@JBLHCCEO@latin?5small?5letter?5y?5with?5diaer@ DB 'latin small '
	DB	'letter y with diaeresis, U+00FF ISOlat1', 00H ; `string'
CONST	ENDS
;	COMDAT ??_C@_04BILJKGCK@yuml@
CONST	SEGMENT
??_C@_04BILJKGCK@yuml@ DB 'yuml', 00H			; `string'
CONST	ENDS
;	COMDAT ??_C@_0CO@PJIHMBHF@latin?5small?5letter?5thorn?5with?0?5@
CONST	SEGMENT
??_C@_0CO@PJIHMBHF@latin?5small?5letter?5thorn?5with?0?5@ DB 'latin small'
	DB	' letter thorn with, U+00FE ISOlat1', 00H	; `string'
CONST	ENDS
;	COMDAT ??_C@_05LIICDAEF@thorn@
CONST	SEGMENT
??_C@_05LIICDAEF@thorn@ DB 'thorn', 00H			; `string'
CONST	ENDS
;	COMDAT ??_C@_0DA@PNAMGKHG@latin?5small?5letter?5y?5with?5acute@
CONST	SEGMENT
??_C@_0DA@PNAMGKHG@latin?5small?5letter?5y?5with?5acute@ DB 'latin small '
	DB	'letter y with acute, U+00FD ISOlat1', 00H	; `string'
CONST	ENDS
;	COMDAT ??_C@_06BBMKGLNL@yacute@
CONST	SEGMENT
??_C@_06BBMKGLNL@yacute@ DB 'yacute', 00H		; `string'
CONST	ENDS
;	COMDAT ??_C@_0DE@MALBCLBP@latin?5small?5letter?5u?5with?5diaer@
CONST	SEGMENT
??_C@_0DE@MALBCLBP@latin?5small?5letter?5u?5with?5diaer@ DB 'latin small '
	DB	'letter u with diaeresis, U+00FC ISOlat1', 00H ; `string'
CONST	ENDS
;	COMDAT ??_C@_04NNEJELCL@uuml@
CONST	SEGMENT
??_C@_04NNEJELCL@uuml@ DB 'uuml', 00H			; `string'
CONST	ENDS
;	COMDAT ??_C@_0DF@DPGDCGIM@latin?5small?5letter?5u?5with?5circu@
CONST	SEGMENT
??_C@_0DF@DPGDCGIM@latin?5small?5letter?5u?5with?5circu@ DB 'latin small '
	DB	'letter u with circumflex, U+00FB ISOlat1', 00H ; `string'
CONST	ENDS
;	COMDAT ??_C@_05JEMLPDGA@ucirc@
CONST	SEGMENT
??_C@_05JEMLPDGA@ucirc@ DB 'ucirc', 00H			; `string'
CONST	ENDS
;	COMDAT ??_C@_0DA@OCJHAGEB@latin?5small?5letter?5u?5with?5acute@
CONST	SEGMENT
??_C@_0DA@OCJHAGEB@latin?5small?5letter?5u?5with?5acute@ DB 'latin small '
	DB	'letter u with acute, U+00FA ISOlat1', 00H	; `string'
CONST	ENDS
;	COMDAT ??_C@_06NGGKABKP@uacute@
CONST	SEGMENT
??_C@_06NGGKABKP@uacute@ DB 'uacute', 00H		; `string'
CONST	ENDS
;	COMDAT ??_C@_0DA@HLFJEOFC@latin?5small?5letter?5u?5with?5grave@
CONST	SEGMENT
??_C@_0DA@HLFJEOFC@latin?5small?5letter?5u?5with?5grave@ DB 'latin small '
	DB	'letter u with grave, U+00F9 ISOlat1', 00H	; `string'
CONST	ENDS
;	COMDAT ??_C@_06IBEMEICG@ugrave@
CONST	SEGMENT
??_C@_06IBEMEICG@ugrave@ DB 'ugrave', 00H		; `string'
CONST	ENDS
;	COMDAT ??_C@_0EP@JDKOEFON@latin?5small?5letter?5o?5with?5strok@
CONST	SEGMENT
??_C@_0EP@JDKOEFON@latin?5small?5letter?5o?5with?5strok@ DB 'latin small '
	DB	'letter o with stroke, = latin small letter o slash, U+00F8 IS'
	DB	'Olat1', 00H					; `string'
CONST	ENDS
;	COMDAT ??_C@_06LGBAFOGO@oslash@
CONST	SEGMENT
??_C@_06LGBAFOGO@oslash@ DB 'oslash', 00H		; `string'
CONST	ENDS
;	COMDAT ??_C@_0BN@DJHBCHKN@division?5sign?0?5U?$CL00F7?5ISOnum@
CONST	SEGMENT
??_C@_0BN@DJHBCHKN@division?5sign?0?5U?$CL00F7?5ISOnum@ DB 'division sign'
	DB	', U+00F7 ISOnum', 00H			; `string'
CONST	ENDS
;	COMDAT ??_C@_06FFHJEHBN@divide@
CONST	SEGMENT
??_C@_06FFHJEHBN@divide@ DB 'divide', 00H		; `string'
CONST	ENDS
;	COMDAT ??_C@_0DE@IBKMGEO@latin?5small?5letter?5o?5with?5diaer@
CONST	SEGMENT
??_C@_0DE@IBKMGEO@latin?5small?5letter?5o?5with?5diaer@ DB 'latin small l'
	DB	'etter o with diaeresis, U+00F6 ISOlat1', 00H ; `string'
CONST	ENDS
;	COMDAT ??_C@_04PHBJMEAI@ouml@
CONST	SEGMENT
??_C@_04PHBJMEAI@ouml@ DB 'ouml', 00H			; `string'
CONST	ENDS
;	COMDAT ??_C@_0DA@NLFOBBBN@latin?5small?5letter?5o?5with?5tilde@
CONST	SEGMENT
??_C@_0DA@NLFOBBBN@latin?5small?5letter?5o?5with?5tilde@ DB 'latin small '
	DB	'letter o with tilde, U+00F5 ISOlat1', 00H	; `string'
CONST	ENDS
;	COMDAT ??_C@_06DNFIPCMD@otilde@
CONST	SEGMENT
??_C@_06DNFIPCMD@otilde@ DB 'otilde', 00H		; `string'
CONST	ENDS
;	COMDAT ??_C@_0DF@FHOFOHGN@latin?5small?5letter?5o?5with?5circu@
CONST	SEGMENT
??_C@_0DF@FHOFOHGN@latin?5small?5letter?5o?5with?5circu@ DB 'latin small '
	DB	'letter o with circumflex, U+00F4 ISOlat1', 00H ; `string'
CONST	ENDS
;	COMDAT ??_C@_05DGIGNCJN@ocirc@
CONST	SEGMENT
??_C@_05DGIGNCJN@ocirc@ DB 'ocirc', 00H			; `string'
CONST	ENDS
;	COMDAT ??_C@_0DA@PODAKJAL@latin?5small?5letter?5o?5with?5acute@
CONST	SEGMENT
??_C@_0DA@PODAKJAL@latin?5small?5letter?5o?5with?5acute@ DB 'latin small '
	DB	'letter o with acute, U+00F3 ISOlat1', 00H	; `string'
CONST	ENDS
;	COMDAT ??_C@_06BFMEMCCP@oacute@
CONST	SEGMENT
??_C@_06BFMEMCCP@oacute@ DB 'oacute', 00H		; `string'
CONST	ENDS
;	COMDAT ??_C@_0DA@GNKCEPEK@latin?5small?5letter?5o?5with?5grave@
CONST	SEGMENT
??_C@_0DA@GNKCEPEK@latin?5small?5letter?5o?5with?5grave@ DB 'latin small '
	DB	'letter o with grave, U+00F2 ISOlat1', 00H	; `string'
CONST	ENDS
;	COMDAT ??_C@_06ECOCILKG@ograve@
CONST	SEGMENT
??_C@_06ECOCILKG@ograve@ DB 'ograve', 00H		; `string'
CONST	ENDS
;	COMDAT ??_C@_0DA@LBLCGIED@latin?5small?5letter?5n?5with?5tilde@
CONST	SEGMENT
??_C@_0DA@LBLCGIED@latin?5small?5letter?5n?5with?5tilde@ DB 'latin small '
	DB	'letter n with tilde, U+00F1 ISOlat1', 00H	; `string'
CONST	ENDS
;	COMDAT ??_C@_06JLCPPJHH@ntilde@
CONST	SEGMENT
??_C@_06JLCPPJHH@ntilde@ DB 'ntilde', 00H		; `string'
CONST	ENDS
;	COMDAT ??_C@_0CH@LGCMOCIP@latin?5small?5letter?5eth?0?5U?$CL00F0?5@
CONST	SEGMENT
??_C@_0CH@LGCMOCIP@latin?5small?5letter?5eth?0?5U?$CL00F0?5@ DB 'latin sm'
	DB	'all letter eth, U+00F0 ISOlat1', 00H	; `string'
CONST	ENDS
;	COMDAT ??_C@_03CMJPAGPB@eth@
CONST	SEGMENT
??_C@_03CMJPAGPB@eth@ DB 'eth', 00H			; `string'
CONST	ENDS
;	COMDAT ??_C@_0DE@NBJOEHPN@latin?5small?5letter?5i?5with?5diaer@
CONST	SEGMENT
??_C@_0DE@NBJOEHPN@latin?5small?5letter?5i?5with?5diaer@ DB 'latin small '
	DB	'letter i with diaeresis, U+00EF ISOlat1', 00H ; `string'
CONST	ENDS
;	COMDAT ??_C@_04HIFJDBKI@iuml@
CONST	SEGMENT
??_C@_04HIFJDBKI@iuml@ DB 'iuml', 00H			; `string'
CONST	ENDS
;	COMDAT ??_C@_0DF@MIBIJHO@latin?5small?5letter?5i?5with?5circu@
CONST	SEGMENT
??_C@_0DF@MIBIJHO@latin?5small?5letter?5i?5with?5circu@ DB 'latin small l'
	DB	'etter i with circumflex, U+00EE ISOlat1', 00H ; `string'
CONST	ENDS
;	COMDAT ??_C@_05OANPDBIA@icirc@
CONST	SEGMENT
??_C@_05OANPDBIA@icirc@ DB 'icirc', 00H			; `string'
CONST	ENDS
;	COMDAT ??_C@_0DA@OCCGIBHC@latin?5small?5letter?5i?5with?5acute@
CONST	SEGMENT
??_C@_0DA@OCCGIBHC@latin?5small?5letter?5i?5with?5acute@ DB 'latin small '
	DB	'letter i with acute, U+00ED ISOlat1', 00H	; `string'
CONST	ENDS
;	COMDAT ??_C@_06HGBEPHBF@iacute@
CONST	SEGMENT
??_C@_06HGBEPHBF@iacute@ DB 'iacute', 00H		; `string'
CONST	ENDS
;	COMDAT ??_C@_0DA@HMKKBHHE@latin?5small?5letter?5i?5with?5grave@
CONST	SEGMENT
??_C@_0DA@HMKKBHHE@latin?5small?5letter?5i?5with?5grave@ DB 'latin small '
	DB	'letter i with grave, U+00EC ISOlat1', 00H	; `string'
CONST	ENDS
;	COMDAT ??_C@_06CBDCLOJM@igrave@
CONST	SEGMENT
??_C@_06CBDCLOJM@igrave@ DB 'igrave', 00H		; `string'
CONST	ENDS
;	COMDAT ??_C@_0DE@GPFKCFJC@latin?5small?5letter?5e?5with?5diaer@
CONST	SEGMENT
??_C@_0DE@GPFKCFJC@latin?5small?5letter?5e?5with?5diaer@ DB 'latin small '
	DB	'letter e with diaeresis, U+00EB ISOlat1', 00H ; `string'
CONST	ENDS
;	COMDAT ??_C@_04LNKJNMKJ@euml@
CONST	SEGMENT
??_C@_04LNKJNMKJ@euml@ DB 'euml', 00H			; `string'
CONST	ENDS
;	COMDAT ??_C@_0DF@GIAAOCCN@latin?5small?5letter?5e?5with?5circu@
CONST	SEGMENT
??_C@_0DF@GIAAOCCN@latin?5small?5letter?5e?5with?5circu@ DB 'latin small '
	DB	'letter e with circumflex, U+00EA ISOlat1', 00H ; `string'
CONST	ENDS
;	COMDAT ??_C@_05JHBNPBPL@ecirc@
CONST	SEGMENT
??_C@_05JHBNPBPL@ecirc@ DB 'ecirc', 00H			; `string'
CONST	ENDS
;	COMDAT ??_C@_0DA@BICDCICJ@latin?5small?5letter?5e?5with?5acute@
CONST	SEGMENT
??_C@_0DA@BICDCICJ@latin?5small?5letter?5e?5with?5acute@ DB 'latin small '
	DB	'letter e with acute, U+00E9 ISOlat1', 00H	; `string'
CONST	ENDS
;	COMDAT ??_C@_06LBLEJNGB@eacute@
CONST	SEGMENT
??_C@_06LBLEJNGB@eacute@ DB 'eacute', 00H		; `string'
CONST	ENDS
;	COMDAT ??_C@_0DA@ILLBMOGI@latin?5small?5letter?5e?5with?5grave@
CONST	SEGMENT
??_C@_0DA@ILLBMOGI@latin?5small?5letter?5e?5with?5grave@ DB 'latin small '
	DB	'letter e with grave, U+00E8 ISOlat1', 00H	; `string'
CONST	ENDS
;	COMDAT ??_C@_06OGJCNEOI@egrave@
CONST	SEGMENT
??_C@_06OGJCNEOI@egrave@ DB 'egrave', 00H		; `string'
CONST	ENDS
;	COMDAT ??_C@_0DC@EILMCCNK@latin?5small?5letter?5c?5with?5cedil@
CONST	SEGMENT
??_C@_0DC@EILMCCNK@latin?5small?5letter?5c?5with?5cedil@ DB 'latin small '
	DB	'letter c with cedilla, U+00E7 ISOlat1', 00H	; `string'
CONST	ENDS
;	COMDAT ??_C@_06DNHFEHGA@ccedil@
CONST	SEGMENT
??_C@_06DNHFEHGA@ccedil@ DB 'ccedil', 00H		; `string'
CONST	ENDS
;	COMDAT ??_C@_0EA@CAAHFPMH@latin?5small?5letter?5ae?5?$DN?5latin?5s@
CONST	SEGMENT
??_C@_0EA@CAAHFPMH@latin?5small?5letter?5ae?5?$DN?5latin?5s@ DB 'latin sm'
	DB	'all letter ae = latin small ligature ae, U+00E6 ISOlat1', 00H ; `string'
CONST	ENDS
;	COMDAT ??_C@_05MAANDPOK@aelig@
CONST	SEGMENT
??_C@_05MAANDPOK@aelig@ DB 'aelig', 00H			; `string'
CONST	ENDS
;	COMDAT ??_C@_0FB@ICHFIEOC@latin?5small?5letter?5a?5with?5ring?5@
CONST	SEGMENT
??_C@_0FB@ICHFIEOC@latin?5small?5letter?5a?5with?5ring?5@ DB 'latin small'
	DB	' letter a with ring above = latin small letter a ring, U+00E5'
	DB	' ISOlat1', 00H				; `string'
CONST	ENDS
;	COMDAT ??_C@_05CAFMJCMP@aring@
CONST	SEGMENT
??_C@_05CAFMJCMP@aring@ DB 'aring', 00H			; `string'
CONST	ENDS
;	COMDAT ??_C@_0DE@EPMHJDIB@latin?5small?5letter?5a?5with?5diaer@
CONST	SEGMENT
??_C@_0DE@EPMHJDIB@latin?5small?5letter?5a?5with?5diaer@ DB 'latin small '
	DB	'letter a with diaeresis, U+00E4 ISOlat1', 00H ; `string'
CONST	ENDS
;	COMDAT ??_C@_04EICJHKGJ@auml@
CONST	SEGMENT
??_C@_04EICJHKGJ@auml@ DB 'auml', 00H			; `string'
CONST	ENDS
;	COMDAT ??_C@_0DA@HABPBCGA@latin?5small?5letter?5a?5with?5tilde@
CONST	SEGMENT
??_C@_0DA@HABPBCGA@latin?5small?5letter?5a?5with?5tilde@ DB 'latin small '
	DB	'letter a with tilde, U+00E3 ISOlat1', 00H	; `string'
CONST	ENDS
;	COMDAT ??_C@_06GNGHIJJO@atilde@
CONST	SEGMENT
??_C@_06GNGHIJJO@atilde@ DB 'atilde', 00H		; `string'
CONST	ENDS
;	COMDAT ??_C@_0DF@OHHHJIGO@latin?5small?5letter?5a?5with?5circu@
CONST	SEGMENT
??_C@_0DF@OHHHJIGO@latin?5small?5letter?5a?5with?5circu@ DB 'latin small '
	DB	'letter a with circumflex, U+00E2 ISOlat1', 00H ; `string'
CONST	ENDS
;	COMDAT ??_C@_05MIMLDON@acirc@
CONST	SEGMENT
??_C@_05MIMLDON@acirc@ DB 'acirc', 00H			; `string'
CONST	ENDS
;	COMDAT ??_C@_0DA@FMJKAKAM@latin?5small?5letter?5a?5with?5acute@
CONST	SEGMENT
??_C@_0DA@FMJKAKAM@latin?5small?5letter?5a?5with?5acute@ DB 'latin small '
	DB	'letter a with acute, U+00E1 ISOlat1', 00H	; `string'
CONST	ENDS
;	COMDAT ??_C@_06EFPLLJHC@aacute@
CONST	SEGMENT
??_C@_06EFPLLJHC@aacute@ DB 'aacute', 00H		; `string'
CONST	ENDS
;	COMDAT ??_C@_0EN@PDCHJIBF@latin?5small?5letter?5a?5with?5grave@
CONST	SEGMENT
??_C@_0EN@PDCHJIBF@latin?5small?5letter?5a?5with?5grave@ DB 'latin small '
	DB	'letter a with grave = latin small letter a grave, U+00E0 ISOl'
	DB	'at1', 00H					; `string'
CONST	ENDS
;	COMDAT ??_C@_06BCNNPAPL@agrave@
CONST	SEGMENT
??_C@_06BCNNPAPL@agrave@ DB 'agrave', 00H		; `string'
CONST	ENDS
;	COMDAT ??_C@_0DF@GONKECDL@latin?5small?5letter?5sharp?5s?5?$DN?5es@
CONST	SEGMENT
??_C@_0DF@GONKECDL@latin?5small?5letter?5sharp?5s?5?$DN?5es@ DB 'latin sm'
	DB	'all letter sharp s = ess-zed, U+00DF ISOlat1', 00H ; `string'
CONST	ENDS
;	COMDAT ??_C@_05GMKDJMCJ@szlig@
CONST	SEGMENT
??_C@_05GMKDJMCJ@szlig@ DB 'szlig', 00H			; `string'
CONST	ENDS
;	COMDAT ??_C@_0CL@CHGPFKBD@latin?5capital?5letter?5THORN?0?5U?$CL0@
CONST	SEGMENT
??_C@_0CL@CHGPFKBD@latin?5capital?5letter?5THORN?0?5U?$CL0@ DB 'latin cap'
	DB	'ital letter THORN, U+00DE ISOlat1', 00H	; `string'
CONST	ENDS
;	COMDAT ??_C@_05HDBENHAL@THORN@
CONST	SEGMENT
??_C@_05HDBENHAL@THORN@ DB 'THORN', 00H			; `string'
CONST	ENDS
;	COMDAT ??_C@_0DC@NGFCNODC@latin?5capital?5letter?5Y?5with?5acu@
CONST	SEGMENT
??_C@_0DC@NGFCNODC@latin?5capital?5letter?5Y?5with?5acu@ DB 'latin capita'
	DB	'l letter Y with acute, U+00DD ISOlat1', 00H	; `string'
CONST	ENDS
;	COMDAT ??_C@_06NOHHFCEH@Yacute@
CONST	SEGMENT
??_C@_06NOHHFCEH@Yacute@ DB 'Yacute', 00H		; `string'
CONST	ENDS
;	COMDAT ??_C@_0DG@GOPODDHD@latin?5capital?5letter?5U?5with?5dia@
CONST	SEGMENT
??_C@_0DG@GOPODDHD@latin?5capital?5letter?5U?5with?5dia@ DB 'latin capita'
	DB	'l letter U with diaeresis, U+00DC ISOlat1', 00H ; `string'
CONST	ENDS
;	COMDAT ??_C@_04BMIIGECP@Uuml@
CONST	SEGMENT
??_C@_04BMIIGECP@Uuml@ DB 'Uuml', 00H			; `string'
CONST	ENDS
;	COMDAT ??_C@_0DH@MPJOGDLJ@latin?5capital?5letter?5U?5with?5cir@
CONST	SEGMENT
??_C@_0DH@MPJOGDLJ@latin?5capital?5letter?5U?5with?5cir@ DB 'latin capita'
	DB	'l letter U with circumflex, U+00DB ISOlat1', 00H ; `string'
CONST	ENDS
;	COMDAT ??_C@_05JDGHPGFG@Ucirc@
CONST	SEGMENT
??_C@_05JDGHPGFG@Ucirc@ DB 'Ucirc', 00H			; `string'
CONST	ENDS
;	COMDAT ??_C@_0DC@MJMJLCAF@latin?5capital?5letter?5U?5with?5acu@
CONST	SEGMENT
??_C@_0DC@MJMJLCAF@latin?5capital?5letter?5U?5with?5acu@ DB 'latin capita'
	DB	'l letter U with acute, U+00DA ISOlat1', 00H	; `string'
CONST	ENDS
;	COMDAT ??_C@_06BJNHDIDD@Uacute@
CONST	SEGMENT
??_C@_06BJNHDIDD@Uacute@ DB 'Uacute', 00H		; `string'
CONST	ENDS
;	COMDAT ??_C@_0DC@FAAHPKBG@latin?5capital?5letter?5U?5with?5gra@
CONST	SEGMENT
??_C@_0DC@FAAHPKBG@latin?5capital?5letter?5U?5with?5gra@ DB 'latin capita'
	DB	'l letter U with grave, U+00D9 ISOlat1', 00H	; `string'
CONST	ENDS
;	COMDAT ??_C@_06EOPBHBLK@Ugrave@
CONST	SEGMENT
??_C@_06EOPBHBLK@Ugrave@ DB 'Ugrave', 00H		; `string'
CONST	ENDS
;	COMDAT ??_C@_0FA@JOMDMBPL@latin?5capital?5letter?5O?5with?5str@
CONST	SEGMENT
??_C@_0FA@JOMDMBPL@latin?5capital?5letter?5O?5with?5str@ DB 'latin capita'
	DB	'l letter O with stroke latin capital letter O slash, U+00D8 I'
	DB	'SOlat1', 00H				; `string'
CONST	ENDS
;	COMDAT ??_C@_06HJKNGHPC@Oslash@
CONST	SEGMENT
??_C@_06HJKNGHPC@Oslash@ DB 'Oslash', 00H		; `string'
CONST	ENDS
;	COMDAT ??_C@_0CD@DGCLGCAP@multiplication?5sign?0?5U?$CL00D7?5ISO@
CONST	SEGMENT
??_C@_0CD@DGCLGCAP@multiplication?5sign?0?5U?$CL00D7?5ISO@ DB 'multiplica'
	DB	'tion sign, U+00D7 ISOnum', 00H		; `string'
CONST	ENDS
;	COMDAT ??_C@_05MJOOAIJH@times@
CONST	SEGMENT
??_C@_05MJOOAIJH@times@ DB 'times', 00H			; `string'
CONST	ENDS
;	COMDAT ??_C@_0DG@KGFFNOCC@latin?5capital?5letter?5O?5with?5dia@
CONST	SEGMENT
??_C@_0DG@KGFFNOCC@latin?5capital?5letter?5O?5with?5dia@ DB 'latin capita'
	DB	'l letter O with diaeresis, U+00D6 ISOlat1', 00H ; `string'
CONST	ENDS
;	COMDAT ??_C@_04DGNIOLAM@Ouml@
CONST	SEGMENT
??_C@_04DGNIOLAM@Ouml@ DB 'Ouml', 00H			; `string'
CONST	ENDS
;	COMDAT ??_C@_0DC@PAAAKFFJ@latin?5capital?5letter?5O?5with?5til@
CONST	SEGMENT
??_C@_0DC@PAAAKFFJ@latin?5capital?5letter?5O?5with?5til@ DB 'latin capita'
	DB	'l letter O with tilde, U+00D5 ISOlat1', 00H	; `string'
CONST	ENDS
;	COMDAT ??_C@_06PCOFMLFP@Otilde@
CONST	SEGMENT
??_C@_06PCOFMLFP@Otilde@ DB 'Otilde', 00H		; `string'
CONST	ENDS
;	COMDAT ??_C@_0DH@KHBIKCFI@latin?5capital?5letter?5O?5with?5cir@
CONST	SEGMENT
??_C@_0DH@KHBIKCFI@latin?5capital?5letter?5O?5with?5cir@ DB 'latin capita'
	DB	'l letter O with circumflex, U+00D4 ISOlat1', 00H ; `string'
CONST	ENDS
;	COMDAT ??_C@_05DBCKNHKL@Ocirc@
CONST	SEGMENT
??_C@_05DBCKNHKL@Ocirc@ DB 'Ocirc', 00H			; `string'
CONST	ENDS
;	COMDAT ??_C@_0DC@NFGOBNEP@latin?5capital?5letter?5O?5with?5acu@
CONST	SEGMENT
??_C@_0DC@NFGOBNEP@latin?5capital?5letter?5O?5with?5acu@ DB 'latin capita'
	DB	'l letter O with acute, U+00D3 ISOlat1', 00H	; `string'
CONST	ENDS
;	COMDAT ??_C@_06NKHJPLLD@Oacute@
CONST	SEGMENT
??_C@_06NKHJPLLD@Oacute@ DB 'Oacute', 00H		; `string'
CONST	ENDS
;	COMDAT ??_C@_0DC@EGPMPLAO@latin?5capital?5letter?5O?5with?5gra@
CONST	SEGMENT
??_C@_0DC@EGPMPLAO@latin?5capital?5letter?5O?5with?5gra@ DB 'latin capita'
	DB	'l letter O with grave, U+00D2 ISOlat1', 00H	; `string'
CONST	ENDS
;	COMDAT ??_C@_06INFPLCDK@Ograve@
CONST	SEGMENT
??_C@_06INFPLCDK@Ograve@ DB 'Ograve', 00H		; `string'
CONST	ENDS
;	COMDAT ??_C@_0DC@JKOMNMAH@latin?5capital?5letter?5N?5with?5til@
CONST	SEGMENT
??_C@_0DC@JKOMNMAH@latin?5capital?5letter?5N?5with?5til@ DB 'latin capita'
	DB	'l letter N with tilde, U+00D1 ISOlat1', 00H	; `string'
CONST	ENDS
;	COMDAT ??_C@_06FEJCMAOL@Ntilde@
CONST	SEGMENT
??_C@_06FEJCMAOL@Ntilde@ DB 'Ntilde', 00H		; `string'
CONST	ENDS
;	COMDAT ??_C@_0CJ@LDDCJAMI@latin?5capital?5letter?5ETH?0?5U?$CL00D@
CONST	SEGMENT
??_C@_0CJ@LDDCJAMI@latin?5capital?5letter?5ETH?0?5U?$CL00D@ DB 'latin cap'
	DB	'ital letter ETH, U+00D0 ISOlat1', 00H	; `string'
CONST	ENDS
;	COMDAT ??_C@_03CBGEMLIN@ETH@
CONST	SEGMENT
??_C@_03CBGEMLIN@ETH@ DB 'ETH', 00H			; `string'
CONST	ENDS
;	COMDAT ??_C@_0DG@MPAICMBD@latin?5capital?5letter?5I?5with?5dia@
CONST	SEGMENT
??_C@_0DG@MPAICMBD@latin?5capital?5letter?5I?5with?5dia@ DB 'latin capita'
	DB	'l letter I with diaeresis, U+00CF ISOlat1', 00H ; `string'
CONST	ENDS
;	COMDAT ??_C@_04LJJIBOKM@Iuml@
CONST	SEGMENT
??_C@_04LJJIBOKM@Iuml@ DB 'Iuml', 00H			; `string'
CONST	ENDS
;	COMDAT ??_C@_0DH@EMKFLPMJ@latin?5capital?5letter?5I?5with?5cir@
CONST	SEGMENT
??_C@_0DH@EMKFLPMJ@latin?5capital?5letter?5I?5with?5cir@ DB 'latin capita'
	DB	'l letter I with circumflex, U+00CE ISOlat1', 00H ; `string'
CONST	ENDS
;	COMDAT ??_C@_05OHHDDELG@Icirc@
CONST	SEGMENT
??_C@_05OHHDDELG@Icirc@ DB 'Icirc', 00H			; `string'
CONST	ENDS
;	COMDAT ??_C@_0DC@HJKBEGLE@latin?5capital?5letter?5I?5with?5acu@
CONST	SEGMENT
??_C@_0DC@HJKBEGLE@latin?5capital?5letter?5I?5with?5acu@ DB 'latin capita'
	DB	'l letter I with acute, U+00CD ISOlat1', 00H	; `string'
CONST	ENDS
;	COMDAT ??_C@_06LJKJMOIJ@Iacute@
CONST	SEGMENT
??_C@_06LJKJMOIJ@Iacute@ DB 'Iacute', 00H		; `string'
CONST	ENDS
;	COMDAT ??_C@_0DC@OHCNNALC@latin?5capital?5letter?5I?5with?5gra@
CONST	SEGMENT
??_C@_0DC@OHCNNALC@latin?5capital?5letter?5I?5with?5gra@ DB 'latin capita'
	DB	'l letter I with grave, U+00CC ISOlat1', 00H	; `string'
CONST	ENDS
;	COMDAT ??_C@_06OOIPIHAA@Igrave@
CONST	SEGMENT
??_C@_06OOIPIHAA@Igrave@ DB 'Igrave', 00H		; `string'
CONST	ENDS
;	COMDAT ??_C@_0DG@HBMMEOHM@latin?5capital?5letter?5E?5with?5dia@
CONST	SEGMENT
??_C@_0DG@HBMMEOHM@latin?5capital?5letter?5E?5with?5dia@ DB 'latin capita'
	DB	'l letter E with diaeresis, U+00CB ISOlat1', 00H ; `string'
CONST	ENDS
;	COMDAT ??_C@_04HMGIPDKN@Euml@
CONST	SEGMENT
??_C@_04HMGIPDKN@Euml@ DB 'Euml', 00H			; `string'
CONST	ENDS
;	COMDAT ??_C@_0DH@CICENEJK@latin?5capital?5letter?5E?5with?5cir@
CONST	SEGMENT
??_C@_0DH@CICENEJK@latin?5capital?5letter?5E?5with?5cir@ DB 'latin capita'
	DB	'l letter E with circumflex, U+00CA ISOlat1', 00H ; `string'
CONST	ENDS
;	COMDAT ??_C@_05JALBPEMN@Ecirc@
CONST	SEGMENT
??_C@_05JALBPEMN@Ecirc@ DB 'Ecirc', 00H			; `string'
CONST	ENDS
;	COMDAT ??_C@_0DC@IDKEOPOP@latin?5capital?5letter?5E?5with?5acu@
CONST	SEGMENT
??_C@_0DC@IDKEOPOP@latin?5capital?5letter?5E?5with?5acu@ DB 'latin capita'
	DB	'l letter E with acute, U+00C9 ISOlat1', 00H	; `string'
CONST	ENDS
;	COMDAT ??_C@_06HOAJKEPN@Eacute@
CONST	SEGMENT
??_C@_06HOAJKEPN@Eacute@ DB 'Eacute', 00H		; `string'
CONST	ENDS
;	COMDAT ??_C@_0DC@BADGAJKO@latin?5capital?5letter?5E?5with?5gra@
CONST	SEGMENT
??_C@_0DC@BADGAJKO@latin?5capital?5letter?5E?5with?5gra@ DB 'latin capita'
	DB	'l letter E with grave, U+00C8 ISOlat1', 00H	; `string'
CONST	ENDS
;	COMDAT ??_C@_06CJCPONHE@Egrave@
CONST	SEGMENT
??_C@_06CJCPONHE@Egrave@ DB 'Egrave', 00H		; `string'
CONST	ENDS
;	COMDAT ??_C@_0DE@JIEMILBI@latin?5capital?5letter?5C?5with?5ced@
CONST	SEGMENT
??_C@_0DE@JIEMILBI@latin?5capital?5letter?5C?5with?5ced@ DB 'latin capita'
	DB	'l letter C with cedilla, U+00C7 ISOlat1', 00H ; `string'
CONST	ENDS
;	COMDAT ??_C@_06PCMIHOPM@Ccedil@
CONST	SEGMENT
??_C@_06PCMIHOPM@Ccedil@ DB 'Ccedil', 00H		; `string'
CONST	ENDS
;	COMDAT ??_C@_0EE@MODCPHBF@latin?5capital?5letter?5AE?5?$DN?5latin@
CONST	SEGMENT
??_C@_0EE@MODCPHBF@latin?5capital?5letter?5AE?5?$DN?5latin@ DB 'latin cap'
	DB	'ital letter AE = latin capital ligature AE, U+00C6 ISOlat1', 00H ; `string'
CONST	ENDS
;	COMDAT ??_C@_05GGABFNI@AElig@
CONST	SEGMENT
??_C@_05GGABFNI@AElig@ DB 'AElig', 00H			; `string'
CONST	ENDS
;	COMDAT ??_C@_0FF@OIKGDIMD@latin?5capital?5letter?5A?5with?5rin@
CONST	SEGMENT
??_C@_0FF@OIKGDIMD@latin?5capital?5letter?5A?5with?5rin@ DB 'latin capita'
	DB	'l letter A with ring above = latin capital letter A ring, U+0'
	DB	'0C5 ISOlat1', 00H				; `string'
CONST	ENDS
;	COMDAT ??_C@_05CHPAJHPJ@Aring@
CONST	SEGMENT
??_C@_05CHPAJHPJ@Aring@ DB 'Aring', 00H			; `string'
CONST	ENDS
;	COMDAT ??_C@_0DG@FBFBPIGP@latin?5capital?5letter?5A?5with?5dia@
CONST	SEGMENT
??_C@_0DG@FBFBPIGP@latin?5capital?5letter?5A?5with?5dia@ DB 'latin capita'
	DB	'l letter A with diaeresis, U+00C4 ISOlat1', 00H ; `string'
CONST	ENDS
;	COMDAT ??_C@_04IJOIFFGN@Auml@
CONST	SEGMENT
??_C@_04IJOIFFGN@Auml@ DB 'Auml', 00H			; `string'
CONST	ENDS
;	COMDAT ??_C@_0DC@OLJINFKG@latin?5capital?5letter?5A?5with?5til@
CONST	SEGMENT
??_C@_0DC@OLJINFKG@latin?5capital?5letter?5A?5with?5til@ DB 'latin capita'
	DB	'l letter A with tilde, U+00C3 ISOlat1', 00H	; `string'
CONST	ENDS
;	COMDAT ??_C@_06KCNKLAAC@Atilde@
CONST	SEGMENT
??_C@_06KCNKLAAC@Atilde@ DB 'Atilde', 00H		; `string'
CONST	ENDS
;	COMDAT ??_C@_0DH@KHFDKONJ@latin?5capital?5letter?5A?5with?5cir@
CONST	SEGMENT
??_C@_0DH@KHFDKONJ@latin?5capital?5letter?5A?5with?5cir@ DB 'latin capita'
	DB	'l letter A with circumflex, U+00C2 ISOlat1', 00H ; `string'
CONST	ENDS
;	COMDAT ??_C@_05LCALGNL@Acirc@
CONST	SEGMENT
??_C@_05LCALGNL@Acirc@ DB 'Acirc', 00H			; `string'
CONST	ENDS
;	COMDAT ??_C@_0DC@MHBNMNMK@latin?5capital?5letter?5A?5with?5acu@
CONST	SEGMENT
??_C@_0DC@MHBNMNMK@latin?5capital?5letter?5A?5with?5acu@ DB 'latin capita'
	DB	'l letter A with acute, U+00C1 ISOlat1', 00H	; `string'
CONST	ENDS
;	COMDAT ??_C@_06IKEGIAOO@Aacute@
CONST	SEGMENT
??_C@_06IKEGIAOO@Aacute@ DB 'Aacute', 00H		; `string'
CONST	ENDS
;	COMDAT ??_C@_0FB@KEPDLJAE@latin?5capital?5letter?5A?5with?5gra@
CONST	SEGMENT
??_C@_0FB@KEPDLJAE@latin?5capital?5letter?5A?5with?5gra@ DB 'latin capita'
	DB	'l letter A with grave = latin capital letter A grave, U+00C0 '
	DB	'ISOlat1', 00H				; `string'
CONST	ENDS
;	COMDAT ??_C@_06NNGAMJGH@Agrave@
CONST	SEGMENT
??_C@_06NNGAMJGH@Agrave@ DB 'Agrave', 00H		; `string'
CONST	ENDS
;	COMDAT ??_C@_0DN@EEILHCCA@inverted?5question?5mark?5?$DN?5turned@
CONST	SEGMENT
??_C@_0DN@EEILHCCA@inverted?5question?5mark?5?$DN?5turned@ DB 'inverted q'
	DB	'uestion mark = turned question mark, U+00BF ISOnum', 00H ; `string'
CONST	ENDS
;	COMDAT ??_C@_06JMONPFKG@iquest@
CONST	SEGMENT
??_C@_06JMONPFKG@iquest@ DB 'iquest', 00H		; `string'
CONST	ENDS
;	COMDAT ??_C@_0EI@KLKHBCM@vulgar?5fraction?5three?5quarters?5@
CONST	SEGMENT
??_C@_0EI@KLKHBCM@vulgar?5fraction?5three?5quarters?5@ DB 'vulgar fractio'
	DB	'n three quarters = fraction three quarters, U+00BE ISOnum', 00H ; `string'
CONST	ENDS
;	COMDAT ??_C@_06NMNJFLLK@frac34@
CONST	SEGMENT
??_C@_06NMNJFLLK@frac34@ DB 'frac34', 00H		; `string'
CONST	ENDS
;	COMDAT ??_C@_0DM@DIGGMOPD@vulgar?5fraction?5one?5half?5?$DN?5frac@
CONST	SEGMENT
??_C@_0DM@DIGGMOPD@vulgar?5fraction?5one?5half?5?$DN?5frac@ DB 'vulgar fr'
	DB	'action one half = fraction one half, U+00BD ISOnum', 00H ; `string'
CONST	ENDS
;	COMDAT ??_C@_06IJAHCIFC@frac12@
CONST	SEGMENT
??_C@_06IJAHCIFC@frac12@ DB 'frac12', 00H		; `string'
CONST	ENDS
;	COMDAT ??_C@_0EC@KBCMBOHG@vulgar?5fraction?5one?5quarter?5?$DN?5f@
CONST	SEGMENT
??_C@_0EC@KBCMBOHG@vulgar?5fraction?5one?5quarter?5?$DN?5f@ DB 'vulgar fr'
	DB	'action one quarter = fraction one quarter, U+00BC ISOnum', 00H ; `string'
CONST	ENDS
;	COMDAT ??_C@_06NPFNIPNE@frac14@
CONST	SEGMENT
??_C@_06NPFNIPNE@frac14@ DB 'frac14', 00H		; `string'
CONST	ENDS
;	COMDAT ??_C@_0FD@EGIHNJHG@right?9pointing?5double?5angle?5quo@
CONST	SEGMENT
??_C@_0FD@EGIHNJHG@right?9pointing?5double?5angle?5quo@ DB 'right-pointin'
	DB	'g double angle quotation mark right pointing guillemet, U+00B'
	DB	'B ISOnum', 00H				; `string'
CONST	ENDS
;	COMDAT ??_C@_05MPFJLGEB@raquo@
CONST	SEGMENT
??_C@_05MPFJLGEB@raquo@ DB 'raquo', 00H			; `string'
CONST	ENDS
;	COMDAT ??_C@_0CL@FJKJODCC@masculine?5ordinal?5indicator?0?5U?$CL@
CONST	SEGMENT
??_C@_0CL@FJKJODCC@masculine?5ordinal?5indicator?0?5U?$CL@ DB 'masculine '
	DB	'ordinal indicator, U+00BA ISOnum', 00H	; `string'
CONST	ENDS
;	COMDAT ??_C@_04HMAEPGHP@ordm@
CONST	SEGMENT
??_C@_04HMAEPGHP@ordm@ DB 'ordm', 00H			; `string'
CONST	ENDS
;	COMDAT ??_C@_0DH@CNBAIMGE@superscript?5one?5?$DN?5superscript?5d@
CONST	SEGMENT
??_C@_0DH@CNBAIMGE@superscript?5one?5?$DN?5superscript?5d@ DB 'superscrip'
	DB	't one = superscript digit one, U+00B9 ISOnum', 00H ; `string'
CONST	ENDS
;	COMDAT ??_C@_04EJOCKNLB@sup1@
CONST	SEGMENT
??_C@_04EJOCKNLB@sup1@ DB 'sup1', 00H			; `string'
CONST	ENDS
;	COMDAT ??_C@_0CJ@ILEJKNLC@cedilla?5?$DN?5spacing?5cedilla?0?5U?$CL00@
CONST	SEGMENT
??_C@_0CJ@ILEJKNLC@cedilla?5?$DN?5spacing?5cedilla?0?5U?$CL00@ DB 'cedill'
	DB	'a = spacing cedilla, U+00B8 ISOdia', 00H	; `string'
CONST	ENDS
;	COMDAT ??_C@_05KLIFGPMF@cedil@
CONST	SEGMENT
??_C@_05KLIFGPMF@cedil@ DB 'cedil', 00H			; `string'
CONST	ENDS
;	COMDAT ??_C@_0DM@HGAIAHA@middle?5dot?5?$DN?5Georgian?5comma?5Gre@
CONST	SEGMENT
??_C@_0DM@HGAIAHA@middle?5dot?5?$DN?5Georgian?5comma?5Gre@ DB 'middle dot'
	DB	' = Georgian comma Greek middle dot, U+00B7 ISOnum', 00H ; `string'
CONST	ENDS
;	COMDAT ??_C@_06HHCHNCAA@middot@
CONST	SEGMENT
??_C@_06HHCHNCAA@middot@ DB 'middot', 00H		; `string'
CONST	ENDS
;	COMDAT ??_C@_0CN@MOKENOBK@pilcrow?5sign?5?$DN?5paragraph?5sign?0?5@
CONST	SEGMENT
??_C@_0CN@MOKENOBK@pilcrow?5sign?5?$DN?5paragraph?5sign?0?5@ DB 'pilcrow '
	DB	'sign = paragraph sign, U+00B6 ISOnum', 00H	; `string'
CONST	ENDS
;	COMDAT ??_C@_04GIAGJOJD@para@
CONST	SEGMENT
??_C@_04GIAGJOJD@para@ DB 'para', 00H			; `string'
CONST	ENDS
;	COMDAT ??_C@_0BK@KOECHADG@micro?5sign?0?5U?$CL00B5?5ISOnum@
CONST	SEGMENT
??_C@_0BK@KOECHADG@micro?5sign?0?5U?$CL00B5?5ISOnum@ DB 'micro sign, U+00'
	DB	'B5 ISOnum', 00H				; `string'
CONST	ENDS
;	COMDAT ??_C@_05PCPGMEFP@micro@
CONST	SEGMENT
??_C@_05PCPGMEFP@micro@ DB 'micro', 00H			; `string'
CONST	ENDS
;	COMDAT ??_C@_0CM@HPINDAMO@acute?5accent?5?$DN?5spacing?5acute?0?5U@
CONST	SEGMENT
??_C@_0CM@HPINDAMO@acute?5accent?5?$DN?5spacing?5acute?0?5U@ DB 'acute ac'
	DB	'cent = spacing acute, U+00B4 ISOdia', 00H	; `string'
CONST	ENDS
;	COMDAT ??_C@_05EEJEIAPO@acute@
CONST	SEGMENT
??_C@_05EEJEIAPO@acute@ DB 'acute', 00H			; `string'
CONST	ENDS
;	COMDAT ??_C@_0ED@GIKFIKLK@superscript?5three?5?$DN?5superscript@
CONST	SEGMENT
??_C@_0ED@GIKFIKLK@superscript?5three?5?$DN?5superscript@ DB 'superscript'
	DB	' three = superscript digit three = cubed, U+00B3 ISOnum', 00H ; `string'
CONST	ENDS
;	COMDAT ??_C@_04HLNEMPDD@sup3@
CONST	SEGMENT
??_C@_04HLNEMPDD@sup3@ DB 'sup3', 00H			; `string'
CONST	ENDS
;	COMDAT ??_C@_0EB@LEPBNIBM@superscript?5two?5?$DN?5superscript?5d@
CONST	SEGMENT
??_C@_0EB@LEPBNIBM@superscript?5two?5?$DN?5superscript?5d@ DB 'superscrip'
	DB	't two = superscript digit two = squared, U+00B2 ISOnum', 00H ; `string'
CONST	ENDS
;	COMDAT ??_C@_04GCMPPOHC@sup2@
CONST	SEGMENT
??_C@_04GCMPPOHC@sup2@ DB 'sup2', 00H			; `string'
CONST	ENDS
;	COMDAT ??_C@_0DE@CHKDBJJG@plus?9minus?5sign?5?$DN?5plus?9or?9minus@
CONST	SEGMENT
??_C@_0DE@CHKDBJJG@plus?9minus?5sign?5?$DN?5plus?9or?9minus@ DB 'plus-min'
	DB	'us sign = plus-or-minus sign, U+00B1 ISOnum', 00H ; `string'
CONST	ENDS
;	COMDAT ??_C@_06CAEEBBM@plusmn@
CONST	SEGMENT
??_C@_06CAEEBBM@plusmn@ DB 'plusmn', 00H		; `string'
CONST	ENDS
;	COMDAT ??_C@_0BL@CCCHHGNH@degree?5sign?0?5U?$CL00B0?5ISOnum@
CONST	SEGMENT
??_C@_0BL@CCCHHGNH@degree?5sign?0?5U?$CL00B0?5ISOnum@ DB 'degree sign, U+'
	DB	'00B0 ISOnum', 00H				; `string'
CONST	ENDS
;	COMDAT ??_C@_03OFPLEBM@deg@
CONST	SEGMENT
??_C@_03OFPLEBM@deg@ DB 'deg', 00H			; `string'
CONST	ENDS
;	COMDAT ??_C@_0EA@HOMEIEDB@macron?5?$DN?5spacing?5macron?5?$DN?5overl@
CONST	SEGMENT
??_C@_0EA@HOMEIEDB@macron?5?$DN?5spacing?5macron?5?$DN?5overl@ DB 'macron'
	DB	' = spacing macron = overline = APL overbar, U+00AF ISOdia', 00H ; `string'
CONST	ENDS
;	COMDAT ??_C@_04IMHNEFHF@macr@
CONST	SEGMENT
??_C@_04IMHNEFHF@macr@ DB 'macr', 00H			; `string'
CONST	ENDS
;	COMDAT ??_C@_0DM@GCGJPANE@registered?5sign?5?$DN?5registered?5tr@
CONST	SEGMENT
??_C@_0DM@GCGJPANE@registered?5sign?5?$DN?5registered?5tr@ DB 'registered'
	DB	' sign = registered trade mark sign, U+00AE ISOnum', 00H ; `string'
CONST	ENDS
;	COMDAT ??_C@_03HLCNLMFP@reg@
CONST	SEGMENT
??_C@_03HLCNLMFP@reg@ DB 'reg', 00H			; `string'
CONST	ENDS
;	COMDAT ??_C@_0DC@LBOPPEOL@soft?5hyphen?5?$DN?5discretionary?5hyp@
CONST	SEGMENT
??_C@_0DC@LBOPPEOL@soft?5hyphen?5?$DN?5discretionary?5hyp@ DB 'soft hyphe'
	DB	'n = discretionary hyphen, U+00AD ISOnum', 00H ; `string'
CONST	ENDS
;	COMDAT ??_C@_03BPAIHHLG@shy@
CONST	SEGMENT
??_C@_03BPAIHHLG@shy@ DB 'shy', 00H			; `string'
CONST	ENDS
;	COMDAT ??_C@_0BI@BCMLJBGJ@not?5sign?0?5U?$CL00AC?5ISOnum@
CONST	SEGMENT
??_C@_0BI@BCMLJBGJ@not?5sign?0?5U?$CL00AC?5ISOnum@ DB 'not sign, U+00AC I'
	DB	'SOnum', 00H					; `string'
CONST	ENDS
;	COMDAT ??_C@_03NJKJADM@not@
CONST	SEGMENT
??_C@_03NJKJADM@not@ DB 'not', 00H			; `string'
CONST	ENDS
;	COMDAT ??_C@_0FD@BNFCAIHO@left?9pointing?5double?5angle?5quot@
CONST	SEGMENT
??_C@_0FD@BNFCAIHO@left?9pointing?5double?5angle?5quot@ DB 'left-pointing'
	DB	' double angle quotation mark = left pointing guillemet, U+00A'
	DB	'B ISOnum', 00H				; `string'
CONST	ENDS
;	COMDAT ??_C@_05PGIFNFKK@laquo@
CONST	SEGMENT
??_C@_05PGIFNFKK@laquo@ DB 'laquo', 00H			; `string'
CONST	ENDS
;	COMDAT ??_C@_0CK@IDODFDJH@feminine?5ordinal?5indicator?0?5U?$CL0@
CONST	SEGMENT
??_C@_0CK@IDODFDJH@feminine?5ordinal?5indicator?0?5U?$CL0@ DB 'feminine o'
	DB	'rdinal indicator, U+00AA ISOnum', 00H	; `string'
CONST	ENDS
;	COMDAT ??_C@_04JPPACPLE@ordf@
CONST	SEGMENT
??_C@_04JPPACPLE@ordf@ DB 'ordf', 00H			; `string'
CONST	ENDS
;	COMDAT ??_C@_0BO@GKHKBHFO@copyright?5sign?0?5U?$CL00A9?5ISOnum@
CONST	SEGMENT
??_C@_0BO@GKHKBHFO@copyright?5sign?0?5U?$CL00A9?5ISOnum@ DB 'copyright si'
	DB	'gn, U+00A9 ISOnum', 00H			; `string'
CONST	ENDS
;	COMDAT ??_C@_04COAGEIMF@copy@
CONST	SEGMENT
??_C@_04COAGEIMF@copy@ DB 'copy', 00H			; `string'
CONST	ENDS
;	COMDAT ??_C@_0CN@DADBLGNL@diaeresis?5?$DN?5spacing?5diaeresis?0?5@
CONST	SEGMENT
??_C@_0CN@DADBLGNL@diaeresis?5?$DN?5spacing?5diaeresis?0?5@ DB 'diaeresis'
	DB	' = spacing diaeresis, U+00A8 ISOdia', 00H	; `string'
CONST	ENDS
;	COMDAT ??_C@_03LBNAMJF@uml@
CONST	SEGMENT
??_C@_03LBNAMJF@uml@ DB 'uml', 00H			; `string'
CONST	ENDS
;	COMDAT ??_C@_0BM@NBPOBBLJ@section?5sign?0?5U?$CL00A7?5ISOnum@
CONST	SEGMENT
??_C@_0BM@NBPOBBLJ@section?5sign?0?5U?$CL00A7?5ISOnum@ DB 'section sign, '
	DB	'U+00A7 ISOnum', 00H				; `string'
CONST	ENDS
;	COMDAT ??_C@_04IKJFFMEH@sect@
CONST	SEGMENT
??_C@_04IKJFFMEH@sect@ DB 'sect', 00H			; `string'
CONST	ENDS
;	COMDAT ??_C@_0DA@CCMOAPKD@broken?5bar?5?$DN?5broken?5vertical?5ba@
CONST	SEGMENT
??_C@_0DA@CCMOAPKD@broken?5bar?5?$DN?5broken?5vertical?5ba@ DB 'broken ba'
	DB	'r = broken vertical bar, U+00A6 ISOnum', 00H ; `string'
CONST	ENDS
;	COMDAT ??_C@_06ILPBEBAD@brvbar@
CONST	SEGMENT
??_C@_06ILPBEBAD@brvbar@ DB 'brvbar', 00H		; `string'
CONST	ENDS
;	COMDAT ??_C@_0CE@IIBMKILI@yen?5sign?5?$DN?5yuan?5sign?0?5U?$CL00A5?5IS@
CONST	SEGMENT
??_C@_0CE@IIBMKILI@yen?5sign?5?$DN?5yuan?5sign?0?5U?$CL00A5?5IS@ DB 'yen '
	DB	'sign = yuan sign, U+00A5 ISOnum', 00H	; `string'
CONST	ENDS
;	COMDAT ??_C@_03HNOOIABH@yen@
CONST	SEGMENT
??_C@_03HNOOIABH@yen@ DB 'yen', 00H			; `string'
CONST	ENDS
;	COMDAT ??_C@_0BN@KCBDNOJC@currency?5sign?0?5U?$CL00A4?5ISOnum@
CONST	SEGMENT
??_C@_0BN@KCBDNOJC@currency?5sign?0?5U?$CL00A4?5ISOnum@ DB 'currency sign'
	DB	', U+00A4 ISOnum', 00H			; `string'
CONST	ENDS
;	COMDAT ??_C@_06HEGEHONB@curren@
CONST	SEGMENT
??_C@_06HEGEHONB@curren@ DB 'curren', 00H		; `string'
CONST	ENDS
;	COMDAT ??_C@_0BK@CBLMFKEA@pound?5sign?0?5U?$CL00A3?5ISOnum@
CONST	SEGMENT
??_C@_0BK@CBLMFKEA@pound?5sign?0?5U?$CL00A3?5ISOnum@ DB 'pound sign, U+00'
	DB	'A3 ISOnum', 00H				; `string'
CONST	ENDS
;	COMDAT ??_C@_05EBEEKLCG@pound@
CONST	SEGMENT
??_C@_05EBEEKLCG@pound@ DB 'pound', 00H			; `string'
CONST	ENDS
;	COMDAT ??_C@_0BJ@JAJDJOGE@cent?5sign?0?5U?$CL00A2?5ISOnum@
CONST	SEGMENT
??_C@_0BJ@JAJDJOGE@cent?5sign?0?5U?$CL00A2?5ISOnum@ DB 'cent sign, U+00A2'
	DB	' ISOnum', 00H				; `string'
CONST	ENDS
;	COMDAT ??_C@_04OCKNFIJG@cent@
CONST	SEGMENT
??_C@_04OCKNFIJG@cent@ DB 'cent', 00H			; `string'
CONST	ENDS
;	COMDAT ??_C@_0CJ@LDCHJPND@inverted?5exclamation?5mark?0?5U?$CL00@
CONST	SEGMENT
??_C@_0CJ@LDCHJPND@inverted?5exclamation?5mark?0?5U?$CL00@ DB 'inverted e'
	DB	'xclamation mark, U+00A1 ISOnum', 00H	; `string'
CONST	ENDS
;	COMDAT ??_C@_05BNEGCBFC@iexcl@
CONST	SEGMENT
??_C@_05BNEGCBFC@iexcl@ DB 'iexcl', 00H			; `string'
CONST	ENDS
;	COMDAT ??_C@_0DD@LJPHBFKA@no?9break?5space?5?$DN?5non?9breaking?5s@
CONST	SEGMENT
??_C@_0DD@LJPHBFKA@no?9break?5space?5?$DN?5non?9breaking?5s@ DB 'no-break'
	DB	' space = non-breaking space, U+00A0 ISOnum', 00H ; `string'
CONST	ENDS
;	COMDAT ??_C@_04PHHIFBLJ@nbsp@
CONST	SEGMENT
??_C@_04PHHIFBLJ@nbsp@ DB 'nbsp', 00H			; `string'
CONST	ENDS
;	COMDAT ??_C@_0CB@INPPCIDE@greater?9than?5sign?0?5U?$CL003E?5ISOnu@
CONST	SEGMENT
??_C@_0CB@INPPCIDE@greater?9than?5sign?0?5U?$CL003E?5ISOnu@ DB 'greater-t'
	DB	'han sign, U+003E ISOnum', 00H		; `string'
CONST	ENDS
;	COMDAT ??_C@_02GHFEHLK@gt@
CONST	SEGMENT
??_C@_02GHFEHLK@gt@ DB 'gt', 00H			; `string'
CONST	ENDS
;	COMDAT ??_C@_0BO@IKPLCPFL@less?9than?5sign?0?5U?$CL003C?5ISOnum@
CONST	SEGMENT
??_C@_0BO@IKPLCPFL@less?9than?5sign?0?5U?$CL003C?5ISOnum@ DB 'less-than s'
	DB	'ign, U+003C ISOnum', 00H			; `string'
CONST	ENDS
;	COMDAT ??_C@_02KCAKIFL@lt@
CONST	SEGMENT
??_C@_02KCAKIFL@lt@ DB 'lt', 00H			; `string'
CONST	ENDS
;	COMDAT ??_C@_0N@EHENLBIK@single?5quote@
CONST	SEGMENT
??_C@_0N@EHENLBIK@single?5quote@ DB 'single quote', 00H	; `string'
CONST	ENDS
;	COMDAT ??_C@_04LBCJFAKL@apos@
CONST	SEGMENT
??_C@_04LBCJFAKL@apos@ DB 'apos', 00H			; `string'
CONST	ENDS
;	COMDAT ??_C@_0BJ@FIPLPGNA@ampersand?0?5U?$CL0026?5ISOnum@
CONST	SEGMENT
??_C@_0BJ@FIPLPGNA@ampersand?0?5U?$CL0026?5ISOnum@ DB 'ampersand, U+0026 '
	DB	'ISOnum', 00H				; `string'
CONST	ENDS
;	COMDAT ??_C@_03DCBBJBAA@amp@
CONST	SEGMENT
??_C@_03DCBBJBAA@amp@ DB 'amp', 00H			; `string'
CONST	ENDS
;	COMDAT ??_C@_0CK@JDDAPBGE@quotation?5mark?5?$DN?5APL?5quote?0?5U?$CL0@
CONST	SEGMENT
??_C@_0CK@JDDAPBGE@quotation?5mark?5?$DN?5APL?5quote?0?5U?$CL0@ DB 'quota'
	DB	'tion mark = APL quote, U+0022 ISOnum', 00H	; `string'
CONST	ENDS
;	COMDAT ??_C@_04KJFGKBNM@quot@
CONST	SEGMENT
??_C@_04KJFGKBNM@quot@ DB 'quot', 00H			; `string'
CONST	ENDS
;	COMDAT ??_C@_03BPAAIJBF@xmp@
CONST	SEGMENT
??_C@_03BPAAIJBF@xmp@ DB 'xmp', 00H			; `string'
CONST	ENDS
;	COMDAT ??_C@_07KMIIAGPH@listing@
CONST	SEGMENT
??_C@_07KMIIAGPH@listing@ DB 'listing', 00H		; `string'
CONST	ENDS
;	COMDAT ??_C@_0CL@IOIBPELD@instance?5of?5a?5variable?5or?5progr@
CONST	SEGMENT
??_C@_0CL@IOIBPELD@instance?5of?5a?5variable?5or?5progr@ DB 'instance of '
	DB	'a variable or program argument', 00H	; `string'
CONST	ENDS
;	COMDAT ??_C@_0BA@DILGCPPM@unordered?5list?5@
CONST	SEGMENT
??_C@_0BA@DILGCPPM@unordered?5list?5@ DB 'unordered list ', 00H ; `string'
CONST	ENDS
;	COMDAT ??_C@_0BG@NHDOOMEA@underlined?5text?5style@
CONST	SEGMENT
??_C@_0BG@NHDOOMEA@underlined?5text?5style@ DB 'underlined text style', 00H ; `string'
CONST	ENDS
;	COMDAT ??_C@_0CC@HPKPLEFL@teletype?5or?5monospaced?5text?5sty@
CONST	SEGMENT
??_C@_0CC@HPKPLEFL@teletype?5or?5monospaced?5text?5sty@ DB 'teletype or m'
	DB	'onospaced text style', 00H			; `string'
CONST	ENDS
;	COMDAT ??_C@_0L@OLDIHEAD@table?5row?5@
CONST	SEGMENT
??_C@_0L@OLDIHEAD@table?5row?5@ DB 'table row ', 00H	; `string'
CONST	ENDS
;	COMDAT ??_C@_0BA@CCGKIMBG@document?5title?5@
CONST	SEGMENT
??_C@_0BA@CCGKIMBG@document?5title?5@ DB 'document title ', 00H ; `string'
CONST	ENDS
;	COMDAT ??_C@_0O@JOOJEINB@table?5header?5@
CONST	SEGMENT
??_C@_0O@JOOJEINB@table?5header?5@ DB 'table header ', 00H ; `string'
CONST	ENDS
;	COMDAT ??_C@_0BC@CCIFOICB@table?5header?5cell@
CONST	SEGMENT
??_C@_0BC@CCIFOICB@table?5header?5cell@ DB 'table header cell', 00H ; `string'
CONST	ENDS
;	COMDAT ??_C@_0O@HFPJPDFP@table?5footer?5@
CONST	SEGMENT
??_C@_0O@HFPJPDFP@table?5footer?5@ DB 'table footer ', 00H ; `string'
CONST	ENDS
;	COMDAT ??_C@_0BH@ODGBEBOO@multi?9line?5text?5field?5@
CONST	SEGMENT
??_C@_0BH@ODGBEBOO@multi?9line?5text?5field?5@ DB 'multi-line text field '
	DB	00H						; `string'
CONST	ENDS
;	COMDAT ??_C@_0BA@OHMNJJHC@table?5data?5cell@
CONST	SEGMENT
??_C@_0BA@OHMNJJHC@table?5data?5cell@ DB 'table data cell', 00H ; `string'
CONST	ENDS
;	COMDAT ??_C@_0M@COHBKCLJ@table?5body?5@
CONST	SEGMENT
??_C@_0M@COHBKCLJ@table?5body?5@ DB 'table body ', 00H	; `string'
CONST	ENDS
;	COMDAT ??_C@_0N@LLOPBEAI@superscript?5@
CONST	SEGMENT
??_C@_0N@LLOPBEAI@superscript?5@ DB 'superscript ', 00H	; `string'
CONST	ENDS
;	COMDAT ??_C@_09KAIPOAII@subscript@
CONST	SEGMENT
??_C@_09KAIPOAII@subscript@ DB 'subscript', 00H		; `string'
CONST	ENDS
;	COMDAT ??_C@_0M@LPADJHJK@style?5info?5@
CONST	SEGMENT
??_C@_0M@LPADJHJK@style?5info?5@ DB 'style info ', 00H	; `string'
CONST	ENDS
;	COMDAT ??_C@_0BA@HHIAOMPI@strong?5emphasis@
CONST	SEGMENT
??_C@_0BA@HHIAOMPI@strong?5emphasis@ DB 'strong emphasis', 00H ; `string'
CONST	ENDS
;	COMDAT ??_C@_0BE@KLPAPDBO@strike?9through?5text@
CONST	SEGMENT
??_C@_0BE@KLPAPDBO@strike?9through?5text@ DB 'strike-through text', 00H ; `string'
CONST	ENDS
;	COMDAT ??_C@_0CC@KPKCOJB@generic?5language?1style?5containe@
CONST	SEGMENT
??_C@_0CC@KPKCOJB@generic?5language?1style?5containe@ DB 'generic languag'
	DB	'e/style container ', 00H			; `string'
CONST	ENDS
;	COMDAT ??_C@_0BB@PLNNDOJH@small?5text?5style@
CONST	SEGMENT
??_C@_0BB@PLNNDOJH@small?5text?5style@ DB 'small text style', 00H ; `string'
CONST	ENDS
;	COMDAT ??_C@_0BB@OKAAEBHI@option?5selector?5@
CONST	SEGMENT
??_C@_0BB@OKAAEBHI@option?5selector?5@ DB 'option selector ', 00H ; `string'
CONST	ENDS
;	COMDAT ??_C@_0BD@EEALOKGK@script?5statements?5@
CONST	SEGMENT
??_C@_0BD@EEALOKGK@script?5statements?5@ DB 'script statements ', 00H ; `string'
CONST	ENDS
;	COMDAT ??_C@_0CF@MKBFLFJI@sample?5program?5output?0?5scripts?0@
CONST	SEGMENT
??_C@_0CF@MKBFLFJI@sample?5program?5output?0?5scripts?0@ DB 'sample progr'
	DB	'am output, scripts, etc.', 00H		; `string'
CONST	ENDS
;	COMDAT ??_C@_0BK@GECKKPAM@strike?9through?5text?5style@
CONST	SEGMENT
??_C@_0BK@GECKKPAM@strike?9through?5text?5style@ DB 'strike-through text '
	DB	'style', 00H					; `string'
CONST	ENDS
;	COMDAT ??_C@_0BI@IDGHJEGP@short?5inline?5quotation?5@
CONST	SEGMENT
??_C@_0BI@IDGHJEGP@short?5inline?5quotation?5@ DB 'short inline quotation'
	DB	' ', 00H					; `string'
CONST	ENDS
;	COMDAT ??_C@_0BD@OKGNAEP@preformatted?5text?5@
CONST	SEGMENT
??_C@_0BD@OKGNAEP@preformatted?5text?5@ DB 'preformatted text ', 00H ; `string'
CONST	ENDS
;	COMDAT ??_C@_0BG@OGBECHLM@named?5property?5value?5@
CONST	SEGMENT
??_C@_0BG@OGBECHLM@named?5property?5value?5@ DB 'named property value ', 00H ; `string'
CONST	ENDS
;	COMDAT ??_C@_0L@ICLNKGCC@paragraph?5@
CONST	SEGMENT
??_C@_0L@ICLNKGCC@paragraph?5@ DB 'paragraph ', 00H	; `string'
CONST	ENDS
;	COMDAT ??_C@_0BD@HJHAAEHL@selectable?5choice?5@
CONST	SEGMENT
??_C@_0BD@HJHAAEHL@selectable?5choice?5@ DB 'selectable choice ', 00H ; `string'
CONST	ENDS
;	COMDAT ??_C@_0O@IBBKJGKJ@option?5group?5@
CONST	SEGMENT
??_C@_0O@IBBKJGKJ@option?5group?5@ DB 'option group ', 00H ; `string'
CONST	ENDS
;	COMDAT ??_C@_0O@PMECOPH@ordered?5list?5@
CONST	SEGMENT
??_C@_0O@PMECOPH@ordered?5list?5@ DB 'ordered list ', 00H ; `string'
CONST	ENDS
;	COMDAT ??_C@_0DM@CPJFPKPD@alternate?5content?5container?5for@
CONST	SEGMENT
??_C@_0DM@CPJFPKPD@alternate?5content?5container?5for@ DB 'alternate cont'
	DB	'ent container for non script-based rendering ', 00H ; `string'
CONST	ENDS
;	COMDAT ??_C@_0DL@IAGMJJEB@alternate?5content?5container?5for@
CONST	SEGMENT
??_C@_0DL@IAGMJJEB@alternate?5content?5container?5for@ DB 'alternate cont'
	DB	'ent container for non frame-based rendering ', 00H ; `string'
CONST	ENDS
;	COMDAT ??_C@_0BJ@OJDJPIOL@generic?5metainformation?5@
CONST	SEGMENT
??_C@_0BJ@OJDJPIOL@generic?5metainformation?5@ DB 'generic metainformatio'
	DB	'n ', 00H					; `string'
CONST	ENDS
;	COMDAT ??_C@_0L@NDLIJHAH@menu?5list?5@
CONST	SEGMENT
??_C@_0L@NDLIJHAH@menu?5list?5@ DB 'menu list ', 00H	; `string'
CONST	ENDS
;	COMDAT ??_C@_0BH@LIKCJKCB@client?9side?5image?5map?5@
CONST	SEGMENT
??_C@_0BH@LIKCJKCB@client?9side?5image?5map?5@ DB 'client-side image map '
	DB	00H						; `string'
CONST	ENDS
;	COMDAT ??_C@_0BK@GCIIKCBE@a?5media?9independent?5link?5@
CONST	SEGMENT
??_C@_0BK@GCIIKCBE@a?5media?9independent?5link?5@ DB 'a media-independent'
	DB	' link ', 00H				; `string'
CONST	ENDS
;	COMDAT ??_C@_0L@DHBHFPMN@list?5item?5@
CONST	SEGMENT
??_C@_0L@DHBHFPMN@list?5item?5@ DB 'list item ', 00H	; `string'
CONST	ENDS
;	COMDAT ??_C@_0BB@LGOCAIB@fieldset?5legend?5@
CONST	SEGMENT
??_C@_0BB@LGOCAIB@fieldset?5legend?5@ DB 'fieldset legend ', 00H ; `string'
CONST	ENDS
;	COMDAT ??_C@_0BH@INJKJBGO@form?5field?5label?5text?5@
CONST	SEGMENT
??_C@_0BH@INJKJBGO@form?5field?5label?5text?5@ DB 'form field label text '
	DB	00H						; `string'
CONST	ENDS
;	COMDAT ??_C@_0BP@HBOCGMHA@text?5to?5be?5entered?5by?5the?5user@
CONST	SEGMENT
??_C@_0BP@HBOCGMHA@text?5to?5be?5entered?5by?5the?5user@ DB 'text to be e'
	DB	'ntered by the user', 00H			; `string'
CONST	ENDS
;	COMDAT ??_C@_0BE@NOGKIGME@single?5line?5prompt?5@
CONST	SEGMENT
??_C@_0BE@NOGKIGME@single?5line?5prompt?5@ DB 'single line prompt ', 00H ; `string'
CONST	ENDS
;	COMDAT ??_C@_0O@CEDLIJIG@inserted?5text@
CONST	SEGMENT
??_C@_0O@CEDLIJIG@inserted?5text@ DB 'inserted text', 00H ; `string'
CONST	ENDS
;	COMDAT ??_C@_0O@HMLFLPEN@form?5control?5@
CONST	SEGMENT
??_C@_0O@HMLFLPEN@form?5control?5@ DB 'form control ', 00H ; `string'
CONST	ENDS
;	COMDAT ??_C@_0BA@OHBCJHIG@embedded?5image?5@
CONST	SEGMENT
??_C@_0BA@OHBCJHIG@embedded?5image?5@ DB 'embedded image ', 00H ; `string'
CONST	ENDS
;	COMDAT ??_C@_0BC@BHNEGLHO@inline?5subwindow?5@
CONST	SEGMENT
??_C@_0BC@BHNEGLHO@inline?5subwindow?5@ DB 'inline subwindow ', 00H ; `string'
CONST	ENDS
;	COMDAT ??_C@_0BC@JCIMLGAN@italic?5text?5style@
CONST	SEGMENT
??_C@_0BC@JCIMLGAN@italic?5text?5style@ DB 'italic text style', 00H ; `string'
CONST	ENDS
;	COMDAT ??_C@_0BH@MPDMFBKE@document?5root?5element?5@
CONST	SEGMENT
??_C@_0BH@MPDMFBKE@document?5root?5element?5@ DB 'document root element ', 00H ; `string'
CONST	ENDS
;	COMDAT ??_C@_04PNIFHPHN@html@
CONST	SEGMENT
??_C@_04PNIFHPHN@html@ DB 'html', 00H			; `string'
CONST	ENDS
;	COMDAT ??_C@_0BB@GBCDCJBE@horizontal?5rule?5@
CONST	SEGMENT
??_C@_0BB@GBCDCJBE@horizontal?5rule?5@ DB 'horizontal rule ', 00H ; `string'
CONST	ENDS
;	COMDAT ??_C@_0P@GMKONMK@document?5head?5@
CONST	SEGMENT
??_C@_0P@GMKONMK@document?5head?5@ DB 'document head ', 00H ; `string'
CONST	ENDS
;	COMDAT ??_C@_08EPCFAACE@heading?5@
CONST	SEGMENT
??_C@_08EPCFAACE@heading?5@ DB 'heading ', 00H		; `string'
CONST	ENDS
;	COMDAT ??_C@_0BD@NKGGDHCH@window?5subdivision@
CONST	SEGMENT
??_C@_0BD@NKGGDHCH@window?5subdivision@ DB 'window subdivision', 00H ; `string'
CONST	ENDS
;	COMDAT ??_C@_0L@NAMFAOCF@subwindow?5@
CONST	SEGMENT
??_C@_0L@NAMFAOCF@subwindow?5@ DB 'subwindow ', 00H	; `string'
CONST	ENDS
;	COMDAT ??_C@_0BC@CONPLKGA@interactive?5form?5@
CONST	SEGMENT
??_C@_0BC@CONPLKGA@interactive?5form?5@ DB 'interactive form ', 00H ; `string'
CONST	ENDS
;	COMDAT ??_C@_0BG@MPBFEMBF@local?5change?5to?5font?5@
CONST	SEGMENT
??_C@_0BG@MPBFEMBF@local?5change?5to?5font?5@ DB 'local change to font ', 00H ; `string'
CONST	ENDS
;	COMDAT ??_C@_0BE@NIBLILIK@form?5control?5group?5@
CONST	SEGMENT
??_C@_0BE@NIBLILIK@form?5control?5group?5@ DB 'form control group ', 00H ; `string'
CONST	ENDS
;	COMDAT ??_C@_0BJ@EHDFJKJB@generic?5embedded?5object?5@
CONST	SEGMENT
??_C@_0BJ@EHDFJKJB@generic?5embedded?5object?5@ DB 'generic embedded obje'
	DB	'ct ', 00H					; `string'
CONST	ENDS
;	COMDAT ??_C@_08NCOPEMNJ@emphasis@
CONST	SEGMENT
??_C@_08NCOPEMNJ@emphasis@ DB 'emphasis', 00H		; `string'
CONST	ENDS
;	COMDAT ??_C@_0BB@EJJHCHJK@definition?5term?5@
CONST	SEGMENT
??_C@_0BB@EJJHCHJK@definition?5term?5@ DB 'definition term ', 00H ; `string'
CONST	ENDS
;	COMDAT ??_C@_0BB@MIKJLFPH@definition?5list?5@
CONST	SEGMENT
??_C@_0BB@MIKJLFPH@definition?5list?5@ DB 'definition list ', 00H ; `string'
CONST	ENDS
;	COMDAT ??_C@_0CB@MBOOJGEG@generic?5language?1style?5containe@
CONST	SEGMENT
??_C@_0CB@MBOOJGEG@generic?5language?1style?5containe@ DB 'generic langua'
	DB	'ge/style container', 00H			; `string'
CONST	ENDS
;	COMDAT ??_C@_0P@IKNDKLJF@directory?5list@
CONST	SEGMENT
??_C@_0P@IKNDKLJF@directory?5list@ DB 'directory list', 00H ; `string'
CONST	ENDS
;	COMDAT ??_C@_0BE@BOOBDIMI@instance?5definition@
CONST	SEGMENT
??_C@_0BE@BOOBDIMI@instance?5definition@ DB 'instance definition', 00H ; `string'
CONST	ENDS
;	COMDAT ??_C@_0O@HPOOFJNH@deleted?5text?5@
CONST	SEGMENT
??_C@_0O@HPOOFJNH@deleted?5text?5@ DB 'deleted text ', 00H ; `string'
CONST	ENDS
;	COMDAT ??_C@_0BI@HABKMEJP@definition?5description?5@
CONST	SEGMENT
??_C@_0BI@HABKMEJP@definition?5description?5@ DB 'definition description '
	DB	00H						; `string'
CONST	ENDS
;	COMDAT ??_C@_0BE@LOIFNDJE@table?5column?5group?5@
CONST	SEGMENT
??_C@_0BE@LOIFNDJE@table?5column?5group?5@ DB 'table column group ', 00H ; `string'
CONST	ENDS
;	COMDAT ??_C@_0O@FGGFNENO@table?5column?5@
CONST	SEGMENT
??_C@_0O@FGGFNENO@table?5column?5@ DB 'table column ', 00H ; `string'
CONST	ENDS
;	COMDAT ??_C@_0BH@LEOBKMKN@computer?5code?5fragment@
CONST	SEGMENT
??_C@_0BH@LEOBKMKN@computer?5code?5fragment@ DB 'computer code fragment', 00H ; `string'
CONST	ENDS
;	COMDAT ??_C@_08JKLKPBNF@citation@
CONST	SEGMENT
??_C@_08JKLKPBNF@citation@ DB 'citation', 00H		; `string'
CONST	ENDS
;	COMDAT ??_C@_0CA@LHLKAMHN@shorthand?5for?5div?5align?$DNcenter?5@
CONST	SEGMENT
??_C@_0CA@LHLKAMHN@shorthand?5for?5div?5align?$DNcenter?5@ DB 'shorthand '
	DB	'for div align=center ', 00H			; `string'
CONST	ENDS
;	COMDAT ??_C@_0P@LNCJOIOH@table?5caption?5@
CONST	SEGMENT
??_C@_0P@LNCJOIOH@table?5caption?5@ DB 'table caption ', 00H ; `string'
CONST	ENDS
;	COMDAT ??_C@_0N@NFGALFIH@push?5button?5@
CONST	SEGMENT
??_C@_0N@NFGALFIH@push?5button?5@ DB 'push button ', 00H ; `string'
CONST	ENDS
;	COMDAT ??_C@_0BD@EKEEJOJN@forced?5line?5break?5@
CONST	SEGMENT
??_C@_0BD@EKEEJOJN@forced?5line?5break?5@ DB 'forced line break ', 00H ; `string'
CONST	ENDS
;	COMDAT ??_C@_0P@MOMBBGBM@document?5body?5@
CONST	SEGMENT
??_C@_0P@MOMBBGBM@document?5body?5@ DB 'document body ', 00H ; `string'
CONST	ENDS
;	COMDAT ??_C@_0BA@KOLCJLFL@long?5quotation?5@
CONST	SEGMENT
??_C@_0BA@KOLCJLFL@long?5quotation?5@ DB 'long quotation ', 00H ; `string'
CONST	ENDS
;	COMDAT ??_C@_0BB@BAJOIDME@large?5text?5style@
CONST	SEGMENT
??_C@_0BB@BAJOIDME@large?5text?5style@ DB 'large text style', 00H ; `string'
CONST	ENDS
;	COMDAT ??_C@_0BF@EJIKDIMB@i18n?5bidi?5over?9ride?5@
CONST	SEGMENT
??_C@_0BF@EJIKDIMB@i18n?5bidi?5over?9ride?5@ DB 'i18n bidi over-ride ', 00H ; `string'
CONST	ENDS
;	COMDAT ??_C@_0BA@OGIGFOOK@base?5font?5size?5@
CONST	SEGMENT
??_C@_0BA@OGIGFOOK@base?5font?5size?5@ DB 'base font size ', 00H ; `string'
CONST	ENDS
;	COMDAT ??_C@_0BD@JABNPIOC@document?5base?5uri?5@
CONST	SEGMENT
??_C@_0BD@JABNPIOC@document?5base?5uri?5@ DB 'document base uri ', 00H ; `string'
CONST	ENDS
;	COMDAT ??_C@_0BA@NADNLNKK@bold?5text?5style@
CONST	SEGMENT
??_C@_0BA@NADNLNKK@bold?5text?5style@ DB 'bold text style', 00H ; `string'
CONST	ENDS
;	COMDAT ??_C@_0BM@EIGPEHBO@client?9side?5image?5map?5area?5@
CONST	SEGMENT
??_C@_0BM@EIGPEHBO@client?9side?5image?5map?5area?5@ DB 'client-side imag'
	DB	'e map area ', 00H				; `string'
CONST	ENDS
;	COMDAT ??_C@_0N@LANOFEKD@java?5applet?5@
CONST	SEGMENT
??_C@_0N@LANOFEKD@java?5applet?5@ DB 'java applet ', 00H ; `string'
CONST	ENDS
;	COMDAT ??_C@_0BH@PNOGHPJ@information?5on?5author?5@
CONST	SEGMENT
??_C@_0BH@PNOGHPJ@information?5on?5author?5@ DB 'information on author ', 00H ; `string'
CONST	ENDS
;	COMDAT ??_C@_00CNPNBAHC@@
CONST	SEGMENT
??_C@_00CNPNBAHC@@ DB 00H				; `string'
CONST	ENDS
;	COMDAT ??_C@_0BB@OPBMKOHB@abbreviated?5form@
CONST	SEGMENT
??_C@_0BB@OPBMKOHB@abbreviated?5form@ DB 'abbreviated form', 00H ; `string'
CONST	ENDS
;	COMDAT ??_C@_07NLIDIJLK@anchor?5@
CONST	SEGMENT
??_C@_07NLIDIJLK@anchor?5@ DB 'anchor ', 00H		; `string'
CONST	ENDS
;	COMDAT ??_C@_02FCNHEIMC@td@
CONST	SEGMENT
??_C@_02FCNHEIMC@td@ DB 'td', 00H			; `string'
CONST	ENDS
;	COMDAT ??_C@_02POGCAHMO@th@
CONST	SEGMENT
??_C@_02POGCAHMO@th@ DB 'th', 00H			; `string'
CONST	ENDS
;	COMDAT ??_C@_07KBFHKJFO@colspan@
CONST	SEGMENT
??_C@_07KBFHKJFO@colspan@ DB 'colspan', 00H		; `string'
CONST	ENDS
;	COMDAT ??_C@_07HIFHGKLD@rowspan@
CONST	SEGMENT
??_C@_07HIFHGKLD@rowspan@ DB 'rowspan', 00H		; `string'
CONST	ENDS
;	COMDAT ??_C@_05DCCHDMEJ@scope@
CONST	SEGMENT
??_C@_05DCCHDMEJ@scope@ DB 'scope', 00H			; `string'
CONST	ENDS
;	COMDAT ??_C@_07LANIGEJC@headers@
CONST	SEGMENT
??_C@_07LANIGEJC@headers@ DB 'headers', 00H		; `string'
CONST	ENDS
;	COMDAT ??_C@_04HABAAEPG@axis@
CONST	SEGMENT
??_C@_04HABAAEPG@axis@ DB 'axis', 00H			; `string'
CONST	ENDS
;	COMDAT ??_C@_06KMFGCGJP@nowrap@
CONST	SEGMENT
??_C@_06KMFGCGJP@nowrap@ DB 'nowrap', 00H		; `string'
CONST	ENDS
;	COMDAT ??_C@_02EOEPPNBF@tr@
CONST	SEGMENT
??_C@_02EOEPPNBF@tr@ DB 'tr', 00H			; `string'
CONST	ENDS
;	COMDAT ??_C@_05OPBKHDLA@tbody@
CONST	SEGMENT
??_C@_05OPBKHDLA@tbody@ DB 'tbody', 00H			; `string'
CONST	ENDS
;	COMDAT ??_C@_05KDGBEENM@tfoot@
CONST	SEGMENT
??_C@_05KDGBEENM@tfoot@ DB 'tfoot', 00H			; `string'
CONST	ENDS
;	COMDAT ??_C@_05DDLACFIC@thead@
CONST	SEGMENT
??_C@_05DDLACFIC@thead@ DB 'thead', 00H			; `string'
CONST	ENDS
;	COMDAT ??_C@_08LBGGHKOD@colgroup@
CONST	SEGMENT
??_C@_08LBGGHKOD@colgroup@ DB 'colgroup', 00H		; `string'
CONST	ENDS
;	COMDAT ??_C@_07BANDPJOM@caption@
CONST	SEGMENT
??_C@_07BANDPJOM@caption@ DB 'caption', 00H		; `string'
CONST	ENDS
;	COMDAT ??_C@_0N@LOJCLIGN@datapagesize@
CONST	SEGMENT
??_C@_0N@LOJCLIGN@datapagesize@ DB 'datapagesize', 00H	; `string'
CONST	ENDS
;	COMDAT ??_C@_0M@NLHEMCJP@cellpadding@
CONST	SEGMENT
??_C@_0M@NLHEMCJP@cellpadding@ DB 'cellpadding', 00H	; `string'
CONST	ENDS
;	COMDAT ??_C@_0M@HGLPBPKF@cellspacing@
CONST	SEGMENT
??_C@_0M@HGLPBPKF@cellspacing@ DB 'cellspacing', 00H	; `string'
CONST	ENDS
;	COMDAT ??_C@_05CBLPGGM@rules@
CONST	SEGMENT
??_C@_05CBLPGGM@rules@ DB 'rules', 00H			; `string'
CONST	ENDS
;	COMDAT ??_C@_07PJIIAIPG@summary@
CONST	SEGMENT
??_C@_07PJIIAIPG@summary@ DB 'summary', 00H		; `string'
CONST	ENDS
;	COMDAT ??_C@_08CKJFGDBG@multiple@
CONST	SEGMENT
??_C@_08CKJFGDBG@multiple@ DB 'multiple', 00H		; `string'
CONST	ENDS
;	COMDAT ??_C@_08KGPIHINJ@optgroup@
CONST	SEGMENT
??_C@_08KGPIHINJ@optgroup@ DB 'optgroup', 00H		; `string'
CONST	ENDS
;	COMDAT ??_C@_08JGCCIMAA@language@
CONST	SEGMENT
??_C@_08JGCCIMAA@language@ DB 'language', 00H		; `string'
CONST	ENDS
;	COMDAT ??_C@_05GFHEIIDD@event@
CONST	SEGMENT
??_C@_05GFHEIIDD@event@ DB 'event', 00H			; `string'
CONST	ENDS
;	COMDAT ??_C@_05MBNCFBEN@defer@
CONST	SEGMENT
??_C@_05MBNCFBEN@defer@ DB 'defer', 00H			; `string'
CONST	ENDS
;	COMDAT ??_C@_09JLAJHNIL@valuetype@
CONST	SEGMENT
??_C@_09JLAJHNIL@valuetype@ DB 'valuetype', 00H		; `string'
CONST	ENDS
;	COMDAT ??_C@_08CJLOJPNI@selected@
CONST	SEGMENT
??_C@_08CJLOJPNI@selected@ DB 'selected', 00H		; `string'
CONST	ENDS
;	COMDAT ??_C@_06OGMGCFPO@option@
CONST	SEGMENT
??_C@_06OGMGCFPO@option@ DB 'option', 00H		; `string'
CONST	ENDS
;	COMDAT ??_C@_05FAGFPHJG@start@
CONST	SEGMENT
??_C@_05FAGFPHJG@start@ DB 'start', 00H			; `string'
CONST	ENDS
;	COMDAT ??_C@_07EEGFOKKL@standby@
CONST	SEGMENT
??_C@_07EEGFOKKL@standby@ DB 'standby', 00H		; `string'
CONST	ENDS
;	COMDAT ??_C@_08EANEMJD@codetype@
CONST	SEGMENT
??_C@_08EANEMJD@codetype@ DB 'codetype', 00H		; `string'
CONST	ENDS
;	COMDAT ??_C@_04PJOLNDGD@data@
CONST	SEGMENT
??_C@_04PJOLNDGD@data@ DB 'data', 00H			; `string'
CONST	ENDS
;	COMDAT ??_C@_07MKGILGMB@classid@
CONST	SEGMENT
??_C@_07MKGILGMB@classid@ DB 'classid', 00H		; `string'
CONST	ENDS
;	COMDAT ??_C@_07JDFLJJH@declare@
CONST	SEGMENT
??_C@_07JDFLJJH@declare@ DB 'declare', 00H		; `string'
CONST	ENDS
;	COMDAT ??_C@_07ICAJMOAO@content@
CONST	SEGMENT
??_C@_07ICAJMOAO@content@ DB 'content', 00H		; `string'
CONST	ENDS
;	COMDAT ??_C@_06MMEMGLOP@scheme@
CONST	SEGMENT
??_C@_06MMEMGLOP@scheme@ DB 'scheme', 00H		; `string'
CONST	ENDS
;	COMDAT ??_C@_0L@NALBGOHO@http?9equiv@
CONST	SEGMENT
??_C@_0L@NALBGOHO@http?9equiv@ DB 'http-equiv', 00H	; `string'
CONST	ENDS
;	COMDAT ??_C@_02PFEMMEEH@li@
CONST	SEGMENT
??_C@_02PFEMMEEH@li@ DB 'li', 00H			; `string'
CONST	ENDS
;	COMDAT ??_C@_06DDLLCOJG@action@
CONST	SEGMENT
??_C@_06DDLLCOJG@action@ DB 'action', 00H		; `string'
CONST	ENDS
;	COMDAT ??_C@_04GOEDGNCF@area@
CONST	SEGMENT
??_C@_04GOEDGNCF@area@ DB 'area', 00H			; `string'
CONST	ENDS
;	COMDAT ??_C@_05CECBHAPI@media@
CONST	SEGMENT
??_C@_05CECBHAPI@media@ DB 'media', 00H			; `string'
CONST	ENDS
;	COMDAT ??_C@_03JOHEBPFF@for@
CONST	SEGMENT
??_C@_03JOHEBPFF@for@ DB 'for', 00H			; `string'
CONST	ENDS
;	COMDAT ??_C@_06FJNEHIA@prompt@
CONST	SEGMENT
??_C@_06FJNEHIA@prompt@ DB 'prompt', 00H		; `string'
CONST	ENDS
;	COMDAT ??_C@_08CLANFAGI@onchange@
CONST	SEGMENT
??_C@_08CLANFAGI@onchange@ DB 'onchange', 00H		; `string'
CONST	ENDS
;	COMDAT ??_C@_08ILAMBHAE@onselect@
CONST	SEGMENT
??_C@_08ILAMBHAE@onselect@ DB 'onselect', 00H		; `string'
CONST	ENDS
;	COMDAT ??_C@_09GGMBJIEG@maxlength@
CONST	SEGMENT
??_C@_09GGMBJIEG@maxlength@ DB 'maxlength', 00H		; `string'
CONST	ENDS
;	COMDAT ??_C@_08JOKHDEJH@readonly@
CONST	SEGMENT
??_C@_08JOKHDEJH@readonly@ DB 'readonly', 00H		; `string'
CONST	ENDS
;	COMDAT ??_C@_07FJOBMBFC@checked@
CONST	SEGMENT
??_C@_07FJOBMBFC@checked@ DB 'checked', 00H		; `string'
CONST	ENDS
;	COMDAT ??_C@_05CCBEFJDC@units@
CONST	SEGMENT
??_C@_05CCBEFJDC@units@ DB 'units', 00H			; `string'
CONST	ENDS
;	COMDAT ??_C@_09DBOPNCLL@pluginurl@
CONST	SEGMENT
??_C@_09DBOPNCLL@pluginurl@ DB 'pluginurl', 00H		; `string'
CONST	ENDS
;	COMDAT ??_C@_0M@GDAEHHFP@pluginspace@
CONST	SEGMENT
??_C@_0M@GDAEHHFP@pluginspace@ DB 'pluginspace', 00H	; `string'
CONST	ENDS
;	COMDAT ??_C@_07JKIHKJOO@palette@
CONST	SEGMENT
??_C@_07JKIHKJOO@palette@ DB 'palette', 00H		; `string'
CONST	ENDS
;	COMDAT ??_C@_06JIKFICKK@hidden@
CONST	SEGMENT
??_C@_06JIKFICKK@hidden@ DB 'hidden', 00H		; `string'
CONST	ENDS
;	COMDAT ??_C@_06ODFLABIG@border@
CONST	SEGMENT
??_C@_06ODFLABIG@border@ DB 'border', 00H		; `string'
CONST	ENDS
;	COMDAT ??_C@_05HANCGNOO@ismap@
CONST	SEGMENT
??_C@_05HANCGNOO@ismap@ DB 'ismap', 00H			; `string'
CONST	ENDS
;	COMDAT ??_C@_06KPMBKPGA@usemap@
CONST	SEGMENT
??_C@_06KPMBKPGA@usemap@ DB 'usemap', 00H		; `string'
CONST	ENDS
;	COMDAT ??_C@_07CPCPJPKL@version@
CONST	SEGMENT
??_C@_07CPCPJPKL@version@ DB 'version', 00H		; `string'
CONST	ENDS
;	COMDAT ??_C@_07NCHIIBII@noshade@
CONST	SEGMENT
??_C@_07NCHIIBII@noshade@ DB 'noshade', 00H		; `string'
CONST	ENDS
;	COMDAT ??_C@_04HLJJCGEF@meta@
CONST	SEGMENT
??_C@_04HLJJCGEF@meta@ DB 'meta', 00H			; `string'
CONST	ENDS
;	COMDAT ??_C@_04BHIIPFEC@base@
CONST	SEGMENT
??_C@_04BHIIPFEC@base@ DB 'base', 00H			; `string'
CONST	ENDS
;	COMDAT ??_C@_07LNMDFKEJ@profile@
CONST	SEGMENT
??_C@_07LNMDFKEJ@profile@ DB 'profile', 00H		; `string'
CONST	ENDS
;	COMDAT ??_C@_05MIJNFGED@frame@
CONST	SEGMENT
??_C@_05MIJNFGED@frame@ DB 'frame', 00H			; `string'
CONST	ENDS
;	COMDAT ??_C@_08GMEGJMDB@frameset@
CONST	SEGMENT
??_C@_08GMEGJMDB@frameset@ DB 'frameset', 00H		; `string'
CONST	ENDS
;	COMDAT ??_C@_09PKEBEIDM@scrolling@
CONST	SEGMENT
??_C@_09PKEBEIDM@scrolling@ DB 'scrolling', 00H		; `string'
CONST	ENDS
;	COMDAT ??_C@_08BOOCAMGJ@noresize@
CONST	SEGMENT
??_C@_08BOOCAMGJ@noresize@ DB 'noresize', 00H		; `string'
CONST	ENDS
;	COMDAT ??_C@_0N@HFFDDCPA@marginheight@
CONST	SEGMENT
??_C@_0N@HFFDDCPA@marginheight@ DB 'marginheight', 00H	; `string'
CONST	ENDS
;	COMDAT ??_C@_0M@LFIDEBFM@marginwidth@
CONST	SEGMENT
??_C@_0M@LFIDEBFM@marginwidth@ DB 'marginwidth', 00H	; `string'
CONST	ENDS
;	COMDAT ??_C@_0M@GPMBJNCP@frameborder@
CONST	SEGMENT
??_C@_0M@GPMBJNCP@frameborder@ DB 'frameborder', 00H	; `string'
CONST	ENDS
;	COMDAT ??_C@_08BMDPBLHN@longdesc@
CONST	SEGMENT
??_C@_08BMDPBLHN@longdesc@ DB 'longdesc', 00H		; `string'
CONST	ENDS
;	COMDAT ??_C@_0P@IIOBAHEN@accept?9charset@
CONST	SEGMENT
??_C@_0P@IIOBAHEN@accept?9charset@ DB 'accept-charset', 00H ; `string'
CONST	ENDS
;	COMDAT ??_C@_07CDGCELIF@onreset@
CONST	SEGMENT
??_C@_07CDGCELIF@onreset@ DB 'onreset', 00H		; `string'
CONST	ENDS
;	COMDAT ??_C@_08PPMJAGMH@onsubmit@
CONST	SEGMENT
??_C@_08PPMJAGMH@onsubmit@ DB 'onsubmit', 00H		; `string'
CONST	ENDS
;	COMDAT ??_C@_06MPKMECK@accept@
CONST	SEGMENT
??_C@_06MPKMECK@accept@ DB 'accept', 00H		; `string'
CONST	ENDS
;	COMDAT ??_C@_07BCBJKKO@enctype@
CONST	SEGMENT
??_C@_07BCBJKKO@enctype@ DB 'enctype', 00H		; `string'
CONST	ENDS
;	COMDAT ??_C@_06GABBCIBA@method@
CONST	SEGMENT
??_C@_06GABBCIBA@method@ DB 'method', 00H		; `string'
CONST	ENDS
;	COMDAT ??_C@_06BCIOHMBM@legend@
CONST	SEGMENT
??_C@_06BCIOHMBM@legend@ DB 'legend', 00H		; `string'
CONST	ENDS
;	COMDAT ??_C@_02EOPBOLLC@dd@
CONST	SEGMENT
??_C@_02EOPBOLLC@dd@ DB 'dd', 00H			; `string'
CONST	ENDS
;	COMDAT ??_C@_02EDDPJOD@dt@
CONST	SEGMENT
??_C@_02EDDPJOD@dt@ DB 'dt', 00H			; `string'
CONST	ENDS
;	COMDAT ??_C@_07HGKHBOGE@compact@
CONST	SEGMENT
??_C@_07HGKHBOGE@compact@ DB 'compact', 00H		; `string'
CONST	ENDS
;	COMDAT ??_C@_08FGNPMIBK@datetime@
CONST	SEGMENT
??_C@_08FGNPMIBK@datetime@ DB 'datetime', 00H		; `string'
CONST	ENDS
;	COMDAT ??_C@_03HNOLNALI@col@
CONST	SEGMENT
??_C@_03HNOLNALI@col@ DB 'col', 00H			; `string'
CONST	ENDS
;	COMDAT ??_C@_06ICIJKACG@valign@
CONST	SEGMENT
??_C@_06ICIJKACG@valign@ DB 'valign', 00H		; `string'
CONST	ENDS
;	COMDAT ??_C@_07CAOCHGPK@charoff@
CONST	SEGMENT
??_C@_07CAOCHGPK@charoff@ DB 'charoff', 00H		; `string'
CONST	ENDS
;	COMDAT ??_C@_04ENMBGAPA@char@
CONST	SEGMENT
??_C@_04ENMBGAPA@char@ DB 'char', 00H			; `string'
CONST	ENDS
;	COMDAT ??_C@_08BEHKFNNO@disabled@
CONST	SEGMENT
??_C@_08BEHKFNNO@disabled@ DB 'disabled', 00H		; `string'
CONST	ENDS
;	COMDAT ??_C@_05MFEJDJP@value@
CONST	SEGMENT
??_C@_05MFEJDJP@value@ DB 'value', 00H			; `string'
CONST	ENDS
;	COMDAT ??_C@_05FDDJPECA@alink@
CONST	SEGMENT
??_C@_05FDDJPECA@alink@ DB 'alink', 00H			; `string'
CONST	ENDS
;	COMDAT ??_C@_05ENOKMGAD@vlink@
CONST	SEGMENT
??_C@_05ENOKMGAD@vlink@ DB 'vlink', 00H			; `string'
CONST	ENDS
;	COMDAT ??_C@_04OHHBHOGB@link@
CONST	SEGMENT
??_C@_04OHHBHOGB@link@ DB 'link', 00H			; `string'
CONST	ENDS
;	COMDAT ??_C@_04CIMGMMMG@text@
CONST	SEGMENT
??_C@_04CIMGMMMG@text@ DB 'text', 00H			; `string'
CONST	ENDS
;	COMDAT ??_C@_07PMHCLHIB@bgcolor@
CONST	SEGMENT
??_C@_07PMHCLHIB@bgcolor@ DB 'bgcolor', 00H		; `string'
CONST	ENDS
;	COMDAT ??_C@_0L@EGCKCJDC@background@
CONST	SEGMENT
??_C@_0L@EGCKCJDC@background@ DB 'background', 00H	; `string'
CONST	ENDS
;	COMDAT ??_C@_08KEOAPEKG@onunload@
CONST	SEGMENT
??_C@_08KEOAPEKG@onunload@ DB 'onunload', 00H		; `string'
CONST	ENDS
;	COMDAT ??_C@_06FKJAAAAK@onload@
CONST	SEGMENT
??_C@_06FKJAAAAK@onload@ DB 'onload', 00H		; `string'
CONST	ENDS
;	COMDAT ??_C@_03ONKLGNNH@del@
CONST	SEGMENT
??_C@_03ONKLGNNH@del@ DB 'del', 00H			; `string'
CONST	ENDS
;	COMDAT ??_C@_03NOMOFEHF@ins@
CONST	SEGMENT
??_C@_03NOMOFEHF@ins@ DB 'ins', 00H			; `string'
CONST	ENDS
;	COMDAT ??_C@_04POCOPAPC@face@
CONST	SEGMENT
??_C@_04POCOPAPC@face@ DB 'face', 00H			; `string'
CONST	ENDS
;	COMDAT ??_C@_05PEENBMOG@color@
CONST	SEGMENT
??_C@_05PEENBMOG@color@ DB 'color', 00H			; `string'
CONST	ENDS
;	COMDAT ??_C@_04IAGNFIBA@size@
CONST	SEGMENT
??_C@_04IAGNFIBA@size@ DB 'size', 00H			; `string'
CONST	ENDS
;	COMDAT ??_C@_06FFHHDLMH@nohref@
CONST	SEGMENT
??_C@_06FFHHDLMH@nohref@ DB 'nohref', 00H		; `string'
CONST	ENDS
;	COMDAT ??_C@_06EIMOCAMN@vspace@
CONST	SEGMENT
??_C@_06EIMOCAMN@vspace@ DB 'vspace', 00H		; `string'
CONST	ENDS
;	COMDAT ??_C@_06HPCPMHFO@hspace@
CONST	SEGMENT
??_C@_06HPCPMHFO@hspace@ DB 'hspace', 00H		; `string'
CONST	ENDS
;	COMDAT ??_C@_05CBJPDLOK@align@
CONST	SEGMENT
??_C@_05CBJPDLOK@align@ DB 'align', 00H			; `string'
CONST	ENDS
;	COMDAT ??_C@_05IGKADHGO@width@
CONST	SEGMENT
??_C@_05IGKADHGO@width@ DB 'width', 00H			; `string'
CONST	ENDS
;	COMDAT ??_C@_06LNLHEAAG@height@
CONST	SEGMENT
??_C@_06LNLHEAAG@height@ DB 'height', 00H		; `string'
CONST	ENDS
;	COMDAT ??_C@_07NEJBDDEA@archive@
CONST	SEGMENT
??_C@_07NEJBDDEA@archive@ DB 'archive', 00H		; `string'
CONST	ENDS
;	COMDAT ??_C@_08HMEGOPJI@codebase@
CONST	SEGMENT
??_C@_08HMEGOPJI@codebase@ DB 'codebase', 00H		; `string'
CONST	ENDS
;	COMDAT ??_C@_05LJDNNBIK@param@
CONST	SEGMENT
??_C@_05LJDNNBIK@param@ DB 'param', 00H			; `string'
CONST	ENDS
;	COMDAT ??_C@_05MEHLAELG@clear@
CONST	SEGMENT
??_C@_05MEHLAELG@clear@ DB 'clear', 00H			; `string'
CONST	ENDS
;	COMDAT ??_C@_03LOJEKLML@src@
CONST	SEGMENT
??_C@_03LOJEKLML@src@ DB 'src', 00H			; `string'
CONST	ENDS
;	COMDAT ??_C@_03FHLPDODD@alt@
CONST	SEGMENT
??_C@_03FHLPDODD@alt@ DB 'alt', 00H			; `string'
CONST	ENDS
;	COMDAT ??_C@_04MBNFPKFL@cols@
CONST	SEGMENT
??_C@_04MBNFPKFL@cols@ DB 'cols', 00H			; `string'
CONST	ENDS
;	COMDAT ??_C@_04IMCGAIPI@rows@
CONST	SEGMENT
??_C@_04IMCGAIPI@rows@ DB 'rows', 00H			; `string'
CONST	ENDS
;	COMDAT ??_C@_06JJLAMBGK@target@
CONST	SEGMENT
??_C@_06JJLAMBGK@target@ DB 'target', 00H		; `string'
CONST	ENDS
;	COMDAT ??_C@_06PAKCKPPO@onblur@
CONST	SEGMENT
??_C@_06PAKCKPPO@onblur@ DB 'onblur', 00H		; `string'
CONST	ENDS
;	COMDAT ??_C@_07PCOLHBIB@onfocus@
CONST	SEGMENT
??_C@_07PCOLHBIB@onfocus@ DB 'onfocus', 00H		; `string'
CONST	ENDS
;	COMDAT ??_C@_08KAJGIJLO@tabindex@
CONST	SEGMENT
??_C@_08KAJGIJLO@tabindex@ DB 'tabindex', 00H		; `string'
CONST	ENDS
;	COMDAT ??_C@_06LAPHAKDE@coords@
CONST	SEGMENT
??_C@_06LAPHAKDE@coords@ DB 'coords', 00H		; `string'
CONST	ENDS
;	COMDAT ??_C@_05KFCIHKGL@shape@
CONST	SEGMENT
??_C@_05KFCIHKGL@shape@ DB 'shape', 00H			; `string'
CONST	ENDS
;	COMDAT ??_C@_09KPFGNPLK@accesskey@
CONST	SEGMENT
??_C@_09KPFGNPLK@accesskey@ DB 'accesskey', 00H		; `string'
CONST	ENDS
;	COMDAT ??_C@_03CIPEJPEP@rev@
CONST	SEGMENT
??_C@_03CIPEJPEP@rev@ DB 'rev', 00H			; `string'
CONST	ENDS
;	COMDAT ??_C@_03JINJGFJE@rel@
CONST	SEGMENT
??_C@_03JINJGFJE@rel@ DB 'rel', 00H			; `string'
CONST	ENDS
;	COMDAT ??_C@_08KALGMAGF@hreflang@
CONST	SEGMENT
??_C@_08KALGMAGF@hreflang@ DB 'hreflang', 00H		; `string'
CONST	ENDS
;	COMDAT ??_C@_04CMBCJJJD@href@
CONST	SEGMENT
??_C@_04CMBCJJJD@href@ DB 'href', 00H			; `string'
CONST	ENDS
;	COMDAT ??_C@_04MEMAJGDJ@name@
CONST	SEGMENT
??_C@_04MEMAJGDJ@name@ DB 'name', 00H			; `string'
CONST	ENDS
;	COMDAT ??_C@_04GPMDFGEJ@type@
CONST	SEGMENT
??_C@_04GPMDFGEJ@type@ DB 'type', 00H			; `string'
CONST	ENDS
;	COMDAT ??_C@_07EAJPFAFH@charset@
CONST	SEGMENT
??_C@_07EAJPFAFH@charset@ DB 'charset', 00H		; `string'
CONST	ENDS
;	COMDAT ??_C@_07BAEMJOMG@onkeyup@
CONST	SEGMENT
??_C@_07BAEMJOMG@onkeyup@ DB 'onkeyup', 00H		; `string'
CONST	ENDS
;	COMDAT ??_C@_09HFCNBPMA@onkeydown@
CONST	SEGMENT
??_C@_09HFCNBPMA@onkeydown@ DB 'onkeydown', 00H		; `string'
CONST	ENDS
;	COMDAT ??_C@_0L@HBNKHJBD@onkeypress@
CONST	SEGMENT
??_C@_0L@HBNKHJBD@onkeypress@ DB 'onkeypress', 00H	; `string'
CONST	ENDS
;	COMDAT ??_C@_0L@CEIFEFAI@onmouseout@
CONST	SEGMENT
??_C@_0L@CEIFEFAI@onmouseout@ DB 'onmouseout', 00H	; `string'
CONST	ENDS
;	COMDAT ??_C@_0M@BMKHHAKK@onmouseover@
CONST	SEGMENT
??_C@_0M@BMKHHAKK@onmouseover@ DB 'onmouseover', 00H	; `string'
CONST	ENDS
;	COMDAT ??_C@_09KEIMJDF@onmouseup@
CONST	SEGMENT
??_C@_09KEIMJDF@onmouseup@ DB 'onmouseup', 00H		; `string'
CONST	ENDS
;	COMDAT ??_C@_0M@LPLDHDON@onmousedown@
CONST	SEGMENT
??_C@_0M@LPLDHDON@onmousedown@ DB 'onmousedown', 00H	; `string'
CONST	ENDS
;	COMDAT ??_C@_0L@BPDJNBPF@ondblclick@
CONST	SEGMENT
??_C@_0L@BPDJNBPF@ondblclick@ DB 'ondblclick', 00H	; `string'
CONST	ENDS
;	COMDAT ??_C@_07BAILDNBN@onclick@
CONST	SEGMENT
??_C@_07BAILDNBN@onclick@ DB 'onclick', 00H		; `string'
CONST	ENDS
;	COMDAT ??_C@_04IOHABJIC@lang@
CONST	SEGMENT
??_C@_04IOHABJIC@lang@ DB 'lang', 00H			; `string'
CONST	ENDS
;	COMDAT ??_C@_05PHLGJONK@title@
CONST	SEGMENT
??_C@_05PHLGJONK@title@ DB 'title', 00H			; `string'
CONST	ENDS
;	COMDAT ??_C@_05IAKJCFIM@style@
CONST	SEGMENT
??_C@_05IAKJCFIM@style@ DB 'style', 00H			; `string'
CONST	ENDS
;	COMDAT ??_C@_05ENKANFLO@class@
CONST	SEGMENT
??_C@_05ENKANFLO@class@ DB 'class', 00H			; `string'
CONST	ENDS
;	COMDAT ??_C@_02EGCJHIOB@id@
CONST	SEGMENT
??_C@_02EGCJHIOB@id@ DB 'id', 00H			; `string'
CONST	ENDS
;	COMDAT ??_C@_06HFKPFKMP@button@
CONST	SEGMENT
??_C@_06HFKPFKMP@button@ DB 'button', 00H		; `string'
CONST	ENDS
;	COMDAT ??_C@_05IDCCNNGI@label@
CONST	SEGMENT
??_C@_05IDCCNNGI@label@ DB 'label', 00H			; `string'
CONST	ENDS
;	COMDAT ??_C@_08DEBIGDAL@textarea@
CONST	SEGMENT
??_C@_08DEBIGDAL@textarea@ DB 'textarea', 00H		; `string'
CONST	ENDS
;	COMDAT ??_C@_06LGNCCACI@select@
CONST	SEGMENT
??_C@_06LGNCCACI@select@ DB 'select', 00H		; `string'
CONST	ENDS
;	COMDAT ??_C@_05DFJCHPDH@input@
CONST	SEGMENT
??_C@_05DFJCHPDH@input@ DB 'input', 00H			; `string'
CONST	ENDS
;	COMDAT ??_C@_06PKBNCBKI@iframe@
CONST	SEGMENT
??_C@_06PKBNCBKI@iframe@ DB 'iframe', 00H		; `string'
CONST	ENDS
;	COMDAT ??_C@_03OCCPALPP@bdo@
CONST	SEGMENT
??_C@_03OCCPALPP@bdo@ DB 'bdo', 00H			; `string'
CONST	ENDS
;	COMDAT ??_C@_04FOPLNFFP@span@
CONST	SEGMENT
??_C@_04FOPLNFFP@span@ DB 'span', 00H			; `string'
CONST	ENDS
;	COMDAT ??_C@_03NKDEPMNM@sup@
CONST	SEGMENT
??_C@_03NKDEPMNM@sup@ DB 'sup', 00H			; `string'
CONST	ENDS
;	COMDAT ??_C@_03KCMAIMAP@sub@
CONST	SEGMENT
??_C@_03KCMAIMAP@sub@ DB 'sub', 00H			; `string'
CONST	ENDS
;	COMDAT ??_C@_01IIACKFLH@q@
CONST	SEGMENT
??_C@_01IIACKFLH@q@ DB 'q', 00H				; `string'
CONST	ENDS
;	COMDAT ??_C@_03HBNNNHNM@map@
CONST	SEGMENT
??_C@_03HBNNNHNM@map@ DB 'map', 00H			; `string'
CONST	ENDS
;	COMDAT ??_C@_06OLONEIEH@script@
CONST	SEGMENT
??_C@_06OLONEIEH@script@ DB 'script', 00H		; `string'
CONST	ENDS
;	COMDAT ??_C@_02FGOECCNH@br@
CONST	SEGMENT
??_C@_02FGOECCNH@br@ DB 'br', 00H			; `string'
CONST	ENDS
;	COMDAT ??_C@_08IOLGIJGJ@basefont@
CONST	SEGMENT
??_C@_08IOLGIJGJ@basefont@ DB 'basefont', 00H		; `string'
CONST	ENDS
;	COMDAT ??_C@_04EFPADHIC@font@
CONST	SEGMENT
??_C@_04EFPADHIC@font@ DB 'font', 00H			; `string'
CONST	ENDS
;	COMDAT ??_C@_06IEOJBDIK@object@
CONST	SEGMENT
??_C@_06IEOJBDIK@object@ DB 'object', 00H		; `string'
CONST	ENDS
;	COMDAT ??_C@_05KJAEOLKJ@embed@
CONST	SEGMENT
??_C@_05KJAEOLKJ@embed@ DB 'embed', 00H			; `string'
CONST	ENDS
;	COMDAT ??_C@_06MJBNHHFM@applet@
CONST	SEGMENT
??_C@_06MJBNHHFM@applet@ DB 'applet', 00H		; `string'
CONST	ENDS
;	COMDAT ??_C@_03PCCGDNHJ@img@
CONST	SEGMENT
??_C@_03PCCGDNHJ@img@ DB 'img', 00H			; `string'
CONST	ENDS
;	COMDAT ??_C@_01MCMALHOG@a@
CONST	SEGMENT
??_C@_01MCMALHOG@a@ DB 'a', 00H				; `string'
CONST	ENDS
;	COMDAT ??_C@_07DBMAFMJI@acronym@
CONST	SEGMENT
??_C@_07DBMAFMJI@acronym@ DB 'acronym', 00H		; `string'
CONST	ENDS
;	COMDAT ??_C@_04FKPKGNKN@abbr@
CONST	SEGMENT
??_C@_04FKPKGNKN@abbr@ DB 'abbr', 00H			; `string'
CONST	ENDS
;	COMDAT ??_C@_04OKBDOCJI@cite@
CONST	SEGMENT
??_C@_04OKBDOCJI@cite@ DB 'cite', 00H			; `string'
CONST	ENDS
;	COMDAT ??_C@_03MEPDGFMA@var@
CONST	SEGMENT
??_C@_03MEPDGFMA@var@ DB 'var', 00H			; `string'
CONST	ENDS
;	COMDAT ??_C@_03HIFOOBAM@kbd@
CONST	SEGMENT
??_C@_03HIFOOBAM@kbd@ DB 'kbd', 00H			; `string'
CONST	ENDS
;	COMDAT ??_C@_04GLAFCDBO@samp@
CONST	SEGMENT
??_C@_04GLAFCDBO@samp@ DB 'samp', 00H			; `string'
CONST	ENDS
;	COMDAT ??_C@_04NDFOBODE@code@
CONST	SEGMENT
??_C@_04NDFOBODE@code@ DB 'code', 00H			; `string'
CONST	ENDS
;	COMDAT ??_C@_03NNNLLBAM@dfn@
CONST	SEGMENT
??_C@_03NNNLLBAM@dfn@ DB 'dfn', 00H			; `string'
CONST	ENDS
;	COMDAT ??_C@_06KHACOKFA@strong@
CONST	SEGMENT
??_C@_06KHACOKFA@strong@ DB 'strong', 00H		; `string'
CONST	ENDS
;	COMDAT ??_C@_02JOPBDKMM@em@
CONST	SEGMENT
??_C@_02JOPBDKMM@em@ DB 'em', 00H			; `string'
CONST	ENDS
;	COMDAT ??_C@_05KJDGBEEG@small@
CONST	SEGMENT
??_C@_05KJDGBEEG@small@ DB 'small', 00H			; `string'
CONST	ENDS
;	COMDAT ??_C@_03CCCOBCKE@big@
CONST	SEGMENT
??_C@_03CCCOBCKE@big@ DB 'big', 00H			; `string'
CONST	ENDS
;	COMDAT ??_C@_06LGJEBFOF@strike@
CONST	SEGMENT
??_C@_06LGJEBFOF@strike@ DB 'strike', 00H		; `string'
CONST	ENDS
;	COMDAT ??_C@_01LKDEMHDF@s@
CONST	SEGMENT
??_C@_01LKDEMHDF@s@ DB 's', 00H				; `string'
CONST	ENDS
;	COMDAT ??_C@_01OMGOGALD@u@
CONST	SEGMENT
??_C@_01OMGOGALD@u@ DB 'u', 00H				; `string'
CONST	ENDS
;	COMDAT ??_C@_01OJONOECF@b@
CONST	SEGMENT
??_C@_01OJONOECF@b@ DB 'b', 00H				; `string'
CONST	ENDS
;	COMDAT ??_C@_01KBJDNOO@i@
CONST	SEGMENT
??_C@_01KBJDNOO@i@ DB 'i', 00H				; `string'
CONST	ENDS
;	COMDAT ??_C@_02BIBFFKJD@tt@
CONST	SEGMENT
??_C@_02BIBFFKJD@tt@ DB 'tt', 00H			; `string'
CONST	ENDS
;	COMDAT ??_C@_07LHEPONKL@address@
CONST	SEGMENT
??_C@_07LHEPONKL@address@ DB 'address', 00H		; `string'
CONST	ENDS
;	COMDAT ??_C@_08EPOEGPEK@fieldset@
CONST	SEGMENT
??_C@_08EPOEGPEK@fieldset@ DB 'fieldset', 00H		; `string'
CONST	ENDS
;	COMDAT ??_C@_05LCLENNFI@table@
CONST	SEGMENT
??_C@_05LCLENNFI@table@ DB 'table', 00H			; `string'
CONST	ENDS
;	COMDAT ??_C@_02FLHDKHAB@hr@
CONST	SEGMENT
??_C@_02FLHDKHAB@hr@ DB 'hr', 00H			; `string'
CONST	ENDS
;	COMDAT ??_C@_07JMLOFMGP@isindex@
CONST	SEGMENT
??_C@_07JMLOFMGP@isindex@ DB 'isindex', 00H		; `string'
CONST	ENDS
;	COMDAT ??_C@_04MLMMMEIO@form@
CONST	SEGMENT
??_C@_04MLMMMEIO@form@ DB 'form', 00H			; `string'
CONST	ENDS
;	COMDAT ??_C@_0L@NKGPHNMG@blockquote@
CONST	SEGMENT
??_C@_0L@NKGPHNMG@blockquote@ DB 'blockquote', 00H	; `string'
CONST	ENDS
;	COMDAT ??_C@_08NAAIELI@noframes@
CONST	SEGMENT
??_C@_08NAAIELI@noframes@ DB 'noframes', 00H		; `string'
CONST	ENDS
;	COMDAT ??_C@_08NOCGLLG@noscript@
CONST	SEGMENT
??_C@_08NOCGLLG@noscript@ DB 'noscript', 00H		; `string'
CONST	ENDS
;	COMDAT ??_C@_06BBLOAEEI@center@
CONST	SEGMENT
??_C@_06BBLOAEEI@center@ DB 'center', 00H		; `string'
CONST	ENDS
;	COMDAT ??_C@_03FEJMGOGI@div@
CONST	SEGMENT
??_C@_03FEJMGOGI@div@ DB 'div', 00H			; `string'
CONST	ENDS
;	COMDAT ??_C@_02IGCIGBLK@dl@
CONST	SEGMENT
??_C@_02IGCIGBLK@dl@ DB 'dl', 00H			; `string'
CONST	ENDS
;	COMDAT ??_C@_01JBBJJEPG@p@
CONST	SEGMENT
??_C@_01JBBJJEPG@p@ DB 'p', 00H				; `string'
CONST	ENDS
;	COMDAT ??_C@_03PKHLKDKD@pre@
CONST	SEGMENT
??_C@_03PKHLKDKD@pre@ DB 'pre', 00H			; `string'
CONST	ENDS
;	COMDAT ??_C@_04EEIGNHLG@menu@
CONST	SEGMENT
??_C@_04EEIGNHLG@menu@ DB 'menu', 00H			; `string'
CONST	ENDS
;	COMDAT ??_C@_03DAPAKLGM@dir@
CONST	SEGMENT
??_C@_03DAPAKLGM@dir@ DB 'dir', 00H			; `string'
CONST	ENDS
;	COMDAT ??_C@_02IKHNIOFL@ol@
CONST	SEGMENT
??_C@_02IKHNIOFL@ol@ DB 'ol', 00H			; `string'
CONST	ENDS
;	COMDAT ??_C@_02JLMMKIPN@ul@
CONST	SEGMENT
??_C@_02JLMMKIPN@ul@ DB 'ul', 00H			; `string'
CONST	ENDS
;	COMDAT ??_C@_02MPGGCNAA@h6@
CONST	SEGMENT
??_C@_02MPGGCNAA@h6@ DB 'h6', 00H			; `string'
CONST	ENDS
;	COMDAT ??_C@_02OEELHOMD@h5@
CONST	SEGMENT
??_C@_02OEELHOMD@h5@ DB 'h5', 00H			; `string'
CONST	ENDS
;	COMDAT ??_C@_02PNFAEPIC@h4@
CONST	SEGMENT
??_C@_02PNFAEPIC@h4@ DB 'h4', 00H			; `string'
CONST	ENDS
;	COMDAT ??_C@_02LCBBNJEF@h3@
CONST	SEGMENT
??_C@_02LCBBNJEF@h3@ DB 'h3', 00H			; `string'
CONST	ENDS
;	COMDAT ??_C@_02KLAKOIAE@h2@
CONST	SEGMENT
??_C@_02KLAKOIAE@h2@ DB 'h2', 00H			; `string'
CONST	ENDS
;	COMDAT ??_C@_02IACHLLMH@h1@
CONST	SEGMENT
??_C@_02IACHLLMH@h1@ DB 'h1', 00H			; `string'
CONST	ENDS
CONST	SEGMENT
_html_flow DD	FLAT:??_C@_02IACHLLMH@h1@
	DD	FLAT:??_C@_02KLAKOIAE@h2@
	DD	FLAT:??_C@_02LCBBNJEF@h3@
	DD	FLAT:??_C@_02PNFAEPIC@h4@
	DD	FLAT:??_C@_02OEELHOMD@h5@
	DD	FLAT:??_C@_02MPGGCNAA@h6@
	DD	FLAT:??_C@_02JLMMKIPN@ul@
	DD	FLAT:??_C@_02IKHNIOFL@ol@
	DD	FLAT:??_C@_03DAPAKLGM@dir@
	DD	FLAT:??_C@_04EEIGNHLG@menu@
	DD	FLAT:??_C@_03PKHLKDKD@pre@
	DD	FLAT:??_C@_01JBBJJEPG@p@
	DD	FLAT:??_C@_02IGCIGBLK@dl@
	DD	FLAT:??_C@_03FEJMGOGI@div@
	DD	FLAT:??_C@_06BBLOAEEI@center@
	DD	FLAT:??_C@_08NOCGLLG@noscript@
	DD	FLAT:??_C@_08NAAIELI@noframes@
	DD	FLAT:??_C@_0L@NKGPHNMG@blockquote@
	DD	FLAT:??_C@_04MLMMMEIO@form@
	DD	FLAT:??_C@_07JMLOFMGP@isindex@
	DD	FLAT:??_C@_02FLHDKHAB@hr@
	DD	FLAT:??_C@_05LCLENNFI@table@
	DD	FLAT:??_C@_08EPOEGPEK@fieldset@
	DD	FLAT:??_C@_07LHEPONKL@address@
	DD	FLAT:??_C@_02BIBFFKJD@tt@
	DD	FLAT:??_C@_01KBJDNOO@i@
	DD	FLAT:??_C@_01OJONOECF@b@
	DD	FLAT:??_C@_01OMGOGALD@u@
	DD	FLAT:??_C@_01LKDEMHDF@s@
	DD	FLAT:??_C@_06LGJEBFOF@strike@
	DD	FLAT:??_C@_03CCCOBCKE@big@
	DD	FLAT:??_C@_05KJDGBEEG@small@
	DD	FLAT:??_C@_02JOPBDKMM@em@
	DD	FLAT:??_C@_06KHACOKFA@strong@
	DD	FLAT:??_C@_03NNNLLBAM@dfn@
	DD	FLAT:??_C@_04NDFOBODE@code@
	DD	FLAT:??_C@_04GLAFCDBO@samp@
	DD	FLAT:??_C@_03HIFOOBAM@kbd@
	DD	FLAT:??_C@_03MEPDGFMA@var@
	DD	FLAT:??_C@_04OKBDOCJI@cite@
	DD	FLAT:??_C@_04FKPKGNKN@abbr@
	DD	FLAT:??_C@_07DBMAFMJI@acronym@
	DD	FLAT:??_C@_01MCMALHOG@a@
	DD	FLAT:??_C@_03PCCGDNHJ@img@
	DD	FLAT:??_C@_06MJBNHHFM@applet@
	DD	FLAT:??_C@_05KJAEOLKJ@embed@
	DD	FLAT:??_C@_06IEOJBDIK@object@
	DD	FLAT:??_C@_04EFPADHIC@font@
	DD	FLAT:??_C@_08IOLGIJGJ@basefont@
	DD	FLAT:??_C@_02FGOECCNH@br@
	DD	FLAT:??_C@_06OLONEIEH@script@
	DD	FLAT:??_C@_03HBNNNHNM@map@
	DD	FLAT:??_C@_01IIACKFLH@q@
	DD	FLAT:??_C@_03KCMAIMAP@sub@
	DD	FLAT:??_C@_03NKDEPMNM@sup@
	DD	FLAT:??_C@_04FOPLNFFP@span@
	DD	FLAT:??_C@_03OCCPALPP@bdo@
	DD	FLAT:??_C@_06PKBNCBKI@iframe@
	DD	FLAT:??_C@_05DFJCHPDH@input@
	DD	FLAT:??_C@_06LGNCCACI@select@
	DD	FLAT:??_C@_08DEBIGDAL@textarea@
	DD	FLAT:??_C@_05IDCCNNGI@label@
	DD	FLAT:??_C@_06HFKPFKMP@button@
	DD	00H
_html_inline DD	FLAT:??_C@_02BIBFFKJD@tt@
	DD	FLAT:??_C@_01KBJDNOO@i@
	DD	FLAT:??_C@_01OJONOECF@b@
	DD	FLAT:??_C@_01OMGOGALD@u@
	DD	FLAT:??_C@_01LKDEMHDF@s@
	DD	FLAT:??_C@_06LGJEBFOF@strike@
	DD	FLAT:??_C@_03CCCOBCKE@big@
	DD	FLAT:??_C@_05KJDGBEEG@small@
	DD	FLAT:??_C@_02JOPBDKMM@em@
	DD	FLAT:??_C@_06KHACOKFA@strong@
	DD	FLAT:??_C@_03NNNLLBAM@dfn@
	DD	FLAT:??_C@_04NDFOBODE@code@
	DD	FLAT:??_C@_04GLAFCDBO@samp@
	DD	FLAT:??_C@_03HIFOOBAM@kbd@
	DD	FLAT:??_C@_03MEPDGFMA@var@
	DD	FLAT:??_C@_04OKBDOCJI@cite@
	DD	FLAT:??_C@_04FKPKGNKN@abbr@
	DD	FLAT:??_C@_07DBMAFMJI@acronym@
	DD	FLAT:??_C@_01MCMALHOG@a@
	DD	FLAT:??_C@_03PCCGDNHJ@img@
	DD	FLAT:??_C@_06MJBNHHFM@applet@
	DD	FLAT:??_C@_05KJAEOLKJ@embed@
	DD	FLAT:??_C@_06IEOJBDIK@object@
	DD	FLAT:??_C@_04EFPADHIC@font@
	DD	FLAT:??_C@_08IOLGIJGJ@basefont@
	DD	FLAT:??_C@_02FGOECCNH@br@
	DD	FLAT:??_C@_06OLONEIEH@script@
	DD	FLAT:??_C@_03HBNNNHNM@map@
	DD	FLAT:??_C@_01IIACKFLH@q@
	DD	FLAT:??_C@_03KCMAIMAP@sub@
	DD	FLAT:??_C@_03NKDEPMNM@sup@
	DD	FLAT:??_C@_04FOPLNFFP@span@
	DD	FLAT:??_C@_03OCCPALPP@bdo@
	DD	FLAT:??_C@_06PKBNCBKI@iframe@
	DD	FLAT:??_C@_05DFJCHPDH@input@
	DD	FLAT:??_C@_06LGNCCACI@select@
	DD	FLAT:??_C@_08DEBIGDAL@textarea@
	DD	FLAT:??_C@_05IDCCNNGI@label@
	DD	FLAT:??_C@_06HFKPFKMP@button@
	DD	00H
_html_pcdata DD	00H
_core_i18n_attrs DD FLAT:??_C@_02EGCJHIOB@id@
	DD	FLAT:??_C@_05ENKANFLO@class@
	DD	FLAT:??_C@_05IAKJCFIM@style@
	DD	FLAT:??_C@_05PHLGJONK@title@
	DD	FLAT:??_C@_04IOHABJIC@lang@
	DD	FLAT:??_C@_03DAPAKLGM@dir@
	DD	00H
_html_attrs DD	FLAT:??_C@_02EGCJHIOB@id@
	DD	FLAT:??_C@_05ENKANFLO@class@
	DD	FLAT:??_C@_05IAKJCFIM@style@
	DD	FLAT:??_C@_05PHLGJONK@title@
	DD	FLAT:??_C@_04IOHABJIC@lang@
	DD	FLAT:??_C@_03DAPAKLGM@dir@
	DD	FLAT:??_C@_07BAILDNBN@onclick@
	DD	FLAT:??_C@_0L@BPDJNBPF@ondblclick@
	DD	FLAT:??_C@_0M@LPLDHDON@onmousedown@
	DD	FLAT:??_C@_09KEIMJDF@onmouseup@
	DD	FLAT:??_C@_0M@BMKHHAKK@onmouseover@
	DD	FLAT:??_C@_0L@CEIFEFAI@onmouseout@
	DD	FLAT:??_C@_0L@HBNKHJBD@onkeypress@
	DD	FLAT:??_C@_09HFCNBPMA@onkeydown@
	DD	FLAT:??_C@_07BAEMJOMG@onkeyup@
	DD	00H
_core_attrs DD	FLAT:??_C@_02EGCJHIOB@id@
	DD	FLAT:??_C@_05ENKANFLO@class@
	DD	FLAT:??_C@_05IAKJCFIM@style@
	DD	FLAT:??_C@_05PHLGJONK@title@
	DD	00H
_i18n_attrs DD	FLAT:??_C@_04IOHABJIC@lang@
	DD	FLAT:??_C@_03DAPAKLGM@dir@
	DD	00H
_a_attrs DD	FLAT:??_C@_02EGCJHIOB@id@
	DD	FLAT:??_C@_05ENKANFLO@class@
	DD	FLAT:??_C@_05IAKJCFIM@style@
	DD	FLAT:??_C@_05PHLGJONK@title@
	DD	FLAT:??_C@_04IOHABJIC@lang@
	DD	FLAT:??_C@_03DAPAKLGM@dir@
	DD	FLAT:??_C@_07BAILDNBN@onclick@
	DD	FLAT:??_C@_0L@BPDJNBPF@ondblclick@
	DD	FLAT:??_C@_0M@LPLDHDON@onmousedown@
	DD	FLAT:??_C@_09KEIMJDF@onmouseup@
	DD	FLAT:??_C@_0M@BMKHHAKK@onmouseover@
	DD	FLAT:??_C@_0L@CEIFEFAI@onmouseout@
	DD	FLAT:??_C@_0L@HBNKHJBD@onkeypress@
	DD	FLAT:??_C@_09HFCNBPMA@onkeydown@
	DD	FLAT:??_C@_07BAEMJOMG@onkeyup@
	DD	FLAT:??_C@_07EAJPFAFH@charset@
	DD	FLAT:??_C@_04GPMDFGEJ@type@
	DD	FLAT:??_C@_04MEMAJGDJ@name@
	DD	FLAT:??_C@_04CMBCJJJD@href@
	DD	FLAT:??_C@_08KALGMAGF@hreflang@
	DD	FLAT:??_C@_03JINJGFJE@rel@
	DD	FLAT:??_C@_03CIPEJPEP@rev@
	DD	FLAT:??_C@_09KPFGNPLK@accesskey@
	DD	FLAT:??_C@_05KFCIHKGL@shape@
	DD	FLAT:??_C@_06LAPHAKDE@coords@
	DD	FLAT:??_C@_08KAJGIJLO@tabindex@
	DD	FLAT:??_C@_07PCOLHBIB@onfocus@
	DD	FLAT:??_C@_06PAKCKPPO@onblur@
	DD	00H
_target_attr DD	FLAT:??_C@_06JJLAMBGK@target@
	DD	00H
_rows_cols_attr DD FLAT:??_C@_04IMCGAIPI@rows@
	DD	FLAT:??_C@_04MBNFPKFL@cols@
	DD	00H
_alt_attr DD	FLAT:??_C@_03FHLPDODD@alt@
	DD	00H
_src_alt_attrs DD FLAT:??_C@_03LOJEKLML@src@
	DD	FLAT:??_C@_03FHLPDODD@alt@
	DD	00H
_href_attrs DD	FLAT:??_C@_04CMBCJJJD@href@
	DD	00H
_clear_attrs DD	FLAT:??_C@_05MEHLAELG@clear@
	DD	00H
_area_attrs DD	FLAT:??_C@_05KFCIHKGL@shape@
	DD	FLAT:??_C@_06LAPHAKDE@coords@
	DD	FLAT:??_C@_04CMBCJJJD@href@
	DD	FLAT:??_C@_06FFHHDLMH@nohref@
	DD	FLAT:??_C@_08KAJGIJLO@tabindex@
	DD	FLAT:??_C@_09KPFGNPLK@accesskey@
	DD	FLAT:??_C@_07PCOLHBIB@onfocus@
	DD	FLAT:??_C@_06PAKCKPPO@onblur@
	DD	00H
_inline_p DD	FLAT:??_C@_02BIBFFKJD@tt@
	DD	FLAT:??_C@_01KBJDNOO@i@
	DD	FLAT:??_C@_01OJONOECF@b@
	DD	FLAT:??_C@_01OMGOGALD@u@
	DD	FLAT:??_C@_01LKDEMHDF@s@
	DD	FLAT:??_C@_06LGJEBFOF@strike@
	DD	FLAT:??_C@_03CCCOBCKE@big@
	DD	FLAT:??_C@_05KJDGBEEG@small@
	DD	FLAT:??_C@_02JOPBDKMM@em@
	DD	FLAT:??_C@_06KHACOKFA@strong@
	DD	FLAT:??_C@_03NNNLLBAM@dfn@
	DD	FLAT:??_C@_04NDFOBODE@code@
	DD	FLAT:??_C@_04GLAFCDBO@samp@
	DD	FLAT:??_C@_03HIFOOBAM@kbd@
	DD	FLAT:??_C@_03MEPDGFMA@var@
	DD	FLAT:??_C@_04OKBDOCJI@cite@
	DD	FLAT:??_C@_04FKPKGNKN@abbr@
	DD	FLAT:??_C@_07DBMAFMJI@acronym@
	DD	FLAT:??_C@_01MCMALHOG@a@
	DD	FLAT:??_C@_03PCCGDNHJ@img@
	DD	FLAT:??_C@_06MJBNHHFM@applet@
	DD	FLAT:??_C@_05KJAEOLKJ@embed@
	DD	FLAT:??_C@_06IEOJBDIK@object@
	DD	FLAT:??_C@_04EFPADHIC@font@
	DD	FLAT:??_C@_08IOLGIJGJ@basefont@
	DD	FLAT:??_C@_02FGOECCNH@br@
	DD	FLAT:??_C@_06OLONEIEH@script@
	DD	FLAT:??_C@_03HBNNNHNM@map@
	DD	FLAT:??_C@_01IIACKFLH@q@
	DD	FLAT:??_C@_03KCMAIMAP@sub@
	DD	FLAT:??_C@_03NKDEPMNM@sup@
	DD	FLAT:??_C@_04FOPLNFFP@span@
	DD	FLAT:??_C@_03OCCPALPP@bdo@
	DD	FLAT:??_C@_06PKBNCBKI@iframe@
	DD	FLAT:??_C@_05DFJCHPDH@input@
	DD	FLAT:??_C@_06LGNCCACI@select@
	DD	FLAT:??_C@_08DEBIGDAL@textarea@
	DD	FLAT:??_C@_05IDCCNNGI@label@
	DD	FLAT:??_C@_06HFKPFKMP@button@
	DD	FLAT:??_C@_01JBBJJEPG@p@
	DD	00H
_basefont_attrs DD FLAT:??_C@_02EGCJHIOB@id@
	DD	FLAT:??_C@_04IAGNFIBA@size@
	DD	FLAT:??_C@_05PEENBMOG@color@
	DD	FLAT:??_C@_04POCOPAPC@face@
	DD	00H
_flow_param DD	FLAT:??_C@_02IACHLLMH@h1@
	DD	FLAT:??_C@_02KLAKOIAE@h2@
	DD	FLAT:??_C@_02LCBBNJEF@h3@
	DD	FLAT:??_C@_02PNFAEPIC@h4@
	DD	FLAT:??_C@_02OEELHOMD@h5@
	DD	FLAT:??_C@_02MPGGCNAA@h6@
	DD	FLAT:??_C@_02JLMMKIPN@ul@
	DD	FLAT:??_C@_02IKHNIOFL@ol@
	DD	FLAT:??_C@_03DAPAKLGM@dir@
	DD	FLAT:??_C@_04EEIGNHLG@menu@
	DD	FLAT:??_C@_03PKHLKDKD@pre@
	DD	FLAT:??_C@_01JBBJJEPG@p@
	DD	FLAT:??_C@_02IGCIGBLK@dl@
	DD	FLAT:??_C@_03FEJMGOGI@div@
	DD	FLAT:??_C@_06BBLOAEEI@center@
	DD	FLAT:??_C@_08NOCGLLG@noscript@
	DD	FLAT:??_C@_08NAAIELI@noframes@
	DD	FLAT:??_C@_0L@NKGPHNMG@blockquote@
	DD	FLAT:??_C@_04MLMMMEIO@form@
	DD	FLAT:??_C@_07JMLOFMGP@isindex@
	DD	FLAT:??_C@_02FLHDKHAB@hr@
	DD	FLAT:??_C@_05LCLENNFI@table@
	DD	FLAT:??_C@_08EPOEGPEK@fieldset@
	DD	FLAT:??_C@_07LHEPONKL@address@
	DD	FLAT:??_C@_02BIBFFKJD@tt@
	DD	FLAT:??_C@_01KBJDNOO@i@
	DD	FLAT:??_C@_01OJONOECF@b@
	DD	FLAT:??_C@_01OMGOGALD@u@
	DD	FLAT:??_C@_01LKDEMHDF@s@
	DD	FLAT:??_C@_06LGJEBFOF@strike@
	DD	FLAT:??_C@_03CCCOBCKE@big@
	DD	FLAT:??_C@_05KJDGBEEG@small@
	DD	FLAT:??_C@_02JOPBDKMM@em@
	DD	FLAT:??_C@_06KHACOKFA@strong@
	DD	FLAT:??_C@_03NNNLLBAM@dfn@
	DD	FLAT:??_C@_04NDFOBODE@code@
	DD	FLAT:??_C@_04GLAFCDBO@samp@
	DD	FLAT:??_C@_03HIFOOBAM@kbd@
	DD	FLAT:??_C@_03MEPDGFMA@var@
	DD	FLAT:??_C@_04OKBDOCJI@cite@
	DD	FLAT:??_C@_04FKPKGNKN@abbr@
	DD	FLAT:??_C@_07DBMAFMJI@acronym@
	DD	FLAT:??_C@_01MCMALHOG@a@
	DD	FLAT:??_C@_03PCCGDNHJ@img@
	DD	FLAT:??_C@_06MJBNHHFM@applet@
	DD	FLAT:??_C@_05KJAEOLKJ@embed@
	DD	FLAT:??_C@_06IEOJBDIK@object@
	DD	FLAT:??_C@_04EFPADHIC@font@
	DD	FLAT:??_C@_08IOLGIJGJ@basefont@
	DD	FLAT:??_C@_02FGOECCNH@br@
	DD	FLAT:??_C@_06OLONEIEH@script@
	DD	FLAT:??_C@_03HBNNNHNM@map@
	DD	FLAT:??_C@_01IIACKFLH@q@
	DD	FLAT:??_C@_03KCMAIMAP@sub@
	DD	FLAT:??_C@_03NKDEPMNM@sup@
	DD	FLAT:??_C@_04FOPLNFFP@span@
	DD	FLAT:??_C@_03OCCPALPP@bdo@
	DD	FLAT:??_C@_06PKBNCBKI@iframe@
	DD	FLAT:??_C@_05DFJCHPDH@input@
	DD	FLAT:??_C@_06LGNCCACI@select@
	DD	FLAT:??_C@_08DEBIGDAL@textarea@
	DD	FLAT:??_C@_05IDCCNNGI@label@
	DD	FLAT:??_C@_06HFKPFKMP@button@
	DD	FLAT:??_C@_05LJDNNBIK@param@
	DD	00H
_applet_attrs DD FLAT:??_C@_02EGCJHIOB@id@
	DD	FLAT:??_C@_05ENKANFLO@class@
	DD	FLAT:??_C@_05IAKJCFIM@style@
	DD	FLAT:??_C@_05PHLGJONK@title@
	DD	FLAT:??_C@_08HMEGOPJI@codebase@
	DD	FLAT:??_C@_07NEJBDDEA@archive@
	DD	FLAT:??_C@_03FHLPDODD@alt@
	DD	FLAT:??_C@_04MEMAJGDJ@name@
	DD	FLAT:??_C@_06LNLHEAAG@height@
	DD	FLAT:??_C@_05IGKADHGO@width@
	DD	FLAT:??_C@_05CBJPDLOK@align@
	DD	FLAT:??_C@_06HPCPMHFO@hspace@
	DD	FLAT:??_C@_06EIMOCAMN@vspace@
	DD	00H
_body_depr DD	FLAT:??_C@_0L@EGCKCJDC@background@
	DD	FLAT:??_C@_07PMHCLHIB@bgcolor@
	DD	FLAT:??_C@_04CIMGMMMG@text@
	DD	FLAT:??_C@_04OHHBHOGB@link@
	DD	FLAT:??_C@_05ENOKMGAD@vlink@
	DD	FLAT:??_C@_05FDDJPECA@alink@
	DD	00H
_quote_attrs DD	FLAT:??_C@_02EGCJHIOB@id@
	DD	FLAT:??_C@_05ENKANFLO@class@
	DD	FLAT:??_C@_05IAKJCFIM@style@
	DD	FLAT:??_C@_05PHLGJONK@title@
	DD	FLAT:??_C@_04IOHABJIC@lang@
	DD	FLAT:??_C@_03DAPAKLGM@dir@
	DD	FLAT:??_C@_07BAILDNBN@onclick@
	DD	FLAT:??_C@_0L@BPDJNBPF@ondblclick@
	DD	FLAT:??_C@_0M@LPLDHDON@onmousedown@
	DD	FLAT:??_C@_09KEIMJDF@onmouseup@
	DD	FLAT:??_C@_0M@BMKHHAKK@onmouseover@
	DD	FLAT:??_C@_0L@CEIFEFAI@onmouseout@
	DD	FLAT:??_C@_0L@HBNKHJBD@onkeypress@
	DD	FLAT:??_C@_09HFCNBPMA@onkeydown@
	DD	FLAT:??_C@_07BAEMJOMG@onkeyup@
	DD	FLAT:??_C@_04OKBDOCJI@cite@
	DD	00H
_dl_contents DD	FLAT:??_C@_02EDDPJOD@dt@
	DD	FLAT:??_C@_02EOPBOLLC@dd@
	DD	00H
_body_contents DD FLAT:??_C@_02IACHLLMH@h1@
	DD	FLAT:??_C@_02KLAKOIAE@h2@
	DD	FLAT:??_C@_02LCBBNJEF@h3@
	DD	FLAT:??_C@_02PNFAEPIC@h4@
	DD	FLAT:??_C@_02OEELHOMD@h5@
	DD	FLAT:??_C@_02MPGGCNAA@h6@
	DD	FLAT:??_C@_02JLMMKIPN@ul@
	DD	FLAT:??_C@_02IKHNIOFL@ol@
	DD	FLAT:??_C@_03DAPAKLGM@dir@
	DD	FLAT:??_C@_04EEIGNHLG@menu@
	DD	FLAT:??_C@_03PKHLKDKD@pre@
	DD	FLAT:??_C@_01JBBJJEPG@p@
	DD	FLAT:??_C@_02IGCIGBLK@dl@
	DD	FLAT:??_C@_03FEJMGOGI@div@
	DD	FLAT:??_C@_06BBLOAEEI@center@
	DD	FLAT:??_C@_08NOCGLLG@noscript@
	DD	FLAT:??_C@_08NAAIELI@noframes@
	DD	FLAT:??_C@_0L@NKGPHNMG@blockquote@
	DD	FLAT:??_C@_04MLMMMEIO@form@
	DD	FLAT:??_C@_07JMLOFMGP@isindex@
	DD	FLAT:??_C@_02FLHDKHAB@hr@
	DD	FLAT:??_C@_05LCLENNFI@table@
	DD	FLAT:??_C@_08EPOEGPEK@fieldset@
	DD	FLAT:??_C@_07LHEPONKL@address@
	DD	FLAT:??_C@_02BIBFFKJD@tt@
	DD	FLAT:??_C@_01KBJDNOO@i@
	DD	FLAT:??_C@_01OJONOECF@b@
	DD	FLAT:??_C@_01OMGOGALD@u@
	DD	FLAT:??_C@_01LKDEMHDF@s@
	DD	FLAT:??_C@_06LGJEBFOF@strike@
	DD	FLAT:??_C@_03CCCOBCKE@big@
	DD	FLAT:??_C@_05KJDGBEEG@small@
	DD	FLAT:??_C@_02JOPBDKMM@em@
	DD	FLAT:??_C@_06KHACOKFA@strong@
	DD	FLAT:??_C@_03NNNLLBAM@dfn@
	DD	FLAT:??_C@_04NDFOBODE@code@
	DD	FLAT:??_C@_04GLAFCDBO@samp@
	DD	FLAT:??_C@_03HIFOOBAM@kbd@
	DD	FLAT:??_C@_03MEPDGFMA@var@
	DD	FLAT:??_C@_04OKBDOCJI@cite@
	DD	FLAT:??_C@_04FKPKGNKN@abbr@
	DD	FLAT:??_C@_07DBMAFMJI@acronym@
	DD	FLAT:??_C@_01MCMALHOG@a@
	DD	FLAT:??_C@_03PCCGDNHJ@img@
	DD	FLAT:??_C@_06MJBNHHFM@applet@
	DD	FLAT:??_C@_05KJAEOLKJ@embed@
	DD	FLAT:??_C@_06IEOJBDIK@object@
	DD	FLAT:??_C@_04EFPADHIC@font@
	DD	FLAT:??_C@_08IOLGIJGJ@basefont@
	DD	FLAT:??_C@_02FGOECCNH@br@
	DD	FLAT:??_C@_06OLONEIEH@script@
	DD	FLAT:??_C@_03HBNNNHNM@map@
	DD	FLAT:??_C@_01IIACKFLH@q@
	DD	FLAT:??_C@_03KCMAIMAP@sub@
	DD	FLAT:??_C@_03NKDEPMNM@sup@
	DD	FLAT:??_C@_04FOPLNFFP@span@
	DD	FLAT:??_C@_03OCCPALPP@bdo@
	DD	FLAT:??_C@_06PKBNCBKI@iframe@
	DD	FLAT:??_C@_05DFJCHPDH@input@
	DD	FLAT:??_C@_06LGNCCACI@select@
	DD	FLAT:??_C@_08DEBIGDAL@textarea@
	DD	FLAT:??_C@_05IDCCNNGI@label@
	DD	FLAT:??_C@_06HFKPFKMP@button@
	DD	FLAT:??_C@_03NOMOFEHF@ins@
	DD	FLAT:??_C@_03ONKLGNNH@del@
	DD	00H
_body_attrs DD	FLAT:??_C@_02EGCJHIOB@id@
	DD	FLAT:??_C@_05ENKANFLO@class@
	DD	FLAT:??_C@_05IAKJCFIM@style@
	DD	FLAT:??_C@_05PHLGJONK@title@
	DD	FLAT:??_C@_04IOHABJIC@lang@
	DD	FLAT:??_C@_03DAPAKLGM@dir@
	DD	FLAT:??_C@_07BAILDNBN@onclick@
	DD	FLAT:??_C@_0L@BPDJNBPF@ondblclick@
	DD	FLAT:??_C@_0M@LPLDHDON@onmousedown@
	DD	FLAT:??_C@_09KEIMJDF@onmouseup@
	DD	FLAT:??_C@_0M@BMKHHAKK@onmouseover@
	DD	FLAT:??_C@_0L@CEIFEFAI@onmouseout@
	DD	FLAT:??_C@_0L@HBNKHJBD@onkeypress@
	DD	FLAT:??_C@_09HFCNBPMA@onkeydown@
	DD	FLAT:??_C@_07BAEMJOMG@onkeyup@
	DD	FLAT:??_C@_06FKJAAAAK@onload@
	DD	FLAT:??_C@_08KEOAPEKG@onunload@
	DD	00H
_button_attrs DD FLAT:??_C@_02EGCJHIOB@id@
	DD	FLAT:??_C@_05ENKANFLO@class@
	DD	FLAT:??_C@_05IAKJCFIM@style@
	DD	FLAT:??_C@_05PHLGJONK@title@
	DD	FLAT:??_C@_04IOHABJIC@lang@
	DD	FLAT:??_C@_03DAPAKLGM@dir@
	DD	FLAT:??_C@_07BAILDNBN@onclick@
	DD	FLAT:??_C@_0L@BPDJNBPF@ondblclick@
	DD	FLAT:??_C@_0M@LPLDHDON@onmousedown@
	DD	FLAT:??_C@_09KEIMJDF@onmouseup@
	DD	FLAT:??_C@_0M@BMKHHAKK@onmouseover@
	DD	FLAT:??_C@_0L@CEIFEFAI@onmouseout@
	DD	FLAT:??_C@_0L@HBNKHJBD@onkeypress@
	DD	FLAT:??_C@_09HFCNBPMA@onkeydown@
	DD	FLAT:??_C@_07BAEMJOMG@onkeyup@
	DD	FLAT:??_C@_04MEMAJGDJ@name@
	DD	FLAT:??_C@_05MFEJDJP@value@
	DD	FLAT:??_C@_04GPMDFGEJ@type@
	DD	FLAT:??_C@_08BEHKFNNO@disabled@
	DD	FLAT:??_C@_08KAJGIJLO@tabindex@
	DD	FLAT:??_C@_09KPFGNPLK@accesskey@
	DD	FLAT:??_C@_07PCOLHBIB@onfocus@
	DD	FLAT:??_C@_06PAKCKPPO@onblur@
	DD	00H
_col_attrs DD	FLAT:??_C@_02EGCJHIOB@id@
	DD	FLAT:??_C@_05ENKANFLO@class@
	DD	FLAT:??_C@_05IAKJCFIM@style@
	DD	FLAT:??_C@_05PHLGJONK@title@
	DD	FLAT:??_C@_04IOHABJIC@lang@
	DD	FLAT:??_C@_03DAPAKLGM@dir@
	DD	FLAT:??_C@_07BAILDNBN@onclick@
	DD	FLAT:??_C@_0L@BPDJNBPF@ondblclick@
	DD	FLAT:??_C@_0M@LPLDHDON@onmousedown@
	DD	FLAT:??_C@_09KEIMJDF@onmouseup@
	DD	FLAT:??_C@_0M@BMKHHAKK@onmouseover@
	DD	FLAT:??_C@_0L@CEIFEFAI@onmouseout@
	DD	FLAT:??_C@_0L@HBNKHJBD@onkeypress@
	DD	FLAT:??_C@_09HFCNBPMA@onkeydown@
	DD	FLAT:??_C@_07BAEMJOMG@onkeyup@
	DD	FLAT:??_C@_04FOPLNFFP@span@
	DD	FLAT:??_C@_05IGKADHGO@width@
	DD	FLAT:??_C@_05CBJPDLOK@align@
	DD	FLAT:??_C@_04ENMBGAPA@char@
	DD	FLAT:??_C@_07CAOCHGPK@charoff@
	DD	FLAT:??_C@_06ICIJKACG@valign@
	DD	00H
_col_elt DD	FLAT:??_C@_03HNOLNALI@col@
	DD	00H
_edit_attrs DD	FLAT:??_C@_02EGCJHIOB@id@
	DD	FLAT:??_C@_05ENKANFLO@class@
	DD	FLAT:??_C@_05IAKJCFIM@style@
	DD	FLAT:??_C@_05PHLGJONK@title@
	DD	FLAT:??_C@_04IOHABJIC@lang@
	DD	FLAT:??_C@_03DAPAKLGM@dir@
	DD	FLAT:??_C@_07BAILDNBN@onclick@
	DD	FLAT:??_C@_0L@BPDJNBPF@ondblclick@
	DD	FLAT:??_C@_0M@LPLDHDON@onmousedown@
	DD	FLAT:??_C@_09KEIMJDF@onmouseup@
	DD	FLAT:??_C@_0M@BMKHHAKK@onmouseover@
	DD	FLAT:??_C@_0L@CEIFEFAI@onmouseout@
	DD	FLAT:??_C@_0L@HBNKHJBD@onkeypress@
	DD	FLAT:??_C@_09HFCNBPMA@onkeydown@
	DD	FLAT:??_C@_07BAEMJOMG@onkeyup@
	DD	FLAT:??_C@_08FGNPMIBK@datetime@
	DD	FLAT:??_C@_04OKBDOCJI@cite@
	DD	00H
_compact_attrs DD FLAT:??_C@_02EGCJHIOB@id@
	DD	FLAT:??_C@_05ENKANFLO@class@
	DD	FLAT:??_C@_05IAKJCFIM@style@
	DD	FLAT:??_C@_05PHLGJONK@title@
	DD	FLAT:??_C@_04IOHABJIC@lang@
	DD	FLAT:??_C@_03DAPAKLGM@dir@
	DD	FLAT:??_C@_07BAILDNBN@onclick@
	DD	FLAT:??_C@_0L@BPDJNBPF@ondblclick@
	DD	FLAT:??_C@_0M@LPLDHDON@onmousedown@
	DD	FLAT:??_C@_09KEIMJDF@onmouseup@
	DD	FLAT:??_C@_0M@BMKHHAKK@onmouseover@
	DD	FLAT:??_C@_0L@CEIFEFAI@onmouseout@
	DD	FLAT:??_C@_0L@HBNKHJBD@onkeypress@
	DD	FLAT:??_C@_09HFCNBPMA@onkeydown@
	DD	FLAT:??_C@_07BAEMJOMG@onkeyup@
	DD	FLAT:??_C@_07HGKHBOGE@compact@
	DD	00H
_compact_attr DD FLAT:??_C@_07HGKHBOGE@compact@
	DD	00H
_label_attr DD	FLAT:??_C@_05IDCCNNGI@label@
	DD	00H
_frame_attrs DD	FLAT:??_C@_02EGCJHIOB@id@
	DD	FLAT:??_C@_05ENKANFLO@class@
	DD	FLAT:??_C@_05IAKJCFIM@style@
	DD	FLAT:??_C@_05PHLGJONK@title@
	DD	FLAT:??_C@_08BMDPBLHN@longdesc@
	DD	FLAT:??_C@_04MEMAJGDJ@name@
	DD	FLAT:??_C@_03LOJEKLML@src@
	DD	FLAT:??_C@_0M@GPMBJNCP@frameborder@
	DD	FLAT:??_C@_0M@LFIDEBFM@marginwidth@
	DD	FLAT:??_C@_0N@HFFDDCPA@marginheight@
	DD	FLAT:??_C@_08BOOCAMGJ@noresize@
	DD	FLAT:??_C@_09PKEBEIDM@scrolling@
	DD	00H
_fieldset_contents DD FLAT:??_C@_02IACHLLMH@h1@
	DD	FLAT:??_C@_02KLAKOIAE@h2@
	DD	FLAT:??_C@_02LCBBNJEF@h3@
	DD	FLAT:??_C@_02PNFAEPIC@h4@
	DD	FLAT:??_C@_02OEELHOMD@h5@
	DD	FLAT:??_C@_02MPGGCNAA@h6@
	DD	FLAT:??_C@_02JLMMKIPN@ul@
	DD	FLAT:??_C@_02IKHNIOFL@ol@
	DD	FLAT:??_C@_03DAPAKLGM@dir@
	DD	FLAT:??_C@_04EEIGNHLG@menu@
	DD	FLAT:??_C@_03PKHLKDKD@pre@
	DD	FLAT:??_C@_01JBBJJEPG@p@
	DD	FLAT:??_C@_02IGCIGBLK@dl@
	DD	FLAT:??_C@_03FEJMGOGI@div@
	DD	FLAT:??_C@_06BBLOAEEI@center@
	DD	FLAT:??_C@_08NOCGLLG@noscript@
	DD	FLAT:??_C@_08NAAIELI@noframes@
	DD	FLAT:??_C@_0L@NKGPHNMG@blockquote@
	DD	FLAT:??_C@_04MLMMMEIO@form@
	DD	FLAT:??_C@_07JMLOFMGP@isindex@
	DD	FLAT:??_C@_02FLHDKHAB@hr@
	DD	FLAT:??_C@_05LCLENNFI@table@
	DD	FLAT:??_C@_08EPOEGPEK@fieldset@
	DD	FLAT:??_C@_07LHEPONKL@address@
	DD	FLAT:??_C@_02BIBFFKJD@tt@
	DD	FLAT:??_C@_01KBJDNOO@i@
	DD	FLAT:??_C@_01OJONOECF@b@
	DD	FLAT:??_C@_01OMGOGALD@u@
	DD	FLAT:??_C@_01LKDEMHDF@s@
	DD	FLAT:??_C@_06LGJEBFOF@strike@
	DD	FLAT:??_C@_03CCCOBCKE@big@
	DD	FLAT:??_C@_05KJDGBEEG@small@
	DD	FLAT:??_C@_02JOPBDKMM@em@
	DD	FLAT:??_C@_06KHACOKFA@strong@
	DD	FLAT:??_C@_03NNNLLBAM@dfn@
	DD	FLAT:??_C@_04NDFOBODE@code@
	DD	FLAT:??_C@_04GLAFCDBO@samp@
	DD	FLAT:??_C@_03HIFOOBAM@kbd@
	DD	FLAT:??_C@_03MEPDGFMA@var@
	DD	FLAT:??_C@_04OKBDOCJI@cite@
	DD	FLAT:??_C@_04FKPKGNKN@abbr@
	DD	FLAT:??_C@_07DBMAFMJI@acronym@
	DD	FLAT:??_C@_01MCMALHOG@a@
	DD	FLAT:??_C@_03PCCGDNHJ@img@
	DD	FLAT:??_C@_06MJBNHHFM@applet@
	DD	FLAT:??_C@_05KJAEOLKJ@embed@
	DD	FLAT:??_C@_06IEOJBDIK@object@
	DD	FLAT:??_C@_04EFPADHIC@font@
	DD	FLAT:??_C@_08IOLGIJGJ@basefont@
	DD	FLAT:??_C@_02FGOECCNH@br@
	DD	FLAT:??_C@_06OLONEIEH@script@
	DD	FLAT:??_C@_03HBNNNHNM@map@
	DD	FLAT:??_C@_01IIACKFLH@q@
	DD	FLAT:??_C@_03KCMAIMAP@sub@
	DD	FLAT:??_C@_03NKDEPMNM@sup@
	DD	FLAT:??_C@_04FOPLNFFP@span@
	DD	FLAT:??_C@_03OCCPALPP@bdo@
	DD	FLAT:??_C@_06PKBNCBKI@iframe@
	DD	FLAT:??_C@_05DFJCHPDH@input@
	DD	FLAT:??_C@_06LGNCCACI@select@
	DD	FLAT:??_C@_08DEBIGDAL@textarea@
	DD	FLAT:??_C@_05IDCCNNGI@label@
	DD	FLAT:??_C@_06HFKPFKMP@button@
	DD	FLAT:??_C@_06BCIOHMBM@legend@
_font_attrs DD	FLAT:??_C@_02EGCJHIOB@id@
	DD	FLAT:??_C@_05ENKANFLO@class@
	DD	FLAT:??_C@_05IAKJCFIM@style@
	DD	FLAT:??_C@_05PHLGJONK@title@
	DD	FLAT:??_C@_04IOHABJIC@lang@
	DD	FLAT:??_C@_03DAPAKLGM@dir@
	DD	FLAT:??_C@_04IAGNFIBA@size@
	DD	FLAT:??_C@_05PEENBMOG@color@
	DD	FLAT:??_C@_04POCOPAPC@face@
	DD	00H
_form_contents DD FLAT:??_C@_02IACHLLMH@h1@
	DD	FLAT:??_C@_02KLAKOIAE@h2@
	DD	FLAT:??_C@_02LCBBNJEF@h3@
	DD	FLAT:??_C@_02PNFAEPIC@h4@
	DD	FLAT:??_C@_02OEELHOMD@h5@
	DD	FLAT:??_C@_02MPGGCNAA@h6@
	DD	FLAT:??_C@_02JLMMKIPN@ul@
	DD	FLAT:??_C@_02IKHNIOFL@ol@
	DD	FLAT:??_C@_03DAPAKLGM@dir@
	DD	FLAT:??_C@_04EEIGNHLG@menu@
	DD	FLAT:??_C@_02BIBFFKJD@tt@
	DD	FLAT:??_C@_01KBJDNOO@i@
	DD	FLAT:??_C@_01OJONOECF@b@
	DD	FLAT:??_C@_01OMGOGALD@u@
	DD	FLAT:??_C@_01LKDEMHDF@s@
	DD	FLAT:??_C@_06LGJEBFOF@strike@
	DD	FLAT:??_C@_03CCCOBCKE@big@
	DD	FLAT:??_C@_05KJDGBEEG@small@
	DD	FLAT:??_C@_02JOPBDKMM@em@
	DD	FLAT:??_C@_06KHACOKFA@strong@
	DD	FLAT:??_C@_03NNNLLBAM@dfn@
	DD	FLAT:??_C@_04NDFOBODE@code@
	DD	FLAT:??_C@_04GLAFCDBO@samp@
	DD	FLAT:??_C@_03HIFOOBAM@kbd@
	DD	FLAT:??_C@_03MEPDGFMA@var@
	DD	FLAT:??_C@_04OKBDOCJI@cite@
	DD	FLAT:??_C@_04FKPKGNKN@abbr@
	DD	FLAT:??_C@_07DBMAFMJI@acronym@
	DD	FLAT:??_C@_01MCMALHOG@a@
	DD	FLAT:??_C@_03PCCGDNHJ@img@
	DD	FLAT:??_C@_06MJBNHHFM@applet@
	DD	FLAT:??_C@_05KJAEOLKJ@embed@
	DD	FLAT:??_C@_06IEOJBDIK@object@
	DD	FLAT:??_C@_04EFPADHIC@font@
	DD	FLAT:??_C@_08IOLGIJGJ@basefont@
	DD	FLAT:??_C@_02FGOECCNH@br@
	DD	FLAT:??_C@_06OLONEIEH@script@
	DD	FLAT:??_C@_03HBNNNHNM@map@
	DD	FLAT:??_C@_01IIACKFLH@q@
	DD	FLAT:??_C@_03KCMAIMAP@sub@
	DD	FLAT:??_C@_03NKDEPMNM@sup@
	DD	FLAT:??_C@_04FOPLNFFP@span@
	DD	FLAT:??_C@_03OCCPALPP@bdo@
	DD	FLAT:??_C@_06PKBNCBKI@iframe@
	DD	FLAT:??_C@_05DFJCHPDH@input@
	DD	FLAT:??_C@_06LGNCCACI@select@
	DD	FLAT:??_C@_08DEBIGDAL@textarea@
	DD	FLAT:??_C@_05IDCCNNGI@label@
	DD	FLAT:??_C@_06HFKPFKMP@button@
	DD	FLAT:??_C@_03PKHLKDKD@pre@
	DD	FLAT:??_C@_01JBBJJEPG@p@
	DD	FLAT:??_C@_03FEJMGOGI@div@
	DD	FLAT:??_C@_06BBLOAEEI@center@
	DD	FLAT:??_C@_08NOCGLLG@noscript@
	DD	FLAT:??_C@_08NAAIELI@noframes@
	DD	FLAT:??_C@_0L@NKGPHNMG@blockquote@
	DD	FLAT:??_C@_07JMLOFMGP@isindex@
	DD	FLAT:??_C@_02FLHDKHAB@hr@
	DD	FLAT:??_C@_05LCLENNFI@table@
	DD	FLAT:??_C@_08EPOEGPEK@fieldset@
	DD	FLAT:??_C@_07LHEPONKL@address@
	DD	00H
_form_attrs DD	FLAT:??_C@_02EGCJHIOB@id@
	DD	FLAT:??_C@_05ENKANFLO@class@
	DD	FLAT:??_C@_05IAKJCFIM@style@
	DD	FLAT:??_C@_05PHLGJONK@title@
	DD	FLAT:??_C@_04IOHABJIC@lang@
	DD	FLAT:??_C@_03DAPAKLGM@dir@
	DD	FLAT:??_C@_07BAILDNBN@onclick@
	DD	FLAT:??_C@_0L@BPDJNBPF@ondblclick@
	DD	FLAT:??_C@_0M@LPLDHDON@onmousedown@
	DD	FLAT:??_C@_09KEIMJDF@onmouseup@
	DD	FLAT:??_C@_0M@BMKHHAKK@onmouseover@
	DD	FLAT:??_C@_0L@CEIFEFAI@onmouseout@
	DD	FLAT:??_C@_0L@HBNKHJBD@onkeypress@
	DD	FLAT:??_C@_09HFCNBPMA@onkeydown@
	DD	FLAT:??_C@_07BAEMJOMG@onkeyup@
	DD	FLAT:??_C@_06GABBCIBA@method@
	DD	FLAT:??_C@_07BCBJKKO@enctype@
	DD	FLAT:??_C@_06MPKMECK@accept@
	DD	FLAT:??_C@_04MEMAJGDJ@name@
	DD	FLAT:??_C@_08PPMJAGMH@onsubmit@
	DD	FLAT:??_C@_07CDGCELIF@onreset@
	DD	FLAT:??_C@_0P@IIOBAHEN@accept?9charset@
	DD	00H
_frameset_attrs DD FLAT:??_C@_02EGCJHIOB@id@
	DD	FLAT:??_C@_05ENKANFLO@class@
	DD	FLAT:??_C@_05IAKJCFIM@style@
	DD	FLAT:??_C@_05PHLGJONK@title@
	DD	FLAT:??_C@_04IMCGAIPI@rows@
	DD	FLAT:??_C@_04MBNFPKFL@cols@
	DD	FLAT:??_C@_06FKJAAAAK@onload@
	DD	FLAT:??_C@_08KEOAPEKG@onunload@
	DD	00H
_frameset_contents DD FLAT:??_C@_08GMEGJMDB@frameset@
	DD	FLAT:??_C@_05MIJNFGED@frame@
	DD	FLAT:??_C@_08NAAIELI@noframes@
	DD	00H
_head_attrs DD	FLAT:??_C@_04IOHABJIC@lang@
	DD	FLAT:??_C@_03DAPAKLGM@dir@
	DD	FLAT:??_C@_07LNMDFKEJ@profile@
	DD	00H
_head_contents DD FLAT:??_C@_05PHLGJONK@title@
	DD	FLAT:??_C@_07JMLOFMGP@isindex@
	DD	FLAT:??_C@_04BHIIPFEC@base@
	DD	FLAT:??_C@_06OLONEIEH@script@
	DD	FLAT:??_C@_05IAKJCFIM@style@
	DD	FLAT:??_C@_04HLJJCGEF@meta@
	DD	FLAT:??_C@_04OHHBHOGB@link@
	DD	FLAT:??_C@_06IEOJBDIK@object@
	DD	00H
_hr_depr DD	FLAT:??_C@_05CBJPDLOK@align@
	DD	FLAT:??_C@_07NCHIIBII@noshade@
	DD	FLAT:??_C@_04IAGNFIBA@size@
	DD	FLAT:??_C@_05IGKADHGO@width@
	DD	00H
_version_attr DD FLAT:??_C@_07CPCPJPKL@version@
	DD	00H
_html_content DD FLAT:??_C@_04NEODDMOL@head@
	DD	FLAT:??_C@_04IEJGKNJ@body@
	DD	FLAT:??_C@_08GMEGJMDB@frameset@
	DD	00H
_iframe_attrs DD FLAT:??_C@_02EGCJHIOB@id@
	DD	FLAT:??_C@_05ENKANFLO@class@
	DD	FLAT:??_C@_05IAKJCFIM@style@
	DD	FLAT:??_C@_05PHLGJONK@title@
	DD	FLAT:??_C@_08BMDPBLHN@longdesc@
	DD	FLAT:??_C@_04MEMAJGDJ@name@
	DD	FLAT:??_C@_03LOJEKLML@src@
	DD	FLAT:??_C@_0M@GPMBJNCP@frameborder@
	DD	FLAT:??_C@_0M@LFIDEBFM@marginwidth@
	DD	FLAT:??_C@_0N@HFFDDCPA@marginheight@
	DD	FLAT:??_C@_09PKEBEIDM@scrolling@
	DD	FLAT:??_C@_05CBJPDLOK@align@
	DD	FLAT:??_C@_06LNLHEAAG@height@
	DD	FLAT:??_C@_05IGKADHGO@width@
	DD	00H
_meta_attrs DD	FLAT:??_C@_04IOHABJIC@lang@
	DD	FLAT:??_C@_03DAPAKLGM@dir@
	DD	FLAT:??_C@_0L@NALBGOHO@http?9equiv@
	DD	FLAT:??_C@_04MEMAJGDJ@name@
	DD	FLAT:??_C@_06MMEMGLOP@scheme@
	DD	FLAT:??_C@_07EAJPFAFH@charset@
	DD	00H
_img_attrs DD	FLAT:??_C@_02EGCJHIOB@id@
	DD	FLAT:??_C@_05ENKANFLO@class@
	DD	FLAT:??_C@_05IAKJCFIM@style@
	DD	FLAT:??_C@_05PHLGJONK@title@
	DD	FLAT:??_C@_04IOHABJIC@lang@
	DD	FLAT:??_C@_03DAPAKLGM@dir@
	DD	FLAT:??_C@_07BAILDNBN@onclick@
	DD	FLAT:??_C@_0L@BPDJNBPF@ondblclick@
	DD	FLAT:??_C@_0M@LPLDHDON@onmousedown@
	DD	FLAT:??_C@_09KEIMJDF@onmouseup@
	DD	FLAT:??_C@_0M@BMKHHAKK@onmouseover@
	DD	FLAT:??_C@_0L@CEIFEFAI@onmouseout@
	DD	FLAT:??_C@_0L@HBNKHJBD@onkeypress@
	DD	FLAT:??_C@_09HFCNBPMA@onkeydown@
	DD	FLAT:??_C@_07BAEMJOMG@onkeyup@
	DD	FLAT:??_C@_08BMDPBLHN@longdesc@
	DD	FLAT:??_C@_04MEMAJGDJ@name@
	DD	FLAT:??_C@_06LNLHEAAG@height@
	DD	FLAT:??_C@_05IGKADHGO@width@
	DD	FLAT:??_C@_06KPMBKPGA@usemap@
	DD	FLAT:??_C@_05HANCGNOO@ismap@
	DD	00H
_embed_attrs DD	FLAT:??_C@_02EGCJHIOB@id@
	DD	FLAT:??_C@_05ENKANFLO@class@
	DD	FLAT:??_C@_05IAKJCFIM@style@
	DD	FLAT:??_C@_05PHLGJONK@title@
	DD	FLAT:??_C@_05CBJPDLOK@align@
	DD	FLAT:??_C@_03FHLPDODD@alt@
	DD	FLAT:??_C@_06ODFLABIG@border@
	DD	FLAT:??_C@_04NDFOBODE@code@
	DD	FLAT:??_C@_08HMEGOPJI@codebase@
	DD	FLAT:??_C@_0M@GPMBJNCP@frameborder@
	DD	FLAT:??_C@_06LNLHEAAG@height@
	DD	FLAT:??_C@_06JIKFICKK@hidden@
	DD	FLAT:??_C@_06HPCPMHFO@hspace@
	DD	FLAT:??_C@_04MEMAJGDJ@name@
	DD	FLAT:??_C@_07JKIHKJOO@palette@
	DD	FLAT:??_C@_0M@GDAEHHFP@pluginspace@
	DD	FLAT:??_C@_09DBOPNCLL@pluginurl@
	DD	FLAT:??_C@_03LOJEKLML@src@
	DD	FLAT:??_C@_04GPMDFGEJ@type@
	DD	FLAT:??_C@_05CCBEFJDC@units@
	DD	FLAT:??_C@_06EIMOCAMN@vspace@
	DD	FLAT:??_C@_05IGKADHGO@width@
	DD	00H
_object_depr DD	FLAT:??_C@_05CBJPDLOK@align@
	DD	FLAT:??_C@_06ODFLABIG@border@
	DD	FLAT:??_C@_06HPCPMHFO@hspace@
	DD	FLAT:??_C@_06EIMOCAMN@vspace@
	DD	00H
_input_attrs DD	FLAT:??_C@_02EGCJHIOB@id@
	DD	FLAT:??_C@_05ENKANFLO@class@
	DD	FLAT:??_C@_05IAKJCFIM@style@
	DD	FLAT:??_C@_05PHLGJONK@title@
	DD	FLAT:??_C@_04IOHABJIC@lang@
	DD	FLAT:??_C@_03DAPAKLGM@dir@
	DD	FLAT:??_C@_07BAILDNBN@onclick@
	DD	FLAT:??_C@_0L@BPDJNBPF@ondblclick@
	DD	FLAT:??_C@_0M@LPLDHDON@onmousedown@
	DD	FLAT:??_C@_09KEIMJDF@onmouseup@
	DD	FLAT:??_C@_0M@BMKHHAKK@onmouseover@
	DD	FLAT:??_C@_0L@CEIFEFAI@onmouseout@
	DD	FLAT:??_C@_0L@HBNKHJBD@onkeypress@
	DD	FLAT:??_C@_09HFCNBPMA@onkeydown@
	DD	FLAT:??_C@_07BAEMJOMG@onkeyup@
	DD	FLAT:??_C@_04GPMDFGEJ@type@
	DD	FLAT:??_C@_04MEMAJGDJ@name@
	DD	FLAT:??_C@_05MFEJDJP@value@
	DD	FLAT:??_C@_07FJOBMBFC@checked@
	DD	FLAT:??_C@_08BEHKFNNO@disabled@
	DD	FLAT:??_C@_08JOKHDEJH@readonly@
	DD	FLAT:??_C@_04IAGNFIBA@size@
	DD	FLAT:??_C@_09GGMBJIEG@maxlength@
	DD	FLAT:??_C@_03LOJEKLML@src@
	DD	FLAT:??_C@_03FHLPDODD@alt@
	DD	FLAT:??_C@_06KPMBKPGA@usemap@
	DD	FLAT:??_C@_05HANCGNOO@ismap@
	DD	FLAT:??_C@_08KAJGIJLO@tabindex@
	DD	FLAT:??_C@_09KPFGNPLK@accesskey@
	DD	FLAT:??_C@_07PCOLHBIB@onfocus@
	DD	FLAT:??_C@_06PAKCKPPO@onblur@
	DD	FLAT:??_C@_08ILAMBHAE@onselect@
	DD	FLAT:??_C@_08CLANFAGI@onchange@
	DD	FLAT:??_C@_06MPKMECK@accept@
	DD	00H
_prompt_attrs DD FLAT:??_C@_02EGCJHIOB@id@
	DD	FLAT:??_C@_05ENKANFLO@class@
	DD	FLAT:??_C@_05IAKJCFIM@style@
	DD	FLAT:??_C@_05PHLGJONK@title@
	DD	FLAT:??_C@_04IOHABJIC@lang@
	DD	FLAT:??_C@_03DAPAKLGM@dir@
	DD	FLAT:??_C@_06FJNEHIA@prompt@
	DD	00H
_param_attrs DD	FLAT:??_C@_02EGCJHIOB@id@
	DD	FLAT:??_C@_05MFEJDJP@value@
	DD	FLAT:??_C@_09JLAJHNIL@valuetype@
	DD	FLAT:??_C@_04GPMDFGEJ@type@
	DD	00H
_label_attrs DD	FLAT:??_C@_02EGCJHIOB@id@
	DD	FLAT:??_C@_05ENKANFLO@class@
	DD	FLAT:??_C@_05IAKJCFIM@style@
	DD	FLAT:??_C@_05PHLGJONK@title@
	DD	FLAT:??_C@_04IOHABJIC@lang@
	DD	FLAT:??_C@_03DAPAKLGM@dir@
	DD	FLAT:??_C@_07BAILDNBN@onclick@
	DD	FLAT:??_C@_0L@BPDJNBPF@ondblclick@
	DD	FLAT:??_C@_0M@LPLDHDON@onmousedown@
	DD	FLAT:??_C@_09KEIMJDF@onmouseup@
	DD	FLAT:??_C@_0M@BMKHHAKK@onmouseover@
	DD	FLAT:??_C@_0L@CEIFEFAI@onmouseout@
	DD	FLAT:??_C@_0L@HBNKHJBD@onkeypress@
	DD	FLAT:??_C@_09HFCNBPMA@onkeydown@
	DD	FLAT:??_C@_07BAEMJOMG@onkeyup@
	DD	FLAT:??_C@_03JOHEBPFF@for@
	DD	FLAT:??_C@_09KPFGNPLK@accesskey@
	DD	FLAT:??_C@_07PCOLHBIB@onfocus@
	DD	FLAT:??_C@_06PAKCKPPO@onblur@
	DD	00H
_legend_attrs DD FLAT:??_C@_02EGCJHIOB@id@
	DD	FLAT:??_C@_05ENKANFLO@class@
	DD	FLAT:??_C@_05IAKJCFIM@style@
	DD	FLAT:??_C@_05PHLGJONK@title@
	DD	FLAT:??_C@_04IOHABJIC@lang@
	DD	FLAT:??_C@_03DAPAKLGM@dir@
	DD	FLAT:??_C@_07BAILDNBN@onclick@
	DD	FLAT:??_C@_0L@BPDJNBPF@ondblclick@
	DD	FLAT:??_C@_0M@LPLDHDON@onmousedown@
	DD	FLAT:??_C@_09KEIMJDF@onmouseup@
	DD	FLAT:??_C@_0M@BMKHHAKK@onmouseover@
	DD	FLAT:??_C@_0L@CEIFEFAI@onmouseout@
	DD	FLAT:??_C@_0L@HBNKHJBD@onkeypress@
	DD	FLAT:??_C@_09HFCNBPMA@onkeydown@
	DD	FLAT:??_C@_07BAEMJOMG@onkeyup@
	DD	FLAT:??_C@_09KPFGNPLK@accesskey@
	DD	00H
_align_attr DD	FLAT:??_C@_05CBJPDLOK@align@
	DD	00H
_select_content DD FLAT:??_C@_08KGPIHINJ@optgroup@
	DD	FLAT:??_C@_06OGMGCFPO@option@
	DD	00H
_link_attrs DD	FLAT:??_C@_02EGCJHIOB@id@
	DD	FLAT:??_C@_05ENKANFLO@class@
	DD	FLAT:??_C@_05IAKJCFIM@style@
	DD	FLAT:??_C@_05PHLGJONK@title@
	DD	FLAT:??_C@_04IOHABJIC@lang@
	DD	FLAT:??_C@_03DAPAKLGM@dir@
	DD	FLAT:??_C@_07BAILDNBN@onclick@
	DD	FLAT:??_C@_0L@BPDJNBPF@ondblclick@
	DD	FLAT:??_C@_0M@LPLDHDON@onmousedown@
	DD	FLAT:??_C@_09KEIMJDF@onmouseup@
	DD	FLAT:??_C@_0M@BMKHHAKK@onmouseover@
	DD	FLAT:??_C@_0L@CEIFEFAI@onmouseout@
	DD	FLAT:??_C@_0L@HBNKHJBD@onkeypress@
	DD	FLAT:??_C@_09HFCNBPMA@onkeydown@
	DD	FLAT:??_C@_07BAEMJOMG@onkeyup@
	DD	FLAT:??_C@_07EAJPFAFH@charset@
	DD	FLAT:??_C@_04CMBCJJJD@href@
	DD	FLAT:??_C@_08KALGMAGF@hreflang@
	DD	FLAT:??_C@_04GPMDFGEJ@type@
	DD	FLAT:??_C@_03JINJGFJE@rel@
	DD	FLAT:??_C@_03CIPEJPEP@rev@
	DD	FLAT:??_C@_05CECBHAPI@media@
	DD	00H
_style_attrs DD	FLAT:??_C@_04IOHABJIC@lang@
	DD	FLAT:??_C@_03DAPAKLGM@dir@
	DD	FLAT:??_C@_05CECBHAPI@media@
	DD	FLAT:??_C@_05PHLGJONK@title@
	DD	00H
_map_contents DD FLAT:??_C@_02IACHLLMH@h1@
	DD	FLAT:??_C@_02KLAKOIAE@h2@
	DD	FLAT:??_C@_02LCBBNJEF@h3@
	DD	FLAT:??_C@_02PNFAEPIC@h4@
	DD	FLAT:??_C@_02OEELHOMD@h5@
	DD	FLAT:??_C@_02MPGGCNAA@h6@
	DD	FLAT:??_C@_02JLMMKIPN@ul@
	DD	FLAT:??_C@_02IKHNIOFL@ol@
	DD	FLAT:??_C@_03DAPAKLGM@dir@
	DD	FLAT:??_C@_04EEIGNHLG@menu@
	DD	FLAT:??_C@_03PKHLKDKD@pre@
	DD	FLAT:??_C@_01JBBJJEPG@p@
	DD	FLAT:??_C@_02IGCIGBLK@dl@
	DD	FLAT:??_C@_03FEJMGOGI@div@
	DD	FLAT:??_C@_06BBLOAEEI@center@
	DD	FLAT:??_C@_08NOCGLLG@noscript@
	DD	FLAT:??_C@_08NAAIELI@noframes@
	DD	FLAT:??_C@_0L@NKGPHNMG@blockquote@
	DD	FLAT:??_C@_04MLMMMEIO@form@
	DD	FLAT:??_C@_07JMLOFMGP@isindex@
	DD	FLAT:??_C@_02FLHDKHAB@hr@
	DD	FLAT:??_C@_05LCLENNFI@table@
	DD	FLAT:??_C@_08EPOEGPEK@fieldset@
	DD	FLAT:??_C@_07LHEPONKL@address@
	DD	FLAT:??_C@_04GOEDGNCF@area@
	DD	00H
_name_attr DD	FLAT:??_C@_04MEMAJGDJ@name@
	DD	00H
_action_attr DD	FLAT:??_C@_06DDLLCOJG@action@
	DD	00H
_blockli_elt DD	FLAT:??_C@_02IACHLLMH@h1@
	DD	FLAT:??_C@_02KLAKOIAE@h2@
	DD	FLAT:??_C@_02LCBBNJEF@h3@
	DD	FLAT:??_C@_02PNFAEPIC@h4@
	DD	FLAT:??_C@_02OEELHOMD@h5@
	DD	FLAT:??_C@_02MPGGCNAA@h6@
	DD	FLAT:??_C@_02JLMMKIPN@ul@
	DD	FLAT:??_C@_02IKHNIOFL@ol@
	DD	FLAT:??_C@_03DAPAKLGM@dir@
	DD	FLAT:??_C@_04EEIGNHLG@menu@
	DD	FLAT:??_C@_03PKHLKDKD@pre@
	DD	FLAT:??_C@_01JBBJJEPG@p@
	DD	FLAT:??_C@_02IGCIGBLK@dl@
	DD	FLAT:??_C@_03FEJMGOGI@div@
	DD	FLAT:??_C@_06BBLOAEEI@center@
	DD	FLAT:??_C@_08NOCGLLG@noscript@
	DD	FLAT:??_C@_08NAAIELI@noframes@
	DD	FLAT:??_C@_0L@NKGPHNMG@blockquote@
	DD	FLAT:??_C@_04MLMMMEIO@form@
	DD	FLAT:??_C@_07JMLOFMGP@isindex@
	DD	FLAT:??_C@_02FLHDKHAB@hr@
	DD	FLAT:??_C@_05LCLENNFI@table@
	DD	FLAT:??_C@_08EPOEGPEK@fieldset@
	DD	FLAT:??_C@_07LHEPONKL@address@
	DD	FLAT:??_C@_02PFEMMEEH@li@
	DD	00H
_content_attr DD FLAT:??_C@_07ICAJMOAO@content@
	DD	00H
_type_attr DD	FLAT:??_C@_04GPMDFGEJ@type@
	DD	00H
_noframes_content DD FLAT:??_C@_04IEJGKNJ@body@
	DD	FLAT:??_C@_02IACHLLMH@h1@
	DD	FLAT:??_C@_02KLAKOIAE@h2@
	DD	FLAT:??_C@_02LCBBNJEF@h3@
	DD	FLAT:??_C@_02PNFAEPIC@h4@
	DD	FLAT:??_C@_02OEELHOMD@h5@
	DD	FLAT:??_C@_02MPGGCNAA@h6@
	DD	FLAT:??_C@_02JLMMKIPN@ul@
	DD	FLAT:??_C@_02IKHNIOFL@ol@
	DD	FLAT:??_C@_03DAPAKLGM@dir@
	DD	FLAT:??_C@_04EEIGNHLG@menu@
	DD	FLAT:??_C@_03PKHLKDKD@pre@
	DD	FLAT:??_C@_01JBBJJEPG@p@
	DD	FLAT:??_C@_02IGCIGBLK@dl@
	DD	FLAT:??_C@_03FEJMGOGI@div@
	DD	FLAT:??_C@_06BBLOAEEI@center@
	DD	FLAT:??_C@_08NOCGLLG@noscript@
	DD	FLAT:??_C@_08NAAIELI@noframes@
	DD	FLAT:??_C@_0L@NKGPHNMG@blockquote@
	DD	FLAT:??_C@_04MLMMMEIO@form@
	DD	FLAT:??_C@_07JMLOFMGP@isindex@
	DD	FLAT:??_C@_02FLHDKHAB@hr@
	DD	FLAT:??_C@_05LCLENNFI@table@
	DD	FLAT:??_C@_08EPOEGPEK@fieldset@
	DD	FLAT:??_C@_07LHEPONKL@address@
	DD	FLAT:??_C@_02BIBFFKJD@tt@
	DD	FLAT:??_C@_01KBJDNOO@i@
	DD	FLAT:??_C@_01OJONOECF@b@
	DD	FLAT:??_C@_01OMGOGALD@u@
	DD	FLAT:??_C@_01LKDEMHDF@s@
	DD	FLAT:??_C@_06LGJEBFOF@strike@
	DD	FLAT:??_C@_03CCCOBCKE@big@
	DD	FLAT:??_C@_05KJDGBEEG@small@
	DD	FLAT:??_C@_02JOPBDKMM@em@
	DD	FLAT:??_C@_06KHACOKFA@strong@
	DD	FLAT:??_C@_03NNNLLBAM@dfn@
	DD	FLAT:??_C@_04NDFOBODE@code@
	DD	FLAT:??_C@_04GLAFCDBO@samp@
	DD	FLAT:??_C@_03HIFOOBAM@kbd@
	DD	FLAT:??_C@_03MEPDGFMA@var@
	DD	FLAT:??_C@_04OKBDOCJI@cite@
	DD	FLAT:??_C@_04FKPKGNKN@abbr@
	DD	FLAT:??_C@_07DBMAFMJI@acronym@
	DD	FLAT:??_C@_01MCMALHOG@a@
	DD	FLAT:??_C@_03PCCGDNHJ@img@
	DD	FLAT:??_C@_06MJBNHHFM@applet@
	DD	FLAT:??_C@_05KJAEOLKJ@embed@
	DD	FLAT:??_C@_06IEOJBDIK@object@
	DD	FLAT:??_C@_04EFPADHIC@font@
	DD	FLAT:??_C@_08IOLGIJGJ@basefont@
	DD	FLAT:??_C@_02FGOECCNH@br@
	DD	FLAT:??_C@_06OLONEIEH@script@
	DD	FLAT:??_C@_03HBNNNHNM@map@
	DD	FLAT:??_C@_01IIACKFLH@q@
	DD	FLAT:??_C@_03KCMAIMAP@sub@
	DD	FLAT:??_C@_03NKDEPMNM@sup@
	DD	FLAT:??_C@_04FOPLNFFP@span@
	DD	FLAT:??_C@_03OCCPALPP@bdo@
	DD	FLAT:??_C@_06PKBNCBKI@iframe@
	DD	FLAT:??_C@_05DFJCHPDH@input@
	DD	FLAT:??_C@_06LGNCCACI@select@
	DD	FLAT:??_C@_08DEBIGDAL@textarea@
	DD	FLAT:??_C@_05IDCCNNGI@label@
	DD	FLAT:??_C@_06HFKPFKMP@button@
	DD	00H
_table_depr DD	FLAT:??_C@_05CBJPDLOK@align@
	DD	FLAT:??_C@_07PMHCLHIB@bgcolor@
	DD	00H
_object_contents DD FLAT:??_C@_02IACHLLMH@h1@
	DD	FLAT:??_C@_02KLAKOIAE@h2@
	DD	FLAT:??_C@_02LCBBNJEF@h3@
	DD	FLAT:??_C@_02PNFAEPIC@h4@
	DD	FLAT:??_C@_02OEELHOMD@h5@
	DD	FLAT:??_C@_02MPGGCNAA@h6@
	DD	FLAT:??_C@_02JLMMKIPN@ul@
	DD	FLAT:??_C@_02IKHNIOFL@ol@
	DD	FLAT:??_C@_03DAPAKLGM@dir@
	DD	FLAT:??_C@_04EEIGNHLG@menu@
	DD	FLAT:??_C@_03PKHLKDKD@pre@
	DD	FLAT:??_C@_01JBBJJEPG@p@
	DD	FLAT:??_C@_02IGCIGBLK@dl@
	DD	FLAT:??_C@_03FEJMGOGI@div@
	DD	FLAT:??_C@_06BBLOAEEI@center@
	DD	FLAT:??_C@_08NOCGLLG@noscript@
	DD	FLAT:??_C@_08NAAIELI@noframes@
	DD	FLAT:??_C@_0L@NKGPHNMG@blockquote@
	DD	FLAT:??_C@_04MLMMMEIO@form@
	DD	FLAT:??_C@_07JMLOFMGP@isindex@
	DD	FLAT:??_C@_02FLHDKHAB@hr@
	DD	FLAT:??_C@_05LCLENNFI@table@
	DD	FLAT:??_C@_08EPOEGPEK@fieldset@
	DD	FLAT:??_C@_07LHEPONKL@address@
	DD	FLAT:??_C@_02BIBFFKJD@tt@
	DD	FLAT:??_C@_01KBJDNOO@i@
	DD	FLAT:??_C@_01OJONOECF@b@
	DD	FLAT:??_C@_01OMGOGALD@u@
	DD	FLAT:??_C@_01LKDEMHDF@s@
	DD	FLAT:??_C@_06LGJEBFOF@strike@
	DD	FLAT:??_C@_03CCCOBCKE@big@
	DD	FLAT:??_C@_05KJDGBEEG@small@
	DD	FLAT:??_C@_02JOPBDKMM@em@
	DD	FLAT:??_C@_06KHACOKFA@strong@
	DD	FLAT:??_C@_03NNNLLBAM@dfn@
	DD	FLAT:??_C@_04NDFOBODE@code@
	DD	FLAT:??_C@_04GLAFCDBO@samp@
	DD	FLAT:??_C@_03HIFOOBAM@kbd@
	DD	FLAT:??_C@_03MEPDGFMA@var@
	DD	FLAT:??_C@_04OKBDOCJI@cite@
	DD	FLAT:??_C@_04FKPKGNKN@abbr@
	DD	FLAT:??_C@_07DBMAFMJI@acronym@
	DD	FLAT:??_C@_01MCMALHOG@a@
	DD	FLAT:??_C@_03PCCGDNHJ@img@
	DD	FLAT:??_C@_06MJBNHHFM@applet@
	DD	FLAT:??_C@_05KJAEOLKJ@embed@
	DD	FLAT:??_C@_06IEOJBDIK@object@
	DD	FLAT:??_C@_04EFPADHIC@font@
	DD	FLAT:??_C@_08IOLGIJGJ@basefont@
	DD	FLAT:??_C@_02FGOECCNH@br@
	DD	FLAT:??_C@_06OLONEIEH@script@
	DD	FLAT:??_C@_03HBNNNHNM@map@
	DD	FLAT:??_C@_01IIACKFLH@q@
	DD	FLAT:??_C@_03KCMAIMAP@sub@
	DD	FLAT:??_C@_03NKDEPMNM@sup@
	DD	FLAT:??_C@_04FOPLNFFP@span@
	DD	FLAT:??_C@_03OCCPALPP@bdo@
	DD	FLAT:??_C@_06PKBNCBKI@iframe@
	DD	FLAT:??_C@_05DFJCHPDH@input@
	DD	FLAT:??_C@_06LGNCCACI@select@
	DD	FLAT:??_C@_08DEBIGDAL@textarea@
	DD	FLAT:??_C@_05IDCCNNGI@label@
	DD	FLAT:??_C@_06HFKPFKMP@button@
	DD	FLAT:??_C@_05LJDNNBIK@param@
	DD	00H
_th_td_depr DD	FLAT:??_C@_06KMFGCGJP@nowrap@
	DD	FLAT:??_C@_07PMHCLHIB@bgcolor@
	DD	FLAT:??_C@_05IGKADHGO@width@
	DD	FLAT:??_C@_06LNLHEAAG@height@
	DD	00H
_object_attrs DD FLAT:??_C@_02EGCJHIOB@id@
	DD	FLAT:??_C@_05ENKANFLO@class@
	DD	FLAT:??_C@_05IAKJCFIM@style@
	DD	FLAT:??_C@_05PHLGJONK@title@
	DD	FLAT:??_C@_04IOHABJIC@lang@
	DD	FLAT:??_C@_03DAPAKLGM@dir@
	DD	FLAT:??_C@_07BAILDNBN@onclick@
	DD	FLAT:??_C@_0L@BPDJNBPF@ondblclick@
	DD	FLAT:??_C@_0M@LPLDHDON@onmousedown@
	DD	FLAT:??_C@_09KEIMJDF@onmouseup@
	DD	FLAT:??_C@_0M@BMKHHAKK@onmouseover@
	DD	FLAT:??_C@_0L@CEIFEFAI@onmouseout@
	DD	FLAT:??_C@_0L@HBNKHJBD@onkeypress@
	DD	FLAT:??_C@_09HFCNBPMA@onkeydown@
	DD	FLAT:??_C@_07BAEMJOMG@onkeyup@
	DD	FLAT:??_C@_07JDFLJJH@declare@
	DD	FLAT:??_C@_07MKGILGMB@classid@
	DD	FLAT:??_C@_08HMEGOPJI@codebase@
	DD	FLAT:??_C@_04PJOLNDGD@data@
	DD	FLAT:??_C@_04GPMDFGEJ@type@
	DD	FLAT:??_C@_08EANEMJD@codetype@
	DD	FLAT:??_C@_07NEJBDDEA@archive@
	DD	FLAT:??_C@_07EEGFOKKL@standby@
	DD	FLAT:??_C@_06LNLHEAAG@height@
	DD	FLAT:??_C@_05IGKADHGO@width@
	DD	FLAT:??_C@_06KPMBKPGA@usemap@
	DD	FLAT:??_C@_04MEMAJGDJ@name@
	DD	FLAT:??_C@_08KAJGIJLO@tabindex@
	DD	00H
_ol_attrs DD	FLAT:??_C@_04GPMDFGEJ@type@
	DD	FLAT:??_C@_07HGKHBOGE@compact@
	DD	FLAT:??_C@_05FAGFPHJG@start@
	DD	00H
_option_elt DD	FLAT:??_C@_06OGMGCFPO@option@
	DD	00H
_tr_contents DD	FLAT:??_C@_02POGCAHMO@th@
	DD	FLAT:??_C@_02FCNHEIMC@td@
	DD	00H
_optgroup_attrs DD FLAT:??_C@_02EGCJHIOB@id@
	DD	FLAT:??_C@_05ENKANFLO@class@
	DD	FLAT:??_C@_05IAKJCFIM@style@
	DD	FLAT:??_C@_05PHLGJONK@title@
	DD	FLAT:??_C@_04IOHABJIC@lang@
	DD	FLAT:??_C@_03DAPAKLGM@dir@
	DD	FLAT:??_C@_07BAILDNBN@onclick@
	DD	FLAT:??_C@_0L@BPDJNBPF@ondblclick@
	DD	FLAT:??_C@_0M@LPLDHDON@onmousedown@
	DD	FLAT:??_C@_09KEIMJDF@onmouseup@
	DD	FLAT:??_C@_0M@BMKHHAKK@onmouseover@
	DD	FLAT:??_C@_0L@CEIFEFAI@onmouseout@
	DD	FLAT:??_C@_0L@HBNKHJBD@onkeypress@
	DD	FLAT:??_C@_09HFCNBPMA@onkeydown@
	DD	FLAT:??_C@_07BAEMJOMG@onkeyup@
	DD	FLAT:??_C@_08BEHKFNNO@disabled@
	DD	00H
_ul_depr DD	FLAT:??_C@_04GPMDFGEJ@type@
	DD	FLAT:??_C@_07HGKHBOGE@compact@
	DD	00H
_option_attrs DD FLAT:??_C@_02EGCJHIOB@id@
	DD	FLAT:??_C@_05ENKANFLO@class@
	DD	FLAT:??_C@_05IAKJCFIM@style@
	DD	FLAT:??_C@_05PHLGJONK@title@
	DD	FLAT:??_C@_04IOHABJIC@lang@
	DD	FLAT:??_C@_03DAPAKLGM@dir@
	DD	FLAT:??_C@_07BAILDNBN@onclick@
	DD	FLAT:??_C@_0L@BPDJNBPF@ondblclick@
	DD	FLAT:??_C@_0M@LPLDHDON@onmousedown@
	DD	FLAT:??_C@_09KEIMJDF@onmouseup@
	DD	FLAT:??_C@_0M@BMKHHAKK@onmouseover@
	DD	FLAT:??_C@_0L@CEIFEFAI@onmouseout@
	DD	FLAT:??_C@_0L@HBNKHJBD@onkeypress@
	DD	FLAT:??_C@_09HFCNBPMA@onkeydown@
	DD	FLAT:??_C@_07BAEMJOMG@onkeyup@
	DD	FLAT:??_C@_08BEHKFNNO@disabled@
	DD	FLAT:??_C@_05IDCCNNGI@label@
	DD	FLAT:??_C@_08CJLOJPNI@selected@
	DD	FLAT:??_C@_05MFEJDJP@value@
	DD	00H
_width_attr DD	FLAT:??_C@_05IGKADHGO@width@
	DD	00H
_pre_content DD	FLAT:??_C@_02JOPBDKMM@em@
	DD	FLAT:??_C@_06KHACOKFA@strong@
	DD	FLAT:??_C@_03NNNLLBAM@dfn@
	DD	FLAT:??_C@_04NDFOBODE@code@
	DD	FLAT:??_C@_04GLAFCDBO@samp@
	DD	FLAT:??_C@_03HIFOOBAM@kbd@
	DD	FLAT:??_C@_03MEPDGFMA@var@
	DD	FLAT:??_C@_04OKBDOCJI@cite@
	DD	FLAT:??_C@_04FKPKGNKN@abbr@
	DD	FLAT:??_C@_07DBMAFMJI@acronym@
	DD	FLAT:??_C@_02BIBFFKJD@tt@
	DD	FLAT:??_C@_01KBJDNOO@i@
	DD	FLAT:??_C@_01OJONOECF@b@
	DD	FLAT:??_C@_01OMGOGALD@u@
	DD	FLAT:??_C@_01LKDEMHDF@s@
	DD	FLAT:??_C@_06LGJEBFOF@strike@
	DD	FLAT:??_C@_01MCMALHOG@a@
	DD	FLAT:??_C@_02FGOECCNH@br@
	DD	FLAT:??_C@_06OLONEIEH@script@
	DD	FLAT:??_C@_03HBNNNHNM@map@
	DD	FLAT:??_C@_01IIACKFLH@q@
	DD	FLAT:??_C@_04FOPLNFFP@span@
	DD	FLAT:??_C@_03OCCPALPP@bdo@
	DD	FLAT:??_C@_06PKBNCBKI@iframe@
	DD	00H
_script_attrs DD FLAT:??_C@_07EAJPFAFH@charset@
	DD	FLAT:??_C@_03LOJEKLML@src@
	DD	FLAT:??_C@_05MBNCFBEN@defer@
	DD	FLAT:??_C@_05GFHEIIDD@event@
	DD	FLAT:??_C@_03JOHEBPFF@for@
	DD	00H
_language_attr DD FLAT:??_C@_08JGCCIMAA@language@
	DD	00H
	ORG $+4
_select_attrs DD FLAT:??_C@_02EGCJHIOB@id@
	DD	FLAT:??_C@_05ENKANFLO@class@
	DD	FLAT:??_C@_05IAKJCFIM@style@
	DD	FLAT:??_C@_05PHLGJONK@title@
	DD	FLAT:??_C@_04IOHABJIC@lang@
	DD	FLAT:??_C@_03DAPAKLGM@dir@
	DD	FLAT:??_C@_07BAILDNBN@onclick@
	DD	FLAT:??_C@_0L@BPDJNBPF@ondblclick@
	DD	FLAT:??_C@_0M@LPLDHDON@onmousedown@
	DD	FLAT:??_C@_09KEIMJDF@onmouseup@
	DD	FLAT:??_C@_0M@BMKHHAKK@onmouseover@
	DD	FLAT:??_C@_0L@CEIFEFAI@onmouseout@
	DD	FLAT:??_C@_0L@HBNKHJBD@onkeypress@
	DD	FLAT:??_C@_09HFCNBPMA@onkeydown@
	DD	FLAT:??_C@_07BAEMJOMG@onkeyup@
	DD	FLAT:??_C@_04MEMAJGDJ@name@
	DD	FLAT:??_C@_04IAGNFIBA@size@
	DD	FLAT:??_C@_08CKJFGDBG@multiple@
	DD	FLAT:??_C@_08BEHKFNNO@disabled@
	DD	FLAT:??_C@_08KAJGIJLO@tabindex@
	DD	FLAT:??_C@_07PCOLHBIB@onfocus@
	DD	FLAT:??_C@_06PAKCKPPO@onblur@
	DD	FLAT:??_C@_08CLANFAGI@onchange@
	DD	00H
_table_attrs DD	FLAT:??_C@_02EGCJHIOB@id@
	DD	FLAT:??_C@_05ENKANFLO@class@
	DD	FLAT:??_C@_05IAKJCFIM@style@
	DD	FLAT:??_C@_05PHLGJONK@title@
	DD	FLAT:??_C@_04IOHABJIC@lang@
	DD	FLAT:??_C@_03DAPAKLGM@dir@
	DD	FLAT:??_C@_07BAILDNBN@onclick@
	DD	FLAT:??_C@_0L@BPDJNBPF@ondblclick@
	DD	FLAT:??_C@_0M@LPLDHDON@onmousedown@
	DD	FLAT:??_C@_09KEIMJDF@onmouseup@
	DD	FLAT:??_C@_0M@BMKHHAKK@onmouseover@
	DD	FLAT:??_C@_0L@CEIFEFAI@onmouseout@
	DD	FLAT:??_C@_0L@HBNKHJBD@onkeypress@
	DD	FLAT:??_C@_09HFCNBPMA@onkeydown@
	DD	FLAT:??_C@_07BAEMJOMG@onkeyup@
	DD	FLAT:??_C@_07PJIIAIPG@summary@
	DD	FLAT:??_C@_05IGKADHGO@width@
	DD	FLAT:??_C@_06ODFLABIG@border@
	DD	FLAT:??_C@_05MIJNFGED@frame@
	DD	FLAT:??_C@_05CBLPGGM@rules@
	DD	FLAT:??_C@_0M@HGLPBPKF@cellspacing@
	DD	FLAT:??_C@_0M@NLHEMCJP@cellpadding@
	DD	FLAT:??_C@_0N@LOJCLIGN@datapagesize@
	DD	00H
_table_contents DD FLAT:??_C@_07BANDPJOM@caption@
	DD	FLAT:??_C@_03HNOLNALI@col@
	DD	FLAT:??_C@_08LBGGHKOD@colgroup@
	DD	FLAT:??_C@_05DDLACFIC@thead@
	DD	FLAT:??_C@_05KDGBEENM@tfoot@
	DD	FLAT:??_C@_05OPBKHDLA@tbody@
	DD	FLAT:??_C@_02EOEPPNBF@tr@
	DD	00H
_tr_elt	DD	FLAT:??_C@_02EOEPPNBF@tr@
	DD	00H
_talign_attrs DD FLAT:??_C@_02EGCJHIOB@id@
	DD	FLAT:??_C@_05ENKANFLO@class@
	DD	FLAT:??_C@_05IAKJCFIM@style@
	DD	FLAT:??_C@_05PHLGJONK@title@
	DD	FLAT:??_C@_04IOHABJIC@lang@
	DD	FLAT:??_C@_03DAPAKLGM@dir@
	DD	FLAT:??_C@_07BAILDNBN@onclick@
	DD	FLAT:??_C@_0L@BPDJNBPF@ondblclick@
	DD	FLAT:??_C@_0M@LPLDHDON@onmousedown@
	DD	FLAT:??_C@_09KEIMJDF@onmouseup@
	DD	FLAT:??_C@_0M@BMKHHAKK@onmouseover@
	DD	FLAT:??_C@_0L@CEIFEFAI@onmouseout@
	DD	FLAT:??_C@_0L@HBNKHJBD@onkeypress@
	DD	FLAT:??_C@_09HFCNBPMA@onkeydown@
	DD	FLAT:??_C@_07BAEMJOMG@onkeyup@
	DD	FLAT:??_C@_05CBJPDLOK@align@
	DD	FLAT:??_C@_04ENMBGAPA@char@
	DD	FLAT:??_C@_07CAOCHGPK@charoff@
	DD	FLAT:??_C@_06ICIJKACG@valign@
	DD	00H
_th_td_attr DD	FLAT:??_C@_02EGCJHIOB@id@
	DD	FLAT:??_C@_05ENKANFLO@class@
	DD	FLAT:??_C@_05IAKJCFIM@style@
	DD	FLAT:??_C@_05PHLGJONK@title@
	DD	FLAT:??_C@_04IOHABJIC@lang@
	DD	FLAT:??_C@_03DAPAKLGM@dir@
	DD	FLAT:??_C@_07BAILDNBN@onclick@
	DD	FLAT:??_C@_0L@BPDJNBPF@ondblclick@
	DD	FLAT:??_C@_0M@LPLDHDON@onmousedown@
	DD	FLAT:??_C@_09KEIMJDF@onmouseup@
	DD	FLAT:??_C@_0M@BMKHHAKK@onmouseover@
	DD	FLAT:??_C@_0L@CEIFEFAI@onmouseout@
	DD	FLAT:??_C@_0L@HBNKHJBD@onkeypress@
	DD	FLAT:??_C@_09HFCNBPMA@onkeydown@
	DD	FLAT:??_C@_07BAEMJOMG@onkeyup@
	DD	FLAT:??_C@_04FKPKGNKN@abbr@
	DD	FLAT:??_C@_04HABAAEPG@axis@
	DD	FLAT:??_C@_07LANIGEJC@headers@
	DD	FLAT:??_C@_05DCCHDMEJ@scope@
	DD	FLAT:??_C@_07HIFHGKLD@rowspan@
	DD	FLAT:??_C@_07KBFHKJFO@colspan@
	DD	FLAT:??_C@_05CBJPDLOK@align@
	DD	FLAT:??_C@_04ENMBGAPA@char@
	DD	FLAT:??_C@_07CAOCHGPK@charoff@
	DD	FLAT:??_C@_06ICIJKACG@valign@
	DD	00H
_textarea_attrs DD FLAT:??_C@_02EGCJHIOB@id@
	DD	FLAT:??_C@_05ENKANFLO@class@
	DD	FLAT:??_C@_05IAKJCFIM@style@
	DD	FLAT:??_C@_05PHLGJONK@title@
	DD	FLAT:??_C@_04IOHABJIC@lang@
	DD	FLAT:??_C@_03DAPAKLGM@dir@
	DD	FLAT:??_C@_07BAILDNBN@onclick@
	DD	FLAT:??_C@_0L@BPDJNBPF@ondblclick@
	DD	FLAT:??_C@_0M@LPLDHDON@onmousedown@
	DD	FLAT:??_C@_09KEIMJDF@onmouseup@
	DD	FLAT:??_C@_0M@BMKHHAKK@onmouseover@
	DD	FLAT:??_C@_0L@CEIFEFAI@onmouseout@
	DD	FLAT:??_C@_0L@HBNKHJBD@onkeypress@
	DD	FLAT:??_C@_09HFCNBPMA@onkeydown@
	DD	FLAT:??_C@_07BAEMJOMG@onkeyup@
	DD	FLAT:??_C@_04MEMAJGDJ@name@
	DD	FLAT:??_C@_08BEHKFNNO@disabled@
	DD	FLAT:??_C@_08JOKHDEJH@readonly@
	DD	FLAT:??_C@_08KAJGIJLO@tabindex@
	DD	FLAT:??_C@_09KPFGNPLK@accesskey@
	DD	FLAT:??_C@_07PCOLHBIB@onfocus@
	DD	FLAT:??_C@_06PAKCKPPO@onblur@
	DD	FLAT:??_C@_08ILAMBHAE@onselect@
	DD	FLAT:??_C@_08CLANFAGI@onchange@
	DD	00H
_bgcolor_attr DD FLAT:??_C@_07PMHCLHIB@bgcolor@
	DD	00H
_li_elt	DD	FLAT:??_C@_02PFEMMEEH@li@
	DD	00H
_dir_attr DD	FLAT:??_C@_03DAPAKLGM@dir@
	DD	00H
	ORG $+4
_html40ElementTable DD FLAT:??_C@_01MCMALHOG@a@
	DB	00H
	DB	00H
	DB	00H
	DB	00H
	DB	00H
	DB	00H
	DB	01H
	ORG $+1
	DD	FLAT:??_C@_07NLIDIJLK@anchor?5@
	DD	FLAT:_html_inline
	DD	00H
	DD	FLAT:_a_attrs
	DD	FLAT:_target_attr
	DD	00H
	DD	FLAT:??_C@_04FKPKGNKN@abbr@
	DB	00H
	DB	00H
	DB	00H
	DB	00H
	DB	00H
	DB	00H
	DB	01H
	ORG $+1
	DD	FLAT:??_C@_0BB@OPBMKOHB@abbreviated?5form@
	DD	FLAT:_html_inline
	DD	00H
	DD	FLAT:_html_attrs
	DD	00H
	DD	00H
	DD	FLAT:??_C@_07DBMAFMJI@acronym@
	DB	00H
	DB	00H
	DB	00H
	DB	00H
	DB	00H
	DB	00H
	DB	01H
	ORG $+1
	DD	FLAT:??_C@_00CNPNBAHC@@
	DD	FLAT:_html_inline
	DD	00H
	DD	FLAT:_html_attrs
	DD	00H
	DD	00H
	DD	FLAT:??_C@_07LHEPONKL@address@
	DB	00H
	DB	00H
	DB	00H
	DB	00H
	DB	00H
	DB	00H
	DB	00H
	ORG $+1
	DD	FLAT:??_C@_0BH@PNOGHPJ@information?5on?5author?5@
	DD	FLAT:_inline_p
	DD	00H
	DD	FLAT:_html_attrs
	DD	00H
	DD	00H
	DD	FLAT:??_C@_06MJBNHHFM@applet@
	DB	00H
	DB	00H
	DB	00H
	DB	00H
	DB	01H
	DB	01H
	DB	02H
	ORG $+1
	DD	FLAT:??_C@_0N@LANOFEKD@java?5applet?5@
	DD	FLAT:_flow_param
	DD	00H
	DD	00H
	DD	FLAT:_applet_attrs
	DD	00H
	DD	FLAT:??_C@_04GOEDGNCF@area@
	DB	00H
	DB	02H
	DB	02H
	DB	01H
	DB	00H
	DB	00H
	DB	00H
	ORG $+1
	DD	FLAT:??_C@_0BM@EIGPEHBO@client?9side?5image?5map?5area?5@
	DD	00H
	DD	00H
	DD	FLAT:_area_attrs
	DD	FLAT:_target_attr
	DD	FLAT:_alt_attr
	DD	FLAT:??_C@_01OJONOECF@b@
	DB	00H
	DB	03H
	DB	00H
	DB	00H
	DB	00H
	DB	00H
	DB	01H
	ORG $+1
	DD	FLAT:??_C@_0BA@NADNLNKK@bold?5text?5style@
	DD	FLAT:_html_inline
	DD	00H
	DD	FLAT:_html_attrs
	DD	00H
	DD	00H
	DD	FLAT:??_C@_04BHIIPFEC@base@
	DB	00H
	DB	02H
	DB	02H
	DB	01H
	DB	00H
	DB	00H
	DB	00H
	ORG $+1
	DD	FLAT:??_C@_0BD@JABNPIOC@document?5base?5uri?5@
	DD	00H
	DD	00H
	DD	00H
	DD	FLAT:_target_attr
	DD	FLAT:_href_attrs
	DD	FLAT:??_C@_08IOLGIJGJ@basefont@
	DB	00H
	DB	02H
	DB	02H
	DB	01H
	DB	01H
	DB	01H
	DB	01H
	ORG $+1
	DD	FLAT:??_C@_0BA@OGIGFOOK@base?5font?5size?5@
	DD	00H
	DD	00H
	DD	00H
	DD	FLAT:_basefont_attrs
	DD	00H
	DD	FLAT:??_C@_03OCCPALPP@bdo@
	DB	00H
	DB	00H
	DB	00H
	DB	00H
	DB	00H
	DB	00H
	DB	01H
	ORG $+1
	DD	FLAT:??_C@_0BF@EJIKDIMB@i18n?5bidi?5over?9ride?5@
	DD	FLAT:_html_inline
	DD	00H
	DD	FLAT:_core_i18n_attrs
	DD	00H
	DD	FLAT:_dir_attr
	DD	FLAT:??_C@_03CCCOBCKE@big@
	DB	00H
	DB	03H
	DB	00H
	DB	00H
	DB	00H
	DB	00H
	DB	01H
	ORG $+1
	DD	FLAT:??_C@_0BB@BAJOIDME@large?5text?5style@
	DD	FLAT:_html_inline
	DD	00H
	DD	FLAT:_html_attrs
	DD	00H
	DD	00H
	DD	FLAT:??_C@_0L@NKGPHNMG@blockquote@
	DB	00H
	DB	00H
	DB	00H
	DB	00H
	DB	00H
	DB	00H
	DB	00H
	ORG $+1
	DD	FLAT:??_C@_0BA@KOLCJLFL@long?5quotation?5@
	DD	FLAT:_html_flow
	DD	00H
	DD	FLAT:_quote_attrs
	DD	00H
	DD	00H
	DD	FLAT:??_C@_04IEJGKNJ@body@
	DB	01H
	DB	01H
	DB	00H
	DB	00H
	DB	00H
	DB	00H
	DB	00H
	ORG $+1
	DD	FLAT:??_C@_0P@MOMBBGBM@document?5body?5@
	DD	FLAT:_body_contents
	DD	FLAT:??_C@_03FEJMGOGI@div@
	DD	FLAT:_body_attrs
	DD	FLAT:_body_depr
	DD	00H
	DD	FLAT:??_C@_02FGOECCNH@br@
	DB	00H
	DB	02H
	DB	02H
	DB	01H
	DB	00H
	DB	00H
	DB	01H
	ORG $+1
	DD	FLAT:??_C@_0BD@EKEEJOJN@forced?5line?5break?5@
	DD	00H
	DD	00H
	DD	FLAT:_core_attrs
	DD	FLAT:_clear_attrs
	DD	00H
	DD	FLAT:??_C@_06HFKPFKMP@button@
	DB	00H
	DB	00H
	DB	00H
	DB	00H
	DB	00H
	DB	00H
	DB	02H
	ORG $+1
	DD	FLAT:??_C@_0N@NFGALFIH@push?5button?5@
	DD	FLAT:_html_flow
	DD	00H
	DD	FLAT:_button_attrs
	DD	00H
	DD	00H
	DD	FLAT:??_C@_07BANDPJOM@caption@
	DB	00H
	DB	00H
	DB	00H
	DB	00H
	DB	00H
	DB	00H
	DB	00H
	ORG $+1
	DD	FLAT:??_C@_0P@LNCJOIOH@table?5caption?5@
	DD	FLAT:_html_inline
	DD	00H
	DD	FLAT:_html_attrs
	DD	00H
	DD	00H
	DD	FLAT:??_C@_06BBLOAEEI@center@
	DB	00H
	DB	03H
	DB	00H
	DB	00H
	DB	01H
	DB	01H
	DB	00H
	ORG $+1
	DD	FLAT:??_C@_0CA@LHLKAMHN@shorthand?5for?5div?5align?$DNcenter?5@
	DD	FLAT:_html_flow
	DD	00H
	DD	00H
	DD	FLAT:_html_attrs
	DD	00H
	DD	FLAT:??_C@_04OKBDOCJI@cite@
	DB	00H
	DB	00H
	DB	00H
	DB	00H
	DB	00H
	DB	00H
	DB	01H
	ORG $+1
	DD	FLAT:??_C@_08JKLKPBNF@citation@
	DD	FLAT:_html_inline
	DD	00H
	DD	FLAT:_html_attrs
	DD	00H
	DD	00H
	DD	FLAT:??_C@_04NDFOBODE@code@
	DB	00H
	DB	00H
	DB	00H
	DB	00H
	DB	00H
	DB	00H
	DB	01H
	ORG $+1
	DD	FLAT:??_C@_0BH@LEOBKMKN@computer?5code?5fragment@
	DD	FLAT:_html_inline
	DD	00H
	DD	FLAT:_html_attrs
	DD	00H
	DD	00H
	DD	FLAT:??_C@_03HNOLNALI@col@
	DB	00H
	DB	02H
	DB	02H
	DB	01H
	DB	00H
	DB	00H
	DB	00H
	ORG $+1
	DD	FLAT:??_C@_0O@FGGFNENO@table?5column?5@
	DD	00H
	DD	00H
	DD	FLAT:_col_attrs
	DD	00H
	DD	00H
	DD	FLAT:??_C@_08LBGGHKOD@colgroup@
	DB	00H
	DB	01H
	DB	00H
	DB	00H
	DB	00H
	DB	00H
	DB	00H
	ORG $+1
	DD	FLAT:??_C@_0BE@LOIFNDJE@table?5column?5group?5@
	DD	FLAT:_col_elt
	DD	FLAT:??_C@_03HNOLNALI@col@
	DD	FLAT:_col_attrs
	DD	00H
	DD	00H
	DD	FLAT:??_C@_02EOPBOLLC@dd@
	DB	00H
	DB	01H
	DB	00H
	DB	00H
	DB	00H
	DB	00H
	DB	00H
	ORG $+1
	DD	FLAT:??_C@_0BI@HABKMEJP@definition?5description?5@
	DD	FLAT:_html_flow
	DD	00H
	DD	FLAT:_html_attrs
	DD	00H
	DD	00H
	DD	FLAT:??_C@_03ONKLGNNH@del@
	DB	00H
	DB	00H
	DB	00H
	DB	00H
	DB	00H
	DB	00H
	DB	02H
	ORG $+1
	DD	FLAT:??_C@_0O@HPOOFJNH@deleted?5text?5@
	DD	FLAT:_html_flow
	DD	00H
	DD	FLAT:_edit_attrs
	DD	00H
	DD	00H
	DD	FLAT:??_C@_03NNNLLBAM@dfn@
	DB	00H
	DB	00H
	DB	00H
	DB	00H
	DB	00H
	DB	00H
	DB	01H
	ORG $+1
	DD	FLAT:??_C@_0BE@BOOBDIMI@instance?5definition@
	DD	FLAT:_html_inline
	DD	00H
	DD	FLAT:_html_attrs
	DD	00H
	DD	00H
	DD	FLAT:??_C@_03DAPAKLGM@dir@
	DB	00H
	DB	00H
	DB	00H
	DB	00H
	DB	01H
	DB	01H
	DB	00H
	ORG $+1
	DD	FLAT:??_C@_0P@IKNDKLJF@directory?5list@
	DD	FLAT:_blockli_elt
	DD	FLAT:??_C@_02PFEMMEEH@li@
	DD	00H
	DD	FLAT:_compact_attrs
	DD	00H
	DD	FLAT:??_C@_03FEJMGOGI@div@
	DB	00H
	DB	00H
	DB	00H
	DB	00H
	DB	00H
	DB	00H
	DB	00H
	ORG $+1
	DD	FLAT:??_C@_0CB@MBOOJGEG@generic?5language?1style?5containe@
	DD	FLAT:_html_flow
	DD	00H
	DD	FLAT:_html_attrs
	DD	FLAT:_align_attr
	DD	00H
	DD	FLAT:??_C@_02IGCIGBLK@dl@
	DB	00H
	DB	00H
	DB	00H
	DB	00H
	DB	00H
	DB	00H
	DB	00H
	ORG $+1
	DD	FLAT:??_C@_0BB@MIKJLFPH@definition?5list?5@
	DD	FLAT:_dl_contents
	DD	FLAT:??_C@_02EOPBOLLC@dd@
	DD	FLAT:_html_attrs
	DD	FLAT:_compact_attr
	DD	00H
	DD	FLAT:??_C@_02EDDPJOD@dt@
	DB	00H
	DB	01H
	DB	00H
	DB	00H
	DB	00H
	DB	00H
	DB	00H
	ORG $+1
	DD	FLAT:??_C@_0BB@EJJHCHJK@definition?5term?5@
	DD	FLAT:_html_inline
	DD	00H
	DD	FLAT:_html_attrs
	DD	00H
	DD	00H
	DD	FLAT:??_C@_02JOPBDKMM@em@
	DB	00H
	DB	03H
	DB	00H
	DB	00H
	DB	00H
	DB	00H
	DB	01H
	ORG $+1
	DD	FLAT:??_C@_08NCOPEMNJ@emphasis@
	DD	FLAT:_html_inline
	DD	00H
	DD	FLAT:_html_attrs
	DD	00H
	DD	00H
	DD	FLAT:??_C@_05KJAEOLKJ@embed@
	DB	00H
	DB	01H
	DB	00H
	DB	00H
	DB	01H
	DB	01H
	DB	01H
	ORG $+1
	DD	FLAT:??_C@_0BJ@EHDFJKJB@generic?5embedded?5object?5@
	DD	00H
	DD	00H
	DD	FLAT:_embed_attrs
	DD	00H
	DD	00H
	DD	FLAT:??_C@_08EPOEGPEK@fieldset@
	DB	00H
	DB	00H
	DB	00H
	DB	00H
	DB	00H
	DB	00H
	DB	00H
	ORG $+1
	DD	FLAT:??_C@_0BE@NIBLILIK@form?5control?5group?5@
	DD	FLAT:_fieldset_contents
	DD	00H
	DD	FLAT:_html_attrs
	DD	00H
	DD	00H
	DD	FLAT:??_C@_04EFPADHIC@font@
	DB	00H
	DB	03H
	DB	00H
	DB	00H
	DB	01H
	DB	01H
	DB	01H
	ORG $+1
	DD	FLAT:??_C@_0BG@MPBFEMBF@local?5change?5to?5font?5@
	DD	FLAT:_html_inline
	DD	00H
	DD	00H
	DD	FLAT:_font_attrs
	DD	00H
	DD	FLAT:??_C@_04MLMMMEIO@form@
	DB	00H
	DB	00H
	DB	00H
	DB	00H
	DB	00H
	DB	00H
	DB	00H
	ORG $+1
	DD	FLAT:??_C@_0BC@CONPLKGA@interactive?5form?5@
	DD	FLAT:_form_contents
	DD	FLAT:??_C@_08EPOEGPEK@fieldset@
	DD	FLAT:_form_attrs
	DD	FLAT:_target_attr
	DD	FLAT:_action_attr
	DD	FLAT:??_C@_05MIJNFGED@frame@
	DB	00H
	DB	02H
	DB	02H
	DB	01H
	DB	00H
	DB	02H
	DB	00H
	ORG $+1
	DD	FLAT:??_C@_0L@NAMFAOCF@subwindow?5@
	DD	00H
	DD	00H
	DD	00H
	DD	FLAT:_frame_attrs
	DD	00H
	DD	FLAT:??_C@_08GMEGJMDB@frameset@
	DB	00H
	DB	00H
	DB	00H
	DB	00H
	DB	00H
	DB	02H
	DB	00H
	ORG $+1
	DD	FLAT:??_C@_0BD@NKGGDHCH@window?5subdivision@
	DD	FLAT:_frameset_contents
	DD	FLAT:??_C@_08NAAIELI@noframes@
	DD	00H
	DD	FLAT:_frameset_attrs
	DD	00H
	DD	FLAT:??_C@_02IACHLLMH@h1@
	DB	00H
	DB	00H
	DB	00H
	DB	00H
	DB	00H
	DB	00H
	DB	00H
	ORG $+1
	DD	FLAT:??_C@_08EPCFAACE@heading?5@
	DD	FLAT:_html_inline
	DD	00H
	DD	FLAT:_html_attrs
	DD	FLAT:_align_attr
	DD	00H
	DD	FLAT:??_C@_02KLAKOIAE@h2@
	DB	00H
	DB	00H
	DB	00H
	DB	00H
	DB	00H
	DB	00H
	DB	00H
	ORG $+1
	DD	FLAT:??_C@_08EPCFAACE@heading?5@
	DD	FLAT:_html_inline
	DD	00H
	DD	FLAT:_html_attrs
	DD	FLAT:_align_attr
	DD	00H
	DD	FLAT:??_C@_02LCBBNJEF@h3@
	DB	00H
	DB	00H
	DB	00H
	DB	00H
	DB	00H
	DB	00H
	DB	00H
	ORG $+1
	DD	FLAT:??_C@_08EPCFAACE@heading?5@
	DD	FLAT:_html_inline
	DD	00H
	DD	FLAT:_html_attrs
	DD	FLAT:_align_attr
	DD	00H
	DD	FLAT:??_C@_02PNFAEPIC@h4@
	DB	00H
	DB	00H
	DB	00H
	DB	00H
	DB	00H
	DB	00H
	DB	00H
	ORG $+1
	DD	FLAT:??_C@_08EPCFAACE@heading?5@
	DD	FLAT:_html_inline
	DD	00H
	DD	FLAT:_html_attrs
	DD	FLAT:_align_attr
	DD	00H
	DD	FLAT:??_C@_02OEELHOMD@h5@
	DB	00H
	DB	00H
	DB	00H
	DB	00H
	DB	00H
	DB	00H
	DB	00H
	ORG $+1
	DD	FLAT:??_C@_08EPCFAACE@heading?5@
	DD	FLAT:_html_inline
	DD	00H
	DD	FLAT:_html_attrs
	DD	FLAT:_align_attr
	DD	00H
	DD	FLAT:??_C@_02MPGGCNAA@h6@
	DB	00H
	DB	00H
	DB	00H
	DB	00H
	DB	00H
	DB	00H
	DB	00H
	ORG $+1
	DD	FLAT:??_C@_08EPCFAACE@heading?5@
	DD	FLAT:_html_inline
	DD	00H
	DD	FLAT:_html_attrs
	DD	FLAT:_align_attr
	DD	00H
	DD	FLAT:??_C@_04NEODDMOL@head@
	DB	01H
	DB	01H
	DB	00H
	DB	00H
	DB	00H
	DB	00H
	DB	00H
	ORG $+1
	DD	FLAT:??_C@_0P@GMKONMK@document?5head?5@
	DD	FLAT:_head_contents
	DD	00H
	DD	FLAT:_head_attrs
	DD	00H
	DD	00H
	DD	FLAT:??_C@_02FLHDKHAB@hr@
	DB	00H
	DB	02H
	DB	02H
	DB	01H
	DB	00H
	DB	00H
	DB	00H
	ORG $+1
	DD	FLAT:??_C@_0BB@GBCDCJBE@horizontal?5rule?5@
	DD	00H
	DD	00H
	DD	FLAT:_html_attrs
	DD	FLAT:_hr_depr
	DD	00H
	DD	FLAT:??_C@_04PNIFHPHN@html@
	DB	01H
	DB	01H
	DB	00H
	DB	00H
	DB	00H
	DB	00H
	DB	00H
	ORG $+1
	DD	FLAT:??_C@_0BH@MPDMFBKE@document?5root?5element?5@
	DD	FLAT:_html_content
	DD	00H
	DD	FLAT:_i18n_attrs
	DD	FLAT:_version_attr
	DD	00H
	DD	FLAT:??_C@_01KBJDNOO@i@
	DB	00H
	DB	03H
	DB	00H
	DB	00H
	DB	00H
	DB	00H
	DB	01H
	ORG $+1
	DD	FLAT:??_C@_0BC@JCIMLGAN@italic?5text?5style@
	DD	FLAT:_html_inline
	DD	00H
	DD	FLAT:_html_attrs
	DD	00H
	DD	00H
	DD	FLAT:??_C@_06PKBNCBKI@iframe@
	DB	00H
	DB	00H
	DB	00H
	DB	00H
	DB	00H
	DB	01H
	DB	02H
	ORG $+1
	DD	FLAT:??_C@_0BC@BHNEGLHO@inline?5subwindow?5@
	DD	FLAT:_html_flow
	DD	00H
	DD	00H
	DD	FLAT:_iframe_attrs
	DD	00H
	DD	FLAT:??_C@_03PCCGDNHJ@img@
	DB	00H
	DB	02H
	DB	02H
	DB	01H
	DB	00H
	DB	00H
	DB	01H
	ORG $+1
	DD	FLAT:??_C@_0BA@OHBCJHIG@embedded?5image?5@
	DD	00H
	DD	00H
	DD	FLAT:_img_attrs
	DD	FLAT:_align_attr
	DD	FLAT:_src_alt_attrs
	DD	FLAT:??_C@_05DFJCHPDH@input@
	DB	00H
	DB	02H
	DB	02H
	DB	01H
	DB	00H
	DB	00H
	DB	01H
	ORG $+1
	DD	FLAT:??_C@_0O@HMLFLPEN@form?5control?5@
	DD	00H
	DD	00H
	DD	FLAT:_input_attrs
	DD	FLAT:_align_attr
	DD	00H
	DD	FLAT:??_C@_03NOMOFEHF@ins@
	DB	00H
	DB	00H
	DB	00H
	DB	00H
	DB	00H
	DB	00H
	DB	02H
	ORG $+1
	DD	FLAT:??_C@_0O@CEDLIJIG@inserted?5text@
	DD	FLAT:_html_flow
	DD	00H
	DD	FLAT:_edit_attrs
	DD	00H
	DD	00H
	DD	FLAT:??_C@_07JMLOFMGP@isindex@
	DB	00H
	DB	02H
	DB	02H
	DB	01H
	DB	01H
	DB	01H
	DB	00H
	ORG $+1
	DD	FLAT:??_C@_0BE@NOGKIGME@single?5line?5prompt?5@
	DD	00H
	DD	00H
	DD	00H
	DD	FLAT:_prompt_attrs
	DD	00H
	DD	FLAT:??_C@_03HIFOOBAM@kbd@
	DB	00H
	DB	00H
	DB	00H
	DB	00H
	DB	00H
	DB	00H
	DB	01H
	ORG $+1
	DD	FLAT:??_C@_0BP@HBOCGMHA@text?5to?5be?5entered?5by?5the?5user@
	DD	FLAT:_html_inline
	DD	00H
	DD	FLAT:_html_attrs
	DD	00H
	DD	00H
	DD	FLAT:??_C@_05IDCCNNGI@label@
	DB	00H
	DB	00H
	DB	00H
	DB	00H
	DB	00H
	DB	00H
	DB	01H
	ORG $+1
	DD	FLAT:??_C@_0BH@INJKJBGO@form?5field?5label?5text?5@
	DD	FLAT:_html_inline
	DD	00H
	DD	FLAT:_label_attrs
	DD	00H
	DD	00H
	DD	FLAT:??_C@_06BCIOHMBM@legend@
	DB	00H
	DB	00H
	DB	00H
	DB	00H
	DB	00H
	DB	00H
	DB	00H
	ORG $+1
	DD	FLAT:??_C@_0BB@LGOCAIB@fieldset?5legend?5@
	DD	FLAT:_html_inline
	DD	00H
	DD	FLAT:_legend_attrs
	DD	FLAT:_align_attr
	DD	00H
	DD	FLAT:??_C@_02PFEMMEEH@li@
	DB	00H
	DB	01H
	DB	01H
	DB	00H
	DB	00H
	DB	00H
	DB	00H
	ORG $+1
	DD	FLAT:??_C@_0L@DHBHFPMN@list?5item?5@
	DD	FLAT:_html_flow
	DD	00H
	DD	FLAT:_html_attrs
	DD	00H
	DD	00H
	DD	FLAT:??_C@_04OHHBHOGB@link@
	DB	00H
	DB	02H
	DB	02H
	DB	01H
	DB	00H
	DB	00H
	DB	00H
	ORG $+1
	DD	FLAT:??_C@_0BK@GCIIKCBE@a?5media?9independent?5link?5@
	DD	00H
	DD	00H
	DD	FLAT:_link_attrs
	DD	FLAT:_target_attr
	DD	00H
	DD	FLAT:??_C@_03HBNNNHNM@map@
	DB	00H
	DB	00H
	DB	00H
	DB	00H
	DB	00H
	DB	00H
	DB	02H
	ORG $+1
	DD	FLAT:??_C@_0BH@LIKCJKCB@client?9side?5image?5map?5@
	DD	FLAT:_map_contents
	DD	00H
	DD	FLAT:_html_attrs
	DD	00H
	DD	FLAT:_name_attr
	DD	FLAT:??_C@_04EEIGNHLG@menu@
	DB	00H
	DB	00H
	DB	00H
	DB	00H
	DB	01H
	DB	01H
	DB	00H
	ORG $+1
	DD	FLAT:??_C@_0L@NDLIJHAH@menu?5list?5@
	DD	FLAT:_blockli_elt
	DD	00H
	DD	00H
	DD	FLAT:_compact_attrs
	DD	00H
	DD	FLAT:??_C@_04HLJJCGEF@meta@
	DB	00H
	DB	02H
	DB	02H
	DB	01H
	DB	00H
	DB	00H
	DB	00H
	ORG $+1
	DD	FLAT:??_C@_0BJ@OJDJPIOL@generic?5metainformation?5@
	DD	00H
	DD	00H
	DD	FLAT:_meta_attrs
	DD	00H
	DD	FLAT:_content_attr
	DD	FLAT:??_C@_08NAAIELI@noframes@
	DB	00H
	DB	00H
	DB	00H
	DB	00H
	DB	00H
	DB	02H
	DB	00H
	ORG $+1
	DD	FLAT:??_C@_0DL@IAGMJJEB@alternate?5content?5container?5for@
	DD	FLAT:_noframes_content
	DD	FLAT:??_C@_04IEJGKNJ@body@
	DD	FLAT:_html_attrs
	DD	00H
	DD	00H
	DD	FLAT:??_C@_08NOCGLLG@noscript@
	DB	00H
	DB	00H
	DB	00H
	DB	00H
	DB	00H
	DB	00H
	DB	00H
	ORG $+1
	DD	FLAT:??_C@_0DM@CPJFPKPD@alternate?5content?5container?5for@
	DD	FLAT:_html_flow
	DD	FLAT:??_C@_03FEJMGOGI@div@
	DD	FLAT:_html_attrs
	DD	00H
	DD	00H
	DD	FLAT:??_C@_06IEOJBDIK@object@
	DB	00H
	DB	00H
	DB	00H
	DB	00H
	DB	00H
	DB	00H
	DB	02H
	ORG $+1
	DD	FLAT:??_C@_0BJ@EHDFJKJB@generic?5embedded?5object?5@
	DD	FLAT:_object_contents
	DD	FLAT:??_C@_03FEJMGOGI@div@
	DD	FLAT:_object_attrs
	DD	FLAT:_object_depr
	DD	00H
	DD	FLAT:??_C@_02IKHNIOFL@ol@
	DB	00H
	DB	00H
	DB	00H
	DB	00H
	DB	00H
	DB	00H
	DB	00H
	ORG $+1
	DD	FLAT:??_C@_0O@PMECOPH@ordered?5list?5@
	DD	FLAT:_li_elt
	DD	FLAT:??_C@_02PFEMMEEH@li@
	DD	FLAT:_html_attrs
	DD	FLAT:_ol_attrs
	DD	00H
	DD	FLAT:??_C@_08KGPIHINJ@optgroup@
	DB	00H
	DB	00H
	DB	00H
	DB	00H
	DB	00H
	DB	00H
	DB	00H
	ORG $+1
	DD	FLAT:??_C@_0O@IBBKJGKJ@option?5group?5@
	DD	FLAT:_option_elt
	DD	FLAT:??_C@_06OGMGCFPO@option@
	DD	FLAT:_optgroup_attrs
	DD	00H
	DD	FLAT:_label_attr
	DD	FLAT:??_C@_06OGMGCFPO@option@
	DB	00H
	DB	01H
	DB	00H
	DB	00H
	DB	00H
	DB	00H
	DB	00H
	ORG $+1
	DD	FLAT:??_C@_0BD@HJHAAEHL@selectable?5choice?5@
	DD	FLAT:_html_pcdata
	DD	00H
	DD	FLAT:_option_attrs
	DD	00H
	DD	00H
	DD	FLAT:??_C@_01JBBJJEPG@p@
	DB	00H
	DB	01H
	DB	00H
	DB	00H
	DB	00H
	DB	00H
	DB	00H
	ORG $+1
	DD	FLAT:??_C@_0L@ICLNKGCC@paragraph?5@
	DD	FLAT:_html_inline
	DD	00H
	DD	FLAT:_html_attrs
	DD	FLAT:_align_attr
	DD	00H
	DD	FLAT:??_C@_05LJDNNBIK@param@
	DB	00H
	DB	02H
	DB	02H
	DB	01H
	DB	00H
	DB	00H
	DB	00H
	ORG $+1
	DD	FLAT:??_C@_0BG@OGBECHLM@named?5property?5value?5@
	DD	00H
	DD	00H
	DD	FLAT:_param_attrs
	DD	00H
	DD	FLAT:_name_attr
	DD	FLAT:??_C@_03PKHLKDKD@pre@
	DB	00H
	DB	00H
	DB	00H
	DB	00H
	DB	00H
	DB	00H
	DB	00H
	ORG $+1
	DD	FLAT:??_C@_0BD@OKGNAEP@preformatted?5text?5@
	DD	FLAT:_pre_content
	DD	00H
	DD	FLAT:_html_attrs
	DD	FLAT:_width_attr
	DD	00H
	DD	FLAT:??_C@_01IIACKFLH@q@
	DB	00H
	DB	00H
	DB	00H
	DB	00H
	DB	00H
	DB	00H
	DB	01H
	ORG $+1
	DD	FLAT:??_C@_0BI@IDGHJEGP@short?5inline?5quotation?5@
	DD	FLAT:_html_inline
	DD	00H
	DD	FLAT:_quote_attrs
	DD	00H
	DD	00H
	DD	FLAT:??_C@_01LKDEMHDF@s@
	DB	00H
	DB	03H
	DB	00H
	DB	00H
	DB	01H
	DB	01H
	DB	01H
	ORG $+1
	DD	FLAT:??_C@_0BK@GECKKPAM@strike?9through?5text?5style@
	DD	FLAT:_html_inline
	DD	00H
	DD	00H
	DD	FLAT:_html_attrs
	DD	00H
	DD	FLAT:??_C@_04GLAFCDBO@samp@
	DB	00H
	DB	00H
	DB	00H
	DB	00H
	DB	00H
	DB	00H
	DB	01H
	ORG $+1
	DD	FLAT:??_C@_0CF@MKBFLFJI@sample?5program?5output?0?5scripts?0@
	DD	FLAT:_html_inline
	DD	00H
	DD	FLAT:_html_attrs
	DD	00H
	DD	00H
	DD	FLAT:??_C@_06OLONEIEH@script@
	DB	00H
	DB	00H
	DB	00H
	DB	00H
	DB	00H
	DB	00H
	DB	02H
	ORG $+1
	DD	FLAT:??_C@_0BD@EEALOKGK@script?5statements?5@
	DD	FLAT:_html_pcdata
	DD	00H
	DD	FLAT:_script_attrs
	DD	FLAT:_language_attr
	DD	FLAT:_type_attr
	DD	FLAT:??_C@_06LGNCCACI@select@
	DB	00H
	DB	00H
	DB	00H
	DB	00H
	DB	00H
	DB	00H
	DB	01H
	ORG $+1
	DD	FLAT:??_C@_0BB@OKAAEBHI@option?5selector?5@
	DD	FLAT:_select_content
	DD	00H
	DD	FLAT:_select_attrs
	DD	00H
	DD	00H
	DD	FLAT:??_C@_05KJDGBEEG@small@
	DB	00H
	DB	03H
	DB	00H
	DB	00H
	DB	00H
	DB	00H
	DB	01H
	ORG $+1
	DD	FLAT:??_C@_0BB@PLNNDOJH@small?5text?5style@
	DD	FLAT:_html_inline
	DD	00H
	DD	FLAT:_html_attrs
	DD	00H
	DD	00H
	DD	FLAT:??_C@_04FOPLNFFP@span@
	DB	00H
	DB	00H
	DB	00H
	DB	00H
	DB	00H
	DB	00H
	DB	01H
	ORG $+1
	DD	FLAT:??_C@_0CC@KPKCOJB@generic?5language?1style?5containe@
	DD	FLAT:_html_inline
	DD	00H
	DD	FLAT:_html_attrs
	DD	00H
	DD	00H
	DD	FLAT:??_C@_06LGJEBFOF@strike@
	DB	00H
	DB	03H
	DB	00H
	DB	00H
	DB	01H
	DB	01H
	DB	01H
	ORG $+1
	DD	FLAT:??_C@_0BE@KLPAPDBO@strike?9through?5text@
	DD	FLAT:_html_inline
	DD	00H
	DD	00H
	DD	FLAT:_html_attrs
	DD	00H
	DD	FLAT:??_C@_06KHACOKFA@strong@
	DB	00H
	DB	03H
	DB	00H
	DB	00H
	DB	00H
	DB	00H
	DB	01H
	ORG $+1
	DD	FLAT:??_C@_0BA@HHIAOMPI@strong?5emphasis@
	DD	FLAT:_html_inline
	DD	00H
	DD	FLAT:_html_attrs
	DD	00H
	DD	00H
	DD	FLAT:??_C@_05IAKJCFIM@style@
	DB	00H
	DB	00H
	DB	00H
	DB	00H
	DB	00H
	DB	00H
	DB	00H
	ORG $+1
	DD	FLAT:??_C@_0M@LPADJHJK@style?5info?5@
	DD	FLAT:_html_pcdata
	DD	00H
	DD	FLAT:_style_attrs
	DD	00H
	DD	FLAT:_type_attr
	DD	FLAT:??_C@_03KCMAIMAP@sub@
	DB	00H
	DB	03H
	DB	00H
	DB	00H
	DB	00H
	DB	00H
	DB	01H
	ORG $+1
	DD	FLAT:??_C@_09KAIPOAII@subscript@
	DD	FLAT:_html_inline
	DD	00H
	DD	FLAT:_html_attrs
	DD	00H
	DD	00H
	DD	FLAT:??_C@_03NKDEPMNM@sup@
	DB	00H
	DB	03H
	DB	00H
	DB	00H
	DB	00H
	DB	00H
	DB	01H
	ORG $+1
	DD	FLAT:??_C@_0N@LLOPBEAI@superscript?5@
	DD	FLAT:_html_inline
	DD	00H
	DD	FLAT:_html_attrs
	DD	00H
	DD	00H
	DD	FLAT:??_C@_05LCLENNFI@table@
	DB	00H
	DB	00H
	DB	00H
	DB	00H
	DB	00H
	DB	00H
	DB	00H
	ORG $+1
	DD	FLAT:??_C@_00CNPNBAHC@@
	DD	FLAT:_table_contents
	DD	FLAT:??_C@_02EOEPPNBF@tr@
	DD	FLAT:_table_attrs
	DD	FLAT:_table_depr
	DD	00H
	DD	FLAT:??_C@_05OPBKHDLA@tbody@
	DB	01H
	DB	00H
	DB	00H
	DB	00H
	DB	00H
	DB	00H
	DB	00H
	ORG $+1
	DD	FLAT:??_C@_0M@COHBKCLJ@table?5body?5@
	DD	FLAT:_tr_elt
	DD	FLAT:??_C@_02EOEPPNBF@tr@
	DD	FLAT:_talign_attrs
	DD	00H
	DD	00H
	DD	FLAT:??_C@_02FCNHEIMC@td@
	DB	00H
	DB	00H
	DB	00H
	DB	00H
	DB	00H
	DB	00H
	DB	00H
	ORG $+1
	DD	FLAT:??_C@_0BA@OHMNJJHC@table?5data?5cell@
	DD	FLAT:_html_flow
	DD	00H
	DD	FLAT:_th_td_attr
	DD	FLAT:_th_td_depr
	DD	00H
	DD	FLAT:??_C@_08DEBIGDAL@textarea@
	DB	00H
	DB	00H
	DB	00H
	DB	00H
	DB	00H
	DB	00H
	DB	01H
	ORG $+1
	DD	FLAT:??_C@_0BH@ODGBEBOO@multi?9line?5text?5field?5@
	DD	FLAT:_html_pcdata
	DD	00H
	DD	FLAT:_textarea_attrs
	DD	00H
	DD	FLAT:_rows_cols_attr
	DD	FLAT:??_C@_05KDGBEENM@tfoot@
	DB	00H
	DB	01H
	DB	00H
	DB	00H
	DB	00H
	DB	00H
	DB	00H
	ORG $+1
	DD	FLAT:??_C@_0O@HFPJPDFP@table?5footer?5@
	DD	FLAT:_tr_elt
	DD	FLAT:??_C@_02EOEPPNBF@tr@
	DD	FLAT:_talign_attrs
	DD	00H
	DD	00H
	DD	FLAT:??_C@_02POGCAHMO@th@
	DB	00H
	DB	01H
	DB	00H
	DB	00H
	DB	00H
	DB	00H
	DB	00H
	ORG $+1
	DD	FLAT:??_C@_0BC@CCIFOICB@table?5header?5cell@
	DD	FLAT:_html_flow
	DD	00H
	DD	FLAT:_th_td_attr
	DD	FLAT:_th_td_depr
	DD	00H
	DD	FLAT:??_C@_05DDLACFIC@thead@
	DB	00H
	DB	01H
	DB	00H
	DB	00H
	DB	00H
	DB	00H
	DB	00H
	ORG $+1
	DD	FLAT:??_C@_0O@JOOJEINB@table?5header?5@
	DD	FLAT:_tr_elt
	DD	FLAT:??_C@_02EOEPPNBF@tr@
	DD	FLAT:_talign_attrs
	DD	00H
	DD	00H
	DD	FLAT:??_C@_05PHLGJONK@title@
	DB	00H
	DB	00H
	DB	00H
	DB	00H
	DB	00H
	DB	00H
	DB	00H
	ORG $+1
	DD	FLAT:??_C@_0BA@CCGKIMBG@document?5title?5@
	DD	FLAT:_html_pcdata
	DD	00H
	DD	FLAT:_i18n_attrs
	DD	00H
	DD	00H
	DD	FLAT:??_C@_02EOEPPNBF@tr@
	DB	00H
	DB	00H
	DB	00H
	DB	00H
	DB	00H
	DB	00H
	DB	00H
	ORG $+1
	DD	FLAT:??_C@_0L@OLDIHEAD@table?5row?5@
	DD	FLAT:_tr_contents
	DD	FLAT:??_C@_02FCNHEIMC@td@
	DD	FLAT:_talign_attrs
	DD	FLAT:_bgcolor_attr
	DD	00H
	DD	FLAT:??_C@_02BIBFFKJD@tt@
	DB	00H
	DB	03H
	DB	00H
	DB	00H
	DB	00H
	DB	00H
	DB	01H
	ORG $+1
	DD	FLAT:??_C@_0CC@HPKPLEFL@teletype?5or?5monospaced?5text?5sty@
	DD	FLAT:_html_inline
	DD	00H
	DD	FLAT:_html_attrs
	DD	00H
	DD	00H
	DD	FLAT:??_C@_01OMGOGALD@u@
	DB	00H
	DB	03H
	DB	00H
	DB	00H
	DB	01H
	DB	01H
	DB	01H
	ORG $+1
	DD	FLAT:??_C@_0BG@NHDOOMEA@underlined?5text?5style@
	DD	FLAT:_html_inline
	DD	00H
	DD	00H
	DD	FLAT:_html_attrs
	DD	00H
	DD	FLAT:??_C@_02JLMMKIPN@ul@
	DB	00H
	DB	00H
	DB	00H
	DB	00H
	DB	00H
	DB	00H
	DB	00H
	ORG $+1
	DD	FLAT:??_C@_0BA@DILGCPPM@unordered?5list?5@
	DD	FLAT:_li_elt
	DD	FLAT:??_C@_02PFEMMEEH@li@
	DD	FLAT:_html_attrs
	DD	FLAT:_ul_depr
	DD	00H
	DD	FLAT:??_C@_03MEPDGFMA@var@
	DB	00H
	DB	00H
	DB	00H
	DB	00H
	DB	00H
	DB	00H
	DB	01H
	ORG $+1
	DD	FLAT:??_C@_0CL@IOIBPELD@instance?5of?5a?5variable?5or?5progr@
	DD	FLAT:_html_inline
	DD	00H
	DD	FLAT:_html_attrs
	DD	00H
	DD	00H
_htmlStartClose DD FLAT:??_C@_04MLMMMEIO@form@
	DD	FLAT:??_C@_04MLMMMEIO@form@
	DD	FLAT:??_C@_01JBBJJEPG@p@
	DD	FLAT:??_C@_02FLHDKHAB@hr@
	DD	FLAT:??_C@_02IACHLLMH@h1@
	DD	FLAT:??_C@_02KLAKOIAE@h2@
	DD	FLAT:??_C@_02LCBBNJEF@h3@
	DD	FLAT:??_C@_02PNFAEPIC@h4@
	DD	FLAT:??_C@_02OEELHOMD@h5@
	DD	FLAT:??_C@_02MPGGCNAA@h6@
	DD	FLAT:??_C@_02IGCIGBLK@dl@
	DD	FLAT:??_C@_02JLMMKIPN@ul@
	DD	FLAT:??_C@_02IKHNIOFL@ol@
	DD	FLAT:??_C@_04EEIGNHLG@menu@
	DD	FLAT:??_C@_03DAPAKLGM@dir@
	DD	FLAT:??_C@_07LHEPONKL@address@
	DD	FLAT:??_C@_03PKHLKDKD@pre@
	DD	FLAT:??_C@_07KMIIAGPH@listing@
	DD	FLAT:??_C@_03BPAAIJBF@xmp@
	DD	FLAT:??_C@_04NEODDMOL@head@
	DD	00H
	DD	FLAT:??_C@_04NEODDMOL@head@
	DD	FLAT:??_C@_01JBBJJEPG@p@
	DD	00H
	DD	FLAT:??_C@_05PHLGJONK@title@
	DD	FLAT:??_C@_01JBBJJEPG@p@
	DD	00H
	DD	FLAT:??_C@_04IEJGKNJ@body@
	DD	FLAT:??_C@_04NEODDMOL@head@
	DD	FLAT:??_C@_05IAKJCFIM@style@
	DD	FLAT:??_C@_04OHHBHOGB@link@
	DD	FLAT:??_C@_05PHLGJONK@title@
	DD	FLAT:??_C@_01JBBJJEPG@p@
	DD	00H
	DD	FLAT:??_C@_08GMEGJMDB@frameset@
	DD	FLAT:??_C@_04NEODDMOL@head@
	DD	FLAT:??_C@_05IAKJCFIM@style@
	DD	FLAT:??_C@_04OHHBHOGB@link@
	DD	FLAT:??_C@_05PHLGJONK@title@
	DD	FLAT:??_C@_01JBBJJEPG@p@
	DD	00H
	DD	FLAT:??_C@_02PFEMMEEH@li@
	DD	FLAT:??_C@_01JBBJJEPG@p@
	DD	FLAT:??_C@_02IACHLLMH@h1@
	DD	FLAT:??_C@_02KLAKOIAE@h2@
	DD	FLAT:??_C@_02LCBBNJEF@h3@
	DD	FLAT:??_C@_02PNFAEPIC@h4@
	DD	FLAT:??_C@_02OEELHOMD@h5@
	DD	FLAT:??_C@_02MPGGCNAA@h6@
	DD	FLAT:??_C@_02IGCIGBLK@dl@
	DD	FLAT:??_C@_07LHEPONKL@address@
	DD	FLAT:??_C@_03PKHLKDKD@pre@
	DD	FLAT:??_C@_07KMIIAGPH@listing@
	DD	FLAT:??_C@_03BPAAIJBF@xmp@
	DD	FLAT:??_C@_04NEODDMOL@head@
	DD	FLAT:??_C@_02PFEMMEEH@li@
	DD	00H
	DD	FLAT:??_C@_02FLHDKHAB@hr@
	DD	FLAT:??_C@_01JBBJJEPG@p@
	DD	FLAT:??_C@_04NEODDMOL@head@
	DD	00H
	DD	FLAT:??_C@_02IACHLLMH@h1@
	DD	FLAT:??_C@_01JBBJJEPG@p@
	DD	FLAT:??_C@_04NEODDMOL@head@
	DD	00H
	DD	FLAT:??_C@_02KLAKOIAE@h2@
	DD	FLAT:??_C@_01JBBJJEPG@p@
	DD	FLAT:??_C@_04NEODDMOL@head@
	DD	00H
	DD	FLAT:??_C@_02LCBBNJEF@h3@
	DD	FLAT:??_C@_01JBBJJEPG@p@
	DD	FLAT:??_C@_04NEODDMOL@head@
	DD	00H
	DD	FLAT:??_C@_02PNFAEPIC@h4@
	DD	FLAT:??_C@_01JBBJJEPG@p@
	DD	FLAT:??_C@_04NEODDMOL@head@
	DD	00H
	DD	FLAT:??_C@_02OEELHOMD@h5@
	DD	FLAT:??_C@_01JBBJJEPG@p@
	DD	FLAT:??_C@_04NEODDMOL@head@
	DD	00H
	DD	FLAT:??_C@_02MPGGCNAA@h6@
	DD	FLAT:??_C@_01JBBJJEPG@p@
	DD	FLAT:??_C@_04NEODDMOL@head@
	DD	00H
	DD	FLAT:??_C@_03DAPAKLGM@dir@
	DD	FLAT:??_C@_01JBBJJEPG@p@
	DD	FLAT:??_C@_04NEODDMOL@head@
	DD	00H
	DD	FLAT:??_C@_07LHEPONKL@address@
	DD	FLAT:??_C@_01JBBJJEPG@p@
	DD	FLAT:??_C@_04NEODDMOL@head@
	DD	FLAT:??_C@_02JLMMKIPN@ul@
	DD	00H
	DD	FLAT:??_C@_03PKHLKDKD@pre@
	DD	FLAT:??_C@_01JBBJJEPG@p@
	DD	FLAT:??_C@_04NEODDMOL@head@
	DD	FLAT:??_C@_02JLMMKIPN@ul@
	DD	00H
	DD	FLAT:??_C@_07KMIIAGPH@listing@
	DD	FLAT:??_C@_01JBBJJEPG@p@
	DD	FLAT:??_C@_04NEODDMOL@head@
	DD	00H
	DD	FLAT:??_C@_03BPAAIJBF@xmp@
	DD	FLAT:??_C@_01JBBJJEPG@p@
	DD	FLAT:??_C@_04NEODDMOL@head@
	DD	00H
	DD	FLAT:??_C@_0L@NKGPHNMG@blockquote@
	DD	FLAT:??_C@_01JBBJJEPG@p@
	DD	FLAT:??_C@_04NEODDMOL@head@
	DD	00H
	DD	FLAT:??_C@_02IGCIGBLK@dl@
	DD	FLAT:??_C@_01JBBJJEPG@p@
	DD	FLAT:??_C@_02EDDPJOD@dt@
	DD	FLAT:??_C@_04EEIGNHLG@menu@
	DD	FLAT:??_C@_03DAPAKLGM@dir@
	DD	FLAT:??_C@_07LHEPONKL@address@
	DD	FLAT:??_C@_03PKHLKDKD@pre@
	DD	FLAT:??_C@_07KMIIAGPH@listing@
	DD	FLAT:??_C@_03BPAAIJBF@xmp@
	DD	FLAT:??_C@_04NEODDMOL@head@
	DD	00H
	DD	FLAT:??_C@_02EDDPJOD@dt@
	DD	FLAT:??_C@_01JBBJJEPG@p@
	DD	FLAT:??_C@_04EEIGNHLG@menu@
	DD	FLAT:??_C@_03DAPAKLGM@dir@
	DD	FLAT:??_C@_07LHEPONKL@address@
	DD	FLAT:??_C@_03PKHLKDKD@pre@
	DD	FLAT:??_C@_07KMIIAGPH@listing@
	DD	FLAT:??_C@_03BPAAIJBF@xmp@
	DD	FLAT:??_C@_04NEODDMOL@head@
	DD	FLAT:??_C@_02EOPBOLLC@dd@
	DD	00H
	DD	FLAT:??_C@_02EOPBOLLC@dd@
	DD	FLAT:??_C@_01JBBJJEPG@p@
	DD	FLAT:??_C@_04EEIGNHLG@menu@
	DD	FLAT:??_C@_03DAPAKLGM@dir@
	DD	FLAT:??_C@_07LHEPONKL@address@
	DD	FLAT:??_C@_03PKHLKDKD@pre@
	DD	FLAT:??_C@_07KMIIAGPH@listing@
	DD	FLAT:??_C@_03BPAAIJBF@xmp@
	DD	FLAT:??_C@_04NEODDMOL@head@
	DD	FLAT:??_C@_02EDDPJOD@dt@
	DD	00H
	DD	FLAT:??_C@_02JLMMKIPN@ul@
	DD	FLAT:??_C@_01JBBJJEPG@p@
	DD	FLAT:??_C@_04NEODDMOL@head@
	DD	FLAT:??_C@_02IKHNIOFL@ol@
	DD	FLAT:??_C@_04EEIGNHLG@menu@
	DD	FLAT:??_C@_03DAPAKLGM@dir@
	DD	FLAT:??_C@_07LHEPONKL@address@
	DD	FLAT:??_C@_03PKHLKDKD@pre@
	DD	FLAT:??_C@_07KMIIAGPH@listing@
	DD	FLAT:??_C@_03BPAAIJBF@xmp@
	DD	00H
	DD	FLAT:??_C@_02IKHNIOFL@ol@
	DD	FLAT:??_C@_01JBBJJEPG@p@
	DD	FLAT:??_C@_04NEODDMOL@head@
	DD	FLAT:??_C@_02JLMMKIPN@ul@
	DD	00H
	DD	FLAT:??_C@_04EEIGNHLG@menu@
	DD	FLAT:??_C@_01JBBJJEPG@p@
	DD	FLAT:??_C@_04NEODDMOL@head@
	DD	FLAT:??_C@_02JLMMKIPN@ul@
	DD	00H
	DD	FLAT:??_C@_01JBBJJEPG@p@
	DD	FLAT:??_C@_01JBBJJEPG@p@
	DD	FLAT:??_C@_04NEODDMOL@head@
	DD	FLAT:??_C@_02IACHLLMH@h1@
	DD	FLAT:??_C@_02KLAKOIAE@h2@
	DD	FLAT:??_C@_02LCBBNJEF@h3@
	DD	FLAT:??_C@_02PNFAEPIC@h4@
	DD	FLAT:??_C@_02OEELHOMD@h5@
	DD	FLAT:??_C@_02MPGGCNAA@h6@
	DD	FLAT:??_C@_02BIBFFKJD@tt@
	DD	FLAT:??_C@_01KBJDNOO@i@
	DD	FLAT:??_C@_01OJONOECF@b@
	DD	FLAT:??_C@_01OMGOGALD@u@
	DD	FLAT:??_C@_01LKDEMHDF@s@
	DD	FLAT:??_C@_06LGJEBFOF@strike@
	DD	FLAT:??_C@_03CCCOBCKE@big@
	DD	FLAT:??_C@_05KJDGBEEG@small@
	DD	00H
	DD	FLAT:??_C@_03FEJMGOGI@div@
	DD	FLAT:??_C@_01JBBJJEPG@p@
	DD	FLAT:??_C@_04NEODDMOL@head@
	DD	00H
	DD	FLAT:??_C@_08NOCGLLG@noscript@
	DD	FLAT:??_C@_06OLONEIEH@script@
	DD	00H
	DD	FLAT:??_C@_06BBLOAEEI@center@
	DD	FLAT:??_C@_04EFPADHIC@font@
	DD	FLAT:??_C@_01OJONOECF@b@
	DD	FLAT:??_C@_01KBJDNOO@i@
	DD	FLAT:??_C@_01JBBJJEPG@p@
	DD	FLAT:??_C@_04NEODDMOL@head@
	DD	00H
	DD	FLAT:??_C@_01MCMALHOG@a@
	DD	FLAT:??_C@_01MCMALHOG@a@
	DD	FLAT:??_C@_04NEODDMOL@head@
	DD	00H
	DD	FLAT:??_C@_07BANDPJOM@caption@
	DD	FLAT:??_C@_01JBBJJEPG@p@
	DD	00H
	DD	FLAT:??_C@_08LBGGHKOD@colgroup@
	DD	FLAT:??_C@_07BANDPJOM@caption@
	DD	FLAT:??_C@_08LBGGHKOD@colgroup@
	DD	FLAT:??_C@_03HNOLNALI@col@
	DD	FLAT:??_C@_01JBBJJEPG@p@
	DD	00H
	DD	FLAT:??_C@_03HNOLNALI@col@
	DD	FLAT:??_C@_07BANDPJOM@caption@
	DD	FLAT:??_C@_03HNOLNALI@col@
	DD	FLAT:??_C@_01JBBJJEPG@p@
	DD	00H
	DD	FLAT:??_C@_05LCLENNFI@table@
	DD	FLAT:??_C@_01JBBJJEPG@p@
	DD	FLAT:??_C@_04NEODDMOL@head@
	DD	FLAT:??_C@_02IACHLLMH@h1@
	DD	FLAT:??_C@_02KLAKOIAE@h2@
	DD	FLAT:??_C@_02LCBBNJEF@h3@
	DD	FLAT:??_C@_02PNFAEPIC@h4@
	DD	FLAT:??_C@_02OEELHOMD@h5@
	DD	FLAT:??_C@_02MPGGCNAA@h6@
	DD	FLAT:??_C@_03PKHLKDKD@pre@
	DD	FLAT:??_C@_07KMIIAGPH@listing@
	DD	FLAT:??_C@_03BPAAIJBF@xmp@
	DD	FLAT:??_C@_01MCMALHOG@a@
	DD	00H
	DD	FLAT:??_C@_02POGCAHMO@th@
	DD	FLAT:??_C@_02POGCAHMO@th@
	DD	FLAT:??_C@_02FCNHEIMC@td@
	DD	FLAT:??_C@_01JBBJJEPG@p@
	DD	FLAT:??_C@_04FOPLNFFP@span@
	DD	FLAT:??_C@_04EFPADHIC@font@
	DD	FLAT:??_C@_01MCMALHOG@a@
	DD	FLAT:??_C@_01OJONOECF@b@
	DD	FLAT:??_C@_01KBJDNOO@i@
	DD	FLAT:??_C@_01OMGOGALD@u@
	DD	00H
	DD	FLAT:??_C@_02FCNHEIMC@td@
	DD	FLAT:??_C@_02POGCAHMO@th@
	DD	FLAT:??_C@_02FCNHEIMC@td@
	DD	FLAT:??_C@_01JBBJJEPG@p@
	DD	FLAT:??_C@_04FOPLNFFP@span@
	DD	FLAT:??_C@_04EFPADHIC@font@
	DD	FLAT:??_C@_01MCMALHOG@a@
	DD	FLAT:??_C@_01OJONOECF@b@
	DD	FLAT:??_C@_01KBJDNOO@i@
	DD	FLAT:??_C@_01OMGOGALD@u@
	DD	00H
	DD	FLAT:??_C@_02EOEPPNBF@tr@
	DD	FLAT:??_C@_02POGCAHMO@th@
	DD	FLAT:??_C@_02FCNHEIMC@td@
	DD	FLAT:??_C@_02EOEPPNBF@tr@
	DD	FLAT:??_C@_07BANDPJOM@caption@
	DD	FLAT:??_C@_03HNOLNALI@col@
	DD	FLAT:??_C@_08LBGGHKOD@colgroup@
	DD	FLAT:??_C@_01JBBJJEPG@p@
	DD	00H
	DD	FLAT:??_C@_05DDLACFIC@thead@
	DD	FLAT:??_C@_07BANDPJOM@caption@
	DD	FLAT:??_C@_03HNOLNALI@col@
	DD	FLAT:??_C@_08LBGGHKOD@colgroup@
	DD	00H
	DD	FLAT:??_C@_05KDGBEENM@tfoot@
	DD	FLAT:??_C@_02POGCAHMO@th@
	DD	FLAT:??_C@_02FCNHEIMC@td@
	DD	FLAT:??_C@_02EOEPPNBF@tr@
	DD	FLAT:??_C@_07BANDPJOM@caption@
	DD	FLAT:??_C@_03HNOLNALI@col@
	DD	FLAT:??_C@_08LBGGHKOD@colgroup@
	DD	FLAT:??_C@_05DDLACFIC@thead@
	DD	FLAT:??_C@_05OPBKHDLA@tbody@
	DD	FLAT:??_C@_01JBBJJEPG@p@
	DD	00H
	DD	FLAT:??_C@_05OPBKHDLA@tbody@
	DD	FLAT:??_C@_02POGCAHMO@th@
	DD	FLAT:??_C@_02FCNHEIMC@td@
	DD	FLAT:??_C@_02EOEPPNBF@tr@
	DD	FLAT:??_C@_07BANDPJOM@caption@
	DD	FLAT:??_C@_03HNOLNALI@col@
	DD	FLAT:??_C@_08LBGGHKOD@colgroup@
	DD	FLAT:??_C@_05DDLACFIC@thead@
	DD	FLAT:??_C@_05KDGBEENM@tfoot@
	DD	FLAT:??_C@_05OPBKHDLA@tbody@
	DD	FLAT:??_C@_01JBBJJEPG@p@
	DD	00H
	DD	FLAT:??_C@_08KGPIHINJ@optgroup@
	DD	FLAT:??_C@_06OGMGCFPO@option@
	DD	00H
	DD	FLAT:??_C@_06OGMGCFPO@option@
	DD	FLAT:??_C@_06OGMGCFPO@option@
	DD	00H
	DD	FLAT:??_C@_08EPOEGPEK@fieldset@
	DD	FLAT:??_C@_06BCIOHMBM@legend@
	DD	FLAT:??_C@_01JBBJJEPG@p@
	DD	FLAT:??_C@_04NEODDMOL@head@
	DD	FLAT:??_C@_02IACHLLMH@h1@
	DD	FLAT:??_C@_02KLAKOIAE@h2@
	DD	FLAT:??_C@_02LCBBNJEF@h3@
	DD	FLAT:??_C@_02PNFAEPIC@h4@
	DD	FLAT:??_C@_02OEELHOMD@h5@
	DD	FLAT:??_C@_02MPGGCNAA@h6@
	DD	FLAT:??_C@_03PKHLKDKD@pre@
	DD	FLAT:??_C@_07KMIIAGPH@listing@
	DD	FLAT:??_C@_03BPAAIJBF@xmp@
	DD	FLAT:??_C@_01MCMALHOG@a@
	DD	00H
	DD	FLAT:??_C@_02BIBFFKJD@tt@
	DD	FLAT:??_C@_04NEODDMOL@head@
	DD	00H
	DD	FLAT:??_C@_01KBJDNOO@i@
	DD	FLAT:??_C@_04NEODDMOL@head@
	DD	00H
	DD	FLAT:??_C@_01OJONOECF@b@
	DD	FLAT:??_C@_04NEODDMOL@head@
	DD	00H
	DD	FLAT:??_C@_01OMGOGALD@u@
	DD	FLAT:??_C@_04NEODDMOL@head@
	DD	00H
	DD	FLAT:??_C@_01LKDEMHDF@s@
	DD	FLAT:??_C@_04NEODDMOL@head@
	DD	00H
	DD	FLAT:??_C@_06LGJEBFOF@strike@
	DD	FLAT:??_C@_04NEODDMOL@head@
	DD	00H
	DD	FLAT:??_C@_03CCCOBCKE@big@
	DD	FLAT:??_C@_04NEODDMOL@head@
	DD	00H
	DD	FLAT:??_C@_05KJDGBEEG@small@
	DD	FLAT:??_C@_04NEODDMOL@head@
	DD	00H
	DD	FLAT:??_C@_02JOPBDKMM@em@
	DD	FLAT:??_C@_04NEODDMOL@head@
	DD	00H
	DD	FLAT:??_C@_06KHACOKFA@strong@
	DD	FLAT:??_C@_04NEODDMOL@head@
	DD	00H
	DD	FLAT:??_C@_03NNNLLBAM@dfn@
	DD	FLAT:??_C@_04NEODDMOL@head@
	DD	00H
	DD	FLAT:??_C@_04NDFOBODE@code@
	DD	FLAT:??_C@_04NEODDMOL@head@
	DD	00H
	DD	FLAT:??_C@_04GLAFCDBO@samp@
	DD	FLAT:??_C@_04NEODDMOL@head@
	DD	00H
	DD	FLAT:??_C@_03HIFOOBAM@kbd@
	DD	FLAT:??_C@_04NEODDMOL@head@
	DD	00H
	DD	FLAT:??_C@_03MEPDGFMA@var@
	DD	FLAT:??_C@_04NEODDMOL@head@
	DD	00H
	DD	FLAT:??_C@_04OKBDOCJI@cite@
	DD	FLAT:??_C@_04NEODDMOL@head@
	DD	00H
	DD	FLAT:??_C@_04FKPKGNKN@abbr@
	DD	FLAT:??_C@_04NEODDMOL@head@
	DD	00H
	DD	FLAT:??_C@_07DBMAFMJI@acronym@
	DD	FLAT:??_C@_04NEODDMOL@head@
	DD	00H
	DD	FLAT:??_C@_03PCCGDNHJ@img@
	DD	FLAT:??_C@_04NEODDMOL@head@
	DD	00H
	DD	FLAT:??_C@_04EFPADHIC@font@
	DD	FLAT:??_C@_04NEODDMOL@head@
	DD	00H
	DD	FLAT:??_C@_02FGOECCNH@br@
	DD	FLAT:??_C@_04NEODDMOL@head@
	DD	00H
	DD	FLAT:??_C@_03HBNNNHNM@map@
	DD	FLAT:??_C@_04NEODDMOL@head@
	DD	00H
	DD	FLAT:??_C@_01IIACKFLH@q@
	DD	FLAT:??_C@_04NEODDMOL@head@
	DD	00H
	DD	FLAT:??_C@_03KCMAIMAP@sub@
	DD	FLAT:??_C@_04NEODDMOL@head@
	DD	00H
	DD	FLAT:??_C@_03NKDEPMNM@sup@
	DD	FLAT:??_C@_04NEODDMOL@head@
	DD	00H
	DD	FLAT:??_C@_04FOPLNFFP@span@
	DD	FLAT:??_C@_04NEODDMOL@head@
	DD	00H
	DD	FLAT:??_C@_03OCCPALPP@bdo@
	DD	FLAT:??_C@_04NEODDMOL@head@
	DD	00H
	DD	FLAT:??_C@_06PKBNCBKI@iframe@
	DD	FLAT:??_C@_04NEODDMOL@head@
	DD	00H
	DD	00H
_htmlEndPriority DD FLAT:??_C@_03FEJMGOGI@div@
	DD	096H
	DD	FLAT:??_C@_02FCNHEIMC@td@
	DD	0a0H
	DD	FLAT:??_C@_02POGCAHMO@th@
	DD	0a0H
	DD	FLAT:??_C@_02EOEPPNBF@tr@
	DD	0aaH
	DD	FLAT:??_C@_05DDLACFIC@thead@
	DD	0b4H
	DD	FLAT:??_C@_05OPBKHDLA@tbody@
	DD	0b4H
	DD	FLAT:??_C@_05KDGBEENM@tfoot@
	DD	0b4H
	DD	FLAT:??_C@_05LCLENNFI@table@
	DD	0beH
	DD	FLAT:??_C@_04NEODDMOL@head@
	DD	0c8H
	DD	FLAT:??_C@_04IEJGKNJ@body@
	DD	0c8H
	DD	FLAT:??_C@_04PNIFHPHN@html@
	DD	0dcH
	DD	00H
	DD	064H
_html40EntitiesTable DD 022H
	DD	FLAT:??_C@_04KJFGKBNM@quot@
	DD	FLAT:??_C@_0CK@JDDAPBGE@quotation?5mark?5?$DN?5APL?5quote?0?5U?$CL0@
	DD	026H
	DD	FLAT:??_C@_03DCBBJBAA@amp@
	DD	FLAT:??_C@_0BJ@FIPLPGNA@ampersand?0?5U?$CL0026?5ISOnum@
	DD	027H
	DD	FLAT:??_C@_04LBCJFAKL@apos@
	DD	FLAT:??_C@_0N@EHENLBIK@single?5quote@
	DD	03cH
	DD	FLAT:??_C@_02KCAKIFL@lt@
	DD	FLAT:??_C@_0BO@IKPLCPFL@less?9than?5sign?0?5U?$CL003C?5ISOnum@
	DD	03eH
	DD	FLAT:??_C@_02GHFEHLK@gt@
	DD	FLAT:??_C@_0CB@INPPCIDE@greater?9than?5sign?0?5U?$CL003E?5ISOnu@
	DD	0a0H
	DD	FLAT:??_C@_04PHHIFBLJ@nbsp@
	DD	FLAT:??_C@_0DD@LJPHBFKA@no?9break?5space?5?$DN?5non?9breaking?5s@
	DD	0a1H
	DD	FLAT:??_C@_05BNEGCBFC@iexcl@
	DD	FLAT:??_C@_0CJ@LDCHJPND@inverted?5exclamation?5mark?0?5U?$CL00@
	DD	0a2H
	DD	FLAT:??_C@_04OCKNFIJG@cent@
	DD	FLAT:??_C@_0BJ@JAJDJOGE@cent?5sign?0?5U?$CL00A2?5ISOnum@
	DD	0a3H
	DD	FLAT:??_C@_05EBEEKLCG@pound@
	DD	FLAT:??_C@_0BK@CBLMFKEA@pound?5sign?0?5U?$CL00A3?5ISOnum@
	DD	0a4H
	DD	FLAT:??_C@_06HEGEHONB@curren@
	DD	FLAT:??_C@_0BN@KCBDNOJC@currency?5sign?0?5U?$CL00A4?5ISOnum@
	DD	0a5H
	DD	FLAT:??_C@_03HNOOIABH@yen@
	DD	FLAT:??_C@_0CE@IIBMKILI@yen?5sign?5?$DN?5yuan?5sign?0?5U?$CL00A5?5IS@
	DD	0a6H
	DD	FLAT:??_C@_06ILPBEBAD@brvbar@
	DD	FLAT:??_C@_0DA@CCMOAPKD@broken?5bar?5?$DN?5broken?5vertical?5ba@
	DD	0a7H
	DD	FLAT:??_C@_04IKJFFMEH@sect@
	DD	FLAT:??_C@_0BM@NBPOBBLJ@section?5sign?0?5U?$CL00A7?5ISOnum@
	DD	0a8H
	DD	FLAT:??_C@_03LBNAMJF@uml@
	DD	FLAT:??_C@_0CN@DADBLGNL@diaeresis?5?$DN?5spacing?5diaeresis?0?5@
	DD	0a9H
	DD	FLAT:??_C@_04COAGEIMF@copy@
	DD	FLAT:??_C@_0BO@GKHKBHFO@copyright?5sign?0?5U?$CL00A9?5ISOnum@
	DD	0aaH
	DD	FLAT:??_C@_04JPPACPLE@ordf@
	DD	FLAT:??_C@_0CK@IDODFDJH@feminine?5ordinal?5indicator?0?5U?$CL0@
	DD	0abH
	DD	FLAT:??_C@_05PGIFNFKK@laquo@
	DD	FLAT:??_C@_0FD@BNFCAIHO@left?9pointing?5double?5angle?5quot@
	DD	0acH
	DD	FLAT:??_C@_03NJKJADM@not@
	DD	FLAT:??_C@_0BI@BCMLJBGJ@not?5sign?0?5U?$CL00AC?5ISOnum@
	DD	0adH
	DD	FLAT:??_C@_03BPAIHHLG@shy@
	DD	FLAT:??_C@_0DC@LBOPPEOL@soft?5hyphen?5?$DN?5discretionary?5hyp@
	DD	0aeH
	DD	FLAT:??_C@_03HLCNLMFP@reg@
	DD	FLAT:??_C@_0DM@GCGJPANE@registered?5sign?5?$DN?5registered?5tr@
	DD	0afH
	DD	FLAT:??_C@_04IMHNEFHF@macr@
	DD	FLAT:??_C@_0EA@HOMEIEDB@macron?5?$DN?5spacing?5macron?5?$DN?5overl@
	DD	0b0H
	DD	FLAT:??_C@_03OFPLEBM@deg@
	DD	FLAT:??_C@_0BL@CCCHHGNH@degree?5sign?0?5U?$CL00B0?5ISOnum@
	DD	0b1H
	DD	FLAT:??_C@_06CAEEBBM@plusmn@
	DD	FLAT:??_C@_0DE@CHKDBJJG@plus?9minus?5sign?5?$DN?5plus?9or?9minus@
	DD	0b2H
	DD	FLAT:??_C@_04GCMPPOHC@sup2@
	DD	FLAT:??_C@_0EB@LEPBNIBM@superscript?5two?5?$DN?5superscript?5d@
	DD	0b3H
	DD	FLAT:??_C@_04HLNEMPDD@sup3@
	DD	FLAT:??_C@_0ED@GIKFIKLK@superscript?5three?5?$DN?5superscript@
	DD	0b4H
	DD	FLAT:??_C@_05EEJEIAPO@acute@
	DD	FLAT:??_C@_0CM@HPINDAMO@acute?5accent?5?$DN?5spacing?5acute?0?5U@
	DD	0b5H
	DD	FLAT:??_C@_05PCPGMEFP@micro@
	DD	FLAT:??_C@_0BK@KOECHADG@micro?5sign?0?5U?$CL00B5?5ISOnum@
	DD	0b6H
	DD	FLAT:??_C@_04GIAGJOJD@para@
	DD	FLAT:??_C@_0CN@MOKENOBK@pilcrow?5sign?5?$DN?5paragraph?5sign?0?5@
	DD	0b7H
	DD	FLAT:??_C@_06HHCHNCAA@middot@
	DD	FLAT:??_C@_0DM@HGAIAHA@middle?5dot?5?$DN?5Georgian?5comma?5Gre@
	DD	0b8H
	DD	FLAT:??_C@_05KLIFGPMF@cedil@
	DD	FLAT:??_C@_0CJ@ILEJKNLC@cedilla?5?$DN?5spacing?5cedilla?0?5U?$CL00@
	DD	0b9H
	DD	FLAT:??_C@_04EJOCKNLB@sup1@
	DD	FLAT:??_C@_0DH@CNBAIMGE@superscript?5one?5?$DN?5superscript?5d@
	DD	0baH
	DD	FLAT:??_C@_04HMAEPGHP@ordm@
	DD	FLAT:??_C@_0CL@FJKJODCC@masculine?5ordinal?5indicator?0?5U?$CL@
	DD	0bbH
	DD	FLAT:??_C@_05MPFJLGEB@raquo@
	DD	FLAT:??_C@_0FD@EGIHNJHG@right?9pointing?5double?5angle?5quo@
	DD	0bcH
	DD	FLAT:??_C@_06NPFNIPNE@frac14@
	DD	FLAT:??_C@_0EC@KBCMBOHG@vulgar?5fraction?5one?5quarter?5?$DN?5f@
	DD	0bdH
	DD	FLAT:??_C@_06IJAHCIFC@frac12@
	DD	FLAT:??_C@_0DM@DIGGMOPD@vulgar?5fraction?5one?5half?5?$DN?5frac@
	DD	0beH
	DD	FLAT:??_C@_06NMNJFLLK@frac34@
	DD	FLAT:??_C@_0EI@KLKHBCM@vulgar?5fraction?5three?5quarters?5@
	DD	0bfH
	DD	FLAT:??_C@_06JMONPFKG@iquest@
	DD	FLAT:??_C@_0DN@EEILHCCA@inverted?5question?5mark?5?$DN?5turned@
	DD	0c0H
	DD	FLAT:??_C@_06NNGAMJGH@Agrave@
	DD	FLAT:??_C@_0FB@KEPDLJAE@latin?5capital?5letter?5A?5with?5gra@
	DD	0c1H
	DD	FLAT:??_C@_06IKEGIAOO@Aacute@
	DD	FLAT:??_C@_0DC@MHBNMNMK@latin?5capital?5letter?5A?5with?5acu@
	DD	0c2H
	DD	FLAT:??_C@_05LCALGNL@Acirc@
	DD	FLAT:??_C@_0DH@KHFDKONJ@latin?5capital?5letter?5A?5with?5cir@
	DD	0c3H
	DD	FLAT:??_C@_06KCNKLAAC@Atilde@
	DD	FLAT:??_C@_0DC@OLJINFKG@latin?5capital?5letter?5A?5with?5til@
	DD	0c4H
	DD	FLAT:??_C@_04IJOIFFGN@Auml@
	DD	FLAT:??_C@_0DG@FBFBPIGP@latin?5capital?5letter?5A?5with?5dia@
	DD	0c5H
	DD	FLAT:??_C@_05CHPAJHPJ@Aring@
	DD	FLAT:??_C@_0FF@OIKGDIMD@latin?5capital?5letter?5A?5with?5rin@
	DD	0c6H
	DD	FLAT:??_C@_05GGABFNI@AElig@
	DD	FLAT:??_C@_0EE@MODCPHBF@latin?5capital?5letter?5AE?5?$DN?5latin@
	DD	0c7H
	DD	FLAT:??_C@_06PCMIHOPM@Ccedil@
	DD	FLAT:??_C@_0DE@JIEMILBI@latin?5capital?5letter?5C?5with?5ced@
	DD	0c8H
	DD	FLAT:??_C@_06CJCPONHE@Egrave@
	DD	FLAT:??_C@_0DC@BADGAJKO@latin?5capital?5letter?5E?5with?5gra@
	DD	0c9H
	DD	FLAT:??_C@_06HOAJKEPN@Eacute@
	DD	FLAT:??_C@_0DC@IDKEOPOP@latin?5capital?5letter?5E?5with?5acu@
	DD	0caH
	DD	FLAT:??_C@_05JALBPEMN@Ecirc@
	DD	FLAT:??_C@_0DH@CICENEJK@latin?5capital?5letter?5E?5with?5cir@
	DD	0cbH
	DD	FLAT:??_C@_04HMGIPDKN@Euml@
	DD	FLAT:??_C@_0DG@HBMMEOHM@latin?5capital?5letter?5E?5with?5dia@
	DD	0ccH
	DD	FLAT:??_C@_06OOIPIHAA@Igrave@
	DD	FLAT:??_C@_0DC@OHCNNALC@latin?5capital?5letter?5I?5with?5gra@
	DD	0cdH
	DD	FLAT:??_C@_06LJKJMOIJ@Iacute@
	DD	FLAT:??_C@_0DC@HJKBEGLE@latin?5capital?5letter?5I?5with?5acu@
	DD	0ceH
	DD	FLAT:??_C@_05OHHDDELG@Icirc@
	DD	FLAT:??_C@_0DH@EMKFLPMJ@latin?5capital?5letter?5I?5with?5cir@
	DD	0cfH
	DD	FLAT:??_C@_04LJJIBOKM@Iuml@
	DD	FLAT:??_C@_0DG@MPAICMBD@latin?5capital?5letter?5I?5with?5dia@
	DD	0d0H
	DD	FLAT:??_C@_03CBGEMLIN@ETH@
	DD	FLAT:??_C@_0CJ@LDDCJAMI@latin?5capital?5letter?5ETH?0?5U?$CL00D@
	DD	0d1H
	DD	FLAT:??_C@_06FEJCMAOL@Ntilde@
	DD	FLAT:??_C@_0DC@JKOMNMAH@latin?5capital?5letter?5N?5with?5til@
	DD	0d2H
	DD	FLAT:??_C@_06INFPLCDK@Ograve@
	DD	FLAT:??_C@_0DC@EGPMPLAO@latin?5capital?5letter?5O?5with?5gra@
	DD	0d3H
	DD	FLAT:??_C@_06NKHJPLLD@Oacute@
	DD	FLAT:??_C@_0DC@NFGOBNEP@latin?5capital?5letter?5O?5with?5acu@
	DD	0d4H
	DD	FLAT:??_C@_05DBCKNHKL@Ocirc@
	DD	FLAT:??_C@_0DH@KHBIKCFI@latin?5capital?5letter?5O?5with?5cir@
	DD	0d5H
	DD	FLAT:??_C@_06PCOFMLFP@Otilde@
	DD	FLAT:??_C@_0DC@PAAAKFFJ@latin?5capital?5letter?5O?5with?5til@
	DD	0d6H
	DD	FLAT:??_C@_04DGNIOLAM@Ouml@
	DD	FLAT:??_C@_0DG@KGFFNOCC@latin?5capital?5letter?5O?5with?5dia@
	DD	0d7H
	DD	FLAT:??_C@_05MJOOAIJH@times@
	DD	FLAT:??_C@_0CD@DGCLGCAP@multiplication?5sign?0?5U?$CL00D7?5ISO@
	DD	0d8H
	DD	FLAT:??_C@_06HJKNGHPC@Oslash@
	DD	FLAT:??_C@_0FA@JOMDMBPL@latin?5capital?5letter?5O?5with?5str@
	DD	0d9H
	DD	FLAT:??_C@_06EOPBHBLK@Ugrave@
	DD	FLAT:??_C@_0DC@FAAHPKBG@latin?5capital?5letter?5U?5with?5gra@
	DD	0daH
	DD	FLAT:??_C@_06BJNHDIDD@Uacute@
	DD	FLAT:??_C@_0DC@MJMJLCAF@latin?5capital?5letter?5U?5with?5acu@
	DD	0dbH
	DD	FLAT:??_C@_05JDGHPGFG@Ucirc@
	DD	FLAT:??_C@_0DH@MPJOGDLJ@latin?5capital?5letter?5U?5with?5cir@
	DD	0dcH
	DD	FLAT:??_C@_04BMIIGECP@Uuml@
	DD	FLAT:??_C@_0DG@GOPODDHD@latin?5capital?5letter?5U?5with?5dia@
	DD	0ddH
	DD	FLAT:??_C@_06NOHHFCEH@Yacute@
	DD	FLAT:??_C@_0DC@NGFCNODC@latin?5capital?5letter?5Y?5with?5acu@
	DD	0deH
	DD	FLAT:??_C@_05HDBENHAL@THORN@
	DD	FLAT:??_C@_0CL@CHGPFKBD@latin?5capital?5letter?5THORN?0?5U?$CL0@
	DD	0dfH
	DD	FLAT:??_C@_05GMKDJMCJ@szlig@
	DD	FLAT:??_C@_0DF@GONKECDL@latin?5small?5letter?5sharp?5s?5?$DN?5es@
	DD	0e0H
	DD	FLAT:??_C@_06BCNNPAPL@agrave@
	DD	FLAT:??_C@_0EN@PDCHJIBF@latin?5small?5letter?5a?5with?5grave@
	DD	0e1H
	DD	FLAT:??_C@_06EFPLLJHC@aacute@
	DD	FLAT:??_C@_0DA@FMJKAKAM@latin?5small?5letter?5a?5with?5acute@
	DD	0e2H
	DD	FLAT:??_C@_05MIMLDON@acirc@
	DD	FLAT:??_C@_0DF@OHHHJIGO@latin?5small?5letter?5a?5with?5circu@
	DD	0e3H
	DD	FLAT:??_C@_06GNGHIJJO@atilde@
	DD	FLAT:??_C@_0DA@HABPBCGA@latin?5small?5letter?5a?5with?5tilde@
	DD	0e4H
	DD	FLAT:??_C@_04EICJHKGJ@auml@
	DD	FLAT:??_C@_0DE@EPMHJDIB@latin?5small?5letter?5a?5with?5diaer@
	DD	0e5H
	DD	FLAT:??_C@_05CAFMJCMP@aring@
	DD	FLAT:??_C@_0FB@ICHFIEOC@latin?5small?5letter?5a?5with?5ring?5@
	DD	0e6H
	DD	FLAT:??_C@_05MAANDPOK@aelig@
	DD	FLAT:??_C@_0EA@CAAHFPMH@latin?5small?5letter?5ae?5?$DN?5latin?5s@
	DD	0e7H
	DD	FLAT:??_C@_06DNHFEHGA@ccedil@
	DD	FLAT:??_C@_0DC@EILMCCNK@latin?5small?5letter?5c?5with?5cedil@
	DD	0e8H
	DD	FLAT:??_C@_06OGJCNEOI@egrave@
	DD	FLAT:??_C@_0DA@ILLBMOGI@latin?5small?5letter?5e?5with?5grave@
	DD	0e9H
	DD	FLAT:??_C@_06LBLEJNGB@eacute@
	DD	FLAT:??_C@_0DA@BICDCICJ@latin?5small?5letter?5e?5with?5acute@
	DD	0eaH
	DD	FLAT:??_C@_05JHBNPBPL@ecirc@
	DD	FLAT:??_C@_0DF@GIAAOCCN@latin?5small?5letter?5e?5with?5circu@
	DD	0ebH
	DD	FLAT:??_C@_04LNKJNMKJ@euml@
	DD	FLAT:??_C@_0DE@GPFKCFJC@latin?5small?5letter?5e?5with?5diaer@
	DD	0ecH
	DD	FLAT:??_C@_06CBDCLOJM@igrave@
	DD	FLAT:??_C@_0DA@HMKKBHHE@latin?5small?5letter?5i?5with?5grave@
	DD	0edH
	DD	FLAT:??_C@_06HGBEPHBF@iacute@
	DD	FLAT:??_C@_0DA@OCCGIBHC@latin?5small?5letter?5i?5with?5acute@
	DD	0eeH
	DD	FLAT:??_C@_05OANPDBIA@icirc@
	DD	FLAT:??_C@_0DF@MIBIJHO@latin?5small?5letter?5i?5with?5circu@
	DD	0efH
	DD	FLAT:??_C@_04HIFJDBKI@iuml@
	DD	FLAT:??_C@_0DE@NBJOEHPN@latin?5small?5letter?5i?5with?5diaer@
	DD	0f0H
	DD	FLAT:??_C@_03CMJPAGPB@eth@
	DD	FLAT:??_C@_0CH@LGCMOCIP@latin?5small?5letter?5eth?0?5U?$CL00F0?5@
	DD	0f1H
	DD	FLAT:??_C@_06JLCPPJHH@ntilde@
	DD	FLAT:??_C@_0DA@LBLCGIED@latin?5small?5letter?5n?5with?5tilde@
	DD	0f2H
	DD	FLAT:??_C@_06ECOCILKG@ograve@
	DD	FLAT:??_C@_0DA@GNKCEPEK@latin?5small?5letter?5o?5with?5grave@
	DD	0f3H
	DD	FLAT:??_C@_06BFMEMCCP@oacute@
	DD	FLAT:??_C@_0DA@PODAKJAL@latin?5small?5letter?5o?5with?5acute@
	DD	0f4H
	DD	FLAT:??_C@_05DGIGNCJN@ocirc@
	DD	FLAT:??_C@_0DF@FHOFOHGN@latin?5small?5letter?5o?5with?5circu@
	DD	0f5H
	DD	FLAT:??_C@_06DNFIPCMD@otilde@
	DD	FLAT:??_C@_0DA@NLFOBBBN@latin?5small?5letter?5o?5with?5tilde@
	DD	0f6H
	DD	FLAT:??_C@_04PHBJMEAI@ouml@
	DD	FLAT:??_C@_0DE@IBKMGEO@latin?5small?5letter?5o?5with?5diaer@
	DD	0f7H
	DD	FLAT:??_C@_06FFHJEHBN@divide@
	DD	FLAT:??_C@_0BN@DJHBCHKN@division?5sign?0?5U?$CL00F7?5ISOnum@
	DD	0f8H
	DD	FLAT:??_C@_06LGBAFOGO@oslash@
	DD	FLAT:??_C@_0EP@JDKOEFON@latin?5small?5letter?5o?5with?5strok@
	DD	0f9H
	DD	FLAT:??_C@_06IBEMEICG@ugrave@
	DD	FLAT:??_C@_0DA@HLFJEOFC@latin?5small?5letter?5u?5with?5grave@
	DD	0faH
	DD	FLAT:??_C@_06NGGKABKP@uacute@
	DD	FLAT:??_C@_0DA@OCJHAGEB@latin?5small?5letter?5u?5with?5acute@
	DD	0fbH
	DD	FLAT:??_C@_05JEMLPDGA@ucirc@
	DD	FLAT:??_C@_0DF@DPGDCGIM@latin?5small?5letter?5u?5with?5circu@
	DD	0fcH
	DD	FLAT:??_C@_04NNEJELCL@uuml@
	DD	FLAT:??_C@_0DE@MALBCLBP@latin?5small?5letter?5u?5with?5diaer@
	DD	0fdH
	DD	FLAT:??_C@_06BBMKGLNL@yacute@
	DD	FLAT:??_C@_0DA@PNAMGKHG@latin?5small?5letter?5y?5with?5acute@
	DD	0feH
	DD	FLAT:??_C@_05LIICDAEF@thorn@
	DD	FLAT:??_C@_0CO@PJIHMBHF@latin?5small?5letter?5thorn?5with?0?5@
	DD	0ffH
	DD	FLAT:??_C@_04BILJKGCK@yuml@
	DD	FLAT:??_C@_0DE@JBLHCCEO@latin?5small?5letter?5y?5with?5diaer@
	DD	0152H
	DD	FLAT:??_C@_05DMGKHEKI@OElig@
	DD	FLAT:??_C@_0CK@MKAIEJDG@latin?5capital?5ligature?5OE?0?5U?$CL01@
	DD	0153H
	DD	FLAT:??_C@_05PKAHFOJK@oelig@
	DD	FLAT:??_C@_0CI@PBDOLLDF@latin?5small?5ligature?5oe?0?5U?$CL0153@
	DD	0160H
	DD	FLAT:??_C@_06CDFPFCIB@Scaron@
	DD	FLAT:??_C@_0DC@DIFHMFIC@latin?5capital?5letter?5S?5with?5car@
	DD	0161H
	DD	FLAT:??_C@_06OMOCGLBN@scaron@
	DD	FLAT:??_C@_0DA@KEKHKDDJ@latin?5small?5letter?5s?5with?5caron@
	DD	0178H
	DD	FLAT:??_C@_04NJHIIJCO@Yuml@
	DD	FLAT:??_C@_0DG@DAKEFH@latin?5capital?5letter?5Y?5with?5dia@
	DD	0192H
	DD	FLAT:??_C@_04IEHKEKAD@fnof@
	DD	FLAT:??_C@_0DM@ONFHMKBH@latin?5small?5f?5with?5hook?5?$DN?5funct@
	DD	02c6H
	DD	FLAT:??_C@_04LIMEDJKM@circ@
	DD	FLAT:??_C@_0DB@JBEBEMPM@modifier?5letter?5circumflex?5acce@
	DD	02dcH
	DD	FLAT:??_C@_05GMAILABC@tilde@
	DD	FLAT:??_C@_0BL@KGODGBKN@small?5tilde?0?5U?$CL02DC?5ISOdia@
	DD	0391H
	DD	FLAT:??_C@_05IHOGHNDL@Alpha@
	DD	FLAT:??_C@_0CD@LPBPODOI@greek?5capital?5letter?5alpha?0?5U?$CL0@
	DD	0392H
	DD	FLAT:??_C@_04DIAIJOJA@Beta@
	DD	FLAT:??_C@_0CC@OOBPMHFM@greek?5capital?5letter?5beta?0?5U?$CL03@
	DD	0393H
	DD	FLAT:??_C@_05NJHBHDO@Gamma@
	DD	FLAT:??_C@_0CL@LGHPBLEE@greek?5capital?5letter?5gamma?0?5U?$CL0@
	DD	0394H
	DD	FLAT:??_C@_05NFMIDMMK@Delta@
	DD	FLAT:??_C@_0CL@NHEEDEFH@greek?5capital?5letter?5delta?0?5U?$CL0@
	DD	0395H
	DD	FLAT:??_C@_07MHFJNEOI@Epsilon@
	DD	FLAT:??_C@_0CF@JDHAIGGH@greek?5capital?5letter?5epsilon?0?5U@
	DD	0396H
	DD	FLAT:??_C@_04GIJIECND@Zeta@
	DD	FLAT:??_C@_0CC@GEHHHHOP@greek?5capital?5letter?5zeta?0?5U?$CL03@
	DD	0397H
	DD	FLAT:??_C@_03FNGPBCIG@Eta@
	DD	FLAT:??_C@_0CB@GCINFKKN@greek?5capital?5letter?5eta?0?5U?$CL039@
	DD	0398H
	DD	FLAT:??_C@_05FDIGLFGK@Theta@
	DD	FLAT:??_C@_0CL@DEOCPNDP@greek?5capital?5letter?5theta?0?5U?$CL0@
	DD	0399H
	DD	FLAT:??_C@_04CAGFEPOF@Iota@
	DD	FLAT:??_C@_0CC@BFEJFF@greek?5capital?5letter?5iota?0?5U?$CL03@
	DD	039aH
	DD	FLAT:??_C@_05MMNIGICE@Kappa@
	DD	FLAT:??_C@_0CD@BBAOAFHF@greek?5capital?5letter?5kappa?0?5U?$CL0@
	DD	039bH
	DD	FLAT:??_C@_06OBCFFGBN@Lambda@
	DD	FLAT:??_C@_0CM@NLEFHINL@greek?5capital?5letter?5lambda?0?5U?$CL@
	DD	039cH
	DD	FLAT:??_C@_02CKLELFMN@Mu@
	DD	FLAT:??_C@_0CA@JHDDCCNN@greek?5capital?5letter?5mu?0?5U?$CL039C@
	DD	039dH
	DD	FLAT:??_C@_02CIPCALJE@Nu@
	DD	FLAT:??_C@_0CA@EBJANCBL@greek?5capital?5letter?5nu?0?5U?$CL039D@
	DD	039eH
	DD	FLAT:??_C@_02NGCOIJAL@Xi@
	DD	FLAT:??_C@_0CI@DEKDLEND@greek?5capital?5letter?5xi?0?5U?$CL039E@
	DD	039fH
	DD	FLAT:??_C@_07IKLCMNO@Omicron@
	DD	FLAT:??_C@_0CF@LAEOEFAO@greek?5capital?5letter?5omicron?0?5U@
	DD	03a0H
	DD	FLAT:??_C@_02NIDNNILD@Pi@
	DD	FLAT:??_C@_0CI@GJIDFEDM@greek?5capital?5letter?5pi?0?5U?$CL03A0@
	DD	03a1H
	DD	FLAT:??_C@_03BLBOAKDK@Rho@
	DD	FLAT:??_C@_0CB@KMJAKGAP@greek?5capital?5letter?5rho?0?5U?$CL03A@
	DD	03a3H
	DD	FLAT:??_C@_05MKBNPMBG@Sigma@
	DD	FLAT:??_C@_0CL@HFCPNIPL@greek?5capital?5letter?5sigma?0?5U?$CL0@
	DD	03a4H
	DD	FLAT:??_C@_03IBIJJELC@Tau@
	DD	FLAT:??_C@_0CB@HFBLNIAO@greek?5capital?5letter?5tau?0?5U?$CL03A@
	DD	03a5H
	DD	FLAT:??_C@_07LLOCOFMD@Upsilon@
	DD	FLAT:??_C@_0CN@JFDLHIKN@greek?5capital?5letter?5upsilon?0?5U@
	DD	03a6H
	DD	FLAT:??_C@_03OHENGFDH@Phi@
	DD	FLAT:??_C@_0CJ@HBFJNDBB@greek?5capital?5letter?5phi?0?5U?$CL03A@
	DD	03a7H
	DD	FLAT:??_C@_03KFOBJNEG@Chi@
	DD	FLAT:??_C@_0CB@GAGJNAFN@greek?5capital?5letter?5chi?0?5U?$CL03A@
	DD	03a8H
	DD	FLAT:??_C@_03PHDOCJKG@Psi@
	DD	FLAT:??_C@_0CJ@NGCFEDIE@greek?5capital?5letter?5psi?0?5U?$CL03A@
	DD	03a9H
	DD	FLAT:??_C@_05OMBHNFGL@Omega@
	DD	FLAT:??_C@_0CL@ILDKNODA@greek?5capital?5letter?5omega?0?5U?$CL0@
	DD	03b1H
	DD	FLAT:??_C@_05IAEKHIAN@alpha@
	DD	FLAT:??_C@_0CJ@NGKKADHM@greek?5small?5letter?5alpha?0?5U?$CL03B@
	DD	03b2H
	DD	FLAT:??_C@_04PJMJLBJE@beta@
	DD	FLAT:??_C@_0CI@HELPLLEJ@greek?5small?5letter?5beta?0?5U?$CL03B2@
	DD	03b3H
	DD	FLAT:??_C@_05KDLBCAI@gamma@
	DD	FLAT:??_C@_0CJ@GAGCCHKA@greek?5small?5letter?5gamma?0?5U?$CL03B@
	DD	03b4H
	DD	FLAT:??_C@_05NCGEDJPM@delta@
	DD	FLAT:??_C@_0CJ@BFJAILD@greek?5small?5letter?5delta?0?5U?$CL03B@
	DD	03b5H
	DD	FLAT:??_C@_07DOCPLGLO@epsilon@
	DD	FLAT:??_C@_0CL@DLPCDOME@greek?5small?5letter?5epsilon?0?5U?$CL0@
	DD	03b6H
	DD	FLAT:??_C@_04KJFJGNNH@zeta@
	DD	FLAT:??_C@_0CI@BDECAAKJ@greek?5small?5letter?5zeta?0?5U?$CL03B6@
	DD	03b7H
	DD	FLAT:??_C@_03PNFNLNLI@eta@
	DD	FLAT:??_C@_0CH@KEKGFBMN@greek?5small?5letter?5eta?0?5U?$CL03B7?5@
	DD	03b8H
	DD	FLAT:??_C@_05FECKLAFM@theta@
	DD	FLAT:??_C@_0CJ@OCPPMBNL@greek?5small?5letter?5theta?0?5U?$CL03B@
	DD	03b9H
	DD	FLAT:??_C@_04OBKEGAOB@iota@
	DD	FLAT:??_C@_0CI@IFKGGLBF@greek?5small?5letter?5iota?0?5U?$CL03B9@
	DD	03baH
	DD	FLAT:??_C@_05MLHEGNBC@kappa@
	DD	FLAT:??_C@_0CJ@FMCMBLI@greek?5small?5letter?5kappa?0?5U?$CL03B@
	DD	03bbH
	DD	FLAT:??_C@_06COJIGPIB@lambda@
	DD	FLAT:??_C@_0CK@PECPLDML@greek?5small?5letter?5lambda?0?5U?$CL03@
	DD	03bcH
	DD	FLAT:??_C@_02BCPJPDCN@mu@
	DD	FLAT:??_C@_0CG@GBCBMJNP@greek?5small?5letter?5mu?0?5U?$CL03BC?5I@
	DD	03bdH
	DD	FLAT:??_C@_02BALPENHE@nu@
	DD	FLAT:??_C@_0CG@CAKLFEAP@greek?5small?5letter?5nu?0?5U?$CL03BD?5I@
	DD	03beH
	DD	FLAT:??_C@_02OOGDMPOL@xi@
	DD	FLAT:??_C@_0CG@HDKNCKDK@greek?5small?5letter?5xi?0?5U?$CL03BE?5I@
	DD	03bfH
	DD	FLAT:??_C@_07PBNNEOII@omicron@
	DD	FLAT:??_C@_0CH@GIJCJIME@greek?5small?5letter?5omicron?0?5U?$CL0@
	DD	03c0H
	DD	FLAT:??_C@_02OAHAJOFD@pi@
	DD	FLAT:??_C@_0CG@KLOCKGKD@greek?5small?5letter?5pi?0?5U?$CL03C0?5I@
	DD	03c1H
	DD	FLAT:??_C@_03LLCMKFAE@rho@
	DD	FLAT:??_C@_0CH@IDBCMKBI@greek?5small?5letter?5rho?0?5U?$CL03C1?5@
	DD	03c2H
	DD	FLAT:??_C@_06IAEFNBA@sigmaf@
	DD	FLAT:??_C@_0CP@IIMCBNML@greek?5small?5letter?5final?5sigma?0@
	DD	03c3H
	DD	FLAT:??_C@_05MNLBPJCA@sigma@
	DD	FLAT:??_C@_0CJ@CGFNIIGJ@greek?5small?5letter?5sigma?0?5U?$CL03C@
	DD	03c4H
	DD	FLAT:??_C@_03CBLLDLIM@tau@
	DD	FLAT:??_C@_0CH@DHNJIMD@greek?5small?5letter?5tau?0?5U?$CL03C4?5@
	DD	03c5H
	DD	FLAT:??_C@_07ECJEIHJF@upsilon@
	DD	FLAT:??_C@_0CL@IFBHJODJ@greek?5small?5letter?5upsilon?0?5U?$CL0@
	DD	03c6H
	DD	FLAT:??_C@_03EHHPMKAJ@phi@
	DD	FLAT:??_C@_0CH@KFHMBLGI@greek?5small?5letter?5phi?0?5U?$CL03C6?5@
	DD	03c7H
	DD	FLAT:??_C@_03FNDDCHI@chi@
	DD	FLAT:??_C@_0CH@FNBJGLJ@greek?5small?5letter?5chi?0?5U?$CL03C7?5@
	DD	03c8H
	DD	FLAT:??_C@_03FHAMIGJI@psi@
	DD	FLAT:??_C@_0CH@CAAILPN@greek?5small?5letter?5psi?0?5U?$CL03C8?5@
	DD	03c9H
	DD	FLAT:??_C@_05OLLLNAFN@omega@
	DD	FLAT:??_C@_0CJ@NIEIIOKC@greek?5small?5letter?5omega?0?5U?$CL03C@
	DD	03d1H
	DD	FLAT:??_C@_08KICBPJKJ@thetasym@
	DD	FLAT:??_C@_0CM@BLIOHCJH@greek?5small?5letter?5theta?5symbol@
	DD	03d2H
	DD	FLAT:??_C@_05HPKIDMJD@upsih@
	DD	FLAT:??_C@_0CL@EJFICJGP@greek?5upsilon?5with?5hook?5symbol?0@
	DD	03d6H
	DD	FLAT:??_C@_03ILOHKOKA@piv@
	DD	FLAT:??_C@_0CA@BEPNCOE@greek?5pi?5symbol?0?5U?$CL03D6?5ISOgrk3@
	DD	02002H
	DD	FLAT:??_C@_04MKHONPBA@ensp@
	DD	FLAT:??_C@_0BI@MFLEMBMM@en?5space?0?5U?$CL2002?5ISOpub@
	DD	02003H
	DD	FLAT:??_C@_04NIMLHAPO@emsp@
	DD	FLAT:??_C@_0BI@KECKOMLC@em?5space?0?5U?$CL2003?5ISOpub@
	DD	02009H
	DD	FLAT:??_C@_06KIEAGDHN@thinsp@
	DD	FLAT:??_C@_0BK@BMAGNFEE@thin?5space?0?5U?$CL2009?5ISOpub@
	DD	0200cH
	DD	FLAT:??_C@_04KBAMANKO@zwnj@
	DD	FLAT:??_C@_0CL@DLBANCKG@zero?5width?5non?9joiner?0?5U?$CL200C?5N@
	DD	0200dH
	DD	FLAT:??_C@_03BEJFJNOD@zwj@
	DD	FLAT:??_C@_0CH@HBJLDPCB@zero?5width?5joiner?0?5U?$CL200D?5NEW?5R@
	DD	0200eH
	DD	FLAT:??_C@_03CIGNMBIM@lrm@
	DD	FLAT:??_C@_0CI@JMDAIFJP@left?9to?9right?5mark?0?5U?$CL200E?5NEW?5@
	DD	0200fH
	DD	FLAT:??_C@_03IOBDGPFK@rlm@
	DD	FLAT:??_C@_0CI@CAGBGDGP@right?9to?9left?5mark?0?5U?$CL200F?5NEW?5@
	DD	02013H
	DD	FLAT:??_C@_05GIHIEGDL@ndash@
	DD	FLAT:??_C@_0BH@PNMIOILG@en?5dash?0?5U?$CL2013?5ISOpub@
	DD	02014H
	DD	FLAT:??_C@_05OOOMDEJF@mdash@
	DD	FLAT:??_C@_0BH@KANBCIDP@em?5dash?0?5U?$CL2014?5ISOpub@
	DD	02018H
	DD	FLAT:??_C@_05OMKFBBEI@lsquo@
	DD	FLAT:??_C@_0CK@GNEELPIK@left?5single?5quotation?5mark?0?5U?$CL2@
	DD	02019H
	DD	FLAT:??_C@_05NFHJHCKD@rsquo@
	DD	FLAT:??_C@_0CL@GEEKPFIM@right?5single?5quotation?5mark?0?5U?$CL@
	DD	0201aH
	DD	FLAT:??_C@_05EDKFBPDE@sbquo@
	DD	FLAT:??_C@_0CI@NPEPNHFF@single?5low?99?5quotation?5mark?0?5U?$CL@
	DD	0201cH
	DD	FLAT:??_C@_05DOGFFKNK@ldquo@
	DD	FLAT:??_C@_0CK@DIJLOOKF@left?5double?5quotation?5mark?0?5U?$CL2@
	DD	0201dH
	DD	FLAT:??_C@_05HLJDJDB@rdquo@
	DD	FLAT:??_C@_0CL@ECIPNNCJ@right?5double?5quotation?5mark?0?5U?$CL@
	DD	0201eH
	DD	FLAT:??_C@_05EGPDLKK@bdquo@
	DD	FLAT:??_C@_0CI@JHNLBCGB@double?5low?99?5quotation?5mark?0?5U?$CL@
	DD	02020H
	DD	FLAT:??_C@_06DEOCNA@dagger@
	DD	FLAT:??_C@_0BG@KCAEGFLE@dagger?0?5U?$CL2020?5ISOpub@
	DD	02021H
	DD	FLAT:??_C@_06MPIJNLEM@Dagger@
	DD	FLAT:??_C@_0BN@EMJEPPHC@double?5dagger?0?5U?$CL2021?5ISOpub@
	DD	02022H
	DD	FLAT:??_C@_04OELGKIO@bull@
	DD	FLAT:??_C@_0CL@DGNFAKNB@bullet?5?$DN?5black?5small?5circle?0?5U?$CL@
	DD	02026H
	DD	FLAT:??_C@_06MHPIOHEE@hellip@
	DD	FLAT:??_C@_0DG@IFMGDAHK@horizontal?5ellipsis?5?$DN?5three?5dot@
	DD	02030H
	DD	FLAT:??_C@_06BCNCCGDG@permil@
	DD	FLAT:??_C@_0BP@MOFLNGGL@per?5mille?5sign?0?5U?$CL2030?5ISOtech@
	DD	02032H
	DD	FLAT:??_C@_05NIKGJPCK@prime@
	DD	FLAT:??_C@_0CH@BOHNNDDJ@prime?5?$DN?5minutes?5?$DN?5feet?0?5U?$CL2032?5@
	DD	02033H
	DD	FLAT:??_C@_05NPAKJKBM@Prime@
	DD	FLAT:??_C@_0DA@NOHFAGMO@double?5prime?5?$DN?5seconds?5?$DN?5inches@
	DD	02039H
	DD	FLAT:??_C@_06GELNDNKI@lsaquo@
	DD	FLAT:??_C@_0DP@FIMACBKH@single?5left?9pointing?5angle?5quot@
	DD	0203aH
	DD	FLAT:??_C@_06FDFMNKDL@rsaquo@
	DD	FLAT:??_C@_0EA@GOMGFHEI@single?5right?9pointing?5angle?5quo@
	DD	0203eH
	DD	FLAT:??_C@_05PHLALINO@oline@
	DD	FLAT:??_C@_0CJ@PIHCOGHN@overline?5?$DN?5spacing?5overscore?0?5U@
	DD	02044H
	DD	FLAT:??_C@_05POHGDHA@frasl@
	DD	FLAT:??_C@_0BL@ECLANJNI@fraction?5slash?0?5U?$CL2044?5NEW@
	DD	020acH
	DD	FLAT:??_C@_04IBPOGLCH@euro@
	DD	FLAT:??_C@_0BG@JOOOHDJA@euro?5sign?0?5U?$CL20AC?5NEW@
	DD	02111H
	DD	FLAT:??_C@_05NGOMGBBD@image@
	DD	FLAT:??_C@_0DH@HDIEDNLH@blackletter?5capital?5I?5?$DN?5imagina@
	DD	02118H
	DD	FLAT:??_C@_06PDPFIHAI@weierp@
	DD	FLAT:??_C@_0DN@GALPCJE@script?5capital?5P?5?$DN?5power?5set?5?$DN?5@
	DD	0211cH
	DD	FLAT:??_C@_04DGGKDJMA@real@
	DD	FLAT:??_C@_0DJ@HIEIFFHC@blackletter?5capital?5R?5?$DN?5real?5pa@
	DD	02122H
	DD	FLAT:??_C@_05IJFCMOFM@trade@
	DD	FLAT:??_C@_0BP@FGOALMKH@trade?5mark?5sign?0?5U?$CL2122?5ISOnum@
	DD	02135H
	DD	FLAT:??_C@_07HGDIPDGB@alefsym@
	DD	FLAT:??_C@_0DF@FEFKAOCF@alef?5symbol?5?$DN?5first?5transfinite@
	DD	02190H
	DD	FLAT:??_C@_04KMPJKFIC@larr@
	DD	FLAT:??_C@_0BP@MANNKCID@leftwards?5arrow?0?5U?$CL2190?5ISOnum@
	DD	02191H
	DD	FLAT:??_C@_04MBAJFAHB@uarr@
	DD	FLAT:??_C@_0BN@OACCONEB@upwards?5arrow?0?5U?$CL2191?5ISOnum@
	DD	02192H
	DD	FLAT:??_C@_04HDCJIMGB@rarr@
	DD	FLAT:??_C@_0CA@IGGHOOCM@rightwards?5arrow?0?5U?$CL2192?5ISOnum@
	DD	02193H
	DD	FLAT:??_C@_04JMIJOOED@darr@
	DD	FLAT:??_C@_0BP@DOIMJHPM@downwards?5arrow?0?5U?$CL2193?5ISOnum@
	DD	02194H
	DD	FLAT:??_C@_04FJHJADEC@harr@
	DD	FLAT:??_C@_0CB@IHAAEEFA@left?5right?5arrow?0?5U?$CL2194?5ISOams@
	DD	021b5H
	DD	FLAT:??_C@_05IKKJKHCL@crarr@
	DD	FLAT:??_C@_0EE@KKIJJMBC@downwards?5arrow?5with?5corner?5lef@
	DD	021d0H
	DD	FLAT:??_C@_04MMLAKLM@lArr@
	DD	FLAT:??_C@_0CH@MGOLKEFA@leftwards?5double?5arrow?0?5U?$CL21D0?5@
	DD	021d1H
	DD	FLAT:??_C@_04GBDLPPEP@uArr@
	DD	FLAT:??_C@_0CF@KBBKONBL@upwards?5double?5arrow?0?5U?$CL21D1?5IS@
	DD	021d2H
	DD	FLAT:??_C@_04NDBLCDFP@rArr@
	DD	FLAT:??_C@_0CI@IKAGJDHN@rightwards?5double?5arrow?0?5U?$CL21D2@
	DD	021d3H
	DD	FLAT:??_C@_04DMLLEBHN@dArr@
	DD	FLAT:??_C@_0CH@GBOLFAFE@downwards?5double?5arrow?0?5U?$CL21D3?5@
	DD	021d4H
	DD	FLAT:??_C@_04PJELKMHM@hArr@
	DD	FLAT:??_C@_0CI@IFCBBNJJ@left?5right?5double?5arrow?0?5U?$CL21D4@
	DD	02200H
	DD	FLAT:??_C@_06PLFKNBPH@forall@
	DD	FLAT:??_C@_0BI@NOOLIOLI@for?5all?0?5U?$CL2200?5ISOtech@
	DD	02202H
	DD	FLAT:??_C@_04FPLDHIIH@part@
	DD	FLAT:??_C@_0CF@GGOIFMBL@partial?5differential?0?5U?$CL2202?5IS@
	DD	02203H
	DD	FLAT:??_C@_05IEGMLJMJ@exist@
	DD	FLAT:??_C@_0BN@EAFHKNPG@there?5exists?0?5U?$CL2203?5ISOtech@
	DD	02205H
	DD	FLAT:??_C@_05LBJMNBOG@empty@
	DD	FLAT:??_C@_0DA@LKCPIGBO@empty?5set?5?$DN?5null?5set?5?$DN?5diameter@
	DD	02207H
	DD	FLAT:??_C@_05HEJFDJKB@nabla@
	DD	FLAT:??_C@_0CM@GCEKGKCK@nabla?5?$DN?5backward?5difference?0?5U?$CL@
	DD	02208H
	DD	FLAT:??_C@_04GIANKECK@isin@
	DD	FLAT:??_C@_0BL@GDBOMBIM@element?5of?0?5U?$CL2208?5ISOtech@
	DD	02209H
	DD	FLAT:??_C@_05DPIEFBKH@notin@
	DD	FLAT:??_C@_0CC@DDLOCPFN@not?5an?5element?5of?0?5U?$CL2209?5ISOte@
	DD	0220bH
	DD	FLAT:??_C@_02PGMIBACJ@ni@
	DD	FLAT:??_C@_0CD@BGLAPDGA@contains?5as?5member?0?5U?$CL220B?5ISOt@
	DD	0220fH
	DD	FLAT:??_C@_04EDCDKCIE@prod@
	DD	FLAT:??_C@_0CN@JGMMGEDP@n?9ary?5product?5?$DN?5product?5sign?0?5U@
	DD	02211H
	DD	FLAT:??_C@_03CFFIJAMA@sum@
	DD	FLAT:??_C@_0CA@MLFCAEFK@n?9ary?5summation?0?5U?$CL2211?5ISOamsb@
	DD	02212H
	DD	FLAT:??_C@_05ODKEFHFK@minus@
	DD	FLAT:??_C@_0BL@FJCONNGD@minus?5sign?0?5U?$CL2212?5ISOtech@
	DD	02217H
	DD	FLAT:??_C@_06CKLHNNN@lowast@
	DD	FLAT:??_C@_0CC@CNKJAFM@asterisk?5operator?0?5U?$CL2217?5ISOte@
	DD	0221aH
	DD	FLAT:??_C@_05BBBHAEPE@radic@
	DD	FLAT:??_C@_0CL@ILNDCHNK@square?5root?5?$DN?5radical?5sign?0?5U?$CL2@
	DD	0221dH
	DD	FLAT:??_C@_04GNINHFNB@prop@
	DD	FLAT:??_C@_0CA@BMLNCKCC@proportional?5to?0?5U?$CL221D?5ISOtech@
	DD	0221eH
	DD	FLAT:??_C@_05OFPBNHLL@infin@
	DD	FLAT:??_C@_0BJ@MNMMNFFJ@infinity?0?5U?$CL221E?5ISOtech@
	DD	02220H
	DD	FLAT:??_C@_03DFNEKLMP@ang@
	DD	FLAT:??_C@_0BG@GBCFPCNE@angle?0?5U?$CL2220?5ISOamso@
	DD	02227H
	DD	FLAT:??_C@_03BOPJPIAM@and@
	DD	FLAT:??_C@_0CE@NKBACHGA@logical?5and?5?$DN?5wedge?0?5U?$CL2227?5ISO@
	DD	02228H
	DD	FLAT:??_C@_02FODMLBIE@or@
	DD	FLAT:??_C@_0CB@FLAIEBBA@logical?5or?5?$DN?5vee?0?5U?$CL2228?5ISOtec@
	DD	02229H
	DD	FLAT:??_C@_03JBACKAOP@cap@
	DD	FLAT:??_C@_0CD@JBIOOGBO@intersection?5?$DN?5cap?0?5U?$CL2229?5ISOt@
	DD	0222aH
	DD	FLAT:??_C@_03IKCNKLED@cup@
	DD	FLAT:??_C@_0BM@JDEPIPG@union?5?$DN?5cup?0?5U?$CL222A?5ISOtech@
	DD	0222bH
	DD	FLAT:??_C@_03JBIPMCLC@int@
	DD	FLAT:??_C@_0BJ@DAPJHJHO@integral?0?5U?$CL222B?5ISOtech@
	DD	02234H
	DD	FLAT:??_C@_06PLMBDDJI@there4@
	DD	FLAT:??_C@_0BK@MEMCAFFC@therefore?0?5U?$CL2234?5ISOtech@
	DD	0223cH
	DD	FLAT:??_C@_03DAGEMKNE@sim@
	DD	FLAT:??_C@_0DK@DFMGNFEL@tilde?5operator?5?$DN?5varies?5with?5?$DN?5@
	DD	02245H
	DD	FLAT:??_C@_04OMPPPJGA@cong@
	DD	FLAT:??_C@_0CH@JKKBMPFH@approximately?5equal?5to?0?5U?$CL2245?5@
	DD	02248H
	DD	FLAT:??_C@_05EKOANGCP@asymp@
	DD	FLAT:??_C@_0DA@ELDFLNNK@almost?5equal?5to?5?$DN?5asymptotic?5to@
	DD	02260H
	DD	FLAT:??_C@_02FKHNFPCF@ne@
	DD	FLAT:??_C@_0BN@PJGPJIIG@not?5equal?5to?0?5U?$CL2260?5ISOtech@
	DD	02261H
	DD	FLAT:??_C@_05LADEHHLL@equiv@
	DD	FLAT:??_C@_0BN@MJCNDCCF@identical?5to?0?5U?$CL2261?5ISOtech@
	DD	02264H
	DD	FLAT:??_C@_02FJPJILEL@le@
	DD	FLAT:??_C@_0CG@EDHLKJHI@less?9than?5or?5equal?5to?0?5U?$CL2264?5I@
	DD	02265H
	DD	FLAT:??_C@_02FFKMGEKK@ge@
	DD	FLAT:??_C@_0CJ@OOFAGHNB@greater?9than?5or?5equal?5to?0?5U?$CL226@
	DD	02282H
	DD	FLAT:??_C@_03KCMAIMAP@sub@
	DD	FLAT:??_C@_0BK@JKNHIPAJ@subset?5of?0?5U?$CL2282?5ISOtech@
	DD	02283H
	DD	FLAT:??_C@_03NKDEPMNM@sup@
	DD	FLAT:??_C@_0BM@ICBAIMLO@superset?5of?0?5U?$CL2283?5ISOtech@
	DD	02284H
	DD	FLAT:??_C@_04GDKEGNCC@nsub@
	DD	FLAT:??_C@_0CA@PMHNPAEI@not?5a?5subset?5of?0?5U?$CL2284?5ISOamsn@
	DD	02286H
	DD	FLAT:??_C@_04IIJHECPP@sube@
	DD	FLAT:??_C@_0CG@IBKNAAAC@subset?5of?5or?5equal?5to?0?5U?$CL2286?5I@
	DD	02287H
	DD	FLAT:??_C@_04JHDFDFOB@supe@
	DD	FLAT:??_C@_0CI@GNKICMCH@superset?5of?5or?5equal?5to?0?5U?$CL2287@
	DD	02295H
	DD	FLAT:??_C@_05GJJFMLCJ@oplus@
	DD	FLAT:??_C@_0CK@PJJPJOGF@circled?5plus?5?$DN?5direct?5sum?0?5U?$CL22@
	DD	02297H
	DD	FLAT:??_C@_06JILOEKEG@otimes@
	DD	FLAT:??_C@_0CP@BNGPDPFL@circled?5times?5?$DN?5vector?5product?0@
	DD	022a5H
	DD	FLAT:??_C@_04LELNCKNE@perp@
	DD	FLAT:??_C@_0DI@FJMFCLO@up?5tack?5?$DN?5orthogonal?5to?5?$DN?5perpe@
	DD	022c5H
	DD	FLAT:??_C@_04DLDDMCEG@sdot@
	DD	FLAT:??_C@_0BN@IIJHENBC@dot?5operator?0?5U?$CL22C5?5ISOamsb@
	DD	02308H
	DD	FLAT:??_C@_05GNCPEPNF@lceil@
	DD	FLAT:??_C@_0CL@JGNLAJJH@left?5ceiling?5?$DN?5apl?5upstile?0?5U?$CL2@
	DD	02309H
	DD	FLAT:??_C@_05FEPDCMDO@rceil@
	DD	FLAT:??_C@_0BO@BHDCDMKC@right?5ceiling?0?5U?$CL2309?5ISOamsc@
	DD	0230aH
	DD	FLAT:??_C@_06JBCNAACH@lfloor@
	DD	FLAT:??_C@_0CL@MFJOBEGJ@left?5floor?5?$DN?5apl?5downstile?0?5U?$CL2@
	DD	0230bH
	DD	FLAT:??_C@_06KGMMOHLE@rfloor@
	DD	FLAT:??_C@_0BM@CNFHBOON@right?5floor?0?5U?$CL230B?5ISOamsc@
	DD	02329H
	DD	FLAT:??_C@_04IOHABJIC@lang@
	DD	FLAT:??_C@_0DC@PHLLJIFD@left?9pointing?5angle?5bracket?5?$DN?5b@
	DD	0232aH
	DD	FLAT:??_C@_04FBKADAGB@rang@
	DD	FLAT:??_C@_0DD@OPBENGIH@right?9pointing?5angle?5bracket?5?$DN?5@
	DD	025caH
	DD	FLAT:??_C@_03DJBAHFDJ@loz@
	DD	FLAT:??_C@_0BH@EDOKOFKC@lozenge?0?5U?$CL25CA?5ISOpub@
	DD	02660H
	DD	FLAT:??_C@_06OOCJPKKB@spades@
	DD	FLAT:??_C@_0CA@PJGGGHFM@black?5spade?5suit?0?5U?$CL2660?5ISOpub@
	DD	02663H
	DD	FLAT:??_C@_05IPDPNMDB@clubs@
	DD	FLAT:??_C@_0CK@IOPKIONM@black?5club?5suit?5?$DN?5shamrock?0?5U?$CL2@
	DD	02665H
	DD	FLAT:??_C@_06LAHNGALJ@hearts@
	DD	FLAT:??_C@_0CM@FKGBKKJF@black?5heart?5suit?5?$DN?5valentine?0?5U@
	DD	02666H
	DD	FLAT:??_C@_05IOPNOEAM@diams@
	DD	FLAT:??_C@_0CC@EHCGNBJI@black?5diamond?5suit?0?5U?$CL2666?5ISOp@
CONST	ENDS
;	COMDAT ??_C@_04IEJGKNJ@body@
CONST	SEGMENT
??_C@_04IEJGKNJ@body@ DB 'body', 00H			; `string'
CONST	ENDS
;	COMDAT ??_C@_04NEODDMOL@head@
CONST	SEGMENT
??_C@_04NEODDMOL@head@ DB 'head', 00H			; `string'
CONST	ENDS
msvcjmc	SEGMENT
__188180DA_corecrt_math@h DB 01H
__2CC6E67D_corecrt_stdio_config@h DB 01H
__05476D76_corecrt_wstdio@h DB 01H
__A452D4A0_stdio@h DB 01H
__4384A2D9_corecrt_memcpy_s@h DB 01H
__4E51A221_corecrt_wstring@h DB 01H
__2140C079_string@h DB 01H
__7B7A869E_ctype@h DB 01H
__A40A425D_stat@h DB 01H
__457DD326_basetsd@h DB 01H
__1887E595_winnt@h DB 01H
__9FC7C64B_processthreadsapi@h DB 01H
__FA470AEC_memoryapi@h DB 01H
__F37DAFF1_winerror@h DB 01H
__7A450CCC_winbase@h DB 01H
__B4B40122_winioctl@h DB 01H
__86261D59_stralign@h DB 01H
__111E219E_htmlparser@c DB 01H
msvcjmc	ENDS
;	COMDAT ??_C@_0CC@EHCGNBJI@black?5diamond?5suit?0?5U?$CL2666?5ISOp@
CONST	SEGMENT
??_C@_0CC@EHCGNBJI@black?5diamond?5suit?0?5U?$CL2666?5ISOp@ DB 'black dia'
	DB	'mond suit, U+2666 ISOpub', 00H		; `string'
CONST	ENDS
;	COMDAT ??_C@_05IOPNOEAM@diams@
CONST	SEGMENT
??_C@_05IOPNOEAM@diams@ DB 'diams', 00H			; `string'
CONST	ENDS
;	COMDAT ??_C@_0CM@FKGBKKJF@black?5heart?5suit?5?$DN?5valentine?0?5U@
CONST	SEGMENT
??_C@_0CM@FKGBKKJF@black?5heart?5suit?5?$DN?5valentine?0?5U@ DB 'black he'
	DB	'art suit = valentine, U+2665 ISOpub', 00H	; `string'
CONST	ENDS
;	COMDAT ??_C@_06LAHNGALJ@hearts@
CONST	SEGMENT
??_C@_06LAHNGALJ@hearts@ DB 'hearts', 00H		; `string'
CONST	ENDS
;	COMDAT ??_C@_0CK@IOPKIONM@black?5club?5suit?5?$DN?5shamrock?0?5U?$CL2@
CONST	SEGMENT
??_C@_0CK@IOPKIONM@black?5club?5suit?5?$DN?5shamrock?0?5U?$CL2@ DB 'black'
	DB	' club suit = shamrock, U+2663 ISOpub', 00H	; `string'
CONST	ENDS
;	COMDAT ??_C@_05IPDPNMDB@clubs@
CONST	SEGMENT
??_C@_05IPDPNMDB@clubs@ DB 'clubs', 00H			; `string'
CONST	ENDS
;	COMDAT ??_C@_0CA@PJGGGHFM@black?5spade?5suit?0?5U?$CL2660?5ISOpub@
CONST	SEGMENT
??_C@_0CA@PJGGGHFM@black?5spade?5suit?0?5U?$CL2660?5ISOpub@ DB 'black spa'
	DB	'de suit, U+2660 ISOpub', 00H		; `string'
CONST	ENDS
;	COMDAT ??_C@_06OOCJPKKB@spades@
CONST	SEGMENT
??_C@_06OOCJPKKB@spades@ DB 'spades', 00H		; `string'
CONST	ENDS
;	COMDAT ??_C@_0BH@EDOKOFKC@lozenge?0?5U?$CL25CA?5ISOpub@
CONST	SEGMENT
??_C@_0BH@EDOKOFKC@lozenge?0?5U?$CL25CA?5ISOpub@ DB 'lozenge, U+25CA ISOp'
	DB	'ub', 00H					; `string'
CONST	ENDS
;	COMDAT ??_C@_03DJBAHFDJ@loz@
CONST	SEGMENT
??_C@_03DJBAHFDJ@loz@ DB 'loz', 00H			; `string'
CONST	ENDS
;	COMDAT ??_C@_0DD@OPBENGIH@right?9pointing?5angle?5bracket?5?$DN?5@
CONST	SEGMENT
??_C@_0DD@OPBENGIH@right?9pointing?5angle?5bracket?5?$DN?5@ DB 'right-poi'
	DB	'nting angle bracket = ket, U+232A ISOtech', 00H ; `string'
CONST	ENDS
;	COMDAT ??_C@_04FBKADAGB@rang@
CONST	SEGMENT
??_C@_04FBKADAGB@rang@ DB 'rang', 00H			; `string'
CONST	ENDS
;	COMDAT ??_C@_0DC@PHLLJIFD@left?9pointing?5angle?5bracket?5?$DN?5b@
CONST	SEGMENT
??_C@_0DC@PHLLJIFD@left?9pointing?5angle?5bracket?5?$DN?5b@ DB 'left-poin'
	DB	'ting angle bracket = bra, U+2329 ISOtech', 00H ; `string'
CONST	ENDS
;	COMDAT ??_C@_0BM@CNFHBOON@right?5floor?0?5U?$CL230B?5ISOamsc@
CONST	SEGMENT
??_C@_0BM@CNFHBOON@right?5floor?0?5U?$CL230B?5ISOamsc@ DB 'right floor, U'
	DB	'+230B ISOamsc', 00H				; `string'
CONST	ENDS
;	COMDAT ??_C@_06KGMMOHLE@rfloor@
CONST	SEGMENT
??_C@_06KGMMOHLE@rfloor@ DB 'rfloor', 00H		; `string'
CONST	ENDS
;	COMDAT ??_C@_0CL@MFJOBEGJ@left?5floor?5?$DN?5apl?5downstile?0?5U?$CL2@
CONST	SEGMENT
??_C@_0CL@MFJOBEGJ@left?5floor?5?$DN?5apl?5downstile?0?5U?$CL2@ DB 'left '
	DB	'floor = apl downstile, U+230A ISOamsc', 00H	; `string'
CONST	ENDS
;	COMDAT ??_C@_06JBCNAACH@lfloor@
CONST	SEGMENT
??_C@_06JBCNAACH@lfloor@ DB 'lfloor', 00H		; `string'
CONST	ENDS
;	COMDAT ??_C@_0BO@BHDCDMKC@right?5ceiling?0?5U?$CL2309?5ISOamsc@
CONST	SEGMENT
??_C@_0BO@BHDCDMKC@right?5ceiling?0?5U?$CL2309?5ISOamsc@ DB 'right ceilin'
	DB	'g, U+2309 ISOamsc', 00H			; `string'
CONST	ENDS
;	COMDAT ??_C@_05FEPDCMDO@rceil@
CONST	SEGMENT
??_C@_05FEPDCMDO@rceil@ DB 'rceil', 00H			; `string'
CONST	ENDS
;	COMDAT ??_C@_0CL@JGNLAJJH@left?5ceiling?5?$DN?5apl?5upstile?0?5U?$CL2@
CONST	SEGMENT
??_C@_0CL@JGNLAJJH@left?5ceiling?5?$DN?5apl?5upstile?0?5U?$CL2@ DB 'left '
	DB	'ceiling = apl upstile, U+2308 ISOamsc', 00H	; `string'
CONST	ENDS
;	COMDAT ??_C@_05GNCPEPNF@lceil@
CONST	SEGMENT
??_C@_05GNCPEPNF@lceil@ DB 'lceil', 00H			; `string'
CONST	ENDS
;	COMDAT ??_C@_0BN@IIJHENBC@dot?5operator?0?5U?$CL22C5?5ISOamsb@
CONST	SEGMENT
??_C@_0BN@IIJHENBC@dot?5operator?0?5U?$CL22C5?5ISOamsb@ DB 'dot operator,'
	DB	' U+22C5 ISOamsb', 00H			; `string'
CONST	ENDS
;	COMDAT ??_C@_04DLDDMCEG@sdot@
CONST	SEGMENT
??_C@_04DLDDMCEG@sdot@ DB 'sdot', 00H			; `string'
CONST	ENDS
;	COMDAT ??_C@_0DI@FJMFCLO@up?5tack?5?$DN?5orthogonal?5to?5?$DN?5perpe@
CONST	SEGMENT
??_C@_0DI@FJMFCLO@up?5tack?5?$DN?5orthogonal?5to?5?$DN?5perpe@ DB 'up tac'
	DB	'k = orthogonal to = perpendicular, U+22A5 ISOtech', 00H ; `string'
CONST	ENDS
;	COMDAT ??_C@_04LELNCKNE@perp@
CONST	SEGMENT
??_C@_04LELNCKNE@perp@ DB 'perp', 00H			; `string'
CONST	ENDS
;	COMDAT ??_C@_0CP@BNGPDPFL@circled?5times?5?$DN?5vector?5product?0@
CONST	SEGMENT
??_C@_0CP@BNGPDPFL@circled?5times?5?$DN?5vector?5product?0@ DB 'circled t'
	DB	'imes = vector product, U+2297 ISOamsb', 00H	; `string'
CONST	ENDS
;	COMDAT ??_C@_06JILOEKEG@otimes@
CONST	SEGMENT
??_C@_06JILOEKEG@otimes@ DB 'otimes', 00H		; `string'
CONST	ENDS
;	COMDAT ??_C@_0CK@PJJPJOGF@circled?5plus?5?$DN?5direct?5sum?0?5U?$CL22@
CONST	SEGMENT
??_C@_0CK@PJJPJOGF@circled?5plus?5?$DN?5direct?5sum?0?5U?$CL22@ DB 'circl'
	DB	'ed plus = direct sum, U+2295 ISOamsb', 00H	; `string'
CONST	ENDS
;	COMDAT ??_C@_05GJJFMLCJ@oplus@
CONST	SEGMENT
??_C@_05GJJFMLCJ@oplus@ DB 'oplus', 00H			; `string'
CONST	ENDS
;	COMDAT ??_C@_0CI@GNKICMCH@superset?5of?5or?5equal?5to?0?5U?$CL2287@
CONST	SEGMENT
??_C@_0CI@GNKICMCH@superset?5of?5or?5equal?5to?0?5U?$CL2287@ DB 'superset'
	DB	' of or equal to, U+2287 ISOtech', 00H	; `string'
CONST	ENDS
;	COMDAT ??_C@_04JHDFDFOB@supe@
CONST	SEGMENT
??_C@_04JHDFDFOB@supe@ DB 'supe', 00H			; `string'
CONST	ENDS
;	COMDAT ??_C@_0CG@IBKNAAAC@subset?5of?5or?5equal?5to?0?5U?$CL2286?5I@
CONST	SEGMENT
??_C@_0CG@IBKNAAAC@subset?5of?5or?5equal?5to?0?5U?$CL2286?5I@ DB 'subset '
	DB	'of or equal to, U+2286 ISOtech', 00H	; `string'
CONST	ENDS
;	COMDAT ??_C@_04IIJHECPP@sube@
CONST	SEGMENT
??_C@_04IIJHECPP@sube@ DB 'sube', 00H			; `string'
CONST	ENDS
;	COMDAT ??_C@_0CA@PMHNPAEI@not?5a?5subset?5of?0?5U?$CL2284?5ISOamsn@
CONST	SEGMENT
??_C@_0CA@PMHNPAEI@not?5a?5subset?5of?0?5U?$CL2284?5ISOamsn@ DB 'not a su'
	DB	'bset of, U+2284 ISOamsn', 00H		; `string'
CONST	ENDS
;	COMDAT ??_C@_04GDKEGNCC@nsub@
CONST	SEGMENT
??_C@_04GDKEGNCC@nsub@ DB 'nsub', 00H			; `string'
CONST	ENDS
;	COMDAT ??_C@_0BM@ICBAIMLO@superset?5of?0?5U?$CL2283?5ISOtech@
CONST	SEGMENT
??_C@_0BM@ICBAIMLO@superset?5of?0?5U?$CL2283?5ISOtech@ DB 'superset of, U'
	DB	'+2283 ISOtech', 00H				; `string'
CONST	ENDS
;	COMDAT ??_C@_0BK@JKNHIPAJ@subset?5of?0?5U?$CL2282?5ISOtech@
CONST	SEGMENT
??_C@_0BK@JKNHIPAJ@subset?5of?0?5U?$CL2282?5ISOtech@ DB 'subset of, U+228'
	DB	'2 ISOtech', 00H				; `string'
CONST	ENDS
;	COMDAT ??_C@_0CJ@OOFAGHNB@greater?9than?5or?5equal?5to?0?5U?$CL226@
CONST	SEGMENT
??_C@_0CJ@OOFAGHNB@greater?9than?5or?5equal?5to?0?5U?$CL226@ DB 'greater-'
	DB	'than or equal to, U+2265 ISOtech', 00H	; `string'
CONST	ENDS
;	COMDAT ??_C@_02FFKMGEKK@ge@
CONST	SEGMENT
??_C@_02FFKMGEKK@ge@ DB 'ge', 00H			; `string'
CONST	ENDS
;	COMDAT ??_C@_0CG@EDHLKJHI@less?9than?5or?5equal?5to?0?5U?$CL2264?5I@
CONST	SEGMENT
??_C@_0CG@EDHLKJHI@less?9than?5or?5equal?5to?0?5U?$CL2264?5I@ DB 'less-th'
	DB	'an or equal to, U+2264 ISOtech', 00H	; `string'
CONST	ENDS
;	COMDAT ??_C@_02FJPJILEL@le@
CONST	SEGMENT
??_C@_02FJPJILEL@le@ DB 'le', 00H			; `string'
CONST	ENDS
;	COMDAT ??_C@_0BN@MJCNDCCF@identical?5to?0?5U?$CL2261?5ISOtech@
CONST	SEGMENT
??_C@_0BN@MJCNDCCF@identical?5to?0?5U?$CL2261?5ISOtech@ DB 'identical to,'
	DB	' U+2261 ISOtech', 00H			; `string'
CONST	ENDS
;	COMDAT ??_C@_05LADEHHLL@equiv@
CONST	SEGMENT
??_C@_05LADEHHLL@equiv@ DB 'equiv', 00H			; `string'
CONST	ENDS
;	COMDAT ??_C@_0BN@PJGPJIIG@not?5equal?5to?0?5U?$CL2260?5ISOtech@
CONST	SEGMENT
??_C@_0BN@PJGPJIIG@not?5equal?5to?0?5U?$CL2260?5ISOtech@ DB 'not equal to'
	DB	', U+2260 ISOtech', 00H			; `string'
CONST	ENDS
;	COMDAT ??_C@_02FKHNFPCF@ne@
CONST	SEGMENT
??_C@_02FKHNFPCF@ne@ DB 'ne', 00H			; `string'
CONST	ENDS
;	COMDAT ??_C@_0DA@ELDFLNNK@almost?5equal?5to?5?$DN?5asymptotic?5to@
CONST	SEGMENT
??_C@_0DA@ELDFLNNK@almost?5equal?5to?5?$DN?5asymptotic?5to@ DB 'almost eq'
	DB	'ual to = asymptotic to, U+2248 ISOamsr', 00H ; `string'
CONST	ENDS
;	COMDAT ??_C@_05EKOANGCP@asymp@
CONST	SEGMENT
??_C@_05EKOANGCP@asymp@ DB 'asymp', 00H			; `string'
CONST	ENDS
;	COMDAT ??_C@_0CH@JKKBMPFH@approximately?5equal?5to?0?5U?$CL2245?5@
CONST	SEGMENT
??_C@_0CH@JKKBMPFH@approximately?5equal?5to?0?5U?$CL2245?5@ DB 'approxima'
	DB	'tely equal to, U+2245 ISOtech', 00H		; `string'
CONST	ENDS
;	COMDAT ??_C@_04OMPPPJGA@cong@
CONST	SEGMENT
??_C@_04OMPPPJGA@cong@ DB 'cong', 00H			; `string'
CONST	ENDS
;	COMDAT ??_C@_0DK@DFMGNFEL@tilde?5operator?5?$DN?5varies?5with?5?$DN?5@
CONST	SEGMENT
??_C@_0DK@DFMGNFEL@tilde?5operator?5?$DN?5varies?5with?5?$DN?5@ DB 'tilde'
	DB	' operator = varies with = similar to, U+223C ISOtech', 00H ; `string'
CONST	ENDS
;	COMDAT ??_C@_03DAGEMKNE@sim@
CONST	SEGMENT
??_C@_03DAGEMKNE@sim@ DB 'sim', 00H			; `string'
CONST	ENDS
;	COMDAT ??_C@_0BK@MEMCAFFC@therefore?0?5U?$CL2234?5ISOtech@
CONST	SEGMENT
??_C@_0BK@MEMCAFFC@therefore?0?5U?$CL2234?5ISOtech@ DB 'therefore, U+2234'
	DB	' ISOtech', 00H				; `string'
CONST	ENDS
;	COMDAT ??_C@_06PLMBDDJI@there4@
CONST	SEGMENT
??_C@_06PLMBDDJI@there4@ DB 'there4', 00H		; `string'
CONST	ENDS
;	COMDAT ??_C@_0BJ@DAPJHJHO@integral?0?5U?$CL222B?5ISOtech@
CONST	SEGMENT
??_C@_0BJ@DAPJHJHO@integral?0?5U?$CL222B?5ISOtech@ DB 'integral, U+222B I'
	DB	'SOtech', 00H				; `string'
CONST	ENDS
;	COMDAT ??_C@_03JBIPMCLC@int@
CONST	SEGMENT
??_C@_03JBIPMCLC@int@ DB 'int', 00H			; `string'
CONST	ENDS
;	COMDAT ??_C@_0BM@JDEPIPG@union?5?$DN?5cup?0?5U?$CL222A?5ISOtech@
CONST	SEGMENT
??_C@_0BM@JDEPIPG@union?5?$DN?5cup?0?5U?$CL222A?5ISOtech@ DB 'union = cup'
	DB	', U+222A ISOtech', 00H			; `string'
CONST	ENDS
;	COMDAT ??_C@_03IKCNKLED@cup@
CONST	SEGMENT
??_C@_03IKCNKLED@cup@ DB 'cup', 00H			; `string'
CONST	ENDS
;	COMDAT ??_C@_0CD@JBIOOGBO@intersection?5?$DN?5cap?0?5U?$CL2229?5ISOt@
CONST	SEGMENT
??_C@_0CD@JBIOOGBO@intersection?5?$DN?5cap?0?5U?$CL2229?5ISOt@ DB 'inters'
	DB	'ection = cap, U+2229 ISOtech', 00H		; `string'
CONST	ENDS
;	COMDAT ??_C@_03JBACKAOP@cap@
CONST	SEGMENT
??_C@_03JBACKAOP@cap@ DB 'cap', 00H			; `string'
CONST	ENDS
;	COMDAT ??_C@_0CB@FLAIEBBA@logical?5or?5?$DN?5vee?0?5U?$CL2228?5ISOtec@
CONST	SEGMENT
??_C@_0CB@FLAIEBBA@logical?5or?5?$DN?5vee?0?5U?$CL2228?5ISOtec@ DB 'logic'
	DB	'al or = vee, U+2228 ISOtech', 00H		; `string'
CONST	ENDS
;	COMDAT ??_C@_02FODMLBIE@or@
CONST	SEGMENT
??_C@_02FODMLBIE@or@ DB 'or', 00H			; `string'
CONST	ENDS
;	COMDAT ??_C@_0CE@NKBACHGA@logical?5and?5?$DN?5wedge?0?5U?$CL2227?5ISO@
CONST	SEGMENT
??_C@_0CE@NKBACHGA@logical?5and?5?$DN?5wedge?0?5U?$CL2227?5ISO@ DB 'logic'
	DB	'al and = wedge, U+2227 ISOtech', 00H	; `string'
CONST	ENDS
;	COMDAT ??_C@_03BOPJPIAM@and@
CONST	SEGMENT
??_C@_03BOPJPIAM@and@ DB 'and', 00H			; `string'
CONST	ENDS
;	COMDAT ??_C@_0BG@GBCFPCNE@angle?0?5U?$CL2220?5ISOamso@
CONST	SEGMENT
??_C@_0BG@GBCFPCNE@angle?0?5U?$CL2220?5ISOamso@ DB 'angle, U+2220 ISOamso'
	DB	00H						; `string'
CONST	ENDS
;	COMDAT ??_C@_03DFNEKLMP@ang@
CONST	SEGMENT
??_C@_03DFNEKLMP@ang@ DB 'ang', 00H			; `string'
CONST	ENDS
;	COMDAT ??_C@_0BJ@MNMMNFFJ@infinity?0?5U?$CL221E?5ISOtech@
CONST	SEGMENT
??_C@_0BJ@MNMMNFFJ@infinity?0?5U?$CL221E?5ISOtech@ DB 'infinity, U+221E I'
	DB	'SOtech', 00H				; `string'
CONST	ENDS
;	COMDAT ??_C@_05OFPBNHLL@infin@
CONST	SEGMENT
??_C@_05OFPBNHLL@infin@ DB 'infin', 00H			; `string'
CONST	ENDS
;	COMDAT ??_C@_0CA@BMLNCKCC@proportional?5to?0?5U?$CL221D?5ISOtech@
CONST	SEGMENT
??_C@_0CA@BMLNCKCC@proportional?5to?0?5U?$CL221D?5ISOtech@ DB 'proportion'
	DB	'al to, U+221D ISOtech', 00H			; `string'
CONST	ENDS
;	COMDAT ??_C@_04GNINHFNB@prop@
CONST	SEGMENT
??_C@_04GNINHFNB@prop@ DB 'prop', 00H			; `string'
CONST	ENDS
;	COMDAT ??_C@_0CL@ILNDCHNK@square?5root?5?$DN?5radical?5sign?0?5U?$CL2@
CONST	SEGMENT
??_C@_0CL@ILNDCHNK@square?5root?5?$DN?5radical?5sign?0?5U?$CL2@ DB 'squar'
	DB	'e root = radical sign, U+221A ISOtech', 00H	; `string'
CONST	ENDS
;	COMDAT ??_C@_05BBBHAEPE@radic@
CONST	SEGMENT
??_C@_05BBBHAEPE@radic@ DB 'radic', 00H			; `string'
CONST	ENDS
;	COMDAT ??_C@_0CC@CNKJAFM@asterisk?5operator?0?5U?$CL2217?5ISOte@
CONST	SEGMENT
??_C@_0CC@CNKJAFM@asterisk?5operator?0?5U?$CL2217?5ISOte@ DB 'asterisk op'
	DB	'erator, U+2217 ISOtech', 00H		; `string'
CONST	ENDS
;	COMDAT ??_C@_06CKLHNNN@lowast@
CONST	SEGMENT
??_C@_06CKLHNNN@lowast@ DB 'lowast', 00H		; `string'
CONST	ENDS
;	COMDAT ??_C@_0BL@FJCONNGD@minus?5sign?0?5U?$CL2212?5ISOtech@
CONST	SEGMENT
??_C@_0BL@FJCONNGD@minus?5sign?0?5U?$CL2212?5ISOtech@ DB 'minus sign, U+2'
	DB	'212 ISOtech', 00H				; `string'
CONST	ENDS
;	COMDAT ??_C@_05ODKEFHFK@minus@
CONST	SEGMENT
??_C@_05ODKEFHFK@minus@ DB 'minus', 00H			; `string'
CONST	ENDS
;	COMDAT ??_C@_0CA@MLFCAEFK@n?9ary?5summation?0?5U?$CL2211?5ISOamsb@
CONST	SEGMENT
??_C@_0CA@MLFCAEFK@n?9ary?5summation?0?5U?$CL2211?5ISOamsb@ DB 'n-ary sum'
	DB	'mation, U+2211 ISOamsb', 00H		; `string'
CONST	ENDS
;	COMDAT ??_C@_03CFFIJAMA@sum@
CONST	SEGMENT
??_C@_03CFFIJAMA@sum@ DB 'sum', 00H			; `string'
CONST	ENDS
;	COMDAT ??_C@_0CN@JGMMGEDP@n?9ary?5product?5?$DN?5product?5sign?0?5U@
CONST	SEGMENT
??_C@_0CN@JGMMGEDP@n?9ary?5product?5?$DN?5product?5sign?0?5U@ DB 'n-ary p'
	DB	'roduct = product sign, U+220F ISOamsb', 00H	; `string'
CONST	ENDS
;	COMDAT ??_C@_04EDCDKCIE@prod@
CONST	SEGMENT
??_C@_04EDCDKCIE@prod@ DB 'prod', 00H			; `string'
CONST	ENDS
;	COMDAT ??_C@_0CD@BGLAPDGA@contains?5as?5member?0?5U?$CL220B?5ISOt@
CONST	SEGMENT
??_C@_0CD@BGLAPDGA@contains?5as?5member?0?5U?$CL220B?5ISOt@ DB 'contains '
	DB	'as member, U+220B ISOtech', 00H		; `string'
CONST	ENDS
;	COMDAT ??_C@_02PGMIBACJ@ni@
CONST	SEGMENT
??_C@_02PGMIBACJ@ni@ DB 'ni', 00H			; `string'
CONST	ENDS
;	COMDAT ??_C@_0CC@DDLOCPFN@not?5an?5element?5of?0?5U?$CL2209?5ISOte@
CONST	SEGMENT
??_C@_0CC@DDLOCPFN@not?5an?5element?5of?0?5U?$CL2209?5ISOte@ DB 'not an e'
	DB	'lement of, U+2209 ISOtech', 00H		; `string'
CONST	ENDS
;	COMDAT ??_C@_05DPIEFBKH@notin@
CONST	SEGMENT
??_C@_05DPIEFBKH@notin@ DB 'notin', 00H			; `string'
CONST	ENDS
;	COMDAT ??_C@_0BL@GDBOMBIM@element?5of?0?5U?$CL2208?5ISOtech@
CONST	SEGMENT
??_C@_0BL@GDBOMBIM@element?5of?0?5U?$CL2208?5ISOtech@ DB 'element of, U+2'
	DB	'208 ISOtech', 00H				; `string'
CONST	ENDS
;	COMDAT ??_C@_04GIANKECK@isin@
CONST	SEGMENT
??_C@_04GIANKECK@isin@ DB 'isin', 00H			; `string'
CONST	ENDS
;	COMDAT ??_C@_0CM@GCEKGKCK@nabla?5?$DN?5backward?5difference?0?5U?$CL@
CONST	SEGMENT
??_C@_0CM@GCEKGKCK@nabla?5?$DN?5backward?5difference?0?5U?$CL@ DB 'nabla '
	DB	'= backward difference, U+2207 ISOtech', 00H	; `string'
CONST	ENDS
;	COMDAT ??_C@_05HEJFDJKB@nabla@
CONST	SEGMENT
??_C@_05HEJFDJKB@nabla@ DB 'nabla', 00H			; `string'
CONST	ENDS
;	COMDAT ??_C@_0DA@LKCPIGBO@empty?5set?5?$DN?5null?5set?5?$DN?5diameter@
CONST	SEGMENT
??_C@_0DA@LKCPIGBO@empty?5set?5?$DN?5null?5set?5?$DN?5diameter@ DB 'empty'
	DB	' set = null set = diameter, U+2205 ISOamso', 00H ; `string'
CONST	ENDS
;	COMDAT ??_C@_05LBJMNBOG@empty@
CONST	SEGMENT
??_C@_05LBJMNBOG@empty@ DB 'empty', 00H			; `string'
CONST	ENDS
;	COMDAT ??_C@_0BN@EAFHKNPG@there?5exists?0?5U?$CL2203?5ISOtech@
CONST	SEGMENT
??_C@_0BN@EAFHKNPG@there?5exists?0?5U?$CL2203?5ISOtech@ DB 'there exists,'
	DB	' U+2203 ISOtech', 00H			; `string'
CONST	ENDS
;	COMDAT ??_C@_05IEGMLJMJ@exist@
CONST	SEGMENT
??_C@_05IEGMLJMJ@exist@ DB 'exist', 00H			; `string'
CONST	ENDS
;	COMDAT ??_C@_0CF@GGOIFMBL@partial?5differential?0?5U?$CL2202?5IS@
CONST	SEGMENT
??_C@_0CF@GGOIFMBL@partial?5differential?0?5U?$CL2202?5IS@ DB 'partial di'
	DB	'fferential, U+2202 ISOtech', 00H		; `string'
CONST	ENDS
;	COMDAT ??_C@_04FPLDHIIH@part@
CONST	SEGMENT
??_C@_04FPLDHIIH@part@ DB 'part', 00H			; `string'
CONST	ENDS
;	COMDAT ??_C@_0BI@NOOLIOLI@for?5all?0?5U?$CL2200?5ISOtech@
CONST	SEGMENT
??_C@_0BI@NOOLIOLI@for?5all?0?5U?$CL2200?5ISOtech@ DB 'for all, U+2200 IS'
	DB	'Otech', 00H					; `string'
CONST	ENDS
;	COMDAT ??_C@_06PLFKNBPH@forall@
CONST	SEGMENT
??_C@_06PLFKNBPH@forall@ DB 'forall', 00H		; `string'
CONST	ENDS
;	COMDAT ??_C@_0CI@IFCBBNJJ@left?5right?5double?5arrow?0?5U?$CL21D4@
CONST	SEGMENT
??_C@_0CI@IFCBBNJJ@left?5right?5double?5arrow?0?5U?$CL21D4@ DB 'left righ'
	DB	't double arrow, U+21D4 ISOamsa', 00H	; `string'
CONST	ENDS
;	COMDAT ??_C@_04PJELKMHM@hArr@
CONST	SEGMENT
??_C@_04PJELKMHM@hArr@ DB 'hArr', 00H			; `string'
CONST	ENDS
;	COMDAT ??_C@_0CH@GBOLFAFE@downwards?5double?5arrow?0?5U?$CL21D3?5@
CONST	SEGMENT
??_C@_0CH@GBOLFAFE@downwards?5double?5arrow?0?5U?$CL21D3?5@ DB 'downwards'
	DB	' double arrow, U+21D3 ISOamsa', 00H		; `string'
CONST	ENDS
;	COMDAT ??_C@_04DMLLEBHN@dArr@
CONST	SEGMENT
??_C@_04DMLLEBHN@dArr@ DB 'dArr', 00H			; `string'
CONST	ENDS
;	COMDAT ??_C@_0CI@IKAGJDHN@rightwards?5double?5arrow?0?5U?$CL21D2@
CONST	SEGMENT
??_C@_0CI@IKAGJDHN@rightwards?5double?5arrow?0?5U?$CL21D2@ DB 'rightwards'
	DB	' double arrow, U+21D2 ISOtech', 00H		; `string'
CONST	ENDS
;	COMDAT ??_C@_04NDBLCDFP@rArr@
CONST	SEGMENT
??_C@_04NDBLCDFP@rArr@ DB 'rArr', 00H			; `string'
CONST	ENDS
;	COMDAT ??_C@_0CF@KBBKONBL@upwards?5double?5arrow?0?5U?$CL21D1?5IS@
CONST	SEGMENT
??_C@_0CF@KBBKONBL@upwards?5double?5arrow?0?5U?$CL21D1?5IS@ DB 'upwards d'
	DB	'ouble arrow, U+21D1 ISOamsa', 00H		; `string'
CONST	ENDS
;	COMDAT ??_C@_04GBDLPPEP@uArr@
CONST	SEGMENT
??_C@_04GBDLPPEP@uArr@ DB 'uArr', 00H			; `string'
CONST	ENDS
;	COMDAT ??_C@_0CH@MGOLKEFA@leftwards?5double?5arrow?0?5U?$CL21D0?5@
CONST	SEGMENT
??_C@_0CH@MGOLKEFA@leftwards?5double?5arrow?0?5U?$CL21D0?5@ DB 'leftwards'
	DB	' double arrow, U+21D0 ISOtech', 00H		; `string'
CONST	ENDS
;	COMDAT ??_C@_04MMLAKLM@lArr@
CONST	SEGMENT
??_C@_04MMLAKLM@lArr@ DB 'lArr', 00H			; `string'
CONST	ENDS
;	COMDAT ??_C@_0EE@KKIJJMBC@downwards?5arrow?5with?5corner?5lef@
CONST	SEGMENT
??_C@_0EE@KKIJJMBC@downwards?5arrow?5with?5corner?5lef@ DB 'downwards arr'
	DB	'ow with corner leftwards = carriage return, U+21B5 NEW', 00H ; `string'
CONST	ENDS
;	COMDAT ??_C@_05IKKJKHCL@crarr@
CONST	SEGMENT
??_C@_05IKKJKHCL@crarr@ DB 'crarr', 00H			; `string'
CONST	ENDS
;	COMDAT ??_C@_0CB@IHAAEEFA@left?5right?5arrow?0?5U?$CL2194?5ISOams@
CONST	SEGMENT
??_C@_0CB@IHAAEEFA@left?5right?5arrow?0?5U?$CL2194?5ISOams@ DB 'left righ'
	DB	't arrow, U+2194 ISOamsa', 00H		; `string'
CONST	ENDS
;	COMDAT ??_C@_04FJHJADEC@harr@
CONST	SEGMENT
??_C@_04FJHJADEC@harr@ DB 'harr', 00H			; `string'
CONST	ENDS
;	COMDAT ??_C@_0BP@DOIMJHPM@downwards?5arrow?0?5U?$CL2193?5ISOnum@
CONST	SEGMENT
??_C@_0BP@DOIMJHPM@downwards?5arrow?0?5U?$CL2193?5ISOnum@ DB 'downwards a'
	DB	'rrow, U+2193 ISOnum', 00H			; `string'
CONST	ENDS
;	COMDAT ??_C@_04JMIJOOED@darr@
CONST	SEGMENT
??_C@_04JMIJOOED@darr@ DB 'darr', 00H			; `string'
CONST	ENDS
;	COMDAT ??_C@_0CA@IGGHOOCM@rightwards?5arrow?0?5U?$CL2192?5ISOnum@
CONST	SEGMENT
??_C@_0CA@IGGHOOCM@rightwards?5arrow?0?5U?$CL2192?5ISOnum@ DB 'rightwards'
	DB	' arrow, U+2192 ISOnum', 00H			; `string'
CONST	ENDS
;	COMDAT ??_C@_04HDCJIMGB@rarr@
CONST	SEGMENT
??_C@_04HDCJIMGB@rarr@ DB 'rarr', 00H			; `string'
CONST	ENDS
;	COMDAT ??_C@_0BN@OACCONEB@upwards?5arrow?0?5U?$CL2191?5ISOnum@
CONST	SEGMENT
??_C@_0BN@OACCONEB@upwards?5arrow?0?5U?$CL2191?5ISOnum@ DB 'upwards arrow'
	DB	', U+2191 ISOnum', 00H			; `string'
CONST	ENDS
;	COMDAT ??_C@_04MBAJFAHB@uarr@
CONST	SEGMENT
??_C@_04MBAJFAHB@uarr@ DB 'uarr', 00H			; `string'
CONST	ENDS
;	COMDAT ??_C@_0BP@MANNKCID@leftwards?5arrow?0?5U?$CL2190?5ISOnum@
CONST	SEGMENT
??_C@_0BP@MANNKCID@leftwards?5arrow?0?5U?$CL2190?5ISOnum@ DB 'leftwards a'
	DB	'rrow, U+2190 ISOnum', 00H			; `string'
CONST	ENDS
;	COMDAT ??_C@_04KMPJKFIC@larr@
CONST	SEGMENT
??_C@_04KMPJKFIC@larr@ DB 'larr', 00H			; `string'
CONST	ENDS
;	COMDAT ??_C@_0DF@FEFKAOCF@alef?5symbol?5?$DN?5first?5transfinite@
CONST	SEGMENT
