; Listing generated by Microsoft (R) Optimizing Compiler Version 19.16.27027.1 

	TITLE	C:\Users\DAG\Documents\_Clients\CodeProject Authors Group\Windows on ARM\libxml2\libxml2-2.9.9\relaxng.c
	.686P
	.XMM
	include listing.inc
	.model	flat

INCLUDELIB MSVCRT
INCLUDELIB OLDNAMES

PUBLIC	??_C@_0CE@EODHHDFK@http?3?1?1relaxng?4org?1ns?1structure@ ; `string'
PUBLIC	??_C@_01KHDNNMEB@?$AB@				; `string'
_DATA	SEGMENT
COMM	_xmlMalloc:DWORD
COMM	_xmlMallocAtomic:DWORD
COMM	_xmlRealloc:DWORD
COMM	_xmlFree:DWORD
COMM	_xmlMemStrdup:DWORD
COMM	_xmlIsBaseCharGroup:BYTE:010H
COMM	_xmlIsCharGroup:BYTE:010H
COMM	_xmlIsCombiningGroup:BYTE:010H
COMM	_xmlIsDigitGroup:BYTE:010H
COMM	_xmlIsExtenderGroup:BYTE:010H
COMM	_xmlIsIdeographicGroup:BYTE:010H
COMM	_xmlIsPubidChar_tab:BYTE:0100H
COMM	_xmlParserMaxDepth:DWORD
COMM	_forbiddenExp:DWORD
COMM	_emptyExp:DWORD
_DATA	ENDS
;	COMDAT ??_C@_01KHDNNMEB@?$AB@
CONST	SEGMENT
??_C@_01KHDNNMEB@?$AB@ DB 01H, 00H			; `string'
CONST	ENDS
;	COMDAT ??_C@_0CE@EODHHDFK@http?3?1?1relaxng?4org?1ns?1structure@
CONST	SEGMENT
??_C@_0CE@EODHHDFK@http?3?1?1relaxng?4org?1ns?1structure@ DB 'http://rela'
	DB	'xng.org/ns/structure/1.0', 00H		; `string'
CONST	ENDS
msvcjmc	SEGMENT
__188180DA_corecrt_math@h DB 01H
__2CC6E67D_corecrt_stdio_config@h DB 01H
__05476D76_corecrt_wstdio@h DB 01H
__A452D4A0_stdio@h DB 01H
__4384A2D9_corecrt_memcpy_s@h DB 01H
__4E51A221_corecrt_wstring@h DB 01H
__2140C079_string@h DB 01H
__49DBE4F2_relaxng@c DB 01H
msvcjmc	ENDS
PUBLIC	___local_stdio_printf_options
PUBLIC	_fprintf
PUBLIC	_snprintf
PUBLIC	_xmlRelaxNGInitTypes
PUBLIC	_xmlRelaxNGCleanupTypes
PUBLIC	_xmlRelaxNGNewParserCtxt
PUBLIC	_xmlRelaxNGNewMemParserCtxt
PUBLIC	_xmlRelaxNGNewDocParserCtxt
PUBLIC	_xmlRelaxParserSetFlag
PUBLIC	_xmlRelaxNGFreeParserCtxt
PUBLIC	_xmlRelaxNGSetParserErrors
PUBLIC	_xmlRelaxNGGetParserErrors
PUBLIC	_xmlRelaxNGSetParserStructuredErrors
PUBLIC	_xmlRelaxNGParse
PUBLIC	_xmlRelaxNGFree
PUBLIC	_xmlRelaxNGDump
PUBLIC	_xmlRelaxNGDumpTree
PUBLIC	_xmlRelaxNGSetValidErrors
PUBLIC	_xmlRelaxNGGetValidErrors
PUBLIC	_xmlRelaxNGSetValidStructuredErrors
PUBLIC	_xmlRelaxNGNewValidCtxt
PUBLIC	_xmlRelaxNGFreeValidCtxt
PUBLIC	_xmlRelaxNGValidateDoc
PUBLIC	_xmlRelaxNGValidatePushElement
PUBLIC	_xmlRelaxNGValidatePushCData
PUBLIC	_xmlRelaxNGValidatePopElement
PUBLIC	_xmlRelaxNGValidateFullElement
PUBLIC	__JustMyCode_Default
PUBLIC	??_C@_0BP@DJFHNAOK@Memory?5allocation?5failed?5?3?5?$CFs?6@ ; `string'
PUBLIC	??_C@_0BK@GDFDKGPJ@Memory?5allocation?5failed?6@ ; `string'
PUBLIC	??_C@_0BD@KFBIDMJP@allocating?5define?6@	; `string'
PUBLIC	??_C@_0BD@FIBAKIJP@allocating?5states?6@	; `string'
PUBLIC	??_C@_0P@NLODGFON@adding?5states?6@		; `string'
PUBLIC	??_C@_0BA@DKBKEJJK@storing?5states?6@		; `string'
PUBLIC	??_C@_0BE@NICNHGJN@allocating?5include?6@	; `string'
PUBLIC	??_C@_05FAGFPHJG@start@				; `string'
PUBLIC	??_C@_06EPMMJFDC@define@			; `string'
PUBLIC	??_C@_04MEMAJGDJ@name@				; `string'
PUBLIC	??_C@_07FHOHOHLG@include@			; `string'
PUBLIC	??_C@_07EFOLCII@grammar@			; `string'
PUBLIC	??_C@_0CG@MLBLJJIG@Detected?5an?5Include?5recursion?5f@ ; `string'
PUBLIC	??_C@_0BP@BDBHMEOE@xmlRelaxNG?3?5could?5not?5load?5?$CFs?6@ ; `string'
PUBLIC	??_C@_02EGOFOKPC@ns@				; `string'
PUBLIC	??_C@_0CL@MDFAGPKO@xmlRelaxNG?3?5included?5document?5i@ ; `string'
PUBLIC	??_C@_0DI@NNDELAMP@xmlRelaxNG?3?5included?5document?5?$CF@ ; `string'
PUBLIC	??_C@_0EB@LAOLKJIK@xmlRelaxNG?3?5include?5?$CFs?5has?5a?5st@ ; `string'
PUBLIC	??_C@_0DA@OCDIDEDL@xmlRelaxNG?3?5include?5?$CFs?5has?5defi@ ; `string'
PUBLIC	??_C@_0EF@PNICLKOF@xmlRelaxNG?3?5include?5?$CFs?5has?5a?5de@ ; `string'
PUBLIC	??_C@_03FEJMGOGI@div@				; `string'
PUBLIC	??_C@_0P@JOLGCMKD@pushing?5error?6@		; `string'
PUBLIC	??_C@_0BB@MHBNCBHM@adding?5document?6@		; `string'
PUBLIC	??_C@_0CK@BCCMNNOD@Detected?5an?5externalRef?5recursi@ ; `string'
PUBLIC	??_C@_0CI@PEJCGLNC@xmlRelaxNG?3?5allocate?5memory?5for@ ; `string'
PUBLIC	??_C@_04CGFJFPFD@none@				; `string'
PUBLIC	??_C@_05LBJMNBOG@empty@				; `string'
PUBLIC	??_C@_0L@GPGJMKBL@notAllowed@			; `string'
PUBLIC	??_C@_06JBKEBCGB@except@			; `string'
PUBLIC	??_C@_04CIMGMMMG@text@				; `string'
PUBLIC	??_C@_07HCLJNICE@element@			; `string'
PUBLIC	??_C@_08IJKJONLA@datatype@			; `string'
PUBLIC	??_C@_05MFEJDJP@value@				; `string'
PUBLIC	??_C@_04DONFEANM@list@				; `string'
PUBLIC	??_C@_09HGIEBAJ@attribute@			; `string'
PUBLIC	??_C@_03BHEEIFFN@def@				; `string'
PUBLIC	??_C@_03GCDGINBO@ref@				; `string'
PUBLIC	??_C@_0M@CPEFJFBC@externalRef@			; `string'
PUBLIC	??_C@_09LEMMFILP@parentRef@			; `string'
PUBLIC	??_C@_08EBGGHLAO@optional@			; `string'
PUBLIC	??_C@_0L@BANFCDDP@zeroOrMore@			; `string'
PUBLIC	??_C@_09EIEDMNLG@oneOrMore@			; `string'
PUBLIC	??_C@_06DDDNEJEA@choice@			; `string'
PUBLIC	??_C@_05MGJOOGAJ@group@				; `string'
PUBLIC	??_C@_0L@NLPEADBD@interleave@			; `string'
PUBLIC	??_C@_04BACONDHA@noop@				; `string'
PUBLIC	??_C@_05LJDNNBIK@param@				; `string'
PUBLIC	??_C@_07CIFAGBMG@unknown@			; `string'
PUBLIC	??_C@_00CNPNBAHC@@				; `string'
PUBLIC	??_C@_0P@PCJPAHLM@out?5of?5memory?6@		; `string'
PUBLIC	??_C@_0BM@ECNPKFCP@failed?5to?5validate?5type?5?$CFs?6@ ; `string'
PUBLIC	??_C@_0CC@KEMEBCBB@Type?5?$CFs?5doesn?8t?5allow?5value?5?8?$CFs@ ; `string'
PUBLIC	??_C@_0BB@HOPAIONI@ID?5?$CFs?5redefined?6@	; `string'
PUBLIC	??_C@_0BL@NPBAOLP@failed?5to?5compare?5type?5?$CFs?6@ ; `string'
PUBLIC	??_C@_0BK@NEMAGDEO@Internal?5error?3?5no?5state?6@ ; `string'
PUBLIC	??_C@_0BL@MNHHIDKB@Internal?5error?3?5no?5define?6@ ; `string'
PUBLIC	??_C@_0BE@MNPHNNMB@Internal?5error?3?5?$CFs?6@	; `string'
PUBLIC	??_C@_0BI@DGHEOLEJ@Extra?5data?5in?5list?3?5?$CFs?6@ ; `string'
PUBLIC	??_C@_0CI@IMJEPEGE@Internal?3?5interleave?5block?5has?5@ ; `string'
PUBLIC	??_C@_0CA@EOAAMELI@Invalid?5sequence?5in?5interleave?6@ ; `string'
PUBLIC	??_C@_0CA@LHKGPAAK@Extra?5element?5?$CFs?5in?5interleave?6@ ; `string'
PUBLIC	??_C@_0BO@IPFGDLDE@Expecting?5element?5?$CFs?0?5got?5?$CFs?6@ ; `string'
PUBLIC	??_C@_0CG@JOOKFIPP@Expecting?5a?5namespace?5for?5eleme@ ; `string'
PUBLIC	??_C@_0CO@FJCKMMIH@Element?5?$CFs?5has?5wrong?5namespace?3@ ; `string'
PUBLIC	??_C@_0CB@PHEJHGKI@Did?5not?5expect?5element?5?$CFs?5there@ ; `string'
PUBLIC	??_C@_0CL@PJGOEKPA@Did?5not?5expect?5text?5in?5element?5@ ; `string'
PUBLIC	??_C@_0CH@HAJGKJGA@Expecting?5no?5namespace?5for?5elem@ ; `string'
PUBLIC	??_C@_0CC@DNABBFDN@Expecting?5element?5?$CFs?5to?5be?5empt@ ; `string'
PUBLIC	??_C@_0CG@GHEDPKLH@Expecting?5an?5element?5?$CFs?0?5got?5no@ ; `string'
PUBLIC	??_C@_0BP@PIOGJCNK@Expecting?5an?5element?5got?5text?6@ ; `string'
PUBLIC	??_C@_0CK@NNGAPDCO@Element?5?$CFs?5failed?5to?5validate?5a@ ; `string'
PUBLIC	??_C@_0CH@HDDGPFIH@Element?5?$CFs?5failed?5to?5validate?5c@ ; `string'
PUBLIC	??_C@_0CC@PHDGKAKM@Element?5?$CFs?5has?5extra?5content?3?5?$CF@ ; `string'
PUBLIC	??_C@_0CF@ECDDKCLG@Invalid?5attribute?5?$CFs?5for?5elemen@ ; `string'
PUBLIC	??_C@_0CG@FMKMGJKC@Datatype?5element?5?$CFs?5contains?5no@ ; `string'
PUBLIC	??_C@_0CI@NMBBKCFB@Datatype?5element?5?$CFs?5has?5child?5e@ ; `string'
PUBLIC	??_C@_0CF@MGMBBHLP@Value?5element?5?$CFs?5has?5child?5elem@ ; `string'
PUBLIC	??_C@_0CE@LKJLECIM@List?5element?5?$CFs?5has?5child?5eleme@ ; `string'
PUBLIC	??_C@_0BO@GLDGEAAK@Error?5validating?5datatype?5?$CFs?6@ ; `string'
PUBLIC	??_C@_0BL@BLOANDFF@Error?5validating?5value?5?$CFs?6@ ; `string'
PUBLIC	??_C@_0BH@MNIEAPHM@Error?5validating?5list?6@	; `string'
PUBLIC	??_C@_0BI@LEPPKIJB@No?5top?5grammar?5defined?6@	; `string'
PUBLIC	??_C@_0BM@HIGEPHGM@Extra?5data?5in?5the?5document?6@ ; `string'
PUBLIC	??_C@_0BB@OENMHDGG@Unknown?5error?5?$CB?6@	; `string'
PUBLIC	??_C@_0BH@OAFIADK@Unknown?5error?5code?5?$CFd?6@ ; `string'
PUBLIC	??_C@_0CB@PJCCKICC@http?3?1?1www?4w3?4org?12001?1XMLSchem@ ; `string'
PUBLIC	??_C@_0N@BDECKIL@minInclusive@			; `string'
PUBLIC	??_C@_0N@MENCPBPO@minExclusive@			; `string'
PUBLIC	??_C@_0N@EBHLFCPN@maxInclusive@			; `string'
PUBLIC	??_C@_0N@IEJNIJII@maxExclusive@			; `string'
PUBLIC	??_C@_0M@PGNNBCIB@totalDigits@			; `string'
PUBLIC	??_C@_0P@EPJLKDGA@fractionDigits@		; `string'
PUBLIC	??_C@_07CHFOACKJ@pattern@			; `string'
PUBLIC	??_C@_0M@FJOIDAAJ@enumeration@			; `string'
PUBLIC	??_C@_0L@CCEMGGFL@whiteSpace@			; `string'
PUBLIC	??_C@_06IJDLPEM@length@				; `string'
PUBLIC	??_C@_09KJHMKBNK@maxLength@			; `string'
PUBLIC	??_C@_09KIHADLGO@minLength@			; `string'
PUBLIC	??_C@_06ICGJLFIM@string@			; `string'
PUBLIC	??_C@_05JMKJMOPH@token@				; `string'
PUBLIC	??_C@_0DA@KBDGNEEG@Relax?9NG?5types?5library?5?8?$CFs?8?5alr@ ; `string'
PUBLIC	??_C@_0BG@BMGNHHOA@adding?5types?5library?6@	; `string'
PUBLIC	??_C@_0DA@DKNFFGLK@Relax?9NG?5types?5library?5failed?5t@ ; `string'
PUBLIC	??_C@_0DA@BNBDCCII@Failed?5to?5allocate?5sh?5table?5for@ ; `string'
PUBLIC	??_C@_0CL@MAOGIMDF@http?3?1?1www?4w3?4org?12001?1XMLSchem@ ; `string'
PUBLIC	??_C@_05NOBOONOA@?$CDtext@			; `string'
PUBLIC	??_C@_0CJ@JOFHGKIK@RNG?5internal?5error?5trying?5to?5co@ ; `string'
PUBLIC	??_C@_04PJOLNDGD@data@				; `string'
PUBLIC	??_C@_0BA@OLOJGOCH@datatypeLibrary@		; `string'
PUBLIC	??_C@_04EIMIMFCI@?3?1?$CD?$DP@			; `string'
PUBLIC	??_C@_04GPMDFGEJ@type@				; `string'
PUBLIC	??_C@_0CC@HGJHHNGH@value?5type?5?8?$CFs?8?5is?5not?5an?5NCNam@ ; `string'
PUBLIC	??_C@_0CH@BAFMNDJC@Use?5of?5unregistered?5type?5librar@ ; `string'
PUBLIC	??_C@_0DC@GFLCPBDN@Internal?5error?5with?5type?5librar@ ; `string'
PUBLIC	??_C@_0DG@BCJPPODI@Error?5type?5?8?$CFs?8?5is?5not?5exported@ ; `string'
PUBLIC	??_C@_0DC@DOAINIPC@Expecting?5a?5single?5text?5value?5f@ ; `string'
PUBLIC	??_C@_0CA@OGDHDPEE@Element?5?$DMvalue?$DO?5has?5no?5content?6@ ; `string'
PUBLIC	??_C@_0CM@DOBLDJBI@Value?5?8?$CFs?8?5is?5not?5acceptable?5fo@ ; `string'
PUBLIC	??_C@_0BC@JLMCOJJL@data?5has?5no?5type?6@	; `string'
PUBLIC	??_C@_0CB@BPINBNAH@data?5type?5?8?$CFs?8?5is?5not?5an?5NCName@ ; `string'
PUBLIC	??_C@_05HKGPJLPA@IDREF@				; `string'
PUBLIC	??_C@_06CMFBJDBA@IDREFS@			; `string'
PUBLIC	??_C@_0DC@MKALBABO@Type?5library?5?8?$CFs?8?5does?5not?5allo@ ; `string'
PUBLIC	??_C@_0BD@HHALNFAB@param?5has?5no?5name?6@	; `string'
PUBLIC	??_C@_0BH@BGPIOKNJ@except?5has?5no?5content?6@	; `string'
PUBLIC	??_C@_0CI@PINMOFEF@Element?5data?5has?5unexpected?5con@ ; `string'
PUBLIC	??_C@_0GJ@NFABHKPN@c?3?2users?2dag?2documents?2_clients@ ; `string'
PUBLIC	??_C@_0BO@MDEMDPPE@Unimplemented?5block?5at?5?$CFs?3?$CFd?6@ ; `string'
PUBLIC	??_C@_0BG@CHOOIKPA@getting?5element?5list?6@	; `string'
PUBLIC	??_C@_0BB@HIJGJJAM@building?5choice?6@		; `string'
PUBLIC	??_C@_04IAJCOJMF@?$CDany@			; `string'
PUBLIC	??_C@_0BA@MBENMANO@building?5group?6@		; `string'
PUBLIC	??_C@_0BP@PNPCONEA@Attributes?5conflicts?5in?5group?6@ ; `string'
PUBLIC	??_C@_0CJ@CIKEPODC@Element?5or?5text?5conflicts?5in?5in@ ; `string'
PUBLIC	??_C@_0CE@PJGIOECJ@Attributes?5conflicts?5in?5interle@ ; `string'
PUBLIC	??_C@_0BL@FDJODHDJ@in?5interleave?5computation?6@ ; `string'
PUBLIC	??_C@_0BE@JIDAHLJE@create?5interleaves?6@	; `string'
PUBLIC	??_C@_0N@MHPBOBHE@interleave?$CFd@		; `string'
PUBLIC	??_C@_0CA@BLFIOJCN@Failed?5to?5add?5?$CFs?5to?5hash?5table?6@ ; `string'
PUBLIC	??_C@_0BN@JGOKJKPH@Element?5interleave?5is?5empty?6@ ; `string'
PUBLIC	??_C@_0BK@PJHELFJE@Include?5node?5has?5no?5data?6@ ; `string'
PUBLIC	??_C@_0BL@NJFOGBOE@Include?5document?5is?5empty?6@ ; `string'
PUBLIC	??_C@_0CI@GFEIPOEG@Include?5document?5root?5is?5not?5a?5@ ; `string'
PUBLIC	??_C@_0BE@OMGBAGKJ@define?5has?5no?5name?6@	; `string'
PUBLIC	??_C@_0CD@LEKDIHDI@define?5name?5?8?$CFs?8?5is?5not?5an?5NCNa@ ; `string'
PUBLIC	??_C@_0BI@KMIJHMFO@define?5has?5no?5children?6@	; `string'
PUBLIC	??_C@_0CC@EGGMPODH@Could?5not?5create?5definition?5has@ ; `string'
PUBLIC	??_C@_0CM@PJMCGFMO@Internal?5error?5on?5define?5aggreg@ ; `string'
PUBLIC	??_C@_0BN@KBAJDCGM@Error?5refs?5definitions?5?8?$CFs?8?6@ ; `string'
PUBLIC	??_C@_0BI@KAJIFPGI@Error?5refs?5definitions?6@	; `string'
PUBLIC	??_C@_0CC@NOKALBCN@Could?5not?5create?5references?5has@ ; `string'
PUBLIC	??_C@_0BO@JMOIDLLM@xmlRelaxNGParse?3?5?$CFs?5is?5empty?6@ ; `string'
PUBLIC	??_C@_0BJ@FKDMDHPF@empty?3?5had?5a?5child?5node?6@ ; `string'
PUBLIC	??_C@_0BI@LOCKCMHG@text?3?5had?5a?5child?5node?6@ ; `string'
PUBLIC	??_C@_0BF@BCLGKPIM@Element?5?$CFs?5is?5empty?6@	; `string'
PUBLIC	??_C@_0BB@BOHONICN@ref?5has?5no?5name?6@	; `string'
PUBLIC	??_C@_0CA@CEHKGAHL@ref?5name?5?8?$CFs?8?5is?5not?5an?5NCName?6@ ; `string'
PUBLIC	??_C@_0BC@KLFBBEAG@ref?5is?5not?5empty?6@	; `string'
PUBLIC	??_C@_0DC@MEMHAAID@xmlRelaxNGParse?3?5notAllowed?5ele@ ; `string'
PUBLIC	??_C@_0CL@EGBMGFAB@Use?5of?5parentRef?5without?5a?5pare@ ; `string'
PUBLIC	??_C@_0BH@CNIAONFA@parentRef?5has?5no?5name?6@	; `string'
PUBLIC	??_C@_0CG@HCJCFDNF@parentRef?5name?5?8?$CFs?8?5is?5not?5an?5N@ ; `string'
PUBLIC	??_C@_0BI@IFNGOHLC@parentRef?5is?5not?5empty?6@	; `string'
PUBLIC	??_C@_0CL@BEBEIBPH@Internal?5error?5parentRef?5defini@ ; `string'
PUBLIC	??_C@_05IPHDHIPP@mixed@				; `string'
PUBLIC	??_C@_0BA@KLBAOPHA@Mixed?5is?5empty?6@		; `string'
PUBLIC	??_C@_0CF@JOIAOFAL@Unexpected?5node?5?$CFs?5is?5not?5a?5pat@ ; `string'
PUBLIC	??_C@_0DF@EOBONIDO@xmlRelaxNGParseattribute?3?5attri@ ; `string'
PUBLIC	??_C@_0BP@NPGIAHLH@attribute?5has?5invalid?5content?6@ ; `string'
PUBLIC	??_C@_0CN@KBLNJNDN@RNG?5Internal?5error?0?5noop?5found?5@ ; `string'
PUBLIC	??_C@_0CB@BOMNCDFG@attribute?5has?5multiple?5children@ ; `string'
PUBLIC	??_C@_0BK@FIOBKDGD@Expecting?5an?5except?5node?6@ ; `string'
PUBLIC	??_C@_0DC@LBJNBDAD@exceptNameClass?5allows?5only?5a?5s@ ; `string'
PUBLIC	??_C@_07ENOEFKNN@anyName@			; `string'
PUBLIC	??_C@_06IHANJIJ@nsName@				; `string'
PUBLIC	??_C@_0CH@CJKCJPCE@Element?5?$CFs?5name?5?8?$CFs?8?5is?5not?5an?5@ ; `string'
PUBLIC	??_C@_0BM@EMBMPALF@name?5?8?$CFs?8?5is?5not?5an?5NCName?6@ ; `string'
PUBLIC	??_C@_0BN@FIBBGPIH@http?3?1?1www?4w3?4org?12000?1xmlns@ ; `string'
PUBLIC	??_C@_0CO@HDKKBGMJ@Attribute?5with?5namespace?5?8?$CFs?8?5i@ ; `string'
PUBLIC	??_C@_05PPEFOGKI@xmlns@				; `string'
PUBLIC	??_C@_0CN@HLKDALFC@Attribute?5with?5QName?5?8xmlns?8?5is@ ; `string'
PUBLIC	??_C@_0BM@OBCEAFCO@nsName?5has?5no?5ns?5attribute?6@ ; `string'
PUBLIC	??_C@_0BJ@LPGNADIK@Element?5choice?5is?5empty?6@ ; `string'
PUBLIC	??_C@_07DFGIHOIL@nothing@			; `string'
PUBLIC	??_C@_0DE@HGEBBBBP@expecting?5name?0?5anyName?0?5nsName@ ; `string'
PUBLIC	??_C@_0DB@JEBMCLMO@xmlRelaxNGParseElement?3?5element@ ; `string'
PUBLIC	??_C@_0DA@IDPILCIF@xmlRelaxNGParseElement?3?5element@ ; `string'
PUBLIC	??_C@_0CM@MFMPBBAO@RNG?5Internal?5error?0?5start?5found@ ; `string'
PUBLIC	??_C@_0CM@LPIDEEPC@RNG?5Internal?5error?0?5param?5found@ ; `string'
PUBLIC	??_C@_0CN@HLONCHKK@RNG?5Internal?5error?0?5except?5foun@ ; `string'
PUBLIC	??_C@_0CL@MLMNOJNJ@RNG?5Internal?5error?0?5noop?5found?5@ ; `string'
PUBLIC	??_C@_0BH@HFFJFLLH@start?5has?5no?5children?6@	; `string'
PUBLIC	??_C@_0BM@NFEKGCB@element?5empty?5is?5not?5empty?6@ ; `string'
PUBLIC	??_C@_0CB@CILNEPNL@element?5notAllowed?5is?5not?5empty@ ; `string'
PUBLIC	??_C@_0BO@LLNPKKPG@start?5more?5than?5one?5children?6@ ; `string'
PUBLIC	??_C@_0BJ@FLPPFCBJ@grammar?5has?5no?5children?6@ ; `string'
PUBLIC	??_C@_0CB@DOHNNNEN@grammar?5has?5unexpected?5child?5?$CFs@ ; `string'
PUBLIC	??_C@_0DB@CFGFLOFC@Internal?5error?3?5no?5grammar?5in?5C@ ; `string'
PUBLIC	??_C@_0DM@EAGPADBI@Internal?5error?3?5reference?5has?5c@ ; `string'
PUBLIC	??_C@_0CJ@POOAHNP@Reference?5?$CFs?5has?5no?5matching?5de@ ; `string'
PUBLIC	??_C@_07PCDCECCK@combine@			; `string'
PUBLIC	??_C@_0DD@LACLCNBH@Defines?5for?5?$CFs?5use?5both?5?8choice@ ; `string'
PUBLIC	??_C@_0DA@BFEPFJDA@Defines?5for?5?$CFs?5use?5unknown?5comb@ ; `string'
PUBLIC	??_C@_0DB@MHLFAPLB@Some?5defines?5for?5?$CFs?5needs?5the?5c@ ; `string'
PUBLIC	??_C@_0CJ@MHLGCECD@Failed?5to?5create?5interleaves?5ha@ ; `string'
PUBLIC	??_C@_0CJ@EGDAKNFC@Internal?5error?3?5start?5element?5n@ ; `string'
PUBLIC	??_C@_0CM@KNKPDGOJ@?$DMstart?$DO?5use?5both?5?8choice?8?5and?5?8@ ; `string'
PUBLIC	??_C@_0CK@DGGLNMFN@?$DMstart?$DO?5uses?5unknown?5combine?5va@ ; `string'
PUBLIC	??_C@_0DB@FEIAJIL@Some?5?$DMstart?$DO?5element?5miss?5the?5c@ ; `string'
PUBLIC	??_C@_0CD@GDGLIOPD@Detected?5a?5cycle?5in?5?$CFs?5referenc@ ; `string'
PUBLIC	??_C@_0CK@JHAPLGCC@Found?5forbidden?5pattern?5data?1ex@ ; `string'
PUBLIC	??_C@_0CK@BAJLBNJH@Internal?5found?5no?5define?5for?5pa@ ; `string'
PUBLIC	??_C@_04MLLLIHIP@null@				; `string'
PUBLIC	??_C@_0CF@GFDJFDLL@Internal?5found?5no?5define?5for?5re@ ; `string'
PUBLIC	??_C@_0DD@HDAPPKEG@Found?5forbidden?5pattern?5data?1ex@ ; `string'
PUBLIC	??_C@_0CM@EGCJFEMH@Found?5forbidden?5pattern?5list?1?1e@ ; `string'
PUBLIC	??_C@_0DB@MJBLDFBL@Found?5forbidden?5pattern?5attribu@ ; `string'
PUBLIC	??_C@_0DB@COIJMLBL@Element?5?$CFs?5attributes?5have?5a?5co@ ; `string'
PUBLIC	??_C@_0CF@DGIEHIGM@Element?5?$CFs?5has?5a?5content?5type?5e@ ; `string'
PUBLIC	??_C@_0CO@INMFBEHE@Found?5forbidden?5pattern?5attribu@ ; `string'
PUBLIC	??_C@_0CJ@MJOFOIHP@Found?5forbidden?5pattern?5list?1?1a@ ; `string'
PUBLIC	??_C@_0DF@EKCKBFFE@Found?5forbidden?5pattern?5oneOrMo@ ; `string'
PUBLIC	??_C@_0DK@NGAGBKIF@Found?5forbidden?5pattern?5oneOrMo@ ; `string'
PUBLIC	??_C@_0DA@ENKJFBDG@Found?5forbidden?5pattern?5data?1ex@ ; `string'
PUBLIC	??_C@_0CK@BCEDDHLB@Found?5forbidden?5pattern?5start?1?1@ ; `string'
PUBLIC	??_C@_0DE@BFPCKEFO@Found?5anyName?5attribute?5without@ ; `string'
PUBLIC	??_C@_0DD@LLONPEJF@Found?5nsName?5attribute?5without?5@ ; `string'
PUBLIC	??_C@_0DA@BGDINEKH@Found?5forbidden?5pattern?5data?1ex@ ; `string'
PUBLIC	??_C@_0CK@EJNCLCCA@Found?5forbidden?5pattern?5start?1?1@ ; `string'
PUBLIC	??_C@_0CE@NEHBNEAE@Found?5forbidden?5pattern?5list?1?1l@ ; `string'
PUBLIC	??_C@_0CL@OKJMMKMF@Found?5forbidden?5pattern?5data?1ex@ ; `string'
PUBLIC	??_C@_0CF@DLNDBMML@Found?5forbidden?5pattern?5start?1?1@ ; `string'
PUBLIC	??_C@_0CM@DONHBELN@Found?5forbidden?5pattern?5data?1ex@ ; `string'
PUBLIC	??_C@_0CG@NJLOHGGM@Found?5forbidden?5pattern?5start?1?1@ ; `string'
PUBLIC	??_C@_0CK@GDHHJMOD@Found?5forbidden?5pattern?5list?1?1i@ ; `string'
PUBLIC	??_C@_0DB@GMPDCJGO@Found?5forbidden?5pattern?5data?1ex@ ; `string'
PUBLIC	??_C@_0CL@BPHANFIL@Found?5forbidden?5pattern?5start?1?1@ ; `string'
PUBLIC	??_C@_0CF@GAMKIMEF@Found?5forbidden?5pattern?5start?1?1@ ; `string'
PUBLIC	??_C@_0CG@MABIIKGI@Found?5forbidden?5pattern?5start?1?1@ ; `string'
PUBLIC	??_C@_0CE@CJAFDOPC@Found?5forbidden?5pattern?5list?1?1t@ ; `string'
PUBLIC	??_C@_0CL@BHOICADD@Found?5forbidden?5pattern?5data?1ex@ ; `string'
PUBLIC	??_C@_0CF@MGKHPGDN@Found?5forbidden?5pattern?5start?1?1@ ; `string'
PUBLIC	??_C@_0CM@OBFOJGD@Found?5forbidden?5pattern?5data?1ex@ ; `string'
PUBLIC	??_C@_0CG@OJHMILLC@Found?5forbidden?5pattern?5start?1?1@ ; `string'
PUBLIC	??_C@_0CC@BLDDIJOB@Element?5?$DMgrammar?$DO?5has?5no?5?$DMstart@ ; `string'
PUBLIC	??_C@_0BB@LGCAJOFI@building?5parser?6@		; `string'
PUBLIC	??_C@_0CD@DKPPJJNH@Attribute?5?$CFs?5is?5not?5allowed?5on?5@ ; `string'
PUBLIC	??_C@_04CMBCJJJD@href@				; `string'
PUBLIC	??_C@_0CG@BHOFIFCK@Attribute?5?$CFs?5contains?5invalid?5U@ ; `string'
PUBLIC	??_C@_0CF@MJPHBHBO@Attribute?5?$CFs?5URI?5?$CFs?5is?5not?5abso@ ; `string'
PUBLIC	??_C@_0CH@HOEFBPIP@Attribute?5?$CFs?5URI?5?$CFs?5has?5a?5fragm@ ; `string'
PUBLIC	??_C@_0BM@DCBEKLDL@Unknown?5attribute?5?$CFs?5on?5?$CFs?6@ ; `string'
PUBLIC	??_C@_0CL@IEADNMBI@element?5?$CFs?5doesn?8t?5allow?5foreig@ ; `string'
PUBLIC	??_C@_0DE@IKNPMFHP@xmlRelaxNGParse?3?5externalRef?5ha@ ; `string'
PUBLIC	??_C@_0CC@NOODBOMC@Incorrect?5URI?5for?5externalRef?5?$CF@ ; `string'
PUBLIC	??_C@_0CO@GJLFMGAP@Fragment?5forbidden?5in?5URI?5for?5e@ ; `string'
PUBLIC	??_C@_0CK@MJBGKOFC@Failed?5to?5compute?5URL?5for?5exter@ ; `string'
PUBLIC	??_C@_0BP@HCBMCAK@Failed?5to?5load?5externalRef?5?$CFs?6@ ; `string'
PUBLIC	??_C@_0DA@KKFOMCKH@xmlRelaxNGParse?3?5include?5has?5no@ ; `string'
PUBLIC	??_C@_0CG@HMHDMNIG@Failed?5to?5compute?5URL?5for?5inclu@ ; `string'
PUBLIC	??_C@_0BL@NFGKAGJD@Failed?5to?5load?5include?5?$CFs?6@ ; `string'
PUBLIC	??_C@_0CE@PCFKGPKF@Failed?5to?5create?5a?5name?5?$CFs?5elem@ ; `string'
PUBLIC	??_C@_0CN@ILNMLAAE@xmlRelaxNGParse?3?5no?5namespace?5f@ ; `string'
PUBLIC	??_C@_0DB@OONPGEPE@Found?5nsName?1except?1?1nsName?5for@ ; `string'
PUBLIC	??_C@_0DD@IENCCDMP@Found?5anyName?1except?1?1anyName?5f@ ; `string'
PUBLIC	??_C@_0DC@EKOIKCCH@Found?5nsName?1except?1?1anyName?5fo@ ; `string'
PUBLIC	??_C@_0CE@JEGPHEEO@xmlRelaxNGParse?3?5could?5not?5load@ ; `string'
PUBLIC	??_C@_0CK@DLIMDDCN@xmlRelaxNGParse?3?5could?5not?5pars@ ; `string'
PUBLIC	??_C@_0BB@IEONCAEH@in_memory_buffer@		; `string'
PUBLIC	??_C@_0CD@ECFNFIDE@xmlRelaxNGParse?3?5nothing?5to?5par@ ; `string'
PUBLIC	??_C@_07DDGCDBGL@schemas@			; `string'
PUBLIC	??_C@_09JHPCAGIE@?$DMempty?1?$DO?6@		; `string'
PUBLIC	??_C@_0P@LGHJEHKL@?$DMnotAllowed?1?$DO?6@	; `string'
PUBLIC	??_C@_08OHAPHCGE@?$DMtext?1?$DO?6@		; `string'
PUBLIC	??_C@_0L@HIHOJKI@?$DMelement?$DO?6@		; `string'
PUBLIC	??_C@_05MAJIAHFB@?$DMname@			; `string'
PUBLIC	??_C@_08OGOKLGPP@?5ns?$DN?$CC?$CFs?$CC@		; `string'
PUBLIC	??_C@_0M@NKLFPNCC@?$DO?$CFs?$DM?1name?$DO?6@	; `string'
PUBLIC	??_C@_0M@DBOCEHGE@?$DM?1element?$DO?6@		; `string'
PUBLIC	??_C@_07KFGHJDGD@?$DMlist?$DO?6@		; `string'
PUBLIC	??_C@_08BMHNFNKK@?$DM?1list?$DO?6@		; `string'
PUBLIC	??_C@_0N@GKDCALFJ@?$DMoneOrMore?$DO?6@		; `string'
PUBLIC	??_C@_0O@DMBDCLJB@?$DM?1oneOrMore?$DO?6@	; `string'
PUBLIC	??_C@_0O@HBEPIBFH@?$DMzeroOrMore?$DO?6@		; `string'
PUBLIC	??_C@_0P@OEKGOKPF@?$DM?1zeroOrMore?$DO?6@	; `string'
PUBLIC	??_C@_09FMCPLLHC@?$DMchoice?$DO?6@		; `string'
PUBLIC	??_C@_0L@DKMLIBNI@?$DM?1choice?$DO?6@		; `string'
PUBLIC	??_C@_08HJPOCIL@?$DMgroup?$DO?6@		; `string'
PUBLIC	??_C@_09OFJOICFB@?$DM?1group?$DO?6@		; `string'
PUBLIC	??_C@_0O@HDBAABBA@?$DMinterleave?$DO?6@		; `string'
PUBLIC	??_C@_0P@OGPJGKLC@?$DM?1interleave?$DO?6@	; `string'
PUBLIC	??_C@_0M@IMDPOIEK@?$DMoptional?$DO?6@		; `string'
PUBLIC	??_C@_0N@BONLADHP@?$DM?1optional?$DO?6@		; `string'
PUBLIC	??_C@_0N@ONGBDJAO@?$DMattribute?$DO?6@		; `string'
PUBLIC	??_C@_0O@LLEABJMG@?$DM?1attribute?$DO?6@	; `string'
PUBLIC	??_C@_07GFOANDBH@?$DMdefine@			; `string'
PUBLIC	??_C@_0L@GBLOBBPK@?5name?$DN?$CC?$CFs?$CC@	; `string'
PUBLIC	??_C@_02NEKEAGPN@?$DO?6@			; `string'
PUBLIC	??_C@_0L@KIKHHIKC@?$DM?1define?$DO?6@		; `string'
PUBLIC	??_C@_04OBIBPAJI@?$DMref@			; `string'
PUBLIC	??_C@_07KMCFPDOJ@?$DM?1ref?$DO?6@		; `string'
PUBLIC	??_C@_0L@BOLBFIPO@?$DMparentRef@		; `string'
PUBLIC	??_C@_0O@GNLEALJM@?$DM?1parentRef?$DO?6@	; `string'
PUBLIC	??_C@_0O@ONLPMFHM@?$DMexternalRef?$DO@		; `string'
PUBLIC	??_C@_0BA@JLPMEBPH@?$DM?1externalRef?$DO?6@	; `string'
PUBLIC	??_C@_08EPHAEKIJ@?$DMgrammar@			; `string'
PUBLIC	??_C@_0CN@MGKJIEH@?5xmlns?$DN?$CChttp?3?1?1relaxng?4org?1ns?1s@ ; `string'
PUBLIC	??_C@_0BC@JCPJPOMG@?5combine?$DN?$CCchoice?$CC@	; `string'
PUBLIC	??_C@_0BG@DIIHEMFB@?5combine?$DN?$CCinterleave?$CC@ ; `string'
PUBLIC	??_C@_0CA@NOBFJPON@?5?$DM?$CB?9?9?5invalid?5combine?5value?5?9?9?$DO@ ; `string'
PUBLIC	??_C@_0BP@HDPMIPMJ@?5?$DM?$CB?9?9?5grammar?5had?5no?5start?5?9?9?$DO@ ; `string'
PUBLIC	??_C@_08JLPGMCFH@?$DMstart?$DO?6@		; `string'
PUBLIC	??_C@_09HJPHKCIN@?$DM?1start?$DO?6@		; `string'
PUBLIC	??_C@_0M@JODHEKCA@?$DM?1grammar?$DO?6@		; `string'
PUBLIC	??_C@_0CE@LIIBEOG@RelaxNG?5empty?5or?5failed?5to?5comp@ ; `string'
PUBLIC	??_C@_09KHOMLKFG@RelaxNG?3?5@			; `string'
PUBLIC	??_C@_0N@PEHAONBJ@no?5document?6@		; `string'
PUBLIC	??_C@_03OFAPEBGM@?$CFs?6@			; `string'
PUBLIC	??_C@_01EEMJAFIK@?6@				; `string'
PUBLIC	??_C@_0BM@HEJEDHAB@RelaxNG?5has?5no?5top?5grammar?6@ ; `string'
PUBLIC	??_C@_0CA@KBMDPFMM@callback?5on?5?$CFs?5missing?5context?6@ ; `string'
PUBLIC	??_C@_0BP@FKGGDPOM@callback?5on?5?$CFs?5missing?5define?6@ ; `string'
PUBLIC	??_C@_0CG@GECBHEAN@callback?5on?5?$CFs?5define?5is?5not?5el@ ; `string'
PUBLIC	??_C@_0M@PEGDIBJJ@validating?6@			; `string'
PUBLIC	??_C@_06BKKGLNFB@?5TODO?5@			; `string'
PUBLIC	??_C@_06LNKFDEGN@noname@			; `string'
PUBLIC	??_C@_0BF@BELJIEJG@NULL?5definition?5list@	; `string'
PUBLIC	??_C@_0BC@JDIHBOGI@building?5context?6@		; `string'
EXTRN	_xmlStrdup:PROC
EXTRN	_xmlCharStrdup:PROC
EXTRN	_xmlStrEqual:PROC
EXTRN	_xmlStrlen:PROC
EXTRN	_xmlStrcat:PROC
EXTRN	__imp____acrt_iob_func:PROC
EXTRN	__imp____stdio_common_vfprintf:PROC
EXTRN	__imp____stdio_common_vsprintf:PROC
EXTRN	_xmlEscapeFormatString:PROC
EXTRN	_xmlRegFreeRegexp:PROC
EXTRN	_xmlRegexpIsDeterminist:PROC
EXTRN	_xmlRegNewExecCtxt:PROC
EXTRN	_xmlRegFreeExecCtxt:PROC
EXTRN	_xmlRegExecPushString:PROC
EXTRN	_xmlRegExecPushString2:PROC
EXTRN	_xmlValidateNCName:PROC
EXTRN	_xmlSplitQName2:PROC
EXTRN	_xmlFreeDoc:PROC
EXTRN	_xmlCopyDoc:PROC
EXTRN	_xmlNewDocNode:PROC
EXTRN	_xmlNewChild:PROC
EXTRN	_xmlNewText:PROC
EXTRN	_xmlDocGetRootElement:PROC
EXTRN	_xmlIsBlankNode:PROC
EXTRN	_xmlAddChild:PROC
EXTRN	_xmlAddPrevSibling:PROC
EXTRN	_xmlAddNextSibling:PROC
EXTRN	_xmlUnlinkNode:PROC
EXTRN	_xmlFreeNode:PROC
EXTRN	_xmlSearchNs:PROC
EXTRN	_xmlSetProp:PROC
EXTRN	_xmlGetProp:PROC
EXTRN	_xmlHasProp:PROC
EXTRN	_xmlNodeListGetString:PROC
EXTRN	_xmlNodeSetContent:PROC
EXTRN	_xmlNodeGetContent:PROC
EXTRN	_xmlNodeGetBase:PROC
EXTRN	_xmlUnsetProp:PROC
EXTRN	_xmlDocDump:PROC
EXTRN	_xmlHashCreate:PROC
EXTRN	_xmlHashFree:PROC
EXTRN	_xmlHashAddEntry:PROC
EXTRN	_xmlHashAddEntry2:PROC
EXTRN	_xmlHashLookup:PROC
EXTRN	_xmlHashLookup2:PROC
EXTRN	_xmlHashScan:PROC
EXTRN	___xmlRaiseError:PROC
EXTRN	_xmlNewAutomata:PROC
EXTRN	_xmlFreeAutomata:PROC
EXTRN	_xmlAutomataGetInitState:PROC
EXTRN	_xmlAutomataSetFinalState:PROC
EXTRN	_xmlAutomataNewTransition:PROC
EXTRN	_xmlAutomataNewTransition2:PROC
EXTRN	_xmlAutomataNewEpsilon:PROC
EXTRN	_xmlAutomataCompile:PROC
EXTRN	_xmlAutomataIsDeterminist:PROC
EXTRN	_xmlValidateDocumentFinal:PROC
EXTRN	_xmlReadFile:PROC
EXTRN	_xmlReadMemory:PROC
EXTRN	___xmlGenericError:PROC
EXTRN	___xmlGenericErrorContext:PROC
EXTRN	_xmlBuildURI:PROC
EXTRN	_xmlParseURI:PROC
EXTRN	_xmlURIEscapeStr:PROC
EXTRN	_xmlFreeURI:PROC
EXTRN	_xmlSchemaCleanupTypes:PROC
EXTRN	_xmlSchemaGetPredefinedType:PROC
EXTRN	_xmlSchemaValPredefTypeNode:PROC
EXTRN	_xmlSchemaValidateFacet:PROC
EXTRN	_xmlSchemaFreeValue:PROC
EXTRN	_xmlSchemaNewFacet:PROC
EXTRN	_xmlSchemaCheckFacet:PROC
EXTRN	_xmlSchemaFreeFacet:PROC
EXTRN	_xmlSchemaCompareValues:PROC
EXTRN	_xmlAutomataSetFlags:PROC
EXTRN	@__CheckForDebuggerJustMyCode@4:PROC
EXTRN	_memcpy:PROC
EXTRN	_memset:PROC
_DATA	SEGMENT
COMM	?_OptionsStorage@?1??__local_stdio_printf_options@@9@9:QWORD							; `__local_stdio_printf_options'::`2'::_OptionsStorage
_DATA	ENDS
_BSS	SEGMENT
_xmlRelaxNGTypeInitialized DD 01H DUP (?)
_xmlRelaxNGRegisteredTypes DD 01H DUP (?)
_BSS	ENDS
;	COMDAT ??_C@_0BC@JDIHBOGI@building?5context?6@
CONST	SEGMENT
??_C@_0BC@JDIHBOGI@building?5context?6@ DB 'building context', 0aH, 00H ; `string'
CONST	ENDS
;	COMDAT ??_C@_0BF@BELJIEJG@NULL?5definition?5list@
CONST	SEGMENT
??_C@_0BF@BELJIEJG@NULL?5definition?5list@ DB 'NULL definition list', 00H ; `string'
CONST	ENDS
;	COMDAT ??_C@_06LNKFDEGN@noname@
CONST	SEGMENT
??_C@_06LNKFDEGN@noname@ DB 'noname', 00H		; `string'
CONST	ENDS
;	COMDAT ??_C@_06BKKGLNFB@?5TODO?5@
CONST	SEGMENT
??_C@_06BKKGLNFB@?5TODO?5@ DB ' TODO ', 00H		; `string'
CONST	ENDS
;	COMDAT ??_C@_0M@PEGDIBJJ@validating?6@
CONST	SEGMENT
??_C@_0M@PEGDIBJJ@validating?6@ DB 'validating', 0aH, 00H ; `string'
CONST	ENDS
;	COMDAT ??_C@_0CG@GECBHEAN@callback?5on?5?$CFs?5define?5is?5not?5el@
CONST	SEGMENT
??_C@_0CG@GECBHEAN@callback?5on?5?$CFs?5define?5is?5not?5el@ DB 'callback'
	DB	' on %s define is not element', 0aH, 00H	; `string'
CONST	ENDS
;	COMDAT ??_C@_0BP@FKGGDPOM@callback?5on?5?$CFs?5missing?5define?6@
CONST	SEGMENT
??_C@_0BP@FKGGDPOM@callback?5on?5?$CFs?5missing?5define?6@ DB 'callback o'
	DB	'n %s missing define', 0aH, 00H		; `string'
CONST	ENDS
;	COMDAT ??_C@_0CA@KBMDPFMM@callback?5on?5?$CFs?5missing?5context?6@
CONST	SEGMENT
??_C@_0CA@KBMDPFMM@callback?5on?5?$CFs?5missing?5context?6@ DB 'callback '
	DB	'on %s missing context', 0aH, 00H		; `string'
CONST	ENDS
;	COMDAT ??_C@_0BM@HEJEDHAB@RelaxNG?5has?5no?5top?5grammar?6@
CONST	SEGMENT
??_C@_0BM@HEJEDHAB@RelaxNG?5has?5no?5top?5grammar?6@ DB 'RelaxNG has no t'
	DB	'op grammar', 0aH, 00H			; `string'
CONST	ENDS
;	COMDAT ??_C@_01EEMJAFIK@?6@
CONST	SEGMENT
??_C@_01EEMJAFIK@?6@ DB 0aH, 00H			; `string'
CONST	ENDS
;	COMDAT ??_C@_03OFAPEBGM@?$CFs?6@
CONST	SEGMENT
??_C@_03OFAPEBGM@?$CFs?6@ DB '%s', 0aH, 00H		; `string'
CONST	ENDS
;	COMDAT ??_C@_0N@PEHAONBJ@no?5document?6@
CONST	SEGMENT
??_C@_0N@PEHAONBJ@no?5document?6@ DB 'no document', 0aH, 00H ; `string'
CONST	ENDS
;	COMDAT ??_C@_09KHOMLKFG@RelaxNG?3?5@
CONST	SEGMENT
??_C@_09KHOMLKFG@RelaxNG?3?5@ DB 'RelaxNG: ', 00H	; `string'
CONST	ENDS
;	COMDAT ??_C@_0CE@LIIBEOG@RelaxNG?5empty?5or?5failed?5to?5comp@
CONST	SEGMENT
??_C@_0CE@LIIBEOG@RelaxNG?5empty?5or?5failed?5to?5comp@ DB 'RelaxNG empty'
	DB	' or failed to compile', 0aH, 00H		; `string'
CONST	ENDS
;	COMDAT ??_C@_0M@JODHEKCA@?$DM?1grammar?$DO?6@
CONST	SEGMENT
??_C@_0M@JODHEKCA@?$DM?1grammar?$DO?6@ DB '</grammar>', 0aH, 00H ; `string'
CONST	ENDS
;	COMDAT ??_C@_09HJPHKCIN@?$DM?1start?$DO?6@
CONST	SEGMENT
??_C@_09HJPHKCIN@?$DM?1start?$DO?6@ DB '</start>', 0aH, 00H ; `string'
CONST	ENDS
;	COMDAT ??_C@_08JLPGMCFH@?$DMstart?$DO?6@
CONST	SEGMENT
??_C@_08JLPGMCFH@?$DMstart?$DO?6@ DB '<start>', 0aH, 00H ; `string'
CONST	ENDS
;	COMDAT ??_C@_0BP@HDPMIPMJ@?5?$DM?$CB?9?9?5grammar?5had?5no?5start?5?9?9?$DO@
CONST	SEGMENT
??_C@_0BP@HDPMIPMJ@?5?$DM?$CB?9?9?5grammar?5had?5no?5start?5?9?9?$DO@ DB ' '
	DB	'<!-- grammar had no start -->', 00H		; `string'
CONST	ENDS
;	COMDAT ??_C@_0CA@NOBFJPON@?5?$DM?$CB?9?9?5invalid?5combine?5value?5?9?9?$DO@
CONST	SEGMENT
??_C@_0CA@NOBFJPON@?5?$DM?$CB?9?9?5invalid?5combine?5value?5?9?9?$DO@ DB ' '
	DB	'<!-- invalid combine value -->', 00H	; `string'
CONST	ENDS
;	COMDAT ??_C@_0BG@DIIHEMFB@?5combine?$DN?$CCinterleave?$CC@
CONST	SEGMENT
??_C@_0BG@DIIHEMFB@?5combine?$DN?$CCinterleave?$CC@ DB ' combine="interle'
	DB	'ave"', 00H					; `string'
CONST	ENDS
;	COMDAT ??_C@_0BC@JCPJPOMG@?5combine?$DN?$CCchoice?$CC@
CONST	SEGMENT
??_C@_0BC@JCPJPOMG@?5combine?$DN?$CCchoice?$CC@ DB ' combine="choice"', 00H ; `string'
CONST	ENDS
;	COMDAT ??_C@_0CN@MGKJIEH@?5xmlns?$DN?$CChttp?3?1?1relaxng?4org?1ns?1s@
CONST	SEGMENT
??_C@_0CN@MGKJIEH@?5xmlns?$DN?$CChttp?3?1?1relaxng?4org?1ns?1s@ DB ' xmln'
	DB	's="http://relaxng.org/ns/structure/1.0"', 00H ; `string'
CONST	ENDS
;	COMDAT ??_C@_08EPHAEKIJ@?$DMgrammar@
CONST	SEGMENT
??_C@_08EPHAEKIJ@?$DMgrammar@ DB '<grammar', 00H	; `string'
CONST	ENDS
;	COMDAT ??_C@_0BA@JLPMEBPH@?$DM?1externalRef?$DO?6@
CONST	SEGMENT
??_C@_0BA@JLPMEBPH@?$DM?1externalRef?$DO?6@ DB '</externalRef>', 0aH, 00H ; `string'
CONST	ENDS
;	COMDAT ??_C@_0O@ONLPMFHM@?$DMexternalRef?$DO@
CONST	SEGMENT
??_C@_0O@ONLPMFHM@?$DMexternalRef?$DO@ DB '<externalRef>', 00H ; `string'
CONST	ENDS
;	COMDAT ??_C@_0O@GNLEALJM@?$DM?1parentRef?$DO?6@
CONST	SEGMENT
??_C@_0O@GNLEALJM@?$DM?1parentRef?$DO?6@ DB '</parentRef>', 0aH, 00H ; `string'
CONST	ENDS
;	COMDAT ??_C@_0L@BOLBFIPO@?$DMparentRef@
CONST	SEGMENT
??_C@_0L@BOLBFIPO@?$DMparentRef@ DB '<parentRef', 00H	; `string'
CONST	ENDS
;	COMDAT ??_C@_07KMCFPDOJ@?$DM?1ref?$DO?6@
CONST	SEGMENT
??_C@_07KMCFPDOJ@?$DM?1ref?$DO?6@ DB '</ref>', 0aH, 00H	; `string'
CONST	ENDS
;	COMDAT ??_C@_04OBIBPAJI@?$DMref@
CONST	SEGMENT
??_C@_04OBIBPAJI@?$DMref@ DB '<ref', 00H		; `string'
CONST	ENDS
;	COMDAT ??_C@_0L@KIKHHIKC@?$DM?1define?$DO?6@
CONST	SEGMENT
??_C@_0L@KIKHHIKC@?$DM?1define?$DO?6@ DB '</define>', 0aH, 00H ; `string'
CONST	ENDS
;	COMDAT ??_C@_02NEKEAGPN@?$DO?6@
CONST	SEGMENT
??_C@_02NEKEAGPN@?$DO?6@ DB '>', 0aH, 00H		; `string'
CONST	ENDS
;	COMDAT ??_C@_0L@GBLOBBPK@?5name?$DN?$CC?$CFs?$CC@
CONST	SEGMENT
??_C@_0L@GBLOBBPK@?5name?$DN?$CC?$CFs?$CC@ DB ' name="%s"', 00H ; `string'
CONST	ENDS
;	COMDAT ??_C@_07GFOANDBH@?$DMdefine@
CONST	SEGMENT
??_C@_07GFOANDBH@?$DMdefine@ DB '<define', 00H		; `string'
CONST	ENDS
;	COMDAT ??_C@_0O@LLEABJMG@?$DM?1attribute?$DO?6@
CONST	SEGMENT
??_C@_0O@LLEABJMG@?$DM?1attribute?$DO?6@ DB '</attribute>', 0aH, 00H ; `string'
CONST	ENDS
;	COMDAT ??_C@_0N@ONGBDJAO@?$DMattribute?$DO?6@
CONST	SEGMENT
??_C@_0N@ONGBDJAO@?$DMattribute?$DO?6@ DB '<attribute>', 0aH, 00H ; `string'
CONST	ENDS
;	COMDAT ??_C@_0N@BONLADHP@?$DM?1optional?$DO?6@
CONST	SEGMENT
??_C@_0N@BONLADHP@?$DM?1optional?$DO?6@ DB '</optional>', 0aH, 00H ; `string'
CONST	ENDS
;	COMDAT ??_C@_0M@IMDPOIEK@?$DMoptional?$DO?6@
CONST	SEGMENT
??_C@_0M@IMDPOIEK@?$DMoptional?$DO?6@ DB '<optional>', 0aH, 00H ; `string'
CONST	ENDS
;	COMDAT ??_C@_0P@OGPJGKLC@?$DM?1interleave?$DO?6@
CONST	SEGMENT
??_C@_0P@OGPJGKLC@?$DM?1interleave?$DO?6@ DB '</interleave>', 0aH, 00H ; `string'
CONST	ENDS
;	COMDAT ??_C@_0O@HDBAABBA@?$DMinterleave?$DO?6@
CONST	SEGMENT
??_C@_0O@HDBAABBA@?$DMinterleave?$DO?6@ DB '<interleave>', 0aH, 00H ; `string'
CONST	ENDS
;	COMDAT ??_C@_09OFJOICFB@?$DM?1group?$DO?6@
CONST	SEGMENT
??_C@_09OFJOICFB@?$DM?1group?$DO?6@ DB '</group>', 0aH, 00H ; `string'
CONST	ENDS
;	COMDAT ??_C@_08HJPOCIL@?$DMgroup?$DO?6@
CONST	SEGMENT
??_C@_08HJPOCIL@?$DMgroup?$DO?6@ DB '<group>', 0aH, 00H	; `string'
CONST	ENDS
;	COMDAT ??_C@_0L@DKMLIBNI@?$DM?1choice?$DO?6@
CONST	SEGMENT
??_C@_0L@DKMLIBNI@?$DM?1choice?$DO?6@ DB '</choice>', 0aH, 00H ; `string'
CONST	ENDS
;	COMDAT ??_C@_09FMCPLLHC@?$DMchoice?$DO?6@
CONST	SEGMENT
??_C@_09FMCPLLHC@?$DMchoice?$DO?6@ DB '<choice>', 0aH, 00H ; `string'
CONST	ENDS
;	COMDAT ??_C@_0P@OEKGOKPF@?$DM?1zeroOrMore?$DO?6@
CONST	SEGMENT
??_C@_0P@OEKGOKPF@?$DM?1zeroOrMore?$DO?6@ DB '</zeroOrMore>', 0aH, 00H ; `string'
CONST	ENDS
;	COMDAT ??_C@_0O@HBEPIBFH@?$DMzeroOrMore?$DO?6@
CONST	SEGMENT
??_C@_0O@HBEPIBFH@?$DMzeroOrMore?$DO?6@ DB '<zeroOrMore>', 0aH, 00H ; `string'
CONST	ENDS
;	COMDAT ??_C@_0O@DMBDCLJB@?$DM?1oneOrMore?$DO?6@
CONST	SEGMENT
??_C@_0O@DMBDCLJB@?$DM?1oneOrMore?$DO?6@ DB '</oneOrMore>', 0aH, 00H ; `string'
CONST	ENDS
;	COMDAT ??_C@_0N@GKDCALFJ@?$DMoneOrMore?$DO?6@
CONST	SEGMENT
??_C@_0N@GKDCALFJ@?$DMoneOrMore?$DO?6@ DB '<oneOrMore>', 0aH, 00H ; `string'
CONST	ENDS
;	COMDAT ??_C@_08BMHNFNKK@?$DM?1list?$DO?6@
CONST	SEGMENT
??_C@_08BMHNFNKK@?$DM?1list?$DO?6@ DB '</list>', 0aH, 00H ; `string'
CONST	ENDS
;	COMDAT ??_C@_07KFGHJDGD@?$DMlist?$DO?6@
CONST	SEGMENT
??_C@_07KFGHJDGD@?$DMlist?$DO?6@ DB '<list>', 0aH, 00H	; `string'
CONST	ENDS
;	COMDAT ??_C@_0M@DBOCEHGE@?$DM?1element?$DO?6@
CONST	SEGMENT
??_C@_0M@DBOCEHGE@?$DM?1element?$DO?6@ DB '</element>', 0aH, 00H ; `string'
CONST	ENDS
;	COMDAT ??_C@_0M@NKLFPNCC@?$DO?$CFs?$DM?1name?$DO?6@
CONST	SEGMENT
??_C@_0M@NKLFPNCC@?$DO?$CFs?$DM?1name?$DO?6@ DB '>%s</name>', 0aH, 00H ; `string'
CONST	ENDS
;	COMDAT ??_C@_08OGOKLGPP@?5ns?$DN?$CC?$CFs?$CC@
CONST	SEGMENT
??_C@_08OGOKLGPP@?5ns?$DN?$CC?$CFs?$CC@ DB ' ns="%s"', 00H ; `string'
CONST	ENDS
;	COMDAT ??_C@_05MAJIAHFB@?$DMname@
CONST	SEGMENT
??_C@_05MAJIAHFB@?$DMname@ DB '<name', 00H		; `string'
CONST	ENDS
;	COMDAT ??_C@_0L@HIHOJKI@?$DMelement?$DO?6@
CONST	SEGMENT
??_C@_0L@HIHOJKI@?$DMelement?$DO?6@ DB '<element>', 0aH, 00H ; `string'
CONST	ENDS
;	COMDAT ??_C@_08OHAPHCGE@?$DMtext?1?$DO?6@
CONST	SEGMENT
??_C@_08OHAPHCGE@?$DMtext?1?$DO?6@ DB '<text/>', 0aH, 00H ; `string'
CONST	ENDS
;	COMDAT ??_C@_0P@LGHJEHKL@?$DMnotAllowed?1?$DO?6@
CONST	SEGMENT
??_C@_0P@LGHJEHKL@?$DMnotAllowed?1?$DO?6@ DB '<notAllowed/>', 0aH, 00H ; `string'
CONST	ENDS
;	COMDAT ??_C@_09JHPCAGIE@?$DMempty?1?$DO?6@
CONST	SEGMENT
??_C@_09JHPCAGIE@?$DMempty?1?$DO?6@ DB '<empty/>', 0aH, 00H ; `string'
CONST	ENDS
;	COMDAT ??_C@_07DDGCDBGL@schemas@
CONST	SEGMENT
??_C@_07DDGCDBGL@schemas@ DB 'schemas', 00H		; `string'
CONST	ENDS
;	COMDAT ??_C@_0CD@ECFNFIDE@xmlRelaxNGParse?3?5nothing?5to?5par@
CONST	SEGMENT
??_C@_0CD@ECFNFIDE@xmlRelaxNGParse?3?5nothing?5to?5par@ DB 'xmlRelaxNGPar'
	DB	'se: nothing to parse', 0aH, 00H		; `string'
CONST	ENDS
;	COMDAT ??_C@_0BB@IEONCAEH@in_memory_buffer@
CONST	SEGMENT
??_C@_0BB@IEONCAEH@in_memory_buffer@ DB 'in_memory_buffer', 00H ; `string'
CONST	ENDS
;	COMDAT ??_C@_0CK@DLIMDDCN@xmlRelaxNGParse?3?5could?5not?5pars@
CONST	SEGMENT
??_C@_0CK@DLIMDDCN@xmlRelaxNGParse?3?5could?5not?5pars@ DB 'xmlRelaxNGPar'
	DB	'se: could not parse schemas', 0aH, 00H	; `string'
CONST	ENDS
;	COMDAT ??_C@_0CE@JEGPHEEO@xmlRelaxNGParse?3?5could?5not?5load@
CONST	SEGMENT
??_C@_0CE@JEGPHEEO@xmlRelaxNGParse?3?5could?5not?5load@ DB 'xmlRelaxNGPar'
	DB	'se: could not load %s', 0aH, 00H		; `string'
CONST	ENDS
;	COMDAT ??_C@_0DC@EKOIKCCH@Found?5nsName?1except?1?1anyName?5fo@
CONST	SEGMENT
??_C@_0DC@EKOIKCCH@Found?5nsName?1except?1?1anyName?5fo@ DB 'Found nsName'
	DB	'/except//anyName forbidden construct', 0aH, 00H ; `string'
CONST	ENDS
;	COMDAT ??_C@_0DD@IENCCDMP@Found?5anyName?1except?1?1anyName?5f@
CONST	SEGMENT
??_C@_0DD@IENCCDMP@Found?5anyName?1except?1?1anyName?5f@ DB 'Found anyNam'
	DB	'e/except//anyName forbidden construct', 0aH, 00H ; `string'
CONST	ENDS
;	COMDAT ??_C@_0DB@OONPGEPE@Found?5nsName?1except?1?1nsName?5for@
CONST	SEGMENT
??_C@_0DB@OONPGEPE@Found?5nsName?1except?1?1nsName?5for@ DB 'Found nsName'
	DB	'/except//nsName forbidden construct', 0aH, 00H ; `string'
CONST	ENDS
;	COMDAT ??_C@_0CN@ILNMLAAE@xmlRelaxNGParse?3?5no?5namespace?5f@
CONST	SEGMENT
??_C@_0CN@ILNMLAAE@xmlRelaxNGParse?3?5no?5namespace?5f@ DB 'xmlRelaxNGPar'
	DB	'se: no namespace for prefix %s', 0aH, 00H	; `string'
CONST	ENDS
;	COMDAT ??_C@_0CE@PCFKGPKF@Failed?5to?5create?5a?5name?5?$CFs?5elem@
CONST	SEGMENT
??_C@_0CE@PCFKGPKF@Failed?5to?5create?5a?5name?5?$CFs?5elem@ DB 'Failed t'
	DB	'o create a name %s element', 0aH, 00H	; `string'
CONST	ENDS
;	COMDAT ??_C@_0BL@NFGKAGJD@Failed?5to?5load?5include?5?$CFs?6@
CONST	SEGMENT
??_C@_0BL@NFGKAGJD@Failed?5to?5load?5include?5?$CFs?6@ DB 'Failed to load'
	DB	' include %s', 0aH, 00H			; `string'
CONST	ENDS
;	COMDAT ??_C@_0CG@HMHDMNIG@Failed?5to?5compute?5URL?5for?5inclu@
CONST	SEGMENT
??_C@_0CG@HMHDMNIG@Failed?5to?5compute?5URL?5for?5inclu@ DB 'Failed to co'
	DB	'mpute URL for include %s', 0aH, 00H		; `string'
CONST	ENDS
;	COMDAT ??_C@_0DA@KKFOMCKH@xmlRelaxNGParse?3?5include?5has?5no@
CONST	SEGMENT
??_C@_0DA@KKFOMCKH@xmlRelaxNGParse?3?5include?5has?5no@ DB 'xmlRelaxNGPar'
	DB	'se: include has no href attribute', 0aH, 00H ; `string'
CONST	ENDS
;	COMDAT ??_C@_0BP@HCBMCAK@Failed?5to?5load?5externalRef?5?$CFs?6@
CONST	SEGMENT
??_C@_0BP@HCBMCAK@Failed?5to?5load?5externalRef?5?$CFs?6@ DB 'Failed to l'
	DB	'oad externalRef %s', 0aH, 00H		; `string'
CONST	ENDS
;	COMDAT ??_C@_0CK@MJBGKOFC@Failed?5to?5compute?5URL?5for?5exter@
CONST	SEGMENT
??_C@_0CK@MJBGKOFC@Failed?5to?5compute?5URL?5for?5exter@ DB 'Failed to co'
	DB	'mpute URL for externalRef %s', 0aH, 00H	; `string'
CONST	ENDS
;	COMDAT ??_C@_0CO@GJLFMGAP@Fragment?5forbidden?5in?5URI?5for?5e@
CONST	SEGMENT
??_C@_0CO@GJLFMGAP@Fragment?5forbidden?5in?5URI?5for?5e@ DB 'Fragment for'
	DB	'bidden in URI for externalRef %s', 0aH, 00H	; `string'
CONST	ENDS
;	COMDAT ??_C@_0CC@NOODBOMC@Incorrect?5URI?5for?5externalRef?5?$CF@
CONST	SEGMENT
??_C@_0CC@NOODBOMC@Incorrect?5URI?5for?5externalRef?5?$CF@ DB 'Incorrect '
	DB	'URI for externalRef %s', 0aH, 00H		; `string'
CONST	ENDS
;	COMDAT ??_C@_0DE@IKNPMFHP@xmlRelaxNGParse?3?5externalRef?5ha@
CONST	SEGMENT
??_C@_0DE@IKNPMFHP@xmlRelaxNGParse?3?5externalRef?5ha@ DB 'xmlRelaxNGPars'
	DB	'e: externalRef has no href attribute', 0aH, 00H ; `string'
CONST	ENDS
;	COMDAT ??_C@_0CL@IEADNMBI@element?5?$CFs?5doesn?8t?5allow?5foreig@
CONST	SEGMENT
??_C@_0CL@IEADNMBI@element?5?$CFs?5doesn?8t?5allow?5foreig@ DB 'element %'
	DB	's doesn''t allow foreign elements', 0aH, 00H ; `string'
CONST	ENDS
;	COMDAT ??_C@_0BM@DCBEKLDL@Unknown?5attribute?5?$CFs?5on?5?$CFs?6@
CONST	SEGMENT
??_C@_0BM@DCBEKLDL@Unknown?5attribute?5?$CFs?5on?5?$CFs?6@ DB 'Unknown at'
	DB	'tribute %s on %s', 0aH, 00H			; `string'
CONST	ENDS
;	COMDAT ??_C@_0CH@HOEFBPIP@Attribute?5?$CFs?5URI?5?$CFs?5has?5a?5fragm@
CONST	SEGMENT
??_C@_0CH@HOEFBPIP@Attribute?5?$CFs?5URI?5?$CFs?5has?5a?5fragm@ DB 'Attri'
	DB	'bute %s URI %s has a fragment ID', 0aH, 00H	; `string'
CONST	ENDS
;	COMDAT ??_C@_0CF@MJPHBHBO@Attribute?5?$CFs?5URI?5?$CFs?5is?5not?5abso@
CONST	SEGMENT
??_C@_0CF@MJPHBHBO@Attribute?5?$CFs?5URI?5?$CFs?5is?5not?5abso@ DB 'Attri'
	DB	'bute %s URI %s is not absolute', 0aH, 00H	; `string'
CONST	ENDS
;	COMDAT ??_C@_0CG@BHOFIFCK@Attribute?5?$CFs?5contains?5invalid?5U@
CONST	SEGMENT
??_C@_0CG@BHOFIFCK@Attribute?5?$CFs?5contains?5invalid?5U@ DB 'Attribute '
	DB	'%s contains invalid URI %s', 0aH, 00H	; `string'
CONST	ENDS
;	COMDAT ??_C@_04CMBCJJJD@href@
CONST	SEGMENT
??_C@_04CMBCJJJD@href@ DB 'href', 00H			; `string'
CONST	ENDS
;	COMDAT ??_C@_0CD@DKPPJJNH@Attribute?5?$CFs?5is?5not?5allowed?5on?5@
CONST	SEGMENT
??_C@_0CD@DKPPJJNH@Attribute?5?$CFs?5is?5not?5allowed?5on?5@ DB 'Attribut'
	DB	'e %s is not allowed on %s', 0aH, 00H	; `string'
CONST	ENDS
;	COMDAT ??_C@_0BB@LGCAJOFI@building?5parser?6@
CONST	SEGMENT
??_C@_0BB@LGCAJOFI@building?5parser?6@ DB 'building parser', 0aH, 00H ; `string'
CONST	ENDS
;	COMDAT ??_C@_0CC@BLDDIJOB@Element?5?$DMgrammar?$DO?5has?5no?5?$DMstart@
CONST	SEGMENT
??_C@_0CC@BLDDIJOB@Element?5?$DMgrammar?$DO?5has?5no?5?$DMstart@ DB 'Elem'
	DB	'ent <grammar> has no <start>', 0aH, 00H	; `string'
CONST	ENDS
;	COMDAT ??_C@_0CG@OJHMILLC@Found?5forbidden?5pattern?5start?1?1@
CONST	SEGMENT
??_C@_0CG@OJHMILLC@Found?5forbidden?5pattern?5start?1?1@ DB 'Found forbid'
	DB	'den pattern start//empty', 0aH, 00H		; `string'
CONST	ENDS
;	COMDAT ??_C@_0CM@OBFOJGD@Found?5forbidden?5pattern?5data?1ex@
CONST	SEGMENT
??_C@_0CM@OBFOJGD@Found?5forbidden?5pattern?5data?1ex@ DB 'Found forbidde'
	DB	'n pattern data/except//empty', 0aH, 00H	; `string'
CONST	ENDS
;	COMDAT ??_C@_0CF@MGKHPGDN@Found?5forbidden?5pattern?5start?1?1@
CONST	SEGMENT
??_C@_0CF@MGKHPGDN@Found?5forbidden?5pattern?5start?1?1@ DB 'Found forbid'
	DB	'den pattern start//text', 0aH, 00H		; `string'
CONST	ENDS
;	COMDAT ??_C@_0CL@BHOICADD@Found?5forbidden?5pattern?5data?1ex@
CONST	SEGMENT
??_C@_0CL@BHOICADD@Found?5forbidden?5pattern?5data?1ex@ DB 'Found forbidd'
	DB	'en pattern data/except//text', 0aH, 00H	; `string'
CONST	ENDS
;	COMDAT ??_C@_0CE@CJAFDOPC@Found?5forbidden?5pattern?5list?1?1t@
CONST	SEGMENT
??_C@_0CE@CJAFDOPC@Found?5forbidden?5pattern?5list?1?1t@ DB 'Found forbid'
	DB	'den pattern list//text', 0aH, 00H		; `string'
CONST	ENDS
;	COMDAT ??_C@_0CG@MABIIKGI@Found?5forbidden?5pattern?5start?1?1@
CONST	SEGMENT
??_C@_0CG@MABIIKGI@Found?5forbidden?5pattern?5start?1?1@ DB 'Found forbid'
	DB	'den pattern start//value', 0aH, 00H		; `string'
CONST	ENDS
;	COMDAT ??_C@_0CF@GAMKIMEF@Found?5forbidden?5pattern?5start?1?1@
CONST	SEGMENT
??_C@_0CF@GAMKIMEF@Found?5forbidden?5pattern?5start?1?1@ DB 'Found forbid'
	DB	'den pattern start//data', 0aH, 00H		; `string'
CONST	ENDS
;	COMDAT ??_C@_0CL@BPHANFIL@Found?5forbidden?5pattern?5start?1?1@
CONST	SEGMENT
??_C@_0CL@BPHANFIL@Found?5forbidden?5pattern?5start?1?1@ DB 'Found forbid'
	DB	'den pattern start//interleave', 0aH, 00H	; `string'
CONST	ENDS
;	COMDAT ??_C@_0DB@GMPDCJGO@Found?5forbidden?5pattern?5data?1ex@
CONST	SEGMENT
??_C@_0DB@GMPDCJGO@Found?5forbidden?5pattern?5data?1ex@ DB 'Found forbidd'
	DB	'en pattern data/except//interleave', 0aH, 00H ; `string'
CONST	ENDS
;	COMDAT ??_C@_0CK@GDHHJMOD@Found?5forbidden?5pattern?5list?1?1i@
CONST	SEGMENT
??_C@_0CK@GDHHJMOD@Found?5forbidden?5pattern?5list?1?1i@ DB 'Found forbid'
	DB	'den pattern list//interleave', 0aH, 00H	; `string'
CONST	ENDS
;	COMDAT ??_C@_0CG@NJLOHGGM@Found?5forbidden?5pattern?5start?1?1@
CONST	SEGMENT
??_C@_0CG@NJLOHGGM@Found?5forbidden?5pattern?5start?1?1@ DB 'Found forbid'
	DB	'den pattern start//group', 0aH, 00H		; `string'
CONST	ENDS
;	COMDAT ??_C@_0CM@DONHBELN@Found?5forbidden?5pattern?5data?1ex@
CONST	SEGMENT
??_C@_0CM@DONHBELN@Found?5forbidden?5pattern?5data?1ex@ DB 'Found forbidd'
	DB	'en pattern data/except//group', 0aH, 00H	; `string'
CONST	ENDS
;	COMDAT ??_C@_0CF@DLNDBMML@Found?5forbidden?5pattern?5start?1?1@
CONST	SEGMENT
??_C@_0CF@DLNDBMML@Found?5forbidden?5pattern?5start?1?1@ DB 'Found forbid'
	DB	'den pattern start//list', 0aH, 00H		; `string'
CONST	ENDS
;	COMDAT ??_C@_0CL@OKJMMKMF@Found?5forbidden?5pattern?5data?1ex@
CONST	SEGMENT
??_C@_0CL@OKJMMKMF@Found?5forbidden?5pattern?5data?1ex@ DB 'Found forbidd'
	DB	'en pattern data/except//list', 0aH, 00H	; `string'
CONST	ENDS
;	COMDAT ??_C@_0CE@NEHBNEAE@Found?5forbidden?5pattern?5list?1?1l@
CONST	SEGMENT
??_C@_0CE@NEHBNEAE@Found?5forbidden?5pattern?5list?1?1l@ DB 'Found forbid'
	DB	'den pattern list//list', 0aH, 00H		; `string'
CONST	ENDS
;	COMDAT ??_C@_0CK@EJNCLCCA@Found?5forbidden?5pattern?5start?1?1@
CONST	SEGMENT
??_C@_0CK@EJNCLCCA@Found?5forbidden?5pattern?5start?1?1@ DB 'Found forbid'
	DB	'den pattern start//oneOrMore', 0aH, 00H	; `string'
CONST	ENDS
;	COMDAT ??_C@_0DA@BGDINEKH@Found?5forbidden?5pattern?5data?1ex@
CONST	SEGMENT
??_C@_0DA@BGDINEKH@Found?5forbidden?5pattern?5data?1ex@ DB 'Found forbidd'
	DB	'en pattern data/except//oneOrMore', 0aH, 00H ; `string'
CONST	ENDS
;	COMDAT ??_C@_0DD@LLONPEJF@Found?5nsName?5attribute?5without?5@
CONST	SEGMENT
??_C@_0DD@LLONPEJF@Found?5nsName?5attribute?5without?5@ DB 'Found nsName '
	DB	'attribute without oneOrMore ancestor', 0aH, 00H ; `string'
CONST	ENDS
;	COMDAT ??_C@_0DE@BFPCKEFO@Found?5anyName?5attribute?5without@
CONST	SEGMENT
??_C@_0DE@BFPCKEFO@Found?5anyName?5attribute?5without@ DB 'Found anyName '
	DB	'attribute without oneOrMore ancestor', 0aH, 00H ; `string'
CONST	ENDS
;	COMDAT ??_C@_0CK@BCEDDHLB@Found?5forbidden?5pattern?5start?1?1@
CONST	SEGMENT
??_C@_0CK@BCEDDHLB@Found?5forbidden?5pattern?5start?1?1@ DB 'Found forbid'
	DB	'den pattern start//attribute', 0aH, 00H	; `string'
CONST	ENDS
;	COMDAT ??_C@_0DA@ENKJFBDG@Found?5forbidden?5pattern?5data?1ex@
CONST	SEGMENT
??_C@_0DA@ENKJFBDG@Found?5forbidden?5pattern?5data?1ex@ DB 'Found forbidd'
	DB	'en pattern data/except//attribute', 0aH, 00H ; `string'
CONST	ENDS
;	COMDAT ??_C@_0DK@NGAGBKIF@Found?5forbidden?5pattern?5oneOrMo@
CONST	SEGMENT
??_C@_0DK@NGAGBKIF@Found?5forbidden?5pattern?5oneOrMo@ DB 'Found forbidde'
	DB	'n pattern oneOrMore//interleave//attribute', 0aH, 00H ; `string'
CONST	ENDS
;	COMDAT ??_C@_0DF@EKCKBFFE@Found?5forbidden?5pattern?5oneOrMo@
CONST	SEGMENT
??_C@_0DF@EKCKBFFE@Found?5forbidden?5pattern?5oneOrMo@ DB 'Found forbidde'
	DB	'n pattern oneOrMore//group//attribute', 0aH, 00H ; `string'
CONST	ENDS
;	COMDAT ??_C@_0CJ@MJOFOIHP@Found?5forbidden?5pattern?5list?1?1a@
CONST	SEGMENT
??_C@_0CJ@MJOFOIHP@Found?5forbidden?5pattern?5list?1?1a@ DB 'Found forbid'
	DB	'den pattern list//attribute', 0aH, 00H	; `string'
CONST	ENDS
;	COMDAT ??_C@_0CO@INMFBEHE@Found?5forbidden?5pattern?5attribu@
CONST	SEGMENT
??_C@_0CO@INMFBEHE@Found?5forbidden?5pattern?5attribu@ DB 'Found forbidde'
	DB	'n pattern attribute//attribute', 0aH, 00H	; `string'
CONST	ENDS
;	COMDAT ??_C@_0CF@DGIEHIGM@Element?5?$CFs?5has?5a?5content?5type?5e@
CONST	SEGMENT
??_C@_0CF@DGIEHIGM@Element?5?$CFs?5has?5a?5content?5type?5e@ DB 'Element '
	DB	'%s has a content type error', 0aH, 00H	; `string'
CONST	ENDS
;	COMDAT ??_C@_0DB@COIJMLBL@Element?5?$CFs?5attributes?5have?5a?5co@
CONST	SEGMENT
??_C@_0DB@COIJMLBL@Element?5?$CFs?5attributes?5have?5a?5co@ DB 'Element %'
	DB	's attributes have a content type error', 0aH, 00H ; `string'
CONST	ENDS
;	COMDAT ??_C@_0DB@MJBLDFBL@Found?5forbidden?5pattern?5attribu@
CONST	SEGMENT
??_C@_0DB@MJBLDFBL@Found?5forbidden?5pattern?5attribu@ DB 'Found forbidde'
	DB	'n pattern attribute//element(ref)', 0aH, 00H ; `string'
CONST	ENDS
;	COMDAT ??_C@_0CM@EGCJFEMH@Found?5forbidden?5pattern?5list?1?1e@
CONST	SEGMENT
??_C@_0CM@EGCJFEMH@Found?5forbidden?5pattern?5list?1?1e@ DB 'Found forbid'
	DB	'den pattern list//element(ref)', 0aH, 00H	; `string'
CONST	ENDS
;	COMDAT ??_C@_0DD@HDAPPKEG@Found?5forbidden?5pattern?5data?1ex@
CONST	SEGMENT
??_C@_0DD@HDAPPKEG@Found?5forbidden?5pattern?5data?1ex@ DB 'Found forbidd'
	DB	'en pattern data/except//element(ref)', 0aH, 00H ; `string'
CONST	ENDS
;	COMDAT ??_C@_0CF@GFDJFDLL@Internal?5found?5no?5define?5for?5re@
CONST	SEGMENT
??_C@_0CF@GFDJFDLL@Internal?5found?5no?5define?5for?5re@ DB 'Internal fou'
	DB	'nd no define for ref %s', 0aH, 00H		; `string'
CONST	ENDS
;	COMDAT ??_C@_04MLLLIHIP@null@
CONST	SEGMENT
??_C@_04MLLLIHIP@null@ DB 'null', 00H			; `string'
CONST	ENDS
;	COMDAT ??_C@_0CK@BAJLBNJH@Internal?5found?5no?5define?5for?5pa@
CONST	SEGMENT
??_C@_0CK@BAJLBNJH@Internal?5found?5no?5define?5for?5pa@ DB 'Internal fou'
	DB	'nd no define for parent refs', 0aH, 00H	; `string'
CONST	ENDS
;	COMDAT ??_C@_0CK@JHAPLGCC@Found?5forbidden?5pattern?5data?1ex@
CONST	SEGMENT
??_C@_0CK@JHAPLGCC@Found?5forbidden?5pattern?5data?1ex@ DB 'Found forbidd'
	DB	'en pattern data/except//ref', 0aH, 00H	; `string'
CONST	ENDS
;	COMDAT ??_C@_0CD@GDGLIOPD@Detected?5a?5cycle?5in?5?$CFs?5referenc@
CONST	SEGMENT
??_C@_0CD@GDGLIOPD@Detected?5a?5cycle?5in?5?$CFs?5referenc@ DB 'Detected '
	DB	'a cycle in %s references', 0aH, 00H		; `string'
CONST	ENDS
;	COMDAT ??_C@_0DB@FEIAJIL@Some?5?$DMstart?$DO?5element?5miss?5the?5c@
CONST	SEGMENT
??_C@_0DB@FEIAJIL@Some?5?$DMstart?$DO?5element?5miss?5the?5c@ DB 'Some <s'
	DB	'tart> element miss the combine attribute', 0aH, 00H ; `string'
CONST	ENDS
;	COMDAT ??_C@_0CK@DGGLNMFN@?$DMstart?$DO?5uses?5unknown?5combine?5va@
CONST	SEGMENT
??_C@_0CK@DGGLNMFN@?$DMstart?$DO?5uses?5unknown?5combine?5va@ DB '<start>'
	DB	' uses unknown combine value ''%s''''', 0aH, 00H ; `string'
CONST	ENDS
;	COMDAT ??_C@_0CM@KNKPDGOJ@?$DMstart?$DO?5use?5both?5?8choice?8?5and?5?8@
CONST	SEGMENT
??_C@_0CM@KNKPDGOJ@?$DMstart?$DO?5use?5both?5?8choice?8?5and?5?8@ DB '<st'
	DB	'art> use both ''choice'' and ''interleave''', 0aH, 00H ; `string'
CONST	ENDS
;	COMDAT ??_C@_0CJ@EGDAKNFC@Internal?5error?3?5start?5element?5n@
CONST	SEGMENT
??_C@_0CJ@EGDAKNFC@Internal?5error?3?5start?5element?5n@ DB 'Internal err'
	DB	'or: start element not found', 0aH, 00H	; `string'
CONST	ENDS
;	COMDAT ??_C@_0CJ@MHLGCECD@Failed?5to?5create?5interleaves?5ha@
CONST	SEGMENT
??_C@_0CJ@MHLGCECD@Failed?5to?5create?5interleaves?5ha@ DB 'Failed to cre'
	DB	'ate interleaves hash table', 0aH, 00H	; `string'
CONST	ENDS
;	COMDAT ??_C@_0DB@MHLFAPLB@Some?5defines?5for?5?$CFs?5needs?5the?5c@
CONST	SEGMENT
??_C@_0DB@MHLFAPLB@Some?5defines?5for?5?$CFs?5needs?5the?5c@ DB 'Some def'
	DB	'ines for %s needs the combine attribute', 0aH, 00H ; `string'
CONST	ENDS
;	COMDAT ??_C@_0DA@BFEPFJDA@Defines?5for?5?$CFs?5use?5unknown?5comb@
CONST	SEGMENT
??_C@_0DA@BFEPFJDA@Defines?5for?5?$CFs?5use?5unknown?5comb@ DB 'Defines f'
	DB	'or %s use unknown combine value ''%s''''', 0aH, 00H ; `string'
CONST	ENDS
;	COMDAT ??_C@_0DD@LACLCNBH@Defines?5for?5?$CFs?5use?5both?5?8choice@
CONST	SEGMENT
??_C@_0DD@LACLCNBH@Defines?5for?5?$CFs?5use?5both?5?8choice@ DB 'Defines '
	DB	'for %s use both ''choice'' and ''interleave''', 0aH, 00H ; `string'
CONST	ENDS
;	COMDAT ??_C@_07PCDCECCK@combine@
CONST	SEGMENT
??_C@_07PCDCECCK@combine@ DB 'combine', 00H		; `string'
CONST	ENDS
;	COMDAT ??_C@_0CJ@POOAHNP@Reference?5?$CFs?5has?5no?5matching?5de@
CONST	SEGMENT
??_C@_0CJ@POOAHNP@Reference?5?$CFs?5has?5no?5matching?5de@ DB 'Reference '
	DB	'%s has no matching definition', 0aH, 00H	; `string'
CONST	ENDS
;	COMDAT ??_C@_0DM@EAGPADBI@Internal?5error?3?5reference?5has?5c@
CONST	SEGMENT
??_C@_0DM@EAGPADBI@Internal?5error?3?5reference?5has?5c@ DB 'Internal err'
	DB	'or: reference has content in CheckReference %s', 0aH, 00H ; `string'
CONST	ENDS
;	COMDAT ??_C@_0DB@CFGFLOFC@Internal?5error?3?5no?5grammar?5in?5C@
CONST	SEGMENT
??_C@_0DB@CFGFLOFC@Internal?5error?3?5no?5grammar?5in?5C@ DB 'Internal er'
	DB	'ror: no grammar in CheckReference %s', 0aH, 00H ; `string'
CONST	ENDS
;	COMDAT ??_C@_0CB@DOHNNNEN@grammar?5has?5unexpected?5child?5?$CFs@
CONST	SEGMENT
??_C@_0CB@DOHNNNEN@grammar?5has?5unexpected?5child?5?$CFs@ DB 'grammar ha'
	DB	's unexpected child %s', 0aH, 00H		; `string'
CONST	ENDS
;	COMDAT ??_C@_0BJ@FLPPFCBJ@grammar?5has?5no?5children?6@
CONST	SEGMENT
??_C@_0BJ@FLPPFCBJ@grammar?5has?5no?5children?6@ DB 'grammar has no child'
	DB	'ren', 0aH, 00H				; `string'
CONST	ENDS
;	COMDAT ??_C@_0BO@LLNPKKPG@start?5more?5than?5one?5children?6@
CONST	SEGMENT
??_C@_0BO@LLNPKKPG@start?5more?5than?5one?5children?6@ DB 'start more tha'
	DB	'n one children', 0aH, 00H			; `string'
CONST	ENDS
;	COMDAT ??_C@_0CB@CILNEPNL@element?5notAllowed?5is?5not?5empty@
CONST	SEGMENT
??_C@_0CB@CILNEPNL@element?5notAllowed?5is?5not?5empty@ DB 'element notAl'
	DB	'lowed is not empty', 0aH, 00H		; `string'
CONST	ENDS
;	COMDAT ??_C@_0BM@NFEKGCB@element?5empty?5is?5not?5empty?6@
CONST	SEGMENT
??_C@_0BM@NFEKGCB@element?5empty?5is?5not?5empty?6@ DB 'element empty is '
	DB	'not empty', 0aH, 00H			; `string'
CONST	ENDS
;	COMDAT ??_C@_0BH@HFFJFLLH@start?5has?5no?5children?6@
CONST	SEGMENT
??_C@_0BH@HFFJFLLH@start?5has?5no?5children?6@ DB 'start has no children', 0aH
	DB	00H						; `string'
CONST	ENDS
;	COMDAT ??_C@_0CL@MLMNOJNJ@RNG?5Internal?5error?0?5noop?5found?5@
CONST	SEGMENT
??_C@_0CL@MLMNOJNJ@RNG?5Internal?5error?0?5noop?5found?5@ DB 'RNG Interna'
	DB	'l error, noop found in element', 0aH, 00H	; `string'
CONST	ENDS
;	COMDAT ??_C@_0CN@HLONCHKK@RNG?5Internal?5error?0?5except?5foun@
CONST	SEGMENT
??_C@_0CN@HLONCHKK@RNG?5Internal?5error?0?5except?5foun@ DB 'RNG Internal'
	DB	' error, except found in element', 0aH, 00H	; `string'
CONST	ENDS
;	COMDAT ??_C@_0CM@LPIDEEPC@RNG?5Internal?5error?0?5param?5found@
CONST	SEGMENT
??_C@_0CM@LPIDEEPC@RNG?5Internal?5error?0?5param?5found@ DB 'RNG Internal'
	DB	' error, param found in element', 0aH, 00H	; `string'
CONST	ENDS
;	COMDAT ??_C@_0CM@MFMPBBAO@RNG?5Internal?5error?0?5start?5found@
CONST	SEGMENT
??_C@_0CM@MFMPBBAO@RNG?5Internal?5error?0?5start?5found@ DB 'RNG Internal'
	DB	' error, start found in element', 0aH, 00H	; `string'
CONST	ENDS
;	COMDAT ??_C@_0DA@IDPILCIF@xmlRelaxNGParseElement?3?5element@
CONST	SEGMENT
??_C@_0DA@IDPILCIF@xmlRelaxNGParseElement?3?5element@ DB 'xmlRelaxNGParse'
	DB	'Element: element has no content', 0aH, 00H	; `string'
CONST	ENDS
;	COMDAT ??_C@_0DB@JEBMCLMO@xmlRelaxNGParseElement?3?5element@
CONST	SEGMENT
??_C@_0DB@JEBMCLMO@xmlRelaxNGParseElement?3?5element@ DB 'xmlRelaxNGParse'
	DB	'Element: element has no children', 0aH, 00H	; `string'
CONST	ENDS
;	COMDAT ??_C@_0DE@HGEBBBBP@expecting?5name?0?5anyName?0?5nsName@
CONST	SEGMENT
??_C@_0DE@HGEBBBBP@expecting?5name?0?5anyName?0?5nsName@ DB 'expecting na'
	DB	'me, anyName, nsName or choice : got %s', 0aH, 00H ; `string'
CONST	ENDS
;	COMDAT ??_C@_07DFGIHOIL@nothing@
CONST	SEGMENT
??_C@_07DFGIHOIL@nothing@ DB 'nothing', 00H		; `string'
CONST	ENDS
;	COMDAT ??_C@_0BJ@LPGNADIK@Element?5choice?5is?5empty?6@
CONST	SEGMENT
??_C@_0BJ@LPGNADIK@Element?5choice?5is?5empty?6@ DB 'Element choice is em'
	DB	'pty', 0aH, 00H				; `string'
CONST	ENDS
;	COMDAT ??_C@_0BM@OBCEAFCO@nsName?5has?5no?5ns?5attribute?6@
CONST	SEGMENT
??_C@_0BM@OBCEAFCO@nsName?5has?5no?5ns?5attribute?6@ DB 'nsName has no ns'
	DB	' attribute', 0aH, 00H			; `string'
CONST	ENDS
;	COMDAT ??_C@_0CN@HLKDALFC@Attribute?5with?5QName?5?8xmlns?8?5is@
CONST	SEGMENT
??_C@_0CN@HLKDALFC@Attribute?5with?5QName?5?8xmlns?8?5is@ DB 'Attribute w'
	DB	'ith QName ''xmlns'' is not allowed', 0aH, 00H ; `string'
CONST	ENDS
;	COMDAT ??_C@_05PPEFOGKI@xmlns@
CONST	SEGMENT
??_C@_05PPEFOGKI@xmlns@ DB 'xmlns', 00H			; `string'
CONST	ENDS
;	COMDAT ??_C@_0CO@HDKKBGMJ@Attribute?5with?5namespace?5?8?$CFs?8?5i@
CONST	SEGMENT
??_C@_0CO@HDKKBGMJ@Attribute?5with?5namespace?5?8?$CFs?8?5i@ DB 'Attribut'
	DB	'e with namespace ''%s'' is not allowed', 0aH, 00H ; `string'
CONST	ENDS
;	COMDAT ??_C@_0BN@FIBBGPIH@http?3?1?1www?4w3?4org?12000?1xmlns@
CONST	SEGMENT
??_C@_0BN@FIBBGPIH@http?3?1?1www?4w3?4org?12000?1xmlns@ DB 'http://www.w3'
	DB	'.org/2000/xmlns', 00H			; `string'
CONST	ENDS
;	COMDAT ??_C@_0BM@EMBMPALF@name?5?8?$CFs?8?5is?5not?5an?5NCName?6@
CONST	SEGMENT
??_C@_0BM@EMBMPALF@name?5?8?$CFs?8?5is?5not?5an?5NCName?6@ DB 'name ''%s'''
	DB	' is not an NCName', 0aH, 00H		; `string'
CONST	ENDS
;	COMDAT ??_C@_0CH@CJKCJPCE@Element?5?$CFs?5name?5?8?$CFs?8?5is?5not?5an?5@
CONST	SEGMENT
??_C@_0CH@CJKCJPCE@Element?5?$CFs?5name?5?8?$CFs?8?5is?5not?5an?5@ DB 'El'
	DB	'ement %s name ''%s'' is not an NCName', 0aH, 00H ; `string'
CONST	ENDS
;	COMDAT ??_C@_06IHANJIJ@nsName@
CONST	SEGMENT
??_C@_06IHANJIJ@nsName@ DB 'nsName', 00H		; `string'
CONST	ENDS
;	COMDAT ??_C@_07ENOEFKNN@anyName@
CONST	SEGMENT
??_C@_07ENOEFKNN@anyName@ DB 'anyName', 00H		; `string'
CONST	ENDS
;	COMDAT ??_C@_0DC@LBJNBDAD@exceptNameClass?5allows?5only?5a?5s@
CONST	SEGMENT
??_C@_0DC@LBJNBDAD@exceptNameClass?5allows?5only?5a?5s@ DB 'exceptNameCla'
	DB	'ss allows only a single except node', 0aH, 00H ; `string'
CONST	ENDS
;	COMDAT ??_C@_0BK@FIOBKDGD@Expecting?5an?5except?5node?6@
CONST	SEGMENT
??_C@_0BK@FIOBKDGD@Expecting?5an?5except?5node?6@ DB 'Expecting an except'
	DB	' node', 0aH, 00H				; `string'
CONST	ENDS
;	COMDAT ??_C@_0CB@BOMNCDFG@attribute?5has?5multiple?5children@
CONST	SEGMENT
??_C@_0CB@BOMNCDFG@attribute?5has?5multiple?5children@ DB 'attribute has '
	DB	'multiple children', 0aH, 00H		; `string'
CONST	ENDS
;	COMDAT ??_C@_0CN@KBLNJNDN@RNG?5Internal?5error?0?5noop?5found?5@
CONST	SEGMENT
??_C@_0CN@KBLNJNDN@RNG?5Internal?5error?0?5noop?5found?5@ DB 'RNG Interna'
	DB	'l error, noop found in attribute', 0aH, 00H	; `string'
CONST	ENDS
;	COMDAT ??_C@_0BP@NPGIAHLH@attribute?5has?5invalid?5content?6@
CONST	SEGMENT
??_C@_0BP@NPGIAHLH@attribute?5has?5invalid?5content?6@ DB 'attribute has '
	DB	'invalid content', 0aH, 00H			; `string'
CONST	ENDS
;	COMDAT ??_C@_0DF@EOBONIDO@xmlRelaxNGParseattribute?3?5attri@
CONST	SEGMENT
??_C@_0DF@EOBONIDO@xmlRelaxNGParseattribute?3?5attri@ DB 'xmlRelaxNGParse'
	DB	'attribute: attribute has no children', 0aH, 00H ; `string'
CONST	ENDS
;	COMDAT ??_C@_0CF@JOIAOFAL@Unexpected?5node?5?$CFs?5is?5not?5a?5pat@
CONST	SEGMENT
??_C@_0CF@JOIAOFAL@Unexpected?5node?5?$CFs?5is?5not?5a?5pat@ DB 'Unexpect'
	DB	'ed node %s is not a pattern', 0aH, 00H	; `string'
CONST	ENDS
;	COMDAT ??_C@_0BA@KLBAOPHA@Mixed?5is?5empty?6@
CONST	SEGMENT
??_C@_0BA@KLBAOPHA@Mixed?5is?5empty?6@ DB 'Mixed is empty', 0aH, 00H ; `string'
CONST	ENDS
;	COMDAT ??_C@_05IPHDHIPP@mixed@
CONST	SEGMENT
??_C@_05IPHDHIPP@mixed@ DB 'mixed', 00H			; `string'
CONST	ENDS
;	COMDAT ??_C@_0CL@BEBEIBPH@Internal?5error?5parentRef?5defini@
CONST	SEGMENT
??_C@_0CL@BEBEIBPH@Internal?5error?5parentRef?5defini@ DB 'Internal error'
	DB	' parentRef definitions ''%s''', 0aH, 00H	; `string'
CONST	ENDS
;	COMDAT ??_C@_0BI@IFNGOHLC@parentRef?5is?5not?5empty?6@
CONST	SEGMENT
??_C@_0BI@IFNGOHLC@parentRef?5is?5not?5empty?6@ DB 'parentRef is not empt'
	DB	'y', 0aH, 00H				; `string'
CONST	ENDS
;	COMDAT ??_C@_0CG@HCJCFDNF@parentRef?5name?5?8?$CFs?8?5is?5not?5an?5N@
CONST	SEGMENT
??_C@_0CG@HCJCFDNF@parentRef?5name?5?8?$CFs?8?5is?5not?5an?5N@ DB 'parent'
	DB	'Ref name ''%s'' is not an NCName', 0aH, 00H	; `string'
CONST	ENDS
;	COMDAT ??_C@_0BH@CNIAONFA@parentRef?5has?5no?5name?6@
CONST	SEGMENT
??_C@_0BH@CNIAONFA@parentRef?5has?5no?5name?6@ DB 'parentRef has no name', 0aH
	DB	00H						; `string'
CONST	ENDS
;	COMDAT ??_C@_0CL@EGBMGFAB@Use?5of?5parentRef?5without?5a?5pare@
CONST	SEGMENT
??_C@_0CL@EGBMGFAB@Use?5of?5parentRef?5without?5a?5pare@ DB 'Use of paren'
	DB	'tRef without a parent grammar', 0aH, 00H	; `string'
CONST	ENDS
;	COMDAT ??_C@_0DC@MEMHAAID@xmlRelaxNGParse?3?5notAllowed?5ele@
CONST	SEGMENT
??_C@_0DC@MEMHAAID@xmlRelaxNGParse?3?5notAllowed?5ele@ DB 'xmlRelaxNGPars'
	DB	'e: notAllowed element is not empty', 0aH, 00H ; `string'
CONST	ENDS
;	COMDAT ??_C@_0BC@KLFBBEAG@ref?5is?5not?5empty?6@
CONST	SEGMENT
??_C@_0BC@KLFBBEAG@ref?5is?5not?5empty?6@ DB 'ref is not empty', 0aH, 00H ; `string'
CONST	ENDS
;	COMDAT ??_C@_0CA@CEHKGAHL@ref?5name?5?8?$CFs?8?5is?5not?5an?5NCName?6@
CONST	SEGMENT
??_C@_0CA@CEHKGAHL@ref?5name?5?8?$CFs?8?5is?5not?5an?5NCName?6@ DB 'ref n'
	DB	'ame ''%s'' is not an NCName', 0aH, 00H	; `string'
CONST	ENDS
;	COMDAT ??_C@_0BB@BOHONICN@ref?5has?5no?5name?6@
CONST	SEGMENT
??_C@_0BB@BOHONICN@ref?5has?5no?5name?6@ DB 'ref has no name', 0aH, 00H ; `string'
CONST	ENDS
;	COMDAT ??_C@_0BF@BCLGKPIM@Element?5?$CFs?5is?5empty?6@
CONST	SEGMENT
??_C@_0BF@BCLGKPIM@Element?5?$CFs?5is?5empty?6@ DB 'Element %s is empty', 0aH
	DB	00H						; `string'
CONST	ENDS
;	COMDAT ??_C@_0BI@LOCKCMHG@text?3?5had?5a?5child?5node?6@
CONST	SEGMENT
??_C@_0BI@LOCKCMHG@text?3?5had?5a?5child?5node?6@ DB 'text: had a child n'
	DB	'ode', 0aH, 00H				; `string'
CONST	ENDS
;	COMDAT ??_C@_0BJ@FKDMDHPF@empty?3?5had?5a?5child?5node?6@
CONST	SEGMENT
??_C@_0BJ@FKDMDHPF@empty?3?5had?5a?5child?5node?6@ DB 'empty: had a child'
	DB	' node', 0aH, 00H				; `string'
CONST	ENDS
;	COMDAT ??_C@_0BO@JMOIDLLM@xmlRelaxNGParse?3?5?$CFs?5is?5empty?6@
CONST	SEGMENT
??_C@_0BO@JMOIDLLM@xmlRelaxNGParse?3?5?$CFs?5is?5empty?6@ DB 'xmlRelaxNGP'
	DB	'arse: %s is empty', 0aH, 00H		; `string'
CONST	ENDS
;	COMDAT ??_C@_0CC@NOKALBCN@Could?5not?5create?5references?5has@
CONST	SEGMENT
??_C@_0CC@NOKALBCN@Could?5not?5create?5references?5has@ DB 'Could not cre'
	DB	'ate references hash', 0aH, 00H		; `string'
CONST	ENDS
;	COMDAT ??_C@_0BI@KAJIFPGI@Error?5refs?5definitions?6@
CONST	SEGMENT
??_C@_0BI@KAJIFPGI@Error?5refs?5definitions?6@ DB 'Error refs definitions'
	DB	0aH, 00H					; `string'
CONST	ENDS
;	COMDAT ??_C@_0BN@KBAJDCGM@Error?5refs?5definitions?5?8?$CFs?8?6@
CONST	SEGMENT
??_C@_0BN@KBAJDCGM@Error?5refs?5definitions?5?8?$CFs?8?6@ DB 'Error refs '
	DB	'definitions ''%s''', 0aH, 00H		; `string'
CONST	ENDS
;	COMDAT ??_C@_0CM@PJMCGFMO@Internal?5error?5on?5define?5aggreg@
CONST	SEGMENT
??_C@_0CM@PJMCGFMO@Internal?5error?5on?5define?5aggreg@ DB 'Internal erro'
	DB	'r on define aggregation of %s', 0aH, 00H	; `string'
CONST	ENDS
;	COMDAT ??_C@_0CC@EGGMPODH@Could?5not?5create?5definition?5has@
CONST	SEGMENT
??_C@_0CC@EGGMPODH@Could?5not?5create?5definition?5has@ DB 'Could not cre'
	DB	'ate definition hash', 0aH, 00H		; `string'
CONST	ENDS
;	COMDAT ??_C@_0BI@KMIJHMFO@define?5has?5no?5children?6@
CONST	SEGMENT
??_C@_0BI@KMIJHMFO@define?5has?5no?5children?6@ DB 'define has no childre'
	DB	'n', 0aH, 00H				; `string'
CONST	ENDS
;	COMDAT ??_C@_0CD@LEKDIHDI@define?5name?5?8?$CFs?8?5is?5not?5an?5NCNa@
CONST	SEGMENT
??_C@_0CD@LEKDIHDI@define?5name?5?8?$CFs?8?5is?5not?5an?5NCNa@ DB 'define'
	DB	' name ''%s'' is not an NCName', 0aH, 00H	; `string'
CONST	ENDS
;	COMDAT ??_C@_0BE@OMGBAGKJ@define?5has?5no?5name?6@
CONST	SEGMENT
??_C@_0BE@OMGBAGKJ@define?5has?5no?5name?6@ DB 'define has no name', 0aH, 00H ; `string'
CONST	ENDS
;	COMDAT ??_C@_0CI@GFEIPOEG@Include?5document?5root?5is?5not?5a?5@
CONST	SEGMENT
??_C@_0CI@GFEIPOEG@Include?5document?5root?5is?5not?5a?5@ DB 'Include doc'
	DB	'ument root is not a grammar', 0aH, 00H	; `string'
CONST	ENDS
;	COMDAT ??_C@_0BL@NJFOGBOE@Include?5document?5is?5empty?6@
CONST	SEGMENT
??_C@_0BL@NJFOGBOE@Include?5document?5is?5empty?6@ DB 'Include document i'
	DB	's empty', 0aH, 00H				; `string'
CONST	ENDS
;	COMDAT ??_C@_0BK@PJHELFJE@Include?5node?5has?5no?5data?6@
CONST	SEGMENT
??_C@_0BK@PJHELFJE@Include?5node?5has?5no?5data?6@ DB 'Include node has n'
	DB	'o data', 0aH, 00H				; `string'
CONST	ENDS
;	COMDAT ??_C@_0BN@JGOKJKPH@Element?5interleave?5is?5empty?6@
CONST	SEGMENT
??_C@_0BN@JGOKJKPH@Element?5interleave?5is?5empty?6@ DB 'Element interlea'
	DB	've is empty', 0aH, 00H			; `string'
CONST	ENDS
;	COMDAT ??_C@_0CA@BLFIOJCN@Failed?5to?5add?5?$CFs?5to?5hash?5table?6@
CONST	SEGMENT
??_C@_0CA@BLFIOJCN@Failed?5to?5add?5?$CFs?5to?5hash?5table?6@ DB 'Failed '
	DB	'to add %s to hash table', 0aH, 00H		; `string'
CONST	ENDS
;	COMDAT ??_C@_0N@MHPBOBHE@interleave?$CFd@
CONST	SEGMENT
??_C@_0N@MHPBOBHE@interleave?$CFd@ DB 'interleave%d', 00H ; `string'
CONST	ENDS
;	COMDAT ??_C@_0BE@JIDAHLJE@create?5interleaves?6@
CONST	SEGMENT
??_C@_0BE@JIDAHLJE@create?5interleaves?6@ DB 'create interleaves', 0aH, 00H ; `string'
CONST	ENDS
;	COMDAT ??_C@_0BL@FDJODHDJ@in?5interleave?5computation?6@
CONST	SEGMENT
??_C@_0BL@FDJODHDJ@in?5interleave?5computation?6@ DB 'in interleave compu'
	DB	'tation', 0aH, 00H				; `string'
CONST	ENDS
;	COMDAT ??_C@_0CE@PJGIOECJ@Attributes?5conflicts?5in?5interle@
CONST	SEGMENT
??_C@_0CE@PJGIOECJ@Attributes?5conflicts?5in?5interle@ DB 'Attributes con'
	DB	'flicts in interleave', 0aH, 00H		; `string'
CONST	ENDS
;	COMDAT ??_C@_0CJ@CIKEPODC@Element?5or?5text?5conflicts?5in?5in@
CONST	SEGMENT
??_C@_0CJ@CIKEPODC@Element?5or?5text?5conflicts?5in?5in@ DB 'Element or t'
	DB	'ext conflicts in interleave', 0aH, 00H	; `string'
CONST	ENDS
;	COMDAT ??_C@_0BP@PNPCONEA@Attributes?5conflicts?5in?5group?6@
CONST	SEGMENT
??_C@_0BP@PNPCONEA@Attributes?5conflicts?5in?5group?6@ DB 'Attributes con'
	DB	'flicts in group', 0aH, 00H			; `string'
CONST	ENDS
;	COMDAT ??_C@_0BA@MBENMANO@building?5group?6@
CONST	SEGMENT
??_C@_0BA@MBENMANO@building?5group?6@ DB 'building group', 0aH, 00H ; `string'
CONST	ENDS
;	COMDAT ??_C@_04IAJCOJMF@?$CDany@
CONST	SEGMENT
??_C@_04IAJCOJMF@?$CDany@ DB '#any', 00H		; `string'
CONST	ENDS
;	COMDAT ??_C@_0BB@HIJGJJAM@building?5choice?6@
CONST	SEGMENT
??_C@_0BB@HIJGJJAM@building?5choice?6@ DB 'building choice', 0aH, 00H ; `string'
CONST	ENDS
;	COMDAT ??_C@_0BG@CHOOIKPA@getting?5element?5list?6@
CONST	SEGMENT
??_C@_0BG@CHOOIKPA@getting?5element?5list?6@ DB 'getting element list', 0aH
	DB	00H						; `string'
CONST	ENDS
;	COMDAT ??_C@_0BO@MDEMDPPE@Unimplemented?5block?5at?5?$CFs?3?$CFd?6@
CONST	SEGMENT
??_C@_0BO@MDEMDPPE@Unimplemented?5block?5at?5?$CFs?3?$CFd?6@ DB 'Unimplem'
	DB	'ented block at %s:%d', 0aH, 00H		; `string'
CONST	ENDS
;	COMDAT ??_C@_0GJ@NFABHKPN@c?3?2users?2dag?2documents?2_clients@
CONST	SEGMENT
??_C@_0GJ@NFABHKPN@c?3?2users?2dag?2documents?2_clients@ DB 'c:\users\dag'
	DB	'\documents\_clients\codeproject authors group\windows on arm\'
	DB	'libxml2\libxml2-2.9.9\relaxng.c', 00H	; `string'
CONST	ENDS
;	COMDAT ??_C@_0CI@PINMOFEF@Element?5data?5has?5unexpected?5con@
CONST	SEGMENT
??_C@_0CI@PINMOFEF@Element?5data?5has?5unexpected?5con@ DB 'Element data '
	DB	'has unexpected content %s', 0aH, 00H	; `string'
CONST	ENDS
;	COMDAT ??_C@_0BH@BGPIOKNJ@except?5has?5no?5content?6@
CONST	SEGMENT
??_C@_0BH@BGPIOKNJ@except?5has?5no?5content?6@ DB 'except has no content', 0aH
	DB	00H						; `string'
CONST	ENDS
;	COMDAT ??_C@_0BD@HHALNFAB@param?5has?5no?5name?6@
CONST	SEGMENT
??_C@_0BD@HHALNFAB@param?5has?5no?5name?6@ DB 'param has no name', 0aH, 00H ; `string'
CONST	ENDS
;	COMDAT ??_C@_0DC@MKALBABO@Type?5library?5?8?$CFs?8?5does?5not?5allo@
CONST	SEGMENT
??_C@_0DC@MKALBABO@Type?5library?5?8?$CFs?8?5does?5not?5allo@ DB 'Type li'
	DB	'brary ''%s'' does not allow type parameters', 0aH, 00H ; `string'
CONST	ENDS
;	COMDAT ??_C@_06CMFBJDBA@IDREFS@
CONST	SEGMENT
??_C@_06CMFBJDBA@IDREFS@ DB 'IDREFS', 00H		; `string'
CONST	ENDS
;	COMDAT ??_C@_05HKGPJLPA@IDREF@
CONST	SEGMENT
??_C@_05HKGPJLPA@IDREF@ DB 'IDREF', 00H			; `string'
CONST	ENDS
;	COMDAT ??_C@_0CB@BPINBNAH@data?5type?5?8?$CFs?8?5is?5not?5an?5NCName@
CONST	SEGMENT
??_C@_0CB@BPINBNAH@data?5type?5?8?$CFs?8?5is?5not?5an?5NCName@ DB 'data t'
	DB	'ype ''%s'' is not an NCName', 0aH, 00H	; `string'
CONST	ENDS
;	COMDAT ??_C@_0BC@JLMCOJJL@data?5has?5no?5type?6@
CONST	SEGMENT
??_C@_0BC@JLMCOJJL@data?5has?5no?5type?6@ DB 'data has no type', 0aH, 00H ; `string'
CONST	ENDS
;	COMDAT ??_C@_0CM@DOBLDJBI@Value?5?8?$CFs?8?5is?5not?5acceptable?5fo@
CONST	SEGMENT
??_C@_0CM@DOBLDJBI@Value?5?8?$CFs?8?5is?5not?5acceptable?5fo@ DB 'Value '''
	DB	'%s'' is not acceptable for type ''%s''', 0aH, 00H ; `string'
CONST	ENDS
;	COMDAT ??_C@_0CA@OGDHDPEE@Element?5?$DMvalue?$DO?5has?5no?5content?6@
CONST	SEGMENT
??_C@_0CA@OGDHDPEE@Element?5?$DMvalue?$DO?5has?5no?5content?6@ DB 'Elemen'
	DB	't <value> has no content', 0aH, 00H		; `string'
CONST	ENDS
;	COMDAT ??_C@_0DC@DOAINIPC@Expecting?5a?5single?5text?5value?5f@
CONST	SEGMENT
??_C@_0DC@DOAINIPC@Expecting?5a?5single?5text?5value?5f@ DB 'Expecting a '
	DB	'single text value for <value>content', 0aH, 00H ; `string'
CONST	ENDS
;	COMDAT ??_C@_0DG@BCJPPODI@Error?5type?5?8?$CFs?8?5is?5not?5exported@
CONST	SEGMENT
??_C@_0DG@BCJPPODI@Error?5type?5?8?$CFs?8?5is?5not?5exported@ DB 'Error t'
	DB	'ype ''%s'' is not exported by type library ''%s''', 0aH, 00H ; `string'
CONST	ENDS
;	COMDAT ??_C@_0DC@GFLCPBDN@Internal?5error?5with?5type?5librar@
CONST	SEGMENT
??_C@_0DC@GFLCPBDN@Internal?5error?5with?5type?5librar@ DB 'Internal erro'
	DB	'r with type library ''%s'': no ''have''', 0aH, 00H ; `string'
CONST	ENDS
;	COMDAT ??_C@_0CH@BAFMNDJC@Use?5of?5unregistered?5type?5librar@
CONST	SEGMENT
??_C@_0CH@BAFMNDJC@Use?5of?5unregistered?5type?5librar@ DB 'Use of unregi'
	DB	'stered type library ''%s''', 0aH, 00H	; `string'
CONST	ENDS
;	COMDAT ??_C@_0CC@HGJHHNGH@value?5type?5?8?$CFs?8?5is?5not?5an?5NCNam@
CONST	SEGMENT
??_C@_0CC@HGJHHNGH@value?5type?5?8?$CFs?8?5is?5not?5an?5NCNam@ DB 'value '
	DB	'type ''%s'' is not an NCName', 0aH, 00H	; `string'
CONST	ENDS
;	COMDAT ??_C@_04GPMDFGEJ@type@
CONST	SEGMENT
??_C@_04GPMDFGEJ@type@ DB 'type', 00H			; `string'
CONST	ENDS
;	COMDAT ??_C@_04EIMIMFCI@?3?1?$CD?$DP@
CONST	SEGMENT
??_C@_04EIMIMFCI@?3?1?$CD?$DP@ DB ':/#?', 00H		; `string'
CONST	ENDS
;	COMDAT ??_C@_0BA@OLOJGOCH@datatypeLibrary@
CONST	SEGMENT
??_C@_0BA@OLOJGOCH@datatypeLibrary@ DB 'datatypeLibrary', 00H ; `string'
CONST	ENDS
;	COMDAT ??_C@_04PJOLNDGD@data@
CONST	SEGMENT
??_C@_04PJOLNDGD@data@ DB 'data', 00H			; `string'
CONST	ENDS
;	COMDAT ??_C@_0CJ@JOFHGKIK@RNG?5internal?5error?5trying?5to?5co@
CONST	SEGMENT
??_C@_0CJ@JOFHGKIK@RNG?5internal?5error?5trying?5to?5co@ DB 'RNG internal'
	DB	' error trying to compile %s', 0aH, 00H	; `string'
CONST	ENDS
;	COMDAT ??_C@_05NOBOONOA@?$CDtext@
CONST	SEGMENT
??_C@_05NOBOONOA@?$CDtext@ DB '#text', 00H		; `string'
CONST	ENDS
;	COMDAT ??_C@_0CL@MAOGIMDF@http?3?1?1www?4w3?4org?12001?1XMLSchem@
CONST	SEGMENT
??_C@_0CL@MAOGIMDF@http?3?1?1www?4w3?4org?12001?1XMLSchem@ DB 'http://www'
	DB	'.w3.org/2001/XMLSchema-datatypes', 00H	; `string'
CONST	ENDS
;	COMDAT ??_C@_0DA@BNBDCCII@Failed?5to?5allocate?5sh?5table?5for@
CONST	SEGMENT
??_C@_0DA@BNBDCCII@Failed?5to?5allocate?5sh?5table?5for@ DB 'Failed to al'
	DB	'locate sh table for Relax-NG types', 0aH, 00H ; `string'
CONST	ENDS
;	COMDAT ??_C@_0DA@DKNFFGLK@Relax?9NG?5types?5library?5failed?5t@
CONST	SEGMENT
??_C@_0DA@DKNFFGLK@Relax?9NG?5types?5library?5failed?5t@ DB 'Relax-NG typ'
	DB	'es library failed to register ''%s''', 0aH, 00H ; `string'
CONST	ENDS
;	COMDAT ??_C@_0BG@BMGNHHOA@adding?5types?5library?6@
CONST	SEGMENT
??_C@_0BG@BMGNHHOA@adding?5types?5library?6@ DB 'adding types library', 0aH
	DB	00H						; `string'
CONST	ENDS
;	COMDAT ??_C@_0DA@KBDGNEEG@Relax?9NG?5types?5library?5?8?$CFs?8?5alr@
CONST	SEGMENT
??_C@_0DA@KBDGNEEG@Relax?9NG?5types?5library?5?8?$CFs?8?5alr@ DB 'Relax-N'
	DB	'G types library ''%s'' already registered', 0aH, 00H ; `string'
CONST	ENDS
;	COMDAT ??_C@_05JMKJMOPH@token@
CONST	SEGMENT
??_C@_05JMKJMOPH@token@ DB 'token', 00H			; `string'
CONST	ENDS
;	COMDAT ??_C@_06ICGJLFIM@string@
CONST	SEGMENT
??_C@_06ICGJLFIM@string@ DB 'string', 00H		; `string'
CONST	ENDS
;	COMDAT ??_C@_09KIHADLGO@minLength@
CONST	SEGMENT
??_C@_09KIHADLGO@minLength@ DB 'minLength', 00H		; `string'
CONST	ENDS
;	COMDAT ??_C@_09KJHMKBNK@maxLength@
CONST	SEGMENT
??_C@_09KJHMKBNK@maxLength@ DB 'maxLength', 00H		; `string'
CONST	ENDS
;	COMDAT ??_C@_06IJDLPEM@length@
CONST	SEGMENT
??_C@_06IJDLPEM@length@ DB 'length', 00H		; `string'
CONST	ENDS
;	COMDAT ??_C@_0L@CCEMGGFL@whiteSpace@
CONST	SEGMENT
??_C@_0L@CCEMGGFL@whiteSpace@ DB 'whiteSpace', 00H	; `string'
CONST	ENDS
;	COMDAT ??_C@_0M@FJOIDAAJ@enumeration@
CONST	SEGMENT
??_C@_0M@FJOIDAAJ@enumeration@ DB 'enumeration', 00H	; `string'
CONST	ENDS
;	COMDAT ??_C@_07CHFOACKJ@pattern@
CONST	SEGMENT
??_C@_07CHFOACKJ@pattern@ DB 'pattern', 00H		; `string'
CONST	ENDS
;	COMDAT ??_C@_0P@EPJLKDGA@fractionDigits@
CONST	SEGMENT
??_C@_0P@EPJLKDGA@fractionDigits@ DB 'fractionDigits', 00H ; `string'
CONST	ENDS
;	COMDAT ??_C@_0M@PGNNBCIB@totalDigits@
CONST	SEGMENT
??_C@_0M@PGNNBCIB@totalDigits@ DB 'totalDigits', 00H	; `string'
CONST	ENDS
;	COMDAT ??_C@_0N@IEJNIJII@maxExclusive@
CONST	SEGMENT
??_C@_0N@IEJNIJII@maxExclusive@ DB 'maxExclusive', 00H	; `string'
CONST	ENDS
;	COMDAT ??_C@_0N@EBHLFCPN@maxInclusive@
CONST	SEGMENT
??_C@_0N@EBHLFCPN@maxInclusive@ DB 'maxInclusive', 00H	; `string'
CONST	ENDS
;	COMDAT ??_C@_0N@MENCPBPO@minExclusive@
CONST	SEGMENT
??_C@_0N@MENCPBPO@minExclusive@ DB 'minExclusive', 00H	; `string'
CONST	ENDS
;	COMDAT ??_C@_0N@BDECKIL@minInclusive@
CONST	SEGMENT
??_C@_0N@BDECKIL@minInclusive@ DB 'minInclusive', 00H	; `string'
CONST	ENDS
;	COMDAT ??_C@_0CB@PJCCKICC@http?3?1?1www?4w3?4org?12001?1XMLSchem@
CONST	SEGMENT
??_C@_0CB@PJCCKICC@http?3?1?1www?4w3?4org?12001?1XMLSchem@ DB 'http://www'
	DB	'.w3.org/2001/XMLSchema', 00H		; `string'
CONST	ENDS
;	COMDAT ??_C@_0BH@OAFIADK@Unknown?5error?5code?5?$CFd?6@
CONST	SEGMENT
??_C@_0BH@OAFIADK@Unknown?5error?5code?5?$CFd?6@ DB 'Unknown error code %'
	DB	'd', 0aH, 00H				; `string'
CONST	ENDS
;	COMDAT ??_C@_0BB@OENMHDGG@Unknown?5error?5?$CB?6@
CONST	SEGMENT
??_C@_0BB@OENMHDGG@Unknown?5error?5?$CB?6@ DB 'Unknown error !', 0aH, 00H ; `string'
CONST	ENDS
;	COMDAT ??_C@_0BM@HIGEPHGM@Extra?5data?5in?5the?5document?6@
CONST	SEGMENT
??_C@_0BM@HIGEPHGM@Extra?5data?5in?5the?5document?6@ DB 'Extra data in th'
	DB	'e document', 0aH, 00H			; `string'
CONST	ENDS
;	COMDAT ??_C@_0BI@LEPPKIJB@No?5top?5grammar?5defined?6@
CONST	SEGMENT
??_C@_0BI@LEPPKIJB@No?5top?5grammar?5defined?6@ DB 'No top grammar define'
	DB	'd', 0aH, 00H				; `string'
CONST	ENDS
;	COMDAT ??_C@_0BH@MNIEAPHM@Error?5validating?5list?6@
CONST	SEGMENT
??_C@_0BH@MNIEAPHM@Error?5validating?5list?6@ DB 'Error validating list', 0aH
	DB	00H						; `string'
CONST	ENDS
;	COMDAT ??_C@_0BL@BLOANDFF@Error?5validating?5value?5?$CFs?6@
CONST	SEGMENT
??_C@_0BL@BLOANDFF@Error?5validating?5value?5?$CFs?6@ DB 'Error validatin'
	DB	'g value %s', 0aH, 00H			; `string'
CONST	ENDS
;	COMDAT ??_C@_0BO@GLDGEAAK@Error?5validating?5datatype?5?$CFs?6@
CONST	SEGMENT
??_C@_0BO@GLDGEAAK@Error?5validating?5datatype?5?$CFs?6@ DB 'Error valida'
	DB	'ting datatype %s', 0aH, 00H			; `string'
CONST	ENDS
;	COMDAT ??_C@_0CE@LKJLECIM@List?5element?5?$CFs?5has?5child?5eleme@
CONST	SEGMENT
??_C@_0CE@LKJLECIM@List?5element?5?$CFs?5has?5child?5eleme@ DB 'List elem'
	DB	'ent %s has child elements', 0aH, 00H	; `string'
CONST	ENDS
;	COMDAT ??_C@_0CF@MGMBBHLP@Value?5element?5?$CFs?5has?5child?5elem@
CONST	SEGMENT
??_C@_0CF@MGMBBHLP@Value?5element?5?$CFs?5has?5child?5elem@ DB 'Value ele'
	DB	'ment %s has child elements', 0aH, 00H	; `string'
CONST	ENDS
;	COMDAT ??_C@_0CI@NMBBKCFB@Datatype?5element?5?$CFs?5has?5child?5e@
CONST	SEGMENT
??_C@_0CI@NMBBKCFB@Datatype?5element?5?$CFs?5has?5child?5e@ DB 'Datatype '
	DB	'element %s has child elements', 0aH, 00H	; `string'
CONST	ENDS
;	COMDAT ??_C@_0CG@FMKMGJKC@Datatype?5element?5?$CFs?5contains?5no@
CONST	SEGMENT
??_C@_0CG@FMKMGJKC@Datatype?5element?5?$CFs?5contains?5no@ DB 'Datatype e'
	DB	'lement %s contains no data', 0aH, 00H	; `string'
CONST	ENDS
;	COMDAT ??_C@_0CF@ECDDKCLG@Invalid?5attribute?5?$CFs?5for?5elemen@
CONST	SEGMENT
??_C@_0CF@ECDDKCLG@Invalid?5attribute?5?$CFs?5for?5elemen@ DB 'Invalid at'
	DB	'tribute %s for element %s', 0aH, 00H	; `string'
CONST	ENDS
;	COMDAT ??_C@_0CC@PHDGKAKM@Element?5?$CFs?5has?5extra?5content?3?5?$CF@
CONST	SEGMENT
??_C@_0CC@PHDGKAKM@Element?5?$CFs?5has?5extra?5content?3?5?$CF@ DB 'Eleme'
	DB	'nt %s has extra content: %s', 0aH, 00H	; `string'
CONST	ENDS
;	COMDAT ??_C@_0CH@HDDGPFIH@Element?5?$CFs?5failed?5to?5validate?5c@
CONST	SEGMENT
??_C@_0CH@HDDGPFIH@Element?5?$CFs?5failed?5to?5validate?5c@ DB 'Element %'
	DB	's failed to validate content', 0aH, 00H	; `string'
CONST	ENDS
;	COMDAT ??_C@_0CK@NNGAPDCO@Element?5?$CFs?5failed?5to?5validate?5a@
CONST	SEGMENT
??_C@_0CK@NNGAPDCO@Element?5?$CFs?5failed?5to?5validate?5a@ DB 'Element %'
	DB	's failed to validate attributes', 0aH, 00H	; `string'
CONST	ENDS
;	COMDAT ??_C@_0BP@PIOGJCNK@Expecting?5an?5element?5got?5text?6@
CONST	SEGMENT
??_C@_0BP@PIOGJCNK@Expecting?5an?5element?5got?5text?6@ DB 'Expecting an '
	DB	'element got text', 0aH, 00H			; `string'
CONST	ENDS
;	COMDAT ??_C@_0CG@GHEDPKLH@Expecting?5an?5element?5?$CFs?0?5got?5no@
CONST	SEGMENT
??_C@_0CG@GHEDPKLH@Expecting?5an?5element?5?$CFs?0?5got?5no@ DB 'Expectin'
	DB	'g an element %s, got nothing', 0aH, 00H	; `string'
CONST	ENDS
;	COMDAT ??_C@_0CC@DNABBFDN@Expecting?5element?5?$CFs?5to?5be?5empt@
CONST	SEGMENT
??_C@_0CC@DNABBFDN@Expecting?5element?5?$CFs?5to?5be?5empt@ DB 'Expecting'
	DB	' element %s to be empty', 0aH, 00H		; `string'
CONST	ENDS
;	COMDAT ??_C@_0CH@HAJGKJGA@Expecting?5no?5namespace?5for?5elem@
CONST	SEGMENT
??_C@_0CH@HAJGKJGA@Expecting?5no?5namespace?5for?5elem@ DB 'Expecting no '
	DB	'namespace for element %s', 0aH, 00H		; `string'
CONST	ENDS
;	COMDAT ??_C@_0CL@PJGOEKPA@Did?5not?5expect?5text?5in?5element?5@
CONST	SEGMENT
??_C@_0CL@PJGOEKPA@Did?5not?5expect?5text?5in?5element?5@ DB 'Did not exp'
	DB	'ect text in element %s content', 0aH, 00H	; `string'
CONST	ENDS
;	COMDAT ??_C@_0CB@PHEJHGKI@Did?5not?5expect?5element?5?$CFs?5there@
CONST	SEGMENT
??_C@_0CB@PHEJHGKI@Did?5not?5expect?5element?5?$CFs?5there@ DB 'Did not e'
	DB	'xpect element %s there', 0aH, 00H		; `string'
CONST	ENDS
;	COMDAT ??_C@_0CO@FJCKMMIH@Element?5?$CFs?5has?5wrong?5namespace?3@
CONST	SEGMENT
??_C@_0CO@FJCKMMIH@Element?5?$CFs?5has?5wrong?5namespace?3@ DB 'Element %'
	DB	's has wrong namespace: expecting %s', 0aH, 00H ; `string'
CONST	ENDS
;	COMDAT ??_C@_0CG@JOOKFIPP@Expecting?5a?5namespace?5for?5eleme@
CONST	SEGMENT
??_C@_0CG@JOOKFIPP@Expecting?5a?5namespace?5for?5eleme@ DB 'Expecting a n'
	DB	'amespace for element %s', 0aH, 00H		; `string'
CONST	ENDS
;	COMDAT ??_C@_0BO@IPFGDLDE@Expecting?5element?5?$CFs?0?5got?5?$CFs?6@
CONST	SEGMENT
??_C@_0BO@IPFGDLDE@Expecting?5element?5?$CFs?0?5got?5?$CFs?6@ DB 'Expecti'
	DB	'ng element %s, got %s', 0aH, 00H		; `string'
CONST	ENDS
;	COMDAT ??_C@_0CA@LHKGPAAK@Extra?5element?5?$CFs?5in?5interleave?6@
CONST	SEGMENT
??_C@_0CA@LHKGPAAK@Extra?5element?5?$CFs?5in?5interleave?6@ DB 'Extra ele'
	DB	'ment %s in interleave', 0aH, 00H		; `string'
CONST	ENDS
;	COMDAT ??_C@_0CA@EOAAMELI@Invalid?5sequence?5in?5interleave?6@
CONST	SEGMENT
??_C@_0CA@EOAAMELI@Invalid?5sequence?5in?5interleave?6@ DB 'Invalid seque'
	DB	'nce in interleave', 0aH, 00H		; `string'
CONST	ENDS
;	COMDAT ??_C@_0CI@IMJEPEGE@Internal?3?5interleave?5block?5has?5@
CONST	SEGMENT
??_C@_0CI@IMJEPEGE@Internal?3?5interleave?5block?5has?5@ DB 'Internal: in'
	DB	'terleave block has no data', 0aH, 00H	; `string'
CONST	ENDS
;	COMDAT ??_C@_0BI@DGHEOLEJ@Extra?5data?5in?5list?3?5?$CFs?6@
CONST	SEGMENT
??_C@_0BI@DGHEOLEJ@Extra?5data?5in?5list?3?5?$CFs?6@ DB 'Extra data in li'
	DB	'st: %s', 0aH, 00H				; `string'
CONST	ENDS
;	COMDAT ??_C@_0BE@MNPHNNMB@Internal?5error?3?5?$CFs?6@
CONST	SEGMENT
??_C@_0BE@MNPHNNMB@Internal?5error?3?5?$CFs?6@ DB 'Internal error: %s', 0aH
	DB	00H						; `string'
CONST	ENDS
;	COMDAT ??_C@_0BL@MNHHIDKB@Internal?5error?3?5no?5define?6@
CONST	SEGMENT
??_C@_0BL@MNHHIDKB@Internal?5error?3?5no?5define?6@ DB 'Internal error: n'
	DB	'o define', 0aH, 00H				; `string'
CONST	ENDS
;	COMDAT ??_C@_0BK@NEMAGDEO@Internal?5error?3?5no?5state?6@
CONST	SEGMENT
??_C@_0BK@NEMAGDEO@Internal?5error?3?5no?5state?6@ DB 'Internal error: no'
	DB	' state', 0aH, 00H				; `string'
CONST	ENDS
;	COMDAT ??_C@_0BL@NPBAOLP@failed?5to?5compare?5type?5?$CFs?6@
CONST	SEGMENT
??_C@_0BL@NPBAOLP@failed?5to?5compare?5type?5?$CFs?6@ DB 'failed to compa'
	DB	're type %s', 0aH, 00H			; `string'
CONST	ENDS
;	COMDAT ??_C@_0BB@HOPAIONI@ID?5?$CFs?5redefined?6@
CONST	SEGMENT
??_C@_0BB@HOPAIONI@ID?5?$CFs?5redefined?6@ DB 'ID %s redefined', 0aH, 00H ; `string'
CONST	ENDS
;	COMDAT ??_C@_0CC@KEMEBCBB@Type?5?$CFs?5doesn?8t?5allow?5value?5?8?$CFs@
CONST	SEGMENT
??_C@_0CC@KEMEBCBB@Type?5?$CFs?5doesn?8t?5allow?5value?5?8?$CFs@ DB 'Type'
	DB	' %s doesn''t allow value ''%s''', 0aH, 00H	; `string'
CONST	ENDS
;	COMDAT ??_C@_0BM@ECNPKFCP@failed?5to?5validate?5type?5?$CFs?6@
CONST	SEGMENT
??_C@_0BM@ECNPKFCP@failed?5to?5validate?5type?5?$CFs?6@ DB 'failed to val'
	DB	'idate type %s', 0aH, 00H			; `string'
CONST	ENDS
;	COMDAT ??_C@_0P@PCJPAHLM@out?5of?5memory?6@
CONST	SEGMENT
??_C@_0P@PCJPAHLM@out?5of?5memory?6@ DB 'out of memory', 0aH, 00H ; `string'
CONST	ENDS
;	COMDAT ??_C@_00CNPNBAHC@@
CONST	SEGMENT
??_C@_00CNPNBAHC@@ DB 00H				; `string'
CONST	ENDS
;	COMDAT ??_C@_07CIFAGBMG@unknown@
CONST	SEGMENT
??_C@_07CIFAGBMG@unknown@ DB 'unknown', 00H		; `string'
CONST	ENDS
;	COMDAT ??_C@_05LJDNNBIK@param@
CONST	SEGMENT
??_C@_05LJDNNBIK@param@ DB 'param', 00H			; `string'
CONST	ENDS
;	COMDAT ??_C@_04BACONDHA@noop@
CONST	SEGMENT
??_C@_04BACONDHA@noop@ DB 'noop', 00H			; `string'
CONST	ENDS
;	COMDAT ??_C@_0L@NLPEADBD@interleave@
CONST	SEGMENT
??_C@_0L@NLPEADBD@interleave@ DB 'interleave', 00H	; `string'
CONST	ENDS
;	COMDAT ??_C@_05MGJOOGAJ@group@
CONST	SEGMENT
??_C@_05MGJOOGAJ@group@ DB 'group', 00H			; `string'
CONST	ENDS
;	COMDAT ??_C@_06DDDNEJEA@choice@
CONST	SEGMENT
??_C@_06DDDNEJEA@choice@ DB 'choice', 00H		; `string'
CONST	ENDS
;	COMDAT ??_C@_09EIEDMNLG@oneOrMore@
CONST	SEGMENT
??_C@_09EIEDMNLG@oneOrMore@ DB 'oneOrMore', 00H		; `string'
CONST	ENDS
;	COMDAT ??_C@_0L@BANFCDDP@zeroOrMore@
CONST	SEGMENT
??_C@_0L@BANFCDDP@zeroOrMore@ DB 'zeroOrMore', 00H	; `string'
CONST	ENDS
;	COMDAT ??_C@_08EBGGHLAO@optional@
CONST	SEGMENT
??_C@_08EBGGHLAO@optional@ DB 'optional', 00H		; `string'
CONST	ENDS
;	COMDAT ??_C@_09LEMMFILP@parentRef@
CONST	SEGMENT
??_C@_09LEMMFILP@parentRef@ DB 'parentRef', 00H		; `string'
CONST	ENDS
;	COMDAT ??_C@_0M@CPEFJFBC@externalRef@
CONST	SEGMENT
??_C@_0M@CPEFJFBC@externalRef@ DB 'externalRef', 00H	; `string'
CONST	ENDS
;	COMDAT ??_C@_03GCDGINBO@ref@
CONST	SEGMENT
??_C@_03GCDGINBO@ref@ DB 'ref', 00H			; `string'
CONST	ENDS
;	COMDAT ??_C@_03BHEEIFFN@def@
CONST	SEGMENT
??_C@_03BHEEIFFN@def@ DB 'def', 00H			; `string'
CONST	ENDS
;	COMDAT ??_C@_09HGIEBAJ@attribute@
CONST	SEGMENT
??_C@_09HGIEBAJ@attribute@ DB 'attribute', 00H		; `string'
CONST	ENDS
;	COMDAT ??_C@_04DONFEANM@list@
CONST	SEGMENT
??_C@_04DONFEANM@list@ DB 'list', 00H			; `string'
CONST	ENDS
;	COMDAT ??_C@_05MFEJDJP@value@
CONST	SEGMENT
??_C@_05MFEJDJP@value@ DB 'value', 00H			; `string'
CONST	ENDS
;	COMDAT ??_C@_08IJKJONLA@datatype@
CONST	SEGMENT
??_C@_08IJKJONLA@datatype@ DB 'datatype', 00H		; `string'
CONST	ENDS
;	COMDAT ??_C@_07HCLJNICE@element@
CONST	SEGMENT
??_C@_07HCLJNICE@element@ DB 'element', 00H		; `string'
CONST	ENDS
;	COMDAT ??_C@_04CIMGMMMG@text@
CONST	SEGMENT
??_C@_04CIMGMMMG@text@ DB 'text', 00H			; `string'
CONST	ENDS
;	COMDAT ??_C@_06JBKEBCGB@except@
CONST	SEGMENT
??_C@_06JBKEBCGB@except@ DB 'except', 00H		; `string'
CONST	ENDS
;	COMDAT ??_C@_0L@GPGJMKBL@notAllowed@
CONST	SEGMENT
??_C@_0L@GPGJMKBL@notAllowed@ DB 'notAllowed', 00H	; `string'
CONST	ENDS
;	COMDAT ??_C@_05LBJMNBOG@empty@
CONST	SEGMENT
??_C@_05LBJMNBOG@empty@ DB 'empty', 00H			; `string'
CONST	ENDS
;	COMDAT ??_C@_04CGFJFPFD@none@
CONST	SEGMENT
??_C@_04CGFJFPFD@none@ DB 'none', 00H			; `string'
CONST	ENDS
;	COMDAT ??_C@_0CI@PEJCGLNC@xmlRelaxNG?3?5allocate?5memory?5for@
CONST	SEGMENT
??_C@_0CI@PEJCGLNC@xmlRelaxNG?3?5allocate?5memory?5for@ DB 'xmlRelaxNG: a'
	DB	'llocate memory for doc %s', 0aH, 00H	; `string'
CONST	ENDS
;	COMDAT ??_C@_0CK@BCCMNNOD@Detected?5an?5externalRef?5recursi@
CONST	SEGMENT
??_C@_0CK@BCCMNNOD@Detected?5an?5externalRef?5recursi@ DB 'Detected an ex'
	DB	'ternalRef recursion for %s', 0aH, 00H	; `string'
CONST	ENDS
;	COMDAT ??_C@_0BB@MHBNCBHM@adding?5document?6@
CONST	SEGMENT
??_C@_0BB@MHBNCBHM@adding?5document?6@ DB 'adding document', 0aH, 00H ; `string'
CONST	ENDS
;	COMDAT ??_C@_0P@JOLGCMKD@pushing?5error?6@
CONST	SEGMENT
??_C@_0P@JOLGCMKD@pushing?5error?6@ DB 'pushing error', 0aH, 00H ; `string'
CONST	ENDS
;	COMDAT ??_C@_03FEJMGOGI@div@
CONST	SEGMENT
??_C@_03FEJMGOGI@div@ DB 'div', 00H			; `string'
CONST	ENDS
;	COMDAT ??_C@_0EF@PNICLKOF@xmlRelaxNG?3?5include?5?$CFs?5has?5a?5de@
CONST	SEGMENT
??_C@_0EF@PNICLKOF@xmlRelaxNG?3?5include?5?$CFs?5has?5a?5de@ DB 'xmlRelax'
	DB	'NG: include %s has a define %s but not the included grammar', 0aH
	DB	00H						; `string'
CONST	ENDS
;	COMDAT ??_C@_0DA@OCDIDEDL@xmlRelaxNG?3?5include?5?$CFs?5has?5defi@
CONST	SEGMENT
??_C@_0DA@OCDIDEDL@xmlRelaxNG?3?5include?5?$CFs?5has?5defi@ DB 'xmlRelaxN'
	DB	'G: include %s has define without name', 0aH, 00H ; `string'
CONST	ENDS
;	COMDAT ??_C@_0EB@LAOLKJIK@xmlRelaxNG?3?5include?5?$CFs?5has?5a?5st@
CONST	SEGMENT
??_C@_0EB@LAOLKJIK@xmlRelaxNG?3?5include?5?$CFs?5has?5a?5st@ DB 'xmlRelax'
	DB	'NG: include %s has a start but not the included grammar', 0aH
	DB	00H						; `string'
CONST	ENDS
;	COMDAT ??_C@_0DI@NNDELAMP@xmlRelaxNG?3?5included?5document?5?$CF@
CONST	SEGMENT
??_C@_0DI@NNDELAMP@xmlRelaxNG?3?5included?5document?5?$CF@ DB 'xmlRelaxNG'
	DB	': included document %s root is not a grammar', 0aH, 00H ; `string'
CONST	ENDS
;	COMDAT ??_C@_0CL@MDFAGPKO@xmlRelaxNG?3?5included?5document?5i@
CONST	SEGMENT
??_C@_0CL@MDFAGPKO@xmlRelaxNG?3?5included?5document?5i@ DB 'xmlRelaxNG: i'
	DB	'ncluded document is empty %s', 0aH, 00H	; `string'
CONST	ENDS
;	COMDAT ??_C@_02EGOFOKPC@ns@
CONST	SEGMENT
??_C@_02EGOFOKPC@ns@ DB 'ns', 00H			; `string'
CONST	ENDS
;	COMDAT ??_C@_0BP@BDBHMEOE@xmlRelaxNG?3?5could?5not?5load?5?$CFs?6@
CONST	SEGMENT
??_C@_0BP@BDBHMEOE@xmlRelaxNG?3?5could?5not?5load?5?$CFs?6@ DB 'xmlRelaxN'
	DB	'G: could not load %s', 0aH, 00H		; `string'
CONST	ENDS
;	COMDAT ??_C@_0CG@MLBLJJIG@Detected?5an?5Include?5recursion?5f@
CONST	SEGMENT
??_C@_0CG@MLBLJJIG@Detected?5an?5Include?5recursion?5f@ DB 'Detected an I'
	DB	'nclude recursion for %s', 0aH, 00H		; `string'
CONST	ENDS
;	COMDAT ??_C@_07EFOLCII@grammar@
CONST	SEGMENT
??_C@_07EFOLCII@grammar@ DB 'grammar', 00H		; `string'
CONST	ENDS
;	COMDAT ??_C@_07FHOHOHLG@include@
CONST	SEGMENT
??_C@_07FHOHOHLG@include@ DB 'include', 00H		; `string'
CONST	ENDS
;	COMDAT ??_C@_04MEMAJGDJ@name@
CONST	SEGMENT
??_C@_04MEMAJGDJ@name@ DB 'name', 00H			; `string'
CONST	ENDS
;	COMDAT ??_C@_06EPMMJFDC@define@
CONST	SEGMENT
??_C@_06EPMMJFDC@define@ DB 'define', 00H		; `string'
CONST	ENDS
;	COMDAT ??_C@_05FAGFPHJG@start@
CONST	SEGMENT
??_C@_05FAGFPHJG@start@ DB 'start', 00H			; `string'
CONST	ENDS
;	COMDAT ??_C@_0BE@NICNHGJN@allocating?5include?6@
CONST	SEGMENT
??_C@_0BE@NICNHGJN@allocating?5include?6@ DB 'allocating include', 0aH, 00H ; `string'
CONST	ENDS
;	COMDAT ??_C@_0BA@DKBKEJJK@storing?5states?6@
CONST	SEGMENT
??_C@_0BA@DKBKEJJK@storing?5states?6@ DB 'storing states', 0aH, 00H ; `string'
CONST	ENDS
;	COMDAT ??_C@_0P@NLODGFON@adding?5states?6@
CONST	SEGMENT
??_C@_0P@NLODGFON@adding?5states?6@ DB 'adding states', 0aH, 00H ; `string'
CONST	ENDS
;	COMDAT ??_C@_0BD@FIBAKIJP@allocating?5states?6@
CONST	SEGMENT
??_C@_0BD@FIBAKIJP@allocating?5states?6@ DB 'allocating states', 0aH, 00H ; `string'
CONST	ENDS
;	COMDAT ??_C@_0BD@KFBIDMJP@allocating?5define?6@
CONST	SEGMENT
??_C@_0BD@KFBIDMJP@allocating?5define?6@ DB 'allocating define', 0aH, 00H ; `string'
CONST	ENDS
;	COMDAT ??_C@_0BK@GDFDKGPJ@Memory?5allocation?5failed?6@
CONST	SEGMENT
??_C@_0BK@GDFDKGPJ@Memory?5allocation?5failed?6@ DB 'Memory allocation fa'
	DB	'iled', 0aH, 00H				; `string'
CONST	ENDS
;	COMDAT ??_C@_0BP@DJFHNAOK@Memory?5allocation?5failed?5?3?5?$CFs?6@
CONST	SEGMENT
??_C@_0BP@DJFHNAOK@Memory?5allocation?5failed?5?3?5?$CFs?6@ DB 'Memory al'
	DB	'location failed : %s', 0aH, 00H		; `string'
CONST	ENDS
_DATA	SEGMENT
_xmlRelaxNGNs DD FLAT:??_C@_0CE@EODHHDFK@http?3?1?1relaxng?4org?1ns?1structure@
_invalidName DD	FLAT:??_C@_01KHDNNMEB@?$AB@
_DATA	ENDS
; Function compile flags: /Odt
;	COMDAT __JustMyCode_Default
_TEXT	SEGMENT
__JustMyCode_Default PROC				; COMDAT
	push	ebp
	mov	ebp, esp
	pop	ebp
	ret	0
__JustMyCode_Default ENDP
_TEXT	ENDS
; Function compile flags: /Ogtp
; File c:\users\dag\documents\_clients\codeproject authors group\windows on arm\libxml2\libxml2-2.9.9\relaxng.c
;	COMDAT _xmlRelaxNGCleanPSVI
_TEXT	SEGMENT
_node$ = 8						; size = 4
_xmlRelaxNGCleanPSVI PROC				; COMDAT

; 10857: xmlRelaxNGCleanPSVI(xmlNodePtr node) {

	push	ebp
	mov	ebp, esp
	mov	ecx, OFFSET __49DBE4F2_relaxng@c
	call	@__CheckForDebuggerJustMyCode@4
	mov	edx, DWORD PTR _node$[ebp]
	test	edx, edx
	je	SHORT $LN22@xmlRelaxNG

; 10858:     xmlNodePtr cur;
; 10859: 
; 10860:     if ((node == NULL) ||

	mov	eax, DWORD PTR [edx+4]
	cmp	eax, 1
	je	SHORT $LN32@xmlRelaxNG
	cmp	eax, 9
	je	SHORT $LN9@xmlRelaxNG
	cmp	eax, 13					; 0000000dH
	jne	SHORT $LN22@xmlRelaxNG

; 10861:         ((node->type != XML_ELEMENT_NODE) &&
; 10862:          (node->type != XML_DOCUMENT_NODE) &&
; 10863:          (node->type != XML_HTML_DOCUMENT_NODE)))
; 10864: 	return;
; 10865:     if (node->type == XML_ELEMENT_NODE)

	jmp	SHORT $LN9@xmlRelaxNG
$LN32@xmlRelaxNG:

; 10866:         node->psvi = NULL;

	mov	DWORD PTR [edx+52], 0
$LN9@xmlRelaxNG:

; 10867: 
; 10868:     cur = node->children;

	mov	eax, DWORD PTR [edx+12]

; 10869:     while (cur != NULL) {

	test	eax, eax
	je	SHORT $LN22@xmlRelaxNG
$LL2@xmlRelaxNG:

; 10870: 	if (cur->type == XML_ELEMENT_NODE) {

	cmp	DWORD PTR [eax+4], 1
	jne	SHORT $LN11@xmlRelaxNG

; 10871: 	    cur->psvi = NULL;
; 10872: 	    if (cur->children != NULL) {

	mov	ecx, DWORD PTR [eax+12]
	mov	DWORD PTR [eax+52], 0
	test	ecx, ecx
	jne	SHORT $LN40@xmlRelaxNG

; 10873: 		cur = cur->children;
; 10874: 		continue;
; 10875: 	    }
; 10876: 	}
; 10877: 	if (cur->next != NULL) {
; 10878: 	    cur = cur->next;
; 10879: 	    continue;

	jmp	SHORT $LN11@xmlRelaxNG
	npad	4
$LL6@xmlRelaxNG:

; 10880: 	}
; 10881: 	do {
; 10882: 	    cur = cur->parent;

	mov	eax, DWORD PTR [eax+20]

; 10883: 	    if (cur == NULL)

	test	eax, eax
	je	SHORT $LN22@xmlRelaxNG

; 10884: 		break;
; 10885: 	    if (cur == node) {

	cmp	eax, edx
	je	SHORT $LN22@xmlRelaxNG
$LN11@xmlRelaxNG:

; 10869:     while (cur != NULL) {

	mov	ecx, DWORD PTR [eax+24]
	test	ecx, ecx
	je	SHORT $LL6@xmlRelaxNG
$LN40@xmlRelaxNG:
	mov	eax, ecx
	test	eax, eax
	jne	SHORT $LL2@xmlRelaxNG
$LN22@xmlRelaxNG:

; 10886: 		cur = NULL;
; 10887: 		break;
; 10888: 	    }
; 10889: 	    if (cur->next != NULL) {
; 10890: 		cur = cur->next;
; 10891: 		break;
; 10892: 	    }
; 10893: 	} while (cur != NULL);
; 10894:     }
; 10895:     return;
; 10896: }

	pop	ebp
	ret	0
_xmlRelaxNGCleanPSVI ENDP
_TEXT	ENDS
; Function compile flags: /Ogtp
; File c:\users\dag\documents\_clients\codeproject authors group\windows on arm\libxml2\libxml2-2.9.9\relaxng.c
;	COMDAT _xmlRelaxNGValidateDocument
_TEXT	SEGMENT
_vctxt$1 = -68						; size = 64
_ret$1$ = -4						; size = 4
_tmp$1$ = 8						; size = 4
_state$1$ = 8						; size = 4
_ctxt$ = 8						; size = 4
_doc$ = 12						; size = 4
_xmlRelaxNGValidateDocument PROC			; COMDAT

; 10760: {

	push	ebp
	mov	ebp, esp
	sub	esp, 68					; 00000044H
	mov	ecx, OFFSET __49DBE4F2_relaxng@c
	push	edi
	call	@__CheckForDebuggerJustMyCode@4
	mov	edi, DWORD PTR _ctxt$[ebp]
	test	edi, edi
	je	$LN6@xmlRelaxNG

; 10761:     int ret;
; 10762:     xmlRelaxNGPtr schema;
; 10763:     xmlRelaxNGGrammarPtr grammar;
; 10764:     xmlRelaxNGValidStatePtr state;
; 10765:     xmlNodePtr node;
; 10766: 
; 10767:     if ((ctxt == NULL) || (ctxt->schema == NULL) || (doc == NULL))

	mov	eax, DWORD PTR [edi+20]
	test	eax, eax
	je	$LN6@xmlRelaxNG
	cmp	DWORD PTR _doc$[ebp], 0
	je	$LN6@xmlRelaxNG

; 10769: 
; 10770:     ctxt->errNo = XML_RELAXNG_OK;

	push	esi
	mov	DWORD PTR [edi+40], 0

; 10771:     schema = ctxt->schema;
; 10772:     grammar = schema->topgrammar;

	mov	esi, DWORD PTR [eax+4]

; 10773:     if (grammar == NULL) {

	test	esi, esi
	jne	SHORT $LN7@xmlRelaxNG

; 10774:         VALID_ERR(XML_RELAXNG_ERR_NOGRAMMAR);

	push	esi
	push	esi
	push	esi
	push	34					; 00000022H
	push	edi
	call	_xmlRelaxNGAddValidError
	add	esp, 20					; 00000014H

; 10775:         return (-1);

	or	eax, -1
	pop	esi
	pop	edi

; 10841: }

	mov	esp, ebp
	pop	ebp
	ret	0
$LN7@xmlRelaxNG:
	push	ebx

; 10776:     }
; 10777:     state = xmlRelaxNGNewValidState(ctxt, NULL);

	push	0
	push	edi
	call	_xmlRelaxNGNewValidState

; 10778:     ctxt->state = state;

	mov	DWORD PTR [edi+60], eax

; 10779:     ret = xmlRelaxNGValidateDefinition(ctxt, grammar->start);

	push	DWORD PTR [esi+12]
	mov	DWORD PTR _state$1$[ebp], eax
	push	edi
	call	_xmlRelaxNGValidateDefinition

; 10780:     if ((ctxt->state != NULL) && (state->seq != NULL)) {

	mov	ecx, DWORD PTR [edi+60]
	add	esp, 16					; 00000010H
	mov	ebx, eax
	mov	DWORD PTR _ret$1$[ebp], ebx
	test	ecx, ecx
	je	SHORT $LN8@xmlRelaxNG
	mov	eax, DWORD PTR _state$1$[ebp]
	cmp	DWORD PTR [eax+4], 0
	je	SHORT $LN8@xmlRelaxNG

; 10781:         state = ctxt->state;
; 10782:         node = state->seq;
; 10783:         node = xmlRelaxNGSkipIgnored(ctxt, node);

	push	DWORD PTR [ecx+4]
	push	edi
	call	_xmlRelaxNGSkipIgnored
	add	esp, 8

; 10784:         if (node != NULL) {

	test	eax, eax
	je	SHORT $LN15@xmlRelaxNG

; 10785:             if (ret != -1) {
; 10786:                 VALID_ERR(XML_RELAXNG_ERR_EXTRADATA);
; 10787:                 ret = -1;
; 10788:             }
; 10789:         }

	jmp	SHORT $LN26@xmlRelaxNG
$LN8@xmlRelaxNG:

; 10790:     } else if (ctxt->states != NULL) {

	mov	eax, DWORD PTR [edi+64]
	test	eax, eax
	je	SHORT $LN15@xmlRelaxNG

; 10791:         int i;
; 10792:         int tmp = -1;
; 10793: 
; 10794:         for (i = 0; i < ctxt->states->nbState; i++) {

	cmp	DWORD PTR [eax], 0
	mov	DWORD PTR _tmp$1$[ebp], -1
	jle	SHORT $LN26@xmlRelaxNG
	xor	ebx, ebx
	npad	2
$LL4@xmlRelaxNG:

; 10795:             state = ctxt->states->tabState[i];

	mov	eax, DWORD PTR [eax+8]
	mov	esi, DWORD PTR [eax+ebx*4]

; 10796:             node = state->seq;
; 10797:             node = xmlRelaxNGSkipIgnored(ctxt, node);

	push	DWORD PTR [esi+4]
	push	edi
	call	_xmlRelaxNGSkipIgnored

; 10798:             if (node == NULL)

	neg	eax

; 10799:                 tmp = 0;
; 10800:             xmlRelaxNGFreeValidState(ctxt, state);

	push	esi
	sbb	eax, eax
	and	DWORD PTR _tmp$1$[ebp], eax
	push	edi
	call	_xmlRelaxNGFreeValidState
	mov	eax, DWORD PTR [edi+64]
	inc	ebx
	add	esp, 16					; 00000010H
	cmp	ebx, DWORD PTR [eax]
	jl	SHORT $LL4@xmlRelaxNG

; 10801:         }
; 10802:         if (tmp == -1) {

	cmp	DWORD PTR _tmp$1$[ebp], -1
	mov	ebx, DWORD PTR _ret$1$[ebp]
	jne	SHORT $LN15@xmlRelaxNG
$LN26@xmlRelaxNG:

; 10803:             if (ret != -1) {
; 10804:                 VALID_ERR(XML_RELAXNG_ERR_EXTRADATA);
; 10805:                 ret = -1;
; 10806:             }
; 10807:         }
; 10808:     }
; 10809:     if (ctxt->state != NULL) {

	cmp	ebx, -1
	je	SHORT $LN15@xmlRelaxNG
	push	0
	push	0
	push	0
	push	35					; 00000023H
	push	edi
	call	_xmlRelaxNGAddValidError
	add	esp, 20					; 00000014H
	or	ebx, -1
$LN15@xmlRelaxNG:
	mov	eax, DWORD PTR [edi+60]
	test	eax, eax
	je	SHORT $LN16@xmlRelaxNG

; 10810:         xmlRelaxNGFreeValidState(ctxt, ctxt->state);

	push	eax
	push	edi
	call	_xmlRelaxNGFreeValidState
	add	esp, 8

; 10811:         ctxt->state = NULL;

	mov	DWORD PTR [edi+60], 0
$LN16@xmlRelaxNG:

; 10812:     }
; 10813:     if (ret != 0)

	test	ebx, ebx
	je	SHORT $LN17@xmlRelaxNG

; 10814:         xmlRelaxNGDumpValidError(ctxt);

	push	edi
	call	_xmlRelaxNGDumpValidError
	add	esp, 4
$LN17@xmlRelaxNG:

; 10815: #ifdef DEBUG
; 10816:     else if (ctxt->errNr != 0) {
; 10817:         ctxt->error(ctxt->userData,
; 10818:                     "%d Extra error messages left on stack !\n",
; 10819:                     ctxt->errNr);
; 10820:         xmlRelaxNGDumpValidError(ctxt);
; 10821:     }
; 10822: #endif
; 10823: #ifdef LIBXML_VALID_ENABLED
; 10824:     if (ctxt->idref == 1) {

	cmp	DWORD PTR [edi+36], 1
	jne	SHORT $LN19@xmlRelaxNG

; 10825:         xmlValidCtxt vctxt;
; 10826: 
; 10827:         memset(&vctxt, 0, sizeof(xmlValidCtxt));
; 10828:         vctxt.valid = 1;
; 10829:         vctxt.error = ctxt->error;

	mov	eax, DWORD PTR [edi+4]
	xorps	xmm0, xmm0

; 10830:         vctxt.warning = ctxt->warning;
; 10831:         vctxt.userData = ctxt->userData;
; 10832: 
; 10833:         if (xmlValidateDocumentFinal(&vctxt, doc) != 1)

	push	DWORD PTR _doc$[ebp]
	mov	DWORD PTR _vctxt$1[ebp+4], eax
	mov	eax, DWORD PTR [edi+8]
	mov	DWORD PTR _vctxt$1[ebp+8], eax
	mov	eax, DWORD PTR [edi]
	mov	DWORD PTR _vctxt$1[ebp], eax
	lea	eax, DWORD PTR _vctxt$1[ebp]
	push	eax
	movlpd	QWORD PTR _vctxt$1[ebp+12], xmm0
	movlpd	QWORD PTR _vctxt$1[ebp+20], xmm0
	movlpd	QWORD PTR _vctxt$1[ebp+28], xmm0
	movlpd	QWORD PTR _vctxt$1[ebp+40], xmm0
	movlpd	QWORD PTR _vctxt$1[ebp+48], xmm0
	movlpd	QWORD PTR _vctxt$1[ebp+56], xmm0
	mov	DWORD PTR _vctxt$1[ebp+36], 1
	call	_xmlValidateDocumentFinal
	add	esp, 8
	cmp	eax, 1
	je	SHORT $LN19@xmlRelaxNG

; 10834:             ret = -1;

	or	ebx, -1

; 10838:         ret = -1;
; 10839: 
; 10840:     return (ret);

	mov	eax, ebx
	pop	ebx
	pop	esi
	pop	edi

; 10841: }

	mov	esp, ebp
	pop	ebp
	ret	0
$LN19@xmlRelaxNG:

; 10835:     }
; 10836: #endif /* LIBXML_VALID_ENABLED */
; 10837:     if ((ret == 0) && (ctxt->errNo != XML_RELAXNG_OK))

	test	ebx, ebx
	jne	SHORT $LN20@xmlRelaxNG
	or	eax, -1
	cmp	DWORD PTR [edi+40], ebx
	cmovne	ebx, eax
$LN20@xmlRelaxNG:

; 10838:         ret = -1;
; 10839: 
; 10840:     return (ret);

	mov	eax, ebx
	pop	ebx
	pop	esi
	pop	edi

; 10841: }

	mov	esp, ebp
	pop	ebp
	ret	0
$LN6@xmlRelaxNG:

; 10768:         return (-1);

	or	eax, -1
	pop	edi

; 10841: }

	mov	esp, ebp
	pop	ebp
	ret	0
_xmlRelaxNGValidateDocument ENDP
_TEXT	ENDS
; Function compile flags: /Ogtp
; File c:\users\dag\documents\_clients\codeproject authors group\windows on arm\libxml2\libxml2-2.9.9\relaxng.c
;	COMDAT _xmlRelaxNGValidateState
_TEXT	SEGMENT
$T1 = -32						; size = 4
_oldflags$3$ = -32					; size = 4
_errNr$2$ = -32						; size = 4
_oldflags$4$ = -28					; size = 4
_oldflags$1$ = -28					; size = 4
_tmpstates$1$ = -24					; size = 4
_errNr$5$ = -24						; size = 4
_res$1$ = -20						; size = 4
_oldstate$1$ = -20					; size = 4
_node$2$ = -20						; size = 4
_j$3$ = -16						; size = 4
_i$5$ = -16						; size = 4
_nseq$1$ = -16						; size = 4
_tmp$3$ = -16						; size = 4
$T2 = -12						; size = 4
_progress$1$ = -12					; size = 4
_tmpstate$1$ = -12					; size = 4
_tmp$2$ = -12						; size = 4
_oldflags$2$ = -12					; size = 4
_errNr$1$ = -12						; size = 4
_node$3$ = -12						; size = 4
_content$1$ = -8					; size = 4
_content$1$ = -8					; size = 4
_i$6$ = -8						; size = 4
_ret$1$ = -8						; size = 4
_content$1$ = -4					; size = 4
_states$1$ = -4						; size = 4
_node$1$ = -4						; size = 4
_ctxt$ = 8						; size = 4
_triage$1$ = 12						; size = 4
_list$2$ = 12						; size = 4
_define$ = 12						; size = 4
_xmlRelaxNGValidateState PROC				; COMDAT

; 9864 : {

	push	ebp
	mov	ebp, esp
	sub	esp, 32					; 00000020H
	mov	ecx, OFFSET __49DBE4F2_relaxng@c
	push	ebx
	push	esi
	mov	esi, DWORD PTR _ctxt$[ebp]
	push	edi
	call	@__CheckForDebuggerJustMyCode@4
	mov	edi, DWORD PTR _define$[ebp]
	xor	ebx, ebx
	xor	eax, eax
	test	edi, edi
	jne	SHORT $LN51@xmlRelaxNG

; 9865 :     xmlNodePtr node;
; 9866 :     int ret = 0, i, tmp, oldflags, errNr;
; 9867 :     xmlRelaxNGValidStatePtr oldstate = NULL, state;
; 9868 : 
; 9869 :     if (define == NULL) {
; 9870 :         VALID_ERR(XML_RELAXNG_ERR_NODEFINE);

	push	edi
	push	edi
	push	edi
	push	7
	push	esi
	call	_xmlRelaxNGAddValidError
	add	esp, 20					; 00000014H

; 9871 :         return (-1);

	or	eax, -1
	pop	edi

; 10618: }

	pop	esi
	pop	ebx
	mov	esp, ebp
	pop	ebp
	ret	0
$LN51@xmlRelaxNG:

; 9872 :     }
; 9873 : 
; 9874 :     if (ctxt->state != NULL) {

	mov	edx, DWORD PTR [esi+60]
	test	edx, edx
	je	SHORT $LN52@xmlRelaxNG

; 9875 :         node = ctxt->state->seq;

	mov	ecx, DWORD PTR [edx+4]

; 9876 :     } else {

	jmp	SHORT $LN435@xmlRelaxNG
$LN52@xmlRelaxNG:

; 9877 :         node = NULL;

	xor	ecx, ecx
$LN435@xmlRelaxNG:

; 9878 :     }
; 9879 : #ifdef DEBUG
; 9880 :     for (i = 0; i < ctxt->depth; i++)
; 9881 :         xmlGenericError(xmlGenericErrorContext, " ");
; 9882 :     xmlGenericError(xmlGenericErrorContext,
; 9883 :                     "Start validating %s ", xmlRelaxNGDefName(define));
; 9884 :     if (define->name != NULL)
; 9885 :         xmlGenericError(xmlGenericErrorContext, "%s ", define->name);
; 9886 :     if ((node != NULL) && (node->name != NULL))
; 9887 :         xmlGenericError(xmlGenericErrorContext, "on %s\n", node->name);
; 9888 :     else
; 9889 :         xmlGenericError(xmlGenericErrorContext, "\n");
; 9890 : #endif
; 9891 :     ctxt->depth++;

	inc	DWORD PTR [esi+32]

; 9892 :     switch (define->type) {

	mov	eax, DWORD PTR [edi]
	inc	eax
	mov	DWORD PTR _node$3$[ebp], ecx
	cmp	eax, 21					; 00000015H
	ja	$LN2@xmlRelaxNG
	jmp	DWORD PTR $LN454@xmlRelaxNG[eax*4]
$LN54@xmlRelaxNG:

; 9893 :         case XML_RELAXNG_EMPTY:
; 9894 :             xmlRelaxNGSkipIgnored(ctxt, node);

	push	ecx
	push	esi
	call	_xmlRelaxNGSkipIgnored
	add	esp, 8

; 9895 :             ret = 0;

	xor	ebx, ebx

; 10602:             break;
; 10603:     }
; 10604:     ctxt->depth--;

	dec	DWORD PTR [esi+32]

; 10605: #ifdef DEBUG
; 10606:     for (i = 0; i < ctxt->depth; i++)
; 10607:         xmlGenericError(xmlGenericErrorContext, " ");
; 10608:     xmlGenericError(xmlGenericErrorContext,
; 10609:                     "Validating %s ", xmlRelaxNGDefName(define));
; 10610:     if (define->name != NULL)
; 10611:         xmlGenericError(xmlGenericErrorContext, "%s ", define->name);
; 10612:     if (ret == 0)
; 10613:         xmlGenericError(xmlGenericErrorContext, "suceeded\n");
; 10614:     else
; 10615:         xmlGenericError(xmlGenericErrorContext, "failed\n");
; 10616: #endif
; 10617:     return (ret);

	mov	eax, ebx
	pop	edi

; 10618: }

	pop	esi
	pop	ebx
	mov	esp, ebp
	pop	ebp
	ret	0
$LN337@xmlRelaxNG:

; 9896 :             break;
; 9897 :         case XML_RELAXNG_NOT_ALLOWED:
; 9898 :             ret = -1;
; 9899 :             break;
; 9900 :         case XML_RELAXNG_TEXT:
; 9901 :             while ((node != NULL) &&

	test	ecx, ecx
	je	SHORT $LN427@xmlRelaxNG
	npad	4
$LL4@xmlRelaxNG:
	mov	eax, DWORD PTR [ecx+4]
	cmp	eax, 3
	je	SHORT $LN57@xmlRelaxNG
	cmp	eax, 8
	je	SHORT $LN57@xmlRelaxNG
	cmp	eax, 7
	je	SHORT $LN57@xmlRelaxNG
	cmp	eax, 4
	jne	SHORT $LN427@xmlRelaxNG
$LN57@xmlRelaxNG:

; 9902 :                    ((node->type == XML_TEXT_NODE) ||
; 9903 :                     (node->type == XML_COMMENT_NODE) ||
; 9904 :                     (node->type == XML_PI_NODE) ||
; 9905 :                     (node->type == XML_CDATA_SECTION_NODE)))
; 9906 :                 node = node->next;

	mov	ecx, DWORD PTR [ecx+24]
	test	ecx, ecx
	jne	SHORT $LL4@xmlRelaxNG
$LN427@xmlRelaxNG:
	pop	edi

; 9907 :             ctxt->state->seq = node;

	mov	DWORD PTR [edx+4], ecx

; 10605: #ifdef DEBUG
; 10606:     for (i = 0; i < ctxt->depth; i++)
; 10607:         xmlGenericError(xmlGenericErrorContext, " ");
; 10608:     xmlGenericError(xmlGenericErrorContext,
; 10609:                     "Validating %s ", xmlRelaxNGDefName(define));
; 10610:     if (define->name != NULL)
; 10611:         xmlGenericError(xmlGenericErrorContext, "%s ", define->name);
; 10612:     if (ret == 0)
; 10613:         xmlGenericError(xmlGenericErrorContext, "suceeded\n");
; 10614:     else
; 10615:         xmlGenericError(xmlGenericErrorContext, "failed\n");
; 10616: #endif
; 10617:     return (ret);

	mov	eax, ebx
	dec	DWORD PTR [esi+32]

; 10618: }

	pop	esi
	pop	ebx
	mov	esp, ebp
	pop	ebp
	ret	0
$LN58@xmlRelaxNG:

; 9908 :             break;
; 9909 :         case XML_RELAXNG_ELEMENT:
; 9910 :             errNr = ctxt->errNr;

	mov	eax, DWORD PTR [esi+48]

; 9911 :             node = xmlRelaxNGSkipIgnored(ctxt, node);

	push	ecx
	push	esi
	mov	DWORD PTR _errNr$1$[ebp], eax
	call	_xmlRelaxNGSkipIgnored
	mov	edi, eax
	add	esp, 8
	mov	DWORD PTR _node$1$[ebp], edi

; 9912 :             if (node == NULL) {

	test	edi, edi
	jne	SHORT $LN59@xmlRelaxNG

; 9913 :                 VALID_ERR2(XML_RELAXNG_ERR_NOELEM, define->name);

	mov	ecx, DWORD PTR _define$[ebp]
	push	eax
	push	eax
	push	DWORD PTR [ecx+8]
	push	22					; 00000016H
$LN443@xmlRelaxNG:

; 10602:             break;
; 10603:     }
; 10604:     ctxt->depth--;

	push	esi
	call	_xmlRelaxNGAddValidError
	add	esp, 20					; 00000014H
$LN444@xmlRelaxNG:
	or	ebx, -1
	test	BYTE PTR [esi+28], 1
$LN446@xmlRelaxNG:
	jne	$LN2@xmlRelaxNG
	push	esi
	call	_xmlRelaxNGDumpValidError
	add	esp, 4

; 10605: #ifdef DEBUG
; 10606:     for (i = 0; i < ctxt->depth; i++)
; 10607:         xmlGenericError(xmlGenericErrorContext, " ");
; 10608:     xmlGenericError(xmlGenericErrorContext,
; 10609:                     "Validating %s ", xmlRelaxNGDefName(define));
; 10610:     if (define->name != NULL)
; 10611:         xmlGenericError(xmlGenericErrorContext, "%s ", define->name);
; 10612:     if (ret == 0)
; 10613:         xmlGenericError(xmlGenericErrorContext, "suceeded\n");
; 10614:     else
; 10615:         xmlGenericError(xmlGenericErrorContext, "failed\n");
; 10616: #endif
; 10617:     return (ret);

	mov	eax, ebx
	dec	DWORD PTR [esi+32]
	pop	edi

; 10618: }

	pop	esi
	pop	ebx
	mov	esp, ebp
	pop	ebp
	ret	0
$LN59@xmlRelaxNG:

; 9914 :                 ret = -1;
; 9915 :                 if ((ctxt->flags & FLAGS_IGNORABLE) == 0)
; 9916 :                     xmlRelaxNGDumpValidError(ctxt);
; 9917 :                 break;
; 9918 :             }
; 9919 :             if (node->type != XML_ELEMENT_NODE) {

	cmp	DWORD PTR [edi+4], 1
	je	SHORT $LN61@xmlRelaxNG

; 9920 :                 VALID_ERR(XML_RELAXNG_ERR_NOTELEM);

	push	0
	push	0
	push	0
	push	23					; 00000017H

; 9921 :                 ret = -1;
; 9922 :                 if ((ctxt->flags & FLAGS_IGNORABLE) == 0)
; 9923 :                     xmlRelaxNGDumpValidError(ctxt);
; 9924 :                 break;

	jmp	SHORT $LN443@xmlRelaxNG
$LN61@xmlRelaxNG:

; 9925 :             }
; 9926 :             /*
; 9927 :              * This node was already validated successfully against
; 9928 :              * this definition.
; 9929 :              */
; 9930 :             if (node->psvi == define) {

	mov	eax, DWORD PTR _define$[ebp]
	cmp	DWORD PTR [edi+52], eax
	jne	$LN63@xmlRelaxNG

; 9931 :                 ctxt->state->seq = xmlRelaxNGSkipIgnored(ctxt, node->next);

	push	DWORD PTR [edi+24]
	push	esi
	call	_xmlRelaxNGSkipIgnored
	mov	ecx, DWORD PTR [esi+60]
	add	esp, 8
	mov	DWORD PTR [ecx+4], eax

; 9932 :                 if (ctxt->errNr > errNr)

	mov	ecx, DWORD PTR [esi+48]
	mov	eax, DWORD PTR _errNr$1$[ebp]
	cmp	ecx, eax
	jle	SHORT $LN64@xmlRelaxNG

; 9933 :                     xmlRelaxNGPopErrors(ctxt, errNr);

	push	eax
	push	esi
	call	_xmlRelaxNGPopErrors
	mov	ecx, DWORD PTR [esi+48]
	add	esp, 8
$LN64@xmlRelaxNG:

; 9934 :                 if (ctxt->errNr != 0) {

	test	ecx, ecx
	je	$LN2@xmlRelaxNG

; 9935 :                     while ((ctxt->err != NULL) &&

	mov	eax, DWORD PTR [esi+44]
	test	eax, eax
	je	$LN2@xmlRelaxNG
$LL6@xmlRelaxNG:
	cmp	DWORD PTR [eax], 13			; 0000000dH
	jne	SHORT $LN67@xmlRelaxNG
	push	DWORD PTR [edi+8]
	push	DWORD PTR [eax+20]
	call	_xmlStrEqual
	add	esp, 8
	test	eax, eax
	jne	SHORT $LN66@xmlRelaxNG
$LN67@xmlRelaxNG:
	mov	eax, DWORD PTR [esi+44]
	cmp	DWORD PTR [eax], 19			; 00000013H
	jne	SHORT $LN68@xmlRelaxNG
	push	DWORD PTR [edi+8]
	push	DWORD PTR [eax+16]
	call	_xmlStrEqual
	add	esp, 8
	test	eax, eax
	jne	SHORT $LN66@xmlRelaxNG
$LN68@xmlRelaxNG:
	mov	eax, DWORD PTR [esi+44]
	mov	eax, DWORD PTR [eax]
	cmp	eax, 22					; 00000016H
	je	SHORT $LN66@xmlRelaxNG
	cmp	eax, 23					; 00000017H
	jne	$LN2@xmlRelaxNG
$LN66@xmlRelaxNG:

; 9936 :                            (((ctxt->err->err == XML_RELAXNG_ERR_ELEMNAME)
; 9937 :                              && (xmlStrEqual(ctxt->err->arg2, node->name)))
; 9938 :                             ||
; 9939 :                             ((ctxt->err->err ==
; 9940 :                               XML_RELAXNG_ERR_ELEMEXTRANS)
; 9941 :                              && (xmlStrEqual(ctxt->err->arg1, node->name)))
; 9942 :                             || (ctxt->err->err == XML_RELAXNG_ERR_NOELEM)
; 9943 :                             || (ctxt->err->err ==
; 9944 :                                 XML_RELAXNG_ERR_NOTELEM)))
; 9945 :                         xmlRelaxNGValidErrorPop(ctxt);

	push	esi
	call	_xmlRelaxNGValidErrorPop
	mov	eax, DWORD PTR [esi+44]
	add	esp, 4
	test	eax, eax
	jne	SHORT $LL6@xmlRelaxNG

; 10602:             break;
; 10603:     }
; 10604:     ctxt->depth--;

	dec	DWORD PTR [esi+32]

; 10605: #ifdef DEBUG
; 10606:     for (i = 0; i < ctxt->depth; i++)
; 10607:         xmlGenericError(xmlGenericErrorContext, " ");
; 10608:     xmlGenericError(xmlGenericErrorContext,
; 10609:                     "Validating %s ", xmlRelaxNGDefName(define));
; 10610:     if (define->name != NULL)
; 10611:         xmlGenericError(xmlGenericErrorContext, "%s ", define->name);
; 10612:     if (ret == 0)
; 10613:         xmlGenericError(xmlGenericErrorContext, "suceeded\n");
; 10614:     else
; 10615:         xmlGenericError(xmlGenericErrorContext, "failed\n");
; 10616: #endif
; 10617:     return (ret);

	mov	eax, ebx
	pop	edi

; 10618: }

	pop	esi
	pop	ebx
	mov	esp, ebp
	pop	ebp
	ret	0
$LN63@xmlRelaxNG:

; 9946 :                 }
; 9947 :                 break;
; 9948 :             }
; 9949 : 
; 9950 :             ret = xmlRelaxNGElementMatch(ctxt, define, node);

	push	edi
	push	eax
	push	esi
	call	_xmlRelaxNGElementMatch
	add	esp, 12					; 0000000cH

; 9951 :             if (ret <= 0) {

	test	eax, eax
	jle	$LN444@xmlRelaxNG

; 9952 :                 ret = -1;
; 9953 :                 if ((ctxt->flags & FLAGS_IGNORABLE) == 0)
; 9954 :                     xmlRelaxNGDumpValidError(ctxt);
; 9955 :                 break;
; 9956 :             }
; 9957 :             ret = 0;
; 9958 :             if (ctxt->errNr != 0) {

	mov	ecx, DWORD PTR [esi+48]
	xor	ebx, ebx
	mov	DWORD PTR _ret$1$[ebp], ebx
	test	ecx, ecx
	je	SHORT $LN428@xmlRelaxNG

; 9959 :                 if (ctxt->errNr > errNr)

	mov	eax, DWORD PTR _errNr$1$[ebp]
	cmp	ecx, eax
	jle	SHORT $LN339@xmlRelaxNG

; 9960 :                     xmlRelaxNGPopErrors(ctxt, errNr);

	push	eax
	push	esi
	call	_xmlRelaxNGPopErrors
	add	esp, 8
$LN339@xmlRelaxNG:

; 9961 :                 while ((ctxt->err != NULL) &&

	mov	eax, DWORD PTR [esi+44]
	test	eax, eax
	je	SHORT $LN428@xmlRelaxNG
	npad	6
$LL8@xmlRelaxNG:
	cmp	DWORD PTR [eax], 13			; 0000000dH
	jne	SHORT $LN74@xmlRelaxNG
	push	DWORD PTR [edi+8]
	push	DWORD PTR [eax+20]
	call	_xmlStrEqual
	add	esp, 8
	test	eax, eax
	jne	SHORT $LN73@xmlRelaxNG
$LN74@xmlRelaxNG:
	mov	eax, DWORD PTR [esi+44]
	cmp	DWORD PTR [eax], 19			; 00000013H
	jne	SHORT $LN75@xmlRelaxNG
	push	DWORD PTR [edi+8]
	push	DWORD PTR [eax+16]
	call	_xmlStrEqual
	add	esp, 8
	test	eax, eax
	jne	SHORT $LN73@xmlRelaxNG
$LN75@xmlRelaxNG:
	mov	eax, DWORD PTR [esi+44]
	mov	eax, DWORD PTR [eax]
	cmp	eax, 22					; 00000016H
	je	SHORT $LN73@xmlRelaxNG
	cmp	eax, 23					; 00000017H
	jne	SHORT $LN428@xmlRelaxNG
$LN73@xmlRelaxNG:

; 9962 :                        (((ctxt->err->err == XML_RELAXNG_ERR_ELEMNAME) &&
; 9963 :                          (xmlStrEqual(ctxt->err->arg2, node->name))) ||
; 9964 :                         ((ctxt->err->err == XML_RELAXNG_ERR_ELEMEXTRANS) &&
; 9965 :                          (xmlStrEqual(ctxt->err->arg1, node->name))) ||
; 9966 :                         (ctxt->err->err == XML_RELAXNG_ERR_NOELEM) ||
; 9967 :                         (ctxt->err->err == XML_RELAXNG_ERR_NOTELEM)))
; 9968 :                     xmlRelaxNGValidErrorPop(ctxt);

	push	esi
	call	_xmlRelaxNGValidErrorPop
	mov	eax, DWORD PTR [esi+44]
	add	esp, 4
	test	eax, eax
	jne	SHORT $LL8@xmlRelaxNG
$LN428@xmlRelaxNG:

; 9969 :             }
; 9970 :             errNr = ctxt->errNr;

	mov	eax, DWORD PTR [esi+48]
	mov	DWORD PTR _errNr$2$[ebp], eax

; 9971 : 
; 9972 :             oldflags = ctxt->flags;

	mov	eax, DWORD PTR [esi+28]
	mov	DWORD PTR _oldflags$1$[ebp], eax

; 9973 :             if (ctxt->flags & FLAGS_MIXED_CONTENT) {

	test	al, 4
	je	SHORT $LN76@xmlRelaxNG

; 9974 :                 ctxt->flags -= FLAGS_MIXED_CONTENT;

	add	eax, -4					; fffffffcH
	mov	DWORD PTR [esi+28], eax
$LN76@xmlRelaxNG:

; 9975 :             }
; 9976 :             state = xmlRelaxNGNewValidState(ctxt, node);

	push	edi
	push	esi
	call	_xmlRelaxNGNewValidState
	add	esp, 8

; 9977 :             if (state == NULL) {

	test	eax, eax
	je	$LN444@xmlRelaxNG

; 9978 :                 ret = -1;
; 9979 :                 if ((ctxt->flags & FLAGS_IGNORABLE) == 0)
; 9980 :                     xmlRelaxNGDumpValidError(ctxt);
; 9981 :                 break;
; 9982 :             }
; 9983 : 
; 9984 :             oldstate = ctxt->state;

	mov	ecx, DWORD PTR [esi+60]
	mov	DWORD PTR _oldstate$1$[ebp], ecx

; 9985 :             ctxt->state = state;
; 9986 :             if (define->attrs != NULL) {

	mov	ecx, DWORD PTR _define$[ebp]
	mov	DWORD PTR [esi+60], eax
	mov	eax, DWORD PTR [ecx+36]
	test	eax, eax
	je	SHORT $LN80@xmlRelaxNG

; 9987 :                 tmp = xmlRelaxNGValidateAttributeList(ctxt, define->attrs);

	push	eax
	push	esi
	call	_xmlRelaxNGValidateAttributeList
	add	esp, 8

; 9988 :                 if (tmp != 0) {

	test	eax, eax
	je	SHORT $LN80@xmlRelaxNG

; 9989 :                     ret = -1;
; 9990 :                     VALID_ERR2(XML_RELAXNG_ERR_ATTRVALID, node->name);

	push	0
	push	0
	push	DWORD PTR [edi+8]
	or	ebx, -1
	push	24					; 00000018H
	push	esi
	mov	DWORD PTR _ret$1$[ebp], ebx
	call	_xmlRelaxNGAddValidError
	add	esp, 20					; 00000014H
$LN80@xmlRelaxNG:

; 9991 :                 }
; 9992 :             }
; 9993 :             if (define->contModel != NULL) {

	mov	eax, DWORD PTR _define$[ebp]
	cmp	DWORD PTR [eax+52], 0
	je	$LN81@xmlRelaxNG

; 9994 :                 xmlRelaxNGValidStatePtr nstate, tmpstate = ctxt->state;

	mov	eax, DWORD PTR [esi+60]
	mov	DWORD PTR _tmpstate$1$[ebp], eax

; 9995 :                 xmlRelaxNGStatesPtr tmpstates = ctxt->states;

	mov	eax, DWORD PTR [esi+64]

; 9996 :                 xmlNodePtr nseq;
; 9997 : 
; 9998 :                 nstate = xmlRelaxNGNewValidState(ctxt, node);

	push	edi
	push	esi
	mov	DWORD PTR _tmpstates$1$[ebp], eax
	call	_xmlRelaxNGNewValidState
	mov	ebx, eax

; 9999 :                 ctxt->state = nstate;
; 10000:                 ctxt->states = NULL;

	mov	DWORD PTR [esi+64], 0

; 10001: 
; 10002:                 tmp = xmlRelaxNGValidateCompiledContent(ctxt,

	mov	eax, DWORD PTR _define$[ebp]
	mov	DWORD PTR [esi+60], ebx
	push	DWORD PTR [ebx+4]
	push	DWORD PTR [eax+52]
	push	esi
	call	_xmlRelaxNGValidateCompiledContent
	mov	edi, eax

; 10003:                                                         define->contModel,
; 10004:                                                         ctxt->state->seq);
; 10005:                 nseq = ctxt->state->seq;

	mov	eax, DWORD PTR [esi+60]

; 10006:                 ctxt->state = tmpstate;
; 10007:                 ctxt->states = tmpstates;
; 10008:                 xmlRelaxNGFreeValidState(ctxt, nstate);

	push	ebx
	push	esi
	mov	eax, DWORD PTR [eax+4]
	mov	DWORD PTR _nseq$1$[ebp], eax
	mov	eax, DWORD PTR _tmpstate$1$[ebp]
	mov	DWORD PTR [esi+60], eax
	mov	eax, DWORD PTR _tmpstates$1$[ebp]
	mov	DWORD PTR [esi+64], eax
	call	_xmlRelaxNGFreeValidState

; 10009: 
; 10010: #ifdef DEBUG_COMPILE
; 10011:                 xmlGenericError(xmlGenericErrorContext,
; 10012:                                 "Validating content of '%s' : %d\n",
; 10013:                                 define->name, tmp);
; 10014: #endif
; 10015:                 if (tmp != 0)

	mov	ebx, DWORD PTR _ret$1$[ebp]
	or	eax, -1
	add	esp, 28					; 0000001cH
	test	edi, edi
	cmovne	ebx, eax

; 10016:                     ret = -1;
; 10017: 
; 10018:                 if (ctxt->states != NULL) {

	mov	eax, DWORD PTR [esi+64]
	test	eax, eax
	je	$LN84@xmlRelaxNG

; 10019:                     tmp = -1;
; 10020: 
; 10021:                     for (i = 0; i < ctxt->states->nbState; i++) {

	xor	edi, edi
	mov	DWORD PTR _tmp$2$[ebp], -1
	cmp	DWORD PTR [eax], edi
	jle	SHORT $LN414@xmlRelaxNG
$LL12@xmlRelaxNG:

; 10022:                         state = ctxt->states->tabState[i];
; 10023:                         ctxt->state = state;

	mov	eax, DWORD PTR [eax+8]

; 10024:                         ctxt->state->seq = nseq;

	mov	ecx, DWORD PTR _nseq$1$[ebp]

; 10025: 
; 10026:                         if (xmlRelaxNGValidateElementEnd(ctxt, 0) == 0) {

	push	0
	push	esi
	mov	eax, DWORD PTR [eax+edi*4]
	mov	DWORD PTR [esi+60], eax
	mov	DWORD PTR [eax+4], ecx
	call	_xmlRelaxNGValidateElementEnd
	add	esp, 8
	test	eax, eax
	je	$LN355@xmlRelaxNG

; 10019:                     tmp = -1;
; 10020: 
; 10021:                     for (i = 0; i < ctxt->states->nbState; i++) {

	mov	eax, DWORD PTR [esi+64]
	inc	edi
	cmp	edi, DWORD PTR [eax]
	jl	SHORT $LL12@xmlRelaxNG
$LN414@xmlRelaxNG:

; 10032:                         /*
; 10033:                          * validation error, log the message for the "best" one
; 10034:                          */
; 10035:                         ctxt->flags |= FLAGS_IGNORABLE;

	or	DWORD PTR [esi+28], 1

; 10036:                         xmlRelaxNGLogBestError(ctxt);

	push	esi
	call	_xmlRelaxNGLogBestError
	add	esp, 4
$LN87@xmlRelaxNG:

; 10037:                     }
; 10038:                     for (i = 0; i < ctxt->states->nbState; i++) {

	mov	eax, DWORD PTR [esi+64]
	xor	edi, edi
	cmp	DWORD PTR [eax], edi
	jle	SHORT $LN14@xmlRelaxNG
$LL15@xmlRelaxNG:

; 10039:                         xmlRelaxNGFreeValidState(ctxt,

	mov	eax, DWORD PTR [esi+64]
	mov	eax, DWORD PTR [eax+8]
	push	DWORD PTR [eax+edi*4]
	push	esi
	call	_xmlRelaxNGFreeValidState
	mov	eax, DWORD PTR [esi+64]
	inc	edi
	add	esp, 8
	cmp	edi, DWORD PTR [eax]
	jl	SHORT $LL15@xmlRelaxNG
$LN14@xmlRelaxNG:

; 10040:                                                  ctxt->states->
; 10041:                                                  tabState[i]);
; 10042:                     }
; 10043:                     xmlRelaxNGFreeStates(ctxt, ctxt->states);

	push	eax
	push	esi
	call	_xmlRelaxNGFreeStates
	add	esp, 8

; 10044:                     ctxt->flags = oldflags;
; 10045:                     ctxt->states = NULL;

	mov	DWORD PTR [esi+64], 0

; 10046:                     if ((ret == 0) && (tmp == -1))

	test	ebx, ebx
	jne	SHORT $LN433@xmlRelaxNG
	cmp	DWORD PTR _tmp$2$[ebp], -1
$LN439@xmlRelaxNG:

; 10113:             }
; 10114:             ctxt->flags = oldflags;

	jne	$LN426@xmlRelaxNG
	or	ebx, -1
$LN433@xmlRelaxNG:
	mov	eax, DWORD PTR _node$1$[ebp]
$LN101@xmlRelaxNG:

; 10115:             ctxt->state = oldstate;

	mov	edi, DWORD PTR _oldstate$1$[ebp]
	mov	ecx, DWORD PTR _oldflags$1$[ebp]
	mov	DWORD PTR [esi+28], ecx
	mov	DWORD PTR [esi+60], edi

; 10116:             if (oldstate != NULL)

	test	edi, edi
	je	SHORT $LN102@xmlRelaxNG

; 10117:                 oldstate->seq = xmlRelaxNGSkipIgnored(ctxt, node->next);

	push	DWORD PTR [eax+24]
	push	esi
	call	_xmlRelaxNGSkipIgnored
	add	esp, 8
	mov	DWORD PTR [edi+4], eax
$LN102@xmlRelaxNG:

; 10118:             if (ret != 0) {

	test	ebx, ebx
	je	$LN103@xmlRelaxNG

; 10119:                 if ((ctxt->flags & FLAGS_IGNORABLE) == 0) {

	mov	edi, DWORD PTR [esi+28]
	and	edi, 1
	jne	SHORT $LN105@xmlRelaxNG

; 10120:                     xmlRelaxNGDumpValidError(ctxt);

	push	esi
	call	_xmlRelaxNGDumpValidError
	add	esp, 4
$LN105@xmlRelaxNG:

; 10121:                     ret = 0;
; 10122: #if 0
; 10123:                 } else {
; 10124:                     ret = -2;
; 10125: #endif
; 10126:                 }
; 10127:             } else {

	xor	eax, eax
	test	edi, edi
	pop	edi
	cmovne	eax, ebx

; 10602:             break;
; 10603:     }
; 10604:     ctxt->depth--;

	dec	DWORD PTR [esi+32]
	mov	ebx, eax

; 10618: }

	pop	esi
	pop	ebx
	mov	esp, ebp
	pop	ebp
	ret	0
$LN355@xmlRelaxNG:

; 10027:                             tmp = 0;

	mov	DWORD PTR _tmp$2$[ebp], 0

; 10028:                             break;
; 10029:                         }
; 10030:                     }
; 10031:                     if (tmp != 0) {

	jmp	$LN87@xmlRelaxNG
$LN84@xmlRelaxNG:

; 10047:                         ret = -1;
; 10048:                 } else {
; 10049:                     state = ctxt->state;

	mov	edi, DWORD PTR [esi+60]

; 10050: 		    if (ctxt->state != NULL)

	test	edi, edi
	je	$LN89@xmlRelaxNG

; 10051: 			ctxt->state->seq = nseq;

	mov	eax, DWORD PTR _nseq$1$[ebp]
	mov	DWORD PTR [edi+4], eax

; 10052:                     if (ret == 0)
; 10053:                         ret = xmlRelaxNGValidateElementEnd(ctxt, 1);
; 10054:                     xmlRelaxNGFreeValidState(ctxt, state);
; 10055:                 }
; 10056:             } else {

	jmp	$LN89@xmlRelaxNG
$LN81@xmlRelaxNG:

; 10057:                 if (define->content != NULL) {

	mov	eax, DWORD PTR [eax+24]
	test	eax, eax
	je	SHORT $LN94@xmlRelaxNG

; 10058:                     tmp = xmlRelaxNGValidateDefinitionList(ctxt,

	push	eax
	push	esi
	call	_xmlRelaxNGValidateDefinitionList
	add	esp, 8

; 10059:                                                            define->
; 10060:                                                            content);
; 10061:                     if (tmp != 0) {

	test	eax, eax
	je	SHORT $LN94@xmlRelaxNG

; 10062:                         ret = -1;

	or	ebx, -1

; 10063:                         if (ctxt->state == NULL) {

	cmp	DWORD PTR [esi+60], 0
	push	0
	push	0
	jne	SHORT $LN93@xmlRelaxNG

; 10064:                             ctxt->state = oldstate;

	mov	eax, DWORD PTR _oldstate$1$[ebp]
	mov	DWORD PTR [esi+60], eax

; 10065:                             VALID_ERR2(XML_RELAXNG_ERR_CONTENTVALID,

	push	DWORD PTR [edi+8]
	push	25					; 00000019H
	push	esi
	call	_xmlRelaxNGAddValidError

; 10066:                                        node->name);
; 10067:                             ctxt->state = NULL;

	mov	DWORD PTR [esi+60], 0

; 10068:                         } else {

	jmp	SHORT $LN437@xmlRelaxNG
$LN93@xmlRelaxNG:

; 10069:                             VALID_ERR2(XML_RELAXNG_ERR_CONTENTVALID,

	push	DWORD PTR [edi+8]
	push	25					; 00000019H
	push	esi
	call	_xmlRelaxNGAddValidError
$LN437@xmlRelaxNG:

; 10070:                                        node->name);
; 10071:                         }
; 10072: 
; 10073:                     }
; 10074:                 }
; 10075:                 if (ctxt->states != NULL) {

	add	esp, 20					; 00000014H
$LN94@xmlRelaxNG:
	mov	eax, DWORD PTR [esi+64]
	test	eax, eax
	je	$LN95@xmlRelaxNG

; 10076:                     tmp = -1;
; 10077: 
; 10078:                     for (i = 0; i < ctxt->states->nbState; i++) {

	xor	edi, edi
	mov	DWORD PTR _tmp$3$[ebp], -1
	cmp	DWORD PTR [eax], edi
	jle	SHORT $LN415@xmlRelaxNG
	npad	2
$LL18@xmlRelaxNG:

; 10079:                         state = ctxt->states->tabState[i];
; 10080:                         ctxt->state = state;

	mov	eax, DWORD PTR [eax+8]

; 10081: 
; 10082:                         if (xmlRelaxNGValidateElementEnd(ctxt, 0) == 0) {

	push	0
	push	esi
	mov	eax, DWORD PTR [eax+edi*4]
	mov	DWORD PTR [esi+60], eax
	call	_xmlRelaxNGValidateElementEnd
	add	esp, 8
	test	eax, eax
	je	SHORT $LN356@xmlRelaxNG

; 10076:                     tmp = -1;
; 10077: 
; 10078:                     for (i = 0; i < ctxt->states->nbState; i++) {

	mov	eax, DWORD PTR [esi+64]
	inc	edi
	cmp	edi, DWORD PTR [eax]
	jl	SHORT $LL18@xmlRelaxNG
$LN415@xmlRelaxNG:

; 10088:                         /*
; 10089:                          * validation error, log the message for the "best" one
; 10090:                          */
; 10091:                         ctxt->flags |= FLAGS_IGNORABLE;

	or	DWORD PTR [esi+28], 1

; 10092:                         xmlRelaxNGLogBestError(ctxt);

	push	esi
	call	_xmlRelaxNGLogBestError
	add	esp, 4
$LN98@xmlRelaxNG:

; 10093:                     }
; 10094:                     for (i = 0; i < ctxt->states->nbState; i++) {

	mov	eax, DWORD PTR [esi+64]
	xor	edi, edi
	cmp	DWORD PTR [eax], edi
	jle	SHORT $LN20@xmlRelaxNG
$LL21@xmlRelaxNG:

; 10095:                         xmlRelaxNGFreeValidState(ctxt,

	mov	eax, DWORD PTR [esi+64]
	mov	eax, DWORD PTR [eax+8]
	push	DWORD PTR [eax+edi*4]
	push	esi
	call	_xmlRelaxNGFreeValidState

; 10096:                                                  ctxt->states->tabState[i]);
; 10097:                         ctxt->states->tabState[i] = NULL;

	mov	eax, DWORD PTR [esi+64]
	add	esp, 8
	mov	eax, DWORD PTR [eax+8]
	mov	DWORD PTR [eax+edi*4], 0
	inc	edi
	mov	eax, DWORD PTR [esi+64]
	cmp	edi, DWORD PTR [eax]
	jl	SHORT $LL21@xmlRelaxNG
$LN20@xmlRelaxNG:

; 10098:                     }
; 10099:                     xmlRelaxNGFreeStates(ctxt, ctxt->states);

	push	eax
	push	esi
	call	_xmlRelaxNGFreeStates
	add	esp, 8

; 10100:                     ctxt->flags = oldflags;
; 10101:                     ctxt->states = NULL;

	mov	DWORD PTR [esi+64], 0

; 10102:                     if ((ret == 0) && (tmp == -1))

	test	ebx, ebx
	jne	$LN433@xmlRelaxNG
	cmp	DWORD PTR _tmp$3$[ebp], -1

; 10103:                         ret = -1;
; 10104:                 } else {

	jmp	$LN439@xmlRelaxNG
$LN356@xmlRelaxNG:

; 10083:                             tmp = 0;

	mov	DWORD PTR _tmp$3$[ebp], 0

; 10084:                             break;
; 10085:                         }
; 10086:                     }
; 10087:                     if (tmp != 0) {

	jmp	SHORT $LN98@xmlRelaxNG
$LN95@xmlRelaxNG:

; 10105:                     state = ctxt->state;

	mov	edi, DWORD PTR [esi+60]
$LN89@xmlRelaxNG:

; 10106:                     if (ret == 0)
; 10107:                         ret = xmlRelaxNGValidateElementEnd(ctxt, 1);
; 10108:                     xmlRelaxNGFreeValidState(ctxt, state);
; 10109:                 }
; 10110:             }
; 10111:             if (ret == 0) {

	test	ebx, ebx
	jne	SHORT $LN100@xmlRelaxNG
	push	1
	push	esi
	call	_xmlRelaxNGValidateElementEnd
	mov	ebx, eax
	add	esp, 8
$LN100@xmlRelaxNG:
	push	edi
	push	esi
	call	_xmlRelaxNGFreeValidState
	add	esp, 8
	test	ebx, ebx
	jne	$LN433@xmlRelaxNG
$LN426@xmlRelaxNG:

; 10112:                 node->psvi = define;

	mov	eax, DWORD PTR _node$1$[ebp]
	mov	ecx, DWORD PTR _define$[ebp]
	mov	DWORD PTR [eax+52], ecx
	jmp	$LN101@xmlRelaxNG
$LN103@xmlRelaxNG:

; 10128:                 if (ctxt->errNr > errNr)

	mov	eax, DWORD PTR _errNr$2$[ebp]
$LN447@xmlRelaxNG:

; 10602:             break;
; 10603:     }
; 10604:     ctxt->depth--;

	cmp	DWORD PTR [esi+48], eax
	jle	$LN2@xmlRelaxNG
	push	eax
	push	esi
	call	_xmlRelaxNGPopErrors
	add	esp, 8

; 10605: #ifdef DEBUG
; 10606:     for (i = 0; i < ctxt->depth; i++)
; 10607:         xmlGenericError(xmlGenericErrorContext, " ");
; 10608:     xmlGenericError(xmlGenericErrorContext,
; 10609:                     "Validating %s ", xmlRelaxNGDefName(define));
; 10610:     if (define->name != NULL)
; 10611:         xmlGenericError(xmlGenericErrorContext, "%s ", define->name);
; 10612:     if (ret == 0)
; 10613:         xmlGenericError(xmlGenericErrorContext, "suceeded\n");
; 10614:     else
; 10615:         xmlGenericError(xmlGenericErrorContext, "failed\n");
; 10616: #endif
; 10617:     return (ret);

	mov	eax, ebx
	dec	DWORD PTR [esi+32]
	pop	edi

; 10618: }

	pop	esi
	pop	ebx
	mov	esp, ebp
	pop	ebp
	ret	0
$LN107@xmlRelaxNG:

; 10129:                     xmlRelaxNGPopErrors(ctxt, errNr);
; 10130:             }
; 10131: 
; 10132: #ifdef DEBUG
; 10133:             xmlGenericError(xmlGenericErrorContext,
; 10134:                             "xmlRelaxNGValidateDefinition(): validated %s : %d",
; 10135:                             node->name, ret);
; 10136:             if (oldstate == NULL)
; 10137:                 xmlGenericError(xmlGenericErrorContext, ": no state\n");
; 10138:             else if (oldstate->seq == NULL)
; 10139:                 xmlGenericError(xmlGenericErrorContext, ": done\n");
; 10140:             else if (oldstate->seq->type == XML_ELEMENT_NODE)
; 10141:                 xmlGenericError(xmlGenericErrorContext, ": next elem %s\n",
; 10142:                                 oldstate->seq->name);
; 10143:             else
; 10144:                 xmlGenericError(xmlGenericErrorContext, ": next %s %d\n",
; 10145:                                 oldstate->seq->name, oldstate->seq->type);
; 10146: #endif
; 10147:             break;
; 10148:         case XML_RELAXNG_OPTIONAL:{
; 10149:                 errNr = ctxt->errNr;
; 10150:                 oldflags = ctxt->flags;

	mov	eax, DWORD PTR [esi+28]
	mov	edi, DWORD PTR [esi+48]
	mov	DWORD PTR _oldflags$2$[ebp], eax

; 10151:                 ctxt->flags |= FLAGS_IGNORABLE;

	or	eax, 1

; 10152:                 oldstate = xmlRelaxNGCopyValidState(ctxt, ctxt->state);

	push	edx
	push	esi
	mov	DWORD PTR [esi+28], eax
	call	_xmlRelaxNGCopyValidState
	mov	ebx, eax

; 10153:                 ret =

	mov	eax, DWORD PTR _define$[ebp]
	push	DWORD PTR [eax+24]
	push	esi
	call	_xmlRelaxNGValidateDefinitionList
	add	esp, 16					; 00000010H

; 10154:                     xmlRelaxNGValidateDefinitionList(ctxt,
; 10155:                                                      define->content);
; 10156:                 if (ret != 0) {

	test	eax, eax
	je	SHORT $LN108@xmlRelaxNG

; 10157:                     if (ctxt->state != NULL)

	mov	eax, DWORD PTR [esi+60]
	test	eax, eax
	je	SHORT $LN109@xmlRelaxNG

; 10158:                         xmlRelaxNGFreeValidState(ctxt, ctxt->state);

	push	eax
	push	esi
	call	_xmlRelaxNGFreeValidState
	add	esp, 8
$LN109@xmlRelaxNG:

; 10159:                     ctxt->state = oldstate;

	mov	DWORD PTR [esi+60], ebx
$LN112@xmlRelaxNG:

; 10602:             break;
; 10603:     }
; 10604:     ctxt->depth--;

	xor	ebx, ebx
$LN452@xmlRelaxNG:
	mov	eax, DWORD PTR _oldflags$2$[ebp]
	mov	DWORD PTR [esi+28], eax
	cmp	DWORD PTR [esi+48], edi
	jle	$LN2@xmlRelaxNG
	push	edi
	push	esi
	call	_xmlRelaxNGPopErrors
	add	esp, 8

; 10605: #ifdef DEBUG
; 10606:     for (i = 0; i < ctxt->depth; i++)
; 10607:         xmlGenericError(xmlGenericErrorContext, " ");
; 10608:     xmlGenericError(xmlGenericErrorContext,
; 10609:                     "Validating %s ", xmlRelaxNGDefName(define));
; 10610:     if (define->name != NULL)
; 10611:         xmlGenericError(xmlGenericErrorContext, "%s ", define->name);
; 10612:     if (ret == 0)
; 10613:         xmlGenericError(xmlGenericErrorContext, "suceeded\n");
; 10614:     else
; 10615:         xmlGenericError(xmlGenericErrorContext, "failed\n");
; 10616: #endif
; 10617:     return (ret);

	mov	eax, ebx
	dec	DWORD PTR [esi+32]
	pop	edi

; 10618: }

	pop	esi
	pop	ebx
	mov	esp, ebp
	pop	ebp
	ret	0
$LN108@xmlRelaxNG:

; 10160:                     ctxt->flags = oldflags;
; 10161:                     ret = 0;
; 10162:                     if (ctxt->errNr > errNr)
; 10163:                         xmlRelaxNGPopErrors(ctxt, errNr);
; 10164:                     break;
; 10165:                 }
; 10166:                 if (ctxt->states != NULL) {

	mov	eax, DWORD PTR [esi+64]
	test	eax, eax
	je	SHORT $LN111@xmlRelaxNG

; 10167:                     xmlRelaxNGAddStates(ctxt, ctxt->states, oldstate);

	push	ebx
	push	eax
	push	esi
	call	_xmlRelaxNGAddStates
	add	esp, 12					; 0000000cH

; 10168:                 } else {

	jmp	SHORT $LN112@xmlRelaxNG
$LN111@xmlRelaxNG:

; 10169:                     ctxt->states = xmlRelaxNGNewStates(ctxt, 1);

	push	1
	push	esi
	call	_xmlRelaxNGNewStates
	add	esp, 8
	mov	DWORD PTR [esi+64], eax

; 10170:                     if (ctxt->states == NULL) {

	push	ebx
	test	eax, eax
	jne	SHORT $LN113@xmlRelaxNG

; 10171:                         xmlRelaxNGFreeValidState(ctxt, oldstate);

	push	esi
	call	_xmlRelaxNGFreeValidState
	add	esp, 8

; 10172:                         ctxt->flags = oldflags;
; 10173:                         ret = -1;

	or	ebx, -1

; 10174:                         if (ctxt->errNr > errNr)
; 10175:                             xmlRelaxNGPopErrors(ctxt, errNr);
; 10176:                         break;

	jmp	SHORT $LN452@xmlRelaxNG
$LN113@xmlRelaxNG:

; 10177:                     }
; 10178:                     xmlRelaxNGAddStates(ctxt, ctxt->states, oldstate);

	push	eax
	push	esi
	call	_xmlRelaxNGAddStates

; 10179:                     xmlRelaxNGAddStates(ctxt, ctxt->states, ctxt->state);

	push	DWORD PTR [esi+60]
	push	DWORD PTR [esi+64]
	push	esi
	call	_xmlRelaxNGAddStates
	add	esp, 24					; 00000018H

; 10180:                     ctxt->state = NULL;

	mov	DWORD PTR [esi+60], 0

; 10181:                 }
; 10182:                 ctxt->flags = oldflags;
; 10183:                 ret = 0;
; 10184:                 if (ctxt->errNr > errNr)
; 10185:                     xmlRelaxNGPopErrors(ctxt, errNr);
; 10186:                 break;

	jmp	SHORT $LN112@xmlRelaxNG
$LN116@xmlRelaxNG:

; 10187:             }
; 10188:         case XML_RELAXNG_ONEORMORE:
; 10189:             errNr = ctxt->errNr;
; 10190:             ret = xmlRelaxNGValidateDefinitionList(ctxt, define->content);

	mov	eax, DWORD PTR _define$[ebp]
	mov	edi, DWORD PTR [esi+48]
	push	DWORD PTR [eax+24]
	push	esi
	call	_xmlRelaxNGValidateDefinitionList
	mov	ebx, eax
	add	esp, 8

; 10191:             if (ret != 0) {

	test	ebx, ebx
	jne	$LN2@xmlRelaxNG

; 10192:                 break;
; 10193:             }
; 10194:             if (ctxt->errNr > errNr)

	cmp	DWORD PTR [esi+48], edi
	jle	SHORT $LN118@xmlRelaxNG

; 10195:                 xmlRelaxNGPopErrors(ctxt, errNr);

	push	edi
	push	esi
	call	_xmlRelaxNGPopErrors
	add	esp, 8
$LN118@xmlRelaxNG:

; 10196:             /* Falls through. */
; 10197:         case XML_RELAXNG_ZEROORMORE:{
; 10198:                 int progress;
; 10199:                 xmlRelaxNGStatesPtr states = NULL, res = NULL;
; 10200:                 int base, j;
; 10201: 
; 10202:                 errNr = ctxt->errNr;
; 10203:                 res = xmlRelaxNGNewStates(ctxt, 1);

	push	1
	push	esi
	mov	DWORD PTR _states$1$[ebp], 0
	call	_xmlRelaxNGNewStates
	mov	ebx, eax
	add	esp, 8
	mov	DWORD PTR _res$1$[ebp], ebx

; 10204:                 if (res == NULL) {

	test	ebx, ebx
	je	$LN55@xmlRelaxNG

; 10205:                     ret = -1;
; 10206:                     break;
; 10207:                 }
; 10208:                 /*
; 10209:                  * All the input states are also exit states
; 10210:                  */
; 10211:                 if (ctxt->state != NULL) {

	mov	eax, DWORD PTR [esi+60]
	test	eax, eax
	je	SHORT $LN121@xmlRelaxNG

; 10212:                     xmlRelaxNGAddStates(ctxt, res,

	push	eax
	push	esi
	call	_xmlRelaxNGCopyValidState
	push	eax
	push	ebx
	push	esi
	call	_xmlRelaxNGAddStates
	add	esp, 20					; 00000014H

; 10213:                                         xmlRelaxNGCopyValidState(ctxt,
; 10214:                                                                  ctxt->
; 10215:                                                                  state));
; 10216:                 } else {

	jmp	SHORT $LN23@xmlRelaxNG
$LN121@xmlRelaxNG:

; 10217:                     for (j = 0; j < ctxt->states->nbState; j++) {

	mov	eax, DWORD PTR [esi+64]
	xor	edi, edi
	cmp	DWORD PTR [eax], edi
	jle	SHORT $LN23@xmlRelaxNG
$LL24@xmlRelaxNG:

; 10218:                         xmlRelaxNGAddStates(ctxt, res,

	mov	eax, DWORD PTR [esi+64]
	mov	eax, DWORD PTR [eax+8]
	push	DWORD PTR [eax+edi*4]
	push	esi
	call	_xmlRelaxNGCopyValidState
	push	eax
	push	ebx
	push	esi
	call	_xmlRelaxNGAddStates
	mov	eax, DWORD PTR [esi+64]
	inc	edi
	add	esp, 20					; 00000014H
	cmp	edi, DWORD PTR [eax]
	jl	SHORT $LL24@xmlRelaxNG
$LN23@xmlRelaxNG:

; 10219:                             xmlRelaxNGCopyValidState(ctxt,
; 10220:                                             ctxt->states->tabState[j]));
; 10221:                     }
; 10222:                 }
; 10223:                 oldflags = ctxt->flags;

	mov	eax, DWORD PTR [esi+28]
	mov	DWORD PTR _oldflags$3$[ebp], eax

; 10224:                 ctxt->flags |= FLAGS_IGNORABLE;

	or	eax, 1
	mov	DWORD PTR [esi+28], eax
$LL27@xmlRelaxNG:

; 10225:                 do {
; 10226:                     progress = 0;
; 10227:                     base = res->nbState;

	mov	eax, DWORD PTR [ebx]
	xor	edi, edi
	mov	DWORD PTR _i$6$[ebp], eax

; 10228: 
; 10229:                     if (ctxt->states != NULL) {

	mov	eax, DWORD PTR [esi+64]
	mov	DWORD PTR _progress$1$[ebp], edi
	test	eax, eax
	je	$LN123@xmlRelaxNG

; 10230:                         states = ctxt->states;
; 10231:                         for (i = 0; i < states->nbState; i++) {

	xor	ecx, ecx
	mov	DWORD PTR _states$1$[ebp], eax
	mov	DWORD PTR _i$5$[ebp], ecx
	cmp	DWORD PTR [eax], ecx
	jle	$LN416@xmlRelaxNG
	npad	7
$LL30@xmlRelaxNG:

; 10232:                             ctxt->state = states->tabState[i];

	mov	eax, DWORD PTR [eax+8]
	mov	eax, DWORD PTR [eax+ecx*4]
	mov	DWORD PTR [esi+60], eax

; 10233:                             ctxt->states = NULL;
; 10234:                             ret = xmlRelaxNGValidateDefinitionList(ctxt,

	mov	eax, DWORD PTR _define$[ebp]
	mov	DWORD PTR [esi+64], 0
	push	DWORD PTR [eax+24]
	push	esi
	call	_xmlRelaxNGValidateDefinitionList
	mov	ecx, DWORD PTR [esi+60]
	add	esp, 8

; 10235:                                                                    define->
; 10236:                                                                    content);
; 10237:                             if (ret == 0) {

	test	eax, eax
	jne	SHORT $LN125@xmlRelaxNG

; 10238:                                 if (ctxt->state != NULL) {

	test	ecx, ecx
	je	SHORT $LN127@xmlRelaxNG

; 10239:                                     tmp = xmlRelaxNGAddStates(ctxt, res,

	push	ecx
	push	ebx
	push	esi
	call	_xmlRelaxNGAddStates
	add	esp, 12					; 0000000cH

; 10240:                                                               ctxt->state);
; 10241:                                     ctxt->state = NULL;

	mov	DWORD PTR [esi+60], 0

; 10242:                                     if (tmp == 1)

	cmp	eax, 1
	jne	SHORT $LN28@xmlRelaxNG

; 10243:                                         progress = 1;

	mov	edi, eax

; 10244:                                 } else if (ctxt->states != NULL) {

	jmp	SHORT $LN28@xmlRelaxNG
$LN127@xmlRelaxNG:
	mov	eax, DWORD PTR [esi+64]
	test	eax, eax
	je	SHORT $LN28@xmlRelaxNG

; 10245:                                     for (j = 0; j < ctxt->states->nbState;

	xor	ebx, ebx
	cmp	DWORD PTR [eax], ebx
	jle	SHORT $LN32@xmlRelaxNG
$LL33@xmlRelaxNG:

; 10246:                                          j++) {
; 10247:                                         tmp =

	mov	eax, DWORD PTR [eax+8]
	push	DWORD PTR [eax+ebx*4]
	push	DWORD PTR _res$1$[ebp]
	push	esi
	call	_xmlRelaxNGAddStates
	add	esp, 12					; 0000000cH

; 10248:                                             xmlRelaxNGAddStates(ctxt, res,
; 10249:                                                    ctxt->states->tabState[j]);
; 10250:                                         if (tmp == 1)

	cmp	eax, 1
	mov	eax, 1
	cmove	edi, eax
	mov	eax, DWORD PTR [esi+64]
	inc	ebx
	cmp	ebx, DWORD PTR [eax]
	jl	SHORT $LL33@xmlRelaxNG
$LN32@xmlRelaxNG:

; 10251:                                             progress = 1;
; 10252:                                     }
; 10253:                                     xmlRelaxNGFreeStates(ctxt,

	push	eax
	push	esi
	call	_xmlRelaxNGFreeStates

; 10254:                                                          ctxt->states);
; 10255:                                     ctxt->states = NULL;
; 10256:                                 }
; 10257:                             } else {

	mov	ebx, DWORD PTR _res$1$[ebp]
	mov	DWORD PTR [esi+64], 0
	jmp	SHORT $LN440@xmlRelaxNG
$LN125@xmlRelaxNG:

; 10258:                                 if (ctxt->state != NULL) {

	test	ecx, ecx
	je	SHORT $LN28@xmlRelaxNG

; 10259:                                     xmlRelaxNGFreeValidState(ctxt,

	push	ecx
	push	esi
	call	_xmlRelaxNGFreeValidState

; 10260:                                                              ctxt->state);
; 10261:                                     ctxt->state = NULL;

	mov	DWORD PTR [esi+60], 0
$LN440@xmlRelaxNG:

; 10230:                         states = ctxt->states;
; 10231:                         for (i = 0; i < states->nbState; i++) {

	add	esp, 8
$LN28@xmlRelaxNG:
	mov	ecx, DWORD PTR _i$5$[ebp]
	mov	eax, DWORD PTR _states$1$[ebp]
	inc	ecx
	mov	DWORD PTR _i$5$[ebp], ecx
	cmp	ecx, DWORD PTR [eax]
	jl	$LL30@xmlRelaxNG

; 10262:                                 }
; 10263:                             }
; 10264:                         }
; 10265:                     } else {

	mov	DWORD PTR _progress$1$[ebp], edi
	jmp	$LN138@xmlRelaxNG
$LN123@xmlRelaxNG:

; 10266:                         ret = xmlRelaxNGValidateDefinitionList(ctxt,

	mov	eax, DWORD PTR _define$[ebp]
	push	DWORD PTR [eax+24]
	push	esi
	call	_xmlRelaxNGValidateDefinitionList
	add	esp, 8

; 10267:                                                                define->
; 10268:                                                                content);
; 10269:                         if (ret != 0) {

	test	eax, eax
	jne	$LN425@xmlRelaxNG

; 10272:                         } else {
; 10273:                             base = res->nbState;

	mov	eax, DWORD PTR [ebx]
	mov	DWORD PTR _i$6$[ebp], eax

; 10274:                             if (ctxt->state != NULL) {

	mov	eax, DWORD PTR [esi+60]
	test	eax, eax
	je	SHORT $LN135@xmlRelaxNG

; 10275:                                 tmp = xmlRelaxNGAddStates(ctxt, res,

	push	eax
	push	ebx
	push	esi
	call	_xmlRelaxNGAddStates
	add	esp, 12					; 0000000cH

; 10276:                                                           ctxt->state);
; 10277:                                 ctxt->state = NULL;

	mov	DWORD PTR [esi+60], edi

; 10278:                                 if (tmp == 1)

	cmp	eax, 1
	jne	$LN430@xmlRelaxNG

; 10279:                                     progress = 1;

	mov	edi, eax
	mov	DWORD PTR _progress$1$[ebp], edi

; 10280:                             } else if (ctxt->states != NULL) {

	jmp	SHORT $LN417@xmlRelaxNG
$LN135@xmlRelaxNG:
	mov	eax, DWORD PTR [esi+64]
	test	eax, eax
	je	$LN430@xmlRelaxNG

; 10281:                                 for (j = 0; j < ctxt->states->nbState; j++) {

	xor	ecx, ecx
	mov	DWORD PTR _j$3$[ebp], ecx
	cmp	DWORD PTR [eax], ecx
	jle	SHORT $LN35@xmlRelaxNG
	npad	2
$LL36@xmlRelaxNG:

; 10282:                                     tmp = xmlRelaxNGAddStates(ctxt, res,

	mov	eax, DWORD PTR [eax+8]
	push	DWORD PTR [eax+ecx*4]
	push	ebx
	push	esi
	call	_xmlRelaxNGAddStates
	mov	ecx, DWORD PTR _j$3$[ebp]
	add	esp, 12					; 0000000cH

; 10283:                                                ctxt->states->tabState[j]);
; 10284:                                     if (tmp == 1)

	cmp	eax, 1
	mov	eax, 1
	cmove	edi, eax
	mov	eax, DWORD PTR [esi+64]
	inc	ecx
	mov	DWORD PTR _j$3$[ebp], ecx
	cmp	ecx, DWORD PTR [eax]
	jl	SHORT $LL36@xmlRelaxNG
	mov	DWORD PTR _progress$1$[ebp], edi
$LN35@xmlRelaxNG:

; 10285:                                         progress = 1;
; 10286:                                 }
; 10287:                                 if (states == NULL) {

	cmp	DWORD PTR _states$1$[ebp], 0
	jne	SHORT $LN140@xmlRelaxNG

; 10288:                                     states = ctxt->states;

	mov	DWORD PTR _states$1$[ebp], eax

; 10289:                                 } else {

	jmp	SHORT $LN141@xmlRelaxNG
$LN140@xmlRelaxNG:

; 10290:                                     xmlRelaxNGFreeStates(ctxt,

	push	eax
	push	esi
	call	_xmlRelaxNGFreeStates
	mov	eax, DWORD PTR _states$1$[ebp]
	add	esp, 8
$LN141@xmlRelaxNG:

; 10291:                                                          ctxt->states);
; 10292:                                 }
; 10293:                                 ctxt->states = NULL;

	mov	DWORD PTR [esi+64], 0
$LN138@xmlRelaxNG:

; 10294:                             }
; 10295:                         }
; 10296:                     }
; 10297:                     if (progress) {

	test	edi, edi
	je	SHORT $LN25@xmlRelaxNG
$LN417@xmlRelaxNG:

; 10298:                         /*
; 10299:                          * Collect all the new nodes added at that step
; 10300:                          * and make them the new node set
; 10301:                          */
; 10302:                         if (res->nbState - base == 1) {

	mov	edx, DWORD PTR [ebx]
	mov	ecx, DWORD PTR _i$6$[ebp]
	sub	edx, ecx
	cmp	edx, 1
	jne	SHORT $LN143@xmlRelaxNG

; 10303:                             ctxt->state = xmlRelaxNGCopyValidState(ctxt,

	mov	eax, DWORD PTR [ebx+8]
	push	DWORD PTR [eax+ecx*4]
	push	esi
	call	_xmlRelaxNGCopyValidState
	mov	DWORD PTR [esi+60], eax
	add	esp, 8

; 10304:                                                                    res->
; 10305:                                                                    tabState
; 10306:                                                                    [base]);
; 10307:                         } else {

	mov	eax, DWORD PTR _states$1$[ebp]
	jmp	SHORT $LN25@xmlRelaxNG
$LN143@xmlRelaxNG:

; 10308:                             if (states == NULL) {

	mov	eax, DWORD PTR _states$1$[ebp]
	test	eax, eax
	jne	SHORT $LN146@xmlRelaxNG

; 10309:                                 xmlRelaxNGNewStates(ctxt,

	push	edx
	push	esi
	call	_xmlRelaxNGNewStates

; 10310:                                                     res->nbState - base);
; 10311: 			        states = ctxt->states;

	mov	eax, DWORD PTR [esi+64]
	add	esp, 8
	mov	DWORD PTR _states$1$[ebp], eax

; 10312: 				if (states == NULL) {

	test	eax, eax
	je	SHORT $LN147@xmlRelaxNG
	mov	ecx, DWORD PTR _i$6$[ebp]
$LN146@xmlRelaxNG:

; 10313: 				    progress = 0;
; 10314: 				    break;
; 10315: 				}
; 10316:                             }
; 10317:                             states->nbState = 0;

	mov	DWORD PTR [eax], 0

; 10318:                             for (i = base; i < res->nbState; i++)

	cmp	ecx, DWORD PTR [ebx]
	jge	SHORT $LN38@xmlRelaxNG
	mov	edi, DWORD PTR _states$1$[ebp]
	npad	3
$LL39@xmlRelaxNG:

; 10319:                                 xmlRelaxNGAddStates(ctxt, states,

	mov	eax, DWORD PTR [ebx+8]
	push	DWORD PTR [eax+ecx*4]
	push	esi
	call	_xmlRelaxNGCopyValidState
	push	eax
	push	edi
	push	esi
	call	_xmlRelaxNGAddStates
	mov	ecx, DWORD PTR _i$6$[ebp]
	add	esp, 20					; 00000014H
	inc	ecx
	mov	DWORD PTR _i$6$[ebp], ecx
	cmp	ecx, DWORD PTR [ebx]
	jl	SHORT $LL39@xmlRelaxNG
	mov	edi, DWORD PTR _progress$1$[ebp]
	mov	eax, DWORD PTR _states$1$[ebp]
$LN38@xmlRelaxNG:

; 10320:                                                     xmlRelaxNGCopyValidState
; 10321:                                                     (ctxt, res->tabState[i]));
; 10322:                             ctxt->states = states;

	mov	DWORD PTR [esi+64], eax
$LN25@xmlRelaxNG:

; 10323:                         }
; 10324:                     }
; 10325:                 } while (progress == 1);

	cmp	edi, 1
	je	$LL27@xmlRelaxNG
	jmp	SHORT $LN416@xmlRelaxNG
$LN425@xmlRelaxNG:

; 10270:                             xmlRelaxNGFreeValidState(ctxt, ctxt->state);

	push	DWORD PTR [esi+60]
	push	esi
	call	_xmlRelaxNGFreeValidState
	add	esp, 8

; 10271:                             ctxt->state = NULL;

	mov	DWORD PTR [esi+60], edi
$LN430@xmlRelaxNG:

; 10326:                 if (states != NULL) {

	mov	eax, DWORD PTR _states$1$[ebp]
$LN416@xmlRelaxNG:
	test	eax, eax
	je	SHORT $LN147@xmlRelaxNG

; 10327:                     xmlRelaxNGFreeStates(ctxt, states);

	push	eax
	push	esi
	call	_xmlRelaxNGFreeStates
	add	esp, 8
$LN147@xmlRelaxNG:

; 10328:                 }
; 10329:                 ctxt->states = res;
; 10330:                 ctxt->flags = oldflags;

	mov	eax, DWORD PTR _oldflags$3$[ebp]
	mov	DWORD PTR [esi+64], ebx

; 10331: #if 0
; 10332:                 /*
; 10333:                  * errors may have to be propagated back...
; 10334:                  */
; 10335:                 if (ctxt->errNr > errNr)
; 10336:                     xmlRelaxNGPopErrors(ctxt, errNr);
; 10337: #endif
; 10338:                 ret = 0;

	xor	ebx, ebx

; 10602:             break;
; 10603:     }
; 10604:     ctxt->depth--;

	dec	DWORD PTR [esi+32]
	pop	edi
	mov	DWORD PTR [esi+28], eax

; 10605: #ifdef DEBUG
; 10606:     for (i = 0; i < ctxt->depth; i++)
; 10607:         xmlGenericError(xmlGenericErrorContext, " ");
; 10608:     xmlGenericError(xmlGenericErrorContext,
; 10609:                     "Validating %s ", xmlRelaxNGDefName(define));
; 10610:     if (define->name != NULL)
; 10611:         xmlGenericError(xmlGenericErrorContext, "%s ", define->name);
; 10612:     if (ret == 0)
; 10613:         xmlGenericError(xmlGenericErrorContext, "suceeded\n");
; 10614:     else
; 10615:         xmlGenericError(xmlGenericErrorContext, "failed\n");
; 10616: #endif
; 10617:     return (ret);

	mov	eax, ebx

; 10618: }

	pop	esi
	pop	ebx
	mov	esp, ebp
	pop	ebp
	ret	0
$LN148@xmlRelaxNG:

; 10339:                 break;
; 10340:             }
; 10341:         case XML_RELAXNG_CHOICE:{
; 10342:                 xmlRelaxNGDefinePtr list = NULL;
; 10343:                 xmlRelaxNGStatesPtr states = NULL;
; 10344: 
; 10345:                 node = xmlRelaxNGSkipIgnored(ctxt, node);

	push	ecx
	xor	edi, edi
	push	esi
	mov	DWORD PTR $T2[ebp], edi
	call	_xmlRelaxNGSkipIgnored

; 10346: 
; 10347:                 errNr = ctxt->errNr;

	mov	ecx, DWORD PTR [esi+48]
	add	esp, 8
	mov	DWORD PTR _errNr$5$[ebp], ecx

; 10348:                 if ((define->dflags & IS_TRIABLE) && (define->data != NULL) &&

	mov	ecx, DWORD PTR _define$[ebp]
	mov	DWORD PTR _node$2$[ebp], eax
	test	BYTE PTR [ecx+50], 16			; 00000010H
	je	$LN149@xmlRelaxNG
	mov	edx, DWORD PTR [ecx+20]
	mov	DWORD PTR _triage$1$[ebp], edx
	test	edx, edx
	je	$LN149@xmlRelaxNG
	test	eax, eax
	je	$LN149@xmlRelaxNG

; 10349: 		    (node != NULL)) {
; 10350: 		    /*
; 10351: 		     * node == NULL can't be optimized since IS_TRIABLE
; 10352: 		     * doesn't account for choice which may lead to
; 10353: 		     * only attributes.
; 10354: 		     */
; 10355:                     xmlHashTablePtr triage =
; 10356:                         (xmlHashTablePtr) define->data;
; 10357: 
; 10358:                     /*
; 10359:                      * Something we can optimize cleanly there is only one
; 10360:                      * possble branch out !
; 10361:                      */
; 10362:                     if ((node->type == XML_TEXT_NODE) ||

	mov	ecx, DWORD PTR [eax+4]
	cmp	ecx, 3
	je	SHORT $LN152@xmlRelaxNG
	cmp	ecx, 4
	je	SHORT $LN152@xmlRelaxNG

; 10365:                             xmlHashLookup2(triage, BAD_CAST "#text", NULL);
; 10366:                     } else if (node->type == XML_ELEMENT_NODE) {

	cmp	ecx, 1
	jne	SHORT $LN418@xmlRelaxNG

; 10367:                         if (node->ns != NULL) {

	mov	ecx, DWORD PTR [eax+36]
	test	ecx, ecx
	je	SHORT $LN154@xmlRelaxNG

; 10368:                             list = xmlHashLookup2(triage, node->name,

	push	DWORD PTR [ecx+8]
	push	DWORD PTR [eax+8]
	push	edx
	call	_xmlHashLookup2
	add	esp, 12					; 0000000cH

; 10369:                                                   node->ns->href);
; 10370:                             if (list == NULL)

	test	eax, eax
	jne	SHORT $LN158@xmlRelaxNG

; 10371:                                 list =

	mov	eax, DWORD PTR _node$2$[ebp]
	mov	ecx, OFFSET ??_C@_04IAJCOJMF@?$CDany@

; 10372:                                     xmlHashLookup2(triage, BAD_CAST "#any",
; 10373:                                                    node->ns->href);
; 10374:                         } else

	mov	edx, DWORD PTR _triage$1$[ebp]
	mov	eax, DWORD PTR [eax+36]
	mov	eax, DWORD PTR [eax+8]
	jmp	SHORT $LN155@xmlRelaxNG
$LN154@xmlRelaxNG:

; 10375:                             list =

	mov	ecx, DWORD PTR [eax+8]
	xor	eax, eax
$LN155@xmlRelaxNG:

; 10376:                                 xmlHashLookup2(triage, node->name, NULL);
; 10377:                         if (list == NULL)

	push	eax
	push	ecx
	push	edx
	call	_xmlHashLookup2
	add	esp, 12					; 0000000cH
	test	eax, eax
	jne	SHORT $LN158@xmlRelaxNG

; 10378:                             list =

	mov	edx, DWORD PTR _triage$1$[ebp]
	mov	eax, OFFSET ??_C@_04IAJCOJMF@?$CDany@
	jmp	SHORT $LN157@xmlRelaxNG
$LN152@xmlRelaxNG:

; 10363:                         (node->type == XML_CDATA_SECTION_NODE)) {
; 10364:                         list =

	mov	eax, OFFSET ??_C@_05NOBOONOA@?$CDtext@
$LN157@xmlRelaxNG:

; 10379:                                 xmlHashLookup2(triage, BAD_CAST "#any",
; 10380:                                                NULL);
; 10381:                     }
; 10382:                     if (list == NULL) {

	push	0
	push	eax
	push	edx
	call	_xmlHashLookup2
	add	esp, 12					; 0000000cH
	test	eax, eax
	jne	SHORT $LN158@xmlRelaxNG
	mov	eax, DWORD PTR _node$2$[ebp]
$LN418@xmlRelaxNG:

; 10383:                         ret = -1;
; 10384: 			VALID_ERR2(XML_RELAXNG_ERR_ELEMWRONG, node->name);

	push	0
	push	0
	push	DWORD PTR [eax+8]
	or	ebx, -1
	push	38					; 00000026H
	push	esi
	call	_xmlRelaxNGAddValidError
	add	esp, 20					; 00000014H

; 10605: #ifdef DEBUG
; 10606:     for (i = 0; i < ctxt->depth; i++)
; 10607:         xmlGenericError(xmlGenericErrorContext, " ");
; 10608:     xmlGenericError(xmlGenericErrorContext,
; 10609:                     "Validating %s ", xmlRelaxNGDefName(define));
; 10610:     if (define->name != NULL)
; 10611:         xmlGenericError(xmlGenericErrorContext, "%s ", define->name);
; 10612:     if (ret == 0)
; 10613:         xmlGenericError(xmlGenericErrorContext, "suceeded\n");
; 10614:     else
; 10615:         xmlGenericError(xmlGenericErrorContext, "failed\n");
; 10616: #endif
; 10617:     return (ret);

	mov	eax, ebx
	dec	DWORD PTR [esi+32]
	pop	edi

; 10618: }

	pop	esi
	pop	ebx
	mov	esp, ebp
	pop	ebp
	ret	0
$LN158@xmlRelaxNG:

; 10385:                         break;
; 10386:                     }
; 10387:                     ret = xmlRelaxNGValidateDefinition(ctxt, list);

	push	eax
	push	esi
	call	_xmlRelaxNGValidateDefinition
	add	esp, 8
	mov	ebx, eax

; 10602:             break;
; 10603:     }
; 10604:     ctxt->depth--;

	dec	DWORD PTR [esi+32]
	pop	edi

; 10618: }

	pop	esi
	pop	ebx
	mov	esp, ebp
	pop	ebp
	ret	0
$LN149@xmlRelaxNG:

; 10388:                     if (ret == 0) {
; 10389:                     }
; 10390:                     break;
; 10391:                 }
; 10392: 
; 10393:                 list = define->content;
; 10394:                 oldflags = ctxt->flags;

	mov	eax, DWORD PTR [esi+28]
	mov	ecx, DWORD PTR [ecx+24]
	mov	DWORD PTR _oldflags$4$[ebp], eax

; 10395:                 ctxt->flags |= FLAGS_IGNORABLE;

	or	eax, 1
	mov	DWORD PTR _list$2$[ebp], ecx
	mov	DWORD PTR [esi+28], eax

; 10396: 
; 10397:                 while (list != NULL) {

	test	ecx, ecx
	je	$LN434@xmlRelaxNG

; 10312: 				if (states == NULL) {

	mov	ecx, DWORD PTR [esi+60]
$LL40@xmlRelaxNG:

; 10398:                     oldstate = xmlRelaxNGCopyValidState(ctxt, ctxt->state);

	push	ecx
	push	esi
	call	_xmlRelaxNGCopyValidState

; 10399:                     ret = xmlRelaxNGValidateDefinition(ctxt, list);

	push	DWORD PTR _list$2$[ebp]
	mov	DWORD PTR $T1[ebp], eax
	push	esi
	call	_xmlRelaxNGValidateDefinition
	mov	ebx, eax
	add	esp, 16					; 00000010H
	mov	DWORD PTR _ret$1$[ebp], ebx

; 10400:                     if (ret == 0) {

	test	ebx, ebx
	jne	SHORT $LN160@xmlRelaxNG

; 10401:                         if (states == NULL) {

	test	edi, edi
	jne	SHORT $LN162@xmlRelaxNG

; 10402:                             states = xmlRelaxNGNewStates(ctxt, 1);

	push	1
	push	esi
	call	_xmlRelaxNGNewStates
	mov	edi, eax
	add	esp, 8
	mov	DWORD PTR $T2[ebp], edi
$LN162@xmlRelaxNG:

; 10403:                         }
; 10404:                         if (ctxt->state != NULL) {

	mov	eax, DWORD PTR [esi+60]
	test	eax, eax
	je	SHORT $LN163@xmlRelaxNG

; 10405:                             xmlRelaxNGAddStates(ctxt, states, ctxt->state);

	push	eax
	push	edi
	push	esi
	call	_xmlRelaxNGAddStates
	add	esp, 12					; 0000000cH
	jmp	SHORT $LN161@xmlRelaxNG
$LN163@xmlRelaxNG:

; 10406:                         } else if (ctxt->states != NULL) {

	mov	eax, DWORD PTR [esi+64]
	test	eax, eax
	je	SHORT $LN161@xmlRelaxNG

; 10407:                             for (i = 0; i < ctxt->states->nbState; i++) {

	xor	edi, edi
	cmp	DWORD PTR [eax], edi
	jle	SHORT $LN43@xmlRelaxNG
	mov	ebx, DWORD PTR $T2[ebp]
	npad	8
$LL44@xmlRelaxNG:

; 10408:                                 xmlRelaxNGAddStates(ctxt, states,

	mov	eax, DWORD PTR [esi+64]
	mov	eax, DWORD PTR [eax+8]
	push	DWORD PTR [eax+edi*4]
	push	ebx
	push	esi
	call	_xmlRelaxNGAddStates
	mov	eax, DWORD PTR [esi+64]
	inc	edi
	add	esp, 12					; 0000000cH
	cmp	edi, DWORD PTR [eax]
	jl	SHORT $LL44@xmlRelaxNG
	mov	ebx, DWORD PTR _ret$1$[ebp]
$LN43@xmlRelaxNG:

; 10409:                                                     ctxt->states->
; 10410:                                                     tabState[i]);
; 10411:                             }
; 10412:                             xmlRelaxNGFreeStates(ctxt, ctxt->states);

	push	eax
	push	esi
	call	_xmlRelaxNGFreeStates

; 10413:                             ctxt->states = NULL;

	mov	DWORD PTR [esi+64], 0

; 10414:                         }
; 10415:                     } else {

	jmp	SHORT $LN441@xmlRelaxNG
$LN160@xmlRelaxNG:

; 10416:                         xmlRelaxNGFreeValidState(ctxt, ctxt->state);

	push	DWORD PTR [esi+60]
	push	esi
	call	_xmlRelaxNGFreeValidState
$LN441@xmlRelaxNG:

; 10417:                     }
; 10418:                     ctxt->state = oldstate;

	add	esp, 8
$LN161@xmlRelaxNG:

; 10419:                     list = list->next;

	mov	eax, DWORD PTR _list$2$[ebp]
	mov	ecx, DWORD PTR $T1[ebp]
	mov	edi, DWORD PTR $T2[ebp]
	mov	DWORD PTR [esi+60], ecx
	mov	eax, DWORD PTR [eax+32]
	mov	DWORD PTR _list$2$[ebp], eax
	test	eax, eax
	jne	$LL40@xmlRelaxNG

; 10396: 
; 10397:                 while (list != NULL) {

	jmp	SHORT $LN41@xmlRelaxNG
$LN434@xmlRelaxNG:
	xor	ecx, ecx
$LN41@xmlRelaxNG:

; 10420:                 }
; 10421:                 if (states != NULL) {

	test	edi, edi
	je	SHORT $LN166@xmlRelaxNG

; 10422:                     xmlRelaxNGFreeValidState(ctxt, oldstate);

	push	ecx
	push	esi
	call	_xmlRelaxNGFreeValidState
	add	esp, 8

; 10423:                     ctxt->states = states;
; 10424:                     ctxt->state = NULL;

	mov	DWORD PTR [esi+60], 0

; 10425:                     ret = 0;

	xor	ebx, ebx

; 10426:                 } else {

	jmp	SHORT $LN167@xmlRelaxNG
$LN166@xmlRelaxNG:

; 10427:                     ctxt->states = NULL;

	xor	edi, edi
$LN167@xmlRelaxNG:

; 10428:                 }
; 10429:                 ctxt->flags = oldflags;

	mov	eax, DWORD PTR _oldflags$4$[ebp]
	mov	DWORD PTR [esi+64], edi
	mov	DWORD PTR [esi+28], eax

; 10430:                 if (ret != 0) {

	test	ebx, ebx
	je	SHORT $LN168@xmlRelaxNG

; 10431:                     if ((ctxt->flags & FLAGS_IGNORABLE) == 0) {

	test	al, 1

; 10432:                         xmlRelaxNGDumpValidError(ctxt);
; 10433:                     }
; 10434:                 } else {

	jmp	$LN446@xmlRelaxNG
$LN168@xmlRelaxNG:

; 10435:                     if (ctxt->errNr > errNr)

	mov	eax, DWORD PTR _errNr$5$[ebp]

; 10436:                         xmlRelaxNGPopErrors(ctxt, errNr);
; 10437:                 }
; 10438:                 break;

	jmp	$LN447@xmlRelaxNG
$LN172@xmlRelaxNG:

; 10439:             }
; 10440:         case XML_RELAXNG_DEF:
; 10441:         case XML_RELAXNG_GROUP:
; 10442:             ret = xmlRelaxNGValidateDefinitionList(ctxt, define->content);

	push	DWORD PTR [edi+24]
	push	esi
	call	_xmlRelaxNGValidateDefinitionList
	add	esp, 8
	mov	ebx, eax

; 10602:             break;
; 10603:     }
; 10604:     ctxt->depth--;

	dec	DWORD PTR [esi+32]
	pop	edi

; 10618: }

	pop	esi
	pop	ebx
	mov	esp, ebp
	pop	ebp
	ret	0
$LN173@xmlRelaxNG:

; 10443:             break;
; 10444:         case XML_RELAXNG_INTERLEAVE:
; 10445:             ret = xmlRelaxNGValidateInterleave(ctxt, define);

	push	edi
	push	esi
	call	_xmlRelaxNGValidateInterleave
	add	esp, 8
	mov	ebx, eax

; 10602:             break;
; 10603:     }
; 10604:     ctxt->depth--;

	dec	DWORD PTR [esi+32]
	pop	edi

; 10618: }

	pop	esi
	pop	ebx
	mov	esp, ebp
	pop	ebp
	ret	0
$LN174@xmlRelaxNG:

; 10446:             break;
; 10447:         case XML_RELAXNG_ATTRIBUTE:
; 10448:             ret = xmlRelaxNGValidateAttribute(ctxt, define);

	push	edi
	push	esi
	call	_xmlRelaxNGValidateAttribute
	add	esp, 8
	mov	ebx, eax

; 10602:             break;
; 10603:     }
; 10604:     ctxt->depth--;

	dec	DWORD PTR [esi+32]
	pop	edi

; 10618: }

	pop	esi
	pop	ebx
	mov	esp, ebp
	pop	ebp
	ret	0
$LN175@xmlRelaxNG:

; 10449:             break;
; 10450:         case XML_RELAXNG_START:
; 10451:         case XML_RELAXNG_NOOP:
; 10452:         case XML_RELAXNG_REF:
; 10453:         case XML_RELAXNG_EXTERNALREF:
; 10454:         case XML_RELAXNG_PARENTREF:
; 10455:             ret = xmlRelaxNGValidateDefinition(ctxt, define->content);

	push	DWORD PTR [edi+24]
	push	esi
	call	_xmlRelaxNGValidateDefinition
	add	esp, 8
	mov	ebx, eax

; 10602:             break;
; 10603:     }
; 10604:     ctxt->depth--;

	dec	DWORD PTR [esi+32]
	pop	edi

; 10618: }

	pop	esi
	pop	ebx
	mov	esp, ebp
	pop	ebp
	ret	0
$LN176@xmlRelaxNG:

; 10456:             break;
; 10457:         case XML_RELAXNG_DATATYPE:{
; 10458:                 xmlNodePtr child;
; 10459:                 xmlChar *content = NULL;

	xor	edx, edx

; 10460: 
; 10461:                 child = node;

	mov	edi, ecx
	mov	DWORD PTR _content$1$[ebp], edx

; 10462:                 while (child != NULL) {

	test	ecx, ecx
	je	SHORT $LN419@xmlRelaxNG
$LL45@xmlRelaxNG:

; 10463:                     if (child->type == XML_ELEMENT_NODE) {

	mov	eax, DWORD PTR [edi+4]
	cmp	eax, 1
	je	SHORT $LN358@xmlRelaxNG

; 10465:                                    node->parent->name);
; 10466:                         ret = -1;
; 10467:                         break;
; 10468:                     } else if ((child->type == XML_TEXT_NODE) ||

	cmp	eax, 3
	je	SHORT $LN180@xmlRelaxNG
	cmp	eax, 4
	jne	SHORT $LN179@xmlRelaxNG
$LN180@xmlRelaxNG:

; 10469:                                (child->type == XML_CDATA_SECTION_NODE)) {
; 10470:                         content = xmlStrcat(content, child->content);

	push	DWORD PTR [edi+40]
	push	edx
	call	_xmlStrcat
	mov	edx, eax
	add	esp, 8
	mov	DWORD PTR _content$1$[ebp], edx
$LN179@xmlRelaxNG:

; 10471:                     }
; 10472:                     /* TODO: handle entities ... */
; 10473:                     child = child->next;

	mov	edi, DWORD PTR [edi+24]
	test	edi, edi
	jne	SHORT $LL45@xmlRelaxNG

; 10474:                 }
; 10475:                 if (ret == -1) {
; 10476:                     if (content != NULL)
; 10477:                         xmlFree(content);
; 10478:                     break;
; 10479:                 }
; 10480:                 if (content == NULL) {

	test	edx, edx
	jne	SHORT $LN184@xmlRelaxNG
$LN419@xmlRelaxNG:

; 10481:                     content = xmlStrdup(BAD_CAST "");

	push	OFFSET ??_C@_00CNPNBAHC@@
	call	_xmlStrdup
	mov	edx, eax
	add	esp, 4
	mov	DWORD PTR _content$1$[ebp], edx

; 10482:                     if (content == NULL) {

	test	edx, edx
	jne	SHORT $LN184@xmlRelaxNG
$LN442@xmlRelaxNG:

; 10602:             break;
; 10603:     }
; 10604:     ctxt->depth--;

	push	OFFSET ??_C@_0M@PEGDIBJJ@validating?6@
	push	esi
	call	_xmlRngVErrMemory
	add	esp, 8
	or	ebx, -1
	dec	DWORD PTR [esi+32]

; 10605: #ifdef DEBUG
; 10606:     for (i = 0; i < ctxt->depth; i++)
; 10607:         xmlGenericError(xmlGenericErrorContext, " ");
; 10608:     xmlGenericError(xmlGenericErrorContext,
; 10609:                     "Validating %s ", xmlRelaxNGDefName(define));
; 10610:     if (define->name != NULL)
; 10611:         xmlGenericError(xmlGenericErrorContext, "%s ", define->name);
; 10612:     if (ret == 0)
; 10613:         xmlGenericError(xmlGenericErrorContext, "suceeded\n");
; 10614:     else
; 10615:         xmlGenericError(xmlGenericErrorContext, "failed\n");
; 10616: #endif
; 10617:     return (ret);

	mov	eax, ebx
	pop	edi

; 10618: }

	pop	esi
	pop	ebx
	mov	esp, ebp
	pop	ebp
	ret	0
$LN358@xmlRelaxNG:

; 10464:                         VALID_ERR2(XML_RELAXNG_ERR_DATAELEM,

	mov	eax, DWORD PTR _node$3$[ebp]
	push	0
	push	0
	mov	eax, DWORD PTR [eax+20]
	push	DWORD PTR [eax+8]
	push	28					; 0000001cH
$LN449@xmlRelaxNG:

; 10602:             break;
; 10603:     }
; 10604:     ctxt->depth--;

	push	esi
	call	_xmlRelaxNGAddValidError
	add	esp, 20					; 00000014H
	or	ebx, -1
$LN187@xmlRelaxNG:
	mov	eax, DWORD PTR _content$1$[ebp]
$LN451@xmlRelaxNG:
	test	eax, eax
	je	$LN2@xmlRelaxNG
	push	eax
$LN450@xmlRelaxNG:
	call	DWORD PTR _xmlFree
	add	esp, 4

; 10605: #ifdef DEBUG
; 10606:     for (i = 0; i < ctxt->depth; i++)
; 10607:         xmlGenericError(xmlGenericErrorContext, " ");
; 10608:     xmlGenericError(xmlGenericErrorContext,
; 10609:                     "Validating %s ", xmlRelaxNGDefName(define));
; 10610:     if (define->name != NULL)
; 10611:         xmlGenericError(xmlGenericErrorContext, "%s ", define->name);
; 10612:     if (ret == 0)
; 10613:         xmlGenericError(xmlGenericErrorContext, "suceeded\n");
; 10614:     else
; 10615:         xmlGenericError(xmlGenericErrorContext, "failed\n");
; 10616: #endif
; 10617:     return (ret);

	mov	eax, ebx
	dec	DWORD PTR [esi+32]
	pop	edi

; 10618: }

	pop	esi
	pop	ebx
	mov	esp, ebp
	pop	ebp
	ret	0
$LN184@xmlRelaxNG:

; 10483:                         xmlRngVErrMemory(ctxt, "validating\n");
; 10484:                         ret = -1;
; 10485:                         break;
; 10486:                     }
; 10487:                 }
; 10488:                 ret = xmlRelaxNGValidateDatatype(ctxt, content, define,

	mov	eax, DWORD PTR [esi+60]
	mov	edi, DWORD PTR _define$[ebp]
	push	DWORD PTR [eax+4]
	push	edi
	push	edx
	push	esi
	call	_xmlRelaxNGValidateDatatype
	mov	ebx, eax
	add	esp, 16					; 00000010H

; 10489:                                                  ctxt->state->seq);
; 10490:                 if (ret == -1) {

	cmp	ebx, -1
	jne	SHORT $LN185@xmlRelaxNG

; 10491:                     VALID_ERR2(XML_RELAXNG_ERR_DATATYPE, define->name);

	push	0
	push	0
	push	DWORD PTR [edi+8]
	push	31					; 0000001fH
	push	esi
	call	_xmlRelaxNGAddValidError
	add	esp, 20					; 00000014H
	jmp	SHORT $LN187@xmlRelaxNG
$LN185@xmlRelaxNG:

; 10602:             break;
; 10603:     }
; 10604:     ctxt->depth--;

	test	ebx, ebx
	jne	SHORT $LN187@xmlRelaxNG
	mov	eax, DWORD PTR [esi+60]
	mov	DWORD PTR [eax+4], ebx
	jmp	SHORT $LN187@xmlRelaxNG
$LN189@xmlRelaxNG:

; 10492:                 } else if (ret == 0) {
; 10493:                     ctxt->state->seq = NULL;
; 10494:                 }
; 10495:                 if (content != NULL)
; 10496:                     xmlFree(content);
; 10497:                 break;
; 10498:             }
; 10499:         case XML_RELAXNG_VALUE:{
; 10500:                 xmlChar *content = NULL;

	xor	edx, edx

; 10501:                 xmlChar *oldvalue;
; 10502:                 xmlNodePtr child;
; 10503: 
; 10504:                 child = node;

	mov	edi, ecx
	mov	DWORD PTR _content$1$[ebp], edx

; 10505:                 while (child != NULL) {

	test	ecx, ecx
	je	SHORT $LN421@xmlRelaxNG
	npad	7
$LL47@xmlRelaxNG:

; 10506:                     if (child->type == XML_ELEMENT_NODE) {

	mov	eax, DWORD PTR [edi+4]
	cmp	eax, 1
	je	$LN359@xmlRelaxNG

; 10508:                                    node->parent->name);
; 10509:                         ret = -1;
; 10510:                         break;
; 10511:                     } else if ((child->type == XML_TEXT_NODE) ||

	cmp	eax, 3
	je	SHORT $LN193@xmlRelaxNG
	cmp	eax, 4
	jne	SHORT $LN192@xmlRelaxNG
$LN193@xmlRelaxNG:

; 10512:                                (child->type == XML_CDATA_SECTION_NODE)) {
; 10513:                         content = xmlStrcat(content, child->content);

	push	DWORD PTR [edi+40]
	push	edx
	call	_xmlStrcat
	mov	edx, eax
	add	esp, 8
	mov	DWORD PTR _content$1$[ebp], edx
$LN192@xmlRelaxNG:

; 10514:                     }
; 10515:                     /* TODO: handle entities ... */
; 10516:                     child = child->next;

	mov	edi, DWORD PTR [edi+24]
	test	edi, edi
	jne	SHORT $LL47@xmlRelaxNG

; 10522:                 }
; 10523:                 if (content == NULL) {

	test	edx, edx
	jne	SHORT $LN197@xmlRelaxNG
$LN421@xmlRelaxNG:

; 10524:                     content = xmlStrdup(BAD_CAST "");

	push	OFFSET ??_C@_00CNPNBAHC@@
	call	_xmlStrdup
	mov	edx, eax
	add	esp, 4
	mov	DWORD PTR _content$1$[ebp], edx

; 10525:                     if (content == NULL) {

	test	edx, edx
	je	$LN442@xmlRelaxNG
$LN197@xmlRelaxNG:

; 10526:                         xmlRngVErrMemory(ctxt, "validating\n");
; 10527:                         ret = -1;
; 10528:                         break;
; 10529:                     }
; 10530:                 }
; 10531:                 oldvalue = ctxt->state->value;

	mov	eax, DWORD PTR [esi+60]

; 10532:                 ctxt->state->value = content;
; 10533:                 ret = xmlRelaxNGValidateValue(ctxt, define);

	push	DWORD PTR _define$[ebp]
	push	esi
	mov	edi, DWORD PTR [eax+20]
	mov	DWORD PTR [eax+20], edx
	call	_xmlRelaxNGValidateValue
	mov	ebx, eax
	add	esp, 8

; 10534:                 ctxt->state->value = oldvalue;

	mov	eax, DWORD PTR [esi+60]
	mov	DWORD PTR [eax+20], edi

; 10535:                 if (ret == -1) {

	cmp	ebx, -1
	jne	$LN185@xmlRelaxNG

; 10536:                     VALID_ERR2(XML_RELAXNG_ERR_VALUE, define->name);

	mov	eax, DWORD PTR _define$[ebp]
	push	0
	push	0
	push	DWORD PTR [eax+8]
	push	32					; 00000020H
	push	esi
	call	_xmlRelaxNGAddValidError
	add	esp, 20					; 00000014H
	jmp	$LN187@xmlRelaxNG
$LN359@xmlRelaxNG:

; 10507:                         VALID_ERR2(XML_RELAXNG_ERR_VALELEM,

	mov	eax, DWORD PTR _node$3$[ebp]
	push	0
	push	0
	mov	eax, DWORD PTR [eax+20]
	push	DWORD PTR [eax+8]
	push	29					; 0000001dH

; 10517:                 }
; 10518:                 if (ret == -1) {
; 10519:                     if (content != NULL)
; 10520:                         xmlFree(content);
; 10521:                     break;

	jmp	$LN449@xmlRelaxNG
$LN202@xmlRelaxNG:

; 10537:                 } else if (ret == 0) {
; 10538:                     ctxt->state->seq = NULL;
; 10539:                 }
; 10540:                 if (content != NULL)
; 10541:                     xmlFree(content);
; 10542:                 break;
; 10543:             }
; 10544:         case XML_RELAXNG_LIST:{
; 10545:                 xmlChar *content;
; 10546:                 xmlNodePtr child;
; 10547:                 xmlChar *oldvalue, *oldendvalue;
; 10548:                 int len;
; 10549: 
; 10550:                 /*
; 10551:                  * Make sure it's only text nodes
; 10552:                  */
; 10553: 
; 10554:                 content = NULL;

	xor	eax, eax

; 10555:                 child = node;

	mov	edi, ecx
	mov	DWORD PTR _content$1$[ebp], eax

; 10556:                 while (child != NULL) {

	test	ecx, ecx
	je	SHORT $LN423@xmlRelaxNG
	npad	5
$LL49@xmlRelaxNG:

; 10557:                     if (child->type == XML_ELEMENT_NODE) {

	mov	ecx, DWORD PTR [edi+4]
	cmp	ecx, 1
	je	$LN360@xmlRelaxNG

; 10559:                                    node->parent->name);
; 10560:                         ret = -1;
; 10561:                         break;
; 10562:                     } else if ((child->type == XML_TEXT_NODE) ||

	cmp	ecx, 3
	je	SHORT $LN206@xmlRelaxNG
	cmp	ecx, 4
	jne	SHORT $LN205@xmlRelaxNG
$LN206@xmlRelaxNG:

; 10563:                                (child->type == XML_CDATA_SECTION_NODE)) {
; 10564:                         content = xmlStrcat(content, child->content);

	push	DWORD PTR [edi+40]
	push	eax
	call	_xmlStrcat
	add	esp, 8
	mov	DWORD PTR _content$1$[ebp], eax
$LN205@xmlRelaxNG:

; 10565:                     }
; 10566:                     /* TODO: handle entities ... */
; 10567:                     child = child->next;

	mov	edi, DWORD PTR [edi+24]
	test	edi, edi
	jne	SHORT $LL49@xmlRelaxNG

; 10573:                 }
; 10574:                 if (content == NULL) {

	test	eax, eax
	jne	SHORT $LN210@xmlRelaxNG
$LN423@xmlRelaxNG:

; 10575:                     content = xmlStrdup(BAD_CAST "");

	push	OFFSET ??_C@_00CNPNBAHC@@
	call	_xmlStrdup
	add	esp, 4
	mov	DWORD PTR _content$1$[ebp], eax

; 10576:                     if (content == NULL) {

	test	eax, eax
	je	$LN442@xmlRelaxNG
$LN210@xmlRelaxNG:

; 10577:                         xmlRngVErrMemory(ctxt, "validating\n");
; 10578:                         ret = -1;
; 10579:                         break;
; 10580:                     }
; 10581:                 }
; 10582:                 len = xmlStrlen(content);

	push	eax
	call	_xmlStrlen

; 10583:                 oldvalue = ctxt->state->value;

	mov	ecx, DWORD PTR [esi+60]

; 10584:                 oldendvalue = ctxt->state->endvalue;
; 10585:                 ctxt->state->value = content;

	mov	edx, DWORD PTR _content$1$[ebp]

; 10586:                 ctxt->state->endvalue = content + len;
; 10587:                 ret = xmlRelaxNGValidateValue(ctxt, define);

	push	DWORD PTR _define$[ebp]
	mov	edi, DWORD PTR [ecx+20]
	mov	ebx, DWORD PTR [ecx+24]
	mov	DWORD PTR [ecx+20], edx
	lea	ecx, DWORD PTR [eax+edx]
	mov	eax, DWORD PTR [esi+60]
	push	esi
	mov	DWORD PTR [eax+24], ecx
	call	_xmlRelaxNGValidateValue
	mov	DWORD PTR _ret$1$[ebp], eax
	add	esp, 12					; 0000000cH

; 10588:                 ctxt->state->value = oldvalue;

	mov	eax, DWORD PTR [esi+60]
	mov	DWORD PTR [eax+20], edi

; 10589:                 ctxt->state->endvalue = oldendvalue;

	mov	eax, DWORD PTR [esi+60]
	mov	DWORD PTR [eax+24], ebx

; 10590:                 if (ret == -1) {

	mov	ebx, DWORD PTR _ret$1$[ebp]
	cmp	ebx, -1
	jne	SHORT $LN211@xmlRelaxNG

; 10591:                     VALID_ERR(XML_RELAXNG_ERR_LIST);

	push	0
	push	0
	push	0
	push	33					; 00000021H
	push	esi
	call	_xmlRelaxNGAddValidError

; 10594:                 }
; 10595:                 if (content != NULL)

	mov	eax, DWORD PTR _content$1$[ebp]
	add	esp, 20					; 00000014H

; 10596:                     xmlFree(content);
; 10597:                 break;

	jmp	$LN451@xmlRelaxNG
$LN360@xmlRelaxNG:

; 10558:                         VALID_ERR2(XML_RELAXNG_ERR_LISTELEM,

	mov	eax, DWORD PTR _node$3$[ebp]
	push	0
	push	0
	mov	eax, DWORD PTR [eax+20]
	push	DWORD PTR [eax+8]
	push	30					; 0000001eH
	push	esi
	call	_xmlRelaxNGAddValidError

; 10568:                 }
; 10569:                 if (ret == -1) {
; 10570:                     if (content != NULL)

	mov	edx, DWORD PTR _content$1$[ebp]
	add	esp, 20					; 00000014H
	or	ebx, -1
	test	edx, edx
	je	SHORT $LN2@xmlRelaxNG

; 10571:                         xmlFree(content);

	push	edx

; 10572:                     break;

	jmp	$LN450@xmlRelaxNG
$LN211@xmlRelaxNG:

; 10592:                 } else if ((ret == 0) && (node != NULL)) {

	test	ebx, ebx
	jne	SHORT $LN213@xmlRelaxNG
	mov	eax, DWORD PTR _node$3$[ebp]
	test	eax, eax
	je	SHORT $LN213@xmlRelaxNG

; 10593:                     ctxt->state->seq = node->next;

	mov	ecx, DWORD PTR [esi+60]
	mov	eax, DWORD PTR [eax+24]
	mov	DWORD PTR [ecx+4], eax
$LN213@xmlRelaxNG:

; 10594:                 }
; 10595:                 if (content != NULL)

	mov	eax, DWORD PTR _content$1$[ebp]

; 10596:                     xmlFree(content);
; 10597:                 break;

	jmp	$LN451@xmlRelaxNG
$LN215@xmlRelaxNG:

; 10598:             }
; 10599:         case XML_RELAXNG_EXCEPT:
; 10600:         case XML_RELAXNG_PARAM:
; 10601:             TODO ret = -1;

	call	___xmlGenericError
	mov	edi, eax
	call	___xmlGenericErrorContext
	push	10601					; 00002969H
	push	OFFSET ??_C@_0GJ@NFABHKPN@c?3?2users?2dag?2documents?2_clients@
	push	OFFSET ??_C@_0BO@MDEMDPPE@Unimplemented?5block?5at?5?$CFs?3?$CFd?6@
	push	DWORD PTR [eax]
	mov	eax, DWORD PTR [edi]
	call	eax
	add	esp, 16					; 00000010H
$LN55@xmlRelaxNG:

; 10602:             break;
; 10603:     }
; 10604:     ctxt->depth--;

	or	ebx, -1
$LN2@xmlRelaxNG:
	dec	DWORD PTR [esi+32]

; 10605: #ifdef DEBUG
; 10606:     for (i = 0; i < ctxt->depth; i++)
; 10607:         xmlGenericError(xmlGenericErrorContext, " ");
; 10608:     xmlGenericError(xmlGenericErrorContext,
; 10609:                     "Validating %s ", xmlRelaxNGDefName(define));
; 10610:     if (define->name != NULL)
; 10611:         xmlGenericError(xmlGenericErrorContext, "%s ", define->name);
; 10612:     if (ret == 0)
; 10613:         xmlGenericError(xmlGenericErrorContext, "suceeded\n");
; 10614:     else
; 10615:         xmlGenericError(xmlGenericErrorContext, "failed\n");
; 10616: #endif
; 10617:     return (ret);

	mov	eax, ebx
	pop	edi

; 10618: }

	pop	esi
	pop	ebx
	mov	esp, ebp
	pop	ebp
	ret	0
	npad	3
$LN454@xmlRelaxNG:
	DD	$LN175@xmlRelaxNG
	DD	$LN54@xmlRelaxNG
	DD	$LN55@xmlRelaxNG
	DD	$LN215@xmlRelaxNG
	DD	$LN337@xmlRelaxNG
	DD	$LN58@xmlRelaxNG
	DD	$LN176@xmlRelaxNG
	DD	$LN215@xmlRelaxNG
	DD	$LN189@xmlRelaxNG
	DD	$LN202@xmlRelaxNG
	DD	$LN174@xmlRelaxNG
	DD	$LN172@xmlRelaxNG
	DD	$LN175@xmlRelaxNG
	DD	$LN175@xmlRelaxNG
	DD	$LN175@xmlRelaxNG
	DD	$LN107@xmlRelaxNG
	DD	$LN118@xmlRelaxNG
	DD	$LN116@xmlRelaxNG
	DD	$LN148@xmlRelaxNG
	DD	$LN172@xmlRelaxNG
	DD	$LN173@xmlRelaxNG
	DD	$LN175@xmlRelaxNG
_xmlRelaxNGValidateState ENDP
_TEXT	ENDS
; Function compile flags: /Ogtp
; File c:\users\dag\documents\_clients\codeproject authors group\windows on arm\libxml2\libxml2-2.9.9\relaxng.c
;	COMDAT _xmlRelaxNGBestState
_TEXT	SEGMENT
_ctxt$ = 8						; size = 4
_xmlRelaxNGBestState PROC				; COMDAT

; 9758 : {

	push	ebp
	mov	ebp, esp
	push	ebx
	push	edi
	mov	ecx, OFFSET __49DBE4F2_relaxng@c
	call	@__CheckForDebuggerJustMyCode@4
	mov	edi, DWORD PTR _ctxt$[ebp]
	or	ecx, -1
	mov	edx, 1000000				; 000f4240H
	test	edi, edi
	je	SHORT $LN6@xmlRelaxNG

; 9759 :     xmlRelaxNGValidStatePtr state;
; 9760 :     int i, tmp;
; 9761 :     int best = -1;
; 9762 :     int value = 1000000;
; 9763 : 
; 9764 :     if ((ctxt == NULL) || (ctxt->states == NULL) ||

	mov	edi, DWORD PTR [edi+64]
	test	edi, edi
	je	SHORT $LN6@xmlRelaxNG
	mov	ebx, DWORD PTR [edi]
	test	ebx, ebx
	jle	SHORT $LN6@xmlRelaxNG

; 9769 :         state = ctxt->states->tabState[i];

	mov	edi, DWORD PTR [edi+8]
	xor	eax, eax
	push	esi
$LL4@xmlRelaxNG:
	mov	esi, DWORD PTR [edi]

; 9770 :         if (state == NULL)

	test	esi, esi
	je	SHORT $LN2@xmlRelaxNG

; 9771 :             continue;
; 9772 :         if (state->seq != NULL) {

	cmp	DWORD PTR [esi+4], 0
	je	SHORT $LN8@xmlRelaxNG

; 9773 :             if ((best == -1) || (value > 100000)) {

	cmp	ecx, -1
	je	SHORT $LN11@xmlRelaxNG
	cmp	edx, 100000				; 000186a0H
	jle	SHORT $LN2@xmlRelaxNG
$LN11@xmlRelaxNG:

; 9774 :                 value = 100000;

	mov	edx, 100000				; 000186a0H

; 9775 :                 best = i;
; 9776 :             }
; 9777 :         } else {

	jmp	SHORT $LN19@xmlRelaxNG
$LN8@xmlRelaxNG:

; 9778 :             tmp = state->nbAttrLeft;

	mov	esi, DWORD PTR [esi+16]

; 9779 :             if ((best == -1) || (value > tmp)) {

	cmp	ecx, -1
	je	SHORT $LN13@xmlRelaxNG
	cmp	edx, esi
	jle	SHORT $LN2@xmlRelaxNG
$LN13@xmlRelaxNG:

; 9780 :                 value = tmp;

	mov	edx, esi
$LN19@xmlRelaxNG:

; 9767 : 
; 9768 :     for (i = 0; i < ctxt->states->nbState; i++) {

	mov	ecx, eax
$LN2@xmlRelaxNG:
	inc	eax
	add	edi, 4
	cmp	eax, ebx
	jl	SHORT $LL4@xmlRelaxNG

; 9781 :                 best = i;
; 9782 :             }
; 9783 :         }
; 9784 :     }
; 9785 :     return (best);

	pop	esi
	pop	edi
	mov	eax, ecx

; 9786 : }

	pop	ebx
	pop	ebp
	ret	0
$LN6@xmlRelaxNG:
	pop	edi

; 9765 :         (ctxt->states->nbState <= 0))
; 9766 :         return (-1);

	or	eax, -1

; 9786 : }

	pop	ebx
	pop	ebp
	ret	0
_xmlRelaxNGBestState ENDP
_TEXT	ENDS
; Function compile flags: /Ogtp
; File c:\users\dag\documents\_clients\codeproject authors group\windows on arm\libxml2\libxml2-2.9.9\relaxng.c
;	COMDAT _xmlRelaxNGValidateDefinitionList
_TEXT	SEGMENT
_ctxt$ = 8						; size = 4
_defines$ = 12						; size = 4
_xmlRelaxNGValidateDefinitionList PROC			; COMDAT

; 9606 : {

	push	ebp
	mov	ebp, esp
	push	ebx
	push	esi
	mov	ecx, OFFSET __49DBE4F2_relaxng@c
	call	@__CheckForDebuggerJustMyCode@4
	mov	esi, DWORD PTR _defines$[ebp]
	xor	ebx, ebx
	test	esi, esi
	jne	SHORT $LN64@xmlRelaxNG

; 9607 :     int ret = 0, res;
; 9608 : 
; 9609 : 
; 9610 :     if (defines == NULL) {
; 9611 :         VALID_ERR2(XML_RELAXNG_ERR_INTERNAL,

	push	esi
	push	esi
	push	OFFSET ??_C@_0BF@BELJIEJG@NULL?5definition?5list@
	push	37					; 00000025H
	push	DWORD PTR _ctxt$[ebp]
	call	_xmlRelaxNGAddValidError
	add	esp, 20					; 00000014H

; 9612 :                    BAD_CAST "NULL definition list");
; 9613 :         return (-1);

	or	eax, -1
	pop	esi

; 9630 : }

	pop	ebx
	pop	ebp
	ret	0
$LN64@xmlRelaxNG:
	push	edi
	mov	edi, DWORD PTR _ctxt$[ebp]
$LL2@xmlRelaxNG:

; 9614 :     }
; 9615 :     while (defines != NULL) {
; 9616 :         if ((ctxt->state != NULL) || (ctxt->states != NULL)) {

	cmp	DWORD PTR [edi+60], 0
	jne	SHORT $LN7@xmlRelaxNG
	cmp	DWORD PTR [edi+64], 0
	je	SHORT $LN5@xmlRelaxNG
$LN7@xmlRelaxNG:

; 9617 :             res = xmlRelaxNGValidateDefinition(ctxt, defines);

	push	esi
	push	edi
	call	_xmlRelaxNGValidateDefinition
	add	esp, 8

; 9618 :             if (res < 0)

	mov	ecx, -1
	test	eax, eax
	cmovs	ebx, ecx

; 9623 :         }
; 9624 :         if (res == -1)          /* continues on -2 */

	cmp	eax, ecx
	je	SHORT $LN65@xmlRelaxNG

; 9625 :             break;
; 9626 :         defines = defines->next;

	mov	esi, DWORD PTR [esi+32]
	test	esi, esi
	jne	SHORT $LL2@xmlRelaxNG
$LN65@xmlRelaxNG:
	pop	edi
	pop	esi

; 9627 :     }
; 9628 : 
; 9629 :     return (ret);

	mov	eax, ebx

; 9630 : }

	pop	ebx
	pop	ebp
	ret	0
$LN5@xmlRelaxNG:

; 9619 :                 ret = -1;
; 9620 :         } else {
; 9621 :             VALID_ERR(XML_RELAXNG_ERR_NOSTATE);

	push	0
	push	0
	push	0
	push	6
	push	edi
	call	_xmlRelaxNGAddValidError
	add	esp, 20					; 00000014H

; 9622 :             return (-1);

	or	eax, -1
	pop	edi
	pop	esi

; 9630 : }

	pop	ebx
	pop	ebp
	ret	0
_xmlRelaxNGValidateDefinitionList ENDP
_TEXT	ENDS
; Function compile flags: /Ogtp
; File c:\users\dag\documents\_clients\codeproject authors group\windows on arm\libxml2\libxml2-2.9.9\relaxng.c
;	COMDAT _xmlRelaxNGValidateInterleave
_TEXT	SEGMENT
_errNr$1$ = -68						; size = 4
_start$1$ = -64						; size = 4
_lastelem$1$ = -60					; size = 4
_ret$1$ = -56						; size = 4
tv1976 = -52						; size = 4
tv1914 = -48						; size = 4
_cur$5$ = -44						; size = 4
_oldflags$1$ = -40					; size = 4
tv1918 = -36						; size = 4
_last$1$ = -32						; size = 4
_lasts$1$ = -28						; size = 4
_list$1$ = -24						; size = 4
_i$2$ = -20						; size = 4
_cur$4$ = -16						; size = 4
_found$1$ = -12						; size = 4
_nbgroups$1$ = -8					; size = 4
_oldstate$1$ = -4					; size = 4
_best$1$ = 8						; size = 4
_ctxt$ = 8						; size = 4
_partitions$1$ = 12					; size = 4
_define$ = 12						; size = 4
_xmlRelaxNGValidateInterleave PROC			; COMDAT

; 9311 : {

	push	ebp
	mov	ebp, esp
	sub	esp, 68					; 00000044H
	push	ebx
	push	esi
	mov	ecx, OFFSET __49DBE4F2_relaxng@c
	call	@__CheckForDebuggerJustMyCode@4
	mov	esi, DWORD PTR _ctxt$[ebp]
	xor	eax, eax
	xor	ebx, ebx
	mov	DWORD PTR _last$1$[ebp], 0
	mov	DWORD PTR _cur$5$[ebp], ebx
	mov	eax, DWORD PTR [esi+48]
	mov	DWORD PTR _errNr$1$[ebp], eax
	mov	eax, DWORD PTR _define$[ebp]
	mov	ebx, DWORD PTR [eax+20]
	mov	DWORD PTR _partitions$1$[ebp], ebx
	test	ebx, ebx
	je	$LN18@xmlRelaxNG

; 9312 :     int ret = 0, i, nbgroups;
; 9313 :     int errNr = ctxt->errNr;
; 9314 :     int oldflags;
; 9315 : 
; 9316 :     xmlRelaxNGValidStatePtr oldstate;
; 9317 :     xmlRelaxNGPartitionPtr partitions;
; 9318 :     xmlRelaxNGInterleaveGroupPtr group = NULL;
; 9319 :     xmlNodePtr cur, start, last = NULL, lastchg = NULL, lastelem;
; 9320 :     xmlNodePtr *list = NULL, *lasts = NULL;
; 9321 : 
; 9322 :     if (define->data != NULL) {
; 9323 :         partitions = (xmlRelaxNGPartitionPtr) define->data;
; 9324 :         nbgroups = partitions->nbgroups;

	test	BYTE PTR [eax+50], 8
	mov	ecx, DWORD PTR [ebx]

; 9328 :     }
; 9329 :     /*
; 9330 :      * Optimizations for MIXED
; 9331 :      */
; 9332 :     oldflags = ctxt->flags;

	mov	edx, DWORD PTR [esi+28]
	push	edi
	mov	DWORD PTR _nbgroups$1$[ebp], ecx
	mov	DWORD PTR _oldflags$1$[ebp], edx

; 9333 :     if (define->dflags & IS_MIXED) {

	je	SHORT $LN21@xmlRelaxNG

; 9334 :         ctxt->flags |= FLAGS_MIXED_CONTENT;

	mov	eax, edx
	or	eax, 4
	mov	DWORD PTR [esi+28], eax

; 9335 :         if (nbgroups == 2) {

	cmp	ecx, 2
	jne	SHORT $LN21@xmlRelaxNG

; 9336 :             /*
; 9337 :              * this is a pure <mixed> case
; 9338 :              */
; 9339 :             if (ctxt->state != NULL)

	mov	eax, DWORD PTR [esi+60]
	test	eax, eax
	je	SHORT $LN22@xmlRelaxNG

; 9340 :                 ctxt->state->seq = xmlRelaxNGSkipIgnored(ctxt,

	push	DWORD PTR [eax+4]
	push	esi
	call	_xmlRelaxNGSkipIgnored
	mov	ecx, DWORD PTR [esi+60]
	add	esp, 8
	mov	DWORD PTR [ecx+4], eax
$LN22@xmlRelaxNG:

; 9341 :                                                          ctxt->state->seq);
; 9342 :             if (partitions->groups[0]->rule->type == XML_RELAXNG_TEXT)

	mov	edx, DWORD PTR [ebx+12]
	mov	ecx, DWORD PTR [edx]
	mov	eax, DWORD PTR [ecx]
	cmp	DWORD PTR [eax], 3
	jne	SHORT $LN23@xmlRelaxNG

; 9343 :                 ret = xmlRelaxNGValidateDefinition(ctxt,

	mov	ecx, DWORD PTR [edx+4]
$LN23@xmlRelaxNG:

; 9344 :                                                    partitions->groups[1]->
; 9345 :                                                    rule);
; 9346 :             else
; 9347 :                 ret = xmlRelaxNGValidateDefinition(ctxt,
; 9348 :                                                    partitions->groups[0]->
; 9349 :                                                    rule);
; 9350 :             if (ret == 0) {

	mov	eax, DWORD PTR [ecx]
	push	eax
	push	esi
	call	_xmlRelaxNGValidateDefinition
	mov	edi, eax
	add	esp, 8
	test	edi, edi
	jne	SHORT $LN26@xmlRelaxNG

; 9351 :                 if (ctxt->state != NULL)

	mov	eax, DWORD PTR [esi+60]
	test	eax, eax
	je	SHORT $LN26@xmlRelaxNG

; 9352 :                     ctxt->state->seq = xmlRelaxNGSkipIgnored(ctxt,

	push	DWORD PTR [eax+4]
	push	esi
	call	_xmlRelaxNGSkipIgnored
	mov	ecx, DWORD PTR [esi+60]
	add	esp, 8
	mov	DWORD PTR [ecx+4], eax
$LN26@xmlRelaxNG:

; 9353 :                                                              ctxt->state->
; 9354 :                                                              seq);
; 9355 :             }
; 9356 :             ctxt->flags = oldflags;

	mov	eax, DWORD PTR _oldflags$1$[ebp]
	mov	DWORD PTR [esi+28], eax

; 9357 :             return (ret);

	mov	eax, edi
	pop	edi
	pop	esi

; 9592 : }

	pop	ebx
	mov	esp, ebp
	pop	ebp
	ret	0
$LN21@xmlRelaxNG:

; 9358 :         }
; 9359 :     }
; 9360 : 
; 9361 :     /*
; 9362 :      * Build arrays to store the first and last node of the chain
; 9363 :      * pertaining to each group
; 9364 :      */
; 9365 :     list = (xmlNodePtr *) xmlMalloc(nbgroups * sizeof(xmlNodePtr));

	lea	edi, DWORD PTR [ecx*4]
	push	edi
	call	DWORD PTR _xmlMalloc
	add	esp, 4
	mov	DWORD PTR _list$1$[ebp], eax

; 9366 :     if (list == NULL) {

	test	eax, eax
	jne	SHORT $LN27@xmlRelaxNG

; 480  :         if (ctxt->serror != NULL)

	mov	ecx, DWORD PTR [esi+12]
	test	ecx, ecx
	jne	SHORT $LN165@xmlRelaxNG

; 481  : 	    schannel = ctxt->serror;
; 482  : 	else
; 483  : 	    channel = ctxt->error;

	mov	eax, DWORD PTR [esi+4]
$LN165@xmlRelaxNG:

; 484  :         data = ctxt->userData;
; 485  :         ctxt->nbErrors++;
; 486  :     }
; 487  :     if (extra)
; 488  :         __xmlRaiseError(schannel, channel, data,

	push	OFFSET ??_C@_0M@PEGDIBJJ@validating?6@
	push	OFFSET ??_C@_0BP@DJFHNAOK@Memory?5allocation?5failed?5?3?5?$CFs?6@
	push	0
	push	0
	push	0
	push	0
	inc	DWORD PTR [esi+16]
	push	OFFSET ??_C@_0M@PEGDIBJJ@validating?6@
	push	0
	push	0
	push	3
	push	2
	push	19					; 00000013H
	push	0
	push	0
	push	DWORD PTR [esi]
	push	eax
	push	ecx
	call	___xmlRaiseError
	add	esp, 68					; 00000044H

; 9367 :         xmlRngVErrMemory(ctxt, "validating\n");
; 9368 :         return (-1);

	or	eax, -1
	pop	edi
	pop	esi

; 9592 : }

	pop	ebx
	mov	esp, ebp
	pop	ebp
	ret	0
$LN27@xmlRelaxNG:

; 9369 :     }
; 9370 :     memset(list, 0, nbgroups * sizeof(xmlNodePtr));

	push	edi
	push	0
	push	eax
	call	_memset

; 9371 :     lasts = (xmlNodePtr *) xmlMalloc(nbgroups * sizeof(xmlNodePtr));

	push	edi
	call	DWORD PTR _xmlMalloc
	add	esp, 16					; 00000010H
	mov	DWORD PTR _lasts$1$[ebp], eax

; 9372 :     if (lasts == NULL) {

	test	eax, eax
	jne	SHORT $LN28@xmlRelaxNG

; 9373 :         xmlRngVErrMemory(ctxt, "validating\n");

	push	OFFSET ??_C@_0M@PEGDIBJJ@validating?6@
	push	esi
	call	_xmlRngVErrMemory
	add	esp, 8
	or	eax, -1
	pop	edi
	pop	esi

; 9592 : }

	pop	ebx
	mov	esp, ebp
	pop	ebp
	ret	0
$LN28@xmlRelaxNG:

; 9374 :         return (-1);
; 9375 :     }
; 9376 :     memset(lasts, 0, nbgroups * sizeof(xmlNodePtr));

	push	edi
	push	0
	push	eax
	call	_memset

; 9377 : 
; 9378 :     /*
; 9379 :      * Walk the sequence of children finding the right group and
; 9380 :      * sorting them in sequences.
; 9381 :      */
; 9382 :     cur = ctxt->state->seq;

	mov	eax, DWORD PTR [esi+60]

; 9383 :     cur = xmlRelaxNGSkipIgnored(ctxt, cur);

	push	DWORD PTR [eax+4]
	push	esi
	call	_xmlRelaxNGSkipIgnored
	mov	ebx, eax
	mov	DWORD PTR _cur$4$[ebp], eax
	add	esp, 20					; 00000014H

; 9384 :     start = cur;

	mov	DWORD PTR _start$1$[ebp], ebx

; 9385 :     while (cur != NULL) {

	test	ebx, ebx
	je	$LN265@xmlRelaxNG
$LL2@xmlRelaxNG:

; 9386 :         ctxt->state->seq = cur;

	mov	eax, DWORD PTR [esi+60]
	mov	DWORD PTR [eax+4], ebx

; 9387 :         if ((partitions->triage != NULL) &&

	mov	eax, DWORD PTR _partitions$1$[ebp]
	mov	ecx, DWORD PTR [eax+4]
	test	ecx, ecx
	je	$LN29@xmlRelaxNG
	test	BYTE PTR [eax+8], 1
	je	$LN29@xmlRelaxNG

; 9388 :             (partitions->flags & IS_DETERMINIST)) {
; 9389 :             void *tmp = NULL;
; 9390 : 
; 9391 :             if ((cur->type == XML_TEXT_NODE) ||

	mov	eax, DWORD PTR [ebx+4]
	cmp	eax, 3
	je	SHORT $LN33@xmlRelaxNG
	cmp	eax, 4
	je	SHORT $LN33@xmlRelaxNG

; 9394 :                                      NULL);
; 9395 :             } else if (cur->type == XML_ELEMENT_NODE) {

	cmp	eax, 1
	jne	$LN266@xmlRelaxNG

; 9396 :                 if (cur->ns != NULL) {

	mov	eax, DWORD PTR [ebx+36]
	test	eax, eax
	je	SHORT $LN35@xmlRelaxNG

; 9397 :                     tmp = xmlHashLookup2(partitions->triage, cur->name,

	push	DWORD PTR [eax+8]
	push	DWORD PTR [ebx+8]
	push	ecx
	call	_xmlHashLookup2
	add	esp, 12					; 0000000cH

; 9398 :                                          cur->ns->href);
; 9399 :                     if (tmp == NULL)

	test	eax, eax
	jne	SHORT $LN39@xmlRelaxNG

; 9400 :                         tmp = xmlHashLookup2(partitions->triage,

	mov	edi, DWORD PTR _partitions$1$[ebp]
	mov	edx, OFFSET ??_C@_04IAJCOJMF@?$CDany@
	mov	eax, DWORD PTR [ebx+36]
	mov	ecx, DWORD PTR [edi+4]
	mov	eax, DWORD PTR [eax+8]

; 9401 :                                              BAD_CAST "#any",
; 9402 :                                              cur->ns->href);
; 9403 :                 } else

	jmp	SHORT $LN36@xmlRelaxNG
$LN35@xmlRelaxNG:

; 9404 :                     tmp =

	mov	edx, DWORD PTR [ebx+8]
	xor	eax, eax
	mov	edi, DWORD PTR _partitions$1$[ebp]
$LN36@xmlRelaxNG:

; 9405 :                         xmlHashLookup2(partitions->triage, cur->name,
; 9406 :                                        NULL);
; 9407 :                 if (tmp == NULL)

	push	eax
	push	edx
	push	ecx
	call	_xmlHashLookup2
	add	esp, 12					; 0000000cH
	test	eax, eax
	jne	SHORT $LN39@xmlRelaxNG

; 9408 :                     tmp =

	mov	ecx, DWORD PTR [edi+4]
	mov	eax, OFFSET ??_C@_04IAJCOJMF@?$CDany@
	jmp	SHORT $LN38@xmlRelaxNG
$LN33@xmlRelaxNG:

; 9392 :                 (cur->type == XML_CDATA_SECTION_NODE)) {
; 9393 :                 tmp = xmlHashLookup2(partitions->triage, BAD_CAST "#text",

	mov	eax, OFFSET ??_C@_05NOBOONOA@?$CDtext@
$LN38@xmlRelaxNG:

; 9409 :                         xmlHashLookup2(partitions->triage, BAD_CAST "#any",
; 9410 :                                        NULL);
; 9411 :             }
; 9412 : 
; 9413 :             if (tmp == NULL) {

	push	0
	push	eax
	push	ecx
	call	_xmlHashLookup2
	add	esp, 12					; 0000000cH
	test	eax, eax
	je	$LN266@xmlRelaxNG
$LN39@xmlRelaxNG:

; 9414 :                 i = nbgroups;
; 9415 :             } else {
; 9416 :                 i = ((ptrdiff_t) tmp) - 1;

	lea	edi, DWORD PTR [eax-1]

; 9417 :                 if (partitions->flags & IS_NEEDCHECK) {

	mov	eax, DWORD PTR _partitions$1$[ebp]
	test	BYTE PTR [eax+8], 2
	je	SHORT $LN226@xmlRelaxNG

; 9418 :                     group = partitions->groups[i];

	mov	eax, DWORD PTR [eax+12]
	mov	eax, DWORD PTR [eax+edi*4]

; 9419 :                     if (!xmlRelaxNGNodeMatchesList(cur, group->defs))

	push	DWORD PTR [eax+4]
	push	ebx
	call	_xmlRelaxNGNodeMatchesList
	add	esp, 8
	test	eax, eax
	je	SHORT $LN266@xmlRelaxNG
$LN226@xmlRelaxNG:

; 9429 :                     break;
; 9430 :             }
; 9431 :         }
; 9432 :         /*
; 9433 :          * We break as soon as an element not matched is found
; 9434 :          */
; 9435 :         if (i >= nbgroups) {

	cmp	edi, DWORD PTR _nbgroups$1$[ebp]
	jge	SHORT $LN266@xmlRelaxNG

; 9436 :             break;
; 9437 :         }
; 9438 :         if (lasts[i] != NULL) {

	mov	ecx, DWORD PTR _lasts$1$[ebp]
	mov	eax, DWORD PTR [ecx+edi*4]
	test	eax, eax
	je	SHORT $LN46@xmlRelaxNG

; 9439 :             lasts[i]->next = cur;

	mov	DWORD PTR [eax+24], ebx

; 9440 :             lasts[i] = cur;
; 9441 :         } else {

	jmp	SHORT $LN47@xmlRelaxNG
$LN29@xmlRelaxNG:

; 9420 :                         i = nbgroups;
; 9421 :                 }
; 9422 :             }
; 9423 :         } else {
; 9424 :             for (i = 0; i < nbgroups; i++) {

	xor	edi, edi
	cmp	DWORD PTR _nbgroups$1$[ebp], edi
	jle	SHORT $LN266@xmlRelaxNG
	npad	3
$LL6@xmlRelaxNG:

; 9425 :                 group = partitions->groups[i];

	mov	eax, DWORD PTR [eax+12]
	mov	eax, DWORD PTR [eax+edi*4]

; 9426 :                 if (group == NULL)

	test	eax, eax
	je	SHORT $LN4@xmlRelaxNG

; 9427 :                     continue;
; 9428 :                 if (xmlRelaxNGNodeMatchesList(cur, group->defs))

	push	DWORD PTR [eax+4]
	push	ebx
	call	_xmlRelaxNGNodeMatchesList
	add	esp, 8
	test	eax, eax
	jne	SHORT $LN226@xmlRelaxNG
$LN4@xmlRelaxNG:

; 9420 :                         i = nbgroups;
; 9421 :                 }
; 9422 :             }
; 9423 :         } else {
; 9424 :             for (i = 0; i < nbgroups; i++) {

	inc	edi
	cmp	edi, DWORD PTR _nbgroups$1$[ebp]
	jge	SHORT $LN266@xmlRelaxNG
	mov	eax, DWORD PTR _partitions$1$[ebp]
	jmp	SHORT $LL6@xmlRelaxNG
$LN46@xmlRelaxNG:

; 9442 :             list[i] = cur;

	mov	eax, DWORD PTR _list$1$[ebp]
	mov	DWORD PTR [eax+edi*4], ebx
$LN47@xmlRelaxNG:

; 9443 :             lasts[i] = cur;
; 9444 :         }
; 9445 :         if (cur->next != NULL)

	mov	DWORD PTR [ecx+edi*4], ebx
	mov	eax, DWORD PTR [ebx+24]
	test	eax, eax

; 9446 :             lastchg = cur->next;
; 9447 :         else
; 9448 :             lastchg = cur;
; 9449 :         cur = xmlRelaxNGSkipIgnored(ctxt, cur->next);

	push	eax
	cmovne	ebx, eax
	push	esi
	mov	DWORD PTR _cur$5$[ebp], ebx
	call	_xmlRelaxNGSkipIgnored
	mov	ebx, eax
	add	esp, 8
	test	ebx, ebx
	jne	$LL2@xmlRelaxNG
$LN266@xmlRelaxNG:
	mov	DWORD PTR _cur$4$[ebp], ebx
$LN265@xmlRelaxNG:

; 9457 :     oldstate = ctxt->state;
; 9458 :     for (i = 0; i < nbgroups; i++) {

	cmp	DWORD PTR _nbgroups$1$[ebp], 0
	mov	edi, DWORD PTR [esi+60]
	mov	DWORD PTR _lastelem$1$[ebp], ebx
	mov	DWORD PTR _oldstate$1$[ebp], edi
	mov	DWORD PTR _i$2$[ebp], 0
	jle	$LN270@xmlRelaxNG

; 9450 :     }
; 9451 :     if (ret != 0) {
; 9452 :         VALID_ERR(XML_RELAXNG_ERR_INTERSEQ);
; 9453 :         ret = -1;
; 9454 :         goto done;
; 9455 :     }
; 9456 :     lastelem = cur;

	mov	ebx, DWORD PTR _lasts$1$[ebp]
	mov	eax, DWORD PTR _list$1$[ebp]
	sub	eax, ebx
	mov	DWORD PTR tv1918[ebp], ebx
	mov	DWORD PTR tv1914[ebp], eax
$LL9@xmlRelaxNG:

; 9459 :         ctxt->state = xmlRelaxNGCopyValidState(ctxt, oldstate);

	push	edi
	push	esi
	call	_xmlRelaxNGCopyValidState
	mov	ecx, eax
	add	esp, 8
	mov	DWORD PTR [esi+60], ecx

; 9460 : 	if (ctxt->state == NULL) {

	test	ecx, ecx
	je	$LN57@xmlRelaxNG

; 9461 : 	    ret = -1;
; 9462 : 	    break;
; 9463 : 	}
; 9464 :         group = partitions->groups[i];

	mov	eax, DWORD PTR _partitions$1$[ebp]
	mov	edx, DWORD PTR _i$2$[ebp]
	mov	eax, DWORD PTR [eax+12]
	mov	edx, DWORD PTR [eax+edx*4]

; 9465 :         if (lasts[i] != NULL) {

	mov	eax, DWORD PTR [ebx]
	test	eax, eax
	je	SHORT $LN258@xmlRelaxNG

; 9466 :             last = lasts[i]->next;

	mov	ecx, DWORD PTR [eax+24]
	mov	DWORD PTR _last$1$[ebp], ecx

; 9467 :             lasts[i]->next = NULL;

	mov	DWORD PTR [eax+24], 0
	mov	ecx, DWORD PTR [esi+60]
$LN258@xmlRelaxNG:

; 9468 :         }
; 9469 :         ctxt->state->seq = list[i];

	mov	eax, DWORD PTR tv1914[ebp]
	mov	eax, DWORD PTR [eax+ebx]
	mov	DWORD PTR [ecx+4], eax

; 9470 :         ret = xmlRelaxNGValidateDefinition(ctxt, group->rule);

	push	DWORD PTR [edx]
	push	esi
	call	_xmlRelaxNGValidateDefinition
	mov	ebx, eax
	add	esp, 8
	mov	DWORD PTR _ret$1$[ebp], ebx

; 9471 :         if (ret != 0)

	test	ebx, ebx
	jne	$LN8@xmlRelaxNG

; 9472 :             break;
; 9473 :         if (ctxt->state != NULL) {

	mov	ecx, DWORD PTR [esi+60]
	test	ecx, ecx
	je	SHORT $LN54@xmlRelaxNG

; 9474 :             cur = ctxt->state->seq;
; 9475 :             cur = xmlRelaxNGSkipIgnored(ctxt, cur);

	push	DWORD PTR [ecx+4]
	push	esi
	call	_xmlRelaxNGSkipIgnored
	mov	ebx, eax

; 9476 :             xmlRelaxNGFreeValidState(ctxt, oldstate);

	push	edi
	push	esi
	mov	DWORD PTR _cur$4$[ebp], ebx
	call	_xmlRelaxNGFreeValidState

; 9477 :             oldstate = ctxt->state;

	mov	edi, DWORD PTR [esi+60]
	add	esp, 16					; 00000010H
	mov	DWORD PTR _oldstate$1$[ebp], edi

; 9478 :             ctxt->state = NULL;

	mov	DWORD PTR [esi+60], 0

; 9479 :             if (cur != NULL) {

	test	ebx, ebx
	je	$LN71@xmlRelaxNG

; 9480 :                 VALID_ERR2(XML_RELAXNG_ERR_INTEREXTRA, cur->name);

	push	0
	push	0
	push	DWORD PTR [ebx+8]
	push	12					; 0000000cH
	push	esi
	call	_xmlRelaxNGAddValidError
	add	esp, 20					; 00000014H

; 9481 :                 ret = -1;
; 9482 :                 ctxt->state = oldstate;

	mov	DWORD PTR [esi+60], edi

; 9483 :                 goto done;

	jmp	$LN213@xmlRelaxNG
$LN54@xmlRelaxNG:

; 9484 :             }
; 9485 :         } else if (ctxt->states != NULL) {

	mov	edx, DWORD PTR [esi+64]
	test	edx, edx
	je	$LN57@xmlRelaxNG

; 9486 :             int j;
; 9487 :             int found = 0;
; 9488 : 	    int best = -1;
; 9489 : 	    int lowattr = -1;
; 9490 : 
; 9491 : 	    /*
; 9492 : 	     * PBM: what happen if there is attributes checks in the interleaves
; 9493 : 	     */
; 9494 : 
; 9495 :             for (j = 0; j < ctxt->states->nbState; j++) {

	xor	ebx, ebx
	mov	DWORD PTR _found$1$[ebp], 0
	or	edi, -1
	mov	DWORD PTR _best$1$[ebp], -1
	cmp	DWORD PTR [edx], ebx
	jle	$LN267@xmlRelaxNG
$LL12@xmlRelaxNG:

; 9496 :                 cur = ctxt->states->tabState[j]->seq;

	mov	eax, DWORD PTR [edx+8]
	mov	eax, DWORD PTR [eax+ebx*4]

; 9497 :                 cur = xmlRelaxNGSkipIgnored(ctxt, cur);

	push	DWORD PTR [eax+4]
	push	esi
	call	_xmlRelaxNGSkipIgnored
	add	esp, 8
	mov	DWORD PTR _cur$4$[ebp], eax

; 9498 :                 if (cur == NULL) {

	test	eax, eax
	jne	SHORT $LN59@xmlRelaxNG

; 9499 : 		    if (found == 0) {

	mov	edx, DWORD PTR [esi+64]
	mov	ecx, DWORD PTR [edx+8]
	cmp	DWORD PTR _found$1$[ebp], eax
	jne	SHORT $LN61@xmlRelaxNG

; 9500 : 		        lowattr = ctxt->states->tabState[j]->nbAttrLeft;

	mov	eax, DWORD PTR [ecx+ebx*4]

; 9501 : 			best = j;

	mov	DWORD PTR _best$1$[ebp], ebx
	mov	edi, DWORD PTR [eax+16]
$LN61@xmlRelaxNG:

; 9502 : 		    }
; 9503 :                     found = 1;
; 9504 : 		    if (ctxt->states->tabState[j]->nbAttrLeft <= lowattr) {

	mov	eax, DWORD PTR [ecx+ebx*4]
	mov	DWORD PTR _found$1$[ebp], 1
	mov	ecx, DWORD PTR [eax+16]

; 9505 : 		        /* try  to keep the latest one to mach old heuristic */
; 9506 : 		        lowattr = ctxt->states->tabState[j]->nbAttrLeft;
; 9507 : 			best = j;
; 9508 : 		    }
; 9509 :                     if (lowattr == 0)

	cmp	ecx, edi
	mov	eax, ecx
	cmovg	eax, edi
	mov	DWORD PTR tv1976[ebp], eax
	mov	eax, ebx
	cmovg	eax, DWORD PTR _best$1$[ebp]
	mov	edi, DWORD PTR tv1976[ebp]
	mov	DWORD PTR _best$1$[ebp], eax
	test	edi, edi
	je	SHORT $LN267@xmlRelaxNG

; 9510 : 		        break;
; 9511 :                 } else if (found == 0) {

	mov	DWORD PTR _best$1$[ebp], eax
	jmp	SHORT $LN10@xmlRelaxNG
$LN59@xmlRelaxNG:
	cmp	DWORD PTR _found$1$[ebp], 0
	jne	SHORT $LN10@xmlRelaxNG

; 9512 :                     if (lowattr == -1) {

	mov	eax, DWORD PTR [esi+64]
	mov	eax, DWORD PTR [eax+8]
	mov	eax, DWORD PTR [eax+ebx*4]
	mov	eax, DWORD PTR [eax+16]
	cmp	edi, -1
	je	SHORT $LN272@xmlRelaxNG

; 9513 : 		        lowattr = ctxt->states->tabState[j]->nbAttrLeft;
; 9514 : 			best = j;
; 9515 : 		    } else
; 9516 : 		    if (ctxt->states->tabState[j]->nbAttrLeft <= lowattr)  {

	cmp	eax, edi
	jg	SHORT $LN10@xmlRelaxNG
$LN272@xmlRelaxNG:

; 9486 :             int j;
; 9487 :             int found = 0;
; 9488 : 	    int best = -1;
; 9489 : 	    int lowattr = -1;
; 9490 : 
; 9491 : 	    /*
; 9492 : 	     * PBM: what happen if there is attributes checks in the interleaves
; 9493 : 	     */
; 9494 : 
; 9495 :             for (j = 0; j < ctxt->states->nbState; j++) {

	mov	DWORD PTR _best$1$[ebp], ebx
	mov	edi, eax
$LN10@xmlRelaxNG:
	mov	edx, DWORD PTR [esi+64]
	inc	ebx
	cmp	ebx, DWORD PTR [edx]
	jl	$LL12@xmlRelaxNG
$LN267@xmlRelaxNG:

; 9517 : 		        /* try  to keep the latest one to mach old heuristic */
; 9518 : 		        lowattr = ctxt->states->tabState[j]->nbAttrLeft;
; 9519 : 			best = j;
; 9520 : 		    }
; 9521 : 		}
; 9522 :             }
; 9523 : 	    /*
; 9524 : 	     * BIG PBM: here we pick only one restarting point :-(
; 9525 : 	     */
; 9526 :             if (ctxt->states->nbState > 0) {

	cmp	DWORD PTR [edx], 0
	mov	ebx, DWORD PTR _oldstate$1$[ebp]
	jle	SHORT $LN70@xmlRelaxNG

; 9527 :                 xmlRelaxNGFreeValidState(ctxt, oldstate);

	push	ebx
	push	esi
	call	_xmlRelaxNGFreeValidState

; 9528 : 		if (best != -1) {

	mov	ecx, DWORD PTR _best$1$[ebp]
	add	esp, 8
	mov	eax, DWORD PTR [esi+64]
	cmp	ecx, -1
	je	SHORT $LN69@xmlRelaxNG

; 9529 : 		    oldstate = ctxt->states->tabState[best];

	mov	eax, DWORD PTR [eax+8]
	mov	ebx, DWORD PTR [eax+ecx*4]

; 9530 : 		    ctxt->states->tabState[best] = NULL;

	mov	DWORD PTR [eax+ecx*4], 0

; 9531 : 		} else {

	jmp	SHORT $LN274@xmlRelaxNG
$LN69@xmlRelaxNG:

; 9532 : 		    oldstate =

	mov	ecx, DWORD PTR [eax]
	mov	eax, DWORD PTR [eax+8]
	mov	ebx, DWORD PTR [eax+ecx*4-4]

; 9533 : 			ctxt->states->tabState[ctxt->states->nbState - 1];
; 9534 :                     ctxt->states->tabState[ctxt->states->nbState - 1] = NULL;

	mov	DWORD PTR [eax+ecx*4-4], 0

; 9535 :                     ctxt->states->nbState--;

	mov	eax, DWORD PTR [esi+64]
	dec	DWORD PTR [eax]
$LN274@xmlRelaxNG:

; 9536 : 		}
; 9537 :             }
; 9538 :             for (j = 0; j < ctxt->states->nbState ; j++) {

	mov	DWORD PTR _oldstate$1$[ebp], ebx
$LN70@xmlRelaxNG:
	mov	eax, DWORD PTR [esi+64]
	xor	edi, edi
	cmp	DWORD PTR [eax], edi
	jle	SHORT $LN14@xmlRelaxNG
	npad	7
$LL15@xmlRelaxNG:

; 9539 :                 xmlRelaxNGFreeValidState(ctxt, ctxt->states->tabState[j]);

	mov	eax, DWORD PTR [esi+64]
	mov	eax, DWORD PTR [eax+8]
	push	DWORD PTR [eax+edi*4]
	push	esi
	call	_xmlRelaxNGFreeValidState
	mov	eax, DWORD PTR [esi+64]
	inc	edi
	add	esp, 8
	cmp	edi, DWORD PTR [eax]
	jl	SHORT $LL15@xmlRelaxNG
$LN14@xmlRelaxNG:

; 9540 :             }
; 9541 :             xmlRelaxNGFreeStates(ctxt, ctxt->states);

	push	eax
	push	esi
	call	_xmlRelaxNGFreeStates
	add	esp, 8

; 9542 :             ctxt->states = NULL;

	mov	DWORD PTR [esi+64], 0

; 9543 :             if (found == 0) {

	cmp	DWORD PTR _found$1$[ebp], 0
	je	SHORT $LN232@xmlRelaxNG
	mov	edi, DWORD PTR _oldstate$1$[ebp]
$LN71@xmlRelaxNG:

; 9553 :             }
; 9554 :         } else {
; 9555 :             ret = -1;
; 9556 :             break;
; 9557 :         }
; 9558 :         if (lasts[i] != NULL) {

	mov	ebx, DWORD PTR tv1918[ebp]
	mov	eax, DWORD PTR [ebx]
	test	eax, eax
	je	SHORT $LN7@xmlRelaxNG

; 9559 :             lasts[i]->next = last;

	mov	ecx, DWORD PTR _last$1$[ebp]
	mov	DWORD PTR [eax+24], ecx
$LN7@xmlRelaxNG:

; 9457 :     oldstate = ctxt->state;
; 9458 :     for (i = 0; i < nbgroups; i++) {

	mov	eax, DWORD PTR _i$2$[ebp]
	add	ebx, 4
	inc	eax
	mov	DWORD PTR tv1918[ebp], ebx
	mov	DWORD PTR _i$2$[ebp], eax
	cmp	eax, DWORD PTR _nbgroups$1$[ebp]
	jl	$LL9@xmlRelaxNG

; 9579 :         if ((cur == start) || (cur->prev == NULL))

	mov	ebx, DWORD PTR _ret$1$[ebp]
	jmp	SHORT $LN8@xmlRelaxNG
$LN232@xmlRelaxNG:

; 9544 :                 if (cur == NULL) {

	mov	eax, DWORD PTR _cur$4$[ebp]
	test	eax, eax
	jne	SHORT $LN72@xmlRelaxNG

; 9545 : 		    VALID_ERR2(XML_RELAXNG_ERR_INTEREXTRA,

	mov	eax, OFFSET ??_C@_06LNKFDEGN@noname@

; 9546 : 			       (const xmlChar *) "noname");
; 9547 :                 } else {

	jmp	SHORT $LN73@xmlRelaxNG
$LN72@xmlRelaxNG:

; 9548 :                     VALID_ERR2(XML_RELAXNG_ERR_INTEREXTRA, cur->name);

	mov	eax, DWORD PTR [eax+8]
$LN73@xmlRelaxNG:

; 9549 :                 }
; 9550 :                 ret = -1;

	push	0
	push	0
	push	eax
	push	12					; 0000000cH
	push	esi
	call	_xmlRelaxNGAddValidError
	add	esp, 20					; 00000014H

; 9551 :                 ctxt->state = oldstate;

	mov	DWORD PTR [esi+60], ebx

; 9552 :                 goto done;

	jmp	$LN213@xmlRelaxNG
$LN57@xmlRelaxNG:

; 9560 :         }
; 9561 :     }
; 9562 :     if (ctxt->state != NULL)

	or	ebx, -1
	jmp	SHORT $LN8@xmlRelaxNG
$LN270@xmlRelaxNG:

; 9457 :     oldstate = ctxt->state;
; 9458 :     for (i = 0; i < nbgroups; i++) {

	xor	ebx, ebx
$LN8@xmlRelaxNG:

; 9560 :         }
; 9561 :     }
; 9562 :     if (ctxt->state != NULL)

	mov	eax, DWORD PTR [esi+60]
	test	eax, eax
	je	SHORT $LN75@xmlRelaxNG

; 9563 :         xmlRelaxNGFreeValidState(ctxt, ctxt->state);

	push	eax
	push	esi
	call	_xmlRelaxNGFreeValidState
	add	esp, 8
$LN75@xmlRelaxNG:

; 9564 :     ctxt->state = oldstate;
; 9565 :     ctxt->state->seq = lastelem;

	mov	eax, DWORD PTR _lastelem$1$[ebp]
	mov	DWORD PTR [esi+60], edi
	mov	DWORD PTR [edi+4], eax

; 9566 :     if (ret != 0) {

	test	ebx, ebx
	je	SHORT $done$276

; 2371 :     if (ctxt->flags & FLAGS_NOERROR)

	mov	eax, DWORD PTR [esi+28]
	test	al, 8
	jne	SHORT $LN213@xmlRelaxNG
	and	al, 3

; 2372 :         return;
; 2373 : 
; 2374 : #ifdef DEBUG_ERROR
; 2375 :     xmlGenericError(xmlGenericErrorContext, "Adding error %d\n", err);
; 2376 : #endif
; 2377 :     /*
; 2378 :      * generate the error directly
; 2379 :      */
; 2380 :     if (((ctxt->flags & FLAGS_IGNORABLE) == 0) ||

	cmp	al, 1
	jne	SHORT $LN214@xmlRelaxNG

; 2400 :     }
; 2401 :     /*
; 2402 :      * Stack the error for later processing if needed
; 2403 :      */
; 2404 :     else {
; 2405 :         xmlRelaxNGValidErrorPush(ctxt, err, arg1, arg2, dup);

	push	0
	push	0
	push	0
	push	11					; 0000000bH
	push	esi
	call	_xmlRelaxNGValidErrorPush
	add	esp, 20					; 00000014H
	jmp	SHORT $LN213@xmlRelaxNG
$LN214@xmlRelaxNG:

; 2381 : 	 (ctxt->flags & FLAGS_NEGATIVE)) {
; 2382 :         xmlNodePtr node, seq;
; 2383 : 
; 2384 :         /*
; 2385 :          * Flush first any stacked error which might be the
; 2386 :          * real cause of the problem.
; 2387 :          */
; 2388 :         if (ctxt->errNr != 0)

	cmp	DWORD PTR [esi+48], 0
	je	SHORT $LN215@xmlRelaxNG

; 2389 :             xmlRelaxNGDumpValidError(ctxt);

	push	esi
	call	_xmlRelaxNGDumpValidError
	add	esp, 4
$LN215@xmlRelaxNG:

; 2390 :         if (ctxt->state != NULL) {

	mov	eax, DWORD PTR [esi+60]
	test	eax, eax
	je	SHORT $LN216@xmlRelaxNG

; 2391 :             node = ctxt->state->node;

	mov	ecx, DWORD PTR [eax]

; 2392 :             seq = ctxt->state->seq;

	mov	eax, DWORD PTR [eax+4]

; 2395 :         }
; 2396 :         if ((node == NULL) && (seq == NULL)) {

	test	ecx, ecx
	jne	SHORT $LN218@xmlRelaxNG
	test	eax, eax
	jne	SHORT $LN218@xmlRelaxNG
	jmp	SHORT $LN255@xmlRelaxNG
$LN216@xmlRelaxNG:

; 2393 :         } else {
; 2394 :             node = seq = NULL;

	xor	eax, eax
$LN255@xmlRelaxNG:

; 2397 :             node = ctxt->pnode;

	mov	ecx, DWORD PTR [esi+104]
$LN218@xmlRelaxNG:

; 2398 :         }
; 2399 :         xmlRelaxNGShowValidError(ctxt, err, node, seq, arg1, arg2);

	push	0
	push	0
	push	eax
	push	ecx
	push	11					; 0000000bH
	push	esi
	call	_xmlRelaxNGShowValidError
	add	esp, 24					; 00000018H
$LN213@xmlRelaxNG:

; 9567 :         VALID_ERR(XML_RELAXNG_ERR_INTERSEQ);
; 9568 :         ret = -1;
; 9569 :         goto done;
; 9570 :     }
; 9571 : 
; 9572 :   done:
; 9573 :     ctxt->flags = oldflags;

	or	ebx, -1
$done$276:

; 9574 :     /*
; 9575 :      * builds the next links chain from the prev one
; 9576 :      */
; 9577 :     cur = lastchg;
; 9578 :     while (cur != NULL) {

	mov	edx, DWORD PTR _cur$5$[ebp]
	mov	eax, DWORD PTR _oldflags$1$[ebp]
	mov	DWORD PTR [esi+28], eax
	test	edx, edx
	je	SHORT $LN268@xmlRelaxNG
	mov	edi, DWORD PTR _start$1$[ebp]
	npad	6
$LL16@xmlRelaxNG:

; 9579 :         if ((cur == start) || (cur->prev == NULL))

	cmp	edx, edi
	je	SHORT $LN268@xmlRelaxNG
	mov	ecx, DWORD PTR [edx+28]
	test	ecx, ecx
	je	SHORT $LN268@xmlRelaxNG

; 9580 :             break;
; 9581 :         cur->prev->next = cur;

	mov	DWORD PTR [ecx+24], edx

; 9582 :         cur = cur->prev;

	mov	edx, DWORD PTR [edx+28]
	test	edx, edx
	jne	SHORT $LL16@xmlRelaxNG
$LN268@xmlRelaxNG:

; 9583 :     }
; 9584 :     if (ret == 0) {

	test	ebx, ebx
	jne	SHORT $LN80@xmlRelaxNG

; 9585 :         if (ctxt->errNr > errNr)

	mov	eax, DWORD PTR _errNr$1$[ebp]
	cmp	DWORD PTR [esi+48], eax
	jle	SHORT $LN80@xmlRelaxNG

; 9586 :             xmlRelaxNGPopErrors(ctxt, errNr);

	push	eax
	push	esi
	call	_xmlRelaxNGPopErrors
	add	esp, 8
$LN80@xmlRelaxNG:

; 9587 :     }
; 9588 : 
; 9589 :     xmlFree(list);

	push	DWORD PTR _list$1$[ebp]
	call	DWORD PTR _xmlFree

; 9590 :     xmlFree(lasts);

	push	DWORD PTR _lasts$1$[ebp]
	call	DWORD PTR _xmlFree
	add	esp, 8

; 9591 :     return (ret);

	mov	eax, ebx
	pop	edi
	pop	esi

; 9592 : }

	pop	ebx
	mov	esp, ebp
	pop	ebp
	ret	0
$LN18@xmlRelaxNG:

; 9325 :     } else {
; 9326 :         VALID_ERR(XML_RELAXNG_ERR_INTERNODATA);

	push	0
	push	0
	push	0
	push	10					; 0000000aH
	push	esi
	call	_xmlRelaxNGAddValidError
	add	esp, 20					; 00000014H

; 9327 :         return (-1);

	or	eax, -1
	pop	esi

; 9592 : }

	pop	ebx
	mov	esp, ebp
	pop	ebp
	ret	0
_xmlRelaxNGValidateInterleave ENDP
_TEXT	ENDS
; Function compile flags: /Ogtp
; File c:\users\dag\documents\_clients\codeproject authors group\windows on arm\libxml2\libxml2-2.9.9\relaxng.c
;	COMDAT _xmlRelaxNGNodeMatchesList
_TEXT	SEGMENT
_node$ = 8						; size = 4
_list$ = 12						; size = 4
_xmlRelaxNGNodeMatchesList PROC				; COMDAT

; 9272 : {

	push	ebp
	mov	ebp, esp
	push	esi
	push	edi
	mov	ecx, OFFSET __49DBE4F2_relaxng@c
	call	@__CheckForDebuggerJustMyCode@4
	mov	edi, DWORD PTR _node$[ebp]
	test	edi, edi
	je	SHORT $LN5@xmlRelaxNG

; 9273 :     xmlRelaxNGDefinePtr cur;
; 9274 :     int i = 0, tmp;
; 9275 : 
; 9276 :     if ((node == NULL) || (list == NULL))

	mov	esi, DWORD PTR _list$[ebp]
	test	esi, esi
	je	SHORT $LN5@xmlRelaxNG

; 9278 : 
; 9279 :     cur = list[i++];

	mov	eax, DWORD PTR [esi]

; 9280 :     while (cur != NULL) {

	test	eax, eax
	je	SHORT $LN5@xmlRelaxNG

; 9278 : 
; 9279 :     cur = list[i++];

	add	esi, 4
$LL2@xmlRelaxNG:

; 9281 :         if ((node->type == XML_ELEMENT_NODE) &&

	mov	ecx, DWORD PTR [edi+4]
	cmp	ecx, 1
	jne	SHORT $LN18@xmlRelaxNG
	cmp	DWORD PTR [eax], 4
	jne	SHORT $LN9@xmlRelaxNG

; 9282 :             (cur->type == XML_RELAXNG_ELEMENT)) {
; 9283 :             tmp = xmlRelaxNGElementMatch(NULL, cur, node);

	push	edi
	push	eax
	push	0
	call	_xmlRelaxNGElementMatch
	add	esp, 12					; 0000000cH

; 9284 :             if (tmp == 1)

	cmp	eax, 1

; 9285 :                 return (1);
; 9286 :         } else if (((node->type == XML_TEXT_NODE) ||

	jmp	SHORT $LN21@xmlRelaxNG
$LN18@xmlRelaxNG:

; 9287 :                     (node->type == XML_CDATA_SECTION_NODE)) &&

	cmp	ecx, 3
	je	SHORT $LN10@xmlRelaxNG
	cmp	ecx, 4
	jne	SHORT $LN9@xmlRelaxNG
$LN10@xmlRelaxNG:
	mov	eax, DWORD PTR [eax]
	cmp	eax, 5
	je	SHORT $LN15@xmlRelaxNG
	cmp	eax, 8
	je	SHORT $LN15@xmlRelaxNG
	cmp	eax, 3
	je	SHORT $LN15@xmlRelaxNG
	cmp	eax, 7
$LN21@xmlRelaxNG:

; 9293 :         }
; 9294 :         cur = list[i++];

	je	SHORT $LN15@xmlRelaxNG
$LN9@xmlRelaxNG:
	mov	eax, DWORD PTR [esi]
	add	esi, 4
	test	eax, eax
	jne	SHORT $LL2@xmlRelaxNG
$LN5@xmlRelaxNG:
	pop	edi

; 9277 :         return (0);

	xor	eax, eax

; 9295 :     }
; 9296 :     return (0);
; 9297 : }

	pop	esi
	pop	ebp
	ret	0
$LN15@xmlRelaxNG:
	pop	edi

; 9288 :                    ((cur->type == XML_RELAXNG_DATATYPE) ||
; 9289 : 		    (cur->type == XML_RELAXNG_LIST) ||
; 9290 :                     (cur->type == XML_RELAXNG_TEXT) ||
; 9291 :                     (cur->type == XML_RELAXNG_VALUE))) {
; 9292 :             return (1);

	mov	eax, 1

; 9295 :     }
; 9296 :     return (0);
; 9297 : }

	pop	esi
	pop	ebp
	ret	0
_xmlRelaxNGNodeMatchesList ENDP
_TEXT	ENDS
; Function compile flags: /Ogtp
; File c:\users\dag\documents\_clients\codeproject authors group\windows on arm\libxml2\libxml2-2.9.9\relaxng.c
;	COMDAT _xmlRelaxNGValidateAttribute
_TEXT	SEGMENT
_oldseq$1$ = -8						; size = 4
_oldvalue$2$ = -8					; size = 4
_oldseq$2$ = -4						; size = 4
_oldvalue$1$ = -4					; size = 4
_value$4$ = 8						; size = 4
_value$2$ = 8						; size = 4
_ret$1$ = 8						; size = 4
_ctxt$ = 8						; size = 4
_define$ = 12						; size = 4
_xmlRelaxNGValidateAttribute PROC			; COMDAT

; 9115 : {

	push	ebp
	mov	ebp, esp
	sub	esp, 8
	mov	ecx, OFFSET __49DBE4F2_relaxng@c
	push	esi
	call	@__CheckForDebuggerJustMyCode@4
	mov	esi, DWORD PTR _ctxt$[ebp]
	mov	eax, DWORD PTR [esi+60]
	cmp	DWORD PTR [eax+16], 0
	jg	SHORT $LN8@xmlRelaxNG

; 9116 :     int ret = 0, i;
; 9117 :     xmlChar *value, *oldvalue;
; 9118 :     xmlAttrPtr prop = NULL, tmp;
; 9119 :     xmlNodePtr oldseq;
; 9120 : 
; 9121 :     if (ctxt->state->nbAttrLeft <= 0)
; 9122 :         return (-1);

	or	eax, -1
	pop	esi

; 9211 : }

	mov	esp, ebp
	pop	ebp
	ret	0
$LN8@xmlRelaxNG:

; 9123 :     if (define->name != NULL) {

	mov	ecx, DWORD PTR _define$[ebp]
	mov	edx, DWORD PTR [eax+8]
	push	ebx
	push	edi
	cmp	DWORD PTR [ecx+8], 0
	je	$LN9@xmlRelaxNG

; 9124 :         for (i = 0; i < ctxt->state->nbAttrs; i++) {

	xor	ebx, ebx
	test	edx, edx
	jle	SHORT $LN41@xmlRelaxNG
	npad	3
$LL4@xmlRelaxNG:

; 9125 :             tmp = ctxt->state->attrs[i];

	mov	eax, DWORD PTR [eax+28]
	mov	edi, DWORD PTR [eax+ebx*4]

; 9126 :             if ((tmp != NULL) && (xmlStrEqual(define->name, tmp->name))) {

	test	edi, edi
	je	SHORT $LN2@xmlRelaxNG
	push	DWORD PTR [edi+8]
	push	DWORD PTR [ecx+8]
	call	_xmlStrEqual
	mov	ecx, DWORD PTR _define$[ebp]
	add	esp, 8
	test	eax, eax
	je	SHORT $LN2@xmlRelaxNG

; 9127 :                 if ((((define->ns == NULL) || (define->ns[0] == 0)) &&
; 9128 :                      (tmp->ns == NULL)) ||

	mov	eax, DWORD PTR [ecx+12]
	test	eax, eax
	je	SHORT $LN35@xmlRelaxNG
	cmp	BYTE PTR [eax], 0
	jne	SHORT $LN39@xmlRelaxNG
$LN35@xmlRelaxNG:
	cmp	DWORD PTR [edi+36], 0
	je	SHORT $LN13@xmlRelaxNG
$LN39@xmlRelaxNG:
	mov	edx, DWORD PTR [edi+36]
	test	edx, edx
	je	SHORT $LN2@xmlRelaxNG
	push	DWORD PTR [edx+8]
	push	eax
	call	_xmlStrEqual
	add	esp, 8
	test	eax, eax
	jne	SHORT $LN13@xmlRelaxNG

; 9126 :             if ((tmp != NULL) && (xmlStrEqual(define->name, tmp->name))) {

	mov	ecx, DWORD PTR _define$[ebp]
$LN2@xmlRelaxNG:

; 9124 :         for (i = 0; i < ctxt->state->nbAttrs; i++) {

	mov	eax, DWORD PTR [esi+60]
	inc	ebx
	cmp	ebx, DWORD PTR [eax+8]
	jl	SHORT $LL4@xmlRelaxNG
$LN41@xmlRelaxNG:

; 9192 :                 ctxt->state->nbAttrLeft--;
; 9193 :             }
; 9194 :         } else {
; 9195 :             ret = -1;
; 9196 :         }
; 9197 : #ifdef DEBUG
; 9198 :         if (define->ns != NULL) {
; 9199 :             xmlGenericError(xmlGenericErrorContext,
; 9200 :                             "xmlRelaxNGValidateAttribute(nsName ns = %s): %d\n",
; 9201 :                             define->ns, ret);
; 9202 :         } else {
; 9203 :             xmlGenericError(xmlGenericErrorContext,
; 9204 :                             "xmlRelaxNGValidateAttribute(anyName): %d\n",
; 9205 :                             ret);
; 9206 :         }
; 9207 : #endif
; 9208 :     }
; 9209 : 
; 9210 :     return (ret);

	or	ecx, -1
$LN23@xmlRelaxNG:
	pop	edi
	pop	ebx
	mov	eax, ecx
	pop	esi

; 9211 : }

	mov	esp, ebp
	pop	ebp
	ret	0
$LN13@xmlRelaxNG:

; 9129 :                     ((tmp->ns != NULL) &&
; 9130 :                      (xmlStrEqual(define->ns, tmp->ns->href)))) {
; 9131 :                     prop = tmp;
; 9132 :                     break;
; 9133 :                 }
; 9134 :             }
; 9135 :         }
; 9136 :         if (prop != NULL) {
; 9137 :             value = xmlNodeListGetString(prop->doc, prop->children, 1);

	push	1
	push	DWORD PTR [edi+12]
	push	DWORD PTR [edi+32]
	call	_xmlNodeListGetString
	mov	DWORD PTR _value$2$[ebp], eax

; 9138 :             oldvalue = ctxt->state->value;

	mov	eax, DWORD PTR [esi+60]
	mov	ecx, DWORD PTR [eax+20]
	mov	DWORD PTR _oldvalue$1$[ebp], ecx

; 9139 :             oldseq = ctxt->state->seq;

	mov	ecx, DWORD PTR [eax+4]

; 9140 :             ctxt->state->seq = (xmlNodePtr) prop;

	mov	DWORD PTR [eax+4], edi

; 9141 :             ctxt->state->value = value;

	mov	eax, DWORD PTR [esi+60]
	mov	edi, DWORD PTR _value$2$[ebp]
	mov	DWORD PTR _oldseq$1$[ebp], ecx
	mov	DWORD PTR [eax+20], edi

; 9142 :             ctxt->state->endvalue = NULL;

	mov	eax, DWORD PTR [esi+60]
	mov	DWORD PTR [eax+24], 0

; 9143 :             ret = xmlRelaxNGValidateValueContent(ctxt, define->content);

	mov	eax, DWORD PTR _define$[ebp]
	push	DWORD PTR [eax+24]
	push	esi
	call	_xmlRelaxNGValidateValueContent

; 9144 :             if (ctxt->state->value != NULL)

	mov	edx, DWORD PTR [esi+60]
	add	esp, 20					; 00000014H
	mov	DWORD PTR _ret$1$[ebp], eax
	mov	ecx, DWORD PTR [edx+20]
	test	ecx, ecx
	cmovne	edi, ecx

; 9145 :                 value = ctxt->state->value;
; 9146 :             if (value != NULL)

	test	edi, edi
	je	SHORT $LN19@xmlRelaxNG

; 9147 :                 xmlFree(value);

	push	edi
	call	DWORD PTR _xmlFree
	mov	edx, DWORD PTR [esi+60]
	add	esp, 4
$LN19@xmlRelaxNG:

; 9148 :             ctxt->state->value = oldvalue;

	mov	eax, DWORD PTR _oldvalue$1$[ebp]

; 9149 :             ctxt->state->seq = oldseq;

	mov	ecx, DWORD PTR _oldseq$1$[ebp]
	mov	DWORD PTR [edx+20], eax
	mov	eax, DWORD PTR [esi+60]
	mov	DWORD PTR [eax+4], ecx

; 9150 :             if (ret == 0) {

	mov	ecx, DWORD PTR _ret$1$[ebp]
	test	ecx, ecx
	jne	$LN23@xmlRelaxNG

; 9151 :                 /*
; 9152 :                  * flag the attribute as processed
; 9153 :                  */
; 9154 :                 ctxt->state->attrs[i] = NULL;

	mov	eax, DWORD PTR [esi+60]

; 9192 :                 ctxt->state->nbAttrLeft--;
; 9193 :             }
; 9194 :         } else {
; 9195 :             ret = -1;
; 9196 :         }
; 9197 : #ifdef DEBUG
; 9198 :         if (define->ns != NULL) {
; 9199 :             xmlGenericError(xmlGenericErrorContext,
; 9200 :                             "xmlRelaxNGValidateAttribute(nsName ns = %s): %d\n",
; 9201 :                             define->ns, ret);
; 9202 :         } else {
; 9203 :             xmlGenericError(xmlGenericErrorContext,
; 9204 :                             "xmlRelaxNGValidateAttribute(anyName): %d\n",
; 9205 :                             ret);
; 9206 :         }
; 9207 : #endif
; 9208 :     }
; 9209 : 
; 9210 :     return (ret);

	pop	edi
	mov	eax, DWORD PTR [eax+28]
	mov	DWORD PTR [eax+ebx*4], ecx
	mov	eax, DWORD PTR [esi+60]
	pop	ebx
	pop	esi
	dec	DWORD PTR [eax+16]
	mov	eax, ecx

; 9211 : }

	mov	esp, ebp
	pop	ebp
	ret	0
$LN9@xmlRelaxNG:

; 9155 :                 ctxt->state->nbAttrLeft--;
; 9156 :             }
; 9157 :         } else {
; 9158 :             ret = -1;
; 9159 :         }
; 9160 : #ifdef DEBUG
; 9161 :         xmlGenericError(xmlGenericErrorContext,
; 9162 :                         "xmlRelaxNGValidateAttribute(%s): %d\n",
; 9163 :                         define->name, ret);
; 9164 : #endif
; 9165 :     } else {
; 9166 :         for (i = 0; i < ctxt->state->nbAttrs; i++) {

	xor	edi, edi
	test	edx, edx
	jle	$LN41@xmlRelaxNG
	npad	1
$LL7@xmlRelaxNG:

; 9167 :             tmp = ctxt->state->attrs[i];

	mov	eax, DWORD PTR [eax+28]
	mov	ebx, DWORD PTR [eax+edi*4]

; 9168 :             if ((tmp != NULL) &&

	test	ebx, ebx
	je	SHORT $LN5@xmlRelaxNG
	push	ebx
	push	ecx
	push	esi
	call	_xmlRelaxNGAttributeMatch
	add	esp, 12					; 0000000cH
	cmp	eax, 1
	je	SHORT $LN30@xmlRelaxNG
	mov	ecx, DWORD PTR _define$[ebp]
$LN5@xmlRelaxNG:

; 9155 :                 ctxt->state->nbAttrLeft--;
; 9156 :             }
; 9157 :         } else {
; 9158 :             ret = -1;
; 9159 :         }
; 9160 : #ifdef DEBUG
; 9161 :         xmlGenericError(xmlGenericErrorContext,
; 9162 :                         "xmlRelaxNGValidateAttribute(%s): %d\n",
; 9163 :                         define->name, ret);
; 9164 : #endif
; 9165 :     } else {
; 9166 :         for (i = 0; i < ctxt->state->nbAttrs; i++) {

	mov	eax, DWORD PTR [esi+60]
	inc	edi
	cmp	edi, DWORD PTR [eax+8]
	jl	SHORT $LL7@xmlRelaxNG

; 9192 :                 ctxt->state->nbAttrLeft--;
; 9193 :             }
; 9194 :         } else {
; 9195 :             ret = -1;
; 9196 :         }
; 9197 : #ifdef DEBUG
; 9198 :         if (define->ns != NULL) {
; 9199 :             xmlGenericError(xmlGenericErrorContext,
; 9200 :                             "xmlRelaxNGValidateAttribute(nsName ns = %s): %d\n",
; 9201 :                             define->ns, ret);
; 9202 :         } else {
; 9203 :             xmlGenericError(xmlGenericErrorContext,
; 9204 :                             "xmlRelaxNGValidateAttribute(anyName): %d\n",
; 9205 :                             ret);
; 9206 :         }
; 9207 : #endif
; 9208 :     }
; 9209 : 
; 9210 :     return (ret);

	pop	edi
	or	ecx, -1
	pop	ebx
	mov	eax, ecx
	pop	esi

; 9211 : }

	mov	esp, ebp
	pop	ebp
	ret	0
$LN30@xmlRelaxNG:

; 9169 :                 (xmlRelaxNGAttributeMatch(ctxt, define, tmp) == 1)) {
; 9170 :                 prop = tmp;
; 9171 :                 break;
; 9172 :             }
; 9173 :         }
; 9174 :         if (prop != NULL) {
; 9175 :             value = xmlNodeListGetString(prop->doc, prop->children, 1);

	push	1
	push	DWORD PTR [ebx+12]
	push	DWORD PTR [ebx+32]
	call	_xmlNodeListGetString

; 9176 :             oldvalue = ctxt->state->value;

	mov	ecx, DWORD PTR [esi+60]
	mov	DWORD PTR _value$4$[ebp], eax
	mov	eax, DWORD PTR [ecx+20]
	mov	DWORD PTR _oldvalue$2$[ebp], eax

; 9177 :             oldseq = ctxt->state->seq;

	mov	eax, DWORD PTR [ecx+4]

; 9178 :             ctxt->state->seq = (xmlNodePtr) prop;

	mov	DWORD PTR [ecx+4], ebx

; 9179 :             ctxt->state->value = value;

	mov	ecx, DWORD PTR [esi+60]
	mov	ebx, DWORD PTR _value$4$[ebp]
	mov	DWORD PTR _oldseq$2$[ebp], eax

; 9180 :             ret = xmlRelaxNGValidateValueContent(ctxt, define->content);

	mov	eax, DWORD PTR _define$[ebp]
	mov	DWORD PTR [ecx+20], ebx
	push	DWORD PTR [eax+24]
	push	esi
	call	_xmlRelaxNGValidateValueContent

; 9181 :             if (ctxt->state->value != NULL)

	mov	ecx, DWORD PTR [esi+60]
	add	esp, 20					; 00000014H
	mov	DWORD PTR _ret$1$[ebp], eax
	mov	eax, DWORD PTR [ecx+20]
	test	eax, eax
	cmovne	ebx, eax

; 9182 :                 value = ctxt->state->value;
; 9183 :             if (value != NULL)

	test	ebx, ebx
	je	SHORT $LN25@xmlRelaxNG

; 9184 :                 xmlFree(value);

	push	ebx
	call	DWORD PTR _xmlFree
	mov	ecx, DWORD PTR [esi+60]
	add	esp, 4
$LN25@xmlRelaxNG:

; 9185 :             ctxt->state->value = oldvalue;

	mov	eax, DWORD PTR _oldvalue$2$[ebp]
	mov	DWORD PTR [ecx+20], eax

; 9186 :             ctxt->state->seq = oldseq;

	mov	eax, DWORD PTR [esi+60]
	mov	ecx, DWORD PTR _oldseq$2$[ebp]
	mov	DWORD PTR [eax+4], ecx

; 9187 :             if (ret == 0) {

	mov	ecx, DWORD PTR _ret$1$[ebp]
	test	ecx, ecx
	jne	$LN23@xmlRelaxNG

; 9188 :                 /*
; 9189 :                  * flag the attribute as processed
; 9190 :                  */
; 9191 :                 ctxt->state->attrs[i] = NULL;

	mov	eax, DWORD PTR [esi+60]
	mov	eax, DWORD PTR [eax+28]
	mov	DWORD PTR [eax+edi*4], ecx

; 9192 :                 ctxt->state->nbAttrLeft--;
; 9193 :             }
; 9194 :         } else {
; 9195 :             ret = -1;
; 9196 :         }
; 9197 : #ifdef DEBUG
; 9198 :         if (define->ns != NULL) {
; 9199 :             xmlGenericError(xmlGenericErrorContext,
; 9200 :                             "xmlRelaxNGValidateAttribute(nsName ns = %s): %d\n",
; 9201 :                             define->ns, ret);
; 9202 :         } else {
; 9203 :             xmlGenericError(xmlGenericErrorContext,
; 9204 :                             "xmlRelaxNGValidateAttribute(anyName): %d\n",
; 9205 :                             ret);
; 9206 :         }
; 9207 : #endif
; 9208 :     }
; 9209 : 
; 9210 :     return (ret);

	mov	eax, DWORD PTR [esi+60]
	pop	edi
	pop	ebx
	pop	esi
	dec	DWORD PTR [eax+16]
	mov	eax, ecx

; 9211 : }

	mov	esp, ebp
	pop	ebp
	ret	0
_xmlRelaxNGValidateAttribute ENDP
_TEXT	ENDS
; Function compile flags: /Ogtp
; File c:\users\dag\documents\_clients\codeproject authors group\windows on arm\libxml2\libxml2-2.9.9\relaxng.c
;	COMDAT _xmlRelaxNGAttributeMatch
_TEXT	SEGMENT
_ctxt$ = 8						; size = 4
_define$ = 12						; size = 4
_prop$ = 16						; size = 4
_xmlRelaxNGAttributeMatch PROC				; COMDAT

; 9053 : {

	push	ebp
	mov	ebp, esp
	push	ebx
	push	esi
	push	edi
	mov	ecx, OFFSET __49DBE4F2_relaxng@c
	call	@__CheckForDebuggerJustMyCode@4
	mov	esi, DWORD PTR _define$[ebp]
	mov	edi, DWORD PTR _prop$[ebp]
	mov	eax, DWORD PTR [esi+8]
	test	eax, eax
	je	SHORT $LN7@xmlRelaxNG

; 9054 :     int ret;
; 9055 : 
; 9056 :     if (define->name != NULL) {
; 9057 :         if (!xmlStrEqual(define->name, prop->name))

	push	DWORD PTR [edi+8]
	push	eax
	call	_xmlStrEqual
	add	esp, 8
	test	eax, eax
	je	$LN5@xmlRelaxNG
$LN7@xmlRelaxNG:

; 9058 :             return (0);
; 9059 :     }
; 9060 :     if (define->ns != NULL) {

	mov	eax, DWORD PTR [esi+12]
	test	eax, eax
	je	SHORT $LN12@xmlRelaxNG

; 9061 :         if (define->ns[0] == 0) {

	cmp	BYTE PTR [eax], 0
	mov	ecx, DWORD PTR [edi+36]
	jne	SHORT $LN9@xmlRelaxNG

; 9062 :             if (prop->ns != NULL)

	test	ecx, ecx
	je	SHORT $LN12@xmlRelaxNG

; 9101 : }

	pop	edi
	pop	esi
	xor	eax, eax
	pop	ebx
	pop	ebp
	ret	0
$LN9@xmlRelaxNG:

; 9063 :                 return (0);
; 9064 :         } else {
; 9065 :             if ((prop->ns == NULL) ||

	test	ecx, ecx
	je	SHORT $LN5@xmlRelaxNG
	push	DWORD PTR [ecx+8]
	push	eax
	call	_xmlStrEqual
	add	esp, 8
	test	eax, eax
	je	SHORT $LN5@xmlRelaxNG
$LN12@xmlRelaxNG:

; 9066 :                 (!xmlStrEqual(define->ns, prop->ns->href)))
; 9067 :                 return (0);
; 9068 :         }
; 9069 :     }
; 9070 :     if (define->nameClass == NULL)

	mov	esi, DWORD PTR [esi+40]
	test	esi, esi
	je	$LN20@xmlRelaxNG

; 9071 :         return (1);
; 9072 :     define = define->nameClass;
; 9073 :     if (define->type == XML_RELAXNG_EXCEPT) {

	mov	eax, DWORD PTR [esi]
	cmp	eax, 2
	jne	SHORT $LN15@xmlRelaxNG

; 9074 :         xmlRelaxNGDefinePtr list;
; 9075 : 
; 9076 :         list = define->content;

	mov	esi, DWORD PTR [esi+24]

; 9077 :         while (list != NULL) {

	test	esi, esi
	je	$LN20@xmlRelaxNG
	mov	ebx, DWORD PTR _ctxt$[ebp]
	npad	1
$LL2@xmlRelaxNG:

; 9078 :             ret = xmlRelaxNGAttributeMatch(ctxt, list, prop);

	push	edi
	push	esi
	push	ebx
	call	_xmlRelaxNGAttributeMatch
	add	esp, 12					; 0000000cH

; 9079 :             if (ret == 1)

	cmp	eax, 1
	je	SHORT $LN5@xmlRelaxNG

; 9080 :                 return (0);
; 9081 :             if (ret < 0)

	test	eax, eax
	js	SHORT $LN1@xmlRelaxNG

; 9082 :                 return (ret);
; 9083 :             list = list->next;

	mov	esi, DWORD PTR [esi+32]
	test	esi, esi
	jne	SHORT $LL2@xmlRelaxNG

; 9100 :     return (1);

	pop	edi
	lea	eax, DWORD PTR [esi+1]

; 9101 : }

	pop	esi
	pop	ebx
	pop	ebp
	ret	0
$LN15@xmlRelaxNG:

; 9084 :         }
; 9085 :     } else if (define->type == XML_RELAXNG_CHOICE) {

	cmp	eax, 17					; 00000011H
	jne	SHORT $LN19@xmlRelaxNG

; 9086 :         xmlRelaxNGDefinePtr list;
; 9087 : 
; 9088 :         list = define->nameClass;

	mov	esi, DWORD PTR [esi+40]

; 9089 :         while (list != NULL) {

	test	esi, esi
	je	SHORT $LN5@xmlRelaxNG
	mov	ebx, DWORD PTR _ctxt$[ebp]
$LL4@xmlRelaxNG:

; 9090 :             ret = xmlRelaxNGAttributeMatch(ctxt, list, prop);

	push	edi
	push	esi
	push	ebx
	call	_xmlRelaxNGAttributeMatch
	add	esp, 12					; 0000000cH

; 9091 :             if (ret == 1)

	cmp	eax, 1
	je	SHORT $LN20@xmlRelaxNG

; 9092 :                 return (1);
; 9093 :             if (ret < 0)

	test	eax, eax
	js	SHORT $LN1@xmlRelaxNG

; 9094 :                 return (ret);
; 9095 :             list = list->next;

	mov	esi, DWORD PTR [esi+32]
	test	esi, esi
	jne	SHORT $LL4@xmlRelaxNG
$LN5@xmlRelaxNG:
	pop	edi

; 9101 : }

	pop	esi
	xor	eax, eax
	pop	ebx
	pop	ebp
	ret	0
$LN19@xmlRelaxNG:

; 9096 :         }
; 9097 :         return (0);
; 9098 :     } else {
; 9099 :     TODO}

	call	___xmlGenericError
	mov	esi, eax
	call	___xmlGenericErrorContext
	push	9099					; 0000238bH
	push	OFFSET ??_C@_0GJ@NFABHKPN@c?3?2users?2dag?2documents?2_clients@
	push	OFFSET ??_C@_0BO@MDEMDPPE@Unimplemented?5block?5at?5?$CFs?3?$CFd?6@
	push	DWORD PTR [eax]
	mov	eax, DWORD PTR [esi]
	call	eax
	add	esp, 16					; 00000010H
$LN20@xmlRelaxNG:

; 9100 :     return (1);

	mov	eax, 1
$LN1@xmlRelaxNG:
	pop	edi

; 9101 : }

	pop	esi
	pop	ebx
	pop	ebp
	ret	0
_xmlRelaxNGAttributeMatch ENDP
_TEXT	ENDS
; Function compile flags: /Ogtp
; File c:\users\dag\documents\_clients\codeproject authors group\windows on arm\libxml2\libxml2-2.9.9\relaxng.c
;	COMDAT _xmlRelaxNGValidateValueContent
_TEXT	SEGMENT
_ctxt$ = 8						; size = 4
_defines$ = 12						; size = 4
_xmlRelaxNGValidateValueContent PROC			; COMDAT

; 9028 : {

	push	ebp
	mov	ebp, esp
	push	esi
	mov	ecx, OFFSET __49DBE4F2_relaxng@c
	call	@__CheckForDebuggerJustMyCode@4
	mov	esi, DWORD PTR _defines$[ebp]
	test	esi, esi
	je	SHORT $LN12@xmlRelaxNG
	push	edi
	mov	edi, DWORD PTR _ctxt$[ebp]
	npad	7
$LL2@xmlRelaxNG:

; 9029 :     int ret = 0;
; 9030 : 
; 9031 :     while (defines != NULL) {
; 9032 :         ret = xmlRelaxNGValidateValue(ctxt, defines);

	push	esi
	push	edi
	call	_xmlRelaxNGValidateValue
	add	esp, 8

; 9033 :         if (ret != 0)

	test	eax, eax
	jne	SHORT $LN13@xmlRelaxNG

; 9034 :             break;
; 9035 :         defines = defines->next;

	mov	esi, DWORD PTR [esi+32]
	test	esi, esi
	jne	SHORT $LL2@xmlRelaxNG
$LN13@xmlRelaxNG:
	pop	edi
	pop	esi

; 9038 : }

	pop	ebp
	ret	0
$LN12@xmlRelaxNG:

; 9036 :     }
; 9037 :     return (ret);

	xor	eax, eax
	pop	esi

; 9038 : }

	pop	ebp
	ret	0
_xmlRelaxNGValidateValueContent ENDP
_TEXT	ENDS
; Function compile flags: /Ogtp
; File c:\users\dag\documents\_clients\codeproject authors group\windows on arm\libxml2\libxml2-2.9.9\relaxng.c
;	COMDAT _xmlRelaxNGValidateValueList
_TEXT	SEGMENT
_ctxt$ = 8						; size = 4
_defines$ = 12						; size = 4
_xmlRelaxNGValidateValueList PROC			; COMDAT

; 8715 : {

	push	ebp
	mov	ebp, esp
	push	esi
	mov	ecx, OFFSET __49DBE4F2_relaxng@c
	call	@__CheckForDebuggerJustMyCode@4
	mov	esi, DWORD PTR _defines$[ebp]
	test	esi, esi
	je	SHORT $LN12@xmlRelaxNG
	push	edi
	mov	edi, DWORD PTR _ctxt$[ebp]
	npad	7
$LL2@xmlRelaxNG:

; 8716 :     int ret = 0;
; 8717 : 
; 8718 :     while (defines != NULL) {
; 8719 :         ret = xmlRelaxNGValidateValue(ctxt, defines);

	push	esi
	push	edi
	call	_xmlRelaxNGValidateValue
	add	esp, 8

; 8720 :         if (ret != 0)

	test	eax, eax
	jne	SHORT $LN13@xmlRelaxNG

; 8721 :             break;
; 8722 :         defines = defines->next;

	mov	esi, DWORD PTR [esi+32]
	test	esi, esi
	jne	SHORT $LL2@xmlRelaxNG
$LN13@xmlRelaxNG:
	pop	edi
	pop	esi

; 8725 : }

	pop	ebp
	ret	0
$LN12@xmlRelaxNG:

; 8723 :     }
; 8724 :     return (ret);

	xor	eax, eax
	pop	esi

; 8725 : }

	pop	ebp
	ret	0
_xmlRelaxNGValidateValueList ENDP
_TEXT	ENDS
; Function compile flags: /Ogtp
; File c:\users\dag\documents\_clients\codeproject authors group\windows on arm\libxml2\libxml2-2.9.9\relaxng.c
;	COMDAT _xmlRelaxNGNextValue
_TEXT	SEGMENT
_ctxt$ = 8						; size = 4
_xmlRelaxNGNextValue PROC				; COMDAT

; 8683 : {

	push	ebp
	mov	ebp, esp
	push	esi
	mov	ecx, OFFSET __49DBE4F2_relaxng@c
	call	@__CheckForDebuggerJustMyCode@4
	mov	ecx, DWORD PTR _ctxt$[ebp]
	mov	esi, DWORD PTR [ecx+60]
	mov	eax, DWORD PTR [esi+20]
	test	eax, eax
	je	SHORT $LN7@xmlRelaxNG

; 8684 :     xmlChar *cur;
; 8685 : 
; 8686 :     cur = ctxt->state->value;
; 8687 :     if ((cur == NULL) || (ctxt->state->endvalue == NULL)) {

	mov	edx, DWORD PTR [esi+24]
	test	edx, edx
	je	SHORT $LN7@xmlRelaxNG

; 8690 :         return (0);
; 8691 :     }
; 8692 :     while (*cur != 0)

	cmp	BYTE PTR [eax], 0
	je	SHORT $LN12@xmlRelaxNG
$LL2@xmlRelaxNG:

; 8693 :         cur++;

	inc	eax
	cmp	BYTE PTR [eax], 0
	jne	SHORT $LL2@xmlRelaxNG
$LN12@xmlRelaxNG:

; 8694 :     while ((cur != ctxt->state->endvalue) && (*cur == 0))

	cmp	eax, edx
	je	SHORT $LN19@xmlRelaxNG
$LL4@xmlRelaxNG:
	cmp	BYTE PTR [eax], 0
	jne	SHORT $LN19@xmlRelaxNG

; 8695 :         cur++;

	inc	eax
	cmp	eax, edx
	jne	SHORT $LL4@xmlRelaxNG
$LN19@xmlRelaxNG:

; 8696 :     if (cur == ctxt->state->endvalue)
; 8697 :         ctxt->state->value = NULL;
; 8698 :     else
; 8699 :         ctxt->state->value = cur;
; 8700 :     return (0);

	xor	ecx, ecx
	cmp	eax, edx
	cmovne	ecx, eax

; 8701 : }

	xor	eax, eax
	mov	DWORD PTR [esi+20], ecx
	pop	esi
	pop	ebp
	ret	0
$LN7@xmlRelaxNG:

; 8688 :         ctxt->state->value = NULL;

	mov	DWORD PTR [esi+20], 0

; 8689 :         ctxt->state->endvalue = NULL;

	mov	eax, DWORD PTR [ecx+60]
	pop	esi
	mov	DWORD PTR [eax+24], 0

; 8701 : }

	xor	eax, eax
	pop	ebp
	ret	0
_xmlRelaxNGNextValue ENDP
_TEXT	ENDS
; Function compile flags: /Ogtp
; File c:\users\dag\documents\_clients\codeproject authors group\windows on arm\libxml2\libxml2-2.9.9\relaxng.c
;	COMDAT _xmlRelaxNGValidateDatatype
_TEXT	SEGMENT
_lib$1$ = -8						; size = 4
_result$ = -4						; size = 4
_ctxt$ = 8						; size = 4
_value$ = 12						; size = 4
_define$ = 16						; size = 4
_node$ = 20						; size = 4
_xmlRelaxNGValidateDatatype PROC			; COMDAT

; 8614 : {

	push	ebp
	mov	ebp, esp
	sub	esp, 8
	push	ebx
	push	esi
	push	edi
	mov	ecx, OFFSET __49DBE4F2_relaxng@c
	call	@__CheckForDebuggerJustMyCode@4
	mov	esi, DWORD PTR _define$[ebp]
	mov	DWORD PTR _result$[ebp], 0
	test	esi, esi
	je	$LN5@xmlRelaxNG

; 8615 :     int ret, tmp;
; 8616 :     xmlRelaxNGTypeLibraryPtr lib;
; 8617 :     void *result = NULL;
; 8618 :     xmlRelaxNGDefinePtr cur;
; 8619 : 
; 8620 :     if ((define == NULL) || (define->data == NULL)) {

	mov	edi, DWORD PTR [esi+20]
	mov	DWORD PTR _lib$1$[ebp], edi
	test	edi, edi
	je	$LN5@xmlRelaxNG

; 8621 :         return (-1);
; 8622 :     }
; 8623 :     lib = (xmlRelaxNGTypeLibraryPtr) define->data;
; 8624 :     if (lib->check != NULL) {

	mov	eax, DWORD PTR [edi+12]
	test	eax, eax
	je	$LN26@xmlRelaxNG

; 8625 :         if ((define->attrs != NULL) &&

	mov	ecx, DWORD PTR [esi+36]
	test	ecx, ecx
	je	SHORT $LN8@xmlRelaxNG
	cmp	DWORD PTR [ecx], 6
	jne	SHORT $LN8@xmlRelaxNG

; 8626 :             (define->attrs->type == XML_RELAXNG_PARAM)) {
; 8627 :             ret =

	push	DWORD PTR _node$[ebp]
	lea	ecx, DWORD PTR _result$[ebp]
	push	ecx

; 8628 :                 lib->check(lib->data, define->name, value, &result, node);
; 8629 :         } else {

	jmp	SHORT $LN27@xmlRelaxNG
$LN8@xmlRelaxNG:

; 8630 :             ret = lib->check(lib->data, define->name, value, NULL, node);

	push	DWORD PTR _node$[ebp]
	push	0
$LN27@xmlRelaxNG:

; 8631 :         }
; 8632 :     } else
; 8633 :         ret = -1;
; 8634 :     if (ret < 0) {

	mov	edx, DWORD PTR _value$[ebp]
	push	edx
	push	DWORD PTR [esi+8]
	push	DWORD PTR [edi+4]
	call	eax
	mov	ebx, eax
	add	esp, 20					; 00000014H
	test	ebx, ebx
	js	$LN26@xmlRelaxNG

; 8638 :         return (-1);
; 8639 :     } else if (ret == 1) {

	cmp	ebx, 1
	jne	SHORT $LN13@xmlRelaxNG

; 8640 :         ret = 0;

	xor	ebx, ebx
	jmp	SHORT $LN16@xmlRelaxNG
$LN13@xmlRelaxNG:

; 8641 :     } else if (ret == 2) {

	mov	ecx, DWORD PTR _ctxt$[ebp]
	push	1
	cmp	ebx, 2
	jne	SHORT $LN15@xmlRelaxNG

; 8642 :         VALID_ERR2P(XML_RELAXNG_ERR_DUPID, value);

	push	0
	push	DWORD PTR _value$[ebp]
	push	4
	push	ecx
	call	_xmlRelaxNGAddValidError
	add	esp, 20					; 00000014H

; 8643 :     } else {

	jmp	SHORT $LN16@xmlRelaxNG
$LN15@xmlRelaxNG:

; 8644 :         VALID_ERR3P(XML_RELAXNG_ERR_TYPEVAL, define->name, value);

	push	DWORD PTR _value$[ebp]
	push	DWORD PTR [esi+8]
	push	3
	push	ecx
	call	_xmlRelaxNGAddValidError
	add	esp, 20					; 00000014H

; 8645 :         ret = -1;

	or	ebx, -1
$LN16@xmlRelaxNG:

; 8646 :     }
; 8647 :     cur = define->attrs;

	mov	esi, DWORD PTR [esi+36]

; 8648 :     while ((ret == 0) && (cur != NULL) && (cur->type == XML_RELAXNG_PARAM)) {

	test	ebx, ebx
	jne	$LN19@xmlRelaxNG
$LL2@xmlRelaxNG:
	test	esi, esi
	je	SHORT $LN3@xmlRelaxNG
	cmp	DWORD PTR [esi], 6
	jne	SHORT $LN3@xmlRelaxNG

; 8649 :         if (lib->facet != NULL) {

	mov	ecx, DWORD PTR [edi+20]
	test	ecx, ecx
	je	SHORT $LN18@xmlRelaxNG

; 8650 :             tmp = lib->facet(lib->data, define->name, cur->name,

	push	DWORD PTR _result$[ebp]
	mov	eax, DWORD PTR _define$[ebp]
	push	DWORD PTR _value$[ebp]
	push	DWORD PTR [esi+16]
	push	DWORD PTR [esi+8]
	push	DWORD PTR [eax+8]
	push	DWORD PTR [edi+4]
	call	ecx
	add	esp, 24					; 00000018H

; 8651 :                              cur->value, value, result);
; 8652 :             if (tmp != 0)

	test	eax, eax
	mov	eax, -1
	cmovne	ebx, eax
$LN18@xmlRelaxNG:

; 8653 :                 ret = -1;
; 8654 :         }
; 8655 :         cur = cur->next;

	mov	esi, DWORD PTR [esi+32]
	test	ebx, ebx
	je	SHORT $LL2@xmlRelaxNG

; 8656 :     }
; 8657 :     if ((ret == 0) && (define->content != NULL)) {

	jmp	SHORT $LN19@xmlRelaxNG
$LN3@xmlRelaxNG:
	test	ebx, ebx
	jne	SHORT $LN19@xmlRelaxNG
	mov	ecx, DWORD PTR _define$[ebp]
	cmp	DWORD PTR [ecx+24], ebx
	je	SHORT $LN19@xmlRelaxNG

; 8658 :         const xmlChar *oldvalue, *oldendvalue;
; 8659 : 
; 8660 :         oldvalue = ctxt->state->value;

	mov	ebx, DWORD PTR _ctxt$[ebp]

; 8661 :         oldendvalue = ctxt->state->endvalue;
; 8662 :         ctxt->state->value = (xmlChar *) value;

	mov	edx, DWORD PTR _value$[ebp]
	mov	eax, DWORD PTR [ebx+60]
	mov	esi, DWORD PTR [eax+20]
	mov	edi, DWORD PTR [eax+24]
	mov	DWORD PTR [eax+20], edx

; 8663 :         ctxt->state->endvalue = NULL;

	mov	eax, DWORD PTR [ebx+60]
	mov	DWORD PTR [eax+24], 0

; 8664 :         ret = xmlRelaxNGValidateValue(ctxt, define->content);

	push	DWORD PTR [ecx+24]
	push	ebx
	call	_xmlRelaxNGValidateValue

; 8665 :         ctxt->state->value = (xmlChar *) oldvalue;

	mov	ecx, DWORD PTR _ctxt$[ebp]
	mov	ebx, eax
	add	esp, 8
	mov	eax, DWORD PTR [ecx+60]
	mov	DWORD PTR [eax+20], esi

; 8666 :         ctxt->state->endvalue = (xmlChar *) oldendvalue;

	mov	eax, DWORD PTR [ecx+60]
	mov	DWORD PTR [eax+24], edi
	mov	edi, DWORD PTR _lib$1$[ebp]
$LN19@xmlRelaxNG:

; 8667 :     }
; 8668 :     if ((result != NULL) && (lib != NULL) && (lib->freef != NULL))

	mov	eax, DWORD PTR _result$[ebp]
	test	eax, eax
	je	SHORT $LN20@xmlRelaxNG
	mov	ecx, DWORD PTR [edi+24]
	test	ecx, ecx
	je	SHORT $LN20@xmlRelaxNG

; 8669 :         lib->freef(lib->data, result);

	push	eax
	push	DWORD PTR [edi+4]
	call	ecx
	add	esp, 8
$LN20@xmlRelaxNG:

; 8670 :     return (ret);
; 8671 : }

	pop	edi
	pop	esi
	mov	eax, ebx
	pop	ebx
	mov	esp, ebp
	pop	ebp
	ret	0
$LN26@xmlRelaxNG:

; 8635 :         VALID_ERR2(XML_RELAXNG_ERR_TYPE, define->name);

	push	0
	push	0
	push	DWORD PTR [esi+8]
	push	2
	push	DWORD PTR _ctxt$[ebp]
	call	_xmlRelaxNGAddValidError

; 8636 :         if ((result != NULL) && (lib != NULL) && (lib->freef != NULL))

	mov	ecx, DWORD PTR _result$[ebp]
	add	esp, 20					; 00000014H
	test	ecx, ecx
	je	SHORT $LN5@xmlRelaxNG
	mov	eax, DWORD PTR [edi+24]
	test	eax, eax
	je	SHORT $LN5@xmlRelaxNG

; 8637 :             lib->freef(lib->data, result);

	push	ecx
	push	DWORD PTR [edi+4]
	call	eax
	add	esp, 8
$LN5@xmlRelaxNG:

; 8670 :     return (ret);
; 8671 : }

	pop	edi
	pop	esi
	or	eax, -1
	pop	ebx
	mov	esp, ebp
	pop	ebp
	ret	0
_xmlRelaxNGValidateDatatype ENDP
_TEXT	ENDS
; Function compile flags: /Ogtp
; File c:\users\dag\documents\_clients\codeproject authors group\windows on arm\libxml2\libxml2-2.9.9\relaxng.c
;	COMDAT _xmlRelaxNGSkipIgnored
_TEXT	SEGMENT
_ctxt$ = 8						; size = 4
_node$ = 12						; size = 4
_xmlRelaxNGSkipIgnored PROC				; COMDAT

; 8535 : {

	push	ebp
	mov	ebp, esp
	push	esi
	mov	ecx, OFFSET __49DBE4F2_relaxng@c
	call	@__CheckForDebuggerJustMyCode@4
	mov	esi, DWORD PTR _node$[ebp]
	test	esi, esi
	je	SHORT $LN12@xmlRelaxNG
	push	edi
	mov	edi, DWORD PTR _ctxt$[ebp]
	npad	7
$LL2@xmlRelaxNG:

; 8536 :     /*
; 8537 :      * TODO complete and handle entities
; 8538 :      */
; 8539 :     while ((node != NULL) &&

	mov	eax, DWORD PTR [esi+4]
	cmp	eax, 8
	je	SHORT $LN6@xmlRelaxNG
	cmp	eax, 7
	je	SHORT $LN6@xmlRelaxNG
	cmp	eax, 19					; 00000013H
	je	SHORT $LN6@xmlRelaxNG
	cmp	eax, 20					; 00000014H
	je	SHORT $LN6@xmlRelaxNG
	cmp	eax, 3
	je	SHORT $LN5@xmlRelaxNG
	cmp	eax, 4
	jne	SHORT $LN15@xmlRelaxNG
$LN5@xmlRelaxNG:
	test	BYTE PTR [edi+28], 4
	jne	SHORT $LN6@xmlRelaxNG
	push	DWORD PTR [esi+40]
	call	_xmlRelaxNGIsBlank
	add	esp, 4
	test	eax, eax
	je	SHORT $LN15@xmlRelaxNG
$LN6@xmlRelaxNG:

; 8540 :            ((node->type == XML_COMMENT_NODE) ||
; 8541 :             (node->type == XML_PI_NODE) ||
; 8542 : 	    (node->type == XML_XINCLUDE_START) ||
; 8543 : 	    (node->type == XML_XINCLUDE_END) ||
; 8544 :             (((node->type == XML_TEXT_NODE) ||
; 8545 :               (node->type == XML_CDATA_SECTION_NODE)) &&
; 8546 :              ((ctxt->flags & FLAGS_MIXED_CONTENT) ||
; 8547 :               (IS_BLANK_NODE(node)))))) {
; 8548 :         node = node->next;

	mov	esi, DWORD PTR [esi+24]
	test	esi, esi
	jne	SHORT $LL2@xmlRelaxNG
$LN15@xmlRelaxNG:
	pop	edi

; 8549 :     }
; 8550 :     return (node);

	mov	eax, esi
	pop	esi

; 8551 : }

	pop	ebp
	ret	0
$LN12@xmlRelaxNG:

; 8549 :     }
; 8550 :     return (node);

	mov	eax, esi
	pop	esi

; 8551 : }

	pop	ebp
	ret	0
_xmlRelaxNGSkipIgnored ENDP
_TEXT	ENDS
; Function compile flags: /Ogtp
; File c:\users\dag\documents\_clients\codeproject authors group\windows on arm\libxml2\libxml2-2.9.9\relaxng.c
;	COMDAT _xmlRelaxNGValidateValue
_TEXT	SEGMENT
_oldend$1$ = -4						; size = 4
_oldflags$2$ = -4					; size = 4
_temp$1$ = 8						; size = 4
_temp$1$ = 8						; size = 4
_oldvalue$1$ = 8					; size = 4
_oldflags$1$ = 8					; size = 4
_ctxt$ = 8						; size = 4
_val$1$ = 12						; size = 4
_oldvalue$1$ = 12					; size = 4
_nval$1$ = 12						; size = 4
_define$ = 12						; size = 4
_xmlRelaxNGValidateValue PROC				; COMDAT

; 8739 : {

	push	ebp
	mov	ebp, esp
	push	ecx
	push	ebx
	push	esi
	push	edi
	mov	ecx, OFFSET __49DBE4F2_relaxng@c
	call	@__CheckForDebuggerJustMyCode@4
	mov	edi, DWORD PTR _ctxt$[ebp]
	xor	ebx, ebx
	mov	esi, DWORD PTR _define$[ebp]
	mov	edx, DWORD PTR [edi+60]
	mov	eax, DWORD PTR [esi]
	mov	ecx, DWORD PTR [edx+20]
	mov	DWORD PTR _oldvalue$1$[ebp], ecx
	cmp	eax, 18					; 00000012H
	ja	$LN85@xmlRelaxNG

; 8740 :     int ret = 0, oldflags;
; 8741 :     xmlChar *value;
; 8742 : 
; 8743 :     value = ctxt->state->value;
; 8744 :     switch (define->type) {

	jmp	DWORD PTR $LN143@xmlRelaxNG[eax*4]
$LN22@xmlRelaxNG:

; 8745 :         case XML_RELAXNG_EMPTY:{
; 8746 :                 if ((value != NULL) && (value[0] != 0)) {

	test	ecx, ecx
	je	$LN2@xmlRelaxNG
	mov	al, BYTE PTR [ecx]
	test	al, al
	je	$LN2@xmlRelaxNG
$LL4@xmlRelaxNG:

; 8747 :                     int idx = 0;
; 8748 : 
; 8749 :                     while (IS_BLANK_CH(value[idx]))

	cmp	al, 32					; 00000020H
	je	SHORT $LN24@xmlRelaxNG
	cmp	al, 9
	jb	SHORT $LN25@xmlRelaxNG
	cmp	al, 10					; 0000000aH
	jbe	SHORT $LN24@xmlRelaxNG
$LN25@xmlRelaxNG:
	cmp	al, 13					; 0000000dH
	jne	SHORT $LN5@xmlRelaxNG
$LN24@xmlRelaxNG:

; 8750 :                         idx++;

	mov	al, BYTE PTR [ecx+1]
	inc	ecx
	jmp	SHORT $LL4@xmlRelaxNG
$LN5@xmlRelaxNG:

; 8751 :                     if (value[idx] != 0)

	test	al, al
	je	$LN2@xmlRelaxNG

; 9012 :     }
; 9013 :     return (ret);

	pop	edi
	or	ebx, -1

; 9014 : }

	pop	esi
	mov	eax, ebx
	pop	ebx
	mov	esp, ebp
	pop	ebp
	ret	0
$LN28@xmlRelaxNG:

; 8752 :                         ret = -1;
; 8753 :                 }
; 8754 :                 break;
; 8755 :             }
; 8756 :         case XML_RELAXNG_TEXT:
; 8757 :             break;
; 8758 :         case XML_RELAXNG_VALUE:{
; 8759 :                 if (!xmlStrEqual(value, define->value)) {

	push	DWORD PTR [esi+16]
	push	ecx
	call	_xmlStrEqual
	add	esp, 8
	test	eax, eax
	jne	$LN128@xmlRelaxNG

; 8760 :                     if (define->name != NULL) {

	cmp	DWORD PTR [esi+8], ebx
	je	SHORT $LN30@xmlRelaxNG

; 8761 :                         xmlRelaxNGTypeLibraryPtr lib;
; 8762 : 
; 8763 :                         lib = (xmlRelaxNGTypeLibraryPtr) define->data;

	mov	edx, DWORD PTR [esi+20]

; 8764 :                         if ((lib != NULL) && (lib->comp != NULL)) {

	test	edx, edx
	je	SHORT $LN129@xmlRelaxNG
	mov	ebx, DWORD PTR [edx+16]
	test	ebx, ebx
	je	SHORT $LN129@xmlRelaxNG

; 8765 :                             ret = lib->comp(lib->data, define->name,

	mov	eax, DWORD PTR [edi+60]
	mov	ecx, DWORD PTR _oldvalue$1$[ebp]
	push	DWORD PTR [eax]
	push	ecx
	push	DWORD PTR [esi+36]
	push	DWORD PTR [esi+4]
	push	DWORD PTR [esi+16]
	push	DWORD PTR [esi+8]
	push	DWORD PTR [edx+4]
	call	ebx
	mov	ebx, eax
	add	esp, 28					; 0000001cH

; 8766 :                                             define->value, define->node,
; 8767 :                                             (void *) define->attrs,
; 8768 :                                             value, ctxt->state->node);
; 8769 :                         } else
; 8770 :                             ret = -1;
; 8771 :                         if (ret < 0) {

	test	ebx, ebx
	js	SHORT $LN129@xmlRelaxNG

; 8775 :                         } else if (ret == 1) {
; 8776 :                             ret = 0;
; 8777 :                         } else {
; 8778 :                             ret = -1;
; 8779 :                         }
; 8780 :                     } else {

	dec	ebx
	neg	ebx
	sbb	ebx, ebx
	jmp	SHORT $LN41@xmlRelaxNG
$LN129@xmlRelaxNG:

; 8772 :                             VALID_ERR2(XML_RELAXNG_ERR_TYPECMP,

	push	0
	push	0
	push	DWORD PTR [esi+8]
	push	5
	push	edi
	call	_xmlRelaxNGAddValidError
	add	esp, 20					; 00000014H

; 8773 :                                        define->name);
; 8774 :                             return (-1);

	or	eax, -1
	pop	edi

; 9014 : }

	pop	esi
	pop	ebx
	mov	esp, ebp
	pop	ebp
	ret	0
$LN30@xmlRelaxNG:

; 8781 :                         xmlChar *nval, *nvalue;
; 8782 : 
; 8783 :                         /*
; 8784 :                          * TODO: trivial optimizations are possible by
; 8785 :                          * computing at compile-time
; 8786 :                          */
; 8787 :                         nval = xmlRelaxNGNormalize(ctxt, define->value);

	push	DWORD PTR [esi+16]
	push	edi
	call	_xmlRelaxNGNormalize

; 8788 :                         nvalue = xmlRelaxNGNormalize(ctxt, value);

	mov	ecx, DWORD PTR _oldvalue$1$[ebp]
	push	ecx
	push	edi
	mov	DWORD PTR _nval$1$[ebp], eax
	call	_xmlRelaxNGNormalize
	mov	esi, eax
	add	esp, 16					; 00000010H

; 8789 : 
; 8790 :                         if ((nval == NULL) || (nvalue == NULL) ||

	mov	eax, DWORD PTR _nval$1$[ebp]
	test	eax, eax
	je	SHORT $LN39@xmlRelaxNG
	test	esi, esi
	je	SHORT $LN39@xmlRelaxNG
	push	esi
	push	eax
	call	_xmlStrEqual
	add	esp, 8
	test	eax, eax
	jne	SHORT $LN38@xmlRelaxNG
$LN39@xmlRelaxNG:

; 8791 :                             (!xmlStrEqual(nval, nvalue)))
; 8792 :                             ret = -1;

	or	ebx, -1
$LN38@xmlRelaxNG:

; 8793 :                         if (nval != NULL)

	mov	eax, DWORD PTR _nval$1$[ebp]
	test	eax, eax
	je	SHORT $LN40@xmlRelaxNG

; 8794 :                             xmlFree(nval);

	push	eax
	call	DWORD PTR _xmlFree
	add	esp, 4
$LN40@xmlRelaxNG:

; 8795 :                         if (nvalue != NULL)

	test	esi, esi
	je	SHORT $LN41@xmlRelaxNG

; 8796 :                             xmlFree(nvalue);

	push	esi
	call	DWORD PTR _xmlFree
	add	esp, 4
$LN41@xmlRelaxNG:

; 9012 :     }
; 9013 :     return (ret);

	test	ebx, ebx
	jne	$LN2@xmlRelaxNG
$LN128@xmlRelaxNG:
	push	edi
	call	_xmlRelaxNGNextValue
	add	esp, 4
	mov	eax, ebx
	pop	edi

; 9014 : }

	pop	esi
	pop	ebx
	mov	esp, ebp
	pop	ebp
	ret	0
$LN43@xmlRelaxNG:

; 8797 :                     }
; 8798 :                 }
; 8799 :                 if (ret == 0)
; 8800 :                     xmlRelaxNGNextValue(ctxt);
; 8801 :                 break;
; 8802 :             }
; 8803 :         case XML_RELAXNG_DATATYPE:{
; 8804 :                 ret = xmlRelaxNGValidateDatatype(ctxt, value, define,

	push	DWORD PTR [edx+4]
	push	esi
	push	ecx
	push	edi
	call	_xmlRelaxNGValidateDatatype
	add	esp, 16					; 00000010H
	mov	ebx, eax

; 8805 :                                                  ctxt->state->seq);
; 8806 :                 if (ret == 0)
; 8807 :                     xmlRelaxNGNextValue(ctxt);
; 8808 : 
; 8809 :                 break;

	jmp	SHORT $LN41@xmlRelaxNG
$LN45@xmlRelaxNG:

; 8810 :             }
; 8811 :         case XML_RELAXNG_CHOICE:{
; 8812 :                 xmlRelaxNGDefinePtr list = define->content;
; 8813 :                 xmlChar *oldvalue;
; 8814 : 
; 8815 :                 oldflags = ctxt->flags;

	mov	ecx, DWORD PTR [edi+28]

; 8816 :                 ctxt->flags |= FLAGS_IGNORABLE;

	mov	eax, ecx
	mov	esi, DWORD PTR [esi+24]
	or	eax, 1
	mov	DWORD PTR [edi+28], eax

; 8817 : 
; 8818 :                 oldvalue = ctxt->state->value;

