; Listing generated by Microsoft (R) Optimizing Compiler Version 19.16.27027.1 

	TITLE	C:\Users\DAG\Documents\_Clients\CodeProject Authors Group\Windows on ARM\libxml2\libxml2-2.9.9\tree.c
	.686P
	.XMM
	include listing.inc
	.model	flat

INCLUDELIB MSVCRT
INCLUDELIB OLDNAMES

PUBLIC	___xmlRegisterCallbacks
PUBLIC	_xmlStringText
PUBLIC	_xmlStringTextNoenc
PUBLIC	_xmlStringComment
_BSS	SEGMENT
___xmlRegisterCallbacks DD 01H DUP (?)
_BSS	ENDS
_DATA	SEGMENT
COMM	_xmlMalloc:DWORD
COMM	_xmlMallocAtomic:DWORD
COMM	_xmlRealloc:DWORD
COMM	_xmlFree:DWORD
COMM	_xmlMemStrdup:DWORD
COMM	_xmlIsBaseCharGroup:BYTE:010H
COMM	_xmlIsCharGroup:BYTE:010H
COMM	_xmlIsCombiningGroup:BYTE:010H
COMM	_xmlIsDigitGroup:BYTE:010H
COMM	_xmlIsExtenderGroup:BYTE:010H
COMM	_xmlIsIdeographicGroup:BYTE:010H
COMM	_xmlIsPubidChar_tab:BYTE:0100H
COMM	_xmlParserMaxDepth:DWORD
COMM	_xmlXPathNAN:QWORD
COMM	_xmlXPathPINF:QWORD
COMM	_xmlXPathNINF:QWORD
COMM	_forbiddenExp:DWORD
COMM	_emptyExp:DWORD
_DATA	ENDS
CONST	SEGMENT
_xmlStringText DB 074H
	DB	065H
	DB	078H
	DB	074H
	DB	00H
	ORG $+3
_xmlStringTextNoenc DB 074H
	DB	065H
	DB	078H
	DB	074H
	DB	06eH
	DB	06fH
	DB	065H
	DB	06eH
	DB	063H
	DB	00H
	ORG $+2
_xmlStringComment DB 063H
	DB	06fH
	DB	06dH
	DB	06dH
	DB	065H
	DB	06eH
	DB	074H
	DB	00H
CONST	ENDS
msvcjmc	SEGMENT
__188180DA_corecrt_math@h DB 01H
__2CC6E67D_corecrt_stdio_config@h DB 01H
__05476D76_corecrt_wstdio@h DB 01H
__A452D4A0_stdio@h DB 01H
__4384A2D9_corecrt_memcpy_s@h DB 01H
__4E51A221_corecrt_wstring@h DB 01H
__2140C079_string@h DB 01H
__7B7A869E_ctype@h DB 01H
__457DD326_basetsd@h DB 01H
__1887E595_winnt@h DB 01H
__9FC7C64B_processthreadsapi@h DB 01H
__FA470AEC_memoryapi@h DB 01H
__F37DAFF1_winerror@h DB 01H
__7A450CCC_winbase@h DB 01H
__B4B40122_winioctl@h DB 01H
__86261D59_stralign@h DB 01H
__59973643_tree@c DB 01H
msvcjmc	ENDS
PUBLIC	___local_stdio_printf_options
PUBLIC	_snprintf
PUBLIC	_xmlValidateNCName
PUBLIC	_xmlValidateQName
PUBLIC	_xmlValidateName
PUBLIC	_xmlValidateNMToken
PUBLIC	_xmlBuildQName
PUBLIC	_xmlSplitQName2
PUBLIC	_xmlSplitQName3
PUBLIC	_xmlSetBufferAllocationScheme
PUBLIC	_xmlGetBufferAllocationScheme
PUBLIC	_xmlBufferCreate
PUBLIC	_xmlBufferCreateSize
PUBLIC	_xmlBufferCreateStatic
PUBLIC	_xmlBufferResize
PUBLIC	_xmlBufferFree
PUBLIC	_xmlBufferDump
PUBLIC	_xmlBufferAdd
PUBLIC	_xmlBufferAddHead
PUBLIC	_xmlBufferCat
PUBLIC	_xmlBufferCCat
PUBLIC	_xmlBufferShrink
PUBLIC	_xmlBufferGrow
PUBLIC	_xmlBufferEmpty
PUBLIC	_xmlBufferContent
PUBLIC	_xmlBufferDetach
PUBLIC	_xmlBufferSetAllocationScheme
PUBLIC	_xmlBufferLength
PUBLIC	_xmlCreateIntSubset
PUBLIC	_xmlNewDtd
PUBLIC	_xmlGetIntSubset
PUBLIC	_xmlFreeDtd
PUBLIC	_xmlNewNs
PUBLIC	_xmlFreeNs
PUBLIC	_xmlFreeNsList
PUBLIC	_xmlNewDoc
PUBLIC	_xmlFreeDoc
PUBLIC	_xmlNewDocProp
PUBLIC	_xmlNewProp
PUBLIC	_xmlNewNsProp
PUBLIC	_xmlNewNsPropEatName
PUBLIC	_xmlFreePropList
PUBLIC	_xmlFreeProp
PUBLIC	_xmlCopyProp
PUBLIC	_xmlCopyPropList
PUBLIC	_xmlCopyDtd
PUBLIC	_xmlCopyDoc
PUBLIC	_xmlNewDocNode
PUBLIC	_xmlNewDocNodeEatName
PUBLIC	_xmlNewNode
PUBLIC	_xmlNewNodeEatName
PUBLIC	_xmlNewChild
PUBLIC	_xmlNewDocText
PUBLIC	_xmlNewText
PUBLIC	_xmlNewDocPI
PUBLIC	_xmlNewPI
PUBLIC	_xmlNewDocTextLen
PUBLIC	_xmlNewTextLen
PUBLIC	_xmlNewDocComment
PUBLIC	_xmlNewComment
PUBLIC	_xmlNewCDataBlock
PUBLIC	_xmlNewCharRef
PUBLIC	_xmlNewReference
PUBLIC	_xmlCopyNode
PUBLIC	_xmlDocCopyNode
PUBLIC	_xmlDocCopyNodeList
PUBLIC	_xmlCopyNodeList
PUBLIC	_xmlNewTextChild
PUBLIC	_xmlNewDocRawNode
PUBLIC	_xmlNewDocFragment
PUBLIC	_xmlGetLineNo
PUBLIC	_xmlGetNodePath
PUBLIC	_xmlDocGetRootElement
PUBLIC	_xmlGetLastChild
PUBLIC	_xmlNodeIsText
PUBLIC	_xmlIsBlankNode
PUBLIC	_xmlDocSetRootElement
PUBLIC	_xmlNodeSetName
PUBLIC	_xmlAddChild
PUBLIC	_xmlAddChildList
PUBLIC	_xmlReplaceNode
PUBLIC	_xmlAddPrevSibling
PUBLIC	_xmlAddSibling
PUBLIC	_xmlAddNextSibling
PUBLIC	_xmlUnlinkNode
PUBLIC	_xmlTextMerge
PUBLIC	_xmlTextConcat
PUBLIC	_xmlFreeNodeList
PUBLIC	_xmlFreeNode
PUBLIC	_xmlSetTreeDoc
PUBLIC	_xmlSetListDoc
PUBLIC	_xmlSearchNs
PUBLIC	_xmlSearchNsByHref
PUBLIC	_xmlGetNsList
PUBLIC	_xmlSetNs
PUBLIC	_xmlCopyNamespace
PUBLIC	_xmlCopyNamespaceList
PUBLIC	_xmlSetProp
PUBLIC	_xmlSetNsProp
PUBLIC	_xmlGetNoNsProp
PUBLIC	_xmlGetProp
PUBLIC	_xmlHasProp
PUBLIC	_xmlHasNsProp
PUBLIC	_xmlGetNsProp
PUBLIC	_xmlStringGetNodeList
PUBLIC	_xmlStringLenGetNodeList
PUBLIC	_xmlNodeListGetString
PUBLIC	_xmlNodeListGetRawString
PUBLIC	_xmlNodeSetContent
PUBLIC	_xmlNodeSetContentLen
PUBLIC	_xmlNodeAddContent
PUBLIC	_xmlNodeAddContentLen
PUBLIC	_xmlNodeGetContent
PUBLIC	_xmlNodeBufGetContent
PUBLIC	_xmlBufGetNodeContent
PUBLIC	_xmlNodeGetLang
PUBLIC	_xmlNodeGetSpacePreserve
PUBLIC	_xmlNodeSetLang
PUBLIC	_xmlNodeSetSpacePreserve
PUBLIC	_xmlNodeGetBase
PUBLIC	_xmlNodeSetBase
PUBLIC	_xmlRemoveProp
PUBLIC	_xmlUnsetNsProp
PUBLIC	_xmlUnsetProp
PUBLIC	_xmlBufferWriteCHAR
PUBLIC	_xmlBufferWriteChar
PUBLIC	_xmlBufferWriteQuotedString
PUBLIC	_xmlReconciliateNs
PUBLIC	_xmlGetDocCompressMode
PUBLIC	_xmlSetDocCompressMode
PUBLIC	_xmlGetCompressMode
PUBLIC	_xmlSetCompressMode
PUBLIC	_xmlDOMWrapNewCtxt
PUBLIC	_xmlDOMWrapFreeCtxt
PUBLIC	_xmlDOMWrapReconcileNamespaces
PUBLIC	_xmlDOMWrapAdoptNode
PUBLIC	_xmlDOMWrapRemoveNode
PUBLIC	_xmlDOMWrapCloneNode
PUBLIC	_xmlChildElementCount
PUBLIC	_xmlNextElementSibling
PUBLIC	_xmlFirstElementChild
PUBLIC	_xmlLastElementChild
PUBLIC	_xmlPreviousElementSibling
PUBLIC	__JustMyCode_Default
PUBLIC	??_C@_0CF@MFCHFOON@invalid?5hexadecimal?5character?5v@ ; `string'
PUBLIC	??_C@_0CB@MCPMOJHG@invalid?5decimal?5character?5value@ ; `string'
PUBLIC	??_C@_0CE@INHDJIAN@unterminated?5entity?5reference?5?$CF@ ; `string'
PUBLIC	??_C@_0BI@KDLJAAPA@string?5is?5not?5in?5UTF?98?6@ ; `string'
PUBLIC	??_C@_0BJ@IPOHNFHE@unexpected?5error?5number?6@	; `string'
PUBLIC	??_C@_0P@LPKFEOPI@building?5QName@		; `string'
PUBLIC	??_C@_0M@GKLEBIKC@QName?5split@			; `string'
PUBLIC	??_C@_03PJHHNEEI@xml@				; `string'
PUBLIC	??_C@_0CF@GLDAAHFK@http?3?1?1www?4w3?4org?1XML?11998?1name@ ; `string'
PUBLIC	??_C@_0BD@OMFEMMGI@building?5namespace@		; `string'
PUBLIC	??_C@_0N@OIMLODKO@building?5DTD@		; `string'
PUBLIC	??_C@_0BJ@INPJKJEA@building?5internal?5subset@	; `string'
PUBLIC	??_C@_03HLLJOCDO@1?40@				; `string'
PUBLIC	??_C@_0N@LKACPEIE@building?5doc@		; `string'
PUBLIC	??_C@_00CNPNBAHC@@				; `string'
PUBLIC	??_C@_0BD@EEPKIILJ@building?5attribute@		; `string'
PUBLIC	??_C@_0L@GJIJNDEK@ISO?98859?91@			; `string'
PUBLIC	??_C@_0M@OGMFHPHO@building?5PI@			; `string'
PUBLIC	??_C@_0O@LNBKNEAL@building?5node@		; `string'
PUBLIC	??_C@_0BC@HPKKMJFM@building?5fragment@		; `string'
PUBLIC	??_C@_0O@LOBCMCEI@building?5text@		; `string'
PUBLIC	??_C@_0BN@PHGPAPBE@building?5character?5reference@ ; `string'
PUBLIC	??_C@_0BD@OKHPDLFF@building?5reference@		; `string'
PUBLIC	??_C@_0BB@JNPLEEAM@building?5comment@		; `string'
PUBLIC	??_C@_0P@MBGLGFEO@building?5CDATA@		; `string'
PUBLIC	??_C@_0N@IDAFCAHJ@copying?5node@		; `string'
PUBLIC	??_C@_0BC@NABGEGIL@getting?5node?5path@		; `string'
PUBLIC	??_C@_01OGPIMHDM@?$DP@				; `string'
PUBLIC	??_C@_01KMDKNFGN@?1@				; `string'
PUBLIC	??_C@_05CCMOGDN@?$CFs?3?$CFs@			; `string'
PUBLIC	??_C@_01NBENCBCI@?$CK@				; `string'
PUBLIC	??_C@_09OMIOBGHN@comment?$CI?$CJ@		; `string'
PUBLIC	??_C@_06HNGKFOCG@text?$CI?$CJ@			; `string'
PUBLIC	??_C@_0BN@BBPFEMPE@processing?9instruction?$CI?8?$CFs?8?$CJ@ ; `string'
PUBLIC	??_C@_02MDNGGIDF@?1?$EA@			; `string'
PUBLIC	??_C@_02DKCKIIND@?$CFs@				; `string'
PUBLIC	??_C@_06DIJPEION@?$CFs?$CFs?$CFs@		; `string'
PUBLIC	??_C@_0L@INIGIDIG@?$CFs?$CFs?$FL?$CFd?$FN?$CFs@	; `string'
PUBLIC	??_C@_04IOHABJIC@lang@				; `string'
PUBLIC	??_C@_07DLHCIBDH@default@			; `string'
PUBLIC	??_C@_05OLNILLAB@space@				; `string'
PUBLIC	??_C@_08ILAKLJGO@preserve@			; `string'
PUBLIC	??_C@_04BHIIPFEC@base@				; `string'
PUBLIC	??_C@_04PNIFHPHN@html@				; `string'
PUBLIC	??_C@_04NEODDMOL@head@				; `string'
PUBLIC	??_C@_04CMBCJJJD@href@				; `string'
PUBLIC	??_C@_07FGAOOBMN@http?3?1?1@			; `string'
PUBLIC	??_C@_06FNAPNHDD@ftp?3?1?1@			; `string'
PUBLIC	??_C@_04KODJDHBJ@urn?3@				; `string'
PUBLIC	??_C@_0BH@FLIFGMAI@getting?5namespace?5list@	; `string'
PUBLIC	??_C@_0BN@LLCMIJBD@allocating?5the?5XML?5namespace@ ; `string'
PUBLIC	??_C@_0BE@FPBDMLJE@searching?5namespace@	; `string'
PUBLIC	??_C@_05BNPGKEDD@?$CF?420s@			; `string'
PUBLIC	??_C@_09DFKPACFI@default?$CFd@			; `string'
PUBLIC	??_C@_07BKMHDFJP@?$CF?420s?$CFd@		; `string'
PUBLIC	??_C@_0BC@MPADMMPM@fixing?5namespaces@		; `string'
PUBLIC	??_C@_01JLIPDDHJ@?3@				; `string'
PUBLIC	??_C@_0BA@GIGPFFIA@creating?5buffer@		; `string'
PUBLIC	??_C@_0P@LKGMENGP@growing?5buffer@		; `string'
PUBLIC	??_C@_01BJJEKLCA@?$CC@				; `string'
PUBLIC	??_C@_06DDLNFFBN@?$CGquot?$DL@			; `string'
PUBLIC	??_C@_01GEODFPGF@?8@				; `string'
PUBLIC	??_C@_0BJ@JOLPDGAP@allocating?5namespace?5map@	; `string'
PUBLIC	??_C@_0BO@JPEMBFPF@allocating?5namespace?5map?5item@ ; `string'
PUBLIC	??_C@_0BP@IBBGEDIA@allocating?5DOM?9wrapper?5context@ ; `string'
PUBLIC	??_C@_0BC@OAPAONED@alloc?5ns?5map?5item@	; `string'
PUBLIC	??_C@_0BE@NIDEIDLB@realloc?5ns?5map?5item@	; `string'
PUBLIC	??_C@_05GOMIJPDF@ns_?$CFd@			; `string'
PUBLIC	??_C@_08LCJGELPI@?$CF?430s_?$CFd@		; `string'
PUBLIC	??_C@_0CJ@IBBFFAIA@xmlDOMWrapCloneNode?$CI?$CJ?3?5allocati@ ; `string'
PUBLIC	??_C@_0CP@CMDBBNPE@xmlDOMWrapCloneNode?$CI?$CJ?3?5allocati@ ; `string'
PUBLIC	??_C@_0CM@EDBMOGPG@xmlDOMWrapCloneNode?$CI?$CJ?3?5allocati@ ; `string'
EXTRN	_xmlStrdup:PROC
EXTRN	_xmlStrndup:PROC
EXTRN	_xmlStrchr:PROC
EXTRN	_xmlStrncmp:PROC
EXTRN	_xmlStrcasecmp:PROC
EXTRN	_xmlStrEqual:PROC
EXTRN	_xmlStrlen:PROC
EXTRN	_xmlStrcat:PROC
EXTRN	_xmlStrncat:PROC
EXTRN	_xmlStrncatNew:PROC
EXTRN	_xmlCheckUTF8:PROC
EXTRN	__imp____acrt_iob_func:PROC
EXTRN	__imp__fwrite:PROC
EXTRN	__imp____stdio_common_vsprintf:PROC
EXTRN	_xmlDictFree:PROC
EXTRN	_xmlDictLookup:PROC
EXTRN	_xmlDictOwns:PROC
EXTRN	_xmlHashRemoveEntry:PROC
EXTRN	_xmlHashLookup:PROC
EXTRN	___xmlSimpleError:PROC
EXTRN	_xmlCopyNotationTable:PROC
EXTRN	_xmlFreeNotationTable:PROC
EXTRN	_xmlCopyElementTable:PROC
EXTRN	_xmlFreeElementTable:PROC
EXTRN	_xmlCopyAttributeTable:PROC
EXTRN	_xmlFreeAttributeTable:PROC
EXTRN	_xmlAddID:PROC
EXTRN	_xmlFreeIDTable:PROC
EXTRN	_xmlIsID:PROC
EXTRN	_xmlRemoveID:PROC
EXTRN	_xmlFreeRefTable:PROC
EXTRN	_xmlGetDtdAttrDesc:PROC
EXTRN	_xmlGetDtdQAttrDesc:PROC
EXTRN	_xmlGetDtdQElementDesc:PROC
EXTRN	_xmlGetDocEntity:PROC
EXTRN	_xmlEncodeEntitiesReentrant:PROC
EXTRN	_xmlEncodeSpecialChars:PROC
EXTRN	_xmlCopyEntitiesTable:PROC
EXTRN	_xmlFreeEntitiesTable:PROC
EXTRN	___xmlBufferAllocScheme:PROC
EXTRN	___xmlDefaultBufferSize:PROC
EXTRN	___xmlRegisterNodeDefaultValue:PROC
EXTRN	___xmlDeregisterNodeDefaultValue:PROC
EXTRN	_xmlBuildURI:PROC
EXTRN	_xmlPathToURI:PROC
EXTRN	_xmlCharInRange:PROC
EXTRN	_xmlStringCurrentChar:PROC
EXTRN	_xmlCopyCharMultiByte:PROC
EXTRN	_xmlBufCreate:PROC
EXTRN	_xmlBufCreateSize:PROC
EXTRN	_xmlBufSetAllocationScheme:PROC
EXTRN	_xmlBufFree:PROC
EXTRN	_xmlBufAdd:PROC
EXTRN	_xmlBufCat:PROC
EXTRN	_xmlBufIsEmpty:PROC
EXTRN	_xmlBufDetach:PROC
EXTRN	_xmlBufFromBuffer:PROC
EXTRN	_xmlBufBackToBuffer:PROC
EXTRN	_xmlEncodeAttributeEntities:PROC
EXTRN	@__CheckForDebuggerJustMyCode@4:PROC
EXTRN	_memcpy:PROC
EXTRN	_memmove:PROC
EXTRN	_memset:PROC
_DATA	SEGMENT
COMM	?_OptionsStorage@?1??__local_stdio_printf_options@@9@9:QWORD							; `__local_stdio_printf_options'::`2'::_OptionsStorage
_DATA	ENDS
_BSS	SEGMENT
_xmlCompressMode DD 01H DUP (?)
_BSS	ENDS
;	COMDAT ??_C@_0CM@EDBMOGPG@xmlDOMWrapCloneNode?$CI?$CJ?3?5allocati@
CONST	SEGMENT
??_C@_0CM@EDBMOGPG@xmlDOMWrapCloneNode?$CI?$CJ?3?5allocati@ DB 'xmlDOMWra'
	DB	'pCloneNode(): allocating namespace', 00H	; `string'
CONST	ENDS
;	COMDAT ??_C@_0CP@CMDBBNPE@xmlDOMWrapCloneNode?$CI?$CJ?3?5allocati@
CONST	SEGMENT
??_C@_0CP@CMDBBNPE@xmlDOMWrapCloneNode?$CI?$CJ?3?5allocati@ DB 'xmlDOMWra'
	DB	'pCloneNode(): allocating an attr-node', 00H	; `string'
CONST	ENDS
;	COMDAT ??_C@_0CJ@IBBFFAIA@xmlDOMWrapCloneNode?$CI?$CJ?3?5allocati@
CONST	SEGMENT
??_C@_0CJ@IBBFFAIA@xmlDOMWrapCloneNode?$CI?$CJ?3?5allocati@ DB 'xmlDOMWra'
	DB	'pCloneNode(): allocating a node', 00H	; `string'
CONST	ENDS
;	COMDAT ??_C@_08LCJGELPI@?$CF?430s_?$CFd@
CONST	SEGMENT
??_C@_08LCJGELPI@?$CF?430s_?$CFd@ DB '%.30s_%d', 00H	; `string'
CONST	ENDS
;	COMDAT ??_C@_05GOMIJPDF@ns_?$CFd@
CONST	SEGMENT
??_C@_05GOMIJPDF@ns_?$CFd@ DB 'ns_%d', 00H		; `string'
CONST	ENDS
;	COMDAT ??_C@_0BE@NIDEIDLB@realloc?5ns?5map?5item@
CONST	SEGMENT
??_C@_0BE@NIDEIDLB@realloc?5ns?5map?5item@ DB 'realloc ns map item', 00H ; `string'
CONST	ENDS
;	COMDAT ??_C@_0BC@OAPAONED@alloc?5ns?5map?5item@
CONST	SEGMENT
??_C@_0BC@OAPAONED@alloc?5ns?5map?5item@ DB 'alloc ns map item', 00H ; `string'
CONST	ENDS
;	COMDAT ??_C@_0BP@IBBGEDIA@allocating?5DOM?9wrapper?5context@
CONST	SEGMENT
??_C@_0BP@IBBGEDIA@allocating?5DOM?9wrapper?5context@ DB 'allocating DOM-'
	DB	'wrapper context', 00H			; `string'
CONST	ENDS
;	COMDAT ??_C@_0BO@JPEMBFPF@allocating?5namespace?5map?5item@
CONST	SEGMENT
??_C@_0BO@JPEMBFPF@allocating?5namespace?5map?5item@ DB 'allocating names'
	DB	'pace map item', 00H				; `string'
CONST	ENDS
;	COMDAT ??_C@_0BJ@JOLPDGAP@allocating?5namespace?5map@
CONST	SEGMENT
??_C@_0BJ@JOLPDGAP@allocating?5namespace?5map@ DB 'allocating namespace m'
	DB	'ap', 00H					; `string'
CONST	ENDS
;	COMDAT ??_C@_01GEODFPGF@?8@
CONST	SEGMENT
??_C@_01GEODFPGF@?8@ DB '''', 00H			; `string'
CONST	ENDS
;	COMDAT ??_C@_06DDLNFFBN@?$CGquot?$DL@
CONST	SEGMENT
??_C@_06DDLNFFBN@?$CGquot?$DL@ DB '&quot;', 00H		; `string'
CONST	ENDS
;	COMDAT ??_C@_01BJJEKLCA@?$CC@
CONST	SEGMENT
??_C@_01BJJEKLCA@?$CC@ DB '"', 00H			; `string'
CONST	ENDS
;	COMDAT ??_C@_0P@LKGMENGP@growing?5buffer@
CONST	SEGMENT
??_C@_0P@LKGMENGP@growing?5buffer@ DB 'growing buffer', 00H ; `string'
CONST	ENDS
;	COMDAT ??_C@_0BA@GIGPFFIA@creating?5buffer@
CONST	SEGMENT
??_C@_0BA@GIGPFFIA@creating?5buffer@ DB 'creating buffer', 00H ; `string'
CONST	ENDS
;	COMDAT ??_C@_01JLIPDDHJ@?3@
CONST	SEGMENT
??_C@_01JLIPDDHJ@?3@ DB ':', 00H			; `string'
CONST	ENDS
;	COMDAT ??_C@_0BC@MPADMMPM@fixing?5namespaces@
CONST	SEGMENT
??_C@_0BC@MPADMMPM@fixing?5namespaces@ DB 'fixing namespaces', 00H ; `string'
CONST	ENDS
;	COMDAT ??_C@_07BKMHDFJP@?$CF?420s?$CFd@
CONST	SEGMENT
??_C@_07BKMHDFJP@?$CF?420s?$CFd@ DB '%.20s%d', 00H	; `string'
CONST	ENDS
;	COMDAT ??_C@_09DFKPACFI@default?$CFd@
CONST	SEGMENT
??_C@_09DFKPACFI@default?$CFd@ DB 'default%d', 00H	; `string'
CONST	ENDS
;	COMDAT ??_C@_05BNPGKEDD@?$CF?420s@
CONST	SEGMENT
??_C@_05BNPGKEDD@?$CF?420s@ DB '%.20s', 00H		; `string'
CONST	ENDS
;	COMDAT ??_C@_0BE@FPBDMLJE@searching?5namespace@
CONST	SEGMENT
??_C@_0BE@FPBDMLJE@searching?5namespace@ DB 'searching namespace', 00H ; `string'
CONST	ENDS
;	COMDAT ??_C@_0BN@LLCMIJBD@allocating?5the?5XML?5namespace@
CONST	SEGMENT
??_C@_0BN@LLCMIJBD@allocating?5the?5XML?5namespace@ DB 'allocating the XM'
	DB	'L namespace', 00H				; `string'
CONST	ENDS
;	COMDAT ??_C@_0BH@FLIFGMAI@getting?5namespace?5list@
CONST	SEGMENT
??_C@_0BH@FLIFGMAI@getting?5namespace?5list@ DB 'getting namespace list', 00H ; `string'
CONST	ENDS
;	COMDAT ??_C@_04KODJDHBJ@urn?3@
CONST	SEGMENT
??_C@_04KODJDHBJ@urn?3@ DB 'urn:', 00H			; `string'
CONST	ENDS
;	COMDAT ??_C@_06FNAPNHDD@ftp?3?1?1@
CONST	SEGMENT
??_C@_06FNAPNHDD@ftp?3?1?1@ DB 'ftp://', 00H		; `string'
CONST	ENDS
;	COMDAT ??_C@_07FGAOOBMN@http?3?1?1@
CONST	SEGMENT
??_C@_07FGAOOBMN@http?3?1?1@ DB 'http://', 00H		; `string'
CONST	ENDS
;	COMDAT ??_C@_04CMBCJJJD@href@
CONST	SEGMENT
??_C@_04CMBCJJJD@href@ DB 'href', 00H			; `string'
CONST	ENDS
;	COMDAT ??_C@_04NEODDMOL@head@
CONST	SEGMENT
??_C@_04NEODDMOL@head@ DB 'head', 00H			; `string'
CONST	ENDS
;	COMDAT ??_C@_04PNIFHPHN@html@
CONST	SEGMENT
??_C@_04PNIFHPHN@html@ DB 'html', 00H			; `string'
CONST	ENDS
;	COMDAT ??_C@_04BHIIPFEC@base@
CONST	SEGMENT
??_C@_04BHIIPFEC@base@ DB 'base', 00H			; `string'
CONST	ENDS
;	COMDAT ??_C@_08ILAKLJGO@preserve@
CONST	SEGMENT
??_C@_08ILAKLJGO@preserve@ DB 'preserve', 00H		; `string'
CONST	ENDS
;	COMDAT ??_C@_05OLNILLAB@space@
CONST	SEGMENT
??_C@_05OLNILLAB@space@ DB 'space', 00H			; `string'
CONST	ENDS
;	COMDAT ??_C@_07DLHCIBDH@default@
CONST	SEGMENT
??_C@_07DLHCIBDH@default@ DB 'default', 00H		; `string'
CONST	ENDS
;	COMDAT ??_C@_04IOHABJIC@lang@
CONST	SEGMENT
??_C@_04IOHABJIC@lang@ DB 'lang', 00H			; `string'
CONST	ENDS
;	COMDAT ??_C@_0L@INIGIDIG@?$CFs?$CFs?$FL?$CFd?$FN?$CFs@
CONST	SEGMENT
??_C@_0L@INIGIDIG@?$CFs?$CFs?$FL?$CFd?$FN?$CFs@ DB '%s%s[%d]%s', 00H ; `string'
CONST	ENDS
;	COMDAT ??_C@_06DIJPEION@?$CFs?$CFs?$CFs@
CONST	SEGMENT
??_C@_06DIJPEION@?$CFs?$CFs?$CFs@ DB '%s%s%s', 00H	; `string'
CONST	ENDS
;	COMDAT ??_C@_02DKCKIIND@?$CFs@
CONST	SEGMENT
??_C@_02DKCKIIND@?$CFs@ DB '%s', 00H			; `string'
CONST	ENDS
;	COMDAT ??_C@_02MDNGGIDF@?1?$EA@
CONST	SEGMENT
??_C@_02MDNGGIDF@?1?$EA@ DB '/@', 00H			; `string'
CONST	ENDS
;	COMDAT ??_C@_0BN@BBPFEMPE@processing?9instruction?$CI?8?$CFs?8?$CJ@
CONST	SEGMENT
??_C@_0BN@BBPFEMPE@processing?9instruction?$CI?8?$CFs?8?$CJ@ DB 'processi'
	DB	'ng-instruction(''%s'')', 00H		; `string'
CONST	ENDS
;	COMDAT ??_C@_06HNGKFOCG@text?$CI?$CJ@
CONST	SEGMENT
??_C@_06HNGKFOCG@text?$CI?$CJ@ DB 'text()', 00H		; `string'
CONST	ENDS
;	COMDAT ??_C@_09OMIOBGHN@comment?$CI?$CJ@
CONST	SEGMENT
??_C@_09OMIOBGHN@comment?$CI?$CJ@ DB 'comment()', 00H	; `string'
CONST	ENDS
;	COMDAT ??_C@_01NBENCBCI@?$CK@
CONST	SEGMENT
??_C@_01NBENCBCI@?$CK@ DB '*', 00H			; `string'
CONST	ENDS
;	COMDAT ??_C@_05CCMOGDN@?$CFs?3?$CFs@
CONST	SEGMENT
??_C@_05CCMOGDN@?$CFs?3?$CFs@ DB '%s:%s', 00H		; `string'
CONST	ENDS
;	COMDAT ??_C@_01KMDKNFGN@?1@
CONST	SEGMENT
??_C@_01KMDKNFGN@?1@ DB '/', 00H			; `string'
CONST	ENDS
;	COMDAT ??_C@_01OGPIMHDM@?$DP@
CONST	SEGMENT
??_C@_01OGPIMHDM@?$DP@ DB '?', 00H			; `string'
CONST	ENDS
;	COMDAT ??_C@_0BC@NABGEGIL@getting?5node?5path@
CONST	SEGMENT
??_C@_0BC@NABGEGIL@getting?5node?5path@ DB 'getting node path', 00H ; `string'
CONST	ENDS
;	COMDAT ??_C@_0N@IDAFCAHJ@copying?5node@
CONST	SEGMENT
??_C@_0N@IDAFCAHJ@copying?5node@ DB 'copying node', 00H	; `string'
CONST	ENDS
;	COMDAT ??_C@_0P@MBGLGFEO@building?5CDATA@
CONST	SEGMENT
??_C@_0P@MBGLGFEO@building?5CDATA@ DB 'building CDATA', 00H ; `string'
CONST	ENDS
;	COMDAT ??_C@_0BB@JNPLEEAM@building?5comment@
CONST	SEGMENT
??_C@_0BB@JNPLEEAM@building?5comment@ DB 'building comment', 00H ; `string'
CONST	ENDS
;	COMDAT ??_C@_0BD@OKHPDLFF@building?5reference@
CONST	SEGMENT
??_C@_0BD@OKHPDLFF@building?5reference@ DB 'building reference', 00H ; `string'
CONST	ENDS
;	COMDAT ??_C@_0BN@PHGPAPBE@building?5character?5reference@
CONST	SEGMENT
??_C@_0BN@PHGPAPBE@building?5character?5reference@ DB 'building character'
	DB	' reference', 00H				; `string'
CONST	ENDS
;	COMDAT ??_C@_0O@LOBCMCEI@building?5text@
CONST	SEGMENT
??_C@_0O@LOBCMCEI@building?5text@ DB 'building text', 00H ; `string'
CONST	ENDS
;	COMDAT ??_C@_0BC@HPKKMJFM@building?5fragment@
CONST	SEGMENT
??_C@_0BC@HPKKMJFM@building?5fragment@ DB 'building fragment', 00H ; `string'
CONST	ENDS
;	COMDAT ??_C@_0O@LNBKNEAL@building?5node@
CONST	SEGMENT
??_C@_0O@LNBKNEAL@building?5node@ DB 'building node', 00H ; `string'
CONST	ENDS
;	COMDAT ??_C@_0M@OGMFHPHO@building?5PI@
CONST	SEGMENT
??_C@_0M@OGMFHPHO@building?5PI@ DB 'building PI', 00H	; `string'
CONST	ENDS
;	COMDAT ??_C@_0L@GJIJNDEK@ISO?98859?91@
CONST	SEGMENT
??_C@_0L@GJIJNDEK@ISO?98859?91@ DB 'ISO-8859-1', 00H	; `string'
CONST	ENDS
;	COMDAT ??_C@_0BD@EEPKIILJ@building?5attribute@
CONST	SEGMENT
??_C@_0BD@EEPKIILJ@building?5attribute@ DB 'building attribute', 00H ; `string'
CONST	ENDS
;	COMDAT ??_C@_00CNPNBAHC@@
CONST	SEGMENT
??_C@_00CNPNBAHC@@ DB 00H				; `string'
CONST	ENDS
;	COMDAT ??_C@_0N@LKACPEIE@building?5doc@
CONST	SEGMENT
??_C@_0N@LKACPEIE@building?5doc@ DB 'building doc', 00H	; `string'
CONST	ENDS
;	COMDAT ??_C@_03HLLJOCDO@1?40@
CONST	SEGMENT
??_C@_03HLLJOCDO@1?40@ DB '1.0', 00H			; `string'
CONST	ENDS
;	COMDAT ??_C@_0BJ@INPJKJEA@building?5internal?5subset@
CONST	SEGMENT
??_C@_0BJ@INPJKJEA@building?5internal?5subset@ DB 'building internal subs'
	DB	'et', 00H					; `string'
CONST	ENDS
;	COMDAT ??_C@_0N@OIMLODKO@building?5DTD@
CONST	SEGMENT
??_C@_0N@OIMLODKO@building?5DTD@ DB 'building DTD', 00H	; `string'
CONST	ENDS
;	COMDAT ??_C@_0BD@OMFEMMGI@building?5namespace@
CONST	SEGMENT
??_C@_0BD@OMFEMMGI@building?5namespace@ DB 'building namespace', 00H ; `string'
CONST	ENDS
;	COMDAT ??_C@_0CF@GLDAAHFK@http?3?1?1www?4w3?4org?1XML?11998?1name@
CONST	SEGMENT
??_C@_0CF@GLDAAHFK@http?3?1?1www?4w3?4org?1XML?11998?1name@ DB 'http://ww'
	DB	'w.w3.org/XML/1998/namespace', 00H		; `string'
CONST	ENDS
;	COMDAT ??_C@_03PJHHNEEI@xml@
CONST	SEGMENT
??_C@_03PJHHNEEI@xml@ DB 'xml', 00H			; `string'
CONST	ENDS
;	COMDAT ??_C@_0M@GKLEBIKC@QName?5split@
CONST	SEGMENT
??_C@_0M@GKLEBIKC@QName?5split@ DB 'QName split', 00H	; `string'
CONST	ENDS
;	COMDAT ??_C@_0P@LPKFEOPI@building?5QName@
CONST	SEGMENT
??_C@_0P@LPKFEOPI@building?5QName@ DB 'building QName', 00H ; `string'
CONST	ENDS
_DATA	SEGMENT
_xmlCheckDTD DD	01H
_DATA	ENDS
;	COMDAT ??_C@_0BJ@IPOHNFHE@unexpected?5error?5number?6@
CONST	SEGMENT
??_C@_0BJ@IPOHNFHE@unexpected?5error?5number?6@ DB 'unexpected error numb'
	DB	'er', 0aH, 00H				; `string'
CONST	ENDS
;	COMDAT ??_C@_0BI@KDLJAAPA@string?5is?5not?5in?5UTF?98?6@
CONST	SEGMENT
??_C@_0BI@KDLJAAPA@string?5is?5not?5in?5UTF?98?6@ DB 'string is not in UT'
	DB	'F-8', 0aH, 00H				; `string'
CONST	ENDS
;	COMDAT ??_C@_0CE@INHDJIAN@unterminated?5entity?5reference?5?$CF@
CONST	SEGMENT
??_C@_0CE@INHDJIAN@unterminated?5entity?5reference?5?$CF@ DB 'unterminate'
	DB	'd entity reference %15s', 0aH, 00H		; `string'
CONST	ENDS
;	COMDAT ??_C@_0CB@MCPMOJHG@invalid?5decimal?5character?5value@
CONST	SEGMENT
??_C@_0CB@MCPMOJHG@invalid?5decimal?5character?5value@ DB 'invalid decima'
	DB	'l character value', 0aH, 00H		; `string'
CONST	ENDS
;	COMDAT ??_C@_0CF@MFCHFOON@invalid?5hexadecimal?5character?5v@
CONST	SEGMENT
??_C@_0CF@MFCHFOON@invalid?5hexadecimal?5character?5v@ DB 'invalid hexade'
	DB	'cimal character value', 0aH, 00H		; `string'
CONST	ENDS
; Function compile flags: /Odt
;	COMDAT __JustMyCode_Default
_TEXT	SEGMENT
__JustMyCode_Default PROC				; COMDAT
	push	ebp
	mov	ebp, esp
	pop	ebp
	ret	0
__JustMyCode_Default ENDP
_TEXT	ENDS
; Function compile flags: /Ogtp
; File c:\users\dag\documents\_clients\codeproject authors group\windows on arm\libxml2\libxml2-2.9.9\tree.c
;	COMDAT _xmlDOMWrapAdoptAttr
_TEXT	SEGMENT
_cur$1$ = -12						; size = 4
_out$1$ = -8						; size = 4
_nsName$1$ = -4						; size = 4
_ctxt$ = 8						; size = 4
_sourceDoc$ = 12					; size = 4
_attr$ = 16						; size = 4
_destDoc$ = 20						; size = 4
_destParent$ = 24					; size = 4
_options$ = 28						; size = 4
_xmlDOMWrapAdoptAttr PROC				; COMDAT

; 9903 : {

	push	ebp
	mov	ebp, esp
	sub	esp, 12					; 0000000cH
	mov	ecx, OFFSET __59973643_tree@c
	push	ebx
	push	esi
	push	edi
	call	@__CheckForDebuggerJustMyCode@4
	mov	edx, DWORD PTR _attr$[ebp]
	test	edx, edx
	je	$LN7@xmlDOMWrap

; 9904 :     xmlNodePtr cur;
; 9905 :     int adoptStr = 1;
; 9906 : 
; 9907 :     if ((attr == NULL) || (destDoc == NULL))

	mov	ebx, DWORD PTR _destDoc$[ebp]
	test	ebx, ebx
	je	$LN7@xmlDOMWrap

; 9908 : 	return (-1);
; 9909 : 
; 9910 :     attr->doc = destDoc;
; 9911 :     if (attr->ns != NULL) {

	mov	ecx, DWORD PTR [edx+36]
	mov	DWORD PTR [edx+32], ebx
	test	ecx, ecx
	je	$LN8@xmlDOMWrap

; 9912 : 	xmlNsPtr ns = NULL;
; 9913 : 
; 9914 : 	if (ctxt != NULL) {
; 9915 : 	    /* TODO: User defined. */
; 9916 : 	}
; 9917 : 	/* XML Namespace. */
; 9918 : 	if (IS_STR_XML(attr->ns->prefix)) {

	mov	eax, DWORD PTR [ecx+12]
	test	eax, eax
	je	SHORT $LN10@xmlDOMWrap
	cmp	BYTE PTR [eax], 120			; 00000078H
	jne	SHORT $LN10@xmlDOMWrap
	cmp	BYTE PTR [eax+1], 109			; 0000006dH
	jne	SHORT $LN10@xmlDOMWrap
	cmp	BYTE PTR [eax+2], 108			; 0000006cH
	jne	SHORT $LN10@xmlDOMWrap
	cmp	BYTE PTR [eax+3], 0
	jne	SHORT $LN10@xmlDOMWrap

; 9919 : 	    ns = xmlTreeEnsureXMLDecl(destDoc);

	push	ebx
	call	_xmlTreeEnsureXMLDecl
	add	esp, 4
	jmp	$LN124@xmlDOMWrap
$LN10@xmlDOMWrap:

; 9920 : 	} else if (destParent == NULL) {

	mov	edi, DWORD PTR _destParent$[ebp]
	mov	esi, DWORD PTR [ecx+8]
	mov	DWORD PTR _nsName$1$[ebp], esi
	test	edi, edi
	jne	SHORT $LN12@xmlDOMWrap

; 9921 : 	    /*
; 9922 : 	    * Store in @destDoc->oldNs.
; 9923 : 	    */
; 9924 : 	    ns = xmlDOMWrapStoreNs(destDoc, attr->ns->href, attr->ns->prefix);

	push	eax
	push	esi
	push	ebx
	call	_xmlDOMWrapStoreNs
	add	esp, 12					; 0000000cH

; 9925 : 	} else {

	jmp	$LN124@xmlDOMWrap
$LN12@xmlDOMWrap:

; 8355 :     xmlNodePtr cur, prev = NULL, out = NULL;

	xor	ebx, ebx
	mov	DWORD PTR _out$1$[ebp], ebx

; 8356 :     xmlNsPtr ns, prevns;
; 8357 : 
; 8358 :     if ((doc == NULL) || (nsName == NULL) || (retNs == NULL))

	test	esi, esi
	je	SHORT $LN7@xmlDOMWrap

; 8359 : 	return (-1);
; 8360 :     if ((node == NULL) || (node->type == XML_NAMESPACE_DECL))

	cmp	DWORD PTR [edi+4], 18			; 00000012H
	je	SHORT $LN7@xmlDOMWrap

; 8361 :         return(-1);
; 8362 : 
; 8363 :     *retNs = NULL;
; 8364 :     if (xmlStrEqual(nsName, XML_XML_NAMESPACE)) {

	push	OFFSET ??_C@_0CF@GLDAAHFK@http?3?1?1www?4w3?4org?1XML?11998?1name@
	push	esi
	call	_xmlStrEqual
	add	esp, 8
	test	eax, eax
	je	SHORT $LN53@xmlDOMWrap

; 8365 : 	*retNs = xmlTreeEnsureXMLDecl(doc);

	mov	ebx, DWORD PTR _destDoc$[ebp]
	push	ebx
	call	_xmlTreeEnsureXMLDecl
	mov	edi, eax
	add	esp, 4

; 8366 : 	if (*retNs == NULL)

	test	edi, edi
	jne	$LN98@xmlDOMWrap
$LN7@xmlDOMWrap:
$internal_error$127:
	pop	edi

; 9995 : 	}
; 9996 :     }
; 9997 :     return (0);
; 9998 : internal_error:
; 9999 :     return (-1);
; 10000: }

	pop	esi
	or	eax, -1
	pop	ebx
	mov	esp, ebp
	pop	ebp
	ret	0
$LN53@xmlDOMWrap:

; 8370 :     cur = node;

	mov	ecx, edi
	mov	DWORD PTR _cur$1$[ebp], edi
	npad	10
$LL42@xmlDOMWrap:

; 8371 :     do {
; 8372 : 	if (cur->type == XML_ELEMENT_NODE) {

	mov	eax, DWORD PTR [ecx+4]
	cmp	eax, 1
	jne	$LN55@xmlDOMWrap

; 8373 : 	    if (cur->nsDef != NULL) {

	mov	edi, DWORD PTR [ecx+48]
	test	edi, edi
	je	$LN68@xmlDOMWrap
	npad	9
$LL45@xmlDOMWrap:

; 8375 : 		    if (prefixed && (ns->prefix == NULL))

	cmp	DWORD PTR [edi+12], 0
	je	$LN43@xmlDOMWrap

; 8376 : 			continue;
; 8377 : 		    if (prev != NULL) {

	test	ebx, ebx
	je	SHORT $LN62@xmlDOMWrap

; 8378 : 			/*
; 8379 : 			* Check the last level of ns-decls for a
; 8380 : 			* shadowing prefix.
; 8381 : 			*/
; 8382 : 			prevns = prev->nsDef;

	mov	esi, DWORD PTR [ebx+48]
$LL48@xmlDOMWrap:

; 8383 : 			do {
; 8384 : 			    if ((prevns->prefix == ns->prefix) ||

	mov	eax, DWORD PTR [esi+12]
	mov	ecx, DWORD PTR [edi+12]
	cmp	eax, ecx
	je	$LN122@xmlDOMWrap
	test	eax, eax
	je	SHORT $LN60@xmlDOMWrap
	test	ecx, ecx
	je	SHORT $LN60@xmlDOMWrap
	push	ecx
	push	eax
	call	_xmlStrEqual
	add	esp, 8
	test	eax, eax
	jne	SHORT $LN122@xmlDOMWrap
$LN60@xmlDOMWrap:

; 8385 : 				((prevns->prefix != NULL) &&
; 8386 : 				(ns->prefix != NULL) &&
; 8387 : 				xmlStrEqual(prevns->prefix, ns->prefix))) {
; 8388 : 				/*
; 8389 : 				* Shadowed.
; 8390 : 				*/
; 8391 : 				break;
; 8392 : 			    }
; 8393 : 			    prevns = prevns->next;

	mov	esi, DWORD PTR [esi]

; 8394 : 			} while (prevns != NULL);

	test	esi, esi
	jne	SHORT $LL48@xmlDOMWrap
	mov	esi, DWORD PTR _nsName$1$[ebp]
$LN62@xmlDOMWrap:

; 8395 : 			if (prevns != NULL)
; 8396 : 			    continue;
; 8397 : 		    }
; 8398 : 		    /*
; 8399 : 		    * Ns-name comparison.
; 8400 : 		    */
; 8401 : 		    if ((nsName == ns->href) ||

	mov	eax, DWORD PTR [edi+8]
	cmp	esi, eax
	je	SHORT $LN64@xmlDOMWrap
	push	eax
	push	esi
	call	_xmlStrEqual
	add	esp, 8
	test	eax, eax
	je	SHORT $LN43@xmlDOMWrap
$LN64@xmlDOMWrap:

; 8402 : 			xmlStrEqual(nsName, ns->href)) {
; 8403 : 			/*
; 8404 : 			* At this point the prefix can only be shadowed,
; 8405 : 			* if we are the the (at least) 3rd level of
; 8406 : 			* ns-decls.
; 8407 : 			*/
; 8408 : 			if (out) {

	cmp	DWORD PTR _out$1$[ebp], 0
	je	SHORT $LN67@xmlDOMWrap

; 8409 : 			    int ret;
; 8410 : 
; 8411 : 			    ret = xmlNsInScope(doc, node, prev, ns->prefix);

	push	DWORD PTR [edi+12]
	push	ebx
	push	DWORD PTR _destParent$[ebp]
	push	DWORD PTR _destDoc$[ebp]
	call	_xmlNsInScope
	add	esp, 16					; 00000010H

; 8412 : 			    if (ret < 0)

	test	eax, eax
	js	$LN7@xmlDOMWrap

; 8413 : 				return (-1);
; 8414 : 			    /*
; 8415 : 			    * TODO: Should we try to find a matching ns-name
; 8416 : 			    * only once? This here keeps on searching.
; 8417 : 			    * I think we should try further since, there might
; 8418 : 			    * be an other matching ns-decl with an unshadowed
; 8419 : 			    * prefix.
; 8420 : 			    */
; 8421 : 			    if (! ret)

	je	SHORT $LN43@xmlDOMWrap
$LN67@xmlDOMWrap:

; 9926 : 	    /*
; 9927 : 	    * Declare on @destParent.
; 9928 : 	    */
; 9929 : 	    if (xmlSearchNsByNamespaceStrict(destDoc, destParent, attr->ns->href,
; 9930 : 		&ns, 1) == -1)
; 9931 : 		goto internal_error;
; 9932 : 	    if (ns == NULL) {

	test	edi, edi
	jne	SHORT $LN116@xmlDOMWrap
$LN102@xmlDOMWrap:

; 9933 : 		ns = xmlDOMWrapNSNormDeclareNsForced(destDoc, destParent,

	mov	ecx, DWORD PTR _attr$[ebp]
	mov	ebx, DWORD PTR _destDoc$[ebp]
	push	1
	mov	eax, DWORD PTR [ecx+36]
	push	DWORD PTR [eax+12]
	push	DWORD PTR [eax+8]
	push	DWORD PTR _destParent$[ebp]
	push	ebx
	call	_xmlDOMWrapNSNormDeclareNsForced
	add	esp, 20					; 00000014H
$LN124@xmlDOMWrap:

; 9934 : 		    attr->ns->href, attr->ns->prefix, 1);
; 9935 : 	    }
; 9936 : 	}
; 9937 : 	if (ns == NULL)

	mov	edi, eax
	test	edi, edi
	je	$LN7@xmlDOMWrap

; 9926 : 	    /*
; 9927 : 	    * Declare on @destParent.
; 9928 : 	    */
; 9929 : 	    if (xmlSearchNsByNamespaceStrict(destDoc, destParent, attr->ns->href,
; 9930 : 		&ns, 1) == -1)
; 9931 : 		goto internal_error;
; 9932 : 	    if (ns == NULL) {

	jmp	SHORT $LN98@xmlDOMWrap
$LN122@xmlDOMWrap:

; 8374 : 		for (ns = cur->nsDef; ns != NULL; ns = ns->next) {

	mov	esi, DWORD PTR _nsName$1$[ebp]
$LN43@xmlDOMWrap:
	mov	edi, DWORD PTR [edi]
	test	edi, edi
	jne	$LL45@xmlDOMWrap

; 8422 : 				continue;
; 8423 : 			}
; 8424 : 			*retNs = ns;
; 8425 : 			return (1);
; 8426 : 		    }
; 8427 : 		}
; 8428 : 		out = prev;
; 8429 : 		prev = cur;

	mov	ecx, DWORD PTR _cur$1$[ebp]
	mov	DWORD PTR _out$1$[ebp], ebx
	mov	ebx, ecx

; 8430 : 	    }
; 8431 : 	} else if ((cur->type == XML_ENTITY_NODE) ||

	jmp	SHORT $LN68@xmlDOMWrap
$LN55@xmlDOMWrap:
	cmp	eax, 6
	je	SHORT $LN102@xmlDOMWrap
	cmp	eax, 17					; 00000011H
	je	SHORT $LN102@xmlDOMWrap
$LN68@xmlDOMWrap:

; 8432 :             (cur->type == XML_ENTITY_DECL))
; 8433 : 	    return (0);
; 8434 : 	cur = cur->parent;

	mov	ecx, DWORD PTR [ecx+20]
	mov	DWORD PTR _cur$1$[ebp], ecx

; 8435 :     } while ((cur != NULL) && (cur->doc != (xmlDocPtr) cur));

	test	ecx, ecx
	je	SHORT $LN102@xmlDOMWrap
	cmp	DWORD PTR [ecx+32], ecx
	jne	$LL42@xmlDOMWrap
	jmp	SHORT $LN102@xmlDOMWrap
$LN116@xmlDOMWrap:

; 9926 : 	    /*
; 9927 : 	    * Declare on @destParent.
; 9928 : 	    */
; 9929 : 	    if (xmlSearchNsByNamespaceStrict(destDoc, destParent, attr->ns->href,
; 9930 : 		&ns, 1) == -1)
; 9931 : 		goto internal_error;
; 9932 : 	    if (ns == NULL) {

	mov	ebx, DWORD PTR _destDoc$[ebp]
$LN98@xmlDOMWrap:

; 9938 : 	    goto internal_error;
; 9939 : 	attr->ns = ns;

	mov	edx, DWORD PTR _attr$[ebp]
	mov	DWORD PTR [edx+36], edi
$LN8@xmlDOMWrap:

; 9940 :     }
; 9941 : 
; 9942 :     XML_TREE_ADOPT_STR(attr->name);

	mov	esi, DWORD PTR [edx+8]
	mov	edi, DWORD PTR _sourceDoc$[ebp]
	test	esi, esi
	je	SHORT $LN22@xmlDOMWrap
	mov	eax, DWORD PTR [ebx+80]
	test	eax, eax
	je	$LN18@xmlDOMWrap
	push	-1
	push	esi
	push	eax
	call	_xmlDictLookup
	mov	ecx, DWORD PTR _attr$[ebp]
	add	esp, 12					; 0000000cH
	mov	DWORD PTR [ecx+8], eax
	test	edi, edi
	je	SHORT $LN21@xmlDOMWrap
	mov	eax, DWORD PTR [edi+80]
	test	eax, eax
	je	SHORT $LN21@xmlDOMWrap
	push	esi
	push	eax
	call	_xmlDictOwns
	add	esp, 8
	test	eax, eax
	jne	SHORT $LN120@xmlDOMWrap
$LN21@xmlDOMWrap:
	push	esi
	call	DWORD PTR _xmlFree
	add	esp, 4
$LN120@xmlDOMWrap:

; 9943 :     attr->atype = 0;

	mov	edx, DWORD PTR _attr$[ebp]
$LN22@xmlDOMWrap:

; 9944 :     attr->psvi = NULL;
; 9945 :     /*
; 9946 :     * Walk content.
; 9947 :     */
; 9948 :     if (attr->children == NULL)

	mov	esi, DWORD PTR [edx+12]
	mov	DWORD PTR [edx+40], 0
	mov	DWORD PTR [edx+44], 0
	test	esi, esi
	je	$LN115@xmlDOMWrap

; 9949 : 	return (0);
; 9950 :     cur = attr->children;
; 9951 :     if ((cur != NULL) && (cur->type == XML_NAMESPACE_DECL))

	cmp	DWORD PTR [esi+4], 18			; 00000012H
	je	$LN7@xmlDOMWrap
$LL2@xmlDOMWrap:

; 9954 : 	cur->doc = destDoc;
; 9955 : 	switch (cur->type) {

	mov	eax, DWORD PTR [esi+4]
	mov	DWORD PTR [esi+32], ebx
	cmp	eax, 3
	jl	$LN28@xmlDOMWrap
	cmp	eax, 4
	jle	$LN25@xmlDOMWrap
	cmp	eax, 5
	jne	$LN28@xmlDOMWrap

; 9959 : 		break;
; 9960 : 	    case XML_ENTITY_REF_NODE:
; 9961 : 		/*
; 9962 : 		* Remove reference to the entitity-node.
; 9963 : 		*/
; 9964 : 		cur->content = NULL;

	mov	DWORD PTR [esi+40], 0

; 9965 : 		cur->children = NULL;

	mov	DWORD PTR [esi+12], 0

; 9966 : 		cur->last = NULL;

	mov	DWORD PTR [esi+16], 0

; 9967 : 		if ((destDoc->intSubset) || (destDoc->extSubset)) {

	cmp	DWORD PTR [ebx+44], 0
	jne	SHORT $LN31@xmlDOMWrap
	cmp	DWORD PTR [ebx+48], 0
	je	$LN28@xmlDOMWrap
$LN31@xmlDOMWrap:

; 9968 : 		    xmlEntityPtr ent;
; 9969 : 		    /*
; 9970 : 		    * Assign new entity-node if available.
; 9971 : 		    */
; 9972 : 		    ent = xmlGetDocEntity(destDoc, cur->name);

	push	DWORD PTR [esi+8]
	push	ebx
	call	_xmlGetDocEntity

; 9973 : 		    if (ent != NULL) {

	mov	edx, DWORD PTR _attr$[ebp]
	add	esp, 8
	test	eax, eax
	je	$LN28@xmlDOMWrap

; 9974 : 			cur->content = ent->content;

	mov	ecx, DWORD PTR [eax+40]
	mov	DWORD PTR [esi+40], ecx

; 9975 : 			cur->children = (xmlNodePtr) ent;

	mov	DWORD PTR [esi+12], eax

; 9976 : 			cur->last = (xmlNodePtr) ent;

	mov	DWORD PTR [esi+16], eax

; 9977 : 		    }
; 9978 : 		}
; 9979 : 		break;

	jmp	$LN28@xmlDOMWrap
$LN18@xmlDOMWrap:

; 9940 :     }
; 9941 : 
; 9942 :     XML_TREE_ADOPT_STR(attr->name);

	test	edi, edi
	je	$LN22@xmlDOMWrap
	mov	eax, DWORD PTR [edi+80]
	test	eax, eax
	je	$LN22@xmlDOMWrap
	push	esi
	push	eax
	call	_xmlDictOwns
	add	esp, 8
	test	eax, eax
	je	$LN120@xmlDOMWrap
	mov	ecx, DWORD PTR _attr$[ebp]
	push	DWORD PTR [ecx+8]
	call	_xmlStrdup
	mov	edx, DWORD PTR _attr$[ebp]
	add	esp, 4
	mov	DWORD PTR [edx+8], eax
	jmp	$LN22@xmlDOMWrap
$LN25@xmlDOMWrap:

; 9956 : 	    case XML_TEXT_NODE:
; 9957 : 	    case XML_CDATA_SECTION_NODE:
; 9958 : 		XML_TREE_ADOPT_STR_2(cur->content)

	mov	eax, DWORD PTR [esi+40]
	test	eax, eax
	je	SHORT $LN28@xmlDOMWrap
	test	edi, edi
	je	SHORT $LN28@xmlDOMWrap
	mov	ecx, DWORD PTR [edi+80]
	test	ecx, ecx
	je	SHORT $LN28@xmlDOMWrap
	push	eax
	push	ecx
	call	_xmlDictOwns
	add	esp, 8
	test	eax, eax
	je	SHORT $LN118@xmlDOMWrap
	mov	eax, DWORD PTR [ebx+80]
	mov	ecx, DWORD PTR [esi+40]
	test	eax, eax
	je	SHORT $LN27@xmlDOMWrap
	push	-1
	push	ecx
	push	eax
	call	_xmlDictLookup
	add	esp, 12					; 0000000cH
	jmp	SHORT $LN125@xmlDOMWrap
$LN27@xmlDOMWrap:
	push	ecx
	call	_xmlStrdup
	add	esp, 4
$LN125@xmlDOMWrap:

; 9980 : 	    default:
; 9981 : 		break;
; 9982 : 	}
; 9983 : 	if (cur->children != NULL) {

	mov	DWORD PTR [esi+40], eax
$LN118@xmlDOMWrap:
	mov	edx, DWORD PTR _attr$[ebp]
$LN28@xmlDOMWrap:
	mov	eax, DWORD PTR [esi+12]
	test	eax, eax
	jne	SHORT $LN84@xmlDOMWrap
	npad	5
$next_sibling$128:

; 9984 : 	    cur = cur->children;
; 9985 : 	    continue;
; 9986 : 	}
; 9987 : next_sibling:
; 9988 : 	if (cur == (xmlNodePtr) attr)

	cmp	esi, edx
	je	SHORT $LN115@xmlDOMWrap

; 9989 : 	    break;
; 9990 : 	if (cur->next != NULL)

	mov	eax, DWORD PTR [esi+24]
	test	eax, eax
	jne	SHORT $LN84@xmlDOMWrap

; 9991 : 	    cur = cur->next;
; 9992 : 	else {
; 9993 : 	    cur = cur->parent;

	mov	esi, DWORD PTR [esi+20]

; 9994 : 	    goto next_sibling;

	jmp	SHORT $next_sibling$128
$LN84@xmlDOMWrap:

; 9952 :         goto internal_error;
; 9953 :     while (cur != NULL) {

	mov	esi, eax
	test	esi, esi
	jne	$LL2@xmlDOMWrap
$LN115@xmlDOMWrap:
	pop	edi

; 9995 : 	}
; 9996 :     }
; 9997 :     return (0);
; 9998 : internal_error:
; 9999 :     return (-1);
; 10000: }

	pop	esi
	xor	eax, eax
	pop	ebx
	mov	esp, ebp
	pop	ebp
	ret	0
_xmlDOMWrapAdoptAttr ENDP
_TEXT	ENDS
; Function compile flags: /Ogtp
; File c:\users\dag\documents\_clients\codeproject authors group\windows on arm\libxml2\libxml2-2.9.9\tree.c
;	COMDAT _xmlDOMWrapAdoptBranch
_TEXT	SEGMENT
_curElem$1$ = -24					; size = 4
_adoptStr$1$ = -20					; size = 4
_ns$ = -16						; size = 4
_parnsdone$1$ = -12					; size = 4
_nsMap$ = -8						; size = 4
_depth$1$ = -4						; size = 4
_ctxt$ = 8						; size = 4
_sourceDoc$ = 12					; size = 4
_node$ = 16						; size = 4
_destDoc$ = 20						; size = 4
_destParent$ = 24					; size = 4
_options$ = 28						; size = 4
_xmlDOMWrapAdoptBranch PROC				; COMDAT

; 9008 : {

	push	ebp
	mov	ebp, esp
	sub	esp, 24					; 00000018H
	push	ebx
	push	esi
	push	edi
	mov	ecx, OFFSET __59973643_tree@c
	call	@__CheckForDebuggerJustMyCode@4
	mov	ecx, DWORD PTR _sourceDoc$[ebp]
	xor	esi, esi
	or	edx, -1
	mov	DWORD PTR _curElem$1$[ebp], 0
	mov	DWORD PTR _nsMap$[ebp], esi
	mov	DWORD PTR _ns$[ebp], esi
	mov	DWORD PTR _depth$1$[ebp], edx
	test	ecx, ecx
	je	SHORT $LN23@xmlDOMWrap

; 9009 :     int ret = 0;
; 9010 :     xmlNodePtr cur, curElem = NULL;
; 9011 :     xmlNsMapPtr nsMap = NULL;
; 9012 :     xmlNsMapItemPtr mi;
; 9013 :     xmlNsPtr ns = NULL;
; 9014 :     int depth = -1, adoptStr = 1;
; 9015 :     /* gather @parent's ns-decls. */
; 9016 :     int parnsdone;
; 9017 :     /* @ancestorsOnly should be set per option. */
; 9018 :     int ancestorsOnly = 0;
; 9019 : 
; 9020 :     /*
; 9021 :     * Optimize string adoption for equal or none dicts.
; 9022 :     */
; 9023 :     if ((sourceDoc != NULL) &&

	mov	edi, DWORD PTR _destDoc$[ebp]
	mov	eax, DWORD PTR [ecx+80]

; 9024 : 	(sourceDoc->dict == destDoc->dict))
; 9025 : 	adoptStr = 0;

	mov	DWORD PTR _adoptStr$1$[ebp], esi
	cmp	eax, DWORD PTR [edi+80]
	je	SHORT $LN24@xmlDOMWrap
$LN23@xmlDOMWrap:

; 9026 :     else
; 9027 : 	adoptStr = 1;

	mov	DWORD PTR _adoptStr$1$[ebp], 1
$LN24@xmlDOMWrap:

; 9028 : 
; 9029 :     /*
; 9030 :     * Get the ns-map from the context if available.
; 9031 :     */
; 9032 :     if (ctxt)

	mov	eax, DWORD PTR _ctxt$[ebp]
	test	eax, eax
	je	SHORT $LN166@xmlDOMWrap

; 9033 : 	nsMap = (xmlNsMapPtr) ctxt->namespaceMap;

	mov	esi, DWORD PTR [eax+8]
	mov	DWORD PTR _nsMap$[ebp], esi
$LN166@xmlDOMWrap:

; 9034 :     /*
; 9035 :     * Disable search for ns-decls in the parent-axis of the
; 9036 :     * desination element, if:
; 9037 :     * 1) there's no destination parent
; 9038 :     * 2) custom ns-reference handling is used
; 9039 :     */
; 9040 :     if ((destParent == NULL) ||

	cmp	DWORD PTR _destParent$[ebp], 0
	je	SHORT $LN28@xmlDOMWrap
	test	eax, eax
	je	SHORT $LN26@xmlDOMWrap
	cmp	DWORD PTR [eax+12], 0
	jne	SHORT $LN28@xmlDOMWrap
$LN26@xmlDOMWrap:

; 9044 :     } else
; 9045 : 	parnsdone = 0;

	mov	DWORD PTR _parnsdone$1$[ebp], 0
	jmp	SHORT $LN27@xmlDOMWrap
$LN28@xmlDOMWrap:

; 9041 : 	(ctxt && ctxt->getNsForNodeFunc))
; 9042 :     {
; 9043 : 	parnsdone = 1;

	mov	DWORD PTR _parnsdone$1$[ebp], 1
$LN27@xmlDOMWrap:

; 9046 : 
; 9047 :     cur = node;

	mov	edi, DWORD PTR _node$[ebp]
	mov	ebx, edi

; 9048 :     if ((cur != NULL) && (cur->type == XML_NAMESPACE_DECL))

	test	edi, edi
	je	$LN247@xmlDOMWrap
	cmp	DWORD PTR [edi+4], 18			; 00000012H
	je	$internal_error$261
$LL2@xmlDOMWrap:

; 9052 : 	/*
; 9053 : 	* Paranoid source-doc sanity check.
; 9054 : 	*/
; 9055 : 	if (cur->doc != sourceDoc) {

	cmp	DWORD PTR [ebx+32], ecx
	je	SHORT $LN34@xmlDOMWrap

; 9056 : 	    /*
; 9057 : 	    * We'll assume XIncluded nodes if the doc differs.
; 9058 : 	    * TODO: Do we need to reconciliate XIncluded nodes?
; 9059 : 	    * This here skips XIncluded nodes and tries to handle
; 9060 : 	    * broken sequences.
; 9061 : 	    */
; 9062 : 	    if (cur->next == NULL)

	mov	ecx, DWORD PTR [ebx+24]
	test	ecx, ecx
	je	$leave_node$262
	mov	eax, DWORD PTR [edi+32]
	npad	5
$LL6@xmlDOMWrap:

; 9063 : 		goto leave_node;
; 9064 : 	    do {
; 9065 : 		cur = cur->next;

	mov	ebx, ecx

; 9066 : 		if ((cur->type == XML_XINCLUDE_END) ||

	cmp	DWORD PTR [ebx+4], 20			; 00000014H
	je	SHORT $LN5@xmlDOMWrap
	mov	eax, DWORD PTR [edi+32]
	cmp	DWORD PTR [ebx+32], eax
	je	SHORT $LN254@xmlDOMWrap

; 9067 : 		    (cur->doc == node->doc))
; 9068 : 		    break;
; 9069 : 	    } while (cur->next != NULL);

	mov	ecx, DWORD PTR [ebx+24]
	test	ecx, ecx
	jne	SHORT $LL6@xmlDOMWrap
$LN5@xmlDOMWrap:

; 9070 : 
; 9071 : 	    if (cur->doc != node->doc)

	cmp	DWORD PTR [ebx+32], eax
	jne	$leave_node$262
$LN254@xmlDOMWrap:
	mov	ecx, DWORD PTR _sourceDoc$[ebp]
$LN34@xmlDOMWrap:

; 9072 : 		goto leave_node;
; 9073 : 	}
; 9074 : 	cur->doc = destDoc;

	mov	eax, DWORD PTR _destDoc$[ebp]
	mov	DWORD PTR [ebx+32], eax

; 9075 : 	switch (cur->type) {

	mov	eax, DWORD PTR [ebx+4]
	dec	eax
	cmp	eax, 19					; 00000013H
	ja	$internal_error$261
	movzx	eax, BYTE PTR $LN206@xmlDOMWrap[eax]
	jmp	DWORD PTR $LN260@xmlDOMWrap[eax*4]
$LN36@xmlDOMWrap:

; 9076 : 	    case XML_XINCLUDE_START:
; 9077 : 	    case XML_XINCLUDE_END:
; 9078 : 		/*
; 9079 : 		* TODO
; 9080 : 		*/
; 9081 : 		return (-1);
; 9082 : 	    case XML_ELEMENT_NODE:
; 9083 : 		curElem = cur;
; 9084 : 		depth++;
; 9085 : 		/*
; 9086 : 		* Namespace declarations.
; 9087 : 		* - ns->href and ns->prefix are never in the dict, so
; 9088 : 		*   we need not move the values over to the destination dict.
; 9089 : 		* - Note that for custom handling of ns-references,
; 9090 : 		*   the ns-decls need not be stored in the ns-map,
; 9091 : 		*   since they won't be referenced by node->ns.
; 9092 : 		*/
; 9093 : 		if ((cur->nsDef) &&

	mov	edi, DWORD PTR [ebx+48]
	inc	edx
	mov	DWORD PTR _curElem$1$[ebp], ebx
	mov	DWORD PTR _depth$1$[ebp], edx
	test	edi, edi
	je	$LN10@xmlDOMWrap
	mov	eax, DWORD PTR _ctxt$[ebp]
	test	eax, eax
	je	SHORT $LN192@xmlDOMWrap
	cmp	DWORD PTR [eax+12], 0
	jne	$LN10@xmlDOMWrap
$LN192@xmlDOMWrap:

; 9094 : 		    ((ctxt == NULL) || (ctxt->getNsForNodeFunc == NULL)))
; 9095 : 		{
; 9096 : 		    if (! parnsdone) {

	cmp	DWORD PTR _parnsdone$1$[ebp], 0
	jne	SHORT $LN39@xmlDOMWrap

; 9097 : 			/*
; 9098 : 			* Gather @parent's in-scope ns-decls.
; 9099 : 			*/
; 9100 : 			if (xmlDOMWrapNSNormGatherInScopeNs(&nsMap,
; 9101 : 			    destParent) == -1)

	push	DWORD PTR _destParent$[ebp]
	lea	eax, DWORD PTR _nsMap$[ebp]
	push	eax
	call	_xmlDOMWrapNSNormGatherInScopeNs
	add	esp, 8
	cmp	eax, -1
	je	$LN218@xmlDOMWrap

; 9102 : 			    goto internal_error;
; 9103 : 			parnsdone = 1;

	mov	edi, DWORD PTR [ebx+48]
	mov	esi, DWORD PTR _nsMap$[ebp]
	mov	edx, DWORD PTR _depth$1$[ebp]
	mov	DWORD PTR _parnsdone$1$[ebp], 1
$LN39@xmlDOMWrap:

; 9104 : 		    }
; 9105 : 		    for (ns = cur->nsDef; ns != NULL; ns = ns->next) {

	mov	DWORD PTR _ns$[ebp], edi
	test	edi, edi
	je	SHORT $LN10@xmlDOMWrap
	npad	4
$LL11@xmlDOMWrap:

; 9106 : 			/*
; 9107 : 			* NOTE: ns->prefix and ns->href are never in the dict.
; 9108 : 			* XML_TREE_ADOPT_STR(ns->prefix)
; 9109 : 			* XML_TREE_ADOPT_STR(ns->href)
; 9110 : 			*/
; 9111 : 			/*
; 9112 : 			* Does it shadow any ns-decl?
; 9113 : 			*/
; 9114 : 			if (XML_NSMAP_NOTEMPTY(nsMap)) {

	test	esi, esi
	je	SHORT $LN13@xmlDOMWrap
	mov	esi, DWORD PTR [esi]
	test	esi, esi
	je	SHORT $LN13@xmlDOMWrap
	npad	6
$LL14@xmlDOMWrap:

; 9116 : 				if ((mi->depth >= XML_TREE_NSMAP_PARENT) &&
; 9117 : 				    (mi->shadowDepth == -1) &&

	cmp	DWORD PTR [esi+20], -1
	jl	SHORT $LN12@xmlDOMWrap
	cmp	DWORD PTR [esi+16], -1
	jne	SHORT $LN12@xmlDOMWrap
	mov	eax, DWORD PTR [esi+12]
	mov	ecx, DWORD PTR [edi+12]
	mov	eax, DWORD PTR [eax+12]
	cmp	ecx, eax
	je	SHORT $LN43@xmlDOMWrap
	push	eax
	push	ecx
	call	_xmlStrEqual
	mov	edx, DWORD PTR _depth$1$[ebp]
	add	esp, 8
	test	eax, eax
	je	SHORT $LN12@xmlDOMWrap
$LN43@xmlDOMWrap:

; 9118 : 				    ((ns->prefix == mi->newNs->prefix) ||
; 9119 : 				    xmlStrEqual(ns->prefix,
; 9120 : 				    mi->newNs->prefix))) {
; 9121 : 
; 9122 : 				    mi->shadowDepth = depth;

	mov	DWORD PTR [esi+16], edx
$LN12@xmlDOMWrap:

; 9115 : 			    XML_NSMAP_FOREACH(nsMap, mi) {

	mov	esi, DWORD PTR [esi]
	test	esi, esi
	jne	SHORT $LL14@xmlDOMWrap
$LN13@xmlDOMWrap:

; 9123 : 				}
; 9124 : 			    }
; 9125 : 			}
; 9126 : 			/*
; 9127 : 			* Push mapping.
; 9128 : 			*/
; 9129 : 			if (xmlDOMWrapNsMapAddItem(&nsMap, -1,
; 9130 : 			    ns, ns, depth) == NULL)

	push	edx
	push	edi
	push	edi
	lea	eax, DWORD PTR _nsMap$[ebp]
	push	-1
	push	eax
	call	_xmlDOMWrapNsMapAddItem
	add	esp, 20					; 00000014H
	test	eax, eax
	je	$LN218@xmlDOMWrap

; 9104 : 		    }
; 9105 : 		    for (ns = cur->nsDef; ns != NULL; ns = ns->next) {

	mov	edi, DWORD PTR [edi]
	mov	esi, DWORD PTR _nsMap$[ebp]
	mov	DWORD PTR _ns$[ebp], edi
	test	edi, edi
	je	SHORT $LN10@xmlDOMWrap
	mov	edx, DWORD PTR _depth$1$[ebp]
	jmp	SHORT $LL11@xmlDOMWrap
$LN10@xmlDOMWrap:

; 9131 : 			    goto internal_error;
; 9132 : 		    }
; 9133 : 		}
; 9134 :                 /* Falls through. */
; 9135 : 	    case XML_ATTRIBUTE_NODE:
; 9136 : 		/* No namespace, no fun. */
; 9137 : 		if (cur->ns == NULL)

	cmp	DWORD PTR [ebx+36], 0
	je	$ns_end$263

; 9138 : 		    goto ns_end;
; 9139 : 
; 9140 : 		if (! parnsdone) {

	cmp	DWORD PTR _parnsdone$1$[ebp], 0
	mov	edi, DWORD PTR _destParent$[ebp]
	jne	SHORT $LN47@xmlDOMWrap

; 9141 : 		    if (xmlDOMWrapNSNormGatherInScopeNs(&nsMap,
; 9142 : 			destParent) == -1)

	lea	eax, DWORD PTR _nsMap$[ebp]
	push	edi
	push	eax
	call	_xmlDOMWrapNSNormGatherInScopeNs
	add	esp, 8
	cmp	eax, -1
	je	$LN218@xmlDOMWrap

; 9143 : 			goto internal_error;
; 9144 : 		    parnsdone = 1;

	mov	esi, DWORD PTR _nsMap$[ebp]
	mov	DWORD PTR _parnsdone$1$[ebp], 1
$LN47@xmlDOMWrap:

; 9145 : 		}
; 9146 : 		/*
; 9147 : 		* Adopt ns-references.
; 9148 : 		*/
; 9149 : 		if (XML_NSMAP_NOTEMPTY(nsMap)) {

	test	esi, esi
	je	SHORT $LN205@xmlDOMWrap
	mov	ecx, DWORD PTR [esi]
	test	ecx, ecx
	je	SHORT $LN205@xmlDOMWrap
	npad	6
$LL17@xmlDOMWrap:

; 9154 : 			if ((mi->shadowDepth == -1) &&

	cmp	DWORD PTR [ecx+16], -1
	jne	SHORT $LN15@xmlDOMWrap
	mov	eax, DWORD PTR [ebx+36]
	cmp	eax, DWORD PTR [ecx+8]
	je	SHORT $LN128@xmlDOMWrap
$LN15@xmlDOMWrap:

; 9150 : 		    /*
; 9151 : 		    * Search for a mapping.
; 9152 : 		    */
; 9153 : 		    XML_NSMAP_FOREACH(nsMap, mi) {

	mov	ecx, DWORD PTR [ecx]
	test	ecx, ecx
	jne	SHORT $LL17@xmlDOMWrap
$LN205@xmlDOMWrap:

; 9159 : 			}
; 9160 : 		    }
; 9161 : 		}
; 9162 : 		/*
; 9163 : 		* No matching namespace in scope. We need a new one.
; 9164 : 		*/
; 9165 : 		if ((ctxt) && (ctxt->getNsForNodeFunc)) {

	mov	edx, DWORD PTR _ctxt$[ebp]
	test	edx, edx
	je	SHORT $LN51@xmlDOMWrap
	mov	ecx, DWORD PTR [edx+12]
	test	ecx, ecx
	je	SHORT $LN51@xmlDOMWrap

; 9166 : 		    /*
; 9167 : 		    * User-defined behaviour.
; 9168 : 		    */
; 9169 : 		    ns = ctxt->getNsForNodeFunc(ctxt, cur,

	mov	eax, DWORD PTR [ebx+36]
	push	DWORD PTR [eax+12]
	push	DWORD PTR [eax+8]
	push	ebx
	push	edx
	call	ecx
	mov	esi, eax

; 9170 : 			cur->ns->href, cur->ns->prefix);
; 9171 : 		    /*
; 9172 : 		    * Insert mapping if ns is available; it's the users fault
; 9173 : 		    * if not.
; 9174 : 		    */
; 9175 : 		    if (xmlDOMWrapNsMapAddItem(&nsMap, -1,
; 9176 : 			    cur->ns, ns, XML_TREE_NSMAP_CUSTOM) == NULL)

	lea	eax, DWORD PTR _nsMap$[ebp]
	push	-4					; fffffffcH
	push	esi
	push	DWORD PTR [ebx+36]
	mov	DWORD PTR _ns$[ebp], esi
	push	-1
	push	eax
	call	_xmlDOMWrapNsMapAddItem
	add	esp, 36					; 00000024H
	test	eax, eax
	je	$LN218@xmlDOMWrap

; 9177 : 			goto internal_error;
; 9178 : 		    cur->ns = ns;

	mov	DWORD PTR [ebx+36], esi

; 9179 : 		} else {

	mov	esi, DWORD PTR _nsMap$[ebp]
	jmp	SHORT $ns_end$263
$LN128@xmlDOMWrap:

; 9155 : 			    (cur->ns == mi->oldNs)) {
; 9156 : 
; 9157 : 			    cur->ns = mi->newNs;

	mov	eax, DWORD PTR [ecx+12]

; 9158 : 			    goto ns_end;

	jmp	SHORT $LN255@xmlDOMWrap
$LN51@xmlDOMWrap:

; 9180 : 		    /*
; 9181 : 		    * Aquire a normalized ns-decl and add it to the map.
; 9182 : 		    */
; 9183 : 		    if (xmlDOMWrapNSNormAquireNormalizedNs(destDoc,
; 9184 : 			/* ns-decls on curElem or on destDoc->oldNs */
; 9185 : 			destParent ? curElem : NULL,
; 9186 : 			cur->ns, &ns,
; 9187 : 			&nsMap, depth,
; 9188 : 			ancestorsOnly,
; 9189 : 			/* ns-decls must be prefixed for attributes. */
; 9190 : 			(cur->type == XML_ATTRIBUTE_NODE) ? 1 : 0) == -1)

	xor	eax, eax
	cmp	DWORD PTR [ebx+4], 2
	sete	al
	push	eax
	push	0
	push	DWORD PTR _depth$1$[ebp]
	lea	eax, DWORD PTR _nsMap$[ebp]
	push	eax
	lea	eax, DWORD PTR _ns$[ebp]
	push	eax
	push	DWORD PTR [ebx+36]
	xor	eax, eax
	test	edi, edi
	cmovne	eax, DWORD PTR _curElem$1$[ebp]
	push	eax
	push	DWORD PTR _destDoc$[ebp]
	call	_xmlDOMWrapNSNormAquireNormalizedNs
	add	esp, 32					; 00000020H
	cmp	eax, -1
	je	$LN218@xmlDOMWrap

; 9191 : 			goto internal_error;
; 9192 : 		    cur->ns = ns;

	mov	eax, DWORD PTR _ns$[ebp]
	mov	esi, DWORD PTR _nsMap$[ebp]
$LN255@xmlDOMWrap:

; 9193 : 		}
; 9194 : ns_end:
; 9195 : 		/*
; 9196 : 		* Further node properties.
; 9197 : 		* TODO: Is this all?
; 9198 : 		*/
; 9199 : 		XML_TREE_ADOPT_STR(cur->name)

	mov	DWORD PTR [ebx+36], eax
$ns_end$263:
	cmp	DWORD PTR _adoptStr$1$[ebp], 0
	je	SHORT $LN244@xmlDOMWrap
	mov	edi, DWORD PTR [ebx+8]
	test	edi, edi
	je	SHORT $LN244@xmlDOMWrap
	mov	eax, DWORD PTR _destDoc$[ebp]
	mov	eax, DWORD PTR [eax+80]
	test	eax, eax
	je	SHORT $LN56@xmlDOMWrap
	push	-1
	push	edi
	push	eax
	call	_xmlDictLookup
	mov	DWORD PTR [ebx+8], eax
	add	esp, 12					; 0000000cH
	mov	eax, DWORD PTR _sourceDoc$[ebp]
	test	eax, eax
	je	SHORT $LN59@xmlDOMWrap
	mov	eax, DWORD PTR [eax+80]
	test	eax, eax
	je	SHORT $LN59@xmlDOMWrap
	push	edi
	push	eax
	call	_xmlDictOwns
	add	esp, 8
	test	eax, eax
	jne	SHORT $LN244@xmlDOMWrap
$LN59@xmlDOMWrap:
	push	edi
	call	DWORD PTR _xmlFree
	jmp	SHORT $LN257@xmlDOMWrap
$LN56@xmlDOMWrap:
	mov	eax, DWORD PTR _sourceDoc$[ebp]
	test	eax, eax
	je	SHORT $LN60@xmlDOMWrap
	mov	eax, DWORD PTR [eax+80]
	test	eax, eax
	je	SHORT $LN244@xmlDOMWrap
	push	edi
	push	eax
	call	_xmlDictOwns
	add	esp, 8
	test	eax, eax
	je	SHORT $LN244@xmlDOMWrap
	push	DWORD PTR [ebx+8]
	call	_xmlStrdup
	mov	DWORD PTR [ebx+8], eax
$LN257@xmlDOMWrap:

; 9200 : 		if (cur->type == XML_ELEMENT_NODE) {

	add	esp, 4
$LN244@xmlDOMWrap:
	mov	eax, DWORD PTR _sourceDoc$[ebp]
$LN60@xmlDOMWrap:
	cmp	DWORD PTR [ebx+4], 1
	jne	SHORT $LN61@xmlDOMWrap

; 9201 : 		    cur->psvi = NULL;
; 9202 : 		    cur->line = 0;

	xor	eax, eax
	mov	DWORD PTR [ebx+52], 0
	mov	DWORD PTR [ebx+56], eax

; 9203 : 		    cur->extra = 0;
; 9204 : 		    /*
; 9205 : 		    * Walk attributes.
; 9206 : 		    */
; 9207 : 		    if (cur->properties != NULL) {

	mov	eax, DWORD PTR [ebx+44]
	test	eax, eax
	je	$LN239@xmlDOMWrap
$LN130@xmlDOMWrap:

; 9049 : 	goto internal_error;
; 9050 : 
; 9051 :     while (cur != NULL) {

	mov	ebx, eax
	test	ebx, ebx
	je	$LN247@xmlDOMWrap
	mov	edx, DWORD PTR _depth$1$[ebp]
	mov	edi, DWORD PTR _node$[ebp]
	mov	ecx, DWORD PTR _sourceDoc$[ebp]
	jmp	$LL2@xmlDOMWrap
$LN61@xmlDOMWrap:

; 9208 : 			/*
; 9209 : 			* Process first attribute node.
; 9210 : 			*/
; 9211 : 			cur = (xmlNodePtr) cur->properties;
; 9212 : 			continue;
; 9213 : 		    }
; 9214 : 		} else {
; 9215 : 		    /*
; 9216 : 		    * Attributes.
; 9217 : 		    */
; 9218 : 		    if ((sourceDoc != NULL) &&

	test	eax, eax
	je	SHORT $LN64@xmlDOMWrap
	cmp	DWORD PTR [ebx+40], 2
	jne	SHORT $LN64@xmlDOMWrap

; 9219 : 			(((xmlAttrPtr) cur)->atype == XML_ATTRIBUTE_ID))
; 9220 : 		    {
; 9221 : 			xmlRemoveID(sourceDoc, (xmlAttrPtr) cur);

	push	ebx
	push	eax
	call	_xmlRemoveID
	add	esp, 8
$LN64@xmlDOMWrap:

; 9222 : 		    }
; 9223 : 		    ((xmlAttrPtr) cur)->atype = 0;

	mov	DWORD PTR [ebx+40], 0

; 9224 : 		    ((xmlAttrPtr) cur)->psvi = NULL;

	mov	DWORD PTR [ebx+44], 0

; 9225 : 		}
; 9226 : 		break;

	jmp	$LN239@xmlDOMWrap
$LN65@xmlDOMWrap:

; 9227 : 	    case XML_TEXT_NODE:
; 9228 : 	    case XML_CDATA_SECTION_NODE:
; 9229 : 		/*
; 9230 : 		* This puts the content in the dest dict, only if
; 9231 : 		* it was previously in the source dict.
; 9232 : 		*/
; 9233 : 		XML_TREE_ADOPT_STR_2(cur->content)

	cmp	DWORD PTR _adoptStr$1$[ebp], 0
	je	$leave_node$262
	mov	ecx, DWORD PTR [ebx+40]
	test	ecx, ecx
	je	$leave_node$262
	mov	eax, DWORD PTR _sourceDoc$[ebp]
	test	eax, eax
	je	$leave_node$262
	mov	eax, DWORD PTR [eax+80]
	test	eax, eax
	je	$leave_node$262
	push	ecx
	push	eax
	call	_xmlDictOwns
	add	esp, 8
	test	eax, eax
	je	$LN233@xmlDOMWrap
	mov	eax, DWORD PTR _destDoc$[ebp]
	mov	ecx, DWORD PTR [ebx+40]
	mov	eax, DWORD PTR [eax+80]
	test	eax, eax
	je	SHORT $LN67@xmlDOMWrap
	push	-1
	push	ecx
	push	eax
	call	_xmlDictLookup
	add	esp, 12					; 0000000cH
	mov	DWORD PTR [ebx+40], eax
	jmp	$LN233@xmlDOMWrap
$LN67@xmlDOMWrap:
	push	ecx
	call	_xmlStrdup
	add	esp, 4
	mov	DWORD PTR [ebx+40], eax

; 9234 : 		goto leave_node;

	jmp	$LN233@xmlDOMWrap
$LN69@xmlDOMWrap:

; 9235 : 	    case XML_ENTITY_REF_NODE:
; 9236 : 		/*
; 9237 : 		* Remove reference to the entitity-node.
; 9238 : 		*/
; 9239 : 		cur->content = NULL;
; 9240 : 		cur->children = NULL;
; 9241 : 		cur->last = NULL;
; 9242 : 		if ((destDoc->intSubset) || (destDoc->extSubset)) {

	mov	eax, DWORD PTR _destDoc$[ebp]
	mov	DWORD PTR [ebx+40], 0
	mov	DWORD PTR [ebx+12], 0
	mov	DWORD PTR [ebx+16], 0
	cmp	DWORD PTR [eax+44], 0
	jne	SHORT $LN71@xmlDOMWrap
	cmp	DWORD PTR [eax+48], 0
	je	$leave_node$262
$LN71@xmlDOMWrap:

; 9243 : 		    xmlEntityPtr ent;
; 9244 : 		    /*
; 9245 : 		    * Assign new entity-node if available.
; 9246 : 		    */
; 9247 : 		    ent = xmlGetDocEntity(destDoc, cur->name);

	push	DWORD PTR [ebx+8]
	push	eax
	call	_xmlGetDocEntity
	mov	ecx, eax
	add	esp, 8

; 9248 : 		    if (ent != NULL) {

	test	ecx, ecx
	je	$LN233@xmlDOMWrap

; 9249 : 			cur->content = ent->content;

	mov	eax, DWORD PTR [ecx+40]
	mov	DWORD PTR [ebx+40], eax

; 9250 : 			cur->children = (xmlNodePtr) ent;

	mov	DWORD PTR [ebx+12], ecx

; 9251 : 			cur->last = (xmlNodePtr) ent;

	mov	DWORD PTR [ebx+16], ecx

; 9252 : 		    }
; 9253 : 		}
; 9254 : 		goto leave_node;

	jmp	$LN233@xmlDOMWrap
$LN73@xmlDOMWrap:

; 9255 : 	    case XML_PI_NODE:
; 9256 : 		XML_TREE_ADOPT_STR(cur->name)

	cmp	DWORD PTR _adoptStr$1$[ebp], 0
	je	$LN82@xmlDOMWrap
	mov	edi, DWORD PTR [ebx+8]
	test	edi, edi
	je	SHORT $LN79@xmlDOMWrap
	mov	eax, DWORD PTR _destDoc$[ebp]
	mov	eax, DWORD PTR [eax+80]
	test	eax, eax
	je	SHORT $LN75@xmlDOMWrap
	push	-1
	push	edi
	push	eax
	call	_xmlDictLookup
	mov	DWORD PTR [ebx+8], eax
	add	esp, 12					; 0000000cH
	mov	eax, DWORD PTR _sourceDoc$[ebp]
	test	eax, eax
	je	SHORT $LN78@xmlDOMWrap
	mov	eax, DWORD PTR [eax+80]
	test	eax, eax
	je	SHORT $LN78@xmlDOMWrap
	push	edi
	push	eax
	call	_xmlDictOwns
	add	esp, 8
	test	eax, eax
	jne	SHORT $LN79@xmlDOMWrap
$LN78@xmlDOMWrap:
	push	edi
	call	DWORD PTR _xmlFree
	jmp	SHORT $LN256@xmlDOMWrap
$LN75@xmlDOMWrap:
	test	ecx, ecx
	je	SHORT $LN79@xmlDOMWrap
	mov	eax, DWORD PTR [ecx+80]
	test	eax, eax
	je	SHORT $LN79@xmlDOMWrap
	push	edi
	push	eax
	call	_xmlDictOwns
	add	esp, 8
	test	eax, eax
	je	SHORT $LN79@xmlDOMWrap
	push	DWORD PTR [ebx+8]
	call	_xmlStrdup
	mov	DWORD PTR [ebx+8], eax
$LN256@xmlDOMWrap:

; 9257 : 		XML_TREE_ADOPT_STR_2(cur->content)

	add	esp, 4
$LN79@xmlDOMWrap:
	mov	ecx, DWORD PTR [ebx+40]
	test	ecx, ecx
	je	SHORT $LN239@xmlDOMWrap
	mov	eax, DWORD PTR _sourceDoc$[ebp]
	test	eax, eax
	je	SHORT $LN239@xmlDOMWrap
	mov	eax, DWORD PTR [eax+80]
	test	eax, eax
	je	SHORT $LN239@xmlDOMWrap
	push	ecx
	push	eax
	call	_xmlDictOwns
	add	esp, 8
	test	eax, eax
	je	SHORT $LN239@xmlDOMWrap
	mov	eax, DWORD PTR _destDoc$[ebp]
	mov	ecx, DWORD PTR [ebx+40]
	mov	eax, DWORD PTR [eax+80]
	test	eax, eax
	je	SHORT $LN81@xmlDOMWrap
	push	-1
	push	ecx
	push	eax
	call	_xmlDictLookup
	add	esp, 12					; 0000000cH
	jmp	SHORT $LN258@xmlDOMWrap
$LN81@xmlDOMWrap:
	push	ecx
	call	_xmlStrdup
	add	esp, 4
$LN258@xmlDOMWrap:

; 9258 : 		break;
; 9259 : 	    case XML_COMMENT_NODE:
; 9260 : 		break;
; 9261 : 	    default:
; 9262 : 		goto internal_error;
; 9263 : 	}
; 9264 : 	/*
; 9265 : 	* Walk the tree.
; 9266 : 	*/
; 9267 : 	if (cur->children != NULL) {

	mov	DWORD PTR [ebx+40], eax
$LN239@xmlDOMWrap:
	mov	edi, DWORD PTR _node$[ebp]
$LN82@xmlDOMWrap:
	mov	eax, DWORD PTR [ebx+12]
	test	eax, eax
	jne	$LN130@xmlDOMWrap
$LN233@xmlDOMWrap:

; 9268 : 	    cur = cur->children;
; 9269 : 	    continue;
; 9270 : 	}
; 9271 : 
; 9272 : leave_node:
; 9273 : 	if (cur == node)

	mov	edx, DWORD PTR _depth$1$[ebp]
$leave_node$262:
	cmp	ebx, edi
	je	$LN247@xmlDOMWrap

; 9274 : 	    break;
; 9275 : 	if ((cur->type == XML_ELEMENT_NODE) ||
; 9276 : 	    (cur->type == XML_XINCLUDE_START) ||

	mov	eax, DWORD PTR [ebx+4]
	cmp	eax, 1
	je	SHORT $LN88@xmlDOMWrap
	cmp	eax, 19					; 00000013H
	je	SHORT $LN88@xmlDOMWrap
	cmp	eax, 20					; 00000014H
	jne	SHORT $LN87@xmlDOMWrap
$LN88@xmlDOMWrap:

; 9277 : 	    (cur->type == XML_XINCLUDE_END))
; 9278 : 	{
; 9279 : 	    /*
; 9280 : 	    * TODO: Do we expect nsDefs on XML_XINCLUDE_START?
; 9281 : 	    */
; 9282 : 	    if (XML_NSMAP_NOTEMPTY(nsMap)) {

	test	esi, esi
	je	SHORT $LN21@xmlDOMWrap
	cmp	DWORD PTR [esi], 0
	je	SHORT $LN21@xmlDOMWrap

; 9283 : 		/*
; 9284 : 		* Pop mappings.
; 9285 : 		*/
; 9286 : 		while ((nsMap->last != NULL) &&

	mov	ecx, DWORD PTR [esi+4]
	test	ecx, ecx
	je	SHORT $LN230@xmlDOMWrap
	npad	6
$LL18@xmlDOMWrap:
	cmp	DWORD PTR [ecx+20], edx
	jl	SHORT $LN230@xmlDOMWrap

; 9287 : 		    (nsMap->last->depth >= depth))
; 9288 : 		{
; 9289 : 		    XML_NSMAP_POP(nsMap, mi)

	mov	eax, DWORD PTR [ecx+4]
	mov	DWORD PTR [esi+4], eax
	test	eax, eax
	jne	SHORT $LN90@xmlDOMWrap
	mov	DWORD PTR [esi], eax
	jmp	SHORT $LN91@xmlDOMWrap
$LN90@xmlDOMWrap:
	mov	DWORD PTR [eax], 0
$LN91@xmlDOMWrap:
	mov	eax, DWORD PTR [esi+8]
	mov	DWORD PTR [ecx], eax
	mov	DWORD PTR [esi+8], ecx
	mov	ecx, DWORD PTR [esi+4]
	test	ecx, ecx
	jne	SHORT $LL18@xmlDOMWrap
$LN230@xmlDOMWrap:

; 9290 : 		}
; 9291 : 		/*
; 9292 : 		* Unshadow.
; 9293 : 		*/
; 9294 : 		XML_NSMAP_FOREACH(nsMap, mi) {

	mov	eax, DWORD PTR [esi]
	test	eax, eax
	je	SHORT $LN21@xmlDOMWrap
	npad	2
$LL22@xmlDOMWrap:

; 9295 : 		    if (mi->shadowDepth >= depth)

	cmp	DWORD PTR [eax+16], edx
	jl	SHORT $LN20@xmlDOMWrap

; 9296 : 			mi->shadowDepth = -1;

	mov	DWORD PTR [eax+16], -1
$LN20@xmlDOMWrap:

; 9290 : 		}
; 9291 : 		/*
; 9292 : 		* Unshadow.
; 9293 : 		*/
; 9294 : 		XML_NSMAP_FOREACH(nsMap, mi) {

	mov	eax, DWORD PTR [eax]
	test	eax, eax
	jne	SHORT $LL22@xmlDOMWrap
$LN21@xmlDOMWrap:

; 9297 : 		}
; 9298 : 	    }
; 9299 : 	    depth--;

	dec	edx
	mov	DWORD PTR _depth$1$[ebp], edx
$LN87@xmlDOMWrap:

; 9300 : 	}
; 9301 : 	if (cur->next != NULL)

	mov	eax, DWORD PTR [ebx+24]
	test	eax, eax
	jne	$LN130@xmlDOMWrap

; 9302 : 	    cur = cur->next;
; 9303 : 	else if ((cur->type == XML_ATTRIBUTE_NODE) &&

	cmp	DWORD PTR [ebx+4], 2
	jne	SHORT $LN194@xmlDOMWrap
	mov	eax, DWORD PTR [ebx+20]
	mov	eax, DWORD PTR [eax+12]
	test	eax, eax
	jne	$LN130@xmlDOMWrap
$LN194@xmlDOMWrap:

; 9304 : 	    (cur->parent->children != NULL))
; 9305 : 	{
; 9306 : 	    cur = cur->parent->children;
; 9307 : 	} else {
; 9308 : 	    cur = cur->parent;

	mov	ebx, DWORD PTR [ebx+20]

; 9309 : 	    goto leave_node;

	jmp	$leave_node$262
$LN218@xmlDOMWrap:

; 9097 : 			/*
; 9098 : 			* Gather @parent's in-scope ns-decls.
; 9099 : 			*/
; 9100 : 			if (xmlDOMWrapNSNormGatherInScopeNs(&nsMap,
; 9101 : 			    destParent) == -1)

	mov	esi, DWORD PTR _nsMap$[ebp]
$internal_error$261:

; 9310 : 	}
; 9311 :     }
; 9312 : 
; 9313 :     goto exit;
; 9314 : 
; 9315 : internal_error:
; 9316 :     ret = -1;

	or	ebx, -1
	jmp	SHORT $exit$264
$LN35@xmlDOMWrap:
	pop	edi

; 9337 : }

	pop	esi
	or	eax, -1
	pop	ebx
	mov	esp, ebp
	pop	ebp
	ret	0
$LN247@xmlDOMWrap:

; 9317 : 
; 9318 : exit:
; 9319 :     /*
; 9320 :     * Cleanup.
; 9321 :     */
; 9322 :     if (nsMap != NULL) {

	xor	ebx, ebx
$exit$264:
	test	esi, esi
	je	SHORT $LN105@xmlDOMWrap

; 9323 : 	if ((ctxt) && (ctxt->namespaceMap == nsMap)) {

	mov	eax, DWORD PTR _ctxt$[ebp]
	test	eax, eax
	je	SHORT $LN98@xmlDOMWrap
	cmp	DWORD PTR [eax+8], esi
	jne	SHORT $LN98@xmlDOMWrap

; 9324 : 	    /*
; 9325 : 	    * Just cleanup the map but don't free.
; 9326 : 	    */
; 9327 : 	    if (nsMap->first) {

	cmp	DWORD PTR [esi], 0
	je	SHORT $LN105@xmlDOMWrap

; 9328 : 		if (nsMap->pool)

	mov	ecx, DWORD PTR [esi+8]
	test	ecx, ecx
	je	SHORT $LN101@xmlDOMWrap

; 9329 : 		    nsMap->last->next = nsMap->pool;

	mov	eax, DWORD PTR [esi+4]
	mov	DWORD PTR [eax], ecx
$LN101@xmlDOMWrap:

; 9330 : 		nsMap->pool = nsMap->first;

	mov	eax, DWORD PTR [esi]
	mov	DWORD PTR [esi+8], eax

; 9331 : 		nsMap->first = NULL;
; 9332 : 	    }
; 9333 : 	} else
; 9334 : 	    xmlDOMWrapNsMapFree(nsMap);
; 9335 :     }
; 9336 :     return(ret);

	mov	eax, ebx
	pop	edi
	mov	DWORD PTR [esi], 0

; 9337 : }

	pop	esi
	pop	ebx
	mov	esp, ebp
	pop	ebp
	ret	0
$LN98@xmlDOMWrap:

; 7857 :     cur = nsmap->pool;

	mov	edi, DWORD PTR [esi+8]

; 7858 :     while (cur != NULL) {

	test	edi, edi
	je	SHORT $LN107@xmlDOMWrap
	npad	3
$LL106@xmlDOMWrap:

; 7859 : 	tmp = cur;
; 7860 : 	cur = cur->next;
; 7861 : 	xmlFree(tmp);

	push	edi
	mov	edi, DWORD PTR [edi]
	call	DWORD PTR _xmlFree
	add	esp, 4
	test	edi, edi
	jne	SHORT $LL106@xmlDOMWrap
$LN107@xmlDOMWrap:

; 7862 :     }
; 7863 :     cur = nsmap->first;

	mov	edi, DWORD PTR [esi]

; 7864 :     while (cur != NULL) {

	test	edi, edi
	je	SHORT $LN109@xmlDOMWrap
$LL108@xmlDOMWrap:

; 7865 : 	tmp = cur;
; 7866 : 	cur = cur->next;
; 7867 : 	xmlFree(tmp);

	push	edi
	mov	edi, DWORD PTR [edi]
	call	DWORD PTR _xmlFree
	add	esp, 4
	test	edi, edi
	jne	SHORT $LL108@xmlDOMWrap
$LN109@xmlDOMWrap:

; 7868 :     }
; 7869 :     xmlFree(nsmap);

	push	esi
	call	DWORD PTR _xmlFree
	add	esp, 4
$LN105@xmlDOMWrap:
	pop	edi

; 9337 : }

	pop	esi
	mov	eax, ebx
	pop	ebx
	mov	esp, ebp
	pop	ebp
	ret	0
	npad	3
$LN260@xmlDOMWrap:
	DD	$LN36@xmlDOMWrap
	DD	$LN10@xmlDOMWrap
	DD	$LN65@xmlDOMWrap
	DD	$LN69@xmlDOMWrap
	DD	$LN73@xmlDOMWrap
	DD	$LN82@xmlDOMWrap
	DD	$LN35@xmlDOMWrap
	DD	$internal_error$261
$LN206@xmlDOMWrap:
	DB	0
	DB	1
	DB	2
	DB	2
	DB	3
	DB	7
	DB	4
	DB	5
	DB	7
	DB	7
	DB	7
	DB	7
	DB	7
	DB	7
	DB	7
	DB	7
	DB	7
	DB	7
	DB	6
	DB	6
_xmlDOMWrapAdoptBranch ENDP
_TEXT	ENDS
; Function compile flags: /Ogtp
; File c:\users\dag\documents\_clients\codeproject authors group\windows on arm\libxml2\libxml2-2.9.9\tree.c
;	COMDAT _xmlDOMWrapNSNormAquireNormalizedNs
_TEXT	SEGMENT
_doc$ = 8						; size = 4
_elem$ = 12						; size = 4
_ns$ = 16						; size = 4
_retNs$ = 20						; size = 4
_nsMap$ = 24						; size = 4
_depth$ = 28						; size = 4
_ancestorsOnly$ = 32					; size = 4
_prefixed$ = 36						; size = 4
_xmlDOMWrapNSNormAquireNormalizedNs PROC		; COMDAT

; 8606 : {

	push	ebp
	mov	ebp, esp
	push	ebx
	push	esi
	push	edi
	mov	ecx, OFFSET __59973643_tree@c
	call	@__CheckForDebuggerJustMyCode@4
	mov	edi, DWORD PTR _doc$[ebp]
	test	edi, edi
	je	$LN9@xmlDOMWrap

; 8607 :     xmlNsMapItemPtr mi;
; 8608 : 
; 8609 :     if ((doc == NULL) || (ns == NULL) || (retNs == NULL) ||

	mov	ebx, DWORD PTR _ns$[ebp]
	test	ebx, ebx
	je	$LN9@xmlDOMWrap
	mov	esi, DWORD PTR _retNs$[ebp]
	test	esi, esi
	je	$LN9@xmlDOMWrap
	mov	ecx, DWORD PTR _nsMap$[ebp]
	test	ecx, ecx
	je	$LN9@xmlDOMWrap

; 8610 : 	(nsMap == NULL))
; 8611 : 	return (-1);
; 8612 : 
; 8613 :     *retNs = NULL;

	mov	DWORD PTR [esi], 0

; 8614 :     /*
; 8615 :     * Handle XML namespace.
; 8616 :     */
; 8617 :     if (IS_STR_XML(ns->prefix)) {

	mov	eax, DWORD PTR [ebx+12]
	test	eax, eax
	je	SHORT $LN10@xmlDOMWrap
	cmp	BYTE PTR [eax], 120			; 00000078H
	jne	SHORT $LN10@xmlDOMWrap
	cmp	BYTE PTR [eax+1], 109			; 0000006dH
	jne	SHORT $LN10@xmlDOMWrap
	cmp	BYTE PTR [eax+2], 108			; 0000006cH
	jne	SHORT $LN10@xmlDOMWrap
	cmp	BYTE PTR [eax+3], 0
	jne	SHORT $LN10@xmlDOMWrap

; 8618 : 	/*
; 8619 : 	* Insert XML namespace mapping.
; 8620 : 	*/
; 8621 : 	*retNs = xmlTreeEnsureXMLDecl(doc);

	push	edi
	call	_xmlTreeEnsureXMLDecl
	add	esp, 4
	mov	DWORD PTR [esi], eax

; 8622 : 	if (*retNs == NULL)

	test	eax, eax
	je	$LN9@xmlDOMWrap

; 8715 : }

	pop	edi
	pop	esi
	xor	eax, eax
	pop	ebx
	pop	ebp
	ret	0
$LN10@xmlDOMWrap:

; 8623 : 	    return (-1);
; 8624 : 	return (0);
; 8625 :     }
; 8626 :     /*
; 8627 :     * If the search should be done in ancestors only and no
; 8628 :     * @elem (the first ancestor) was specified, then skip the search.
; 8629 :     */
; 8630 :     if ((XML_NSMAP_NOTEMPTY(*nsMap)) &&

	mov	esi, DWORD PTR [ecx]
	mov	ecx, eax
	mov	edx, DWORD PTR _elem$[ebp]
	test	esi, esi
	je	SHORT $LN3@xmlDOMWrap
	mov	esi, DWORD PTR [esi]
	test	esi, esi
	je	SHORT $LN3@xmlDOMWrap
	mov	ecx, DWORD PTR _ancestorsOnly$[ebp]
	test	ecx, ecx
	je	SHORT $LL13@xmlDOMWrap
	mov	ecx, eax
	test	edx, edx
	je	SHORT $LN3@xmlDOMWrap
$LN43@xmlDOMWrap:

; 8637 : 	    if ((mi->depth >= XML_TREE_NSMAP_PARENT) &&
; 8638 : 		/*
; 8639 : 		* ancestorsOnly: This should be turned on to gain speed,
; 8640 : 		* if one knows that the branch itself was already
; 8641 : 		* ns-wellformed and no stale references existed.
; 8642 : 		* I.e. it searches in the ancestor axis only.
; 8643 : 		*/
; 8644 : 		((! ancestorsOnly) || (mi->depth == XML_TREE_NSMAP_PARENT)) &&
; 8645 : 		/* Skip shadowed prefixes. */
; 8646 : 		(mi->shadowDepth == -1) &&
; 8647 : 		/* Skip xmlns="" or xmlns:foo="". */
; 8648 : 		((mi->newNs->href != NULL) &&
; 8649 : 		(mi->newNs->href[0] != 0)) &&
; 8650 : 		/* Ensure a prefix if wanted. */
; 8651 : 		((! prefixed) || (mi->newNs->prefix != NULL)) &&

	mov	ecx, DWORD PTR _ancestorsOnly$[ebp]
	npad	5
$LL13@xmlDOMWrap:
	mov	eax, DWORD PTR [esi+20]
	cmp	eax, -1
	jl	SHORT $LN2@xmlDOMWrap
	test	ecx, ecx
	je	SHORT $LN34@xmlDOMWrap
	cmp	eax, -1
	jne	SHORT $LN2@xmlDOMWrap
$LN34@xmlDOMWrap:
	cmp	DWORD PTR [esi+16], -1
	jne	SHORT $LN2@xmlDOMWrap
	mov	ecx, DWORD PTR [esi+12]
	mov	eax, DWORD PTR [ecx+8]
	test	eax, eax
	je	SHORT $LN2@xmlDOMWrap
	cmp	BYTE PTR [eax], 0
	je	SHORT $LN2@xmlDOMWrap
	cmp	DWORD PTR _prefixed$[ebp], 0
	je	SHORT $LN16@xmlDOMWrap
	cmp	DWORD PTR [ecx+12], 0
	je	SHORT $LN2@xmlDOMWrap
$LN16@xmlDOMWrap:
	mov	ecx, DWORD PTR [ebx+8]
	cmp	eax, ecx
	je	SHORT $LN38@xmlDOMWrap
	push	ecx
	push	eax
	call	_xmlStrEqual
	add	esp, 8
	test	eax, eax
	jne	SHORT $LN38@xmlDOMWrap
$LN2@xmlDOMWrap:

; 8631 : 	(! (ancestorsOnly && (elem == NULL))))
; 8632 :     {
; 8633 : 	/*
; 8634 : 	* Try to find an equal ns-name in in-scope ns-decls.
; 8635 : 	*/
; 8636 : 	XML_NSMAP_FOREACH(*nsMap, mi) {

	mov	esi, DWORD PTR [esi]
	test	esi, esi
	jne	SHORT $LN43@xmlDOMWrap

; 8696 : 		if ((mi->depth < depth) &&
; 8697 : 		    (mi->shadowDepth == -1) &&

	mov	ecx, DWORD PTR [ebx+12]
	mov	edx, DWORD PTR _elem$[ebp]
$LN3@xmlDOMWrap:

; 8658 : 		return (0);
; 8659 : 	    }
; 8660 : 	}
; 8661 :     }
; 8662 :     /*
; 8663 :     * No luck, the namespace is out of scope or shadowed.
; 8664 :     */
; 8665 :     if (elem == NULL) {

	mov	eax, DWORD PTR [ebx+8]
	test	edx, edx
	jne	SHORT $LN18@xmlDOMWrap

; 8666 : 	xmlNsPtr tmpns;
; 8667 : 
; 8668 : 	/*
; 8669 : 	* Store ns-decls in "oldNs" of the document-node.
; 8670 : 	*/
; 8671 : 	tmpns = xmlDOMWrapStoreNs(doc, ns->href, ns->prefix);

	push	ecx
	push	eax
	push	edi
	call	_xmlDOMWrapStoreNs
	mov	edi, eax
	add	esp, 12					; 0000000cH

; 8672 : 	if (tmpns == NULL)

	test	edi, edi
	je	SHORT $LN9@xmlDOMWrap

; 8673 : 	    return (-1);
; 8674 : 	/*
; 8675 : 	* Insert mapping.
; 8676 : 	*/
; 8677 : 	if (xmlDOMWrapNsMapAddItem(nsMap, -1, ns,
; 8678 : 		tmpns, XML_TREE_NSMAP_DOC) == NULL) {

	push	-3					; fffffffdH
	push	edi
	push	ebx
$LN44@xmlDOMWrap:

; 8715 : }

	push	-1
	push	DWORD PTR _nsMap$[ebp]
	call	_xmlDOMWrapNsMapAddItem
	add	esp, 20					; 00000014H
	test	eax, eax
	jne	$LN26@xmlDOMWrap
	push	edi
	call	_xmlFreeNs
	add	esp, 4
$LN9@xmlDOMWrap:
	pop	edi
	pop	esi
	or	eax, -1
	pop	ebx
	pop	ebp
	ret	0
$LN38@xmlDOMWrap:

; 8652 : 		/* Equal ns name */
; 8653 : 		((mi->newNs->href == ns->href) ||
; 8654 : 		xmlStrEqual(mi->newNs->href, ns->href))) {
; 8655 : 		/* Set the mapping. */
; 8656 : 		mi->oldNs = ns;
; 8657 : 		*retNs = mi->newNs;

	mov	ecx, DWORD PTR _retNs$[ebp]
	mov	eax, DWORD PTR [esi+12]
	mov	DWORD PTR [esi+8], ebx
	pop	edi

; 8715 : }

	pop	esi
	mov	DWORD PTR [ecx], eax
	xor	eax, eax
	pop	ebx
	pop	ebp
	ret	0
$LN18@xmlDOMWrap:

; 8679 : 	    xmlFreeNs(tmpns);
; 8680 : 	    return (-1);
; 8681 : 	}
; 8682 : 	*retNs = tmpns;
; 8683 :     } else {
; 8684 : 	xmlNsPtr tmpns;
; 8685 : 
; 8686 : 	tmpns = xmlDOMWrapNSNormDeclareNsForced(doc, elem, ns->href,

	push	0
	push	ecx
	push	eax
	push	edx
	push	edi
	call	_xmlDOMWrapNSNormDeclareNsForced
	mov	edi, eax
	add	esp, 20					; 00000014H

; 8687 : 	    ns->prefix, 0);
; 8688 : 	if (tmpns == NULL)

	test	edi, edi
	je	SHORT $LN9@xmlDOMWrap

; 8689 : 	    return (-1);
; 8690 : 
; 8691 : 	if (*nsMap != NULL) {

	mov	esi, DWORD PTR _nsMap$[ebp]
	mov	ebx, DWORD PTR _depth$[ebp]
	mov	esi, DWORD PTR [esi]
	test	esi, esi
	je	SHORT $LN40@xmlDOMWrap

; 8692 : 	    /*
; 8693 : 	    * Does it shadow ancestor ns-decls?
; 8694 : 	    */
; 8695 : 	    XML_NSMAP_FOREACH(*nsMap, mi) {

	mov	esi, DWORD PTR [esi]
	test	esi, esi
	je	SHORT $LN40@xmlDOMWrap
	npad	3
$LL7@xmlDOMWrap:

; 8696 : 		if ((mi->depth < depth) &&
; 8697 : 		    (mi->shadowDepth == -1) &&

	cmp	DWORD PTR [esi+20], ebx
	jge	SHORT $LN5@xmlDOMWrap
	cmp	DWORD PTR [esi+16], -1
	jne	SHORT $LN5@xmlDOMWrap
	mov	eax, DWORD PTR _ns$[ebp]
	mov	ecx, DWORD PTR [eax+12]
	mov	eax, DWORD PTR [esi+12]
	mov	eax, DWORD PTR [eax+12]
	cmp	ecx, eax
	je	SHORT $LN25@xmlDOMWrap
	push	eax
	push	ecx
	call	_xmlStrEqual
	add	esp, 8
	test	eax, eax
	jne	SHORT $LN25@xmlDOMWrap
$LN5@xmlDOMWrap:

; 8692 : 	    /*
; 8693 : 	    * Does it shadow ancestor ns-decls?
; 8694 : 	    */
; 8695 : 	    XML_NSMAP_FOREACH(*nsMap, mi) {

	mov	esi, DWORD PTR [esi]
	test	esi, esi
	jne	SHORT $LL7@xmlDOMWrap

; 8704 : 		    break;
; 8705 : 		}
; 8706 : 	    }
; 8707 : 	}
; 8708 : 	if (xmlDOMWrapNsMapAddItem(nsMap, -1, ns, tmpns, depth) == NULL) {

	push	ebx
	push	edi
	push	DWORD PTR _ns$[ebp]

; 8709 : 	    xmlFreeNs(tmpns);
; 8710 : 	    return (-1);

	jmp	$LN44@xmlDOMWrap
$LN25@xmlDOMWrap:

; 8698 : 		    ((ns->prefix == mi->newNs->prefix) ||
; 8699 : 		    xmlStrEqual(ns->prefix, mi->newNs->prefix))) {
; 8700 : 		    /*
; 8701 : 		    * Shadows.
; 8702 : 		    */
; 8703 : 		    mi->shadowDepth = depth;

	mov	DWORD PTR [esi+16], ebx
$LN40@xmlDOMWrap:

; 8704 : 		    break;
; 8705 : 		}
; 8706 : 	    }
; 8707 : 	}
; 8708 : 	if (xmlDOMWrapNsMapAddItem(nsMap, -1, ns, tmpns, depth) == NULL) {

	push	ebx
	push	edi
	push	DWORD PTR _ns$[ebp]

; 8709 : 	    xmlFreeNs(tmpns);
; 8710 : 	    return (-1);

	jmp	$LN44@xmlDOMWrap
$LN26@xmlDOMWrap:

; 8711 : 	}
; 8712 : 	*retNs = tmpns;
; 8713 :     }
; 8714 :     return (0);

	mov	ecx, DWORD PTR _retNs$[ebp]
	xor	eax, eax
	mov	DWORD PTR [ecx], edi
	pop	edi

; 8715 : }

	pop	esi
	pop	ebx
	pop	ebp
	ret	0
_xmlDOMWrapNSNormAquireNormalizedNs ENDP
_TEXT	ENDS
; Function compile flags: /Ogtp
; File c:\users\dag\documents\_clients\codeproject authors group\windows on arm\libxml2\libxml2-2.9.9\tree.c
;	COMDAT _xmlDOMWrapNSNormDeclareNsForced
_TEXT	SEGMENT
_buf$ = -56						; size = 50
_counter$1$ = -4					; size = 4
_doc$ = 8						; size = 4
_elem$ = 12						; size = 4
_nsName$ = 16						; size = 4
_prefix$ = 20						; size = 4
_checkShadow$ = 24					; size = 4
_xmlDOMWrapNSNormDeclareNsForced PROC			; COMDAT

; 8523 : {

	push	ebp
	mov	ebp, esp
	sub	esp, 56					; 00000038H
	push	ebx
	push	esi
	push	edi
	mov	ecx, OFFSET __59973643_tree@c
	call	@__CheckForDebuggerJustMyCode@4
	cmp	DWORD PTR _doc$[ebp], 0
	mov	DWORD PTR _counter$1$[ebp], 0
	je	$LN7@xmlDOMWrap

; 8524 : 
; 8525 :     xmlNsPtr ret;
; 8526 :     char buf[50];
; 8527 :     const xmlChar *pref;
; 8528 :     int counter = 0;
; 8529 : 
; 8530 :     if ((doc == NULL) || (elem == NULL) || (elem->type != XML_ELEMENT_NODE))

	mov	ebx, DWORD PTR _elem$[ebp]
	test	ebx, ebx
	je	$LN7@xmlDOMWrap
	cmp	DWORD PTR [ebx+4], 1
	jne	$LN7@xmlDOMWrap

; 8531 :         return(NULL);
; 8532 :     /*
; 8533 :     * Create a ns-decl on @anchor.
; 8534 :     */
; 8535 :     pref = prefix;

	mov	edi, DWORD PTR _prefix$[ebp]
	npad	4
$LL2@xmlDOMWrap:

; 8536 :     while (1) {
; 8537 : 	/*
; 8538 : 	* Lookup whether the prefix is unused in elem's ns-decls.
; 8539 : 	*/
; 8540 : 	if ((elem->nsDef != NULL) &&

	mov	esi, DWORD PTR [ebx+48]
	test	esi, esi
	je	SHORT $LN8@xmlDOMWrap
	npad	9
$LL21@xmlDOMWrap:

; 8060 : 	    if ((prefix == ns->prefix) ||

	mov	eax, DWORD PTR [esi+12]
	cmp	edi, eax
	je	$ns_next_prefix$89
	push	eax
	push	edi
	call	_xmlStrEqual
	add	esp, 8
	test	eax, eax
	jne	$ns_next_prefix$89

; 8061 : 		xmlStrEqual(prefix, ns->prefix)) {
; 8062 : 		return (ns);
; 8063 : 	    }
; 8064 : 	    ns = ns->next;

	mov	esi, DWORD PTR [esi]

; 8065 : 	} while (ns != NULL);

	test	esi, esi
	jne	SHORT $LL21@xmlDOMWrap
$LN8@xmlDOMWrap:

; 8541 : 	    (xmlTreeNSListLookupByPrefix(elem->nsDef, pref) != NULL))
; 8542 : 	    goto ns_next_prefix;
; 8543 : 	if (checkShadow && elem->parent &&

	cmp	DWORD PTR _checkShadow$[ebp], 0
	je	SHORT $LN10@xmlDOMWrap
	mov	ebx, DWORD PTR [ebx+20]
	test	ebx, ebx
	je	SHORT $LN83@xmlDOMWrap
	cmp	DWORD PTR [ebx+32], ebx
	je	SHORT $LN83@xmlDOMWrap

; 8460 :     if ((doc == NULL) || (node == NULL) || (node->type == XML_NAMESPACE_DECL))

	cmp	DWORD PTR [ebx+4], 18			; 00000012H
	je	SHORT $LN83@xmlDOMWrap

; 8461 :         return(-1);
; 8462 : 
; 8463 :     if (retNs)
; 8464 : 	*retNs = NULL;
; 8465 :     if (IS_STR_XML(prefix)) {

	test	edi, edi
	je	SHORT $LL29@xmlDOMWrap
	cmp	BYTE PTR [edi], 120			; 00000078H
	jne	SHORT $LL29@xmlDOMWrap
	cmp	BYTE PTR [edi+1], 109			; 0000006dH
	jne	SHORT $LL29@xmlDOMWrap
	cmp	BYTE PTR [edi+2], 108			; 0000006cH
	jne	SHORT $LL29@xmlDOMWrap
	cmp	BYTE PTR [edi+3], 0
	je	SHORT $LN84@xmlDOMWrap
$LL29@xmlDOMWrap:

; 8466 : 	if (retNs) {
; 8467 : 	    *retNs = xmlTreeEnsureXMLDecl(doc);
; 8468 : 	    if (*retNs == NULL)
; 8469 : 		return (-1);
; 8470 : 	}
; 8471 : 	return (1);
; 8472 :     }
; 8473 :     cur = node;
; 8474 :     do {
; 8475 : 	if (cur->type == XML_ELEMENT_NODE) {

	mov	eax, DWORD PTR [ebx+4]
	cmp	eax, 1
	jne	SHORT $LN39@xmlDOMWrap

; 8476 : 	    if (cur->nsDef != NULL) {

	mov	esi, DWORD PTR [ebx+48]
	test	esi, esi
	je	SHORT $LN46@xmlDOMWrap
$LL32@xmlDOMWrap:

; 8477 : 		ns = cur->nsDef;
; 8478 : 		do {
; 8479 : 		    if ((prefix == ns->prefix) ||

	mov	eax, DWORD PTR [esi+12]
	cmp	edi, eax
	je	SHORT $LN57@xmlDOMWrap
	push	eax
	push	edi
	call	_xmlStrEqual
	add	esp, 8
	test	eax, eax
	jne	SHORT $LN57@xmlDOMWrap

; 8486 : 			    return(0);
; 8487 : 			if (retNs)
; 8488 : 			    *retNs = ns;
; 8489 : 			return (1);
; 8490 : 		    }
; 8491 : 		    ns = ns->next;

	mov	esi, DWORD PTR [esi]

; 8492 : 		} while (ns != NULL);

	test	esi, esi
	jne	SHORT $LL32@xmlDOMWrap

; 8493 : 	    }
; 8494 : 	} else if ((cur->type == XML_ENTITY_NODE) ||

	jmp	SHORT $LN46@xmlDOMWrap
$LN39@xmlDOMWrap:
	cmp	eax, 6
	je	SHORT $LN83@xmlDOMWrap
	cmp	eax, 17					; 00000011H
	je	SHORT $LN83@xmlDOMWrap
$LN46@xmlDOMWrap:

; 8495 :             (cur->type == XML_ENTITY_DECL))
; 8496 : 	    return (0);
; 8497 : 	cur = cur->parent;

	mov	ebx, DWORD PTR [ebx+20]

; 8498 :     } while ((cur != NULL) && (cur->doc != (xmlDocPtr) cur));

	test	ebx, ebx
	je	SHORT $LN83@xmlDOMWrap
	cmp	DWORD PTR [ebx+32], ebx
	jne	SHORT $LL29@xmlDOMWrap
$LN83@xmlDOMWrap:

; 8544 : 	    ((xmlNodePtr) elem->parent->doc != elem->parent)) {
; 8545 : 	    /*
; 8546 : 	    * Does it shadow ancestor ns-decls?
; 8547 : 	    */
; 8548 : 	    if (xmlSearchNsByPrefixStrict(doc, elem->parent, pref, NULL) == 1)
; 8549 : 		goto ns_next_prefix;
; 8550 : 	}
; 8551 : 	ret = xmlNewNs(NULL, nsName, pref);

	mov	ebx, DWORD PTR _elem$[ebp]
$LN10@xmlDOMWrap:
	push	edi
	push	DWORD PTR _nsName$[ebp]
	push	0
	call	_xmlNewNs
	mov	esi, eax
	add	esp, 12					; 0000000cH

; 8552 : 	if (ret == NULL)

	test	esi, esi
	je	$LN7@xmlDOMWrap

; 8553 : 	    return (NULL);
; 8554 : 	if (elem->nsDef == NULL)

	mov	edx, DWORD PTR [ebx+48]
	test	edx, edx
	jne	SHORT $LN12@xmlDOMWrap

; 8555 : 	    elem->nsDef = ret;

	pop	edi
	mov	DWORD PTR [ebx+48], esi

; 8574 :     }
; 8575 : }

	pop	esi
	pop	ebx
	mov	esp, ebp
	pop	ebp
	ret	0
$LN57@xmlDOMWrap:

; 8485 : 			if (ns->href == NULL)

	cmp	DWORD PTR [esi+8], 0
	mov	ebx, DWORD PTR _elem$[ebp]
	je	SHORT $LN10@xmlDOMWrap

; 8461 :         return(-1);
; 8462 : 
; 8463 :     if (retNs)
; 8464 : 	*retNs = NULL;
; 8465 :     if (IS_STR_XML(prefix)) {

	jmp	SHORT $ns_next_prefix$89
$LN84@xmlDOMWrap:
	mov	ebx, DWORD PTR _elem$[ebp]
$ns_next_prefix$89:

; 8563 : ns_next_prefix:
; 8564 : 	counter++;

	mov	eax, DWORD PTR _counter$1$[ebp]
	inc	eax
	mov	DWORD PTR _counter$1$[ebp], eax

; 8565 : 	if (counter > 1000)

	cmp	eax, 1000				; 000003e8H
	jg	SHORT $LN7@xmlDOMWrap

; 8566 : 	    return (NULL);
; 8567 : 	if (prefix == NULL) {

	mov	ecx, DWORD PTR _prefix$[ebp]
	push	eax
	lea	eax, DWORD PTR _buf$[ebp]
	test	ecx, ecx
	jne	SHORT $LN15@xmlDOMWrap

; 8568 : 	    snprintf((char *) buf, sizeof(buf),

	push	OFFSET ??_C@_05GOMIJPDF@ns_?$CFd@
	push	50					; 00000032H
	push	eax
	call	_snprintf
	add	esp, 16					; 00000010H

; 8572 : 	    "%.30s_%d", (char *)prefix, counter);
; 8573 : 	pref = BAD_CAST buf;

	lea	edi, DWORD PTR _buf$[ebp]
	jmp	$LL2@xmlDOMWrap
$LN15@xmlDOMWrap:

; 8569 : 		"ns_%d", counter);
; 8570 : 	} else
; 8571 : 	    snprintf((char *) buf, sizeof(buf),

	push	ecx
	push	OFFSET ??_C@_08LCJGELPI@?$CF?430s_?$CFd@
	push	50					; 00000032H
	push	eax
	call	_snprintf
	add	esp, 20					; 00000014H

; 8572 : 	    "%.30s_%d", (char *)prefix, counter);
; 8573 : 	pref = BAD_CAST buf;

	lea	edi, DWORD PTR _buf$[ebp]
	jmp	$LL2@xmlDOMWrap
$LN12@xmlDOMWrap:

; 8556 : 	else {
; 8557 : 	    xmlNsPtr ns2 = elem->nsDef;
; 8558 : 	    while (ns2->next != NULL)

	mov	ecx, DWORD PTR [edx]
	test	ecx, ecx
	je	SHORT $LN5@xmlDOMWrap
$LL4@xmlDOMWrap:
	mov	eax, DWORD PTR [ecx]

; 8559 : 		ns2 = ns2->next;

	mov	edx, ecx
	mov	ecx, eax
	test	eax, eax
	jne	SHORT $LL4@xmlDOMWrap
$LN5@xmlDOMWrap:
	pop	edi

; 8560 : 	    ns2->next = ret;

	mov	DWORD PTR [edx], esi

; 8561 : 	}
; 8562 : 	return (ret);

	mov	eax, esi

; 8574 :     }
; 8575 : }

	pop	esi
	pop	ebx
	mov	esp, ebp
	pop	ebp
	ret	0
$LN7@xmlDOMWrap:
	pop	edi
	pop	esi
	xor	eax, eax
	pop	ebx
	mov	esp, ebp
	pop	ebp
	ret	0
_xmlDOMWrapNSNormDeclareNsForced ENDP
_TEXT	ENDS
; Function compile flags: /Ogtp
; File c:\users\dag\documents\_clients\codeproject authors group\windows on arm\libxml2\libxml2-2.9.9\tree.c
;	COMDAT _xmlSearchNsByPrefixStrict
_TEXT	SEGMENT
_doc$ = 8						; size = 4
_node$ = 12						; size = 4
_prefix$ = 16						; size = 4
_retNs$ = 20						; size = 4
_xmlSearchNsByPrefixStrict PROC				; COMDAT

; 8456 : {

	push	ebp
	mov	ebp, esp
	push	ebx
	push	esi
	push	edi
	mov	ecx, OFFSET __59973643_tree@c
	call	@__CheckForDebuggerJustMyCode@4
	mov	eax, DWORD PTR _doc$[ebp]
	test	eax, eax
	je	SHORT $LN9@xmlSearchN

; 8457 :     xmlNodePtr cur;
; 8458 :     xmlNsPtr ns;
; 8459 : 
; 8460 :     if ((doc == NULL) || (node == NULL) || (node->type == XML_NAMESPACE_DECL))

	mov	edi, DWORD PTR _node$[ebp]
	test	edi, edi
	je	SHORT $LN9@xmlSearchN
	cmp	DWORD PTR [edi+4], 18			; 00000012H
	je	SHORT $LN9@xmlSearchN

; 8461 :         return(-1);
; 8462 : 
; 8463 :     if (retNs)

	mov	ecx, DWORD PTR _retNs$[ebp]
	test	ecx, ecx
	je	SHORT $LN32@xmlSearchN

; 8464 : 	*retNs = NULL;

	mov	DWORD PTR [ecx], 0
$LN32@xmlSearchN:

; 8465 :     if (IS_STR_XML(prefix)) {

	mov	ebx, DWORD PTR _prefix$[ebp]
	test	ebx, ebx
	je	SHORT $LL4@xmlSearchN
	cmp	BYTE PTR [ebx], 120			; 00000078H
	jne	SHORT $LL4@xmlSearchN
	cmp	BYTE PTR [ebx+1], 109			; 0000006dH
	jne	SHORT $LL4@xmlSearchN
	cmp	BYTE PTR [ebx+2], 108			; 0000006cH
	jne	SHORT $LL4@xmlSearchN
	cmp	BYTE PTR [ebx+3], 0
	jne	SHORT $LL4@xmlSearchN

; 8466 : 	if (retNs) {

	test	ecx, ecx
	je	SHORT $LN20@xmlSearchN

; 8467 : 	    *retNs = xmlTreeEnsureXMLDecl(doc);

	push	eax
	call	_xmlTreeEnsureXMLDecl
	mov	ecx, DWORD PTR _retNs$[ebp]
	add	esp, 4
	mov	DWORD PTR [ecx], eax

; 8468 : 	    if (*retNs == NULL)

	test	eax, eax
	jne	SHORT $LN20@xmlSearchN
$LN9@xmlSearchN:
	pop	edi

; 8499 :     return (0);
; 8500 : }

	pop	esi
	or	eax, -1
	pop	ebx
	pop	ebp
	ret	0
	npad	3
$LL4@xmlSearchN:

; 8469 : 		return (-1);
; 8470 : 	}
; 8471 : 	return (1);
; 8472 :     }
; 8473 :     cur = node;
; 8474 :     do {
; 8475 : 	if (cur->type == XML_ELEMENT_NODE) {

	mov	eax, DWORD PTR [edi+4]
	cmp	eax, 1
	jne	SHORT $LN14@xmlSearchN

; 8476 : 	    if (cur->nsDef != NULL) {

	mov	esi, DWORD PTR [edi+48]
	test	esi, esi
	je	SHORT $LN21@xmlSearchN
	npad	1
$LL7@xmlSearchN:

; 8477 : 		ns = cur->nsDef;
; 8478 : 		do {
; 8479 : 		    if ((prefix == ns->prefix) ||

	mov	eax, DWORD PTR [esi+12]
	cmp	ebx, eax
	je	SHORT $LN27@xmlSearchN
	push	eax
	push	ebx
	call	_xmlStrEqual
	add	esp, 8
	test	eax, eax
	jne	SHORT $LN27@xmlSearchN

; 8489 : 			return (1);
; 8490 : 		    }
; 8491 : 		    ns = ns->next;

	mov	esi, DWORD PTR [esi]

; 8492 : 		} while (ns != NULL);

	test	esi, esi
	jne	SHORT $LL7@xmlSearchN

; 8493 : 	    }

	jmp	SHORT $LN21@xmlSearchN
$LN14@xmlSearchN:

; 8494 : 	} else if ((cur->type == XML_ENTITY_NODE) ||

	cmp	eax, 6
	je	SHORT $LN22@xmlSearchN
	cmp	eax, 17					; 00000011H
	je	SHORT $LN22@xmlSearchN
$LN21@xmlSearchN:

; 8495 :             (cur->type == XML_ENTITY_DECL))
; 8496 : 	    return (0);
; 8497 : 	cur = cur->parent;

	mov	edi, DWORD PTR [edi+20]

; 8498 :     } while ((cur != NULL) && (cur->doc != (xmlDocPtr) cur));

	test	edi, edi
	je	SHORT $LN22@xmlSearchN
	cmp	DWORD PTR [edi+32], edi
	jne	SHORT $LL4@xmlSearchN
$LN22@xmlSearchN:
	pop	edi

; 8499 :     return (0);
; 8500 : }

	pop	esi
	xor	eax, eax
	pop	ebx
	pop	ebp
	ret	0
$LN27@xmlSearchN:

; 8480 : 			xmlStrEqual(prefix, ns->prefix))
; 8481 : 		    {
; 8482 : 			/*
; 8483 : 			* Disabled namespaces, e.g. xmlns:abc="".
; 8484 : 			*/
; 8485 : 			if (ns->href == NULL)

	cmp	DWORD PTR [esi+8], 0
	je	SHORT $LN22@xmlSearchN

; 8486 : 			    return(0);
; 8487 : 			if (retNs)

	mov	ecx, DWORD PTR _retNs$[ebp]
	test	ecx, ecx
	je	SHORT $LN20@xmlSearchN

; 8488 : 			    *retNs = ns;

	mov	DWORD PTR [ecx], esi
$LN20@xmlSearchN:
	pop	edi

; 8499 :     return (0);
; 8500 : }

	pop	esi
	mov	eax, 1
	pop	ebx
	pop	ebp
	ret	0
_xmlSearchNsByPrefixStrict ENDP
_TEXT	ENDS
; Function compile flags: /Ogtp
; File c:\users\dag\documents\_clients\codeproject authors group\windows on arm\libxml2\libxml2-2.9.9\tree.c
;	COMDAT _xmlSearchNsByNamespaceStrict
_TEXT	SEGMENT
_cur$1$ = -8						; size = 4
_out$1$ = -4						; size = 4
_doc$ = 8						; size = 4
_node$ = 12						; size = 4
_nsName$ = 16						; size = 4
_retNs$ = 20						; size = 4
_prefixed$ = 24						; size = 4
_xmlSearchNsByNamespaceStrict PROC			; COMDAT

; 8354 : {

	push	ebp
	mov	ebp, esp
	sub	esp, 8
	push	ebx
	push	esi
	push	edi
	mov	ecx, OFFSET __59973643_tree@c
	call	@__CheckForDebuggerJustMyCode@4
	xor	ebx, ebx
	mov	DWORD PTR _out$1$[ebp], ebx
	cmp	DWORD PTR _doc$[ebp], ebx
	je	$LN12@xmlSearchN

; 8355 :     xmlNodePtr cur, prev = NULL, out = NULL;
; 8356 :     xmlNsPtr ns, prevns;
; 8357 : 
; 8358 :     if ((doc == NULL) || (nsName == NULL) || (retNs == NULL))

	mov	esi, DWORD PTR _nsName$[ebp]
	test	esi, esi
	je	$LN12@xmlSearchN
	mov	eax, DWORD PTR _retNs$[ebp]
	test	eax, eax
	je	$LN12@xmlSearchN

; 8359 : 	return (-1);
; 8360 :     if ((node == NULL) || (node->type == XML_NAMESPACE_DECL))

	mov	edi, DWORD PTR _node$[ebp]
	test	edi, edi
	je	$LN12@xmlSearchN
	cmp	DWORD PTR [edi+4], 18			; 00000012H
	je	$LN12@xmlSearchN

; 8361 :         return(-1);
; 8362 : 
; 8363 :     *retNs = NULL;
; 8364 :     if (xmlStrEqual(nsName, XML_XML_NAMESPACE)) {

	push	OFFSET ??_C@_0CF@GLDAAHFK@http?3?1?1www?4w3?4org?1XML?11998?1name@
	push	esi
	mov	DWORD PTR [eax], ebx
	call	_xmlStrEqual
	add	esp, 8
	test	eax, eax
	je	SHORT $LN15@xmlSearchN

; 8365 : 	*retNs = xmlTreeEnsureXMLDecl(doc);

	push	DWORD PTR _doc$[ebp]
	call	_xmlTreeEnsureXMLDecl
	mov	ecx, DWORD PTR _retNs$[ebp]
	add	esp, 4
	mov	DWORD PTR [ecx], eax

; 8366 : 	if (*retNs == NULL)

	test	eax, eax
	je	$LN12@xmlSearchN

; 8436 :     return (0);
; 8437 : }

	pop	edi
	pop	esi
	lea	eax, DWORD PTR [ebx+1]
	pop	ebx
	mov	esp, ebp
	pop	ebp
	ret	0
$LN15@xmlSearchN:

; 8367 : 	    return (-1);
; 8368 : 	return (1);
; 8369 :     }
; 8370 :     cur = node;

	mov	ecx, edi
	mov	DWORD PTR _cur$1$[ebp], edi
	npad	9
$LL4@xmlSearchN:

; 8371 :     do {
; 8372 : 	if (cur->type == XML_ELEMENT_NODE) {

	mov	eax, DWORD PTR [ecx+4]
	cmp	eax, 1
	jne	$LN17@xmlSearchN

; 8373 : 	    if (cur->nsDef != NULL) {

	mov	edi, DWORD PTR [ecx+48]
	test	edi, edi
	je	$LN30@xmlSearchN
$LL7@xmlSearchN:

; 8375 : 		    if (prefixed && (ns->prefix == NULL))

	cmp	DWORD PTR _prefixed$[ebp], 0
	je	SHORT $LN50@xmlSearchN
	cmp	DWORD PTR [edi+12], 0
	je	SHORT $LN5@xmlSearchN
$LN50@xmlSearchN:

; 8376 : 			continue;
; 8377 : 		    if (prev != NULL) {

	test	ebx, ebx
	je	SHORT $LN24@xmlSearchN

; 8378 : 			/*
; 8379 : 			* Check the last level of ns-decls for a
; 8380 : 			* shadowing prefix.
; 8381 : 			*/
; 8382 : 			prevns = prev->nsDef;

	mov	esi, DWORD PTR [ebx+48]
	npad	6
$LL10@xmlSearchN:

; 8383 : 			do {
; 8384 : 			    if ((prevns->prefix == ns->prefix) ||

	mov	eax, DWORD PTR [esi+12]
	mov	ecx, DWORD PTR [edi+12]
	cmp	eax, ecx
	je	SHORT $LN52@xmlSearchN
	test	eax, eax
	je	SHORT $LN22@xmlSearchN
	test	ecx, ecx
	je	SHORT $LN22@xmlSearchN
	push	ecx
	push	eax
	call	_xmlStrEqual
	add	esp, 8
	test	eax, eax
	jne	SHORT $LN52@xmlSearchN
$LN22@xmlSearchN:

; 8385 : 				((prevns->prefix != NULL) &&
; 8386 : 				(ns->prefix != NULL) &&
; 8387 : 				xmlStrEqual(prevns->prefix, ns->prefix))) {
; 8388 : 				/*
; 8389 : 				* Shadowed.
; 8390 : 				*/
; 8391 : 				break;
; 8392 : 			    }
; 8393 : 			    prevns = prevns->next;

	mov	esi, DWORD PTR [esi]

; 8394 : 			} while (prevns != NULL);

	test	esi, esi
	jne	SHORT $LL10@xmlSearchN
	mov	esi, DWORD PTR _nsName$[ebp]
$LN24@xmlSearchN:

; 8395 : 			if (prevns != NULL)
; 8396 : 			    continue;
; 8397 : 		    }
; 8398 : 		    /*
; 8399 : 		    * Ns-name comparison.
; 8400 : 		    */
; 8401 : 		    if ((nsName == ns->href) ||

	mov	eax, DWORD PTR [edi+8]
	cmp	esi, eax
	je	SHORT $LN26@xmlSearchN
	push	eax
	push	esi
	call	_xmlStrEqual
	add	esp, 8
	test	eax, eax
	je	SHORT $LN5@xmlSearchN
$LN26@xmlSearchN:

; 8402 : 			xmlStrEqual(nsName, ns->href)) {
; 8403 : 			/*
; 8404 : 			* At this point the prefix can only be shadowed,
; 8405 : 			* if we are the the (at least) 3rd level of
; 8406 : 			* ns-decls.
; 8407 : 			*/
; 8408 : 			if (out) {

	cmp	DWORD PTR _out$1$[ebp], 0
	je	SHORT $LN29@xmlSearchN

; 8409 : 			    int ret;
; 8410 : 
; 8411 : 			    ret = xmlNsInScope(doc, node, prev, ns->prefix);

	push	DWORD PTR [edi+12]
	push	ebx
	push	DWORD PTR _node$[ebp]
	push	DWORD PTR _doc$[ebp]
	call	_xmlNsInScope
	add	esp, 16					; 00000010H

; 8412 : 			    if (ret < 0)

	test	eax, eax
	js	SHORT $LN12@xmlSearchN

; 8413 : 				return (-1);
; 8414 : 			    /*
; 8415 : 			    * TODO: Should we try to find a matching ns-name
; 8416 : 			    * only once? This here keeps on searching.
; 8417 : 			    * I think we should try further since, there might
; 8418 : 			    * be an other matching ns-decl with an unshadowed
; 8419 : 			    * prefix.
; 8420 : 			    */
; 8421 : 			    if (! ret)

	je	SHORT $LN5@xmlSearchN
$LN29@xmlSearchN:

; 8422 : 				continue;
; 8423 : 			}
; 8424 : 			*retNs = ns;

	mov	ecx, DWORD PTR _retNs$[ebp]

; 8425 : 			return (1);

	mov	eax, 1
	mov	DWORD PTR [ecx], edi
	pop	edi

; 8436 :     return (0);
; 8437 : }

	pop	esi
	pop	ebx
	mov	esp, ebp
	pop	ebp
	ret	0
$LN52@xmlSearchN:

; 8374 : 		for (ns = cur->nsDef; ns != NULL; ns = ns->next) {

	mov	esi, DWORD PTR _nsName$[ebp]
$LN5@xmlSearchN:
	mov	edi, DWORD PTR [edi]
	test	edi, edi
	jne	$LL7@xmlSearchN

; 8426 : 		    }
; 8427 : 		}
; 8428 : 		out = prev;
; 8429 : 		prev = cur;

	mov	ecx, DWORD PTR _cur$1$[ebp]
	mov	DWORD PTR _out$1$[ebp], ebx
	mov	ebx, ecx

; 8430 : 	    }

	jmp	SHORT $LN30@xmlSearchN
$LN17@xmlSearchN:

; 8431 : 	} else if ((cur->type == XML_ENTITY_NODE) ||

	cmp	eax, 6
	je	SHORT $LN31@xmlSearchN
	cmp	eax, 17					; 00000011H
	je	SHORT $LN31@xmlSearchN
$LN30@xmlSearchN:

; 8432 :             (cur->type == XML_ENTITY_DECL))
; 8433 : 	    return (0);
; 8434 : 	cur = cur->parent;

	mov	ecx, DWORD PTR [ecx+20]
	mov	DWORD PTR _cur$1$[ebp], ecx

; 8435 :     } while ((cur != NULL) && (cur->doc != (xmlDocPtr) cur));

	test	ecx, ecx
	je	SHORT $LN31@xmlSearchN
	cmp	DWORD PTR [ecx+32], ecx
	jne	$LL4@xmlSearchN
$LN31@xmlSearchN:
	pop	edi

; 8436 :     return (0);
; 8437 : }

	pop	esi
	xor	eax, eax
	pop	ebx
	mov	esp, ebp
	pop	ebp
	ret	0
$LN12@xmlSearchN:
	pop	edi
	pop	esi
	or	eax, -1
	pop	ebx
	mov	esp, ebp
	pop	ebp
	ret	0
_xmlSearchNsByNamespaceStrict ENDP
_TEXT	ENDS
; Function compile flags: /Ogtp
; File c:\users\dag\documents\_clients\codeproject authors group\windows on arm\libxml2\libxml2-2.9.9\tree.c
;	COMDAT _xmlDOMWrapNSNormAddNsMapItem2
_TEXT	SEGMENT
_list$ = 8						; size = 4
_size$ = 12						; size = 4
_number$ = 16						; size = 4
_oldNs$ = 20						; size = 4
_newNs$ = 24						; size = 4
_xmlDOMWrapNSNormAddNsMapItem2 PROC			; COMDAT

; 8176 : {

	push	ebp
	mov	ebp, esp
	push	esi
	push	edi
	mov	ecx, OFFSET __59973643_tree@c
	call	@__CheckForDebuggerJustMyCode@4
	mov	edi, DWORD PTR _list$[ebp]
	mov	edx, DWORD PTR [edi]
	test	edx, edx
	jne	SHORT $LN2@xmlDOMWrap

; 8177 :     if (*list == NULL) {
; 8178 : 	*list = (xmlNsPtr *) xmlMalloc(6 * sizeof(xmlNsPtr));

	push	24					; 00000018H
	call	DWORD PTR _xmlMalloc
	add	esp, 4
	mov	DWORD PTR [edi], eax

; 8179 : 	if (*list == NULL) {

	test	eax, eax
	jne	SHORT $LN4@xmlDOMWrap

; 80   :     __xmlSimpleError(XML_FROM_TREE, XML_ERR_NO_MEMORY, NULL, NULL, extra);

	push	OFFSET ??_C@_0BC@OAPAONED@alloc?5ns?5map?5item@
$LN12@xmlDOMWrap:

; 8198 : }

	push	0
	push	0
	push	2
	push	2
	call	___xmlSimpleError
	add	esp, 20					; 00000014H
	or	eax, -1
	pop	edi
	pop	esi
	pop	ebp
	ret	0
$LN4@xmlDOMWrap:

; 8180 : 	    xmlTreeErrMemory("alloc ns map item");
; 8181 : 	    return(-1);
; 8182 : 	}
; 8183 : 	*size = 3;

	mov	eax, DWORD PTR _size$[ebp]

; 8184 : 	*number = 0;

	mov	esi, DWORD PTR _number$[ebp]
	mov	DWORD PTR [eax], 3
	mov	DWORD PTR [esi], 0
	mov	edx, DWORD PTR [edi]
$LN6@xmlDOMWrap:

; 8192 : 	}
; 8193 :     }
; 8194 :     (*list)[2 * (*number)] = oldNs;

	mov	ecx, DWORD PTR [esi]
	mov	eax, DWORD PTR _oldNs$[ebp]
	mov	DWORD PTR [edx+ecx*8], eax

; 8195 :     (*list)[2 * (*number) +1] = newNs;

	mov	edx, DWORD PTR [esi]
	mov	ecx, DWORD PTR [edi]
	mov	eax, DWORD PTR _newNs$[ebp]
	pop	edi
	mov	DWORD PTR [ecx+edx*8+4], eax

; 8196 :     (*number)++;

	inc	DWORD PTR [esi]

; 8197 :     return (0);

	xor	eax, eax

; 8198 : }

	pop	esi
	pop	ebp
	ret	0
$LN2@xmlDOMWrap:

; 8185 :     } else if ((*number) >= (*size)) {

	mov	ecx, DWORD PTR _size$[ebp]
	mov	esi, DWORD PTR _number$[ebp]
	mov	eax, DWORD PTR [ecx]
	cmp	DWORD PTR [esi], eax
	jl	SHORT $LN6@xmlDOMWrap

; 8186 : 	*size *= 2;

	add	eax, eax
	mov	DWORD PTR [ecx], eax

; 8187 : 	*list = (xmlNsPtr *) xmlRealloc(*list,

	shl	eax, 3
	push	eax
	push	DWORD PTR [edi]
	call	DWORD PTR _xmlRealloc
	mov	edx, eax
	add	esp, 8
	mov	DWORD PTR [edi], edx

; 8188 : 	    (*size) * 2 * sizeof(xmlNsPtr));
; 8189 : 	if (*list == NULL) {

	test	edx, edx
	jne	SHORT $LN6@xmlDOMWrap

; 80   :     __xmlSimpleError(XML_FROM_TREE, XML_ERR_NO_MEMORY, NULL, NULL, extra);

	push	OFFSET ??_C@_0BE@NIDEIDLB@realloc?5ns?5map?5item@

; 8190 : 	    xmlTreeErrMemory("realloc ns map item");
; 8191 : 	    return(-1);

	jmp	SHORT $LN12@xmlDOMWrap
_xmlDOMWrapNSNormAddNsMapItem2 ENDP
_TEXT	ENDS
; Function compile flags: /Ogtp
; File c:\users\dag\documents\_clients\codeproject authors group\windows on arm\libxml2\libxml2-2.9.9\tree.c
;	COMDAT _xmlDOMWrapNSNormGatherInScopeNs
_TEXT	SEGMENT
_cur$1$ = -4						; size = 4
_shadowed$1$ = 8					; size = 4
_map$ = 8						; size = 4
_node$ = 12						; size = 4
_xmlDOMWrapNSNormGatherInScopeNs PROC			; COMDAT

; 8083 : {

	push	ebp
	mov	ebp, esp
	push	ecx
	push	ebx
	mov	ecx, OFFSET __59973643_tree@c
	call	@__CheckForDebuggerJustMyCode@4
	mov	ebx, DWORD PTR _map$[ebp]
	test	ebx, ebx
	je	$LN11@xmlDOMWrap

; 8084 :     xmlNodePtr cur;
; 8085 :     xmlNsPtr ns;
; 8086 :     xmlNsMapItemPtr mi;
; 8087 :     int shadowed;
; 8088 : 
; 8089 :     if ((map == NULL) || (*map != NULL))

	cmp	DWORD PTR [ebx], 0
	jne	$LN11@xmlDOMWrap

; 8091 :     if ((node == NULL) || (node->type == XML_NAMESPACE_DECL))

	mov	eax, DWORD PTR _node$[ebp]
	mov	DWORD PTR _cur$1$[ebp], eax
	test	eax, eax
	je	$LN11@xmlDOMWrap
	cmp	DWORD PTR [eax+4], 18			; 00000012H
	je	$LN11@xmlDOMWrap
	push	esi
	push	edi
	npad	3
$LL2@xmlDOMWrap:

; 8092 :         return (-1);
; 8093 :     /*
; 8094 :     * Get in-scope ns-decls of @parent.
; 8095 :     */
; 8096 :     cur = node;
; 8097 :     while ((cur != NULL) && (cur != (xmlNodePtr) cur->doc)) {

	cmp	eax, DWORD PTR [eax+32]
	je	$LN3@xmlDOMWrap

; 8098 : 	if (cur->type == XML_ELEMENT_NODE) {

	cmp	DWORD PTR [eax+4], 1
	jne	$LN5@xmlDOMWrap

; 8099 : 	    if (cur->nsDef != NULL) {

	mov	edi, DWORD PTR [eax+48]
	test	edi, edi
	je	$LN5@xmlDOMWrap
	npad	2
$LL6@xmlDOMWrap:

; 8100 : 		ns = cur->nsDef;
; 8101 : 		do {
; 8102 : 		    shadowed = 0;
; 8103 : 		    if (XML_NSMAP_NOTEMPTY(*map)) {

	mov	esi, DWORD PTR [ebx]
	mov	DWORD PTR _shadowed$1$[ebp], 0
	test	esi, esi
	je	SHORT $LN8@xmlDOMWrap
	mov	esi, DWORD PTR [esi]
	test	esi, esi
	je	SHORT $LN8@xmlDOMWrap
$LL9@xmlDOMWrap:

; 8108 : 			    if ((ns->prefix == mi->newNs->prefix) ||

	mov	eax, DWORD PTR [esi+12]
	mov	ecx, DWORD PTR [edi+12]
	mov	eax, DWORD PTR [eax+12]
	cmp	ecx, eax
	je	SHORT $LN43@xmlDOMWrap
	push	eax
	push	ecx
	call	_xmlStrEqual
	add	esp, 8
	test	eax, eax
	jne	SHORT $LN43@xmlDOMWrap

; 8104 : 			/*
; 8105 : 			* Skip shadowed prefixes.
; 8106 : 			*/
; 8107 : 			XML_NSMAP_FOREACH(*map, mi) {

	mov	esi, DWORD PTR [esi]
	test	esi, esi
	jne	SHORT $LL9@xmlDOMWrap

; 8125 : 		} while (ns != NULL);

	jmp	SHORT $LN8@xmlDOMWrap
$LN43@xmlDOMWrap:

; 8109 : 				xmlStrEqual(ns->prefix, mi->newNs->prefix)) {
; 8110 : 				shadowed = 1;

	mov	DWORD PTR _shadowed$1$[ebp], 1
$LN8@xmlDOMWrap:

; 7892 :     map = *nsmap;

	mov	esi, DWORD PTR [ebx]

; 7893 : 
; 7894 :     if (map == NULL) {

	test	esi, esi
	jne	SHORT $LN25@xmlDOMWrap

; 7895 : 	/*
; 7896 : 	* Create the ns-map.
; 7897 : 	*/
; 7898 : 	map = (xmlNsMapPtr) xmlMalloc(sizeof(struct xmlNsMap));

	push	12					; 0000000cH
	call	DWORD PTR _xmlMalloc
	mov	esi, eax
	add	esp, 4

; 7899 : 	if (map == NULL) {

	test	esi, esi
	je	$LN53@xmlDOMWrap
	xorps	xmm0, xmm0

; 7902 : 	}
; 7903 : 	memset(map, 0, sizeof(struct xmlNsMap));

	movq	QWORD PTR [esi], xmm0
	mov	DWORD PTR [esi+8], 0

; 7904 : 	*nsmap = map;

	mov	DWORD PTR [ebx], esi
$LN25@xmlDOMWrap:

; 7905 :     }
; 7906 : 
; 7907 :     if (map->pool != NULL) {

	mov	ecx, DWORD PTR [esi+8]
	test	ecx, ecx
	je	SHORT $LN27@xmlDOMWrap

; 7908 : 	/*
; 7909 : 	* Reuse an item from the pool.
; 7910 : 	*/
; 7911 : 	ret = map->pool;
; 7912 : 	map->pool = ret->next;

	mov	eax, DWORD PTR [ecx]
	mov	DWORD PTR [esi+8], eax

; 7913 : 	memset(ret, 0, sizeof(struct xmlNsMapItem));
; 7914 :     } else {

	jmp	SHORT $LN61@xmlDOMWrap
$LN27@xmlDOMWrap:

; 7915 : 	/*
; 7916 : 	* Create a new item.
; 7917 : 	*/
; 7918 : 	ret = (xmlNsMapItemPtr) xmlMalloc(sizeof(struct xmlNsMapItem));

	push	24					; 00000018H
	call	DWORD PTR _xmlMalloc
	mov	ecx, eax
	add	esp, 4

; 7919 : 	if (ret == NULL) {

	test	ecx, ecx
	je	SHORT $LN54@xmlDOMWrap
$LN61@xmlDOMWrap:

; 7920 : 	    xmlTreeErrMemory("allocating namespace map item");
; 7921 : 	    return (NULL);
; 7922 : 	}
; 7923 : 	memset(ret, 0, sizeof(struct xmlNsMapItem));
; 7924 :     }
; 7925 : 
; 7926 :     if (map->first == NULL) {

	xorps	xmm0, xmm0
	movups	XMMWORD PTR [ecx], xmm0
	movq	QWORD PTR [ecx+16], xmm0
	mov	eax, DWORD PTR [esi]
	test	eax, eax
	jne	SHORT $LN30@xmlDOMWrap

; 7927 : 	/*
; 7928 : 	* First ever.
; 7929 : 	*/
; 7930 : 	map->first = ret;
; 7931 : 	map->last = ret;

	mov	DWORD PTR [esi+4], ecx
	jmp	SHORT $LN34@xmlDOMWrap
$LN30@xmlDOMWrap:

; 7932 :     } else if (position == -1) {
; 7933 : 	/*
; 7934 : 	* Append.
; 7935 : 	*/
; 7936 : 	ret->prev = map->last;
; 7937 : 	map->last->next = ret;
; 7938 : 	map->last = ret;
; 7939 :     } else if (position == 0) {
; 7940 : 	/*
; 7941 : 	* Set on first position.
; 7942 : 	*/
; 7943 : 	map->first->prev = ret;

	mov	DWORD PTR [eax+4], ecx

; 7944 : 	ret->next = map->first;

	mov	eax, DWORD PTR [esi]
	mov	DWORD PTR [ecx], eax
$LN34@xmlDOMWrap:

; 7950 :     ret->shadowDepth = -1;

	or	eax, -1
	mov	DWORD PTR [esi], ecx

; 8122 : 		    if (shadowed)

	xor	edx, edx

; 7951 :     ret->depth = depth;

	mov	DWORD PTR [ecx+20], eax

; 8122 : 		    if (shadowed)

	cmp	DWORD PTR _shadowed$1$[ebp], edx

; 7948 :     ret->oldNs = oldNs;

	mov	DWORD PTR [ecx+8], 0

; 8122 : 		    if (shadowed)

	cmovne	eax, edx

; 7949 :     ret->newNs = newNs;

	mov	DWORD PTR [ecx+12], edi

; 8122 : 		    if (shadowed)

	mov	DWORD PTR [ecx+16], eax

; 8123 : 			mi->shadowDepth = 0;
; 8124 : 		    ns = ns->next;

	mov	edi, DWORD PTR [edi]

; 8125 : 		} while (ns != NULL);

	test	edi, edi
	jne	$LL6@xmlDOMWrap
	mov	eax, DWORD PTR _cur$1$[ebp]
$LN5@xmlDOMWrap:

; 8126 : 	    }
; 8127 : 	}
; 8128 : 	cur = cur->parent;

	mov	eax, DWORD PTR [eax+20]
	mov	DWORD PTR _cur$1$[ebp], eax
	test	eax, eax
	jne	$LL2@xmlDOMWrap
$LN3@xmlDOMWrap:
	pop	edi
	pop	esi

; 8129 :     }
; 8130 :     return (0);

	xor	eax, eax
	pop	ebx

; 8131 : }

	mov	esp, ebp
	pop	ebp
	ret	0
$LN53@xmlDOMWrap:

; 80   :     __xmlSimpleError(XML_FROM_TREE, XML_ERR_NO_MEMORY, NULL, NULL, extra);

	mov	eax, OFFSET ??_C@_0BJ@JOLPDGAP@allocating?5namespace?5map@

; 7901 : 	    return (NULL);

	jmp	SHORT $LN44@xmlDOMWrap
$LN54@xmlDOMWrap:

; 80   :     __xmlSimpleError(XML_FROM_TREE, XML_ERR_NO_MEMORY, NULL, NULL, extra);

	mov	eax, OFFSET ??_C@_0BO@JPEMBFPF@allocating?5namespace?5map?5item@
$LN44@xmlDOMWrap:

; 8111 : 				break;
; 8112 : 			    }
; 8113 : 			}
; 8114 : 		    }
; 8115 : 		    /*
; 8116 : 		    * Insert mapping.
; 8117 : 		    */
; 8118 : 		    mi = xmlDOMWrapNsMapAddItem(map, 0, NULL,
; 8119 : 			ns, XML_TREE_NSMAP_PARENT);
; 8120 : 		    if (mi == NULL)
; 8121 : 			return (-1);

	push	eax
	push	0
	push	0
	push	2
	push	2
	call	___xmlSimpleError
	add	esp, 20					; 00000014H
	or	eax, -1
	pop	edi
	pop	esi
	pop	ebx

; 8131 : }

	mov	esp, ebp
	pop	ebp
	ret	0
$LN11@xmlDOMWrap:

; 8090 : 	return (-1);

	or	eax, -1
	pop	ebx

; 8131 : }

	mov	esp, ebp
	pop	ebp
	ret	0
_xmlDOMWrapNSNormGatherInScopeNs ENDP
_TEXT	ENDS
; Function compile flags: /Ogtp
; File c:\users\dag\documents\_clients\codeproject authors group\windows on arm\libxml2\libxml2-2.9.9\tree.c
;	COMDAT _xmlTreeNSListLookupByPrefix
_TEXT	SEGMENT
_nsList$ = 8						; size = 4
_prefix$ = 12						; size = 4
_xmlTreeNSListLookupByPrefix PROC			; COMDAT

; 8053 : {

	push	ebp
	mov	ebp, esp
	push	esi
	mov	ecx, OFFSET __59973643_tree@c
	call	@__CheckForDebuggerJustMyCode@4
	mov	esi, DWORD PTR _nsList$[ebp]
	test	esi, esi
	jne	SHORT $LN5@xmlTreeNSL

; 8054 :     if (nsList == NULL)
; 8055 : 	return (NULL);

	xor	eax, eax
	pop	esi

; 8066 :     }
; 8067 :     return (NULL);
; 8068 : }

	pop	ebp
	ret	0
$LN5@xmlTreeNSL:
	push	edi

; 8056 :     {
; 8057 : 	xmlNsPtr ns;
; 8058 : 	ns = nsList;

	mov	edi, DWORD PTR _prefix$[ebp]
	npad	2
$LL4@xmlTreeNSL:

; 8059 : 	do {
; 8060 : 	    if ((prefix == ns->prefix) ||

	mov	eax, DWORD PTR [esi+12]
	cmp	edi, eax
	je	SHORT $LN7@xmlTreeNSL
	push	eax
	push	edi
	call	_xmlStrEqual
	add	esp, 8
	test	eax, eax
	jne	SHORT $LN7@xmlTreeNSL

; 8063 : 	    }
; 8064 : 	    ns = ns->next;

	mov	esi, DWORD PTR [esi]

; 8065 : 	} while (ns != NULL);

	test	esi, esi
	jne	SHORT $LL4@xmlTreeNSL
	pop	edi
	pop	esi

; 8066 :     }
; 8067 :     return (NULL);
; 8068 : }

	pop	ebp
	ret	0
$LN7@xmlTreeNSL:
	pop	edi

; 8061 : 		xmlStrEqual(prefix, ns->prefix)) {
; 8062 : 		return (ns);

	mov	eax, esi
	pop	esi

; 8066 :     }
; 8067 :     return (NULL);
; 8068 : }

	pop	ebp
	ret	0
_xmlTreeNSListLookupByPrefix ENDP
_TEXT	ENDS
; Function compile flags: /Ogtp
; File c:\users\dag\documents\_clients\codeproject authors group\windows on arm\libxml2\libxml2-2.9.9\tree.c
;	COMDAT _xmlDOMWrapStoreNs
_TEXT	SEGMENT
_doc$ = 8						; size = 4
_nsName$ = 12						; size = 4
_prefix$ = 16						; size = 4
_xmlDOMWrapStoreNs PROC					; COMDAT

; 7971 : {

	push	ebp
	mov	ebp, esp
	push	ebx
	push	esi
	push	edi
	mov	ecx, OFFSET __59973643_tree@c
	call	@__CheckForDebuggerJustMyCode@4
	mov	eax, DWORD PTR _doc$[ebp]
	test	eax, eax
	je	SHORT $LN10@xmlDOMWrap

; 7972 :     xmlNsPtr ns;
; 7973 : 
; 7974 :     if (doc == NULL)
; 7975 : 	return (NULL);
; 7976 :     ns = xmlTreeEnsureXMLDecl(doc);

	push	eax
	call	_xmlTreeEnsureXMLDecl
	mov	esi, eax
	add	esp, 4

; 7977 :     if (ns == NULL)

	test	esi, esi
	je	SHORT $LN10@xmlDOMWrap

; 7978 : 	return (NULL);
; 7979 :     if (ns->next != NULL) {

	mov	eax, DWORD PTR [esi]
	mov	edi, DWORD PTR _prefix$[ebp]
	mov	ebx, DWORD PTR _nsName$[ebp]
	test	eax, eax
	je	SHORT $LN14@xmlDOMWrap

; 7980 : 	/* Reuse. */
; 7981 : 	ns = ns->next;

	mov	esi, eax

; 7982 : 	while (ns != NULL) {

	test	esi, esi
	je	SHORT $LN10@xmlDOMWrap
$LL2@xmlDOMWrap:

; 7983 : 	    if (((ns->prefix == prefix) ||
; 7984 : 		xmlStrEqual(ns->prefix, prefix)) &&

	mov	eax, DWORD PTR [esi+12]
	cmp	eax, edi
	je	SHORT $LN8@xmlDOMWrap
	push	edi
	push	eax
	call	_xmlStrEqual
	add	esp, 8
	test	eax, eax
	je	SHORT $LN7@xmlDOMWrap
$LN8@xmlDOMWrap:
	push	ebx
	push	DWORD PTR [esi+8]
	call	_xmlStrEqual
	add	esp, 8
	test	eax, eax
	jne	SHORT $LN13@xmlDOMWrap
$LN7@xmlDOMWrap:

; 7987 : 	    }
; 7988 : 	    if (ns->next == NULL)

	mov	eax, DWORD PTR [esi]
	test	eax, eax
	je	SHORT $LN14@xmlDOMWrap

; 7989 : 		break;
; 7990 : 	    ns = ns->next;

	mov	esi, eax
	test	esi, esi
	jne	SHORT $LL2@xmlDOMWrap
$LN10@xmlDOMWrap:
	pop	edi

; 7996 :         return (ns->next);
; 7997 :     }
; 7998 :     return(NULL);
; 7999 : }

	pop	esi
	xor	eax, eax
	pop	ebx
	pop	ebp
	ret	0
$LN13@xmlDOMWrap:
	pop	edi

; 7985 : 		xmlStrEqual(ns->href, nsName)) {
; 7986 : 		return (ns);

	mov	eax, esi

; 7996 :         return (ns->next);
; 7997 :     }
; 7998 :     return(NULL);
; 7999 : }

	pop	esi
	pop	ebx
	pop	ebp
	ret	0
$LN14@xmlDOMWrap:

; 7991 : 	}
; 7992 :     }
; 7993 :     /* Create. */
; 7994 :     if (ns != NULL) {
; 7995 :         ns->next = xmlNewNs(NULL, nsName, prefix);

	push	edi
	push	ebx
	push	0
	call	_xmlNewNs
	add	esp, 12					; 0000000cH
	mov	DWORD PTR [esi], eax
	pop	edi

; 7996 :         return (ns->next);
; 7997 :     }
; 7998 :     return(NULL);
; 7999 : }

	pop	esi
	pop	ebx
	pop	ebp
	ret	0
_xmlDOMWrapStoreNs ENDP
_TEXT	ENDS
; Function compile flags: /Ogtp
; File c:\users\dag\documents\_clients\codeproject authors group\windows on arm\libxml2\libxml2-2.9.9\tree.c
;	COMDAT _xmlDOMWrapNsMapAddItem
_TEXT	SEGMENT
_nsmap$ = 8						; size = 4
_position$ = 12						; size = 4
_oldNs$ = 16						; size = 4
_newNs$ = 20						; size = 4
_depth$ = 24						; size = 4
_xmlDOMWrapNsMapAddItem PROC				; COMDAT

; 7884 : {

	push	ebp
	mov	ebp, esp
	push	ebx
	push	edi
	mov	ecx, OFFSET __59973643_tree@c
	call	@__CheckForDebuggerJustMyCode@4
	mov	ebx, DWORD PTR _nsmap$[ebp]
	test	ebx, ebx
	je	$LN19@xmlDOMWrap

; 7885 :     xmlNsMapItemPtr ret;
; 7886 :     xmlNsMapPtr map;
; 7887 : 
; 7888 :     if (nsmap == NULL)
; 7889 : 	return(NULL);
; 7890 :     if ((position != -1) && (position != 0))

	mov	edi, DWORD PTR _position$[ebp]
	cmp	edi, -1
	je	SHORT $LN3@xmlDOMWrap
	test	edi, edi
	jne	$LN19@xmlDOMWrap
$LN3@xmlDOMWrap:
	push	esi

; 7892 :     map = *nsmap;

	mov	esi, DWORD PTR [ebx]

; 7893 : 
; 7894 :     if (map == NULL) {

	test	esi, esi
	jne	SHORT $LN4@xmlDOMWrap

; 7895 : 	/*
; 7896 : 	* Create the ns-map.
; 7897 : 	*/
; 7898 : 	map = (xmlNsMapPtr) xmlMalloc(sizeof(struct xmlNsMap));

	push	12					; 0000000cH
	call	DWORD PTR _xmlMalloc
	mov	esi, eax
	add	esp, 4

; 7899 : 	if (map == NULL) {

	test	esi, esi
	jne	SHORT $LN5@xmlDOMWrap

; 80   :     __xmlSimpleError(XML_FROM_TREE, XML_ERR_NO_MEMORY, NULL, NULL, extra);

	push	OFFSET ??_C@_0BJ@JOLPDGAP@allocating?5namespace?5map@

; 7900 : 	    xmlTreeErrMemory("allocating namespace map");
; 7901 : 	    return (NULL);

	jmp	SHORT $LN22@xmlDOMWrap
$LN5@xmlDOMWrap:
	xorps	xmm0, xmm0

; 7902 : 	}
; 7903 : 	memset(map, 0, sizeof(struct xmlNsMap));

	movq	QWORD PTR [esi], xmm0
	mov	DWORD PTR [esi+8], 0

; 7904 : 	*nsmap = map;

	mov	DWORD PTR [ebx], esi
$LN4@xmlDOMWrap:

; 7905 :     }
; 7906 : 
; 7907 :     if (map->pool != NULL) {

	mov	ecx, DWORD PTR [esi+8]
	test	ecx, ecx
	je	SHORT $LN6@xmlDOMWrap

; 7908 : 	/*
; 7909 : 	* Reuse an item from the pool.
; 7910 : 	*/
; 7911 : 	ret = map->pool;
; 7912 : 	map->pool = ret->next;

	mov	eax, DWORD PTR [ecx]
	mov	DWORD PTR [esi+8], eax
$LN8@xmlDOMWrap:

; 7922 : 	}
; 7923 : 	memset(ret, 0, sizeof(struct xmlNsMapItem));
; 7924 :     }
; 7925 : 
; 7926 :     if (map->first == NULL) {

	xorps	xmm0, xmm0
	movups	XMMWORD PTR [ecx], xmm0
	movq	QWORD PTR [ecx+16], xmm0
	mov	eax, DWORD PTR [esi]
	test	eax, eax
	jne	SHORT $LN9@xmlDOMWrap

; 7927 : 	/*
; 7928 : 	* First ever.
; 7929 : 	*/
; 7930 : 	map->first = ret;
; 7931 : 	map->last = ret;

	mov	DWORD PTR [esi+4], ecx
	jmp	SHORT $LN21@xmlDOMWrap
$LN6@xmlDOMWrap:

; 7913 : 	memset(ret, 0, sizeof(struct xmlNsMapItem));
; 7914 :     } else {
; 7915 : 	/*
; 7916 : 	* Create a new item.
; 7917 : 	*/
; 7918 : 	ret = (xmlNsMapItemPtr) xmlMalloc(sizeof(struct xmlNsMapItem));

	push	24					; 00000018H
	call	DWORD PTR _xmlMalloc
	mov	ecx, eax
	add	esp, 4

; 7919 : 	if (ret == NULL) {

	test	ecx, ecx
	jne	SHORT $LN8@xmlDOMWrap

; 80   :     __xmlSimpleError(XML_FROM_TREE, XML_ERR_NO_MEMORY, NULL, NULL, extra);

	push	OFFSET ??_C@_0BO@JPEMBFPF@allocating?5namespace?5map?5item@
$LN22@xmlDOMWrap:
	push	0
	push	0
	push	2
	push	2
	call	___xmlSimpleError
	add	esp, 20					; 00000014H

; 7920 : 	    xmlTreeErrMemory("allocating namespace map item");
; 7921 : 	    return (NULL);

	xor	eax, eax
	pop	esi
	pop	edi

; 7953 : }

	pop	ebx
	pop	ebp
	ret	0
$LN9@xmlDOMWrap:

; 7932 :     } else if (position == -1) {

	cmp	edi, -1
	jne	SHORT $LN11@xmlDOMWrap

; 7933 : 	/*
; 7934 : 	* Append.
; 7935 : 	*/
; 7936 : 	ret->prev = map->last;

	mov	eax, DWORD PTR [esi+4]
	mov	DWORD PTR [ecx+4], eax

; 7937 : 	map->last->next = ret;

	mov	eax, DWORD PTR [esi+4]
	mov	DWORD PTR [eax], ecx

; 7938 : 	map->last = ret;

	mov	DWORD PTR [esi+4], ecx
	jmp	SHORT $LN13@xmlDOMWrap
$LN11@xmlDOMWrap:

; 7939 :     } else if (position == 0) {

	test	edi, edi
	jne	SHORT $LN13@xmlDOMWrap

; 7940 : 	/*
; 7941 : 	* Set on first position.
; 7942 : 	*/
; 7943 : 	map->first->prev = ret;

	mov	DWORD PTR [eax+4], ecx

; 7944 : 	ret->next = map->first;

	mov	eax, DWORD PTR [esi]
	mov	DWORD PTR [ecx], eax
$LN21@xmlDOMWrap:

; 7945 : 	map->first = ret;
; 7946 :     }
; 7947 : 
; 7948 :     ret->oldNs = oldNs;

	mov	DWORD PTR [esi], ecx
$LN13@xmlDOMWrap:
	mov	eax, DWORD PTR _oldNs$[ebp]
	mov	DWORD PTR [ecx+8], eax

; 7949 :     ret->newNs = newNs;

	mov	eax, DWORD PTR _newNs$[ebp]
	pop	esi
	mov	DWORD PTR [ecx+12], eax

; 7950 :     ret->shadowDepth = -1;
; 7951 :     ret->depth = depth;

	mov	eax, DWORD PTR _depth$[ebp]
	pop	edi
	mov	DWORD PTR [ecx+20], eax

; 7952 :     return (ret);

	mov	eax, ecx
	mov	DWORD PTR [ecx+16], -1

; 7953 : }

	pop	ebx
	pop	ebp
	ret	0
$LN19@xmlDOMWrap:
	pop	edi

; 7891 : 	return(NULL);

	xor	eax, eax

; 7953 : }

	pop	ebx
	pop	ebp
	ret	0
_xmlDOMWrapNsMapAddItem ENDP
_TEXT	ENDS
; Function compile flags: /Ogtp
; File c:\users\dag\documents\_clients\codeproject authors group\windows on arm\libxml2\libxml2-2.9.9\tree.c
;	COMDAT _xmlDOMWrapNsMapFree
_TEXT	SEGMENT
_nsmap$ = 8						; size = 4
_xmlDOMWrapNsMapFree PROC				; COMDAT

; 7852 : {

	push	ebp
	mov	ebp, esp
	push	edi
	mov	ecx, OFFSET __59973643_tree@c
	call	@__CheckForDebuggerJustMyCode@4
	mov	edi, DWORD PTR _nsmap$[ebp]
	test	edi, edi
	je	SHORT $LN1@xmlDOMWrap

; 7853 :     xmlNsMapItemPtr cur, tmp;
; 7854 : 
; 7855 :     if (nsmap == NULL)
; 7856 : 	return;
; 7857 :     cur = nsmap->pool;

	push	esi
	mov	esi, DWORD PTR [edi+8]

; 7858 :     while (cur != NULL) {

	test	esi, esi
	je	SHORT $LN3@xmlDOMWrap
	npad	3
$LL2@xmlDOMWrap:

; 7859 : 	tmp = cur;
; 7860 : 	cur = cur->next;
; 7861 : 	xmlFree(tmp);

	push	esi
	mov	esi, DWORD PTR [esi]
	call	DWORD PTR _xmlFree
	add	esp, 4
	test	esi, esi
	jne	SHORT $LL2@xmlDOMWrap
$LN3@xmlDOMWrap:

; 7862 :     }
; 7863 :     cur = nsmap->first;

	mov	esi, DWORD PTR [edi]

; 7864 :     while (cur != NULL) {

	test	esi, esi
	je	SHORT $LN5@xmlDOMWrap
$LL4@xmlDOMWrap:

; 7865 : 	tmp = cur;
; 7866 : 	cur = cur->next;
; 7867 : 	xmlFree(tmp);

	push	esi
	mov	esi, DWORD PTR [esi]
	call	DWORD PTR _xmlFree
	add	esp, 4
	test	esi, esi
	jne	SHORT $LL4@xmlDOMWrap
$LN5@xmlDOMWrap:

; 7868 :     }
; 7869 :     xmlFree(nsmap);

	push	edi
	call	DWORD PTR _xmlFree
	add	esp, 4
	pop	esi
$LN1@xmlDOMWrap:
	pop	edi

; 7870 : }

	pop	ebp
	ret	0
_xmlDOMWrapNsMapFree ENDP
_TEXT	ENDS
; Function compile flags: /Ogtp
; File c:\users\dag\documents\_clients\codeproject authors group\windows on arm\libxml2\libxml2-2.9.9\tree.c
;	COMDAT _xmlGetPropNodeInternal
_TEXT	SEGMENT
_tmpstr$3$ = -12					; size = 4
_elemQName$1$ = -8					; size = 4
_doc$1$ = -4						; size = 4
_nsList$1$ = 8						; size = 4
_node$ = 8						; size = 4
_name$ = 12						; size = 4
_nsName$ = 16						; size = 4
_useDTD$ = 20						; size = 4
_xmlGetPropNodeInternal PROC				; COMDAT

; 6483 : {

	push	ebp
	mov	ebp, esp
	sub	esp, 12					; 0000000cH
	mov	ecx, OFFSET __59973643_tree@c
	push	ebx
	push	esi
	push	edi
	call	@__CheckForDebuggerJustMyCode@4
	mov	ecx, DWORD PTR _node$[ebp]
	test	ecx, ecx
	je	$LN11@xmlGetProp

; 6484 :     xmlAttrPtr prop;
; 6485 : 
; 6486 :     if ((node == NULL) || (node->type != XML_ELEMENT_NODE) || (name == NULL))

	cmp	DWORD PTR [ecx+4], 1
	jne	$LN11@xmlGetProp
	mov	edi, DWORD PTR _name$[ebp]
	test	edi, edi
	je	$LN11@xmlGetProp

; 6487 : 	return(NULL);
; 6488 : 
; 6489 :     if (node->properties != NULL) {

	mov	esi, DWORD PTR [ecx+44]
	mov	ebx, DWORD PTR _nsName$[ebp]
	test	esi, esi
	je	SHORT $LN6@xmlGetProp

; 6490 : 	prop = node->properties;
; 6491 : 	if (nsName == NULL) {

	test	ebx, ebx
	jne	SHORT $LL7@xmlGetProp
$LL4@xmlGetProp:

; 6492 : 	    /*
; 6493 : 	    * We want the attr to be in no namespace.
; 6494 : 	    */
; 6495 : 	    do {
; 6496 : 		if ((prop->ns == NULL) && xmlStrEqual(prop->name, name)) {

	cmp	DWORD PTR [esi+36], 0
	jne	SHORT $LN15@xmlGetProp
	push	edi
	push	DWORD PTR [esi+8]
	call	_xmlStrEqual
	add	esp, 8
	test	eax, eax
	jne	SHORT $LN38@xmlGetProp
$LN15@xmlGetProp:

; 6497 : 		    return(prop);
; 6498 : 		}
; 6499 : 		prop = prop->next;

	mov	esi, DWORD PTR [esi+24]

; 6500 : 	    } while (prop != NULL);

	test	esi, esi
	jne	SHORT $LL4@xmlGetProp
	jmp	SHORT $LN65@xmlGetProp
$LN38@xmlGetProp:
	pop	edi

; 6588 : 	    return((xmlAttrPtr) attrDecl);
; 6589 :     }
; 6590 : #endif /* LIBXML_TREE_ENABLED */
; 6591 :     return(NULL);
; 6592 : }

	mov	eax, esi
	pop	esi
	pop	ebx
	mov	esp, ebp
	pop	ebp
	ret	0
	npad	7
$LL7@xmlGetProp:

; 6501 : 	} else {
; 6502 : 	    /*
; 6503 : 	    * We want the attr to be in the specified namespace.
; 6504 : 	    */
; 6505 : 	    do {
; 6506 : 		if ((prop->ns != NULL) && xmlStrEqual(prop->name, name) &&

	cmp	DWORD PTR [esi+36], 0
	je	SHORT $LN16@xmlGetProp
	push	edi
	push	DWORD PTR [esi+8]
	call	_xmlStrEqual
	add	esp, 8
	test	eax, eax
	je	SHORT $LN16@xmlGetProp
	mov	eax, DWORD PTR [esi+36]
	mov	eax, DWORD PTR [eax+8]
	cmp	eax, ebx
	je	SHORT $LN38@xmlGetProp
	push	ebx
	push	eax
	call	_xmlStrEqual
	add	esp, 8
	test	eax, eax
	jne	SHORT $LN38@xmlGetProp
$LN16@xmlGetProp:

; 6507 : 		    ((prop->ns->href == nsName) ||
; 6508 : 		     xmlStrEqual(prop->ns->href, nsName)))
; 6509 : 		{
; 6510 : 		    return(prop);
; 6511 : 		}
; 6512 : 		prop = prop->next;

	mov	esi, DWORD PTR [esi+24]

; 6513 : 	    } while (prop != NULL);

	test	esi, esi
	jne	SHORT $LL7@xmlGetProp
$LN65@xmlGetProp:

; 6514 : 	}
; 6515 :     }
; 6516 : 
; 6517 : #ifdef LIBXML_TREE_ENABLED
; 6518 :     if (! useDTD)

	mov	ecx, DWORD PTR _node$[ebp]
$LN6@xmlGetProp:
	cmp	DWORD PTR _useDTD$[ebp], 0
	je	$LN11@xmlGetProp

; 6519 : 	return(NULL);
; 6520 :     /*
; 6521 :      * Check if there is a default/fixed attribute declaration in
; 6522 :      * the internal or external subset.
; 6523 :      */
; 6524 :     if ((node->doc != NULL) && (node->doc->intSubset != NULL)) {

	mov	eax, DWORD PTR [ecx+32]
	mov	DWORD PTR _doc$1$[ebp], eax
	test	eax, eax
	je	$LN11@xmlGetProp
	cmp	DWORD PTR [eax+44], 0
	je	$LN11@xmlGetProp

; 6525 : 	xmlDocPtr doc = node->doc;
; 6526 : 	xmlAttributePtr attrDecl = NULL;
; 6527 : 	xmlChar *elemQName, *tmpstr = NULL;
; 6528 : 
; 6529 : 	/*
; 6530 : 	* We need the QName of the element for the DTD-lookup.
; 6531 : 	*/
; 6532 : 	if ((node->ns != NULL) && (node->ns->prefix != NULL)) {

	mov	edx, DWORD PTR [ecx+36]
	xor	esi, esi
	mov	DWORD PTR _tmpstr$3$[ebp], esi
	test	edx, edx
	je	SHORT $LN20@xmlGetProp
	mov	edx, DWORD PTR [edx+12]
	test	edx, edx
	je	SHORT $LN20@xmlGetProp

; 6533 : 	    tmpstr = xmlStrdup(node->ns->prefix);

	push	edx
	call	_xmlStrdup

; 6534 : 	    tmpstr = xmlStrcat(tmpstr, BAD_CAST ":");

	push	OFFSET ??_C@_01JLIPDDHJ@?3@
	push	eax
	call	_xmlStrcat

; 6535 : 	    tmpstr = xmlStrcat(tmpstr, node->name);

	mov	ecx, DWORD PTR _node$[ebp]
	push	DWORD PTR [ecx+8]
	push	eax
	call	_xmlStrcat
	add	esp, 20					; 00000014H
	mov	DWORD PTR _tmpstr$3$[ebp], eax

; 6536 : 	    if (tmpstr == NULL)

	test	eax, eax
	je	$LN11@xmlGetProp

; 6537 : 		return(NULL);
; 6538 : 	    elemQName = tmpstr;
; 6539 : 	} else

	mov	ecx, DWORD PTR _node$[ebp]
	mov	edx, eax
	mov	DWORD PTR _elemQName$1$[ebp], eax
	mov	eax, DWORD PTR _doc$1$[ebp]
	jmp	SHORT $LN21@xmlGetProp
$LN20@xmlGetProp:

; 6540 : 	    elemQName = (xmlChar *) node->name;

	mov	edx, DWORD PTR [ecx+8]
	mov	DWORD PTR _elemQName$1$[ebp], edx
$LN21@xmlGetProp:

; 6541 : 	if (nsName == NULL) {

	test	ebx, ebx
	jne	SHORT $LN23@xmlGetProp

; 6542 : 	    /*
; 6543 : 	    * The common and nice case: Attr in no namespace.
; 6544 : 	    */
; 6545 : 	    attrDecl = xmlGetDtdQAttrDesc(doc->intSubset,

	push	ebx
	push	edi
	push	edx
	push	DWORD PTR [eax+44]
	call	_xmlGetDtdQAttrDesc
	mov	esi, eax
	add	esp, 16					; 00000010H

; 6546 : 		elemQName, name, NULL);
; 6547 : 	    if ((attrDecl == NULL) && (doc->extSubset != NULL)) {

	test	esi, esi
	jne	$LN24@xmlGetProp
	mov	eax, DWORD PTR _doc$1$[ebp]
	mov	eax, DWORD PTR [eax+48]
	test	eax, eax
	je	$LN24@xmlGetProp

; 6548 : 		attrDecl = xmlGetDtdQAttrDesc(doc->extSubset,

	push	esi
	push	edi
	push	DWORD PTR _elemQName$1$[ebp]
	push	eax
	call	_xmlGetDtdQAttrDesc
	add	esp, 16					; 00000010H
	mov	esi, eax

; 6549 : 		    elemQName, name, NULL);
; 6550 : 	    }
; 6551 : 	} else {

	jmp	$LN24@xmlGetProp
$LN23@xmlGetProp:

; 6552 : 	    xmlNsPtr *nsList, *cur;
; 6553 : 
; 6554 : 	    /*
; 6555 : 	    * The ugly case: Search using the prefixes of in-scope
; 6556 : 	    * ns-decls corresponding to @nsName.
; 6557 : 	    */
; 6558 : 	    nsList = xmlGetNsList(node->doc, node);

	push	ecx
	push	DWORD PTR [ecx+32]
	call	_xmlGetNsList
	add	esp, 8
	mov	DWORD PTR _nsList$1$[ebp], eax

; 6559 : 	    if (nsList == NULL) {

	test	eax, eax
	jne	SHORT $LN26@xmlGetProp

; 6560 : 		if (tmpstr != NULL)

	mov	eax, DWORD PTR _tmpstr$3$[ebp]
	test	eax, eax
	je	$LN11@xmlGetProp

; 6561 : 		    xmlFree(tmpstr);

	push	eax
	call	DWORD PTR _xmlFree
	add	esp, 4
	xor	eax, eax
	pop	edi

; 6588 : 	    return((xmlAttrPtr) attrDecl);
; 6589 :     }
; 6590 : #endif /* LIBXML_TREE_ENABLED */
; 6591 :     return(NULL);
; 6592 : }

	pop	esi
	pop	ebx
	mov	esp, ebp
	pop	ebp
	ret	0
$LN26@xmlGetProp:

; 6562 : 		return(NULL);
; 6563 : 	    }
; 6564 : 	    cur = nsList;

	mov	ebx, eax

; 6565 : 	    while (*cur != NULL) {

	mov	eax, DWORD PTR [eax]
	test	eax, eax
	je	SHORT $LN63@xmlGetProp
$LL8@xmlGetProp:

; 6566 : 		if (xmlStrEqual((*cur)->href, nsName)) {

	push	DWORD PTR _nsName$[ebp]
	push	DWORD PTR [eax+8]
	call	_xmlStrEqual
	add	esp, 8
	test	eax, eax
	je	SHORT $LN31@xmlGetProp

; 6567 : 		    attrDecl = xmlGetDtdQAttrDesc(doc->intSubset, elemQName,

	mov	eax, DWORD PTR [ebx]
	push	DWORD PTR [eax+12]
	mov	eax, DWORD PTR _doc$1$[ebp]
	push	edi
	push	DWORD PTR _elemQName$1$[ebp]
	push	DWORD PTR [eax+44]
	call	_xmlGetDtdQAttrDesc
	mov	esi, eax
	add	esp, 16					; 00000010H

; 6568 : 			name, (*cur)->prefix);
; 6569 : 		    if (attrDecl)

	test	esi, esi
	jne	SHORT $LN63@xmlGetProp

; 6570 : 			break;
; 6571 : 		    if (doc->extSubset != NULL) {

	mov	eax, DWORD PTR _doc$1$[ebp]
	mov	ecx, DWORD PTR [eax+48]
	test	ecx, ecx
	je	SHORT $LN31@xmlGetProp

; 6572 : 			attrDecl = xmlGetDtdQAttrDesc(doc->extSubset, elemQName,

	mov	eax, DWORD PTR [ebx]
	push	DWORD PTR [eax+12]
	push	edi
	push	DWORD PTR _elemQName$1$[ebp]
	push	ecx
	call	_xmlGetDtdQAttrDesc
	mov	esi, eax
	add	esp, 16					; 00000010H

; 6573 : 			    name, (*cur)->prefix);
; 6574 : 			if (attrDecl)

	test	esi, esi
	jne	SHORT $LN63@xmlGetProp
$LN31@xmlGetProp:

; 6565 : 	    while (*cur != NULL) {

	mov	eax, DWORD PTR [ebx+4]

; 6575 : 			    break;
; 6576 : 		    }
; 6577 : 		}
; 6578 : 		cur++;

	add	ebx, 4
	test	eax, eax
	jne	SHORT $LL8@xmlGetProp
$LN63@xmlGetProp:

; 6579 : 	    }
; 6580 : 	    xmlFree(nsList);

	push	DWORD PTR _nsList$1$[ebp]
	call	DWORD PTR _xmlFree
	add	esp, 4
$LN24@xmlGetProp:

; 6581 : 	}
; 6582 : 	if (tmpstr != NULL)

	mov	eax, DWORD PTR _tmpstr$3$[ebp]
	test	eax, eax
	je	SHORT $LN32@xmlGetProp

; 6583 : 	    xmlFree(tmpstr);

	push	eax
	call	DWORD PTR _xmlFree
	add	esp, 4
$LN32@xmlGetProp:

; 6584 : 	/*
; 6585 : 	* Only default/fixed attrs are relevant.
; 6586 : 	*/
; 6587 : 	if ((attrDecl != NULL) && (attrDecl->defaultValue != NULL))

	test	esi, esi
	je	SHORT $LN11@xmlGetProp
	cmp	DWORD PTR [esi+48], 0
	jne	$LN38@xmlGetProp
$LN11@xmlGetProp:
	pop	edi

; 6588 : 	    return((xmlAttrPtr) attrDecl);
; 6589 :     }
; 6590 : #endif /* LIBXML_TREE_ENABLED */
; 6591 :     return(NULL);
; 6592 : }

	pop	esi
	xor	eax, eax
	pop	ebx
	mov	esp, ebp
	pop	ebp
	ret	0
_xmlGetPropNodeInternal ENDP
_TEXT	ENDS
; Function compile flags: /Ogtp
; File c:\users\dag\documents\_clients\codeproject authors group\windows on arm\libxml2\libxml2-2.9.9\tree.c
;	COMDAT _xmlNsInScope
_TEXT	SEGMENT
_doc$ = 8						; size = 4
_node$ = 12						; size = 4
_ancestor$ = 16						; size = 4
_prefix$ = 20						; size = 4
_xmlNsInScope PROC					; COMDAT

; 6099 : {

	push	ebp
	mov	ebp, esp
	push	ebx
	push	esi
	push	edi
	mov	ecx, OFFSET __59973643_tree@c
	call	@__CheckForDebuggerJustMyCode@4
	mov	ebx, DWORD PTR _node$[ebp]
	mov	ecx, DWORD PTR _ancestor$[ebp]
	test	ebx, ebx
	je	SHORT $LN25@xmlNsInSco
	mov	edi, DWORD PTR _prefix$[ebp]
	npad	3
$LL2@xmlNsInSco:

; 6100 :     xmlNsPtr tst;
; 6101 : 
; 6102 :     while ((node != NULL) && (node != ancestor)) {

	cmp	ebx, ecx
	je	SHORT $LN11@xmlNsInSco

; 6103 :         if ((node->type == XML_ENTITY_REF_NODE) ||
; 6104 :             (node->type == XML_ENTITY_NODE) ||

	mov	eax, DWORD PTR [ebx+4]
	cmp	eax, 5
	je	SHORT $LN24@xmlNsInSco
	cmp	eax, 6
	je	SHORT $LN24@xmlNsInSco
	cmp	eax, 17					; 00000011H
	je	SHORT $LN24@xmlNsInSco

; 6105 :             (node->type == XML_ENTITY_DECL))
; 6106 :             return (-1);
; 6107 :         if (node->type == XML_ELEMENT_NODE) {

	cmp	eax, 1
	jne	SHORT $LN5@xmlNsInSco

; 6108 :             tst = node->nsDef;

	mov	esi, DWORD PTR [ebx+48]

; 6109 :             while (tst != NULL) {

	test	esi, esi
	je	SHORT $LN5@xmlNsInSco
$LL4@xmlNsInSco:

; 6110 :                 if ((tst->prefix == NULL)
; 6111 :                     && (prefix == NULL))

	mov	eax, DWORD PTR [esi+12]
	test	eax, eax
	jne	SHORT $LN27@xmlNsInSco
	test	edi, edi
	je	SHORT $LN16@xmlNsInSco

; 6112 :                     return (0);
; 6113 :                 if ((tst->prefix != NULL)
; 6114 :                     && (prefix != NULL)
; 6115 :                     && (xmlStrEqual(tst->prefix, prefix)))

	test	eax, eax
	je	SHORT $LN10@xmlNsInSco
$LN27@xmlNsInSco:
	test	edi, edi
	je	SHORT $LN10@xmlNsInSco
	push	edi
	push	eax
	call	_xmlStrEqual
	add	esp, 8
	test	eax, eax
	jne	SHORT $LN16@xmlNsInSco
$LN10@xmlNsInSco:

; 6116 :                     return (0);
; 6117 :                 tst = tst->next;

	mov	esi, DWORD PTR [esi]
	test	esi, esi
	jne	SHORT $LL4@xmlNsInSco
	mov	ecx, DWORD PTR _ancestor$[ebp]
$LN5@xmlNsInSco:

; 6118 :             }
; 6119 :         }
; 6120 :         node = node->parent;

	mov	ebx, DWORD PTR [ebx+20]
	test	ebx, ebx
	jne	SHORT $LL2@xmlNsInSco
$LN25@xmlNsInSco:

; 6121 :     }
; 6122 :     if (node != ancestor)

	cmp	ebx, ecx
	je	SHORT $LN11@xmlNsInSco
$LN24@xmlNsInSco:
	pop	edi

; 6123 :         return (-1);
; 6124 :     return (1);
; 6125 : }

	pop	esi
	or	eax, -1
	pop	ebx
	pop	ebp
	ret	0
$LN16@xmlNsInSco:
	pop	edi
	pop	esi
	xor	eax, eax
	pop	ebx
	pop	ebp
	ret	0
$LN11@xmlNsInSco:
	pop	edi
	pop	esi
	mov	eax, 1
	pop	ebx
	pop	ebp
	ret	0
_xmlNsInScope ENDP
_TEXT	ENDS
; Function compile flags: /Ogtp
; File c:\users\dag\documents\_clients\codeproject authors group\windows on arm\libxml2\libxml2-2.9.9\tree.c
;	COMDAT _xmlTreeEnsureXMLDecl
_TEXT	SEGMENT
_doc$ = 8						; size = 4
_xmlTreeEnsureXMLDecl PROC				; COMDAT

; 5970 : {

	push	ebp
	mov	ebp, esp
	push	edi
	mov	ecx, OFFSET __59973643_tree@c
	call	@__CheckForDebuggerJustMyCode@4
	mov	edi, DWORD PTR _doc$[ebp]
	test	edi, edi
	jne	SHORT $LN2@xmlTreeEns

; 5971 :     if (doc == NULL)
; 5972 : 	return (NULL);

	xor	eax, eax
	pop	edi

; 5989 :     }
; 5990 : }

	pop	ebp
	ret	0
$LN2@xmlTreeEns:

; 5973 :     if (doc->oldNs != NULL)

	mov	eax, DWORD PTR [edi+52]
	test	eax, eax
	jne	SHORT $LN1@xmlTreeEns

; 5974 : 	return (doc->oldNs);
; 5975 :     {
; 5976 : 	xmlNsPtr ns;
; 5977 : 	ns = (xmlNsPtr) xmlMalloc(sizeof(xmlNs));

	push	esi
	push	24					; 00000018H
	call	DWORD PTR _xmlMalloc
	mov	esi, eax
	add	esp, 4

; 5978 : 	if (ns == NULL) {

	test	esi, esi
	jne	SHORT $LN4@xmlTreeEns

; 80   :     __xmlSimpleError(XML_FROM_TREE, XML_ERR_NO_MEMORY, NULL, NULL, extra);

	push	OFFSET ??_C@_0BN@LLCMIJBD@allocating?5the?5XML?5namespace@
	push	eax
	push	eax
	push	2
	push	2
	call	___xmlSimpleError
	add	esp, 20					; 00000014H

; 5979 : 	    xmlTreeErrMemory(
; 5980 : 		"allocating the XML namespace");
; 5981 : 	    return (NULL);

	xor	eax, eax
	pop	esi
	pop	edi

; 5989 :     }
; 5990 : }

	pop	ebp
	ret	0
$LN4@xmlTreeEns:
	xorps	xmm0, xmm0

; 5982 : 	}
; 5983 : 	memset(ns, 0, sizeof(xmlNs));

	movups	XMMWORD PTR [esi], xmm0

; 5984 : 	ns->type = XML_LOCAL_NAMESPACE;
; 5985 : 	ns->href = xmlStrdup(XML_XML_NAMESPACE);

	push	OFFSET ??_C@_0CF@GLDAAHFK@http?3?1?1www?4w3?4org?1XML?11998?1name@
	movq	QWORD PTR [esi+16], xmm0
	mov	DWORD PTR [esi+4], 18			; 00000012H
	call	_xmlStrdup

; 5986 : 	ns->prefix = xmlStrdup((const xmlChar *)"xml");

	push	OFFSET ??_C@_03PJHHNEEI@xml@
	mov	DWORD PTR [esi+8], eax
	call	_xmlStrdup
	add	esp, 8
	mov	DWORD PTR [esi+12], eax

; 5987 : 	doc->oldNs = ns;

	mov	DWORD PTR [edi+52], esi

; 5988 : 	return (ns);

	mov	eax, esi
	pop	esi
$LN1@xmlTreeEns:
	pop	edi

; 5989 :     }
; 5990 : }

	pop	ebp
	ret	0
_xmlTreeEnsureXMLDecl ENDP
_TEXT	ENDS
; Function compile flags: /Ogtp
; File c:\users\dag\documents\_clients\codeproject authors group\windows on arm\libxml2\libxml2-2.9.9\tree.c
;	COMDAT _xmlGetLineNoInternal
_TEXT	SEGMENT
_node$ = 8						; size = 4
_depth$ = 12						; size = 4
_xmlGetLineNoInternal PROC				; COMDAT

; 4595 : {

	push	ebp
	mov	ebp, esp
	push	esi
	mov	ecx, OFFSET __59973643_tree@c
	call	@__CheckForDebuggerJustMyCode@4
	mov	edx, DWORD PTR _depth$[ebp]
	or	eax, -1
	cmp	edx, 5
	jge	$LN22@xmlGetLine

; 4596 :     long result = -1;
; 4597 : 
; 4598 :     if (depth >= 5)
; 4599 :         return(-1);
; 4600 : 
; 4601 :     if (!node)

	mov	esi, DWORD PTR _node$[ebp]
	test	esi, esi
	je	$LN22@xmlGetLine

; 4603 :     if ((node->type == XML_ELEMENT_NODE) ||
; 4604 :         (node->type == XML_TEXT_NODE) ||
; 4605 : 	(node->type == XML_COMMENT_NODE) ||

	mov	ecx, DWORD PTR [esi+4]
	push	edi
	cmp	ecx, 1
	je	SHORT $LN6@xmlGetLine
	cmp	ecx, 3
	je	SHORT $LN6@xmlGetLine
	cmp	ecx, 8
	je	SHORT $LN6@xmlGetLine
	cmp	ecx, 7
	je	SHORT $LN6@xmlGetLine

; 4620 :     } else if ((node->prev != NULL) &&

	mov	edi, DWORD PTR [esi+28]
	test	edi, edi
	je	SHORT $LN17@xmlGetLine
	mov	ecx, DWORD PTR [edi+4]
	cmp	ecx, 1
	je	SHORT $LN19@xmlGetLine
	cmp	ecx, 3
	je	SHORT $LN19@xmlGetLine
	cmp	ecx, 8
	je	SHORT $LN19@xmlGetLine
	cmp	ecx, 7
	jne	SHORT $LN17@xmlGetLine
$LN19@xmlGetLine:

; 4621 :              ((node->prev->type == XML_ELEMENT_NODE) ||
; 4622 : 	      (node->prev->type == XML_TEXT_NODE) ||
; 4623 : 	      (node->prev->type == XML_COMMENT_NODE) ||
; 4624 : 	      (node->prev->type == XML_PI_NODE)))
; 4625 :         result = xmlGetLineNoInternal(node->prev, depth + 1);

	lea	eax, DWORD PTR [edx+1]
	push	eax
	push	edi
	call	_xmlGetLineNoInternal
	add	esp, 8

; 4629 : 
; 4630 :     return result;

	pop	edi
	pop	esi

; 4631 : }

	pop	ebp
	ret	0
$LN17@xmlGetLine:

; 4626 :     else if ((node->parent != NULL) &&

	mov	ecx, DWORD PTR [esi+20]
	test	ecx, ecx
	je	SHORT $LN15@xmlGetLine
	cmp	DWORD PTR [ecx+4], 1
	jne	SHORT $LN15@xmlGetLine

; 4629 : 
; 4630 :     return result;

	pop	edi
	lea	eax, DWORD PTR [edx+1]
	pop	esi

; 4627 :              (node->parent->type == XML_ELEMENT_NODE))
; 4628 :         result = xmlGetLineNoInternal(node->parent, depth + 1);

	mov	DWORD PTR _depth$[ebp], eax
	mov	DWORD PTR _node$[ebp], ecx

; 4631 : }

	pop	ebp

; 4627 :              (node->parent->type == XML_ELEMENT_NODE))
; 4628 :         result = xmlGetLineNoInternal(node->parent, depth + 1);

	jmp	_xmlGetLineNoInternal
$LN6@xmlGetLine:

; 4606 : 	(node->type == XML_PI_NODE)) {
; 4607 : 	if (node->line == 65535) {

	mov	eax, 65535				; 0000ffffH
	cmp	WORD PTR [esi+56], ax
	jne	SHORT $LN16@xmlGetLine

; 4608 : 	    if ((node->type == XML_TEXT_NODE) && (node->psvi != NULL))

	cmp	ecx, 3
	jne	SHORT $LN8@xmlGetLine
	mov	eax, DWORD PTR [esi+52]
	test	eax, eax
	je	SHORT $LN10@xmlGetLine

; 4609 : 	        result = (long) (ptrdiff_t) node->psvi;

	jmp	SHORT $LN14@xmlGetLine
$LN8@xmlGetLine:

; 4610 : 	    else if ((node->type == XML_ELEMENT_NODE) &&

	cmp	ecx, 1
	jne	SHORT $LN10@xmlGetLine
	mov	ecx, DWORD PTR [esi+12]
	test	ecx, ecx
	jne	SHORT $LN25@xmlGetLine
$LN10@xmlGetLine:

; 4611 : 	             (node->children != NULL))
; 4612 : 	        result = xmlGetLineNoInternal(node->children, depth + 1);
; 4613 : 	    else if (node->next != NULL)

	mov	ecx, DWORD PTR [esi+24]
	test	ecx, ecx
	jne	SHORT $LN25@xmlGetLine

; 4614 : 	        result = xmlGetLineNoInternal(node->next, depth + 1);
; 4615 : 	    else if (node->prev != NULL)

	mov	ecx, DWORD PTR [esi+28]
	test	ecx, ecx
	je	SHORT $LN16@xmlGetLine
$LN25@xmlGetLine:

; 4616 : 	        result = xmlGetLineNoInternal(node->prev, depth + 1);
; 4617 : 	}
; 4618 : 	if ((result == -1) || (result == 65535))

	lea	eax, DWORD PTR [edx+1]
	push	eax
	push	ecx
	call	_xmlGetLineNoInternal
	add	esp, 8
$LN14@xmlGetLine:
	cmp	eax, -1
	je	SHORT $LN16@xmlGetLine
	cmp	eax, 65535				; 0000ffffH
	jne	SHORT $LN15@xmlGetLine
$LN16@xmlGetLine:

; 4619 : 	    result = (long) node->line;

	movzx	eax, WORD PTR [esi+56]
$LN15@xmlGetLine:

; 4629 : 
; 4630 :     return result;

	pop	edi
	pop	esi

; 4631 : }

	pop	ebp
	ret	0
$LN22@xmlGetLine:

; 4602 :         return result;

	or	eax, -1
	pop	esi

; 4631 : }

	pop	ebp
	ret	0
_xmlGetLineNoInternal ENDP
_TEXT	ENDS
; Function compile flags: /Ogtp
; File c:\users\dag\documents\_clients\codeproject authors group\windows on arm\libxml2\libxml2-2.9.9\tree.c
;	COMDAT _xmlStaticCopyNode
_TEXT	SEGMENT
_node$ = 8						; size = 4
_doc$ = 12						; size = 4
_parent$ = 16						; size = 4
_extended$ = 20						; size = 4
_xmlStaticCopyNode PROC					; COMDAT

; 4170 :                   int extended) {

	push	ebp
	mov	ebp, esp
	push	edi
	mov	ecx, OFFSET __59973643_tree@c
	call	@__CheckForDebuggerJustMyCode@4
	mov	edi, DWORD PTR _node$[ebp]
	test	edi, edi
	je	$LN13@xmlStaticC

; 4171 :     xmlNodePtr ret;
; 4172 : 
; 4173 :     if (node == NULL) return(NULL);
; 4174 :     switch (node->type) {

	mov	eax, DWORD PTR [edi+4]
	add	eax, -2					; fffffffeH
	cmp	eax, 19					; 00000013H
	ja	SHORT $LN2@xmlStaticC
	movzx	eax, BYTE PTR $LN121@xmlStaticC[eax]
	jmp	DWORD PTR $LN129@xmlStaticC[eax*4]
$LN10@xmlStaticC:

; 4175 :         case XML_TEXT_NODE:
; 4176 :         case XML_CDATA_SECTION_NODE:
; 4177 :         case XML_ELEMENT_NODE:
; 4178 :         case XML_DOCUMENT_FRAG_NODE:
; 4179 :         case XML_ENTITY_REF_NODE:
; 4180 :         case XML_ENTITY_NODE:
; 4181 :         case XML_PI_NODE:
; 4182 :         case XML_COMMENT_NODE:
; 4183 :         case XML_XINCLUDE_START:
; 4184 :         case XML_XINCLUDE_END:
; 4185 : 	    break;
; 4186 :         case XML_ATTRIBUTE_NODE:
; 4187 : 		return((xmlNodePtr) xmlCopyPropInternal(doc, parent, (xmlAttrPtr) node));

	push	edi
	push	DWORD PTR _parent$[ebp]
	push	DWORD PTR _doc$[ebp]
	call	_xmlCopyPropInternal
	add	esp, 12					; 0000000cH
	pop	edi

; 4319 : }

	pop	ebp
	ret	0
$LN11@xmlStaticC:

; 4188 :         case XML_NAMESPACE_DECL:
; 4189 : 	    return((xmlNodePtr) xmlCopyNamespaceList((xmlNsPtr) node));

	push	edi
	call	_xmlCopyNamespaceList
	add	esp, 4
	pop	edi

; 4319 : }

	pop	ebp
	ret	0
$LN12@xmlStaticC:

; 4190 : 
; 4191 :         case XML_DOCUMENT_NODE:
; 4192 :         case XML_HTML_DOCUMENT_NODE:
; 4193 : #ifdef LIBXML_DOCB_ENABLED
; 4194 :         case XML_DOCB_DOCUMENT_NODE:
; 4195 : #endif
; 4196 : #ifdef LIBXML_TREE_ENABLED
; 4197 : 	    return((xmlNodePtr) xmlCopyDoc((xmlDocPtr) node, extended));

	push	DWORD PTR _extended$[ebp]
	push	edi
	call	_xmlCopyDoc
	add	esp, 8
	pop	edi

; 4319 : }

	pop	ebp
	ret	0
$LN2@xmlStaticC:
	push	esi

; 4206 :     }
; 4207 : 
; 4208 :     /*
; 4209 :      * Allocate a new node and fill the fields.
; 4210 :      */
; 4211 :     ret = (xmlNodePtr) xmlMalloc(sizeof(xmlNode));

	push	60					; 0000003cH
	call	DWORD PTR _xmlMalloc
	mov	esi, eax
	add	esp, 4

; 4212 :     if (ret == NULL) {

	test	esi, esi
	jne	SHORT $LN14@xmlStaticC

; 80   :     __xmlSimpleError(XML_FROM_TREE, XML_ERR_NO_MEMORY, NULL, NULL, extra);

	push	OFFSET ??_C@_0N@IDAFCAHJ@copying?5node@
	push	eax
	push	eax
	push	2
	push	2
	call	___xmlSimpleError
	add	esp, 20					; 00000014H

; 4213 : 	xmlTreeErrMemory("copying node");
; 4214 : 	return(NULL);

	xor	eax, eax
	pop	esi
	pop	edi

; 4319 : }

	pop	ebp
	ret	0
$LN14@xmlStaticC:
	push	ebx

; 4215 :     }
; 4216 :     memset(ret, 0, sizeof(xmlNode));

	push	60					; 0000003cH
	push	0
	push	esi
	call	_memset

; 4217 :     ret->type = node->type;

	mov	eax, DWORD PTR [edi+4]
	add	esp, 12					; 0000000cH

; 4218 : 
; 4219 :     ret->doc = doc;

	mov	ebx, DWORD PTR _doc$[ebp]
	mov	DWORD PTR [esi+4], eax

; 4220 :     ret->parent = parent;

	mov	eax, DWORD PTR _parent$[ebp]
	mov	DWORD PTR [esi+32], ebx
	mov	DWORD PTR [esi+20], eax

; 4221 :     if (node->name == xmlStringText)

	mov	eax, DWORD PTR [edi+8]
	cmp	eax, OFFSET _xmlStringText
	jne	SHORT $LN15@xmlStaticC

; 4222 : 	ret->name = xmlStringText;

	mov	DWORD PTR [esi+8], OFFSET _xmlStringText
	jmp	SHORT $LN23@xmlStaticC
$LN15@xmlStaticC:

; 4223 :     else if (node->name == xmlStringTextNoenc)

	cmp	eax, OFFSET _xmlStringTextNoenc
	jne	SHORT $LN17@xmlStaticC

; 4224 : 	ret->name = xmlStringTextNoenc;

	mov	DWORD PTR [esi+8], OFFSET _xmlStringTextNoenc
	jmp	SHORT $LN23@xmlStaticC
$LN17@xmlStaticC:

; 4225 :     else if (node->name == xmlStringComment)

	cmp	eax, OFFSET _xmlStringComment
	jne	SHORT $LN19@xmlStaticC

; 4226 : 	ret->name = xmlStringComment;

	mov	DWORD PTR [esi+8], OFFSET _xmlStringComment
	jmp	SHORT $LN23@xmlStaticC
$LN19@xmlStaticC:

; 4227 :     else if (node->name != NULL) {

	test	eax, eax
	je	SHORT $LN23@xmlStaticC

; 4228 :         if ((doc != NULL) && (doc->dict != NULL))

	test	ebx, ebx
	je	SHORT $LN22@xmlStaticC
	mov	ecx, DWORD PTR [ebx+80]
	test	ecx, ecx
	je	SHORT $LN22@xmlStaticC

; 4229 : 	    ret->name = xmlDictLookup(doc->dict, node->name, -1);

	push	-1
	push	eax
	push	ecx
	call	_xmlDictLookup
	add	esp, 12					; 0000000cH
	jmp	SHORT $LN125@xmlStaticC
$LN22@xmlStaticC:

; 4230 : 	else
; 4231 : 	    ret->name = xmlStrdup(node->name);

	push	eax
	call	_xmlStrdup
	add	esp, 4
$LN125@xmlStaticC:

; 4232 :     }
; 4233 :     if ((node->type != XML_ELEMENT_NODE) &&
; 4234 : 	(node->content != NULL) &&
; 4235 : 	(node->type != XML_ENTITY_REF_NODE) &&
; 4236 : 	(node->type != XML_XINCLUDE_END) &&

	mov	DWORD PTR [esi+8], eax
$LN23@xmlStaticC:
	mov	eax, DWORD PTR [edi+4]
	cmp	eax, 1
	je	SHORT $LN120@xmlStaticC
	mov	ecx, DWORD PTR [edi+40]
	test	ecx, ecx
	je	SHORT $LN26@xmlStaticC
	cmp	eax, 5
	je	SHORT $LN26@xmlStaticC
	cmp	eax, 20					; 00000014H
	je	SHORT $LN26@xmlStaticC
	cmp	eax, 19					; 00000013H
	je	SHORT $LN26@xmlStaticC

; 4237 : 	(node->type != XML_XINCLUDE_START)) {
; 4238 : 	ret->content = xmlStrdup(node->content);

	push	ecx
	call	_xmlStrdup
	add	esp, 4
	mov	DWORD PTR [esi+40], eax

; 4239 :     }else{

	jmp	SHORT $LN26@xmlStaticC
$LN120@xmlStaticC:

; 4240 :       if (node->type == XML_ELEMENT_NODE)
; 4241 :         ret->line = node->line;

	mov	ax, WORD PTR [edi+56]
	mov	WORD PTR [esi+56], ax
$LN26@xmlStaticC:

; 4242 :     }
; 4243 :     if (parent != NULL) {

	mov	eax, DWORD PTR _parent$[ebp]
	test	eax, eax
	je	SHORT $LN29@xmlStaticC

; 4244 : 	xmlNodePtr tmp;
; 4245 : 
; 4246 : 	/*
; 4247 : 	 * this is a tricky part for the node register thing:
; 4248 : 	 * in case ret does get coalesced in xmlAddChild
; 4249 : 	 * the deregister-node callback is called; so we register ret now already
; 4250 : 	 */
; 4251 : 	if ((__xmlRegisterCallbacks) && (xmlRegisterNodeDefaultValue))

	cmp	DWORD PTR ___xmlRegisterCallbacks, 0
	je	SHORT $LN28@xmlStaticC
	call	___xmlRegisterNodeDefaultValue
	cmp	DWORD PTR [eax], 0
	je	SHORT $LN122@xmlStaticC

; 4252 : 	    xmlRegisterNodeDefaultValue((xmlNodePtr)ret);

	call	___xmlRegisterNodeDefaultValue
	push	esi
	mov	eax, DWORD PTR [eax]
	call	eax
	add	esp, 4
$LN122@xmlStaticC:

; 4253 : 
; 4254 :         tmp = xmlAddChild(parent, ret);

	mov	eax, DWORD PTR _parent$[ebp]
$LN28@xmlStaticC:
	push	esi
	push	eax
	call	_xmlAddChild
	add	esp, 8

; 4255 : 	/* node could have coalesced */
; 4256 : 	if (tmp != ret)

	cmp	eax, esi
	jne	$LN124@xmlStaticC
$LN29@xmlStaticC:

; 4257 : 	    return(tmp);
; 4258 :     }
; 4259 : 
; 4260 :     if (!extended)

	cmp	DWORD PTR _extended$[ebp], 0
	je	$out$130

; 4261 : 	goto out;
; 4262 :     if (((node->type == XML_ELEMENT_NODE) ||
; 4263 :          (node->type == XML_XINCLUDE_START)) && (node->nsDef != NULL))

	mov	eax, DWORD PTR [edi+4]
	cmp	eax, 1
	je	SHORT $LN32@xmlStaticC
	cmp	eax, 19					; 00000013H
	jne	SHORT $LN31@xmlStaticC
$LN32@xmlStaticC:
	mov	eax, DWORD PTR [edi+48]
	test	eax, eax
	je	SHORT $LN31@xmlStaticC

; 4264 :         ret->nsDef = xmlCopyNamespaceList(node->nsDef);

	push	eax
	call	_xmlCopyNamespaceList
	add	esp, 4
	mov	DWORD PTR [esi+48], eax
$LN31@xmlStaticC:

; 4265 : 
; 4266 :     if (node->ns != NULL) {

	mov	eax, DWORD PTR [edi+36]
	test	eax, eax
	je	SHORT $LN35@xmlStaticC

; 4267 :         xmlNsPtr ns;
; 4268 : 
; 4269 : 	ns = xmlSearchNs(doc, ret, node->ns->prefix);

	push	DWORD PTR [eax+12]
	push	esi
	push	ebx
	call	_xmlSearchNs
	add	esp, 12					; 0000000cH

; 4270 : 	if (ns == NULL) {

	test	eax, eax
	jne	SHORT $LN34@xmlStaticC

; 4271 : 	    /*
; 4272 : 	     * Humm, we are copying an element whose namespace is defined
; 4273 : 	     * out of the new tree scope. Search it in the original tree
; 4274 : 	     * and add it at the top of the new tree
; 4275 : 	     */
; 4276 : 	    ns = xmlSearchNs(node->doc, node, node->ns->prefix);

	mov	eax, DWORD PTR [edi+36]
	push	DWORD PTR [eax+12]
	push	edi
	push	DWORD PTR [edi+32]
	call	_xmlSearchNs
	add	esp, 12					; 0000000cH

; 4277 : 	    if (ns != NULL) {

	test	eax, eax
	je	SHORT $LN36@xmlStaticC

; 4278 : 	        xmlNodePtr root = ret;
; 4279 : 
; 4280 : 		while (root->parent != NULL) root = root->parent;

	mov	ecx, DWORD PTR [esi+20]
	mov	edx, esi
	test	ecx, ecx
	je	SHORT $LN5@xmlStaticC
$LL4@xmlStaticC:
	mov	edx, ecx
	mov	ecx, DWORD PTR [edx+20]
	test	ecx, ecx
	jne	SHORT $LL4@xmlStaticC
$LN5@xmlStaticC:

; 4281 : 		ret->ns = xmlNewNs(root, ns->href, ns->prefix);

	push	DWORD PTR [eax+12]
	push	DWORD PTR [eax+8]
	push	edx
	call	_xmlNewNs

; 4282 : 		} else {

	jmp	SHORT $LN126@xmlStaticC
$LN36@xmlStaticC:

; 4283 : 			ret->ns = xmlNewReconciliedNs(doc, ret, node->ns);

	push	DWORD PTR [edi+36]
	push	esi
	push	ebx
	call	_xmlNewReconciliedNs
$LN126@xmlStaticC:

; 4284 : 	    }
; 4285 : 	} else {

	add	esp, 12					; 0000000cH
$LN34@xmlStaticC:

; 4286 : 	    /*
; 4287 : 	     * reference the existing namespace definition in our own tree.
; 4288 : 	     */
; 4289 : 	    ret->ns = ns;
; 4290 : 	}
; 4291 :     }
; 4292 :     if (((node->type == XML_ELEMENT_NODE) ||
; 4293 :          (node->type == XML_XINCLUDE_START)) && (node->properties != NULL))

	mov	DWORD PTR [esi+36], eax
$LN35@xmlStaticC:
	mov	eax, DWORD PTR [edi+4]
	cmp	eax, 1
	je	SHORT $LN39@xmlStaticC
	cmp	eax, 19					; 00000013H
	jne	SHORT $LN38@xmlStaticC
$LN39@xmlStaticC:
	mov	ecx, DWORD PTR [edi+44]
	test	ecx, ecx
	je	SHORT $LN38@xmlStaticC

; 4294 :         ret->properties = xmlCopyPropList(ret, node->properties);

	push	ecx
	push	esi
	call	_xmlCopyPropList
	mov	DWORD PTR [esi+44], eax
	add	esp, 8
	mov	eax, DWORD PTR [edi+4]
$LN38@xmlStaticC:

; 4295 :     if (node->type == XML_ENTITY_REF_NODE) {

	cmp	eax, 5
	jne	SHORT $LN40@xmlStaticC

; 4296 : 	if ((doc == NULL) || (node->doc != doc)) {

	test	ebx, ebx
	je	SHORT $LN44@xmlStaticC
	cmp	DWORD PTR [edi+32], ebx
	jne	SHORT $LN44@xmlStaticC

; 4304 : 	} else {
; 4305 :             ret->children = node->children;

	mov	eax, DWORD PTR [edi+12]

; 4306 : 	}
; 4307 : 	ret->last = ret->children;

	mov	DWORD PTR [esi+12], eax
	jmp	SHORT $LN127@xmlStaticC
$LN44@xmlStaticC:

; 4297 : 	    /*
; 4298 : 	     * The copied node will go into a separate document, so
; 4299 : 	     * to avoid dangling references to the ENTITY_DECL node
; 4300 : 	     * we cannot keep the reference. Try to find it in the
; 4301 : 	     * target document.
; 4302 : 	     */
; 4303 : 	    ret->children = (xmlNodePtr) xmlGetDocEntity(doc, ret->name);

	push	DWORD PTR [esi+8]
	push	ebx
	call	_xmlGetDocEntity
	add	esp, 8

; 4306 : 	}
; 4307 : 	ret->last = ret->children;

	mov	DWORD PTR [esi+12], eax
	jmp	SHORT $LN127@xmlStaticC
$LN40@xmlStaticC:

; 4308 :     } else if ((node->children != NULL) && (extended != 2)) {

	mov	eax, DWORD PTR [edi+12]
	test	eax, eax
	je	SHORT $out$130
	cmp	DWORD PTR _extended$[ebp], 2
	je	SHORT $out$130

; 4309 :         ret->children = xmlStaticCopyNodeList(node->children, doc, ret);

	push	esi
	push	ebx
	push	eax
	call	_xmlStaticCopyNodeList
	add	esp, 12					; 0000000cH
	mov	DWORD PTR [esi+12], eax

; 4310 : 	UPDATE_LAST_CHILD_AND_PARENT(ret)

	test	eax, eax
	jne	SHORT $LN113@xmlStaticC
	mov	DWORD PTR [esi+16], eax
	jmp	SHORT $out$130
$LN113@xmlStaticC:
	cmp	DWORD PTR [eax+24], 0
	lea	ecx, DWORD PTR [eax+24]
	je	SHORT $LN7@xmlStaticC
$LL6@xmlStaticC:
	mov	DWORD PTR [eax+20], esi
	mov	eax, DWORD PTR [ecx]
	cmp	DWORD PTR [eax+24], 0
	lea	ecx, DWORD PTR [eax+24]
	jne	SHORT $LL6@xmlStaticC
$LN7@xmlStaticC:
	mov	DWORD PTR [eax+20], esi
$LN127@xmlStaticC:

; 4311 :     }
; 4312 : 
; 4313 : out:
; 4314 :     /* if parent != NULL we already registered the node above */
; 4315 :     if ((parent == NULL) &&

	mov	DWORD PTR [esi+16], eax
$out$130:
	cmp	DWORD PTR _parent$[ebp], 0
	jne	SHORT $LN49@xmlStaticC
	cmp	DWORD PTR ___xmlRegisterCallbacks, 0
	je	SHORT $LN49@xmlStaticC
	call	___xmlRegisterNodeDefaultValue
	cmp	DWORD PTR [eax], 0
	je	SHORT $LN49@xmlStaticC

; 4316 :         ((__xmlRegisterCallbacks) && (xmlRegisterNodeDefaultValue)))
; 4317 : 	xmlRegisterNodeDefaultValue((xmlNodePtr)ret);

	call	___xmlRegisterNodeDefaultValue
	push	esi
	mov	ecx, DWORD PTR [eax]
	call	ecx
	add	esp, 4
$LN49@xmlStaticC:

; 4318 :     return(ret);

	mov	eax, esi
$LN124@xmlStaticC:
	pop	ebx
	pop	esi
	pop	edi

; 4319 : }

	pop	ebp
	ret	0
$LN13@xmlStaticC:

; 4198 : #endif /* LIBXML_TREE_ENABLED */
; 4199 :         case XML_DOCUMENT_TYPE_NODE:
; 4200 :         case XML_NOTATION_NODE:
; 4201 :         case XML_DTD_NODE:
; 4202 :         case XML_ELEMENT_DECL:
; 4203 :         case XML_ATTRIBUTE_DECL:
; 4204 :         case XML_ENTITY_DECL:
; 4205 :             return(NULL);

	xor	eax, eax
	pop	edi

; 4319 : }

	pop	ebp
	ret	0
$LN129@xmlStaticC:
	DD	$LN10@xmlStaticC
	DD	$LN12@xmlStaticC
	DD	$LN13@xmlStaticC
	DD	$LN11@xmlStaticC
	DD	$LN2@xmlStaticC
$LN121@xmlStaticC:
	DB	0
	DB	4
	DB	4
	DB	4
	DB	4
	DB	4
	DB	4
	DB	1
	DB	2
	DB	4
	DB	2
	DB	1
	DB	2
	DB	2
	DB	2
	DB	2
	DB	3
	DB	4
	DB	4
	DB	1
_xmlStaticCopyNode ENDP
_TEXT	ENDS
; Function compile flags: /Ogtp
; File c:\users\dag\documents\_clients\codeproject authors group\windows on arm\libxml2\libxml2-2.9.9\tree.c
;	COMDAT _xmlCopyPropInternal
_TEXT	SEGMENT
_doc$ = 8						; size = 4
_target$ = 12						; size = 4
_ns$2$ = 16						; size = 4
_ns$1$ = 16						; size = 4
_cur$ = 16						; size = 4
_xmlCopyPropInternal PROC				; COMDAT

; 4006 : xmlCopyPropInternal(xmlDocPtr doc, xmlNodePtr target, xmlAttrPtr cur) {

	push	ebp
	mov	ebp, esp
	push	ebx
	push	esi
	push	edi
	mov	ecx, OFFSET __59973643_tree@c
	call	@__CheckForDebuggerJustMyCode@4
	mov	ebx, DWORD PTR _cur$[ebp]
	test	ebx, ebx
	je	$LN88@xmlCopyPro

; 4007 :     xmlAttrPtr ret;
; 4008 : 
; 4009 :     if (cur == NULL) return(NULL);
; 4010 :     if ((target != NULL) && (target->type != XML_ELEMENT_NODE))

	mov	esi, DWORD PTR _target$[ebp]
	test	esi, esi
	je	SHORT $LN8@xmlCopyPro
	cmp	DWORD PTR [esi+4], 1
	jne	$LN88@xmlCopyPro

; 4011 :         return(NULL);
; 4012 :     if (target != NULL)

	test	esi, esi
	je	SHORT $LN8@xmlCopyPro

; 4013 : 	ret = xmlNewDocProp(target->doc, cur->name, NULL);

	mov	ecx, DWORD PTR [esi+32]
	jmp	SHORT $LN15@xmlCopyPro
$LN8@xmlCopyPro:

; 4014 :     else if (doc != NULL)

	mov	ecx, DWORD PTR _doc$[ebp]
	test	ecx, ecx
	jne	SHORT $LN15@xmlCopyPro

; 4015 : 	ret = xmlNewDocProp(doc, cur->name, NULL);
; 4016 :     else if (cur->parent != NULL)

	mov	ecx, DWORD PTR [ebx+20]
	test	ecx, ecx
	je	SHORT $LN12@xmlCopyPro

; 4017 : 	ret = xmlNewDocProp(cur->parent->doc, cur->name, NULL);

	mov	ecx, DWORD PTR [ecx+32]
	jmp	SHORT $LN15@xmlCopyPro
$LN12@xmlCopyPro:

; 4018 :     else if (cur->children != NULL)

	mov	ecx, DWORD PTR [ebx+12]
	test	ecx, ecx
	je	SHORT $LN14@xmlCopyPro

; 4019 : 	ret = xmlNewDocProp(cur->children->doc, cur->name, NULL);

	mov	ecx, DWORD PTR [ecx+32]
	jmp	SHORT $LN15@xmlCopyPro
$LN14@xmlCopyPro:

; 4020 :     else
; 4021 : 	ret = xmlNewDocProp(NULL, cur->name, NULL);

	xor	ecx, ecx
$LN15@xmlCopyPro:

; 4022 :     if (ret == NULL) return(NULL);

	mov	eax, DWORD PTR [ebx+8]
	push	0
	push	eax
	push	ecx
	call	_xmlNewDocProp
	mov	edi, eax
	add	esp, 12					; 0000000cH
	test	edi, edi
	je	$LN88@xmlCopyPro

; 4023 :     ret->parent = target;

	mov	DWORD PTR [edi+20], esi

; 4024 : 
; 4025 :     if ((cur->ns != NULL) && (target != NULL)) {

	mov	eax, DWORD PTR [ebx+36]
	test	eax, eax
	je	$LN17@xmlCopyPro
	test	esi, esi
	je	$LN17@xmlCopyPro

; 4026 :       xmlNsPtr ns;
; 4027 : 
; 4028 :       ns = xmlSearchNs(target->doc, target, cur->ns->prefix);

	push	DWORD PTR [eax+12]
	push	esi
	push	DWORD PTR [esi+32]
	call	_xmlSearchNs
	mov	ecx, DWORD PTR [ebx+36]
	add	esp, 12					; 0000000cH
	mov	DWORD PTR _ns$2$[ebp], eax

; 4029 :       if (ns == NULL) {

	test	eax, eax
	jne	SHORT $LN19@xmlCopyPro

; 4030 :         /*
; 4031 :          * Humm, we are copying an element whose namespace is defined
; 4032 :          * out of the new tree scope. Search it in the original tree
; 4033 :          * and add it at the top of the new tree
; 4034 :          */
; 4035 :         ns = xmlSearchNs(cur->doc, cur->parent, cur->ns->prefix);

	push	DWORD PTR [ecx+12]
	push	DWORD PTR [ebx+20]
	push	DWORD PTR [ebx+32]
	call	_xmlSearchNs
	add	esp, 12					; 0000000cH
	mov	DWORD PTR _ns$1$[ebp], eax

; 4036 :         if (ns != NULL) {

	test	eax, eax
	je	SHORT $LN18@xmlCopyPro

; 4037 :           xmlNodePtr root = target;
; 4038 :           xmlNodePtr pred = NULL;
; 4039 : 
; 4040 :           while (root->parent != NULL) {

	mov	ecx, DWORD PTR [esi+20]
	xor	eax, eax
	mov	edx, esi
	test	ecx, ecx
	je	SHORT $LN3@xmlCopyPro
$LL2@xmlCopyPro:

; 4041 :             pred = root;

	mov	eax, edx

; 4042 :             root = root->parent;

	mov	edx, ecx
	mov	ecx, DWORD PTR [edx+20]
	test	ecx, ecx
	jne	SHORT $LL2@xmlCopyPro
$LN3@xmlCopyPro:

; 4043 :           }
; 4044 :           if (root == (xmlNodePtr) target->doc) {
; 4045 :             /* correct possibly cycling above the document elt */
; 4046 :             root = pred;
; 4047 :           }
; 4048 :           ret->ns = xmlNewNs(root, ns->href, ns->prefix);

	mov	ecx, DWORD PTR _ns$1$[ebp]
	cmp	edx, DWORD PTR [esi+32]
	cmovne	eax, edx
	push	DWORD PTR [ecx+12]
	push	DWORD PTR [ecx+8]
	push	eax
	call	_xmlNewNs
	add	esp, 12					; 0000000cH
	mov	DWORD PTR [edi+36], eax

; 4049 :         }
; 4050 :       } else {

	jmp	SHORT $LN18@xmlCopyPro
$LN19@xmlCopyPro:

; 4051 :         /*
; 4052 :          * we have to find something appropriate here since
; 4053 :          * we cant be sure, that the namespce we found is identified
; 4054 :          * by the prefix
; 4055 :          */
; 4056 :         if (xmlStrEqual(ns->href, cur->ns->href)) {

	push	DWORD PTR [ecx+8]
	push	DWORD PTR [eax+8]
	call	_xmlStrEqual
	add	esp, 8
	test	eax, eax
	je	SHORT $LN23@xmlCopyPro

; 4057 :           /* this is the nice case */
; 4058 :           ret->ns = ns;

	mov	eax, DWORD PTR _ns$2$[ebp]
	mov	DWORD PTR [edi+36], eax

; 4059 :         } else {

	jmp	SHORT $LN18@xmlCopyPro
$LN23@xmlCopyPro:

; 4060 :           /*
; 4061 :            * we are in trouble: we need a new reconcilied namespace.
; 4062 :            * This is expensive
; 4063 :            */
; 4064 :           ret->ns = xmlNewReconciliedNs(target->doc, target, cur->ns);

	push	DWORD PTR [ebx+36]
	push	esi
	push	DWORD PTR [esi+32]
	call	_xmlNewReconciliedNs
	add	esp, 12					; 0000000cH
	mov	DWORD PTR [edi+36], eax

; 4065 :         }
; 4066 :       }
; 4067 : 
; 4068 :     } else

	jmp	SHORT $LN18@xmlCopyPro
$LN17@xmlCopyPro:

; 4069 :         ret->ns = NULL;

	mov	DWORD PTR [edi+36], 0
$LN18@xmlCopyPro:

; 4070 : 
; 4071 :     if (cur->children != NULL) {

	mov	eax, DWORD PTR [ebx+12]
	test	eax, eax
	je	SHORT $LN5@xmlCopyPro

; 4072 : 	xmlNodePtr tmp;
; 4073 : 
; 4074 : 	ret->children = xmlStaticCopyNodeList(cur->children, ret->doc, (xmlNodePtr) ret);

	push	edi
	push	DWORD PTR [edi+32]
	push	eax
	call	_xmlStaticCopyNodeList
	mov	ecx, eax

; 4075 : 	ret->last = NULL;

	mov	DWORD PTR [edi+16], 0
	add	esp, 12					; 0000000cH
	mov	DWORD PTR [edi+12], ecx

; 4076 : 	tmp = ret->children;
; 4077 : 	while (tmp != NULL) {

	test	ecx, ecx
	je	SHORT $LN5@xmlCopyPro
$LL4@xmlCopyPro:

; 4078 : 	    /* tmp->parent = (xmlNodePtr)ret; */
; 4079 : 	    if (tmp->next == NULL)

	mov	eax, DWORD PTR [ecx+24]
	test	eax, eax
	jne	SHORT $LN87@xmlCopyPro

; 4080 : 	        ret->last = tmp;

	mov	DWORD PTR [edi+16], ecx
	mov	eax, DWORD PTR [ecx+24]
$LN87@xmlCopyPro:

; 4081 : 	    tmp = tmp->next;

	mov	ecx, eax
	test	eax, eax
	jne	SHORT $LL4@xmlCopyPro
$LN5@xmlCopyPro:

; 4082 : 	}
; 4083 :     }
; 4084 :     /*
; 4085 :      * Try to handle IDs
; 4086 :      */
; 4087 :     if ((target!= NULL) && (cur!= NULL) &&
; 4088 : 	(target->doc != NULL) && (cur->doc != NULL) &&
; 4089 : 	(cur->doc->ids != NULL) && (cur->parent != NULL)) {

	test	esi, esi
	je	SHORT $LN29@xmlCopyPro
	cmp	DWORD PTR [esi+32], 0
	je	SHORT $LN29@xmlCopyPro
	mov	eax, DWORD PTR [ebx+32]
	test	eax, eax
	je	SHORT $LN29@xmlCopyPro
	cmp	DWORD PTR [eax+64], 0
	je	SHORT $LN29@xmlCopyPro
	mov	ecx, DWORD PTR [ebx+20]
	test	ecx, ecx
	je	SHORT $LN29@xmlCopyPro

; 4090 : 	if (xmlIsID(cur->doc, cur->parent, cur)) {

	push	ebx
	push	ecx
	push	eax
	call	_xmlIsID
	add	esp, 12					; 0000000cH
	test	eax, eax
	je	SHORT $LN29@xmlCopyPro

; 4091 : 	    xmlChar *id;
; 4092 : 
; 4093 : 	    id = xmlNodeListGetString(cur->doc, cur->children, 1);

	push	1
	push	DWORD PTR [ebx+12]
	push	DWORD PTR [ebx+32]
	call	_xmlNodeListGetString
	mov	ebx, eax
	add	esp, 12					; 0000000cH

; 4094 : 	    if (id != NULL) {

	test	ebx, ebx
	je	SHORT $LN29@xmlCopyPro

; 4095 : 		xmlAddID(NULL, target->doc, id, ret);

	push	edi
	push	ebx
	push	DWORD PTR [esi+32]
	push	0
	call	_xmlAddID

; 4096 : 		xmlFree(id);

	push	ebx
	call	DWORD PTR _xmlFree
	add	esp, 20					; 00000014H
$LN29@xmlCopyPro:

; 4097 : 	    }
; 4098 : 	}
; 4099 :     }
; 4100 :     return(ret);

	mov	eax, edi
	pop	edi

; 4101 : }

	pop	esi
	pop	ebx
	pop	ebp
	ret	0
$LN88@xmlCopyPro:
	pop	edi
	pop	esi
	xor	eax, eax
	pop	ebx
	pop	ebp
	ret	0
_xmlCopyPropInternal ENDP
_TEXT	ENDS
; Function compile flags: /Ogtp
; File c:\users\dag\documents\_clients\codeproject authors group\windows on arm\libxml2\libxml2-2.9.9\tree.c
;	COMDAT _xmlStaticCopyNodeList
_TEXT	SEGMENT
_p$1$ = -8						; size = 4
_ret$1$ = -4						; size = 4
_node$ = 8						; size = 4
_doc$ = 12						; size = 4
_parent$ = 16						; size = 4
_xmlStaticCopyNodeList PROC				; COMDAT

; 4322 : xmlStaticCopyNodeList(xmlNodePtr node, xmlDocPtr doc, xmlNodePtr parent) {

	push	ebp
	mov	ebp, esp
	sub	esp, 8
	push	ebx
	push	esi
	push	edi
	mov	ecx, OFFSET __59973643_tree@c
	call	@__CheckForDebuggerJustMyCode@4
	mov	edi, DWORD PTR _node$[ebp]
	xor	ecx, ecx
	xor	eax, eax
	mov	DWORD PTR _ret$1$[ebp], ecx
	mov	DWORD PTR _p$1$[ebp], eax
	test	edi, edi
	je	$LN3@xmlStaticC
	mov	ebx, DWORD PTR _doc$[ebp]
	npad	5
$LL2@xmlStaticC:

; 4327 : #ifdef LIBXML_TREE_ENABLED
; 4328 : 	if (node->type == XML_DTD_NODE ) {

	cmp	DWORD PTR [edi+4], 14			; 0000000eH
	jne	SHORT $LN4@xmlStaticC

; 4329 : 	    if (doc == NULL) {

	test	ebx, ebx
	je	SHORT $LN23@xmlStaticC

; 4330 : 		node = node->next;
; 4331 : 		continue;
; 4332 : 	    }
; 4333 : 	    if (doc->intSubset == NULL) {

	mov	esi, DWORD PTR [ebx+44]
	test	esi, esi
	jne	SHORT $LN7@xmlStaticC

; 4334 : 		q = (xmlNodePtr) xmlCopyDtd( (xmlDtdPtr) node );

	push	edi
	call	_xmlCopyDtd
	mov	esi, eax
	add	esp, 4

; 4335 : 		if (q == NULL) return(NULL);

	test	esi, esi
	je	SHORT $LN18@xmlStaticC

; 4336 : 		q->doc = doc;
; 4337 : 		q->parent = parent;

	mov	eax, DWORD PTR _parent$[ebp]

; 4338 : 		doc->intSubset = (xmlDtdPtr) q;
; 4339 : 		xmlAddChild(parent, q);
; 4340 : 	    } else {
; 4341 : 		q = (xmlNodePtr) doc->intSubset;
; 4342 : 		xmlAddChild(parent, q);
; 4343 : 	    }
; 4344 : 	} else

	push	esi
	mov	DWORD PTR [esi+32], ebx
	mov	DWORD PTR [esi+20], eax
	push	eax
	mov	DWORD PTR [ebx+44], esi
	call	_xmlAddChild
	add	esp, 8
	jmp	SHORT $LN5@xmlStaticC
$LN7@xmlStaticC:
	mov	eax, DWORD PTR _parent$[ebp]
	push	esi
	push	eax
	call	_xmlAddChild
	add	esp, 8
	jmp	SHORT $LN5@xmlStaticC
$LN4@xmlStaticC:

; 4345 : #endif /* LIBXML_TREE_ENABLED */
; 4346 : 	    q = xmlStaticCopyNode(node, doc, parent, 1);

	push	1
	push	DWORD PTR _parent$[ebp]
	push	ebx
	push	edi
	call	_xmlStaticCopyNode
	add	esp, 16					; 00000010H
	mov	esi, eax
$LN5@xmlStaticC:

; 4347 : 	if (q == NULL) return(NULL);

	test	esi, esi
	je	SHORT $LN18@xmlStaticC

; 4348 : 	if (ret == NULL) {

	cmp	DWORD PTR _ret$1$[ebp], 0
	jne	SHORT $LN11@xmlStaticC

; 4349 : 	    q->prev = NULL;
; 4350 : 	    ret = p = q;

	mov	ecx, esi
	mov	DWORD PTR [esi+28], 0
	mov	DWORD PTR _p$1$[ebp], esi
	mov	DWORD PTR _ret$1$[ebp], ecx
	jmp	SHORT $LN13@xmlStaticC
$LN11@xmlStaticC:

; 4351 : 	} else if (p != q) {

	mov	ecx, DWORD PTR _p$1$[ebp]
	cmp	ecx, esi
	je	SHORT $LN23@xmlStaticC

; 4352 : 	/* the test is required if xmlStaticCopyNode coalesced 2 text nodes */
; 4353 : 	    p->next = q;

	mov	DWORD PTR [ecx+24], esi

; 4354 : 	    q->prev = p;

	mov	DWORD PTR [esi+28], ecx

; 4355 : 	    p = q;

	mov	DWORD PTR _p$1$[ebp], esi
$LN23@xmlStaticC:

; 4323 :     xmlNodePtr ret = NULL;
; 4324 :     xmlNodePtr p = NULL,q;
; 4325 : 
; 4326 :     while (node != NULL) {

	mov	ecx, DWORD PTR _ret$1$[ebp]
$LN13@xmlStaticC:
	mov	eax, DWORD PTR [edi+24]
	mov	edi, eax
	test	eax, eax
	jne	$LL2@xmlStaticC
$LN3@xmlStaticC:
	pop	edi

; 4356 : 	}
; 4357 : 	node = node->next;
; 4358 :     }
; 4359 :     return(ret);
; 4360 : }

	pop	esi
	mov	eax, ecx
	pop	ebx
	mov	esp, ebp
	pop	ebp
	ret	0
$LN18@xmlStaticC:
	pop	edi
	pop	esi
	xor	eax, eax
	pop	ebx
	mov	esp, ebp
	pop	ebp
	ret	0
_xmlStaticCopyNodeList ENDP
_TEXT	ENDS
; Function compile flags: /Ogtp
; File c:\users\dag\documents\_clients\codeproject authors group\windows on arm\libxml2\libxml2-2.9.9\tree.c
;	COMDAT _xmlAddPropSibling
_TEXT	SEGMENT
_prev$ = 8						; size = 4
tv400 = 12						; size = 4
_cur$ = 12						; size = 4
_prop$ = 16						; size = 4
_xmlAddPropSibling PROC					; COMDAT

; 2958 : xmlAddPropSibling(xmlNodePtr prev, xmlNodePtr cur, xmlNodePtr prop) {

	push	ebp
	mov	ebp, esp
	push	ebx
	push	esi
	push	edi
	mov	ecx, OFFSET __59973643_tree@c
	call	@__CheckForDebuggerJustMyCode@4
	mov	edi, DWORD PTR _cur$[ebp]
	test	edi, edi
	je	$LN3@xmlAddProp

; 2959 : 	xmlAttrPtr attr;
; 2960 : 
; 2961 : 	if ((cur == NULL) || (cur->type != XML_ATTRIBUTE_NODE) ||
; 2962 : 	    (prop == NULL) || (prop->type != XML_ATTRIBUTE_NODE) ||

	cmp	DWORD PTR [edi+4], 2
	jne	$LN3@xmlAddProp
	mov	esi, DWORD PTR _prop$[ebp]
	test	esi, esi
	je	$LN3@xmlAddProp
	cmp	DWORD PTR [esi+4], 2
	jne	$LN3@xmlAddProp
	mov	ebx, DWORD PTR _prev$[ebp]
	test	ebx, ebx
	je	SHORT $LN2@xmlAddProp
	cmp	DWORD PTR [ebx+4], 2
	jne	$LN3@xmlAddProp
$LN2@xmlAddProp:

; 2963 : 	    ((prev != NULL) && (prev->type != XML_ATTRIBUTE_NODE)))
; 2964 : 		return(NULL);
; 2965 : 
; 2966 : 	/* check if an attribute with the same name exists */
; 2967 : 	if (prop->ns == NULL)

	mov	eax, DWORD PTR [esi+36]
	test	eax, eax
	jne	SHORT $LN4@xmlAddProp

; 2968 : 		attr = xmlHasNsProp(cur->parent, prop->name, NULL);

	xor	ecx, ecx
	jmp	SHORT $LN5@xmlAddProp
$LN4@xmlAddProp:

; 2969 : 	else
; 2970 : 		attr = xmlHasNsProp(cur->parent, prop->name, prop->ns->href);

	mov	ecx, DWORD PTR [eax+8]
$LN5@xmlAddProp:

; 2971 : 
; 2972 : 	if (prop->doc != cur->doc) {

	mov	eax, DWORD PTR [esi+8]
	push	ecx
	push	eax
	mov	eax, DWORD PTR [edi+20]
	push	eax
	call	_xmlHasNsProp
	mov	ecx, eax
	add	esp, 12					; 0000000cH
	mov	eax, DWORD PTR [edi+32]
	mov	DWORD PTR tv400[ebp], ecx
	cmp	DWORD PTR [esi+32], eax
	je	SHORT $LN6@xmlAddProp

; 2973 : 		xmlSetTreeDoc(prop, cur->doc);

	push	eax
	push	esi
	call	_xmlSetTreeDoc
	mov	ecx, DWORD PTR tv400[ebp]
	add	esp, 8
$LN6@xmlAddProp:

; 2974 : 	}
; 2975 : 	prop->parent = cur->parent;

	mov	eax, DWORD PTR [edi+20]
	mov	DWORD PTR [esi+20], eax

; 2976 : 	prop->prev = prev;

	mov	DWORD PTR [esi+28], ebx

; 2977 : 	if (prev != NULL) {

	test	ebx, ebx
	je	SHORT $LN7@xmlAddProp

; 2978 : 		prop->next = prev->next;

	mov	eax, DWORD PTR [ebx+24]
	mov	DWORD PTR [esi+24], eax

; 2979 : 		prev->next = prop;

	mov	DWORD PTR [ebx+24], esi

; 2980 : 		if (prop->next)

	mov	eax, DWORD PTR [esi+24]
	test	eax, eax
	je	SHORT $LN8@xmlAddProp

; 2981 : 			prop->next->prev = prop;

	mov	DWORD PTR [eax+28], esi

; 2982 : 	} else {

	jmp	SHORT $LN8@xmlAddProp
$LN7@xmlAddProp:

; 2983 : 		prop->next = cur;

	mov	DWORD PTR [esi+24], edi

; 2984 : 		cur->prev = prop;

	mov	DWORD PTR [edi+28], esi
$LN8@xmlAddProp:

; 2985 : 	}
; 2986 : 	if (prop->prev == NULL && prop->parent != NULL)

	cmp	DWORD PTR [esi+28], 0
	jne	SHORT $LN10@xmlAddProp
	mov	eax, DWORD PTR [esi+20]
	test	eax, eax
	je	SHORT $LN10@xmlAddProp

; 2987 : 		prop->parent->properties = (xmlAttrPtr) prop;

	mov	DWORD PTR [eax+44], esi
$LN10@xmlAddProp:

; 2988 : 	if ((attr != NULL) && (attr->type != XML_ATTRIBUTE_DECL)) {

	test	ecx, ecx
	je	SHORT $LN11@xmlAddProp
	cmp	DWORD PTR [ecx+4], 16			; 00000010H
	je	SHORT $LN11@xmlAddProp

; 2989 : 		/* different instance, destroy it (attributes must be unique) */
; 2990 : 		xmlRemoveProp((xmlAttrPtr) attr);

	push	ecx
	call	_xmlRemoveProp
	add	esp, 4
$LN11@xmlAddProp:

; 2991 : 	}
; 2992 : 	return prop;

	pop	edi
	mov	eax, esi

; 2993 : }

	pop	esi
	pop	ebx
	pop	ebp
	ret	0
$LN3@xmlAddProp:
	pop	edi
	pop	esi
	xor	eax, eax
	pop	ebx
	pop	ebp
	ret	0
_xmlAddPropSibling ENDP
_TEXT	ENDS
; Function compile flags: /Ogtp
; File c:\users\dag\documents\_clients\codeproject authors group\windows on arm\libxml2\libxml2-2.9.9\tree.c
;	COMDAT _xmlNewPropInternal
_TEXT	SEGMENT
_doc$1$ = -4						; size = 4
_node$ = 8						; size = 4
_ns$ = 12						; size = 4
_name$ = 16						; size = 4
_value$ = 20						; size = 4
_eatname$ = 24						; size = 4
_xmlNewPropInternal PROC				; COMDAT

; 1840 : {

	push	ebp
	mov	ebp, esp
	push	ecx
	push	ebx
	mov	ebx, DWORD PTR _name$[ebp]
	mov	ecx, OFFSET __59973643_tree@c
	push	edi
	call	@__CheckForDebuggerJustMyCode@4
	mov	edi, DWORD PTR _node$[ebp]
	mov	DWORD PTR _doc$1$[ebp], 0
	test	edi, edi
	je	SHORT $LN6@xmlNewProp

; 1841 :     xmlAttrPtr cur;
; 1842 :     xmlDocPtr doc = NULL;
; 1843 : 
; 1844 :     if ((node != NULL) && (node->type != XML_ELEMENT_NODE)) {

	cmp	DWORD PTR [edi+4], 1
	je	SHORT $LN6@xmlNewProp

; 1845 :         if ((eatname == 1) &&

	cmp	DWORD PTR _eatname$[ebp], 1
	jne	SHORT $LN7@xmlNewProp
	mov	eax, DWORD PTR [edi+32]
	test	eax, eax
	je	SHORT $LN8@xmlNewProp
	push	ebx
	push	DWORD PTR [eax+80]
	call	_xmlDictOwns
	add	esp, 8
	test	eax, eax
	jne	SHORT $LN7@xmlNewProp
$LN8@xmlNewProp:

; 1846 : 	    ((node->doc == NULL) ||
; 1847 : 	     (!(xmlDictOwns(node->doc->dict, name)))))
; 1848 :             xmlFree((xmlChar *) name);

	push	ebx
	call	DWORD PTR _xmlFree
	add	esp, 4
$LN7@xmlNewProp:

; 1849 :         return (NULL);

	pop	edi
	xor	eax, eax

; 1925 : }

	pop	ebx
	mov	esp, ebp
	pop	ebp
	ret	0
$LN6@xmlNewProp:
	push	esi

; 1850 :     }
; 1851 : 
; 1852 :     /*
; 1853 :      * Allocate a new property and fill the fields.
; 1854 :      */
; 1855 :     cur = (xmlAttrPtr) xmlMalloc(sizeof(xmlAttr));

	push	48					; 00000030H
	call	DWORD PTR _xmlMalloc
	mov	esi, eax
	add	esp, 4

; 1856 :     if (cur == NULL) {

	test	esi, esi
	jne	SHORT $LN9@xmlNewProp

; 1857 :         if ((eatname == 1) &&

	cmp	DWORD PTR _eatname$[ebp], 1
	jne	SHORT $LN10@xmlNewProp
	test	edi, edi
	je	SHORT $LN11@xmlNewProp
	mov	eax, DWORD PTR [edi+32]
	test	eax, eax
	je	SHORT $LN11@xmlNewProp
	push	ebx
	push	DWORD PTR [eax+80]
	call	_xmlDictOwns
	add	esp, 8
	test	eax, eax
	jne	SHORT $LN10@xmlNewProp
$LN11@xmlNewProp:

; 1858 : 	    ((node == NULL) || (node->doc == NULL) ||
; 1859 : 	     (!(xmlDictOwns(node->doc->dict, name)))))
; 1860 :             xmlFree((xmlChar *) name);

	push	ebx
	call	DWORD PTR _xmlFree
	add	esp, 4
$LN10@xmlNewProp:

; 80   :     __xmlSimpleError(XML_FROM_TREE, XML_ERR_NO_MEMORY, NULL, NULL, extra);

	push	OFFSET ??_C@_0BD@EEPKIILJ@building?5attribute@
	push	0
	push	0
	push	2
	push	2
	call	___xmlSimpleError
	add	esp, 20					; 00000014H

; 1861 :         xmlTreeErrMemory("building attribute");
; 1862 :         return (NULL);

	xor	eax, eax
	pop	esi
	pop	edi

; 1925 : }

	pop	ebx
	mov	esp, ebp
	pop	ebp
	ret	0
$LN9@xmlNewProp:

; 1863 :     }
; 1864 :     memset(cur, 0, sizeof(xmlAttr));

	push	48					; 00000030H
	push	0
	push	esi
	call	_memset
	add	esp, 12					; 0000000cH

; 1865 :     cur->type = XML_ATTRIBUTE_NODE;

	mov	DWORD PTR [esi+4], 2

; 1866 : 
; 1867 :     cur->parent = node;

	mov	DWORD PTR [esi+20], edi

; 1868 :     if (node != NULL) {

	test	edi, edi
	je	SHORT $LN51@xmlNewProp

; 1869 :         doc = node->doc;

	mov	ecx, DWORD PTR [edi+32]
	mov	DWORD PTR _doc$1$[ebp], ecx

; 1870 :         cur->doc = doc;

	mov	DWORD PTR [esi+32], ecx
	jmp	SHORT $LN12@xmlNewProp
$LN51@xmlNewProp:

; 1868 :     if (node != NULL) {

	xor	ecx, ecx
$LN12@xmlNewProp:

; 1871 :     }
; 1872 :     cur->ns = ns;
; 1873 : 
; 1874 :     if (eatname == 0) {

	cmp	DWORD PTR _eatname$[ebp], 0
	mov	eax, DWORD PTR _ns$[ebp]
	mov	DWORD PTR [esi+36], eax
	jne	SHORT $LN13@xmlNewProp

; 1875 :         if ((doc != NULL) && (doc->dict != NULL))

	test	ecx, ecx
	je	SHORT $LN15@xmlNewProp
	mov	eax, DWORD PTR [ecx+80]
	test	eax, eax
	je	SHORT $LN15@xmlNewProp

; 1876 :             cur->name = (xmlChar *) xmlDictLookup(doc->dict, name, -1);

	push	-1
	push	ebx
	push	eax
	call	_xmlDictLookup
	add	esp, 12					; 0000000cH
	jmp	SHORT $LN54@xmlNewProp
$LN15@xmlNewProp:

; 1877 :         else
; 1878 :             cur->name = xmlStrdup(name);

	push	ebx
	call	_xmlStrdup
	add	esp, 4
$LN54@xmlNewProp:

; 1879 :     } else

	mov	ebx, eax
$LN13@xmlNewProp:

; 1880 :         cur->name = name;
; 1881 : 
; 1882 :     if (value != NULL) {

	mov	eax, esi
	mov	DWORD PTR [eax+8], ebx
	mov	ebx, DWORD PTR _value$[ebp]
	test	ebx, ebx
	je	SHORT $LN3@xmlNewProp

; 1883 :         xmlNodePtr tmp;
; 1884 : 
; 1885 :         if(!xmlCheckUTF8(value)) {

	push	ebx
	call	_xmlCheckUTF8
	mov	ebx, DWORD PTR _doc$1$[ebp]
	add	esp, 4
	test	eax, eax
	jne	SHORT $LN19@xmlNewProp

; 111  :     __xmlSimpleError(XML_FROM_TREE, code, node, msg, extra);

	push	eax
	push	OFFSET ??_C@_0BI@KDLJAAPA@string?5is?5not?5in?5UTF?98?6@
	push	ebx
	push	1303					; 00000517H
	push	2
	call	___xmlSimpleError
	add	esp, 20					; 00000014H

; 1886 :             xmlTreeErr(XML_TREE_NOT_UTF8, (xmlNodePtr) doc,
; 1887 :                        NULL);
; 1888 :             if (doc != NULL)

	test	ebx, ebx
	je	SHORT $LN19@xmlNewProp

; 1889 :                 doc->encoding = xmlStrdup(BAD_CAST "ISO-8859-1");

	push	OFFSET ??_C@_0L@GJIJNDEK@ISO?98859?91@
	call	_xmlStrdup
	add	esp, 4
	mov	DWORD PTR [ebx+60], eax
$LN19@xmlNewProp:

; 2656 :     cur = xmlNewText(content);

	push	DWORD PTR _value$[ebp]
	call	_xmlNewText
	add	esp, 4

; 2657 :     if (cur != NULL) cur->doc = (xmlDoc *)doc;

	test	eax, eax
	je	SHORT $LN39@xmlNewProp
	mov	DWORD PTR [eax+32], ebx
$LN39@xmlNewProp:

; 1890 :         }
; 1891 :         cur->children = xmlNewDocText(doc, value);

	mov	DWORD PTR [esi+12], eax

; 1892 :         cur->last = NULL;

	mov	DWORD PTR [esi+16], 0

; 1893 :         tmp = cur->children;
; 1894 :         while (tmp != NULL) {

	test	eax, eax
	je	SHORT $LN52@xmlNewProp
	npad	1
$LL2@xmlNewProp:

; 1895 :             tmp->parent = (xmlNodePtr) cur;
; 1896 :             if (tmp->next == NULL)

	mov	ecx, DWORD PTR [eax+24]
	mov	DWORD PTR [eax+20], esi
	test	ecx, ecx
	jne	SHORT $LN49@xmlNewProp

; 1897 :                 cur->last = tmp;

	mov	DWORD PTR [esi+16], eax
	mov	ecx, DWORD PTR [eax+24]
$LN49@xmlNewProp:

; 1898 :             tmp = tmp->next;

	mov	eax, ecx
	test	ecx, ecx
	jne	SHORT $LL2@xmlNewProp
$LN52@xmlNewProp:

; 1899 :         }
; 1900 :     }
; 1901 : 
; 1902 :     /*
; 1903 :      * Add it at the end to preserve parsing order ...
; 1904 :      */
; 1905 :     if (node != NULL) {

	mov	ebx, DWORD PTR _value$[ebp]
$LN3@xmlNewProp:
	test	edi, edi
	je	SHORT $LN23@xmlNewProp

; 1906 :         if (node->properties == NULL) {

	mov	eax, DWORD PTR [edi+44]
	test	eax, eax
	jne	SHORT $LN22@xmlNewProp

; 1907 :             node->properties = cur;

	mov	DWORD PTR [edi+44], esi

; 1908 :         } else {

	jmp	SHORT $LN23@xmlNewProp
$LN22@xmlNewProp:

; 1909 :             xmlAttrPtr prev = node->properties;
; 1910 : 
; 1911 :             while (prev->next != NULL)

	mov	ecx, DWORD PTR [eax+24]
	test	ecx, ecx
	je	SHORT $LN5@xmlNewProp
$LL4@xmlNewProp:

; 1912 :                 prev = prev->next;

	mov	eax, ecx
	mov	ecx, DWORD PTR [eax+24]
	test	ecx, ecx
	jne	SHORT $LL4@xmlNewProp
$LN5@xmlNewProp:

; 1913 :             prev->next = cur;

	mov	DWORD PTR [eax+24], esi

; 1914 :             cur->prev = prev;

	mov	DWORD PTR [esi+28], eax
$LN23@xmlNewProp:

; 1915 :         }
; 1916 :     }
; 1917 : 
; 1918 :     if ((value != NULL) && (node != NULL) &&

	test	ebx, ebx
	je	SHORT $LN24@xmlNewProp
	test	edi, edi
	je	SHORT $LN24@xmlNewProp
	push	esi
	push	edi
	push	DWORD PTR [edi+32]
	call	_xmlIsID
	add	esp, 12					; 0000000cH
	cmp	eax, 1
	jne	SHORT $LN24@xmlNewProp

; 1919 :         (xmlIsID(node->doc, node, cur) == 1))
; 1920 :         xmlAddID(NULL, node->doc, value, cur);

	push	esi
	push	ebx
	push	DWORD PTR [edi+32]
	push	0
	call	_xmlAddID
	add	esp, 16					; 00000010H
$LN24@xmlNewProp:

; 1921 : 
; 1922 :     if ((__xmlRegisterCallbacks) && (xmlRegisterNodeDefaultValue))

	cmp	DWORD PTR ___xmlRegisterCallbacks, 0
	je	SHORT $LN25@xmlNewProp
	call	___xmlRegisterNodeDefaultValue
	cmp	DWORD PTR [eax], 0
	je	SHORT $LN25@xmlNewProp

; 1923 :         xmlRegisterNodeDefaultValue((xmlNodePtr) cur);

	call	___xmlRegisterNodeDefaultValue
	push	esi
	mov	ecx, DWORD PTR [eax]
	call	ecx
	add	esp, 4
$LN25@xmlNewProp:

; 1924 :     return (cur);

	mov	eax, esi
	pop	esi
	pop	edi

; 1925 : }

	pop	ebx
	mov	esp, ebp
	pop	ebp
	ret	0
_xmlNewPropInternal ENDP
_TEXT	ENDS
; Function compile flags: /Ogtp
; File c:\users\dag\documents\_clients\codeproject authors group\windows on arm\libxml2\libxml2-2.9.9\tree.c
;	COMDAT _xmlGetParameterEntityFromDtd
_TEXT	SEGMENT
_dtd$ = 8						; size = 4
_name$ = 12						; size = 4
_xmlGetParameterEntityFromDtd PROC			; COMDAT

; 190  : xmlGetParameterEntityFromDtd(const xmlDtd *dtd, const xmlChar *name) {

	push	ebp
	mov	ebp, esp
	mov	ecx, OFFSET __59973643_tree@c
	call	@__CheckForDebuggerJustMyCode@4
	mov	eax, DWORD PTR _dtd$[ebp]
	test	eax, eax
	je	SHORT $LN2@xmlGetPara

; 191  :     xmlEntitiesTablePtr table;
; 192  : 
; 193  :     if ((dtd != NULL) && (dtd->pentities != NULL)) {

	mov	eax, DWORD PTR [eax+60]
	test	eax, eax
	je	SHORT $LN2@xmlGetPara

; 194  : 	table = (xmlEntitiesTablePtr) dtd->pentities;
; 195  : 	return((xmlEntityPtr) xmlHashLookup(table, name));

	mov	DWORD PTR _dtd$[ebp], eax

; 199  : }

	pop	ebp

; 194  : 	table = (xmlEntitiesTablePtr) dtd->pentities;
; 195  : 	return((xmlEntityPtr) xmlHashLookup(table, name));

	jmp	_xmlHashLookup
$LN2@xmlGetPara:

; 196  : 	/* return(xmlGetEntityFromTable(table, name)); */
; 197  :     }
; 198  :     return(NULL);

	xor	eax, eax

; 199  : }

	pop	ebp
	ret	0
_xmlGetParameterEntityFromDtd ENDP
_TEXT	ENDS
; Function compile flags: /Ogtp
; File c:\users\dag\documents\_clients\codeproject authors group\windows on arm\libxml2\libxml2-2.9.9\tree.c
;	COMDAT _xmlGetEntityFromDtd
_TEXT	SEGMENT
_dtd$ = 8						; size = 4
_name$ = 12						; size = 4
_xmlGetEntityFromDtd PROC				; COMDAT

; 169  : xmlGetEntityFromDtd(const xmlDtd *dtd, const xmlChar *name) {

	push	ebp
	mov	ebp, esp
	mov	ecx, OFFSET __59973643_tree@c
	call	@__CheckForDebuggerJustMyCode@4
	mov	eax, DWORD PTR _dtd$[ebp]
	test	eax, eax
	je	SHORT $LN2@xmlGetEnti

; 170  :     xmlEntitiesTablePtr table;
; 171  : 
; 172  :     if((dtd != NULL) && (dtd->entities != NULL)) {

	mov	eax, DWORD PTR [eax+48]
	test	eax, eax
	je	SHORT $LN2@xmlGetEnti

; 173  : 	table = (xmlEntitiesTablePtr) dtd->entities;
; 174  : 	return((xmlEntityPtr) xmlHashLookup(table, name));

	mov	DWORD PTR _dtd$[ebp], eax

; 178  : }

	pop	ebp

; 173  : 	table = (xmlEntitiesTablePtr) dtd->entities;
; 174  : 	return((xmlEntityPtr) xmlHashLookup(table, name));

	jmp	_xmlHashLookup
$LN2@xmlGetEnti:

; 175  : 	/* return(xmlGetEntityFromTable(table, name)); */
; 176  :     }
; 177  :     return(NULL);

	xor	eax, eax

; 178  : }

	pop	ebp
	ret	0
_xmlGetEntityFromDtd ENDP
_TEXT	ENDS
; Function compile flags: /Ogtp
; File c:\users\dag\documents\_clients\codeproject authors group\windows on arm\libxml2\libxml2-2.9.9\tree.c
;	COMDAT _xmlTreeErr
_TEXT	SEGMENT
_code$ = 8						; size = 4
_node$ = 12						; size = 4
_extra$ = 16						; size = 4
_xmlTreeErr PROC					; COMDAT

; 92   : {

	push	ebp
	mov	ebp, esp
	mov	ecx, OFFSET __59973643_tree@c
	call	@__CheckForDebuggerJustMyCode@4
	mov	ecx, DWORD PTR _code$[ebp]
	lea	eax, DWORD PTR [ecx-1300]
	cmp	eax, 3
	ja	SHORT $LN8@xmlTreeErr

; 93   :     const char *msg = NULL;
; 94   : 
; 95   :     switch(code) {

	jmp	DWORD PTR $LN11@xmlTreeErr[eax*4]
$LN4@xmlTreeErr:

; 96   :         case XML_TREE_INVALID_HEX:
; 97   : 	    msg = "invalid hexadecimal character value\n";
; 98   : 	    break;
; 99   : 	case XML_TREE_INVALID_DEC:
; 100  : 	    msg = "invalid decimal character value\n";
; 101  : 	    break;
; 102  : 	case XML_TREE_UNTERMINATED_ENTITY:
; 103  : 	    msg = "unterminated entity reference %15s\n";
; 104  : 	    break;
; 105  : 	case XML_TREE_NOT_UTF8:
; 106  : 	    msg = "string is not in UTF-8\n";
; 107  : 	    break;
; 108  : 	default:
; 109  : 	    msg = "unexpected error number\n";
; 110  :     }
; 111  :     __xmlSimpleError(XML_FROM_TREE, code, node, msg, extra);

	push	DWORD PTR _extra$[ebp]
	mov	eax, OFFSET ??_C@_0CF@MFCHFOON@invalid?5hexadecimal?5character?5v@
	push	eax
	push	DWORD PTR _node$[ebp]
	push	ecx
	push	2
	call	___xmlSimpleError
	add	esp, 20					; 00000014H

; 112  : }

	pop	ebp
	ret	0
$LN5@xmlTreeErr:

; 96   :         case XML_TREE_INVALID_HEX:
; 97   : 	    msg = "invalid hexadecimal character value\n";
; 98   : 	    break;
; 99   : 	case XML_TREE_INVALID_DEC:
; 100  : 	    msg = "invalid decimal character value\n";
; 101  : 	    break;
; 102  : 	case XML_TREE_UNTERMINATED_ENTITY:
; 103  : 	    msg = "unterminated entity reference %15s\n";
; 104  : 	    break;
; 105  : 	case XML_TREE_NOT_UTF8:
; 106  : 	    msg = "string is not in UTF-8\n";
; 107  : 	    break;
; 108  : 	default:
; 109  : 	    msg = "unexpected error number\n";
; 110  :     }
; 111  :     __xmlSimpleError(XML_FROM_TREE, code, node, msg, extra);

	push	DWORD PTR _extra$[ebp]
	mov	eax, OFFSET ??_C@_0CB@MCPMOJHG@invalid?5decimal?5character?5value@
	push	eax
	push	DWORD PTR _node$[ebp]
	push	ecx
	push	2
	call	___xmlSimpleError
	add	esp, 20					; 00000014H

; 112  : }

	pop	ebp
	ret	0
$LN6@xmlTreeErr:

; 96   :         case XML_TREE_INVALID_HEX:
; 97   : 	    msg = "invalid hexadecimal character value\n";
; 98   : 	    break;
; 99   : 	case XML_TREE_INVALID_DEC:
; 100  : 	    msg = "invalid decimal character value\n";
; 101  : 	    break;
; 102  : 	case XML_TREE_UNTERMINATED_ENTITY:
; 103  : 	    msg = "unterminated entity reference %15s\n";
; 104  : 	    break;
; 105  : 	case XML_TREE_NOT_UTF8:
; 106  : 	    msg = "string is not in UTF-8\n";
; 107  : 	    break;
; 108  : 	default:
; 109  : 	    msg = "unexpected error number\n";
; 110  :     }
; 111  :     __xmlSimpleError(XML_FROM_TREE, code, node, msg, extra);

	push	DWORD PTR _extra$[ebp]
	mov	eax, OFFSET ??_C@_0CE@INHDJIAN@unterminated?5entity?5reference?5?$CF@
	push	eax
	push	DWORD PTR _node$[ebp]
	push	ecx
	push	2
	call	___xmlSimpleError
	add	esp, 20					; 00000014H

; 112  : }

	pop	ebp
	ret	0
$LN7@xmlTreeErr:

; 96   :         case XML_TREE_INVALID_HEX:
; 97   : 	    msg = "invalid hexadecimal character value\n";
; 98   : 	    break;
; 99   : 	case XML_TREE_INVALID_DEC:
; 100  : 	    msg = "invalid decimal character value\n";
; 101  : 	    break;
; 102  : 	case XML_TREE_UNTERMINATED_ENTITY:
; 103  : 	    msg = "unterminated entity reference %15s\n";
; 104  : 	    break;
; 105  : 	case XML_TREE_NOT_UTF8:
; 106  : 	    msg = "string is not in UTF-8\n";
; 107  : 	    break;
; 108  : 	default:
; 109  : 	    msg = "unexpected error number\n";
; 110  :     }
; 111  :     __xmlSimpleError(XML_FROM_TREE, code, node, msg, extra);

	push	DWORD PTR _extra$[ebp]
	mov	eax, OFFSET ??_C@_0BI@KDLJAAPA@string?5is?5not?5in?5UTF?98?6@
	push	eax
	push	DWORD PTR _node$[ebp]
	push	ecx
	push	2
	call	___xmlSimpleError
	add	esp, 20					; 00000014H

; 112  : }

	pop	ebp
	ret	0
$LN8@xmlTreeErr:

; 96   :         case XML_TREE_INVALID_HEX:
; 97   : 	    msg = "invalid hexadecimal character value\n";
; 98   : 	    break;
; 99   : 	case XML_TREE_INVALID_DEC:
; 100  : 	    msg = "invalid decimal character value\n";
; 101  : 	    break;
; 102  : 	case XML_TREE_UNTERMINATED_ENTITY:
; 103  : 	    msg = "unterminated entity reference %15s\n";
; 104  : 	    break;
; 105  : 	case XML_TREE_NOT_UTF8:
; 106  : 	    msg = "string is not in UTF-8\n";
; 107  : 	    break;
; 108  : 	default:
; 109  : 	    msg = "unexpected error number\n";
; 110  :     }
; 111  :     __xmlSimpleError(XML_FROM_TREE, code, node, msg, extra);

	push	DWORD PTR _extra$[ebp]
	mov	eax, OFFSET ??_C@_0BJ@IPOHNFHE@unexpected?5error?5number?6@
	push	eax
	push	DWORD PTR _node$[ebp]
	push	ecx
	push	2
	call	___xmlSimpleError
	add	esp, 20					; 00000014H

; 112  : }

	pop	ebp
	ret	0
	npad	1
$LN11@xmlTreeErr:
	DD	$LN4@xmlTreeErr
	DD	$LN5@xmlTreeErr
	DD	$LN6@xmlTreeErr
	DD	$LN7@xmlTreeErr
_xmlTreeErr ENDP
_TEXT	ENDS
; Function compile flags: /Ogtp
; File c:\users\dag\documents\_clients\codeproject authors group\windows on arm\libxml2\libxml2-2.9.9\tree.c
;	COMDAT _xmlTreeErrMemory
_TEXT	SEGMENT
_extra$ = 8						; size = 4
_xmlTreeErrMemory PROC					; COMDAT

; 79   : {

	push	ebp
	mov	ebp, esp
	mov	ecx, OFFSET __59973643_tree@c
	call	@__CheckForDebuggerJustMyCode@4
	push	DWORD PTR _extra$[ebp]
	push	0
	push	0
	push	2
	push	2
	call	___xmlSimpleError
	add	esp, 20					; 00000014H

; 80   :     __xmlSimpleError(XML_FROM_TREE, XML_ERR_NO_MEMORY, NULL, NULL, extra);
; 81   : }

	pop	ebp
	ret	0
_xmlTreeErrMemory ENDP
_TEXT	ENDS
; Function compile flags: /Ogtp
; File c:\users\dag\documents\_clients\codeproject authors group\windows on arm\libxml2\libxml2-2.9.9\tree.c
;	COMDAT _xmlGetPropNodeValueInternal
_TEXT	SEGMENT
_prop$ = 8						; size = 4
_xmlGetPropNodeValueInternal PROC			; COMDAT

; 6596 : {

	push	ebp
	mov	ebp, esp
	mov	ecx, OFFSET __59973643_tree@c
	call	@__CheckForDebuggerJustMyCode@4
	mov	eax, DWORD PTR _prop$[ebp]
	test	eax, eax
	je	SHORT $LN10@xmlGetProp

; 6597 :     if (prop == NULL)
; 6598 : 	return(NULL);
; 6599 :     if (prop->type == XML_ATTRIBUTE_NODE) {

	mov	ecx, DWORD PTR [eax+4]
	cmp	ecx, 2
	jne	SHORT $LN3@xmlGetProp

; 6600 : 	/*
; 6601 : 	* Note that we return at least the empty string.
; 6602 : 	*   TODO: Do we really always want that?
; 6603 : 	*/
; 6604 : 	if (prop->children != NULL) {

	mov	ecx, DWORD PTR [eax+12]
	test	ecx, ecx
	je	SHORT $LN9@xmlGetProp

; 6605 : 	    if ((prop->children->next == NULL) &&

	cmp	DWORD PTR [ecx+24], 0
	jne	SHORT $LN6@xmlGetProp
	mov	edx, DWORD PTR [ecx+4]
	cmp	edx, 3
	je	SHORT $LN8@xmlGetProp
	cmp	edx, 4
	jne	SHORT $LN6@xmlGetProp
$LN8@xmlGetProp:

; 6606 : 		((prop->children->type == XML_TEXT_NODE) ||
; 6607 : 		(prop->children->type == XML_CDATA_SECTION_NODE)))
; 6608 : 	    {
; 6609 : 		/*
; 6610 : 		* Optimization for the common case: only 1 text node.
; 6611 : 		*/
; 6612 : 		return(xmlStrdup(prop->children->content));

	push	DWORD PTR [ecx+40]
	call	_xmlStrdup
	add	esp, 4

; 6626 : }

	pop	ebp
	ret	0
$LN6@xmlGetProp:

; 6613 : 	    } else {
; 6614 : 		xmlChar *ret;
; 6615 : 
; 6616 : 		ret = xmlNodeListGetString(prop->doc, prop->children, 1);

	push	1
	push	ecx
	push	DWORD PTR [eax+32]
	call	_xmlNodeListGetString
	add	esp, 12					; 0000000cH

; 6617 : 		if (ret != NULL)

	test	eax, eax
	jne	SHORT $LN1@xmlGetProp
$LN9@xmlGetProp:

; 6618 : 		    return(ret);
; 6619 : 	    }
; 6620 : 	}
; 6621 : 	return(xmlStrdup((xmlChar *)""));

	mov	DWORD PTR _prop$[ebp], OFFSET ??_C@_00CNPNBAHC@@

; 6626 : }

	pop	ebp

; 6618 : 		    return(ret);
; 6619 : 	    }
; 6620 : 	}
; 6621 : 	return(xmlStrdup((xmlChar *)""));

	jmp	_xmlStrdup
$LN3@xmlGetProp:

; 6622 :     } else if (prop->type == XML_ATTRIBUTE_DECL) {

	cmp	ecx, 16					; 00000010H
	jne	SHORT $LN10@xmlGetProp

; 6623 : 	return(xmlStrdup(((xmlAttributePtr)prop)->defaultValue));

	push	DWORD PTR [eax+48]
	call	_xmlStrdup
	add	esp, 4

; 6626 : }

	pop	ebp
	ret	0
$LN10@xmlGetProp:

; 6624 :     }
; 6625 :     return(NULL);

	xor	eax, eax
$LN1@xmlGetProp:

; 6626 : }

	pop	ebp
	ret	0
_xmlGetPropNodeValueInternal ENDP
_TEXT	ENDS
; Function compile flags: /Ogtp
; File c:\users\dag\documents\_clients\codeproject authors group\windows on arm\libxml2\libxml2-2.9.9\tree.c
;	COMDAT _xmlNewReconciliedNs
_TEXT	SEGMENT
_prefix$ = -52						; size = 50
_doc$ = 8						; size = 4
tv221 = 12						; size = 4
_tree$ = 12						; size = 4
_ns$ = 16						; size = 4
_xmlNewReconciliedNs PROC				; COMDAT

; 6230 : xmlNewReconciliedNs(xmlDocPtr doc, xmlNodePtr tree, xmlNsPtr ns) {

	push	ebp
	mov	ebp, esp
	sub	esp, 52					; 00000034H
	mov	ecx, OFFSET __59973643_tree@c
	push	ebx
	push	esi
	push	edi
	call	@__CheckForDebuggerJustMyCode@4
	mov	ebx, DWORD PTR _tree$[ebp]
	mov	esi, 1
	test	ebx, ebx
	je	$LN5@xmlNewReco

; 6231 :     xmlNsPtr def;
; 6232 :     xmlChar prefix[50];
; 6233 :     int counter = 1;
; 6234 : 
; 6235 :     if ((tree == NULL) || (tree->type != XML_ELEMENT_NODE)) {

	cmp	DWORD PTR [ebx+4], esi
	jne	$LN5@xmlNewReco

; 6241 :     }
; 6242 :     if ((ns == NULL) || (ns->type != XML_NAMESPACE_DECL)) {

	mov	edi, DWORD PTR _ns$[ebp]
	test	edi, edi
	je	$LN5@xmlNewReco
	cmp	DWORD PTR [edi+4], 18			; 00000012H
	jne	$LN5@xmlNewReco

; 6243 : #ifdef DEBUG_TREE
; 6244 :         xmlGenericError(xmlGenericErrorContext,
; 6245 : 		"xmlNewReconciliedNs : ns == NULL\n");
; 6246 : #endif
; 6247 : 	return(NULL);
; 6248 :     }
; 6249 :     /*
; 6250 :      * Search an existing namespace definition inherited.
; 6251 :      */
; 6252 :     def = xmlSearchNsByHref(doc, tree, ns->href);

	push	DWORD PTR [edi+8]
	push	ebx
	push	DWORD PTR _doc$[ebp]
	call	_xmlSearchNsByHref
	add	esp, 12					; 0000000cH

; 6253 :     if (def != NULL)

	test	eax, eax
	jne	$LN1@xmlNewReco

; 6254 :         return(def);
; 6255 : 
; 6256 :     /*
; 6257 :      * Find a close prefix which is not already in use.
; 6258 :      * Let's strip namespace prefixes longer than 20 chars !
; 6259 :      */
; 6260 :     if (ns->prefix == NULL)

	mov	eax, DWORD PTR [edi+12]
	test	eax, eax
	jne	SHORT $LN9@xmlNewReco

; 6261 : 	snprintf((char *) prefix, sizeof(prefix), "default");

	push	OFFSET ??_C@_07DLHCIBDH@default@
	lea	eax, DWORD PTR _prefix$[ebp]
	push	50					; 00000032H
	push	eax
	call	_snprintf
	add	esp, 12					; 0000000cH
	jmp	SHORT $LN10@xmlNewReco
$LN9@xmlNewReco:

; 6262 :     else
; 6263 : 	snprintf((char *) prefix, sizeof(prefix), "%.20s", (char *)ns->prefix);

	push	eax
	push	OFFSET ??_C@_05BNPGKEDD@?$CF?420s@
	lea	eax, DWORD PTR _prefix$[ebp]
	push	50					; 00000032H
	push	eax
	call	_snprintf
	add	esp, 16					; 00000010H
$LN10@xmlNewReco:

; 6264 : 
; 6265 :     def = xmlSearchNs(doc, tree, prefix);

	lea	eax, DWORD PTR _prefix$[ebp]
	push	eax
	push	ebx
	push	DWORD PTR _doc$[ebp]
	call	_xmlSearchNs
	add	esp, 12					; 0000000cH

; 6266 :     while (def != NULL) {

	test	eax, eax
	je	SHORT $LN3@xmlNewReco
	npad	4
$LL2@xmlNewReco:

; 6267 :         if (counter > 1000) return(NULL);

	cmp	esi, 1000				; 000003e8H
	jg	SHORT $LN5@xmlNewReco

; 6268 : 	if (ns->prefix == NULL)

	mov	eax, DWORD PTR [edi+12]
	lea	ecx, DWORD PTR [esi+1]
	mov	DWORD PTR tv221[ebp], ecx
	push	esi
	test	eax, eax
	jne	SHORT $LN12@xmlNewReco

; 6269 : 	    snprintf((char *) prefix, sizeof(prefix), "default%d", counter++);

	push	OFFSET ??_C@_09DFKPACFI@default?$CFd@
	lea	eax, DWORD PTR _prefix$[ebp]
	push	50					; 00000032H
	push	eax
	call	_snprintf
	add	esp, 16					; 00000010H
	jmp	SHORT $LN13@xmlNewReco
$LN12@xmlNewReco:

; 6270 : 	else
; 6271 : 	    snprintf((char *) prefix, sizeof(prefix), "%.20s%d",

	push	eax
	push	OFFSET ??_C@_07BKMHDFJP@?$CF?420s?$CFd@
	lea	eax, DWORD PTR _prefix$[ebp]
	push	50					; 00000032H
	push	eax
	call	_snprintf
	add	esp, 20					; 00000014H
$LN13@xmlNewReco:

; 6272 : 		(char *)ns->prefix, counter++);
; 6273 : 	def = xmlSearchNs(doc, tree, prefix);

	mov	esi, DWORD PTR tv221[ebp]
	lea	eax, DWORD PTR _prefix$[ebp]
	push	eax
	push	ebx
	push	DWORD PTR _doc$[ebp]
	call	_xmlSearchNs
	add	esp, 12					; 0000000cH
	test	eax, eax
	jne	SHORT $LL2@xmlNewReco
$LN3@xmlNewReco:

; 6274 :     }
; 6275 : 
; 6276 :     /*
; 6277 :      * OK, now we are ready to create a new one.
; 6278 :      */
; 6279 :     def = xmlNewNs(tree, ns->href, prefix);

	lea	eax, DWORD PTR _prefix$[ebp]
	push	eax
	push	DWORD PTR [edi+8]
	push	ebx
	call	_xmlNewNs
	add	esp, 12					; 0000000cH
	pop	edi

; 6280 :     return(def);
; 6281 : }

	pop	esi
	pop	ebx
	mov	esp, ebp
	pop	ebp
	ret	0
$LN5@xmlNewReco:

; 6236 : #ifdef DEBUG_TREE
; 6237 :         xmlGenericError(xmlGenericErrorContext,
; 6238 : 		"xmlNewReconciliedNs : tree == NULL\n");
; 6239 : #endif
; 6240 : 	return(NULL);

	xor	eax, eax
$LN1@xmlNewReco:
	pop	edi

; 6280 :     return(def);
; 6281 : }

	pop	esi
	pop	ebx
	mov	esp, ebp
	pop	ebp
	ret	0
_xmlNewReconciliedNs ENDP
_TEXT	ENDS
; Function compile flags: /Ogtp
; File c:\users\dag\documents\_clients\codeproject authors group\windows on arm\libxml2\libxml2-2.9.9\tree.c
;	COMDAT _xmlPreviousElementSibling
_TEXT	SEGMENT
_node$ = 8						; size = 4
_xmlPreviousElementSibling PROC				; COMDAT

; 3589 : xmlPreviousElementSibling(xmlNodePtr node) {

	push	ebp
	mov	ebp, esp
	mov	ecx, OFFSET __59973643_tree@c
	call	@__CheckForDebuggerJustMyCode@4
	mov	ecx, DWORD PTR _node$[ebp]
	test	ecx, ecx
	je	SHORT $LN8@xmlPreviou

; 3590 :     if (node == NULL)
; 3591 :         return(NULL);
; 3592 :     switch (node->type) {

	mov	eax, DWORD PTR [ecx+4]
	dec	eax
	cmp	eax, 19					; 00000013H
	ja	SHORT $LN8@xmlPreviou
	movzx	eax, BYTE PTR $LN16@xmlPreviou[eax]
	jmp	DWORD PTR $LN18@xmlPreviou[eax*4]
$LN7@xmlPreviou:

; 3593 :         case XML_ELEMENT_NODE:
; 3594 :         case XML_TEXT_NODE:
; 3595 :         case XML_CDATA_SECTION_NODE:
; 3596 :         case XML_ENTITY_REF_NODE:
; 3597 :         case XML_ENTITY_NODE:
; 3598 :         case XML_PI_NODE:
; 3599 :         case XML_COMMENT_NODE:
; 3600 :         case XML_XINCLUDE_START:
; 3601 :         case XML_XINCLUDE_END:
; 3602 :             node = node->prev;

	mov	eax, DWORD PTR [ecx+28]

; 3606 :     }
; 3607 :     while (node != NULL) {

	test	eax, eax
	je	SHORT $LN8@xmlPreviou
$LL4@xmlPreviou:

; 3608 :         if (node->type == XML_ELEMENT_NODE)

	cmp	DWORD PTR [eax+4], 1
	je	SHORT $LN1@xmlPreviou

; 3609 :             return(node);
; 3610 :         node = node->prev;

	mov	eax, DWORD PTR [eax+28]
	test	eax, eax
	jne	SHORT $LL4@xmlPreviou
$LN8@xmlPreviou:

; 3603 :             break;
; 3604 :         default:
; 3605 :             return(NULL);

	xor	eax, eax
$LN1@xmlPreviou:

; 3611 :     }
; 3612 :     return(NULL);
; 3613 : }

	pop	ebp
	ret	0
	npad	1
$LN18@xmlPreviou:
	DD	$LN7@xmlPreviou
	DD	$LN8@xmlPreviou
$LN16@xmlPreviou:
	DB	0
	DB	1
	DB	0
	DB	0
	DB	0
	DB	0
	DB	0
	DB	0
	DB	1
	DB	1
	DB	1
	DB	1
	DB	1
	DB	1
	DB	1
	DB	1
	DB	1
	DB	1
	DB	0
	DB	0
_xmlPreviousElementSibling ENDP
_TEXT	ENDS
; Function compile flags: /Ogtp
; File c:\users\dag\documents\_clients\codeproject authors group\windows on arm\libxml2\libxml2-2.9.9\tree.c
;	COMDAT _xmlLastElementChild
_TEXT	SEGMENT
_parent$ = 8						; size = 4
_xmlLastElementChild PROC				; COMDAT

; 3552 : xmlLastElementChild(xmlNodePtr parent) {

	push	ebp
	mov	ebp, esp
	mov	ecx, OFFSET __59973643_tree@c
	call	@__CheckForDebuggerJustMyCode@4
	mov	ecx, DWORD PTR _parent$[ebp]
	test	ecx, ecx
	je	SHORT $LN8@xmlLastEle

; 3553 :     xmlNodePtr cur = NULL;
; 3554 : 
; 3555 :     if (parent == NULL)
; 3556 :         return(NULL);
; 3557 :     switch (parent->type) {

	mov	eax, DWORD PTR [ecx+4]
	dec	eax
	cmp	eax, 12					; 0000000cH
	ja	SHORT $LN8@xmlLastEle
	movzx	eax, BYTE PTR $LN16@xmlLastEle[eax]
	jmp	DWORD PTR $LN18@xmlLastEle[eax*4]
$LN7@xmlLastEle:

; 3558 :         case XML_ELEMENT_NODE:
; 3559 :         case XML_ENTITY_NODE:
; 3560 :         case XML_DOCUMENT_NODE:
; 3561 :         case XML_DOCUMENT_FRAG_NODE:
; 3562 :         case XML_HTML_DOCUMENT_NODE:
; 3563 :             cur = parent->last;

	mov	eax, DWORD PTR [ecx+16]

; 3567 :     }
; 3568 :     while (cur != NULL) {

	test	eax, eax
	je	SHORT $LN8@xmlLastEle
$LL4@xmlLastEle:

; 3569 :         if (cur->type == XML_ELEMENT_NODE)

	cmp	DWORD PTR [eax+4], 1
	je	SHORT $LN1@xmlLastEle

; 3570 :             return(cur);
; 3571 :         cur = cur->prev;

	mov	eax, DWORD PTR [eax+28]
	test	eax, eax
	jne	SHORT $LL4@xmlLastEle
$LN8@xmlLastEle:

; 3564 :             break;
; 3565 :         default:
; 3566 :             return(NULL);

	xor	eax, eax
$LN1@xmlLastEle:

; 3572 :     }
; 3573 :     return(NULL);
; 3574 : }

	pop	ebp
	ret	0
	npad	1
$LN18@xmlLastEle:
	DD	$LN7@xmlLastEle
	DD	$LN8@xmlLastEle
$LN16@xmlLastEle:
	DB	0
	DB	1
	DB	1
	DB	1
	DB	1
	DB	0
	DB	1
	DB	1
	DB	0
	DB	1
	DB	0
	DB	1
	DB	0
_xmlLastElementChild ENDP
_TEXT	ENDS
; Function compile flags: /Ogtp
; File c:\users\dag\documents\_clients\codeproject authors group\windows on arm\libxml2\libxml2-2.9.9\tree.c
;	COMDAT _xmlFirstElementChild
_TEXT	SEGMENT
_parent$ = 8						; size = 4
_xmlFirstElementChild PROC				; COMDAT

; 3516 : xmlFirstElementChild(xmlNodePtr parent) {

	push	ebp
	mov	ebp, esp
	mov	ecx, OFFSET __59973643_tree@c
	call	@__CheckForDebuggerJustMyCode@4
	mov	ecx, DWORD PTR _parent$[ebp]
	test	ecx, ecx
	je	SHORT $LN8@xmlFirstEl

; 3517 :     xmlNodePtr cur = NULL;
; 3518 : 
; 3519 :     if (parent == NULL)
; 3520 :         return(NULL);
; 3521 :     switch (parent->type) {

	mov	eax, DWORD PTR [ecx+4]
	dec	eax
	cmp	eax, 12					; 0000000cH
	ja	SHORT $LN8@xmlFirstEl
	movzx	eax, BYTE PTR $LN16@xmlFirstEl[eax]
	jmp	DWORD PTR $LN18@xmlFirstEl[eax*4]
$LN7@xmlFirstEl:

; 3522 :         case XML_ELEMENT_NODE:
; 3523 :         case XML_ENTITY_NODE:
; 3524 :         case XML_DOCUMENT_NODE:
; 3525 :         case XML_DOCUMENT_FRAG_NODE:
; 3526 :         case XML_HTML_DOCUMENT_NODE:
; 3527 :             cur = parent->children;

	mov	eax, DWORD PTR [ecx+12]

; 3531 :     }
; 3532 :     while (cur != NULL) {

	test	eax, eax
	je	SHORT $LN8@xmlFirstEl
$LL4@xmlFirstEl:

; 3533 :         if (cur->type == XML_ELEMENT_NODE)

	cmp	DWORD PTR [eax+4], 1
	je	SHORT $LN1@xmlFirstEl

; 3534 :             return(cur);
; 3535 :         cur = cur->next;

	mov	eax, DWORD PTR [eax+24]
	test	eax, eax
	jne	SHORT $LL4@xmlFirstEl
$LN8@xmlFirstEl:

; 3528 :             break;
; 3529 :         default:
; 3530 :             return(NULL);

	xor	eax, eax
$LN1@xmlFirstEl:

; 3536 :     }
; 3537 :     return(NULL);
; 3538 : }

	pop	ebp
	ret	0
	npad	1
$LN18@xmlFirstEl:
	DD	$LN7@xmlFirstEl
	DD	$LN8@xmlFirstEl
$LN16@xmlFirstEl:
	DB	0
	DB	1
	DB	1
	DB	1
	DB	1
	DB	0
	DB	1
	DB	1
	DB	0
	DB	1
	DB	0
	DB	1
	DB	0
_xmlFirstElementChild ENDP
_TEXT	ENDS
; Function compile flags: /Ogtp
; File c:\users\dag\documents\_clients\codeproject authors group\windows on arm\libxml2\libxml2-2.9.9\tree.c
;	COMDAT _xmlNextElementSibling
_TEXT	SEGMENT
_node$ = 8						; size = 4
_xmlNextElementSibling PROC				; COMDAT

; 3628 : xmlNextElementSibling(xmlNodePtr node) {

	push	ebp
	mov	ebp, esp
	mov	ecx, OFFSET __59973643_tree@c
	call	@__CheckForDebuggerJustMyCode@4
	mov	ecx, DWORD PTR _node$[ebp]
	test	ecx, ecx
	je	SHORT $LN8@xmlNextEle

; 3629 :     if (node == NULL)
; 3630 :         return(NULL);
; 3631 :     switch (node->type) {

	mov	eax, DWORD PTR [ecx+4]
	dec	eax
	cmp	eax, 19					; 00000013H
	ja	SHORT $LN8@xmlNextEle
	movzx	eax, BYTE PTR $LN16@xmlNextEle[eax]
	jmp	DWORD PTR $LN18@xmlNextEle[eax*4]
$LN7@xmlNextEle:

; 3632 :         case XML_ELEMENT_NODE:
; 3633 :         case XML_TEXT_NODE:
; 3634 :         case XML_CDATA_SECTION_NODE:
; 3635 :         case XML_ENTITY_REF_NODE:
; 3636 :         case XML_ENTITY_NODE:
; 3637 :         case XML_PI_NODE:
; 3638 :         case XML_COMMENT_NODE:
; 3639 :         case XML_DTD_NODE:
; 3640 :         case XML_XINCLUDE_START:
; 3641 :         case XML_XINCLUDE_END:
; 3642 :             node = node->next;

	mov	eax, DWORD PTR [ecx+24]

; 3646 :     }
; 3647 :     while (node != NULL) {

	test	eax, eax
	je	SHORT $LN8@xmlNextEle
$LL4@xmlNextEle:

; 3648 :         if (node->type == XML_ELEMENT_NODE)

	cmp	DWORD PTR [eax+4], 1
	je	SHORT $LN1@xmlNextEle

; 3649 :             return(node);
; 3650 :         node = node->next;

	mov	eax, DWORD PTR [eax+24]
	test	eax, eax
	jne	SHORT $LL4@xmlNextEle
$LN8@xmlNextEle:

; 3643 :             break;
; 3644 :         default:
; 3645 :             return(NULL);

	xor	eax, eax
$LN1@xmlNextEle:

; 3651 :     }
; 3652 :     return(NULL);
; 3653 : }

	pop	ebp
	ret	0
	npad	1
$LN18@xmlNextEle:
	DD	$LN7@xmlNextEle
	DD	$LN8@xmlNextEle
$LN16@xmlNextEle:
	DB	0
	DB	1
	DB	0
	DB	0
	DB	0
	DB	0
	DB	0
	DB	0
	DB	1
	DB	1
	DB	1
	DB	1
	DB	1
	DB	0
	DB	1
	DB	1
	DB	1
	DB	1
	DB	0
	DB	0
_xmlNextElementSibling ENDP
_TEXT	ENDS
; Function compile flags: /Ogtp
; File c:\users\dag\documents\_clients\codeproject authors group\windows on arm\libxml2\libxml2-2.9.9\tree.c
;	COMDAT _xmlChildElementCount
_TEXT	SEGMENT
_parent$ = 8						; size = 4
_xmlChildElementCount PROC				; COMDAT

; 3479 : xmlChildElementCount(xmlNodePtr parent) {

	push	ebp
	mov	ebp, esp
	mov	ecx, OFFSET __59973643_tree@c
	call	@__CheckForDebuggerJustMyCode@4
	mov	ecx, DWORD PTR _parent$[ebp]
	xor	edx, edx
	test	ecx, ecx
	je	SHORT $LN8@xmlChildEl

; 3480 :     unsigned long ret = 0;
; 3481 :     xmlNodePtr cur = NULL;
; 3482 : 
; 3483 :     if (parent == NULL)
; 3484 :         return(0);
; 3485 :     switch (parent->type) {

	mov	eax, DWORD PTR [ecx+4]
	dec	eax
	cmp	eax, 12					; 0000000cH
	ja	SHORT $LN8@xmlChildEl
	movzx	eax, BYTE PTR $LN15@xmlChildEl[eax]
	jmp	DWORD PTR $LN17@xmlChildEl[eax*4]
$LN7@xmlChildEl:

; 3486 :         case XML_ELEMENT_NODE:
; 3487 :         case XML_ENTITY_NODE:
; 3488 :         case XML_DOCUMENT_NODE:
; 3489 :         case XML_DOCUMENT_FRAG_NODE:
; 3490 :         case XML_HTML_DOCUMENT_NODE:
; 3491 :             cur = parent->children;

	mov	ecx, DWORD PTR [ecx+12]

; 3495 :     }
; 3496 :     while (cur != NULL) {

	test	ecx, ecx
	je	SHORT $LN5@xmlChildEl
$LL4@xmlChildEl:

; 3497 :         if (cur->type == XML_ELEMENT_NODE)
; 3498 :             ret++;
; 3499 :         cur = cur->next;

	cmp	DWORD PTR [ecx+4], 1
	lea	eax, DWORD PTR [edx+1]
	mov	ecx, DWORD PTR [ecx+24]
	cmovne	eax, edx
	mov	edx, eax
	test	ecx, ecx
	jne	SHORT $LL4@xmlChildEl
$LN5@xmlChildEl:

; 3500 :     }
; 3501 :     return(ret);

	mov	eax, edx

; 3502 : }

	pop	ebp
	ret	0
$LN8@xmlChildEl:

; 3492 :             break;
; 3493 :         default:
; 3494 :             return(0);

	xor	eax, eax

; 3502 : }

	pop	ebp
	ret	0
	npad	1
$LN17@xmlChildEl:
	DD	$LN7@xmlChildEl
	DD	$LN8@xmlChildEl
$LN15@xmlChildEl:
	DB	0
	DB	1
	DB	1
	DB	1
	DB	1
	DB	0
	DB	1
	DB	1
	DB	0
	DB	1
	DB	0
	DB	1
	DB	0
_xmlChildElementCount ENDP
_TEXT	ENDS
; Function compile flags: /Ogtp
; File c:\users\dag\documents\_clients\codeproject authors group\windows on arm\libxml2\libxml2-2.9.9\tree.c
;	COMDAT _xmlDOMWrapCloneNode
_TEXT	SEGMENT
_curElem$1$ = -48					; size = 4
_cloneNsDefSlot$1$ = -44				; size = 4
_cur$1$ = -40						; size = 4
_cloneNs$1$ = -36					; size = 4
_ns$ = -36						; size = 4
_parnsdone$1$ = -32					; size = 4
_resultClone$1$ = -28					; size = 4
_sourceDoc$1$ = -24					; size = 4
_parentClone$1$ = -20					; size = 4
_dict$1$ = -16						; size = 4
_depth$1$ = -12						; size = 4
_nsMap$ = -8						; size = 4
_clone$1$ = -4						; size = 4
_ctxt$ = 8						; size = 4
_sourceDoc$ = 12					; size = 4
_node$ = 16						; size = 4
_resNode$ = 20						; size = 4
_destDoc$ = 24						; size = 4
_destParent$ = 28					; size = 4
_deep$ = 32						; size = 4
_options$ = 36						; size = 4
_xmlDOMWrapCloneNode PROC				; COMDAT

; 9378 : {

	push	ebp
	mov	ebp, esp
	sub	esp, 48					; 00000030H
	push	ebx
	push	esi
	push	edi
	mov	ecx, OFFSET __59973643_tree@c
	call	@__CheckForDebuggerJustMyCode@4
	mov	ecx, DWORD PTR _node$[ebp]
	xor	esi, esi
	xor	edi, edi
	mov	DWORD PTR _curElem$1$[ebp], 0
	mov	DWORD PTR _nsMap$[ebp], esi
	mov	DWORD PTR _depth$1$[ebp], -1
	mov	DWORD PTR _parnsdone$1$[ebp], esi
	mov	DWORD PTR _resultClone$1$[ebp], esi
	mov	DWORD PTR _parentClone$1$[ebp], esi
	test	ecx, ecx
	je	$LN23@xmlDOMWrap

; 9379 :     int ret = 0;
; 9380 :     xmlNodePtr cur, curElem = NULL;
; 9381 :     xmlNsMapPtr nsMap = NULL;
; 9382 :     xmlNsMapItemPtr mi;
; 9383 :     xmlNsPtr ns;
; 9384 :     int depth = -1;
; 9385 :     /* int adoptStr = 1; */
; 9386 :     /* gather @parent's ns-decls. */
; 9387 :     int parnsdone = 0;
; 9388 :     /*
; 9389 :     * @ancestorsOnly:
; 9390 :     * TODO: @ancestorsOnly should be set per option.
; 9391 :     *
; 9392 :     */
; 9393 :     int ancestorsOnly = 0;
; 9394 :     xmlNodePtr resultClone = NULL, clone = NULL, parentClone = NULL, prevClone = NULL;
; 9395 :     xmlNsPtr cloneNs = NULL, *cloneNsDefSlot = NULL;
; 9396 :     xmlDictPtr dict; /* The destination dict */
; 9397 : 
; 9398 :     if ((node == NULL) || (resNode == NULL) || (destDoc == NULL))

	cmp	DWORD PTR _resNode$[ebp], esi
	je	$LN23@xmlDOMWrap
	mov	ebx, DWORD PTR _destDoc$[ebp]
	test	ebx, ebx
	je	$LN23@xmlDOMWrap

; 9399 : 	return(-1);
; 9400 :     /*
; 9401 :     * TODO: Initially we support only element-nodes.
; 9402 :     */
; 9403 :     if (node->type != XML_ELEMENT_NODE)

	cmp	DWORD PTR [ecx+4], 1
	je	SHORT $LN24@xmlDOMWrap

; 9404 : 	return(1);

	pop	edi
	lea	eax, DWORD PTR [esi+1]

; 9878 : }

	pop	esi
	pop	ebx
	mov	esp, ebp
	pop	ebp
	ret	0
$LN24@xmlDOMWrap:

; 9405 :     /*
; 9406 :     * Check node->doc sanity.
; 9407 :     */
; 9408 :     if ((node->doc != NULL) && (sourceDoc != NULL) &&

	mov	eax, DWORD PTR [ecx+32]
	mov	edx, DWORD PTR _sourceDoc$[ebp]
	mov	DWORD PTR _sourceDoc$1$[ebp], edx
	test	eax, eax
	je	SHORT $LN25@xmlDOMWrap
	test	edx, edx
	je	SHORT $LN190@xmlDOMWrap
	cmp	eax, edx
	jne	$LN23@xmlDOMWrap
$LN25@xmlDOMWrap:

; 9409 : 	(node->doc != sourceDoc)) {
; 9410 : 	/*
; 9411 : 	* Might be an XIncluded node.
; 9412 : 	*/
; 9413 : 	return (-1);
; 9414 :     }
; 9415 :     if (sourceDoc == NULL)

	test	edx, edx
	jne	SHORT $LN27@xmlDOMWrap
$LN190@xmlDOMWrap:

; 9416 : 	sourceDoc = node->doc;

	mov	edx, eax
	mov	DWORD PTR _sourceDoc$1$[ebp], edx

; 9417 :     if (sourceDoc == NULL)

	test	edx, edx
	je	$LN23@xmlDOMWrap
$LN27@xmlDOMWrap:

; 9418 :         return (-1);
; 9419 : 
; 9420 :     dict = destDoc->dict;

	mov	eax, DWORD PTR [ebx+80]
	mov	DWORD PTR _dict$1$[ebp], eax

; 9421 :     /*
; 9422 :     * Reuse the namespace map of the context.
; 9423 :     */
; 9424 :     if (ctxt)

	mov	eax, DWORD PTR _ctxt$[ebp]
	test	eax, eax
	je	SHORT $LN183@xmlDOMWrap

; 9425 : 	nsMap = (xmlNsMapPtr) ctxt->namespaceMap;

	mov	esi, DWORD PTR [eax+8]
	mov	DWORD PTR _nsMap$[ebp], esi
$LN183@xmlDOMWrap:

; 9426 : 
; 9427 :     *resNode = NULL;

	mov	eax, DWORD PTR _resNode$[ebp]

; 9428 : 
; 9429 :     cur = node;

	mov	ebx, ecx
	mov	DWORD PTR _cur$1$[ebp], ebx
	mov	DWORD PTR [eax], edi

; 9430 :     if ((cur != NULL) && (cur->type == XML_NAMESPACE_DECL))

	cmp	DWORD PTR [ecx+4], 18			; 00000012H
	je	$LN23@xmlDOMWrap
$LL2@xmlDOMWrap:

; 9431 :         return(-1);
; 9432 : 
; 9433 :     while (cur != NULL) {

	test	ebx, ebx
	je	$LN221@xmlDOMWrap

; 9434 : 	if (cur->doc != sourceDoc) {

	cmp	DWORD PTR [ebx+32], edx
	jne	$internal_error$230

; 9435 : 	    /*
; 9436 : 	    * We'll assume XIncluded nodes if the doc differs.
; 9437 : 	    * TODO: Do we need to reconciliate XIncluded nodes?
; 9438 : 	    * TODO: This here returns -1 in this case.
; 9439 : 	    */
; 9440 : 	    goto internal_error;
; 9441 : 	}
; 9442 : 	/*
; 9443 : 	* Create a new node.
; 9444 : 	*/
; 9445 : 	switch (cur->type) {

	mov	eax, DWORD PTR [ebx+4]
	dec	eax
	cmp	eax, 10					; 0000000aH
	ja	$internal_error$230
	movzx	eax, BYTE PTR $LN212@xmlDOMWrap[eax]
	jmp	DWORD PTR $LN228@xmlDOMWrap[eax*4]
$LN32@xmlDOMWrap:

; 9446 : 	    case XML_XINCLUDE_START:
; 9447 : 	    case XML_XINCLUDE_END:
; 9448 : 		/*
; 9449 : 		* TODO: What to do with XInclude?
; 9450 : 		*/
; 9451 : 		goto internal_error;
; 9452 : 		break;
; 9453 : 	    case XML_ELEMENT_NODE:
; 9454 : 	    case XML_TEXT_NODE:
; 9455 : 	    case XML_CDATA_SECTION_NODE:
; 9456 : 	    case XML_COMMENT_NODE:
; 9457 : 	    case XML_PI_NODE:
; 9458 : 	    case XML_DOCUMENT_FRAG_NODE:
; 9459 : 	    case XML_ENTITY_REF_NODE:
; 9460 : 	    case XML_ENTITY_NODE:
; 9461 : 		/*
; 9462 : 		* Nodes of xmlNode structure.
; 9463 : 		*/
; 9464 : 		clone = (xmlNodePtr) xmlMalloc(sizeof(xmlNode));

	push	60					; 0000003cH
	call	DWORD PTR _xmlMalloc
	add	esp, 4
	mov	DWORD PTR _clone$1$[ebp], eax

; 9465 : 		if (clone == NULL) {

	test	eax, eax
	je	$LN152@xmlDOMWrap

; 9467 : 		    goto internal_error;
; 9468 : 		}
; 9469 : 		memset(clone, 0, sizeof(xmlNode));

	push	60					; 0000003cH
	push	0
	push	eax
	call	_memset
	add	esp, 12					; 0000000cH

; 9470 : 		/*
; 9471 : 		* Set hierachical links.
; 9472 : 		*/
; 9473 : 		if (resultClone != NULL) {

	cmp	DWORD PTR _resultClone$1$[ebp], 0
	je	SHORT $LN40@xmlDOMWrap

; 9474 : 		    clone->parent = parentClone;

	mov	ecx, DWORD PTR _clone$1$[ebp]
	mov	eax, DWORD PTR _parentClone$1$[ebp]
	mov	DWORD PTR [ecx+20], eax

; 9475 : 		    if (prevClone) {

	test	edi, edi
	je	SHORT $LN36@xmlDOMWrap

; 9476 : 			prevClone->next = clone;

	mov	DWORD PTR [edi+24], ecx

; 9477 : 			clone->prev = prevClone;

	mov	DWORD PTR [ecx+28], edi

; 9478 : 		    } else

	mov	edi, ecx
	jmp	SHORT $LN41@xmlDOMWrap
$LN36@xmlDOMWrap:

; 9479 : 			parentClone->children = clone;

	mov	edi, DWORD PTR _clone$1$[ebp]
	mov	DWORD PTR [eax+12], edi

; 9480 : 		} else
; 9481 : 		    resultClone = clone;
; 9482 : 
; 9483 : 		break;

	jmp	SHORT $LN41@xmlDOMWrap
$LN38@xmlDOMWrap:

; 9484 : 	    case XML_ATTRIBUTE_NODE:
; 9485 : 		/*
; 9486 : 		* Attributes (xmlAttr).
; 9487 : 		*/
; 9488 : 		clone = (xmlNodePtr) xmlMalloc(sizeof(xmlAttr));

	push	48					; 00000030H
	call	DWORD PTR _xmlMalloc
	add	esp, 4
	mov	DWORD PTR _clone$1$[ebp], eax

; 9489 : 		if (clone == NULL) {

	test	eax, eax
	je	$LN153@xmlDOMWrap

; 9491 : 		    goto internal_error;
; 9492 : 		}
; 9493 : 		memset(clone, 0, sizeof(xmlAttr));

	push	48					; 00000030H
	push	0
	push	eax
	call	_memset
	add	esp, 12					; 0000000cH

; 9494 : 		/*
; 9495 : 		* Set hierachical links.
; 9496 : 		* TODO: Change this to add to the end of attributes.
; 9497 : 		*/
; 9498 : 		if (resultClone != NULL) {

	cmp	DWORD PTR _resultClone$1$[ebp], 0
	je	SHORT $LN40@xmlDOMWrap

; 9499 : 		    clone->parent = parentClone;

	mov	ecx, DWORD PTR _clone$1$[ebp]
	mov	eax, DWORD PTR _parentClone$1$[ebp]
	mov	DWORD PTR [ecx+20], eax

; 9500 : 		    if (prevClone) {

	test	edi, edi
	je	SHORT $LN42@xmlDOMWrap

; 9501 : 			prevClone->next = clone;

	mov	DWORD PTR [edi+24], ecx

; 9502 : 			clone->prev = prevClone;

	mov	DWORD PTR [ecx+28], edi

; 9503 : 		    } else

	mov	edi, ecx
	jmp	SHORT $LN41@xmlDOMWrap
$LN42@xmlDOMWrap:

; 9504 : 			parentClone->properties = (xmlAttrPtr) clone;

	mov	edi, DWORD PTR _clone$1$[ebp]
	mov	DWORD PTR [eax+44], edi

; 9505 : 		} else
; 9506 : 		    resultClone = clone;
; 9507 : 		break;
; 9508 : 	    default:
; 9509 : 		/*
; 9510 : 		* TODO QUESTION: Any other nodes expected?
; 9511 : 		*/
; 9512 : 		goto internal_error;
; 9513 : 	}
; 9514 : 
; 9515 : 	clone->type = cur->type;

	jmp	SHORT $LN41@xmlDOMWrap
$LN40@xmlDOMWrap:
	mov	edi, DWORD PTR _clone$1$[ebp]
	mov	DWORD PTR _resultClone$1$[ebp], edi
$LN41@xmlDOMWrap:
	mov	eax, DWORD PTR [ebx+4]

; 9516 : 	clone->doc = destDoc;

	mov	ecx, DWORD PTR _destDoc$[ebp]
	mov	DWORD PTR [edi+4], eax
	mov	DWORD PTR [edi+32], ecx

; 9517 : 
; 9518 : 	/*
; 9519 : 	* Clone the name of the node if any.
; 9520 : 	*/
; 9521 : 	if (cur->name == xmlStringText)

	mov	eax, DWORD PTR [ebx+8]
	cmp	eax, OFFSET _xmlStringText
	jne	SHORT $LN45@xmlDOMWrap

; 9522 : 	    clone->name = xmlStringText;

	mov	DWORD PTR [edi+8], OFFSET _xmlStringText
	jmp	SHORT $LN54@xmlDOMWrap
$LN45@xmlDOMWrap:

; 9523 : 	else if (cur->name == xmlStringTextNoenc)

	cmp	eax, OFFSET _xmlStringTextNoenc
	jne	SHORT $LN47@xmlDOMWrap

; 9524 : 	    /*
; 9525 : 	    * NOTE: Although xmlStringTextNoenc is never assigned to a node
; 9526 : 	    *   in tree.c, it might be set in Libxslt via
; 9527 : 	    *   "xsl:disable-output-escaping".
; 9528 : 	    */
; 9529 : 	    clone->name = xmlStringTextNoenc;

	mov	DWORD PTR [edi+8], OFFSET _xmlStringTextNoenc
	jmp	SHORT $LN54@xmlDOMWrap
$LN47@xmlDOMWrap:

; 9530 : 	else if (cur->name == xmlStringComment)

	cmp	eax, OFFSET _xmlStringComment
	jne	SHORT $LN49@xmlDOMWrap

; 9531 : 	    clone->name = xmlStringComment;

	mov	DWORD PTR [edi+8], OFFSET _xmlStringComment
	jmp	SHORT $LN54@xmlDOMWrap
$LN49@xmlDOMWrap:

; 9532 : 	else if (cur->name != NULL) {

	test	eax, eax
	je	SHORT $LN54@xmlDOMWrap

; 9533 : 	    DICT_CONST_COPY(cur->name, clone->name);

	mov	ecx, DWORD PTR _dict$1$[ebp]
	push	eax
	test	ecx, ecx
	je	SHORT $LN53@xmlDOMWrap
	push	ecx
	call	_xmlDictOwns
	mov	ecx, DWORD PTR [ebx+8]
	add	esp, 8
	test	eax, eax
	jne	SHORT $LN56@xmlDOMWrap
	push	-1
	push	ecx
	push	DWORD PTR _dict$1$[ebp]
	call	_xmlDictLookup
	add	esp, 12					; 0000000cH
	mov	ecx, eax
$LN56@xmlDOMWrap:
	mov	DWORD PTR [edi+8], ecx
	jmp	SHORT $LN223@xmlDOMWrap
$LN53@xmlDOMWrap:
	call	_xmlStrdup
	add	esp, 4
	mov	DWORD PTR [edi+8], eax
$LN223@xmlDOMWrap:

; 9534 : 	}
; 9535 : 
; 9536 : 	switch (cur->type) {

	mov	ecx, DWORD PTR _destDoc$[ebp]
$LN54@xmlDOMWrap:
	mov	eax, DWORD PTR [ebx+4]
	dec	eax
	cmp	eax, 19					; 00000013H
	ja	$internal_error$230
	movzx	eax, BYTE PTR $LN213@xmlDOMWrap[eax]
	jmp	DWORD PTR $LN229@xmlDOMWrap[eax*4]
$LN58@xmlDOMWrap:

; 9537 : 	    case XML_XINCLUDE_START:
; 9538 : 	    case XML_XINCLUDE_END:
; 9539 : 		/*
; 9540 : 		* TODO
; 9541 : 		*/
; 9542 : 		return (-1);
; 9543 : 	    case XML_ELEMENT_NODE:
; 9544 : 		curElem = cur;
; 9545 : 		depth++;

	inc	DWORD PTR _depth$1$[ebp]

; 9546 : 		/*
; 9547 : 		* Namespace declarations.
; 9548 : 		*/
; 9549 : 		if (cur->nsDef != NULL) {

	mov	edi, DWORD PTR [ebx+48]
	mov	DWORD PTR _curElem$1$[ebp], ebx
	test	edi, edi
	je	$LN219@xmlDOMWrap

; 9550 : 		    if (! parnsdone) {

	cmp	DWORD PTR _parnsdone$1$[ebp], 0
	jne	SHORT $LN60@xmlDOMWrap

; 9551 : 			if (destParent && (ctxt == NULL)) {

	mov	eax, DWORD PTR _destParent$[ebp]
	test	eax, eax
	je	SHORT $LN62@xmlDOMWrap
	cmp	DWORD PTR _ctxt$[ebp], 0
	jne	SHORT $LN62@xmlDOMWrap

; 9552 : 			    /*
; 9553 : 			    * Gather @parent's in-scope ns-decls.
; 9554 : 			    */
; 9555 : 			    if (xmlDOMWrapNSNormGatherInScopeNs(&nsMap,
; 9556 : 				destParent) == -1)

	push	eax
	lea	eax, DWORD PTR _nsMap$[ebp]
	push	eax
	call	_xmlDOMWrapNSNormGatherInScopeNs
	add	esp, 8
	cmp	eax, -1
	je	$LN214@xmlDOMWrap
	mov	esi, DWORD PTR _nsMap$[ebp]
$LN62@xmlDOMWrap:

; 9557 : 				goto internal_error;
; 9558 : 			}
; 9559 : 			parnsdone = 1;

	mov	edi, DWORD PTR [ebx+48]
	mov	DWORD PTR _parnsdone$1$[ebp], 1
$LN60@xmlDOMWrap:

; 9560 : 		    }
; 9561 : 		    /*
; 9562 : 		    * Clone namespace declarations.
; 9563 : 		    */
; 9564 : 		    cloneNsDefSlot = &(clone->nsDef);

	mov	eax, DWORD PTR _clone$1$[ebp]
	add	eax, 48					; 00000030H

; 9565 : 		    for (ns = cur->nsDef; ns != NULL; ns = ns->next) {

	mov	DWORD PTR _ns$[ebp], edi
	mov	DWORD PTR _cloneNsDefSlot$1$[ebp], eax
	test	edi, edi
	je	$LN219@xmlDOMWrap
$LL10@xmlDOMWrap:

; 9566 : 			/*
; 9567 : 			* Create a new xmlNs.
; 9568 : 			*/
; 9569 : 			cloneNs = (xmlNsPtr) xmlMalloc(sizeof(xmlNs));

	push	24					; 00000018H
	call	DWORD PTR _xmlMalloc
	mov	ebx, eax
	add	esp, 4
	mov	DWORD PTR _cloneNs$1$[ebp], ebx

; 9570 : 			if (cloneNs == NULL) {

	test	ebx, ebx
	je	$LN146@xmlDOMWrap

; 9572 : 				"allocating namespace");
; 9573 : 			    return(-1);
; 9574 : 			}
; 9575 : 			memset(cloneNs, 0, sizeof(xmlNs));

	xorps	xmm0, xmm0
	movups	XMMWORD PTR [ebx], xmm0
	movq	QWORD PTR [ebx+16], xmm0

; 9576 : 			cloneNs->type = XML_LOCAL_NAMESPACE;

	mov	DWORD PTR [ebx+4], 18			; 00000012H

; 9577 : 
; 9578 : 			if (ns->href != NULL)

	mov	eax, DWORD PTR [edi+8]
	test	eax, eax
	je	SHORT $LN64@xmlDOMWrap

; 9579 : 			    cloneNs->href = xmlStrdup(ns->href);

	push	eax
	call	_xmlStrdup
	add	esp, 4
	mov	DWORD PTR [ebx+8], eax
$LN64@xmlDOMWrap:

; 9580 : 			if (ns->prefix != NULL)

	mov	eax, DWORD PTR [edi+12]
	test	eax, eax
	je	SHORT $LN65@xmlDOMWrap

; 9581 : 			    cloneNs->prefix = xmlStrdup(ns->prefix);

	push	eax
	call	_xmlStrdup
	add	esp, 4
	mov	DWORD PTR [ebx+12], eax
$LN65@xmlDOMWrap:

; 9582 : 
; 9583 : 			*cloneNsDefSlot = cloneNs;

	mov	eax, DWORD PTR _cloneNsDefSlot$1$[ebp]

; 9584 : 			cloneNsDefSlot = &(cloneNs->next);

	mov	DWORD PTR _cloneNsDefSlot$1$[ebp], ebx
	mov	DWORD PTR [eax], ebx

; 9585 : 
; 9586 : 			/*
; 9587 : 			* Note that for custom handling of ns-references,
; 9588 : 			* the ns-decls need not be stored in the ns-map,
; 9589 : 			* since they won't be referenced by node->ns.
; 9590 : 			*/
; 9591 : 			if ((ctxt == NULL) ||

	mov	eax, DWORD PTR _ctxt$[ebp]
	test	eax, eax
	je	SHORT $LN67@xmlDOMWrap
	cmp	DWORD PTR [eax+12], 0
	jne	SHORT $LN8@xmlDOMWrap
$LN67@xmlDOMWrap:

; 9592 : 			    (ctxt->getNsForNodeFunc == NULL))
; 9593 : 			{
; 9594 : 			    /*
; 9595 : 			    * Does it shadow any ns-decl?
; 9596 : 			    */
; 9597 : 			    if (XML_NSMAP_NOTEMPTY(nsMap)) {

	test	esi, esi
	je	SHORT $LN12@xmlDOMWrap
	mov	esi, DWORD PTR [esi]
	test	esi, esi
	je	SHORT $LN12@xmlDOMWrap
	mov	ebx, DWORD PTR _depth$1$[ebp]
	npad	7
$LL13@xmlDOMWrap:

; 9599 : 				    if ((mi->depth >= XML_TREE_NSMAP_PARENT) &&
; 9600 : 					(mi->shadowDepth == -1) &&

	cmp	DWORD PTR [esi+20], -1
	jl	SHORT $LN11@xmlDOMWrap
	cmp	DWORD PTR [esi+16], -1
	jne	SHORT $LN11@xmlDOMWrap
	mov	eax, DWORD PTR [esi+12]
	mov	ecx, DWORD PTR [edi+12]
	mov	eax, DWORD PTR [eax+12]
	cmp	ecx, eax
	je	SHORT $LN70@xmlDOMWrap
	push	eax
	push	ecx
	call	_xmlStrEqual
	add	esp, 8
	test	eax, eax
	je	SHORT $LN11@xmlDOMWrap
$LN70@xmlDOMWrap:

; 9601 : 					((ns->prefix == mi->newNs->prefix) ||
; 9602 : 					xmlStrEqual(ns->prefix,
; 9603 : 					mi->newNs->prefix))) {
; 9604 : 					/*
; 9605 : 					* Mark as shadowed at the current
; 9606 : 					* depth.
; 9607 : 					*/
; 9608 : 					mi->shadowDepth = depth;

	mov	DWORD PTR [esi+16], ebx
$LN11@xmlDOMWrap:

; 9598 : 				XML_NSMAP_FOREACH(nsMap, mi) {

	mov	esi, DWORD PTR [esi]
	test	esi, esi
	jne	SHORT $LL13@xmlDOMWrap
	mov	ebx, DWORD PTR _cloneNs$1$[ebp]
$LN12@xmlDOMWrap:

; 9609 : 				    }
; 9610 : 				}
; 9611 : 			    }
; 9612 : 			    /*
; 9613 : 			    * Push mapping.
; 9614 : 			    */
; 9615 : 			    if (xmlDOMWrapNsMapAddItem(&nsMap, -1,
; 9616 : 				ns, cloneNs, depth) == NULL)

	push	DWORD PTR _depth$1$[ebp]
	lea	eax, DWORD PTR _nsMap$[ebp]
	push	ebx
	push	edi
	push	-1
	push	eax
	call	_xmlDOMWrapNsMapAddItem
	add	esp, 20					; 00000014H
	test	eax, eax
	je	$LN214@xmlDOMWrap
	mov	esi, DWORD PTR _nsMap$[ebp]
$LN8@xmlDOMWrap:

; 9565 : 		    for (ns = cur->nsDef; ns != NULL; ns = ns->next) {

	mov	edi, DWORD PTR [edi]
	mov	DWORD PTR _ns$[ebp], edi
	test	edi, edi
	jne	$LL10@xmlDOMWrap
	mov	ebx, DWORD PTR _cur$1$[ebp]
$LN219@xmlDOMWrap:

; 9661 : 	    case XML_PI_NODE:
; 9662 : 		DICT_COPY(cur->content, clone->content);
; 9663 : 		goto leave_node;
; 9664 : 	    case XML_COMMENT_NODE:
; 9665 : 		DICT_COPY(cur->content, clone->content);
; 9666 : 		goto leave_node;
; 9667 : 	    default:
; 9668 : 		goto internal_error;
; 9669 : 	}
; 9670 : 
; 9671 : 	if (cur->ns == NULL)

	mov	edi, DWORD PTR _clone$1$[ebp]
$LN9@xmlDOMWrap:
	cmp	DWORD PTR [ebx+36], 0
	je	$end_ns_reference$231

; 9672 : 	    goto end_ns_reference;
; 9673 : 
; 9674 : /* handle_ns_reference: */
; 9675 : 	/*
; 9676 : 	** The following will take care of references to ns-decls ********
; 9677 : 	** and is intended only for element- and attribute-nodes.
; 9678 : 	**
; 9679 : 	*/
; 9680 : 	if (! parnsdone) {

	cmp	DWORD PTR _parnsdone$1$[ebp], 0
	jne	SHORT $LN100@xmlDOMWrap

; 9681 : 	    if (destParent && (ctxt == NULL)) {

	mov	eax, DWORD PTR _destParent$[ebp]
	test	eax, eax
	je	SHORT $LN102@xmlDOMWrap
	cmp	DWORD PTR _ctxt$[ebp], 0
	jne	SHORT $LN102@xmlDOMWrap

; 9682 : 		if (xmlDOMWrapNSNormGatherInScopeNs(&nsMap, destParent) == -1)

	push	eax
	lea	eax, DWORD PTR _nsMap$[ebp]
	push	eax
	call	_xmlDOMWrapNSNormGatherInScopeNs
	add	esp, 8
	cmp	eax, -1
	je	$LN214@xmlDOMWrap
	mov	esi, DWORD PTR _nsMap$[ebp]
$LN102@xmlDOMWrap:

; 9683 : 		    goto internal_error;
; 9684 : 	    }
; 9685 : 	    parnsdone = 1;

	mov	DWORD PTR _parnsdone$1$[ebp], 1
$LN100@xmlDOMWrap:

; 9686 : 	}
; 9687 : 	/*
; 9688 : 	* Adopt ns-references.
; 9689 : 	*/
; 9690 : 	if (XML_NSMAP_NOTEMPTY(nsMap)) {

	test	esi, esi
	je	SHORT $LN211@xmlDOMWrap
	mov	ecx, DWORD PTR [esi]
	test	ecx, ecx
	je	SHORT $LN211@xmlDOMWrap
	npad	5
$LL16@xmlDOMWrap:

; 9695 : 		if ((mi->shadowDepth == -1) &&

	cmp	DWORD PTR [ecx+16], -1
	jne	SHORT $LN14@xmlDOMWrap
	mov	eax, DWORD PTR [ebx+36]
	cmp	eax, DWORD PTR [ecx+8]
	je	SHORT $LN148@xmlDOMWrap
$LN14@xmlDOMWrap:

; 9691 : 	    /*
; 9692 : 	    * Search for a mapping.
; 9693 : 	    */
; 9694 : 	    XML_NSMAP_FOREACH(nsMap, mi) {

	mov	ecx, DWORD PTR [ecx]
	test	ecx, ecx
	jne	SHORT $LL16@xmlDOMWrap
$LN211@xmlDOMWrap:

; 9702 : 		}
; 9703 : 	    }
; 9704 : 	}
; 9705 : 	/*
; 9706 : 	* No matching namespace in scope. We need a new one.
; 9707 : 	*/
; 9708 : 	if ((ctxt != NULL) && (ctxt->getNsForNodeFunc != NULL)) {

	mov	edx, DWORD PTR _ctxt$[ebp]
	test	edx, edx
	je	SHORT $LN105@xmlDOMWrap
	mov	ecx, DWORD PTR [edx+12]
	test	ecx, ecx
	je	SHORT $LN105@xmlDOMWrap

; 9709 : 	    /*
; 9710 : 	    * User-defined behaviour.
; 9711 : 	    */
; 9712 : 	    ns = ctxt->getNsForNodeFunc(ctxt, cur,

	mov	eax, DWORD PTR [ebx+36]
	push	DWORD PTR [eax+12]
	push	DWORD PTR [eax+8]
	push	ebx
	push	edx
	call	ecx
	mov	esi, eax

; 9713 : 		cur->ns->href, cur->ns->prefix);
; 9714 : 	    /*
; 9715 : 	    * Add user's mapping.
; 9716 : 	    */
; 9717 : 	    if (xmlDOMWrapNsMapAddItem(&nsMap, -1,
; 9718 : 		cur->ns, ns, XML_TREE_NSMAP_CUSTOM) == NULL)

	lea	eax, DWORD PTR _nsMap$[ebp]
	push	-4					; fffffffcH
	push	esi
	push	DWORD PTR [ebx+36]
	mov	DWORD PTR _ns$[ebp], esi
	push	-1
	push	eax
	call	_xmlDOMWrapNsMapAddItem
	add	esp, 36					; 00000024H
	test	eax, eax
	je	$LN214@xmlDOMWrap

; 9719 : 		goto internal_error;
; 9720 : 	    clone->ns = ns;

	mov	DWORD PTR [edi+36], esi

; 9721 : 	} else {

	mov	esi, DWORD PTR _nsMap$[ebp]
	jmp	SHORT $end_ns_reference$231
$LN148@xmlDOMWrap:

; 9696 : 		    (cur->ns == mi->oldNs)) {
; 9697 : 		    /*
; 9698 : 		    * This is the nice case: a mapping was found.
; 9699 : 		    */
; 9700 : 		    clone->ns = mi->newNs;

	mov	eax, DWORD PTR [ecx+12]

; 9701 : 		    goto end_ns_reference;

	jmp	SHORT $LN224@xmlDOMWrap
$LN105@xmlDOMWrap:

; 9722 : 	    /*
; 9723 : 	    * Aquire a normalized ns-decl and add it to the map.
; 9724 : 	    */
; 9725 : 	    if (xmlDOMWrapNSNormAquireNormalizedNs(destDoc,
; 9726 : 		/* ns-decls on curElem or on destDoc->oldNs */
; 9727 : 		destParent ? curElem : NULL,
; 9728 : 		cur->ns, &ns,
; 9729 : 		&nsMap, depth,
; 9730 : 		/* if we need to search only in the ancestor-axis */
; 9731 : 		ancestorsOnly,
; 9732 : 		/* ns-decls must be prefixed for attributes. */
; 9733 : 		(cur->type == XML_ATTRIBUTE_NODE) ? 1 : 0) == -1)

	xor	eax, eax
	cmp	DWORD PTR [ebx+4], 2
	sete	al
	push	eax
	push	0
	push	DWORD PTR _depth$1$[ebp]
	lea	eax, DWORD PTR _nsMap$[ebp]
	push	eax
	lea	eax, DWORD PTR _ns$[ebp]
	push	eax
	push	DWORD PTR [ebx+36]
	xor	eax, eax
	cmp	DWORD PTR _destParent$[ebp], eax
	cmovne	eax, DWORD PTR _curElem$1$[ebp]
	push	eax
	push	DWORD PTR _destDoc$[ebp]
	call	_xmlDOMWrapNSNormAquireNormalizedNs
	add	esp, 32					; 00000020H
	cmp	eax, -1
	je	$LN214@xmlDOMWrap

; 9734 : 		goto internal_error;
; 9735 : 	    clone->ns = ns;

	mov	eax, DWORD PTR _ns$[ebp]
	mov	esi, DWORD PTR _nsMap$[ebp]
$LN224@xmlDOMWrap:

; 9736 : 	}
; 9737 : 
; 9738 : end_ns_reference:
; 9739 : 
; 9740 : 	/*
; 9741 : 	* Some post-processing.
; 9742 : 	*
; 9743 : 	* Handle ID attributes.
; 9744 : 	*/
; 9745 : 	if ((clone->type == XML_ATTRIBUTE_NODE) &&

	mov	DWORD PTR [edi+36], eax
$end_ns_reference$231:
	cmp	DWORD PTR [edi+4], 2
	jne	SHORT $LN111@xmlDOMWrap
	mov	eax, DWORD PTR [edi+20]
	test	eax, eax
	je	SHORT $LN111@xmlDOMWrap

; 9746 : 	    (clone->parent != NULL))
; 9747 : 	{
; 9748 : 	    if (xmlIsID(destDoc, clone->parent, (xmlAttrPtr) clone)) {

	push	edi
	push	eax
	push	DWORD PTR _destDoc$[ebp]
	call	_xmlIsID
	add	esp, 12					; 0000000cH
	test	eax, eax
	je	SHORT $LN111@xmlDOMWrap

; 9749 : 
; 9750 : 		xmlChar *idVal;
; 9751 : 
; 9752 : 		idVal = xmlNodeListGetString(cur->doc, cur->children, 1);

	push	1
	push	DWORD PTR [ebx+12]
	push	DWORD PTR [ebx+32]
	call	_xmlNodeListGetString
	mov	edi, eax
	add	esp, 12					; 0000000cH

; 9753 : 		if (idVal != NULL) {

	test	edi, edi
	je	SHORT $LN217@xmlDOMWrap

; 9754 : 		    if (xmlAddID(NULL, destDoc, idVal, (xmlAttrPtr) cur) == NULL) {

	push	ebx
	push	edi
	push	DWORD PTR _destDoc$[ebp]
	push	0
	call	_xmlAddID
	add	esp, 16					; 00000010H
	push	edi
	test	eax, eax
	je	$LN158@xmlDOMWrap

; 9757 : 			goto internal_error;
; 9758 : 		    }
; 9759 : 		    xmlFree(idVal);

	call	DWORD PTR _xmlFree
	add	esp, 4
$LN217@xmlDOMWrap:

; 9760 : 		}
; 9761 : 	    }
; 9762 : 	}
; 9763 : 	/*
; 9764 : 	**
; 9765 : 	** The following will traverse the tree **************************
; 9766 : 	**
; 9767 : 	*
; 9768 : 	* Walk the element's attributes before descending into child-nodes.
; 9769 : 	*/
; 9770 : 	if ((cur->type == XML_ELEMENT_NODE) && (cur->properties != NULL)) {

	mov	edi, DWORD PTR _clone$1$[ebp]
$LN111@xmlDOMWrap:
	cmp	DWORD PTR [ebx+4], 1
	jne	$into_content$232
	mov	eax, DWORD PTR [ebx+44]
	test	eax, eax
	je	$into_content$232
$LN116@xmlDOMWrap:

; 9431 :         return(-1);
; 9432 : 
; 9433 :     while (cur != NULL) {

	mov	ecx, DWORD PTR _clone$1$[ebp]
	xor	edi, edi
	mov	DWORD PTR _parentClone$1$[ebp], ecx
$LN150@xmlDOMWrap:
	mov	edx, DWORD PTR _sourceDoc$1$[ebp]
	mov	ebx, eax
	mov	DWORD PTR _cur$1$[ebp], ebx
	jmp	$LL2@xmlDOMWrap
$LN73@xmlDOMWrap:

; 9786 : 	    }
; 9787 : 	}
; 9788 : 
; 9789 : leave_node:
; 9790 : 	/*
; 9791 : 	* At this point we are done with the node, its content
; 9792 : 	* and an element-nodes's attribute-nodes.
; 9793 : 	*/
; 9794 : 	if (cur == node)

	mov	eax, DWORD PTR [ebx+40]
	test	eax, eax
	je	$leave_node$233
	mov	ecx, DWORD PTR _dict$1$[ebp]
	push	eax
	test	ecx, ecx
	je	SHORT $LN75@xmlDOMWrap
	push	ecx
	call	_xmlDictOwns
	add	esp, 8
	test	eax, eax
	je	SHORT $LN77@xmlDOMWrap
	mov	eax, DWORD PTR [ebx+40]
	jmp	SHORT $LN78@xmlDOMWrap
$LN77@xmlDOMWrap:
	push	-1
	push	DWORD PTR [ebx+40]
	push	DWORD PTR _dict$1$[ebp]
	call	_xmlDictLookup
	add	esp, 12					; 0000000cH
	jmp	SHORT $LN78@xmlDOMWrap
$LN80@xmlDOMWrap:

; 9617 : 				goto internal_error;
; 9618 : 			}
; 9619 : 		    }
; 9620 : 		}
; 9621 : 		/* cur->ns will be processed further down. */
; 9622 : 		break;
; 9623 : 	    case XML_ATTRIBUTE_NODE:
; 9624 : 		/* IDs will be processed further down. */
; 9625 : 		/* cur->ns will be processed further down. */
; 9626 : 		break;
; 9627 : 	    case XML_TEXT_NODE:
; 9628 : 	    case XML_CDATA_SECTION_NODE:
; 9629 : 		/*
; 9630 : 		* Note that this will also cover the values of attributes.
; 9631 : 		*/
; 9632 : 		DICT_COPY(cur->content, clone->content);
; 9633 : 		goto leave_node;
; 9634 : 	    case XML_ENTITY_NODE:
; 9635 : 		/* TODO: What to do here? */
; 9636 : 		goto leave_node;
; 9637 : 	    case XML_ENTITY_REF_NODE:
; 9638 : 		if (sourceDoc != destDoc) {

	cmp	DWORD PTR _sourceDoc$1$[ebp], ecx
	je	SHORT $LN81@xmlDOMWrap

; 9639 : 		    if ((destDoc->intSubset) || (destDoc->extSubset)) {

	cmp	DWORD PTR [ecx+44], 0
	jne	SHORT $LN84@xmlDOMWrap
	cmp	DWORD PTR [ecx+48], 0
	je	SHORT $leave_node$233
$LN84@xmlDOMWrap:

; 9640 : 			xmlEntityPtr ent;
; 9641 : 			/*
; 9642 : 			* Different doc: Assign new entity-node if available.
; 9643 : 			*/
; 9644 : 			ent = xmlGetDocEntity(destDoc, cur->name);

	push	DWORD PTR [ebx+8]
	push	ecx
	call	_xmlGetDocEntity
	mov	ecx, eax
	add	esp, 8

; 9645 : 			if (ent != NULL) {

	test	ecx, ecx
	je	SHORT $leave_node$233

; 9646 : 			    clone->content = ent->content;

	mov	eax, DWORD PTR [ecx+40]

; 9647 : 			    clone->children = (xmlNodePtr) ent;

	mov	DWORD PTR [edi+12], ecx

; 9648 : 			    clone->last = (xmlNodePtr) ent;

	mov	DWORD PTR [edi+16], ecx

; 9649 : 			}
; 9650 : 		    }
; 9651 : 		} else {

	jmp	SHORT $LN78@xmlDOMWrap
$LN81@xmlDOMWrap:

; 9652 : 		    /*
; 9653 : 		    * Same doc: Use the current node's entity declaration
; 9654 : 		    * and value.
; 9655 : 		    */
; 9656 : 		    clone->content = cur->content;

	mov	eax, DWORD PTR [ebx+40]
	mov	DWORD PTR [edi+40], eax

; 9657 : 		    clone->children = cur->children;

	mov	eax, DWORD PTR [ebx+12]
	mov	DWORD PTR [edi+12], eax

; 9658 : 		    clone->last = cur->last;

	mov	eax, DWORD PTR [ebx+16]
	mov	DWORD PTR [edi+16], eax

; 9659 : 		}
; 9660 : 		goto leave_node;

	jmp	SHORT $leave_node$233
$LN75@xmlDOMWrap:

; 9786 : 	    }
; 9787 : 	}
; 9788 : 
; 9789 : leave_node:
; 9790 : 	/*
; 9791 : 	* At this point we are done with the node, its content
; 9792 : 	* and an element-nodes's attribute-nodes.
; 9793 : 	*/
; 9794 : 	if (cur == node)

	call	_xmlStrdup
	add	esp, 4
$LN78@xmlDOMWrap:
	mov	DWORD PTR [edi+40], eax
$leave_node$233:
	cmp	ebx, DWORD PTR _node$[ebp]
	je	$LN221@xmlDOMWrap

; 9795 : 	    break;
; 9796 : 	if ((cur->type == XML_ELEMENT_NODE) ||
; 9797 : 	    (cur->type == XML_XINCLUDE_START) ||

	mov	eax, DWORD PTR [ebx+4]
	cmp	eax, 1
	je	SHORT $LN119@xmlDOMWrap
	cmp	eax, 19					; 00000013H
	je	SHORT $LN119@xmlDOMWrap
	cmp	eax, 20					; 00000014H
	jne	SHORT $LN118@xmlDOMWrap
$LN119@xmlDOMWrap:

; 9798 : 	    (cur->type == XML_XINCLUDE_END)) {
; 9799 : 	    /*
; 9800 : 	    * TODO: Do we expect nsDefs on XML_XINCLUDE_START?
; 9801 : 	    */
; 9802 : 	    if (XML_NSMAP_NOTEMPTY(nsMap)) {

	test	esi, esi
	je	SHORT $LN20@xmlDOMWrap
	cmp	DWORD PTR [esi], 0
	je	SHORT $LN20@xmlDOMWrap

; 9803 : 		/*
; 9804 : 		* Pop mappings.
; 9805 : 		*/
; 9806 : 		while ((nsMap->last != NULL) &&

	mov	ecx, DWORD PTR [esi+4]
	mov	edx, DWORD PTR _depth$1$[ebp]
	test	ecx, ecx
	je	SHORT $LN18@xmlDOMWrap
$LL17@xmlDOMWrap:
	cmp	DWORD PTR [ecx+20], edx
	jl	SHORT $LN18@xmlDOMWrap

; 9807 : 		    (nsMap->last->depth >= depth))
; 9808 : 		{
; 9809 : 		    XML_NSMAP_POP(nsMap, mi)

	mov	eax, DWORD PTR [ecx+4]
	mov	DWORD PTR [esi+4], eax
	test	eax, eax
	jne	SHORT $LN121@xmlDOMWrap
	mov	DWORD PTR [esi], eax
	jmp	SHORT $LN122@xmlDOMWrap
$LN121@xmlDOMWrap:
	mov	DWORD PTR [eax], 0
$LN122@xmlDOMWrap:
	mov	eax, DWORD PTR [esi+8]
	mov	DWORD PTR [ecx], eax
	mov	DWORD PTR [esi+8], ecx
	mov	ecx, DWORD PTR [esi+4]
	test	ecx, ecx
	jne	SHORT $LL17@xmlDOMWrap
$LN18@xmlDOMWrap:

; 9810 : 		}
; 9811 : 		/*
; 9812 : 		* Unshadow.
; 9813 : 		*/
; 9814 : 		XML_NSMAP_FOREACH(nsMap, mi) {

	mov	eax, DWORD PTR [esi]
	test	eax, eax
	je	SHORT $LN20@xmlDOMWrap
$LL21@xmlDOMWrap:

; 9815 : 		    if (mi->shadowDepth >= depth)

	cmp	DWORD PTR [eax+16], edx
	jl	SHORT $LN19@xmlDOMWrap

; 9816 : 			mi->shadowDepth = -1;

	mov	DWORD PTR [eax+16], -1
$LN19@xmlDOMWrap:

; 9810 : 		}
; 9811 : 		/*
; 9812 : 		* Unshadow.
; 9813 : 		*/
; 9814 : 		XML_NSMAP_FOREACH(nsMap, mi) {

	mov	eax, DWORD PTR [eax]
	test	eax, eax
	jne	SHORT $LL21@xmlDOMWrap
$LN20@xmlDOMWrap:

; 9817 : 		}
; 9818 : 	    }
; 9819 : 	    depth--;

	dec	DWORD PTR _depth$1$[ebp]
$LN118@xmlDOMWrap:

; 9820 : 	}
; 9821 : 	if (cur->next != NULL) {

	mov	eax, DWORD PTR [ebx+24]
	test	eax, eax
	jne	$LN150@xmlDOMWrap

; 9822 : 	    prevClone = clone;
; 9823 : 	    cur = cur->next;
; 9824 : 	} else if (cur->type != XML_ATTRIBUTE_NODE) {

	cmp	DWORD PTR [ebx+4], 2
	je	SHORT $LN126@xmlDOMWrap

; 9825 : 	    /*
; 9826 : 	    * Set clone->last.
; 9827 : 	    */
; 9828 : 	    if (clone->parent != NULL)

	mov	eax, DWORD PTR [edi+20]
	test	eax, eax
	je	SHORT $LN204@xmlDOMWrap

; 9829 : 		clone->parent->last = clone;

	mov	DWORD PTR [eax+16], edi
	mov	eax, DWORD PTR [edi+20]
$LN204@xmlDOMWrap:

; 9830 : 	    clone = clone->parent;

	mov	edi, eax

; 9831 : 	    if (clone != NULL)

	test	eax, eax
	je	SHORT $LN129@xmlDOMWrap

; 9832 : 		parentClone = clone->parent;

	mov	eax, DWORD PTR [eax+20]
	mov	DWORD PTR _parentClone$1$[ebp], eax
$LN129@xmlDOMWrap:

; 9833 : 	    /*
; 9834 : 	    * Process parent --> next;
; 9835 : 	    */
; 9836 : 	    cur = cur->parent;

	mov	ebx, DWORD PTR [ebx+20]

; 9837 : 	    goto leave_node;

	jmp	$leave_node$233
$LN126@xmlDOMWrap:

; 9838 : 	} else {
; 9839 : 	    /* This is for attributes only. */
; 9840 : 	    clone = clone->parent;

	mov	edi, DWORD PTR [edi+20]

; 9841 : 	    parentClone = clone->parent;
; 9842 : 	    /*
; 9843 : 	    * Process parent-element --> children.
; 9844 : 	    */
; 9845 : 	    cur = cur->parent;

	mov	ebx, DWORD PTR [ebx+20]
	mov	DWORD PTR _clone$1$[ebp], edi
	mov	eax, DWORD PTR [edi+20]
	mov	DWORD PTR _parentClone$1$[ebp], eax
$into_content$232:

; 9771 : 	    prevClone = NULL;
; 9772 : 	    parentClone = clone;
; 9773 : 	    cur = (xmlNodePtr) cur->properties;
; 9774 : 	    continue;
; 9775 : 	}
; 9776 : into_content:
; 9777 : 	/*
; 9778 : 	* Descend into child-nodes.
; 9779 : 	*/
; 9780 : 	if (cur->children != NULL) {

	mov	eax, DWORD PTR [ebx+12]
	test	eax, eax
	je	$leave_node$233

; 9781 : 	    if (deep || (cur->type == XML_ATTRIBUTE_NODE)) {

	cmp	DWORD PTR _deep$[ebp], 0
	jne	$LN116@xmlDOMWrap
	cmp	DWORD PTR [ebx+4], 2
	jne	$leave_node$233

; 9782 : 		prevClone = NULL;
; 9783 : 		parentClone = clone;
; 9784 : 		cur = cur->children;
; 9785 : 		continue;

	jmp	$LN116@xmlDOMWrap
$LN152@xmlDOMWrap:

; 9466 : 		    xmlTreeErrMemory("xmlDOMWrapCloneNode(): allocating a node");

	push	OFFSET ??_C@_0CJ@IBBFFAIA@xmlDOMWrapCloneNode?$CI?$CJ?3?5allocati@

; 9846 : 	    goto into_content;
; 9847 : 	}
; 9848 :     }
; 9849 :     goto exit;
; 9850 : 
; 9851 : internal_error:
; 9852 :     ret = -1;

	call	_xmlTreeErrMemory
	add	esp, 4
	or	ebx, -1
	jmp	SHORT $exit$234
$LN146@xmlDOMWrap:

; 9571 : 			    xmlTreeErrMemory("xmlDOMWrapCloneNode(): "

	push	OFFSET ??_C@_0CM@EDBMOGPG@xmlDOMWrapCloneNode?$CI?$CJ?3?5allocati@
	call	_xmlTreeErrMemory
	add	esp, 4
$LN23@xmlDOMWrap:

; 9878 : }

	pop	edi
	pop	esi
	or	eax, -1
	pop	ebx
	mov	esp, ebp
	pop	ebp
	ret	0
$LN214@xmlDOMWrap:

; 9552 : 			    /*
; 9553 : 			    * Gather @parent's in-scope ns-decls.
; 9554 : 			    */
; 9555 : 			    if (xmlDOMWrapNSNormGatherInScopeNs(&nsMap,
; 9556 : 				destParent) == -1)

	mov	esi, DWORD PTR _nsMap$[ebp]

; 9846 : 	    goto into_content;
; 9847 : 	}
; 9848 :     }
; 9849 :     goto exit;
; 9850 : 
; 9851 : internal_error:
; 9852 :     ret = -1;

	or	ebx, -1
	jmp	SHORT $exit$234
$LN158@xmlDOMWrap:

; 9755 : 			/* TODO: error message. */
; 9756 : 			xmlFree(idVal);

	call	DWORD PTR _xmlFree

; 9846 : 	    goto into_content;
; 9847 : 	}
; 9848 :     }
; 9849 :     goto exit;
; 9850 : 
; 9851 : internal_error:
; 9852 :     ret = -1;

	add	esp, 4
	or	ebx, -1
	jmp	SHORT $exit$234
$LN153@xmlDOMWrap:

; 9490 : 		    xmlTreeErrMemory("xmlDOMWrapCloneNode(): allocating an attr-node");

	push	OFFSET ??_C@_0CP@CMDBBNPE@xmlDOMWrapCloneNode?$CI?$CJ?3?5allocati@

; 9846 : 	    goto into_content;
; 9847 : 	}
; 9848 :     }
; 9849 :     goto exit;
; 9850 : 
; 9851 : internal_error:
; 9852 :     ret = -1;

	call	_xmlTreeErrMemory
	add	esp, 4
$internal_error$230:
	or	ebx, -1
	jmp	SHORT $exit$234
$LN221@xmlDOMWrap:

; 9853 : 
; 9854 : exit:
; 9855 :     /*
; 9856 :     * Cleanup.
; 9857 :     */
; 9858 :     if (nsMap != NULL) {

	xor	ebx, ebx
$exit$234:
	test	esi, esi
	je	SHORT $LN132@xmlDOMWrap

; 9859 : 	if ((ctxt) && (ctxt->namespaceMap == nsMap)) {

	mov	eax, DWORD PTR _ctxt$[ebp]
	test	eax, eax
	je	SHORT $LN131@xmlDOMWrap
	cmp	DWORD PTR [eax+8], esi
	jne	SHORT $LN131@xmlDOMWrap

; 9860 : 	    /*
; 9861 : 	    * Just cleanup the map but don't free.
; 9862 : 	    */
; 9863 : 	    if (nsMap->first) {

	cmp	DWORD PTR [esi], 0
	je	SHORT $LN132@xmlDOMWrap

; 9864 : 		if (nsMap->pool)

	mov	ecx, DWORD PTR [esi+8]
	test	ecx, ecx
	je	SHORT $LN134@xmlDOMWrap

; 9865 : 		    nsMap->last->next = nsMap->pool;

	mov	eax, DWORD PTR [esi+4]
	mov	DWORD PTR [eax], ecx
$LN134@xmlDOMWrap:

; 9866 : 		nsMap->pool = nsMap->first;

	mov	eax, DWORD PTR [esi]

; 9871 :     }
; 9872 :     /*
; 9873 :     * TODO: Should we try a cleanup of the cloned node in case of a
; 9874 :     * fatal error?
; 9875 :     */
; 9876 :     *resNode = resultClone;

	mov	ecx, DWORD PTR _resNode$[ebp]
	mov	DWORD PTR [esi+8], eax
	mov	eax, DWORD PTR _resultClone$1$[ebp]
	pop	edi
	mov	DWORD PTR [esi], 0
	mov	DWORD PTR [ecx], eax

; 9877 :     return (ret);

	mov	eax, ebx

; 9878 : }

	pop	esi
	pop	ebx
	mov	esp, ebp
	pop	ebp
	ret	0
$LN131@xmlDOMWrap:

; 9867 : 		nsMap->first = NULL;
; 9868 : 	    }
; 9869 : 	} else
; 9870 : 	    xmlDOMWrapNsMapFree(nsMap);

	push	esi
	call	_xmlDOMWrapNsMapFree
	add	esp, 4
$LN132@xmlDOMWrap:

; 9871 :     }
; 9872 :     /*
; 9873 :     * TODO: Should we try a cleanup of the cloned node in case of a
; 9874 :     * fatal error?
; 9875 :     */
; 9876 :     *resNode = resultClone;

	mov	ecx, DWORD PTR _resNode$[ebp]
	mov	eax, DWORD PTR _resultClone$1$[ebp]
	pop	edi

; 9878 : }

	pop	esi
	mov	DWORD PTR [ecx], eax
	mov	eax, ebx
	pop	ebx
	mov	esp, ebp
	pop	ebp
	ret	0
$LN228@xmlDOMWrap:
	DD	$LN32@xmlDOMWrap
	DD	$LN38@xmlDOMWrap
	DD	$internal_error$230
$LN212@xmlDOMWrap:
	DB	0
	DB	1
	DB	0
	DB	0
	DB	0
	DB	0
	DB	0
	DB	0
	DB	2
	DB	2
	DB	0
	npad	1
$LN229@xmlDOMWrap:
	DD	$LN58@xmlDOMWrap
	DD	$LN9@xmlDOMWrap
	DD	$LN73@xmlDOMWrap
	DD	$LN80@xmlDOMWrap
	DD	$leave_node$233
	DD	$LN23@xmlDOMWrap
	DD	$internal_error$230
$LN213@xmlDOMWrap:
	DB	0
	DB	1
	DB	2
	DB	2
	DB	3
	DB	4
	DB	2
	DB	2
	DB	6
	DB	6
	DB	6
	DB	6
	DB	6
	DB	6
	DB	6
	DB	6
	DB	6
	DB	6
	DB	5
	DB	5
_xmlDOMWrapCloneNode ENDP
_TEXT	ENDS
; Function compile flags: /Ogtp
; File c:\users\dag\documents\_clients\codeproject authors group\windows on arm\libxml2\libxml2-2.9.9\tree.c
;	COMDAT _xmlDOMWrapRemoveNode
_TEXT	SEGMENT
_sizeList$ = -8						; size = 4
_list$ = -4						; size = 4
_ctxt$ = 8						; size = 4
_doc$ = 12						; size = 4
_nbList$ = 16						; size = 4
_node$ = 16						; size = 4
_options$ = 20						; size = 4
_xmlDOMWrapRemoveNode PROC				; COMDAT

; 8220 : {

	push	ebp
	mov	ebp, esp
	sub	esp, 8
	push	ebx
	push	esi
	push	edi
	mov	ecx, OFFSET __59973643_tree@c
	call	@__CheckForDebuggerJustMyCode@4
	mov	esi, DWORD PTR _node$[ebp]
	xor	ebx, ebx
	mov	DWORD PTR _list$[ebp], ebx
	test	esi, esi
	je	$LN16@xmlDOMWrap

; 8221 :     xmlNsPtr *list = NULL;
; 8222 :     int sizeList, nbList, i, j;
; 8223 :     xmlNsPtr ns;
; 8224 : 
; 8225 :     if ((node == NULL) || (doc == NULL) || (node->doc != doc))

	mov	eax, DWORD PTR _doc$[ebp]
	test	eax, eax
	je	$LN16@xmlDOMWrap
	cmp	DWORD PTR [esi+32], eax
	jne	$LN16@xmlDOMWrap

; 8226 : 	return (-1);
; 8227 : 
; 8228 :     /* TODO: 0 or -1 ? */
; 8229 :     if (node->parent == NULL)

	cmp	DWORD PTR [esi+20], ebx
	je	SHORT $LN39@xmlDOMWrap

; 8230 : 	return (0);
; 8231 : 
; 8232 :     switch (node->type) {

	mov	eax, DWORD PTR [esi+4]
	dec	eax
	cmp	eax, 7
	ja	$LN20@xmlDOMWrap
	movzx	eax, BYTE PTR $LN75@xmlDOMWrap[eax]
	jmp	DWORD PTR $LN84@xmlDOMWrap[eax*4]
$LN18@xmlDOMWrap:

; 8233 : 	case XML_TEXT_NODE:
; 8234 : 	case XML_CDATA_SECTION_NODE:
; 8235 : 	case XML_ENTITY_REF_NODE:
; 8236 : 	case XML_PI_NODE:
; 8237 : 	case XML_COMMENT_NODE:
; 8238 : 	    xmlUnlinkNode(node);

	push	esi
	call	_xmlUnlinkNode

; 8333 :     return (-1);
; 8334 : }

	add	esp, 4
$LN39@xmlDOMWrap:
	pop	edi
	pop	esi
	xor	eax, eax
	pop	ebx
	mov	esp, ebp
	pop	ebp
	ret	0
$LN19@xmlDOMWrap:

; 8239 : 	    return (0);
; 8240 : 	case XML_ELEMENT_NODE:
; 8241 : 	case XML_ATTRIBUTE_NODE:
; 8242 : 	    break;
; 8243 : 	default:
; 8244 : 	    return (1);
; 8245 :     }
; 8246 :     xmlUnlinkNode(node);

	push	esi
	call	_xmlUnlinkNode
	add	esp, 4
$LL6@xmlDOMWrap:

; 8247 :     /*
; 8248 :     * Save out-of-scope ns-references in doc->oldNs.
; 8249 :     */
; 8250 :     do {
; 8251 : 	switch (node->type) {

	mov	eax, DWORD PTR [esi+4]
	sub	eax, 1
	je	SHORT $LN21@xmlDOMWrap
	sub	eax, 1
	je	SHORT $LN10@xmlDOMWrap
	jmp	$next_sibling$85
$LN21@xmlDOMWrap:

; 8252 : 	    case XML_ELEMENT_NODE:
; 8253 : 		if ((ctxt == NULL) && (node->nsDef != NULL)) {

	cmp	DWORD PTR _ctxt$[ebp], 0
	jne	SHORT $LN10@xmlDOMWrap
	mov	edi, DWORD PTR [esi+48]
	test	edi, edi
	je	SHORT $LN10@xmlDOMWrap
$LL11@xmlDOMWrap:

; 8254 : 		    ns = node->nsDef;
; 8255 : 		    do {
; 8256 : 			if (xmlDOMWrapNSNormAddNsMapItem2(&list, &sizeList,
; 8257 : 			    &nbList, ns, ns) == -1)

	push	edi
	push	edi
	lea	eax, DWORD PTR _nbList$[ebp]
	push	eax
	lea	eax, DWORD PTR _sizeList$[ebp]
	push	eax
	lea	eax, DWORD PTR _list$[ebp]
	push	eax
	call	_xmlDOMWrapNSNormAddNsMapItem2
	add	esp, 20					; 00000014H
	cmp	eax, -1
	je	$LN78@xmlDOMWrap

; 8258 : 			    goto internal_error;
; 8259 : 			ns = ns->next;

	mov	edi, DWORD PTR [edi]

; 8260 : 		    } while (ns != NULL);

	test	edi, edi
	jne	SHORT $LL11@xmlDOMWrap
	mov	ebx, DWORD PTR _list$[ebp]
$LN10@xmlDOMWrap:

; 8261 : 		}
; 8262 :                 /* Falls through. */
; 8263 : 	    case XML_ATTRIBUTE_NODE:
; 8264 : 		if (node->ns != NULL) {

	mov	edx, DWORD PTR [esi+36]
	test	edx, edx
	je	SHORT $LN71@xmlDOMWrap

; 8265 : 		    /*
; 8266 : 		    * Find a mapping.
; 8267 : 		    */
; 8268 : 		    if (list != NULL) {

	test	ebx, ebx
	je	SHORT $LN13@xmlDOMWrap

; 8269 : 			for (i = 0, j = 0; i < nbList; i++, j += 2) {

	mov	edi, DWORD PTR _nbList$[ebp]
	xor	ecx, ecx
	xor	eax, eax
	test	edi, edi
	jle	SHORT $LN13@xmlDOMWrap
	npad	1
$LL14@xmlDOMWrap:

; 8270 : 			    if (node->ns == list[j]) {

	cmp	edx, DWORD PTR [ebx+eax*4]
	je	$LN49@xmlDOMWrap

; 8269 : 			for (i = 0, j = 0; i < nbList; i++, j += 2) {

	inc	ecx
	add	eax, 2
	cmp	ecx, edi
	jl	SHORT $LL14@xmlDOMWrap
$LN13@xmlDOMWrap:

; 8272 : 				goto next_node;
; 8273 : 			    }
; 8274 : 			}
; 8275 : 		    }
; 8276 : 		    ns = NULL;

	xor	edi, edi

; 8277 : 		    if (ctxt != NULL) {

	cmp	DWORD PTR _ctxt$[ebp], edi
	jne	SHORT $LN32@xmlDOMWrap

; 8278 : 			/*
; 8279 : 			* User defined.
; 8280 : 			*/
; 8281 : 		    } else {
; 8282 : 			/*
; 8283 : 			* Add to doc's oldNs.
; 8284 : 			*/
; 8285 : 			ns = xmlDOMWrapStoreNs(doc, node->ns->href,

	push	DWORD PTR [edx+12]
	push	DWORD PTR [edx+8]
	push	DWORD PTR _doc$[ebp]
	call	_xmlDOMWrapStoreNs
	mov	edi, eax
	add	esp, 12					; 0000000cH

; 8286 : 			    node->ns->prefix);
; 8287 : 			if (ns == NULL)

	test	edi, edi
	je	$internal_error$86

; 8288 : 			    goto internal_error;
; 8289 : 		    }
; 8290 : 		    if (ns != NULL) {
; 8291 : 			/*
; 8292 : 			* Add mapping.
; 8293 : 			*/
; 8294 : 			if (xmlDOMWrapNSNormAddNsMapItem2(&list, &sizeList,
; 8295 : 			    &nbList, node->ns, ns) == -1)

	push	edi
	push	DWORD PTR [esi+36]
	lea	eax, DWORD PTR _nbList$[ebp]
	push	eax
	lea	eax, DWORD PTR _sizeList$[ebp]
	push	eax
	lea	eax, DWORD PTR _list$[ebp]
	push	eax
	call	_xmlDOMWrapNSNormAddNsMapItem2
	add	esp, 20					; 00000014H
	cmp	eax, -1
	je	SHORT $LN78@xmlDOMWrap
	mov	ebx, DWORD PTR _list$[ebp]
$LN32@xmlDOMWrap:

; 8296 : 			    goto internal_error;
; 8297 : 		    }
; 8298 : 		    node->ns = ns;

	mov	DWORD PTR [esi+36], edi
$LN71@xmlDOMWrap:

; 8299 : 		}
; 8300 : 		if ((node->type == XML_ELEMENT_NODE) &&

	mov	eax, DWORD PTR [esi+4]
	cmp	eax, 1
	jne	SHORT $next_sibling$85
	mov	eax, DWORD PTR [esi+44]
	test	eax, eax
	je	SHORT $LN69@xmlDOMWrap
$LN51@xmlDOMWrap:

; 8323 : 	}
; 8324 :     } while (node != NULL);

	mov	esi, eax
	test	esi, esi
	jne	$LL6@xmlDOMWrap
$LN5@xmlDOMWrap:

; 8325 : 
; 8326 :     if (list != NULL)

	test	ebx, ebx
	je	$LN39@xmlDOMWrap

; 8327 : 	xmlFree(list);

	push	ebx
	call	DWORD PTR _xmlFree

; 8333 :     return (-1);
; 8334 : }

	add	esp, 4
	xor	eax, eax
	pop	edi
	pop	esi
	pop	ebx
	mov	esp, ebp
	pop	ebp
	ret	0
$LN49@xmlDOMWrap:

; 8271 : 				node->ns = list[++j];

	mov	eax, DWORD PTR [ebx+eax*4+4]
	mov	DWORD PTR [esi+36], eax
	mov	eax, DWORD PTR [esi+4]
$next_node$87:

; 8301 : 		    (node->properties != NULL)) {
; 8302 : 		    node = (xmlNodePtr) node->properties;
; 8303 : 		    continue;
; 8304 : 		}
; 8305 : 		break;
; 8306 : 	    default:
; 8307 : 		goto next_sibling;
; 8308 : 	}
; 8309 : next_node:
; 8310 : 	if ((node->type == XML_ELEMENT_NODE) &&

	cmp	eax, 1
	jne	SHORT $next_sibling$85
$LN69@xmlDOMWrap:
	mov	eax, DWORD PTR [esi+12]
	test	eax, eax
	jne	SHORT $LN51@xmlDOMWrap
$next_sibling$85:

; 8311 : 	    (node->children != NULL)) {
; 8312 : 	    node = node->children;
; 8313 : 	    continue;
; 8314 : 	}
; 8315 : next_sibling:
; 8316 : 	if (node == NULL)

	test	esi, esi
	je	SHORT $LN5@xmlDOMWrap

; 8317 : 	    break;
; 8318 : 	if (node->next != NULL)

	mov	eax, DWORD PTR [esi+24]
	test	eax, eax
	jne	SHORT $LN51@xmlDOMWrap

; 8319 : 	    node = node->next;
; 8320 : 	else {
; 8321 : 	    node = node->parent;

	mov	esi, DWORD PTR [esi+20]

; 8322 : 	    goto next_sibling;

	jmp	SHORT $next_sibling$85
$LN78@xmlDOMWrap:

; 8288 : 			    goto internal_error;
; 8289 : 		    }
; 8290 : 		    if (ns != NULL) {
; 8291 : 			/*
; 8292 : 			* Add mapping.
; 8293 : 			*/
; 8294 : 			if (xmlDOMWrapNSNormAddNsMapItem2(&list, &sizeList,
; 8295 : 			    &nbList, node->ns, ns) == -1)

	mov	ebx, DWORD PTR _list$[ebp]
$internal_error$86:

; 8328 :     return (0);
; 8329 : 
; 8330 : internal_error:
; 8331 :     if (list != NULL)

	test	ebx, ebx
	je	SHORT $LN16@xmlDOMWrap

; 8332 : 	xmlFree(list);

	push	ebx
	call	DWORD PTR _xmlFree
	add	esp, 4
$LN16@xmlDOMWrap:

; 8333 :     return (-1);
; 8334 : }

	pop	edi
	pop	esi
	or	eax, -1
	pop	ebx
	mov	esp, ebp
	pop	ebp
	ret	0
$LN20@xmlDOMWrap:
	pop	edi
	pop	esi
	mov	eax, 1
	pop	ebx
	mov	esp, ebp
	pop	ebp
	ret	0
	npad	1
$LN84@xmlDOMWrap:
	DD	$LN19@xmlDOMWrap
	DD	$LN18@xmlDOMWrap
	DD	$LN20@xmlDOMWrap
$LN75@xmlDOMWrap:
	DB	0
	DB	0
	DB	1
	DB	1
	DB	1
	DB	2
	DB	1
	DB	1
_xmlDOMWrapRemoveNode ENDP
_TEXT	ENDS
; Function compile flags: /Ogtp
; File c:\users\dag\documents\_clients\codeproject authors group\windows on arm\libxml2\libxml2-2.9.9\tree.c
;	COMDAT _xmlDOMWrapAdoptNode
_TEXT	SEGMENT
_ctxt$ = 8						; size = 4
_sourceDoc$ = 12					; size = 4
tv691 = 16						; size = 4
_old$1$ = 16						; size = 4
_old$1$ = 16						; size = 4
_adoptStr$1$ = 16					; size = 4
_node$ = 16						; size = 4
_destDoc$ = 20						; size = 4
_destParent$ = 24					; size = 4
_options$ = 28						; size = 4
_xmlDOMWrapAdoptNode PROC				; COMDAT

; 10036: {

	push	ebp
	mov	ebp, esp
	push	ebx
	push	esi
	push	edi
	mov	ecx, OFFSET __59973643_tree@c
	call	@__CheckForDebuggerJustMyCode@4
	mov	esi, DWORD PTR _node$[ebp]
	test	esi, esi
	je	$LN7@xmlDOMWrap

; 10037:     if ((node == NULL) || (node->type == XML_NAMESPACE_DECL) ||
; 10038:         (destDoc == NULL) ||

	mov	ecx, DWORD PTR [esi+4]
	cmp	ecx, 18					; 00000012H
	je	$LN7@xmlDOMWrap
	mov	ebx, DWORD PTR _destDoc$[ebp]
	test	ebx, ebx
	je	$LN7@xmlDOMWrap
	mov	edx, DWORD PTR _destParent$[ebp]
	test	edx, edx
	je	SHORT $LN6@xmlDOMWrap
	cmp	DWORD PTR [edx+32], ebx
	jne	$LN7@xmlDOMWrap
$LN6@xmlDOMWrap:

; 10039: 	((destParent != NULL) && (destParent->doc != destDoc)))
; 10040: 	return(-1);
; 10041:     /*
; 10042:     * Check node->doc sanity.
; 10043:     */
; 10044:     if ((node->doc != NULL) && (sourceDoc != NULL) &&

	mov	eax, DWORD PTR [esi+32]
	mov	edi, DWORD PTR _sourceDoc$[ebp]
	test	eax, eax
	je	SHORT $LN8@xmlDOMWrap
	test	edi, edi
	je	SHORT $LN46@xmlDOMWrap
	cmp	eax, edi
	jne	$LN7@xmlDOMWrap
$LN8@xmlDOMWrap:

; 10045: 	(node->doc != sourceDoc)) {
; 10046: 	/*
; 10047: 	* Might be an XIncluded node.
; 10048: 	*/
; 10049: 	return (-1);
; 10050:     }
; 10051:     if (sourceDoc == NULL)

	test	edi, edi
	jne	SHORT $LN9@xmlDOMWrap
$LN46@xmlDOMWrap:

; 10052: 	sourceDoc = node->doc;

	mov	edi, eax
$LN9@xmlDOMWrap:

; 10053:     if (sourceDoc == destDoc)

	cmp	edi, ebx
	je	$LN7@xmlDOMWrap

; 10054: 	return (-1);
; 10055:     switch (node->type) {

	lea	eax, DWORD PTR [ecx-1]
	cmp	eax, 10					; 0000000aH
	ja	$LN13@xmlDOMWrap
	movzx	eax, BYTE PTR $LN47@xmlDOMWrap[eax]
	jmp	DWORD PTR $LN54@xmlDOMWrap[eax*4]
$LN11@xmlDOMWrap:

; 10056: 	case XML_ELEMENT_NODE:
; 10057: 	case XML_ATTRIBUTE_NODE:
; 10058: 	case XML_TEXT_NODE:
; 10059: 	case XML_CDATA_SECTION_NODE:
; 10060: 	case XML_ENTITY_REF_NODE:
; 10061: 	case XML_PI_NODE:
; 10062: 	case XML_COMMENT_NODE:
; 10063: 	    break;
; 10064: 	case XML_DOCUMENT_FRAG_NODE:
; 10065: 	    /* TODO: Support document-fragment-nodes. */
; 10066: 	    return (2);
; 10067: 	default:
; 10068: 	    return (1);
; 10069:     }
; 10070:     /*
; 10071:     * Unlink only if @node was not already added to @destParent.
; 10072:     */
; 10073:     if ((node->parent != NULL) && (destParent != node->parent))

	mov	eax, DWORD PTR [esi+20]
	test	eax, eax
	je	SHORT $LN14@xmlDOMWrap
	cmp	edx, eax
	je	SHORT $LN14@xmlDOMWrap

; 10074: 	xmlUnlinkNode(node);

	push	esi
	call	_xmlUnlinkNode
	mov	ecx, DWORD PTR [esi+4]
	add	esp, 4
	mov	edx, DWORD PTR _destParent$[ebp]
$LN14@xmlDOMWrap:

; 10075: 
; 10076:     if (node->type == XML_ELEMENT_NODE) {

	cmp	ecx, 1
	jne	SHORT $LN15@xmlDOMWrap

; 10077: 	    return (xmlDOMWrapAdoptBranch(ctxt, sourceDoc, node,

	push	DWORD PTR _options$[ebp]
	push	edx
	push	ebx
	push	esi
	push	edi
	push	DWORD PTR _ctxt$[ebp]
	call	_xmlDOMWrapAdoptBranch
	add	esp, 24					; 00000018H
	pop	edi

; 10129: }

	pop	esi
	pop	ebx
	pop	ebp
	ret	0
$LN15@xmlDOMWrap:

; 10078: 		    destDoc, destParent, options));
; 10079:     } else if (node->type == XML_ATTRIBUTE_NODE) {

	cmp	ecx, 2
	jne	SHORT $LN17@xmlDOMWrap

; 10080: 	    return (xmlDOMWrapAdoptAttr(ctxt, sourceDoc,

	push	DWORD PTR _options$[ebp]
	push	edx
	push	ebx
	push	esi
	push	edi
	push	DWORD PTR _ctxt$[ebp]
	call	_xmlDOMWrapAdoptAttr
	add	esp, 24					; 00000018H
	pop	edi

; 10129: }

	pop	esi
	pop	ebx
	pop	ebp
	ret	0
$LN17@xmlDOMWrap:

; 10081: 		(xmlAttrPtr) node, destDoc, destParent, options));
; 10082:     } else {
; 10083: 	xmlNodePtr cur = node;
; 10084: 	int adoptStr = 1;
; 10085: 
; 10086: 	cur->doc = destDoc;

	mov	DWORD PTR [esi+32], ebx
	mov	edx, 1
	mov	DWORD PTR _adoptStr$1$[ebp], edx

; 10087: 	/*
; 10088: 	* Optimize string adoption.
; 10089: 	*/
; 10090: 	if ((sourceDoc != NULL) &&

	test	edi, edi
	je	SHORT $LN19@xmlDOMWrap
	mov	eax, DWORD PTR [edi+80]
	cmp	eax, DWORD PTR [ebx+80]
	mov	DWORD PTR tv691[ebp], 0
	cmove	edx, DWORD PTR tv691[ebp]
	mov	DWORD PTR _adoptStr$1$[ebp], edx
$LN19@xmlDOMWrap:

; 10091: 	    (sourceDoc->dict == destDoc->dict))
; 10092: 		adoptStr = 0;
; 10093: 	switch (node->type) {

	add	ecx, -3					; fffffffdH
	cmp	ecx, 4
	ja	$LN43@xmlDOMWrap
	jmp	DWORD PTR $LN55@xmlDOMWrap[ecx*4]
$LN20@xmlDOMWrap:

; 10094: 	    case XML_TEXT_NODE:
; 10095: 	    case XML_CDATA_SECTION_NODE:
; 10096: 		XML_TREE_ADOPT_STR_2(node->content)

	test	edx, edx
	je	$LN43@xmlDOMWrap
$LN40@xmlDOMWrap:

; 10122: 		break;
; 10123: 	    }
; 10124: 	    default:
; 10125: 		break;
; 10126: 	}
; 10127:     }
; 10128:     return (0);

	mov	ecx, DWORD PTR [esi+40]
	test	ecx, ecx
	je	$LN43@xmlDOMWrap
	test	edi, edi
	je	$LN43@xmlDOMWrap
	mov	eax, DWORD PTR [edi+80]
	test	eax, eax
	je	$LN43@xmlDOMWrap
	push	ecx
	push	eax
	call	_xmlDictOwns
	add	esp, 8
	test	eax, eax
	je	$LN43@xmlDOMWrap
	mov	ecx, DWORD PTR [ebx+80]
	mov	eax, DWORD PTR [esi+40]
	test	ecx, ecx
	je	$LN42@xmlDOMWrap
	push	-1
	push	eax
	push	ecx
	call	_xmlDictLookup
	add	esp, 12					; 0000000cH
	mov	DWORD PTR [esi+40], eax
	xor	eax, eax
	pop	edi

; 10129: }

	pop	esi
	pop	ebx
	pop	ebp
	ret	0
$LN24@xmlDOMWrap:

; 10097: 		    break;
; 10098: 	    case XML_ENTITY_REF_NODE:
; 10099: 		/*
; 10100: 		* Remove reference to the entitity-node.
; 10101: 		*/
; 10102: 		node->content = NULL;

	mov	DWORD PTR [esi+40], 0

; 10103: 		node->children = NULL;

	mov	DWORD PTR [esi+12], 0

; 10104: 		node->last = NULL;

	mov	DWORD PTR [esi+16], 0

; 10105: 		if ((destDoc->intSubset) || (destDoc->extSubset)) {

	cmp	DWORD PTR [ebx+44], 0
	jne	SHORT $LN26@xmlDOMWrap
	cmp	DWORD PTR [ebx+48], 0
	je	SHORT $LN27@xmlDOMWrap
$LN26@xmlDOMWrap:

; 10106: 		    xmlEntityPtr ent;
; 10107: 		    /*
; 10108: 		    * Assign new entity-node if available.
; 10109: 		    */
; 10110: 		    ent = xmlGetDocEntity(destDoc, node->name);

	push	DWORD PTR [esi+8]
	push	ebx
	call	_xmlGetDocEntity

; 10111: 		    if (ent != NULL) {

	mov	edx, DWORD PTR _adoptStr$1$[ebp]
	add	esp, 8
	test	eax, eax
	je	SHORT $LN27@xmlDOMWrap

; 10112: 			node->content = ent->content;

	mov	ecx, DWORD PTR [eax+40]
	mov	DWORD PTR [esi+40], ecx

; 10113: 			node->children = (xmlNodePtr) ent;

	mov	DWORD PTR [esi+12], eax

; 10114: 			node->last = (xmlNodePtr) ent;

	mov	DWORD PTR [esi+16], eax
$LN27@xmlDOMWrap:

; 10115: 		    }
; 10116: 		}
; 10117: 		XML_TREE_ADOPT_STR(node->name)

	test	edx, edx
	je	$LN43@xmlDOMWrap
	mov	eax, DWORD PTR [esi+8]
	mov	DWORD PTR _old$1$[ebp], eax
	test	eax, eax
	je	$LN43@xmlDOMWrap
	mov	ecx, DWORD PTR [ebx+80]
	test	ecx, ecx
	je	SHORT $LN29@xmlDOMWrap
	push	-1
	push	eax
	push	ecx
	call	_xmlDictLookup
	add	esp, 12					; 0000000cH
	mov	DWORD PTR [esi+8], eax
	mov	esi, DWORD PTR _old$1$[ebp]
	test	edi, edi
	je	SHORT $LN32@xmlDOMWrap
	mov	eax, DWORD PTR [edi+80]
	test	eax, eax
	je	SHORT $LN32@xmlDOMWrap
	push	esi
	push	eax
	call	_xmlDictOwns
	add	esp, 8
	test	eax, eax
	jne	$LN43@xmlDOMWrap
$LN32@xmlDOMWrap:
	push	esi
	call	DWORD PTR _xmlFree
	add	esp, 4

; 10122: 		break;
; 10123: 	    }
; 10124: 	    default:
; 10125: 		break;
; 10126: 	}
; 10127:     }
; 10128:     return (0);

	xor	eax, eax
	pop	edi

; 10129: }

	pop	esi
	pop	ebx
	pop	ebp
	ret	0
$LN29@xmlDOMWrap:

; 10115: 		    }
; 10116: 		}
; 10117: 		XML_TREE_ADOPT_STR(node->name)

	test	edi, edi
	je	$LN43@xmlDOMWrap
	mov	ecx, DWORD PTR [edi+80]
	test	ecx, ecx
	je	$LN43@xmlDOMWrap
	push	eax
	push	ecx
	call	_xmlDictOwns
	add	esp, 8
	test	eax, eax
	je	$LN43@xmlDOMWrap
	push	DWORD PTR [esi+8]
	call	_xmlStrdup
	add	esp, 4
	mov	DWORD PTR [esi+8], eax

; 10122: 		break;
; 10123: 	    }
; 10124: 	    default:
; 10125: 		break;
; 10126: 	}
; 10127:     }
; 10128:     return (0);

	xor	eax, eax
	pop	edi

; 10129: }

	pop	esi
	pop	ebx
	pop	ebp
	ret	0
$LN34@xmlDOMWrap:

; 10118: 		break;
; 10119: 	    case XML_PI_NODE: {
; 10120: 		XML_TREE_ADOPT_STR(node->name)

	test	edx, edx
	je	$LN43@xmlDOMWrap
	mov	eax, DWORD PTR [esi+8]
	mov	DWORD PTR _old$1$[ebp], eax
	test	eax, eax
	je	$LN40@xmlDOMWrap
	mov	ecx, DWORD PTR [ebx+80]
	test	ecx, ecx
	je	SHORT $LN36@xmlDOMWrap
	push	-1
	push	eax
	push	ecx
	call	_xmlDictLookup
	add	esp, 12					; 0000000cH
	mov	DWORD PTR [esi+8], eax
	test	edi, edi
	je	SHORT $LN39@xmlDOMWrap
	mov	eax, DWORD PTR [edi+80]
	test	eax, eax
	je	SHORT $LN39@xmlDOMWrap
	push	DWORD PTR _old$1$[ebp]
	push	eax
	call	_xmlDictOwns
	add	esp, 8
	test	eax, eax
	jne	$LN40@xmlDOMWrap
$LN39@xmlDOMWrap:
	push	DWORD PTR _old$1$[ebp]
	call	DWORD PTR _xmlFree

; 10121: 		XML_TREE_ADOPT_STR_2(node->content)

	add	esp, 4
	jmp	$LN40@xmlDOMWrap
$LN36@xmlDOMWrap:

; 10118: 		break;
; 10119: 	    case XML_PI_NODE: {
; 10120: 		XML_TREE_ADOPT_STR(node->name)

	test	edi, edi
	je	$LN40@xmlDOMWrap
	mov	ecx, DWORD PTR [edi+80]
	test	ecx, ecx
	je	$LN40@xmlDOMWrap
	push	eax
	push	ecx
	call	_xmlDictOwns
	add	esp, 8
	test	eax, eax
	je	$LN40@xmlDOMWrap
	push	DWORD PTR [esi+8]
	call	_xmlStrdup
	mov	DWORD PTR [esi+8], eax

; 10121: 		XML_TREE_ADOPT_STR_2(node->content)

	add	esp, 4
	jmp	$LN40@xmlDOMWrap
$LN42@xmlDOMWrap:

; 10122: 		break;
; 10123: 	    }
; 10124: 	    default:
; 10125: 		break;
; 10126: 	}
; 10127:     }
; 10128:     return (0);

	push	eax
	call	_xmlStrdup
	add	esp, 4
	mov	DWORD PTR [esi+40], eax
$LN43@xmlDOMWrap:

; 10129: }

	pop	edi
	pop	esi
	xor	eax, eax
	pop	ebx
	pop	ebp
	ret	0
$LN12@xmlDOMWrap:
	pop	edi
	pop	esi
	mov	eax, 2
	pop	ebx
	pop	ebp
	ret	0
$LN13@xmlDOMWrap:
	pop	edi
	pop	esi
	mov	eax, 1
	pop	ebx
	pop	ebp
	ret	0
$LN7@xmlDOMWrap:
	pop	edi
	pop	esi
	or	eax, -1
	pop	ebx
	pop	ebp
	ret	0
	npad	2
$LN54@xmlDOMWrap:
	DD	$LN11@xmlDOMWrap
	DD	$LN12@xmlDOMWrap
	DD	$LN13@xmlDOMWrap
$LN47@xmlDOMWrap:
	DB	0
	DB	0
	DB	0
	DB	0
	DB	0
	DB	2
	DB	0
	DB	0
	DB	2
	DB	2
	DB	1
	npad	1
$LN55@xmlDOMWrap:
	DD	$LN20@xmlDOMWrap
	DD	$LN20@xmlDOMWrap
	DD	$LN24@xmlDOMWrap
	DD	$LN43@xmlDOMWrap
	DD	$LN34@xmlDOMWrap
_xmlDOMWrapAdoptNode ENDP
_TEXT	ENDS
; Function compile flags: /Ogtp
; File c:\users\dag\documents\_clients\codeproject authors group\windows on arm\libxml2\libxml2-2.9.9\tree.c
;	COMDAT _xmlDOMWrapReconcileNamespaces
_TEXT	SEGMENT
_doc$1$ = -52						; size = 4
_sizeRedund$ = -48					; size = 4
tv1141 = -44						; size = 4
_ns$ = -40						; size = 4
_curElem$1$ = -36					; size = 4
_parnsdone$1$ = -32					; size = 4
_adoptns$1$ = -28					; size = 4
_listRedund$ = -24					; size = 4
_nsMap$1$ = -20						; size = 4
_nbRedund$ = -16					; size = 4
_nsMap$ = -12						; size = 4
_newNs$1$ = -8						; size = 4
_cur$1$ = -4						; size = 4
_ctxt$ = 8						; size = 4
_ret$1$ = 12						; size = 4
_elem$ = 12						; size = 4
_prevns$1$ = 16						; size = 4
_nbRedund$1$ = 16					; size = 4
_options$ = 16						; size = 4
_xmlDOMWrapReconcileNamespaces PROC			; COMDAT

; 8742 : {

	push	ebp
	mov	ebp, esp
	sub	esp, 52					; 00000034H
	push	ebx
	push	esi
	push	edi
	mov	ecx, OFFSET __59973643_tree@c
	call	@__CheckForDebuggerJustMyCode@4
	mov	ecx, DWORD PTR _elem$[ebp]
	xor	eax, eax
	mov	DWORD PTR _parnsdone$1$[ebp], eax
	xor	esi, esi
	mov	DWORD PTR _curElem$1$[ebp], eax
	xor	edi, edi
	mov	eax, DWORD PTR _options$[ebp]
	or	ebx, -1
	and	eax, 1
	mov	DWORD PTR _nsMap$1$[ebp], esi
	mov	DWORD PTR _nsMap$[ebp], esi
	mov	DWORD PTR tv1141[ebp], eax
	mov	DWORD PTR _listRedund$[ebp], esi
	mov	DWORD PTR _sizeRedund$[ebp], esi
	mov	DWORD PTR _nbRedund$1$[ebp], edi
	mov	DWORD PTR _nbRedund$[ebp], edi
	test	ecx, ecx
	je	$LN30@xmlDOMWrap

; 8743 :     int depth = -1, adoptns = 0, parnsdone = 0;
; 8744 :     xmlNsPtr ns, prevns;
; 8745 :     xmlDocPtr doc;
; 8746 :     xmlNodePtr cur, curElem = NULL;
; 8747 :     xmlNsMapPtr nsMap = NULL;
; 8748 :     xmlNsMapItemPtr /* topmi = NULL, */ mi;
; 8749 :     /* @ancestorsOnly should be set by an option flag. */
; 8750 :     int ancestorsOnly = 0;
; 8751 :     int optRemoveRedundantNS =
; 8752 : 	((xmlDOMReconcileNSOptions) options & XML_DOM_RECONNS_REMOVEREDUND) ? 1 : 0;
; 8753 :     xmlNsPtr *listRedund = NULL;
; 8754 :     int sizeRedund = 0, nbRedund = 0, ret, i, j;
; 8755 : 
; 8756 :     if ((elem == NULL) || (elem->doc == NULL) ||

	mov	eax, DWORD PTR [ecx+32]
	mov	DWORD PTR _doc$1$[ebp], eax
	test	eax, eax
	je	$LN30@xmlDOMWrap
	cmp	DWORD PTR [ecx+4], 1
	jne	$LN30@xmlDOMWrap

; 8757 : 	(elem->type != XML_ELEMENT_NODE))
; 8758 : 	return (-1);
; 8759 : 
; 8760 :     doc = elem->doc;
; 8761 :     cur = elem;

	mov	edx, ecx
	mov	DWORD PTR _cur$1$[ebp], edx
$LL4@xmlDOMWrap:

; 8762 :     do {
; 8763 : 	switch (cur->type) {

	mov	eax, DWORD PTR [edx+4]
	sub	eax, 1
	je	SHORT $LN31@xmlDOMWrap
	sub	eax, 1
	je	$LN48@xmlDOMWrap
	jmp	$next_sibling$254
$LN31@xmlDOMWrap:

; 8764 : 	    case XML_ELEMENT_NODE:
; 8765 : 		adoptns = 1;
; 8766 : 		curElem = cur;
; 8767 : 		depth++;
; 8768 : 		/*
; 8769 : 		* Namespace declarations.
; 8770 : 		*/
; 8771 : 		if (cur->nsDef != NULL) {

	mov	eax, DWORD PTR [edx+48]
	mov	edi, 1
	inc	ebx
	mov	DWORD PTR _adoptns$1$[ebp], edi
	mov	DWORD PTR _curElem$1$[ebp], edx
	mov	DWORD PTR _newNs$1$[ebp], eax
	test	eax, eax
	je	$LN238@xmlDOMWrap

; 8772 : 		    prevns = NULL;

	xor	ecx, ecx
	mov	DWORD PTR _prevns$1$[ebp], ecx
	npad	6
$LL7@xmlDOMWrap:

; 8773 : 		    ns = cur->nsDef;
; 8774 : 		    while (ns != NULL) {
; 8775 : 			if (! parnsdone) {

	cmp	DWORD PTR _parnsdone$1$[ebp], 0
	jne	SHORT $LN33@xmlDOMWrap

; 8776 : 			    if ((elem->parent) &&

	mov	ecx, DWORD PTR _elem$[ebp]
	mov	ecx, DWORD PTR [ecx+20]
	test	ecx, ecx
	je	SHORT $LN35@xmlDOMWrap
	cmp	DWORD PTR [ecx+32], ecx
	je	SHORT $LN35@xmlDOMWrap

; 8777 : 				((xmlNodePtr) elem->parent->doc != elem->parent)) {
; 8778 : 				/*
; 8779 : 				* Gather ancestor in-scope ns-decls.
; 8780 : 				*/
; 8781 : 				if (xmlDOMWrapNSNormGatherInScopeNs(&nsMap,
; 8782 : 				    elem->parent) == -1)

	push	ecx
	lea	eax, DWORD PTR _nsMap$[ebp]
	push	eax
	call	_xmlDOMWrapNSNormGatherInScopeNs
	mov	esi, DWORD PTR _nsMap$[ebp]
	add	esp, 8
	cmp	eax, -1
	je	$LN226@xmlDOMWrap
	mov	eax, DWORD PTR _newNs$1$[ebp]
	mov	DWORD PTR _nsMap$1$[ebp], esi
$LN35@xmlDOMWrap:

; 8783 : 				    goto internal_error;
; 8784 : 			    }
; 8785 : 			    parnsdone = 1;

	mov	DWORD PTR _parnsdone$1$[ebp], 1
$LN33@xmlDOMWrap:

; 8786 : 			}
; 8787 : 
; 8788 : 			/*
; 8789 : 			* Lookup the ns ancestor-axis for equal ns-decls in scope.
; 8790 : 			*/
; 8791 : 			if (optRemoveRedundantNS && XML_NSMAP_NOTEMPTY(nsMap)) {

	cmp	DWORD PTR tv1141[ebp], 0
	je	$LN208@xmlDOMWrap
	test	esi, esi
	je	$LN208@xmlDOMWrap
	mov	edi, DWORD PTR [esi]
	test	edi, edi
	je	$LN237@xmlDOMWrap
$LL11@xmlDOMWrap:

; 8793 : 				if ((mi->depth >= XML_TREE_NSMAP_PARENT) &&
; 8794 : 				    (mi->shadowDepth == -1) &&
; 8795 : 				    ((ns->prefix == mi->newNs->prefix) ||
; 8796 : 				      xmlStrEqual(ns->prefix, mi->newNs->prefix)) &&

	cmp	DWORD PTR [edi+20], -1
	jl	SHORT $LN9@xmlDOMWrap
	cmp	DWORD PTR [edi+16], -1
	jne	SHORT $LN9@xmlDOMWrap
	mov	ecx, DWORD PTR [eax+12]
	mov	eax, DWORD PTR [edi+12]
	mov	eax, DWORD PTR [eax+12]
	cmp	ecx, eax
	je	SHORT $LN38@xmlDOMWrap
	push	eax
	push	ecx
	call	_xmlStrEqual
	add	esp, 8
	test	eax, eax
	je	SHORT $LN9@xmlDOMWrap
$LN38@xmlDOMWrap:
	mov	ecx, DWORD PTR _newNs$1$[ebp]
	mov	eax, DWORD PTR [edi+12]
	mov	ecx, DWORD PTR [ecx+8]
	mov	eax, DWORD PTR [eax+8]
	cmp	ecx, eax
	je	SHORT $LN194@xmlDOMWrap
	push	eax
	push	ecx
	call	_xmlStrEqual
	add	esp, 8
	test	eax, eax
	jne	SHORT $LN194@xmlDOMWrap
$LN9@xmlDOMWrap:

; 8792 : 			    XML_NSMAP_FOREACH(nsMap, mi) {

	mov	edi, DWORD PTR [edi]
	test	edi, edi
	je	SHORT $LN237@xmlDOMWrap
	mov	eax, DWORD PTR _newNs$1$[ebp]
	jmp	SHORT $LL11@xmlDOMWrap
$LN194@xmlDOMWrap:

; 8797 : 				    ((ns->href == mi->newNs->href) ||
; 8798 : 				      xmlStrEqual(ns->href, mi->newNs->href)))
; 8799 : 				{
; 8800 : 				    /*
; 8801 : 				    * A redundant ns-decl was found.
; 8802 : 				    * Add it to the list of redundant ns-decls.
; 8803 : 				    */
; 8804 : 				    if (xmlDOMWrapNSNormAddNsMapItem2(&listRedund,
; 8805 : 					&sizeRedund, &nbRedund, ns, mi->newNs) == -1)

	push	DWORD PTR [edi+12]
	mov	edi, DWORD PTR _newNs$1$[ebp]
	lea	eax, DWORD PTR _nbRedund$[ebp]
	push	edi
	push	eax
	lea	eax, DWORD PTR _sizeRedund$[ebp]
	push	eax
	lea	eax, DWORD PTR _listRedund$[ebp]
	push	eax
	call	_xmlDOMWrapNSNormAddNsMapItem2
	add	esp, 20					; 00000014H
	cmp	eax, -1
	je	$LN226@xmlDOMWrap

; 8806 : 					goto internal_error;
; 8807 : 				    /*
; 8808 : 				    * Remove the ns-decl from the element-node.
; 8809 : 				    */
; 8810 : 				    if (prevns)

	mov	ecx, DWORD PTR _prevns$1$[ebp]
	mov	eax, DWORD PTR [edi]
	mov	edx, DWORD PTR _cur$1$[ebp]
	test	ecx, ecx
	je	SHORT $LN41@xmlDOMWrap

; 8811 : 					prevns->next = ns->next;

	mov	DWORD PTR [ecx], eax
	mov	eax, edi
	jmp	$next_ns_decl$255
$LN41@xmlDOMWrap:

; 8812 : 				    else
; 8813 : 					cur->nsDef = ns->next;

	mov	DWORD PTR [edx+48], eax

; 8814 : 				    goto next_ns_decl;

	mov	eax, DWORD PTR _newNs$1$[ebp]
	jmp	$next_ns_decl$255
$LN237@xmlDOMWrap:

; 8815 : 				}
; 8816 : 			    }
; 8817 : 			}
; 8818 : 
; 8819 : 			/*
; 8820 : 			* Skip ns-references handling if the referenced
