; Listing generated by Microsoft (R) Optimizing Compiler Version 19.16.27027.1 

	TITLE	C:\Users\DAG\Documents\_Clients\CodeProject Authors Group\Windows on ARM\libxml2\libxml2-2.9.9\valid.c
	.686P
	.XMM
	include listing.inc
	.model	flat

INCLUDELIB MSVCRT
INCLUDELIB OLDNAMES

_DATA	SEGMENT
COMM	_xmlMalloc:DWORD
COMM	_xmlMallocAtomic:DWORD
COMM	_xmlRealloc:DWORD
COMM	_xmlFree:DWORD
COMM	_xmlMemStrdup:DWORD
COMM	_xmlIsBaseCharGroup:BYTE:010H
COMM	_xmlIsCharGroup:BYTE:010H
COMM	_xmlIsCombiningGroup:BYTE:010H
COMM	_xmlIsDigitGroup:BYTE:010H
COMM	_xmlIsExtenderGroup:BYTE:010H
COMM	_xmlIsIdeographicGroup:BYTE:010H
COMM	_xmlIsPubidChar_tab:BYTE:0100H
COMM	_xmlParserMaxDepth:DWORD
COMM	_forbiddenExp:DWORD
COMM	_emptyExp:DWORD
_DATA	ENDS
msvcjmc	SEGMENT
__188180DA_corecrt_math@h DB 01H
__2CC6E67D_corecrt_stdio_config@h DB 01H
__05476D76_corecrt_wstdio@h DB 01H
__A452D4A0_stdio@h DB 01H
__4384A2D9_corecrt_memcpy_s@h DB 01H
__4E51A221_corecrt_wstring@h DB 01H
__2140C079_string@h DB 01H
__56F63275_valid@c DB 01H
msvcjmc	ENDS
PUBLIC	_xmlAddNotationDecl
PUBLIC	_xmlCopyNotationTable
PUBLIC	_xmlFreeNotationTable
PUBLIC	_xmlDumpNotationDecl
PUBLIC	_xmlDumpNotationTable
PUBLIC	_xmlNewElementContent
PUBLIC	_xmlCopyElementContent
PUBLIC	_xmlFreeElementContent
PUBLIC	_xmlNewDocElementContent
PUBLIC	_xmlCopyDocElementContent
PUBLIC	_xmlFreeDocElementContent
PUBLIC	_xmlSnprintfElementContent
PUBLIC	_xmlSprintfElementContent
PUBLIC	_xmlAddElementDecl
PUBLIC	_xmlCopyElementTable
PUBLIC	_xmlFreeElementTable
PUBLIC	_xmlDumpElementTable
PUBLIC	_xmlDumpElementDecl
PUBLIC	_xmlCreateEnumeration
PUBLIC	_xmlFreeEnumeration
PUBLIC	_xmlCopyEnumeration
PUBLIC	_xmlAddAttributeDecl
PUBLIC	_xmlCopyAttributeTable
PUBLIC	_xmlFreeAttributeTable
PUBLIC	_xmlDumpAttributeTable
PUBLIC	_xmlDumpAttributeDecl
PUBLIC	_xmlAddID
PUBLIC	_xmlFreeIDTable
PUBLIC	_xmlGetID
PUBLIC	_xmlIsID
PUBLIC	_xmlRemoveID
PUBLIC	_xmlAddRef
PUBLIC	_xmlFreeRefTable
PUBLIC	_xmlIsRef
PUBLIC	_xmlRemoveRef
PUBLIC	_xmlGetRefs
PUBLIC	_xmlNewValidCtxt
PUBLIC	_xmlFreeValidCtxt
PUBLIC	_xmlValidateRoot
PUBLIC	_xmlValidateElementDecl
PUBLIC	_xmlValidNormalizeAttributeValue
PUBLIC	_xmlValidCtxtNormalizeAttributeValue
PUBLIC	_xmlValidateAttributeDecl
PUBLIC	_xmlValidateAttributeValue
PUBLIC	_xmlValidateNotationDecl
PUBLIC	_xmlValidateDtd
PUBLIC	_xmlValidateDtdFinal
PUBLIC	_xmlValidateDocument
PUBLIC	_xmlValidateElement
PUBLIC	_xmlValidateOneElement
PUBLIC	_xmlValidateOneAttribute
PUBLIC	_xmlValidateOneNamespace
PUBLIC	_xmlValidateDocumentFinal
PUBLIC	_xmlValidateNotationUse
PUBLIC	_xmlIsMixedElement
PUBLIC	_xmlGetDtdAttrDesc
PUBLIC	_xmlGetDtdQAttrDesc
PUBLIC	_xmlGetDtdNotationDesc
PUBLIC	_xmlGetDtdQElementDesc
PUBLIC	_xmlGetDtdElementDesc
PUBLIC	_xmlValidGetPotentialChildren
PUBLIC	_xmlValidGetValidElements
PUBLIC	_xmlValidateNameValue
PUBLIC	_xmlValidateNamesValue
PUBLIC	_xmlValidateNmtokenValue
PUBLIC	_xmlValidateNmtokensValue
PUBLIC	_xmlValidBuildContentModel
PUBLIC	_xmlValidatePushElement
PUBLIC	_xmlValidatePushCData
PUBLIC	_xmlValidatePopElement
PUBLIC	__JustMyCode_Default
PUBLIC	??_C@_0BP@DJFHNAOK@Memory?5allocation?5failed?5?3?5?$CFs?6@ ; `string'
PUBLIC	??_C@_0BK@GDFDKGPJ@Memory?5allocation?5failed?6@ ; `string'
PUBLIC	??_C@_02DKCKIIND@?$CFs@				; `string'
PUBLIC	??_C@_0O@IMHFIAOC@malloc?5failed@		; `string'
PUBLIC	??_C@_0P@BHJOIPMJ@realloc?5failed@		; `string'
PUBLIC	??_C@_0CN@GEBFHDLO@Failed?5to?5build?5content?5model?5r@ ; `string'
PUBLIC	??_C@_0CL@FIAOIAHN@Found?5NULL?5content?5in?5content?5m@ ; `string'
PUBLIC	??_C@_0CF@IIHAKBAI@Found?5PCDATA?5in?5content?5model?5o@ ; `string'
PUBLIC	??_C@_0BH@INHICIGB@Building?5content?5model@	; `string'
PUBLIC	??_C@_0CE@LMBMADBI@ContentModel?5broken?5for?5element@ ; `string'
PUBLIC	??_C@_0CH@LILACHHH@Cannot?5create?5automata?5for?5elem@ ; `string'
PUBLIC	??_C@_0CM@GHMIMING@Content?5model?5of?5?$CFs?5is?5not?5dete@ ; `string'
PUBLIC	??_C@_0CH@ODCBAOPP@xmlNewElementContent?5?3?5name?5?$DN?$DN?5@ ; `string'
PUBLIC	??_C@_0CH@EHMNFIPD@xmlNewElementContent?5?3?5name?5?$CB?$DN?5@ ; `string'
PUBLIC	??_C@_0DC@GLPLFDD@Internal?3?5ELEMENT?5content?5corru@ ; `string'
PUBLIC	??_C@_01ODHLEDKK@?$CI@				; `string'
PUBLIC	??_C@_07ELDBONKP@?$CDPCDATA@			; `string'
PUBLIC	??_C@_01JLIPDDHJ@?3@				; `string'
PUBLIC	??_C@_03NKFKBEPL@?5?0?5@			; `string'
PUBLIC	??_C@_03LGOGDKEL@?5?$HM?5@			; `string'
PUBLIC	??_C@_01PKGAHCOL@?$CJ@				; `string'
PUBLIC	??_C@_01OGPIMHDM@?$DP@				; `string'
PUBLIC	??_C@_01NBENCBCI@?$CK@				; `string'
PUBLIC	??_C@_01MIFGBAGJ@?$CL@				; `string'
PUBLIC	??_C@_04IBCFJNCN@?5?4?4?4@			; `string'
PUBLIC	??_C@_0CO@BLBNCGCL@xmlAddElementDecl?3?5content?5?$CB?$DN?5N@ ; `string'
PUBLIC	??_C@_0CM@DBFKJMHA@xmlAddElementDecl?3?5content?5?$CB?$DN?5N@ ; `string'
PUBLIC	??_C@_0CO@IMMDEKCP@xmlAddElementDecl?3?5content?5?$DN?$DN?5N@ ; `string'
PUBLIC	??_C@_0DA@CFDLEHAD@xmlAddElementDecl?3?5content?5?$DN?$DN?5N@ ; `string'
PUBLIC	??_C@_0CP@HFIOBKAA@Internal?3?5ELEMENT?5decl?5corrupte@ ; `string'
PUBLIC	??_C@_0CL@IICJECDN@xmlAddElementDecl?3?5Table?5creati@ ; `string'
PUBLIC	??_C@_0BM@DLJMKEJ@Redefinition?5of?5element?5?$CFs?6@ ; `string'
PUBLIC	??_C@_0L@EMLMHHFJ@?$DM?$CBELEMENT?5@		; `string'
PUBLIC	??_C@_08HMKELAAG@?5EMPTY?$DO?6@			; `string'
PUBLIC	??_C@_06OMPGEGME@?5ANY?$DO?6@			; `string'
PUBLIC	??_C@_01CLKCMJKC@?5@				; `string'
PUBLIC	??_C@_02NEKEAGPN@?$DO?6@			; `string'
PUBLIC	??_C@_0DB@NFLGBMMC@Internal?3?5ELEMENT?5struct?5corrup@ ; `string'
PUBLIC	??_C@_0DE@EJGKGKMH@Element?5?$CFs?5has?5too?5many?5ID?5attr@ ; `string'
PUBLIC	??_C@_0DD@NLJCGIHL@Internal?3?5ATTRIBUTE?5struct?5corr@ ; `string'
PUBLIC	??_C@_0CL@IHGCOODJ@Attribute?5?$CFs?5of?5?$CFs?3?5invalid?5def@ ; `string'
PUBLIC	??_C@_0CN@LFDBMMCB@xmlAddAttributeDecl?3?5Table?5crea@ ; `string'
PUBLIC	??_C@_0CN@HJBCFPNE@Attribute?5?$CFs?5of?5element?5?$CFs?3?5alr@ ; `string'
PUBLIC	??_C@_0DD@GEPJIIIF@Element?5?$CFs?5has?5too?5may?5ID?5attri@ ; `string'
PUBLIC	??_C@_05PPEFOGKI@xmlns@				; `string'
PUBLIC	??_C@_0L@NDHICKFH@?$DM?$CBATTLIST?5@		; `string'
PUBLIC	??_C@_06CIOOFICG@?5CDATA@			; `string'
PUBLIC	??_C@_03JFNHLDJD@?5ID@				; `string'
PUBLIC	??_C@_06JJHMNMLB@?5IDREF@			; `string'
PUBLIC	??_C@_07CNGJPBFB@?5IDREFS@			; `string'
PUBLIC	??_C@_07GLIJGNMP@?5ENTITY@			; `string'
PUBLIC	??_C@_09MILPKLMO@?5ENTITIES@			; `string'
PUBLIC	??_C@_08JLMONKHB@?5NMTOKEN@			; `string'
PUBLIC	??_C@_09LGAPIBOH@?5NMTOKENS@			; `string'
PUBLIC	??_C@_02GFKOMOKH@?5?$CI@			; `string'
PUBLIC	??_C@_0M@IGKIMAHJ@?5NOTATION?5?$CI@		; `string'
PUBLIC	??_C@_0L@IEBFJPBC@?5?$CDREQUIRED@		; `string'
PUBLIC	??_C@_09GOIPIIGC@?5?$CDIMPLIED@			; `string'
PUBLIC	??_C@_07PNOBFAOP@?5?$CDFIXED@			; `string'
PUBLIC	??_C@_0DC@EJJFJDDL@Internal?3?5ATTRIBUTE?5struct?5corr@ ; `string'
PUBLIC	??_C@_0CM@PJBPJANJ@xmlAddNotationDecl?3?5Table?5creat@ ; `string'
PUBLIC	??_C@_0CI@HFJJKKEO@xmlAddNotationDecl?3?5?$CFs?5already?5@ ; `string'
PUBLIC	??_C@_0M@IOFINGOM@?$DM?$CBNOTATION?5@		; `string'
PUBLIC	??_C@_08GBBLECIH@?5PUBLIC?5@			; `string'
PUBLIC	??_C@_08PAGGLANP@?5SYSTEM?5@			; `string'
PUBLIC	??_C@_03KKJDKPMN@?5?$DO?6@			; `string'
PUBLIC	??_C@_0CC@HPFDMDEK@xmlAddID?3?5Table?5creation?5failed@ ; `string'
PUBLIC	??_C@_0BH@JKIFIOPN@ID?5?$CFs?5already?5defined?6@ ; `string'
PUBLIC	??_C@_02EGCJHIOB@id@				; `string'
PUBLIC	??_C@_03PJHHNEEI@xml@				; `string'
PUBLIC	??_C@_04MEMAJGDJ@name@				; `string'
PUBLIC	??_C@_01MCMALHOG@a@				; `string'
PUBLIC	??_C@_0CD@JKLLCBGN@xmlAddRef?3?5Table?5creation?5faile@ ; `string'
PUBLIC	??_C@_0CM@EILGCMCJ@xmlAddRef?3?5Reference?5list?5creat@ ; `string'
PUBLIC	??_C@_0CN@CLGHPEIK@xmlAddRef?3?5Reference?5list?5inser@ ; `string'
PUBLIC	??_C@_0CA@OJAJCLMD@element?5table?5allocation?5failed@ ; `string'
PUBLIC	??_C@_0BN@NONOBNKE@NOTATION?5?$CFs?5is?5not?5declared?6@ ; `string'
PUBLIC	??_C@_0DG@NHAJHAEC@ENTITY?5attribute?5?$CFs?5reference?5a@ ; `string'
PUBLIC	??_C@_0DM@CBMBENAH@ENTITY?5attribute?5?$CFs?5reference?5a@ ; `string'
PUBLIC	??_C@_0DI@MOCJGONA@ENTITIES?5attribute?5?$CFs?5reference@ ; `string'
PUBLIC	??_C@_0DO@BNHKOEGN@ENTITIES?5attribute?5?$CFs?5reference@ ; `string'
PUBLIC	??_C@_0DK@HMAANMLE@NOTATION?5attribute?5?$CFs?5reference@ ; `string'
PUBLIC	??_C@_0FG@CJEJIEOP@standalone?3?5?$CFs?5on?5?$CFs?5value?5had?5@ ; `string'
PUBLIC	??_C@_0DN@MJLCEKEK@Syntax?5of?5default?5value?5for?5att@ ; `string'
PUBLIC	??_C@_0EC@DNHDHDCI@ID?5attribute?5?$CFs?5of?5?$CFs?5is?5not?5va@ ; `string'
PUBLIC	??_C@_0EE@MLJMMKCM@Element?5?$CFs?5has?5?$CFd?5ID?5attribute?5@ ; `string'
PUBLIC	??_C@_0EE@JDKHGIAG@Element?5?$CFs?5has?5?$CFd?5ID?5attribute?5@ ; `string'
PUBLIC	??_C@_0EP@CFLHEJLO@Element?5?$CFs?5has?5ID?5attributes?5de@ ; `string'
PUBLIC	??_C@_0EL@MPNELAFE@Default?5value?5?$CC?$CFs?$CC?5for?5attribut@ ; `string'
PUBLIC	??_C@_0DB@DPGOOPFF@Definition?5of?5?$CFs?5has?5duplicate?5@ ; `string'
PUBLIC	??_C@_0DE@IDAOJGBB@Definition?5of?5?$CFs?5has?5duplicate?5@ ; `string'
PUBLIC	??_C@_0DB@HNLIHGKJ@Definition?5of?5?$CFs?5has?5duplicate?5@ ; `string'
PUBLIC	??_C@_0DE@PAODFKFF@Definition?5of?5?$CFs?5has?5duplicate?5@ ; `string'
PUBLIC	??_C@_0CP@IDGJHJLH@No?5declaration?5for?5attribute?5?$CFs@ ; `string'
PUBLIC	??_C@_0DF@PPLCGADM@Syntax?5of?5value?5for?5attribute?5?$CF@ ; `string'
PUBLIC	??_C@_0DN@BPCEOAOB@Value?5for?5attribute?5?$CFs?5of?5?$CFs?5is@ ; `string'
PUBLIC	??_C@_0DO@HAIKKCN@Value?5?$CC?$CFs?$CC?5for?5attribute?5?$CFs?5of?5@ ; `string'
PUBLIC	??_C@_0EJ@LLDEHINL@Value?5?$CC?$CFs?$CC?5for?5attribute?5?$CFs?5of?5@ ; `string'
PUBLIC	??_C@_0ED@GMECILPN@Value?5?$CC?$CFs?$CC?5for?5attribute?5?$CFs?5of?5@ ; `string'
PUBLIC	??_C@_0CL@KKBPHLEC@Value?5for?5attribute?5?$CFs?5of?5?$CFs?5mu@ ; `string'
PUBLIC	??_C@_0BF@INLCBMIM@Validating?5namespace@	; `string'
PUBLIC	??_C@_0DF@GJIDMPBO@No?5declaration?5for?5attribute?5xm@ ; `string'
PUBLIC	??_C@_0DC@FPONLEAN@No?5declaration?5for?5attribute?5xm@ ; `string'
PUBLIC	??_C@_0DL@CBOACJEL@Syntax?5of?5value?5for?5attribute?5x@ ; `string'
PUBLIC	??_C@_0DI@HAHGLIKC@Syntax?5of?5value?5for?5attribute?5x@ ; `string'
PUBLIC	??_C@_0ED@KAGANNGH@Value?5for?5attribute?5xmlns?3?$CFs?5of@ ; `string'
PUBLIC	??_C@_0EA@HGOHDHBG@Value?5for?5attribute?5xmlns?5of?5?$CFs@ ; `string'
PUBLIC	??_C@_0EE@ENPHOLHF@Value?5?$CC?$CFs?$CC?5for?5attribute?5xmlns?3@ ; `string'
PUBLIC	??_C@_0EB@IKNIAELF@Value?5?$CC?$CFs?$CC?5for?5attribute?5xmlns?5@ ; `string'
PUBLIC	??_C@_0EP@PJCDPKEK@Value?5?$CC?$CFs?$CC?5for?5attribute?5xmlns?3@ ; `string'
PUBLIC	??_C@_0EM@LDEIIDJK@Value?5?$CC?$CFs?$CC?5for?5attribute?5xmlns?5@ ; `string'
PUBLIC	??_C@_0EJ@PDIHKDMN@Value?5?$CC?$CFs?$CC?5for?5attribute?5xmlns?3@ ; `string'
PUBLIC	??_C@_0EG@CDCEFKCM@Value?5?$CC?$CFs?$CC?5for?5attribute?5xmlns?5@ ; `string'
PUBLIC	??_C@_0DB@DPJFCMMB@Value?5for?5attribute?5xmlns?3?$CFs?5of@ ; `string'
PUBLIC	??_C@_0CO@DNGFHLPE@Value?5for?5attribute?5xmlns?5of?5?$CFs@ ; `string'
PUBLIC	??_C@_05MLPNBPGH@CDATA@				; `string'
PUBLIC	??_C@_03BBKEAIF@?$DP?$DP?$DP@			; `string'
PUBLIC	??_C@_0EC@IAKGOMPC@Element?5?$CFs?5content?5does?5not?5fol@ ; `string'
PUBLIC	??_C@_0DP@CBELDNAH@Element?5content?5does?5not?5follow@ ; `string'
PUBLIC	??_C@_0CC@LMJFIFCG@Internal?3?5MIXED?5struct?5corrupte@ ; `string'
PUBLIC	??_C@_0BP@CMBGNCIM@No?5declaration?5for?5element?5?$CFs?6@ ; `string'
PUBLIC	??_C@_0DE@KLKCMFPH@Element?5?$CFs?5was?5declared?5EMPTY?5t@ ; `string'
PUBLIC	??_C@_0DN@CFJCCMLK@Element?5?$CFs?5was?5declared?5?$CDPCDATA@ ; `string'
PUBLIC	??_C@_0DM@IPIENEI@Element?5?$CFs?5is?5not?5declared?5in?5?$CF@ ; `string'
PUBLIC	??_C@_0DK@BGIDCAIC@Element?5?$CFs?5content?5does?5not?5fol@ ; `string'
PUBLIC	??_C@_0DO@HNMIGKJO@Element?5?$CFs?5content?5does?5not?5fol@ ; `string'
PUBLIC	??_C@_0EC@JDBIOCJK@Element?5?$CFs?5content?5does?5not?5fol@ ; `string'
PUBLIC	??_C@_0CA@EPFCDFAG@Attribute?5element?5not?5expected?6@ ; `string'
PUBLIC	??_C@_0BN@JALMDBBB@Text?5element?5has?5children?5?$CB?6@ ; `string'
PUBLIC	??_C@_0BO@NIGEHALL@Text?5element?5has?5namespace?5?$CB?6@ ; `string'
PUBLIC	??_C@_0BP@DPPADDEP@Text?5element?5has?5no?5content?5?$CB?6@ ; `string'
PUBLIC	??_C@_0BN@CJFFIPOP@Entity?5element?5not?5expected?6@ ; `string'
PUBLIC	??_C@_0BP@FEDJMKLA@Notation?5element?5not?5expected?6@ ; `string'
PUBLIC	??_C@_0BP@LPODOPI@Document?5element?5not?5expected?6@ ; `string'
PUBLIC	??_C@_0BM@DIBMDMIN@HTML?5Document?5not?5expected?6@ ; `string'
PUBLIC	??_C@_0BG@CJHPKHPI@unknown?5element?5type?6@	; `string'
PUBLIC	??_C@_0EM@LHPMEFBO@standalone?3?5?$CFs?5declared?5in?5the?5@ ; `string'
PUBLIC	??_C@_0CI@KOGIECMM@Element?5?$CFs?5does?5not?5carry?5attri@ ; `string'
PUBLIC	??_C@_0CL@IDAGHCGO@Element?5?$CFs?5does?5not?5carry?5attri@ ; `string'
PUBLIC	??_C@_0DD@KAGCOGBM@Element?5?$CFs?5required?5attribute?5?$CF@ ; `string'
PUBLIC	??_C@_0DK@IGLOKJLK@Element?5?$CFs?5required?5attribute?5?$CF@ ; `string'
PUBLIC	??_C@_0EI@BIBADMEK@Element?5?$CFs?5namespace?5name?5for?5d@ ; `string'
PUBLIC	??_C@_0DJ@DDNBGMLL@Element?5?$CFs?5namespace?5name?5for?5?$CF@ ; `string'
PUBLIC	??_C@_0BB@JNDFICHA@no?5root?5element?6@		; `string'
PUBLIC	??_C@_04DBLPJNAF@HTML@				; `string'
PUBLIC	??_C@_04PNIFHPHN@html@				; `string'
PUBLIC	??_C@_0CO@PMJDAMAF@root?5and?5DTD?5name?5do?5not?5match?5@ ; `string'
PUBLIC	??_C@_0DE@GLBIFDCC@attribute?5?$CFs?5line?5?$CFd?5references@ ; `string'
PUBLIC	??_C@_0DC@HOBCELJH@IDREF?5attribute?5?$CFs?5references?5a@ ; `string'
PUBLIC	??_C@_0N@BBOKCKMC@IDREFS?5split@		; `string'
PUBLIC	??_C@_0DD@JBMPIAIH@IDREFS?5attribute?5?$CFs?5references?5@ ; `string'
PUBLIC	??_C@_0CH@PKJJCFEM@xmlValidateDocumentFinal?3?5doc?5?$DN@ ; `string'
PUBLIC	??_C@_0DC@EEKBOKHB@xmlValidateAttributeCallback?$CI?$CFs@ ; `string'
PUBLIC	??_C@_0DC@CHBKELEG@attribute?5?$CFs?3?5could?5not?5find?5de@ ; `string'
PUBLIC	??_C@_0DF@KBMCJLCB@NOTATION?5attribute?5?$CFs?5declared?5@ ; `string'
PUBLIC	??_C@_0P@GBEHLCJD@no?5DTD?5found?$CB?6@		; `string'
PUBLIC	??_C@_0CO@FGGICOAP@Could?5not?5build?5URI?5for?5externa@ ; `string'
PUBLIC	??_C@_0CJ@BNOHLKCI@Could?5not?5load?5the?5external?5sub@ ; `string'
PUBLIC	??_C@_09LMMMMLKM@?$DM?$CBdummy?$DP?$DO@		; `string'
EXTRN	_xmlStrdup:PROC
EXTRN	_xmlStrndup:PROC
EXTRN	_xmlStrncmp:PROC
EXTRN	_xmlStrEqual:PROC
EXTRN	_xmlStrlen:PROC
EXTRN	_xmlDictLookup:PROC
EXTRN	_xmlDictOwns:PROC
EXTRN	_xmlRegFreeRegexp:PROC
EXTRN	_xmlRegexpIsDeterminist:PROC
EXTRN	_xmlRegNewExecCtxt:PROC
EXTRN	_xmlRegFreeExecCtxt:PROC
EXTRN	_xmlRegExecPushString:PROC
EXTRN	_xmlBuildQName:PROC
EXTRN	_xmlSplitQName2:PROC
EXTRN	_xmlSplitQName3:PROC
EXTRN	_xmlNewDocNode:PROC
EXTRN	_xmlGetLineNo:PROC
EXTRN	_xmlDocGetRootElement:PROC
EXTRN	_xmlIsBlankNode:PROC
EXTRN	_xmlUnlinkNode:PROC
EXTRN	_xmlFreeNode:PROC
EXTRN	_xmlNodeListGetString:PROC
EXTRN	_xmlBufferWriteCHAR:PROC
EXTRN	_xmlBufferWriteChar:PROC
EXTRN	_xmlBufferWriteQuotedString:PROC
EXTRN	_xmlHashCreateDict:PROC
EXTRN	_xmlHashFree:PROC
EXTRN	_xmlHashAddEntry:PROC
EXTRN	_xmlHashUpdateEntry:PROC
EXTRN	_xmlHashAddEntry2:PROC
EXTRN	_xmlHashAddEntry3:PROC
EXTRN	_xmlHashRemoveEntry:PROC
EXTRN	_xmlHashRemoveEntry2:PROC
EXTRN	_xmlHashLookup:PROC
EXTRN	_xmlHashLookup2:PROC
EXTRN	_xmlHashLookup3:PROC
EXTRN	_xmlHashCopy:PROC
EXTRN	_xmlHashScan:PROC
EXTRN	_xmlHashScan3:PROC
EXTRN	___xmlRaiseError:PROC
EXTRN	_xmlListCreate:PROC
EXTRN	_xmlListDelete:PROC
EXTRN	_xmlListAppend:PROC
EXTRN	_xmlListRemoveFirst:PROC
EXTRN	_xmlListEmpty:PROC
EXTRN	_xmlListWalk:PROC
EXTRN	_xmlLinkGetData:PROC
EXTRN	_xmlNewAutomata:PROC
EXTRN	_xmlFreeAutomata:PROC
EXTRN	_xmlAutomataGetInitState:PROC
EXTRN	_xmlAutomataSetFinalState:PROC
EXTRN	_xmlAutomataNewState:PROC
EXTRN	_xmlAutomataNewTransition:PROC
EXTRN	_xmlAutomataNewEpsilon:PROC
EXTRN	_xmlAutomataCompile:PROC
EXTRN	_xmlGetDocEntity:PROC
EXTRN	_xmlParseDTD:PROC
EXTRN	_xmlBuildURI:PROC
EXTRN	_xmlCharInRange:PROC
EXTRN	_xmlStringCurrentChar:PROC
EXTRN	@__CheckForDebuggerJustMyCode@4:PROC
EXTRN	__chkstk:PROC
EXTRN	_memset:PROC
;	COMDAT ??_C@_09LMMMMLKM@?$DM?$CBdummy?$DP?$DO@
CONST	SEGMENT
??_C@_09LMMMMLKM@?$DM?$CBdummy?$DP?$DO@ DB '<!dummy?>', 00H ; `string'
CONST	ENDS
;	COMDAT ??_C@_0CJ@BNOHLKCI@Could?5not?5load?5the?5external?5sub@
CONST	SEGMENT
??_C@_0CJ@BNOHLKCI@Could?5not?5load?5the?5external?5sub@ DB 'Could not lo'
	DB	'ad the external subset "%s"', 0aH, 00H	; `string'
CONST	ENDS
;	COMDAT ??_C@_0CO@FGGICOAP@Could?5not?5build?5URI?5for?5externa@
CONST	SEGMENT
??_C@_0CO@FGGICOAP@Could?5not?5build?5URI?5for?5externa@ DB 'Could not bu'
	DB	'ild URI for external subset "%s"', 0aH, 00H	; `string'
CONST	ENDS
;	COMDAT ??_C@_0P@GBEHLCJD@no?5DTD?5found?$CB?6@
CONST	SEGMENT
??_C@_0P@GBEHLCJD@no?5DTD?5found?$CB?6@ DB 'no DTD found!', 0aH, 00H ; `string'
CONST	ENDS
;	COMDAT ??_C@_0DF@KBMCJLCB@NOTATION?5attribute?5?$CFs?5declared?5@
CONST	SEGMENT
??_C@_0DF@KBMCJLCB@NOTATION?5attribute?5?$CFs?5declared?5@ DB 'NOTATION a'
	DB	'ttribute %s declared for EMPTY element %s', 0aH, 00H ; `string'
CONST	ENDS
;	COMDAT ??_C@_0DC@CHBKELEG@attribute?5?$CFs?3?5could?5not?5find?5de@
CONST	SEGMENT
??_C@_0DC@CHBKELEG@attribute?5?$CFs?3?5could?5not?5find?5de@ DB 'attribut'
	DB	'e %s: could not find decl for element %s', 0aH, 00H ; `string'
CONST	ENDS
;	COMDAT ??_C@_0DC@EEKBOKHB@xmlValidateAttributeCallback?$CI?$CFs@
CONST	SEGMENT
??_C@_0DC@EEKBOKHB@xmlValidateAttributeCallback?$CI?$CFs@ DB 'xmlValidate'
	DB	'AttributeCallback(%s): internal error', 0aH, 00H ; `string'
CONST	ENDS
;	COMDAT ??_C@_0CH@PKJJCFEM@xmlValidateDocumentFinal?3?5doc?5?$DN@
CONST	SEGMENT
??_C@_0CH@PKJJCFEM@xmlValidateDocumentFinal?3?5doc?5?$DN@ DB 'xmlValidate'
	DB	'DocumentFinal: doc == NULL', 0aH, 00H	; `string'
CONST	ENDS
;	COMDAT ??_C@_0DD@JBMPIAIH@IDREFS?5attribute?5?$CFs?5references?5@
CONST	SEGMENT
??_C@_0DD@JBMPIAIH@IDREFS?5attribute?5?$CFs?5references?5@ DB 'IDREFS att'
	DB	'ribute %s references an unknown ID "%s"', 0aH, 00H ; `string'
CONST	ENDS
;	COMDAT ??_C@_0N@BBOKCKMC@IDREFS?5split@
CONST	SEGMENT
??_C@_0N@BBOKCKMC@IDREFS?5split@ DB 'IDREFS split', 00H	; `string'
CONST	ENDS
;	COMDAT ??_C@_0DC@HOBCELJH@IDREF?5attribute?5?$CFs?5references?5a@
CONST	SEGMENT
??_C@_0DC@HOBCELJH@IDREF?5attribute?5?$CFs?5references?5a@ DB 'IDREF attr'
	DB	'ibute %s references an unknown ID "%s"', 0aH, 00H ; `string'
CONST	ENDS
;	COMDAT ??_C@_0DE@GLBIFDCC@attribute?5?$CFs?5line?5?$CFd?5references@
CONST	SEGMENT
??_C@_0DE@GLBIFDCC@attribute?5?$CFs?5line?5?$CFd?5references@ DB 'attribu'
	DB	'te %s line %d references an unknown ID "%s"', 0aH, 00H ; `string'
CONST	ENDS
;	COMDAT ??_C@_0CO@PMJDAMAF@root?5and?5DTD?5name?5do?5not?5match?5@
CONST	SEGMENT
??_C@_0CO@PMJDAMAF@root?5and?5DTD?5name?5do?5not?5match?5@ DB 'root and D'
	DB	'TD name do not match ''%s'' and ''%s''', 0aH, 00H ; `string'
CONST	ENDS
;	COMDAT ??_C@_04PNIFHPHN@html@
CONST	SEGMENT
??_C@_04PNIFHPHN@html@ DB 'html', 00H			; `string'
CONST	ENDS
;	COMDAT ??_C@_04DBLPJNAF@HTML@
CONST	SEGMENT
??_C@_04DBLPJNAF@HTML@ DB 'HTML', 00H			; `string'
CONST	ENDS
;	COMDAT ??_C@_0BB@JNDFICHA@no?5root?5element?6@
CONST	SEGMENT
??_C@_0BB@JNDFICHA@no?5root?5element?6@ DB 'no root element', 0aH, 00H ; `string'
CONST	ENDS
;	COMDAT ??_C@_0DJ@DDNBGMLL@Element?5?$CFs?5namespace?5name?5for?5?$CF@
CONST	SEGMENT
??_C@_0DJ@DDNBGMLL@Element?5?$CFs?5namespace?5name?5for?5?$CF@ DB 'Elemen'
	DB	't %s namespace name for %s does not match the DTD', 0aH, 00H ; `string'
CONST	ENDS
;	COMDAT ??_C@_0EI@BIBADMEK@Element?5?$CFs?5namespace?5name?5for?5d@
CONST	SEGMENT
??_C@_0EI@BIBADMEK@Element?5?$CFs?5namespace?5name?5for?5d@ DB 'Element %'
	DB	's namespace name for default namespace does not match the DTD'
	DB	0aH, 00H					; `string'
CONST	ENDS
;	COMDAT ??_C@_0DK@IGLOKJLK@Element?5?$CFs?5required?5attribute?5?$CF@
CONST	SEGMENT
??_C@_0DK@IGLOKJLK@Element?5?$CFs?5required?5attribute?5?$CF@ DB 'Element'
	DB	' %s required attribute %s:%s has different prefix', 0aH, 00H ; `string'
CONST	ENDS
;	COMDAT ??_C@_0DD@KAGCOGBM@Element?5?$CFs?5required?5attribute?5?$CF@
CONST	SEGMENT
??_C@_0DD@KAGCOGBM@Element?5?$CFs?5required?5attribute?5?$CF@ DB 'Element'
	DB	' %s required attribute %s:%s has no prefix', 0aH, 00H ; `string'
CONST	ENDS
;	COMDAT ??_C@_0CL@IDAGHCGO@Element?5?$CFs?5does?5not?5carry?5attri@
CONST	SEGMENT
??_C@_0CL@IDAGHCGO@Element?5?$CFs?5does?5not?5carry?5attri@ DB 'Element %'
	DB	's does not carry attribute %s:%s', 0aH, 00H	; `string'
CONST	ENDS
;	COMDAT ??_C@_0CI@KOGIECMM@Element?5?$CFs?5does?5not?5carry?5attri@
CONST	SEGMENT
??_C@_0CI@KOGIECMM@Element?5?$CFs?5does?5not?5carry?5attri@ DB 'Element %'
	DB	's does not carry attribute %s', 0aH, 00H	; `string'
CONST	ENDS
;	COMDAT ??_C@_0EM@LHPMEFBO@standalone?3?5?$CFs?5declared?5in?5the?5@
CONST	SEGMENT
??_C@_0EM@LHPMEFBO@standalone?3?5?$CFs?5declared?5in?5the?5@ DB 'standalo'
	DB	'ne: %s declared in the external subset contains white spaces '
	DB	'nodes', 0aH, 00H				; `string'
CONST	ENDS
;	COMDAT ??_C@_0BG@CJHPKHPI@unknown?5element?5type?6@
CONST	SEGMENT
??_C@_0BG@CJHPKHPI@unknown?5element?5type?6@ DB 'unknown element type', 0aH
	DB	00H						; `string'
CONST	ENDS
;	COMDAT ??_C@_0BM@DIBMDMIN@HTML?5Document?5not?5expected?6@
CONST	SEGMENT
??_C@_0BM@DIBMDMIN@HTML?5Document?5not?5expected?6@ DB 'HTML Document not'
	DB	' expected', 0aH, 00H			; `string'
CONST	ENDS
;	COMDAT ??_C@_0BP@LPODOPI@Document?5element?5not?5expected?6@
CONST	SEGMENT
??_C@_0BP@LPODOPI@Document?5element?5not?5expected?6@ DB 'Document elemen'
	DB	't not expected', 0aH, 00H			; `string'
CONST	ENDS
;	COMDAT ??_C@_0BP@FEDJMKLA@Notation?5element?5not?5expected?6@
CONST	SEGMENT
??_C@_0BP@FEDJMKLA@Notation?5element?5not?5expected?6@ DB 'Notation eleme'
	DB	'nt not expected', 0aH, 00H			; `string'
CONST	ENDS
;	COMDAT ??_C@_0BN@CJFFIPOP@Entity?5element?5not?5expected?6@
CONST	SEGMENT
??_C@_0BN@CJFFIPOP@Entity?5element?5not?5expected?6@ DB 'Entity element n'
	DB	'ot expected', 0aH, 00H			; `string'
CONST	ENDS
;	COMDAT ??_C@_0BP@DPPADDEP@Text?5element?5has?5no?5content?5?$CB?6@
CONST	SEGMENT
??_C@_0BP@DPPADDEP@Text?5element?5has?5no?5content?5?$CB?6@ DB 'Text elem'
	DB	'ent has no content !', 0aH, 00H		; `string'
CONST	ENDS
;	COMDAT ??_C@_0BO@NIGEHALL@Text?5element?5has?5namespace?5?$CB?6@
CONST	SEGMENT
??_C@_0BO@NIGEHALL@Text?5element?5has?5namespace?5?$CB?6@ DB 'Text elemen'
	DB	't has namespace !', 0aH, 00H		; `string'
CONST	ENDS
;	COMDAT ??_C@_0BN@JALMDBBB@Text?5element?5has?5children?5?$CB?6@
CONST	SEGMENT
??_C@_0BN@JALMDBBB@Text?5element?5has?5children?5?$CB?6@ DB 'Text element'
	DB	' has children !', 0aH, 00H			; `string'
CONST	ENDS
;	COMDAT ??_C@_0CA@EPFCDFAG@Attribute?5element?5not?5expected?6@
CONST	SEGMENT
??_C@_0CA@EPFCDFAG@Attribute?5element?5not?5expected?6@ DB 'Attribute ele'
	DB	'ment not expected', 0aH, 00H		; `string'
CONST	ENDS
;	COMDAT ??_C@_0EC@JDBIOCJK@Element?5?$CFs?5content?5does?5not?5fol@
CONST	SEGMENT
??_C@_0EC@JDBIOCJK@Element?5?$CFs?5content?5does?5not?5fol@ DB 'Element %'
	DB	's content does not follow the DTD, Expecting more child', 0aH
	DB	00H						; `string'
CONST	ENDS
;	COMDAT ??_C@_0DO@HNMIGKJO@Element?5?$CFs?5content?5does?5not?5fol@
CONST	SEGMENT
??_C@_0DO@HNMIGKJO@Element?5?$CFs?5content?5does?5not?5fol@ DB 'Element %'
	DB	's content does not follow the DTD, Text not allowed', 0aH, 00H ; `string'
CONST	ENDS
;	COMDAT ??_C@_0DK@BGIDCAIC@Element?5?$CFs?5content?5does?5not?5fol@
CONST	SEGMENT
??_C@_0DK@BGIDCAIC@Element?5?$CFs?5content?5does?5not?5fol@ DB 'Element %'
	DB	's content does not follow the DTD, Misplaced %s', 0aH, 00H ; `string'
CONST	ENDS
;	COMDAT ??_C@_0DM@IPIENEI@Element?5?$CFs?5is?5not?5declared?5in?5?$CF@
CONST	SEGMENT
??_C@_0DM@IPIENEI@Element?5?$CFs?5is?5not?5declared?5in?5?$CF@ DB 'Elemen'
	DB	't %s is not declared in %s list of possible children', 0aH, 00H ; `string'
CONST	ENDS
;	COMDAT ??_C@_0DN@CFJCCMLK@Element?5?$CFs?5was?5declared?5?$CDPCDATA@
CONST	SEGMENT
??_C@_0DN@CFJCCMLK@Element?5?$CFs?5was?5declared?5?$CDPCDATA@ DB 'Element'
	DB	' %s was declared #PCDATA but contains non text nodes', 0aH, 00H ; `string'
CONST	ENDS
;	COMDAT ??_C@_0DE@KLKCMFPH@Element?5?$CFs?5was?5declared?5EMPTY?5t@
CONST	SEGMENT
??_C@_0DE@KLKCMFPH@Element?5?$CFs?5was?5declared?5EMPTY?5t@ DB 'Element %'
	DB	's was declared EMPTY this one has content', 0aH, 00H ; `string'
CONST	ENDS
;	COMDAT ??_C@_0BP@CMBGNCIM@No?5declaration?5for?5element?5?$CFs?6@
CONST	SEGMENT
??_C@_0BP@CMBGNCIM@No?5declaration?5for?5element?5?$CFs?6@ DB 'No declara'
	DB	'tion for element %s', 0aH, 00H		; `string'
CONST	ENDS
;	COMDAT ??_C@_0CC@LMJFIFCG@Internal?3?5MIXED?5struct?5corrupte@
CONST	SEGMENT
??_C@_0CC@LMJFIFCG@Internal?3?5MIXED?5struct?5corrupte@ DB 'Internal: MIX'
	DB	'ED struct corrupted', 0aH, 00H		; `string'
CONST	ENDS
;	COMDAT ??_C@_0DP@CBELDNAH@Element?5content?5does?5not?5follow@
CONST	SEGMENT
??_C@_0DP@CBELDNAH@Element?5content?5does?5not?5follow@ DB 'Element conte'
	DB	'nt does not follow the DTD, expecting %s, got %s', 0aH, 00H ; `string'
CONST	ENDS
;	COMDAT ??_C@_0EC@IAKGOMPC@Element?5?$CFs?5content?5does?5not?5fol@
CONST	SEGMENT
??_C@_0EC@IAKGOMPC@Element?5?$CFs?5content?5does?5not?5fol@ DB 'Element %'
	DB	's content does not follow the DTD, expecting %s, got %s', 0aH
	DB	00H						; `string'
CONST	ENDS
;	COMDAT ??_C@_03BBKEAIF@?$DP?$DP?$DP@
CONST	SEGMENT
??_C@_03BBKEAIF@?$DP?$DP?$DP@ DB '???', 00H		; `string'
CONST	ENDS
;	COMDAT ??_C@_05MLPNBPGH@CDATA@
CONST	SEGMENT
??_C@_05MLPNBPGH@CDATA@ DB 'CDATA', 00H			; `string'
CONST	ENDS
;	COMDAT ??_C@_0CO@DNGFHLPE@Value?5for?5attribute?5xmlns?5of?5?$CFs@
CONST	SEGMENT
??_C@_0CO@DNGFHLPE@Value?5for?5attribute?5xmlns?5of?5?$CFs@ DB 'Value for'
	DB	' attribute xmlns of %s must be "%s"', 0aH, 00H ; `string'
CONST	ENDS
;	COMDAT ??_C@_0DB@DPJFCMMB@Value?5for?5attribute?5xmlns?3?$CFs?5of@
CONST	SEGMENT
??_C@_0DB@DPJFCMMB@Value?5for?5attribute?5xmlns?3?$CFs?5of@ DB 'Value for'
	DB	' attribute xmlns:%s of %s must be "%s"', 0aH, 00H ; `string'
CONST	ENDS
;	COMDAT ??_C@_0EG@CDCEFKCM@Value?5?$CC?$CFs?$CC?5for?5attribute?5xmlns?5@
CONST	SEGMENT
??_C@_0EG@CDCEFKCM@Value?5?$CC?$CFs?$CC?5for?5attribute?5xmlns?5@ DB 'Val'
	DB	'ue "%s" for attribute xmlns of %s is not among the enumerated'
	DB	' set', 0aH, 00H				; `string'
CONST	ENDS
;	COMDAT ??_C@_0EJ@PDIHKDMN@Value?5?$CC?$CFs?$CC?5for?5attribute?5xmlns?3@
CONST	SEGMENT
??_C@_0EJ@PDIHKDMN@Value?5?$CC?$CFs?$CC?5for?5attribute?5xmlns?3@ DB 'Val'
	DB	'ue "%s" for attribute xmlns:%s of %s is not among the enumera'
	DB	'ted set', 0aH, 00H				; `string'
CONST	ENDS
;	COMDAT ??_C@_0EM@LDEIIDJK@Value?5?$CC?$CFs?$CC?5for?5attribute?5xmlns?5@
CONST	SEGMENT
??_C@_0EM@LDEIIDJK@Value?5?$CC?$CFs?$CC?5for?5attribute?5xmlns?5@ DB 'Val'
	DB	'ue "%s" for attribute xmlns of %s is not among the enumerated'
	DB	' notations', 0aH, 00H			; `string'
CONST	ENDS
;	COMDAT ??_C@_0EP@PJCDPKEK@Value?5?$CC?$CFs?$CC?5for?5attribute?5xmlns?3@
CONST	SEGMENT
??_C@_0EP@PJCDPKEK@Value?5?$CC?$CFs?$CC?5for?5attribute?5xmlns?3@ DB 'Val'
	DB	'ue "%s" for attribute xmlns:%s of %s is not among the enumera'
	DB	'ted notations', 0aH, 00H			; `string'
CONST	ENDS
;	COMDAT ??_C@_0EB@IKNIAELF@Value?5?$CC?$CFs?$CC?5for?5attribute?5xmlns?5@
CONST	SEGMENT
??_C@_0EB@IKNIAELF@Value?5?$CC?$CFs?$CC?5for?5attribute?5xmlns?5@ DB 'Val'
	DB	'ue "%s" for attribute xmlns of %s is not a declared Notation', 0aH
	DB	00H						; `string'
CONST	ENDS
;	COMDAT ??_C@_0EE@ENPHOLHF@Value?5?$CC?$CFs?$CC?5for?5attribute?5xmlns?3@
CONST	SEGMENT
??_C@_0EE@ENPHOLHF@Value?5?$CC?$CFs?$CC?5for?5attribute?5xmlns?3@ DB 'Val'
	DB	'ue "%s" for attribute xmlns:%s of %s is not a declared Notati'
	DB	'on', 0aH, 00H				; `string'
CONST	ENDS
;	COMDAT ??_C@_0EA@HGOHDHBG@Value?5for?5attribute?5xmlns?5of?5?$CFs@
CONST	SEGMENT
??_C@_0EA@HGOHDHBG@Value?5for?5attribute?5xmlns?5of?5?$CFs@ DB 'Value for'
	DB	' attribute xmlns of %s is different from default "%s"', 0aH, 00H ; `string'
CONST	ENDS
;	COMDAT ??_C@_0ED@KAGANNGH@Value?5for?5attribute?5xmlns?3?$CFs?5of@
CONST	SEGMENT
??_C@_0ED@KAGANNGH@Value?5for?5attribute?5xmlns?3?$CFs?5of@ DB 'Value for'
	DB	' attribute xmlns:%s of %s is different from default "%s"', 0aH
	DB	00H						; `string'
CONST	ENDS
;	COMDAT ??_C@_0DI@HAHGLIKC@Syntax?5of?5value?5for?5attribute?5x@
CONST	SEGMENT
??_C@_0DI@HAHGLIKC@Syntax?5of?5value?5for?5attribute?5x@ DB 'Syntax of va'
	DB	'lue for attribute xmlns of %s is not valid', 0aH, 00H ; `string'
CONST	ENDS
;	COMDAT ??_C@_0DL@CBOACJEL@Syntax?5of?5value?5for?5attribute?5x@
CONST	SEGMENT
??_C@_0DL@CBOACJEL@Syntax?5of?5value?5for?5attribute?5x@ DB 'Syntax of va'
	DB	'lue for attribute xmlns:%s of %s is not valid', 0aH, 00H ; `string'
CONST	ENDS
;	COMDAT ??_C@_0DC@FPONLEAN@No?5declaration?5for?5attribute?5xm@
CONST	SEGMENT
??_C@_0DC@FPONLEAN@No?5declaration?5for?5attribute?5xm@ DB 'No declaratio'
	DB	'n for attribute xmlns of element %s', 0aH, 00H ; `string'
CONST	ENDS
;	COMDAT ??_C@_0DF@GJIDMPBO@No?5declaration?5for?5attribute?5xm@
CONST	SEGMENT
??_C@_0DF@GJIDMPBO@No?5declaration?5for?5attribute?5xm@ DB 'No declaratio'
	DB	'n for attribute xmlns:%s of element %s', 0aH, 00H ; `string'
CONST	ENDS
;	COMDAT ??_C@_0BF@INLCBMIM@Validating?5namespace@
CONST	SEGMENT
??_C@_0BF@INLCBMIM@Validating?5namespace@ DB 'Validating namespace', 00H ; `string'
CONST	ENDS
;	COMDAT ??_C@_0CL@KKBPHLEC@Value?5for?5attribute?5?$CFs?5of?5?$CFs?5mu@
CONST	SEGMENT
??_C@_0CL@KKBPHLEC@Value?5for?5attribute?5?$CFs?5of?5?$CFs?5mu@ DB 'Value'
	DB	' for attribute %s of %s must be "%s"', 0aH, 00H ; `string'
CONST	ENDS
;	COMDAT ??_C@_0ED@GMECILPN@Value?5?$CC?$CFs?$CC?5for?5attribute?5?$CFs?5of?5@
CONST	SEGMENT
??_C@_0ED@GMECILPN@Value?5?$CC?$CFs?$CC?5for?5attribute?5?$CFs?5of?5@ DB 'V'
	DB	'alue "%s" for attribute %s of %s is not among the enumerated '
	DB	'set', 0aH, 00H				; `string'
CONST	ENDS
;	COMDAT ??_C@_0EJ@LLDEHINL@Value?5?$CC?$CFs?$CC?5for?5attribute?5?$CFs?5of?5@
CONST	SEGMENT
??_C@_0EJ@LLDEHINL@Value?5?$CC?$CFs?$CC?5for?5attribute?5?$CFs?5of?5@ DB 'V'
	DB	'alue "%s" for attribute %s of %s is not among the enumerated '
	DB	'notations', 0aH, 00H			; `string'
CONST	ENDS
;	COMDAT ??_C@_0DO@HAIKKCN@Value?5?$CC?$CFs?$CC?5for?5attribute?5?$CFs?5of?5@
CONST	SEGMENT
??_C@_0DO@HAIKKCN@Value?5?$CC?$CFs?$CC?5for?5attribute?5?$CFs?5of?5@ DB 'V'
	DB	'alue "%s" for attribute %s of %s is not a declared Notation', 0aH
	DB	00H						; `string'
CONST	ENDS
;	COMDAT ??_C@_0DN@BPCEOAOB@Value?5for?5attribute?5?$CFs?5of?5?$CFs?5is@
CONST	SEGMENT
??_C@_0DN@BPCEOAOB@Value?5for?5attribute?5?$CFs?5of?5?$CFs?5is@ DB 'Value'
	DB	' for attribute %s of %s is different from default "%s"', 0aH, 00H ; `string'
CONST	ENDS
;	COMDAT ??_C@_0DF@PPLCGADM@Syntax?5of?5value?5for?5attribute?5?$CF@
CONST	SEGMENT
??_C@_0DF@PPLCGADM@Syntax?5of?5value?5for?5attribute?5?$CF@ DB 'Syntax of'
	DB	' value for attribute %s of %s is not valid', 0aH, 00H ; `string'
CONST	ENDS
;	COMDAT ??_C@_0CP@IDGJHJLH@No?5declaration?5for?5attribute?5?$CFs@
CONST	SEGMENT
??_C@_0CP@IDGJHJLH@No?5declaration?5for?5attribute?5?$CFs@ DB 'No declara'
	DB	'tion for attribute %s of element %s', 0aH, 00H ; `string'
CONST	ENDS
;	COMDAT ??_C@_0DE@PAODFKFF@Definition?5of?5?$CFs?5has?5duplicate?5@
CONST	SEGMENT
??_C@_0DE@PAODFKFF@Definition?5of?5?$CFs?5has?5duplicate?5@ DB 'Definitio'
	DB	'n of %s has duplicate references to %s:%s', 0aH, 00H ; `string'
CONST	ENDS
;	COMDAT ??_C@_0DB@HNLIHGKJ@Definition?5of?5?$CFs?5has?5duplicate?5@
CONST	SEGMENT
??_C@_0DB@HNLIHGKJ@Definition?5of?5?$CFs?5has?5duplicate?5@ DB 'Definitio'
	DB	'n of %s has duplicate references to %s', 0aH, 00H ; `string'
CONST	ENDS
;	COMDAT ??_C@_0DE@IDAOJGBB@Definition?5of?5?$CFs?5has?5duplicate?5@
CONST	SEGMENT
??_C@_0DE@IDAOJGBB@Definition?5of?5?$CFs?5has?5duplicate?5@ DB 'Definitio'
	DB	'n of %s has duplicate references of %s:%s', 0aH, 00H ; `string'
CONST	ENDS
;	COMDAT ??_C@_0DB@DPGOOPFF@Definition?5of?5?$CFs?5has?5duplicate?5@
CONST	SEGMENT
??_C@_0DB@DPGOOPFF@Definition?5of?5?$CFs?5has?5duplicate?5@ DB 'Definitio'
	DB	'n of %s has duplicate references of %s', 0aH, 00H ; `string'
CONST	ENDS
;	COMDAT ??_C@_0EL@MPNELAFE@Default?5value?5?$CC?$CFs?$CC?5for?5attribut@
CONST	SEGMENT
??_C@_0EL@MPNELAFE@Default?5value?5?$CC?$CFs?$CC?5for?5attribut@ DB 'Defa'
	DB	'ult value "%s" for attribute %s of %s is not among the enumer'
	DB	'ated set', 0aH, 00H				; `string'
CONST	ENDS
;	COMDAT ??_C@_0EP@CFLHEJLO@Element?5?$CFs?5has?5ID?5attributes?5de@
CONST	SEGMENT
??_C@_0EP@CFLHEJLO@Element?5?$CFs?5has?5ID?5attributes?5de@ DB 'Element %'
	DB	's has ID attributes defined in the internal and external subs'
	DB	'et : %s', 0aH, 00H				; `string'
CONST	ENDS
;	COMDAT ??_C@_0EE@JDKHGIAG@Element?5?$CFs?5has?5?$CFd?5ID?5attribute?5@
CONST	SEGMENT
??_C@_0EE@JDKHGIAG@Element?5?$CFs?5has?5?$CFd?5ID?5attribute?5@ DB 'Eleme'
	DB	'nt %s has %d ID attribute defined in the external subset : %s'
	DB	0aH, 00H					; `string'
CONST	ENDS
;	COMDAT ??_C@_0EE@MLJMMKCM@Element?5?$CFs?5has?5?$CFd?5ID?5attribute?5@
CONST	SEGMENT
??_C@_0EE@MLJMMKCM@Element?5?$CFs?5has?5?$CFd?5ID?5attribute?5@ DB 'Eleme'
	DB	'nt %s has %d ID attribute defined in the internal subset : %s'
	DB	0aH, 00H					; `string'
CONST	ENDS
;	COMDAT ??_C@_0EC@DNHDHDCI@ID?5attribute?5?$CFs?5of?5?$CFs?5is?5not?5va@
CONST	SEGMENT
??_C@_0EC@DNHDHDCI@ID?5attribute?5?$CFs?5of?5?$CFs?5is?5not?5va@ DB 'ID a'
	DB	'ttribute %s of %s is not valid must be #IMPLIED or #REQUIRED', 0aH
	DB	00H						; `string'
CONST	ENDS
;	COMDAT ??_C@_0DN@MJLCEKEK@Syntax?5of?5default?5value?5for?5att@
CONST	SEGMENT
??_C@_0DN@MJLCEKEK@Syntax?5of?5default?5value?5for?5att@ DB 'Syntax of de'
	DB	'fault value for attribute %s of %s is not valid', 0aH, 00H ; `string'
CONST	ENDS
;	COMDAT ??_C@_0FG@CJEJIEOP@standalone?3?5?$CFs?5on?5?$CFs?5value?5had?5@
CONST	SEGMENT
??_C@_0FG@CJEJIEOP@standalone?3?5?$CFs?5on?5?$CFs?5value?5had?5@ DB 'stan'
	DB	'dalone: %s on %s value had to be normalized based on external'
	DB	' subset declaration', 0aH, 00H		; `string'
CONST	ENDS
;	COMDAT ??_C@_0DK@HMAANMLE@NOTATION?5attribute?5?$CFs?5reference@
CONST	SEGMENT
??_C@_0DK@HMAANMLE@NOTATION?5attribute?5?$CFs?5reference@ DB 'NOTATION at'
	DB	'tribute %s reference an unknown notation "%s"', 0aH, 00H ; `string'
CONST	ENDS
;	COMDAT ??_C@_0DO@BNHKOEGN@ENTITIES?5attribute?5?$CFs?5reference@
CONST	SEGMENT
??_C@_0DO@BNHKOEGN@ENTITIES?5attribute?5?$CFs?5reference@ DB 'ENTITIES at'
	DB	'tribute %s reference an entity "%s" of wrong type', 0aH, 00H ; `string'
CONST	ENDS
;	COMDAT ??_C@_0DI@MOCJGONA@ENTITIES?5attribute?5?$CFs?5reference@
CONST	SEGMENT
??_C@_0DI@MOCJGONA@ENTITIES?5attribute?5?$CFs?5reference@ DB 'ENTITIES at'
	DB	'tribute %s reference an unknown entity "%s"', 0aH, 00H ; `string'
CONST	ENDS
;	COMDAT ??_C@_0DM@CBMBENAH@ENTITY?5attribute?5?$CFs?5reference?5a@
CONST	SEGMENT
??_C@_0DM@CBMBENAH@ENTITY?5attribute?5?$CFs?5reference?5a@ DB 'ENTITY att'
	DB	'ribute %s reference an entity "%s" of wrong type', 0aH, 00H ; `string'
CONST	ENDS
;	COMDAT ??_C@_0DG@NHAJHAEC@ENTITY?5attribute?5?$CFs?5reference?5a@
CONST	SEGMENT
??_C@_0DG@NHAJHAEC@ENTITY?5attribute?5?$CFs?5reference?5a@ DB 'ENTITY att'
	DB	'ribute %s reference an unknown entity "%s"', 0aH, 00H ; `string'
CONST	ENDS
;	COMDAT ??_C@_0BN@NONOBNKE@NOTATION?5?$CFs?5is?5not?5declared?6@
CONST	SEGMENT
??_C@_0BN@NONOBNKE@NOTATION?5?$CFs?5is?5not?5declared?6@ DB 'NOTATION %s '
	DB	'is not declared', 0aH, 00H			; `string'
CONST	ENDS
;	COMDAT ??_C@_0CA@OJAJCLMD@element?5table?5allocation?5failed@
CONST	SEGMENT
??_C@_0CA@OJAJCLMD@element?5table?5allocation?5failed@ DB 'element table '
	DB	'allocation failed', 00H			; `string'
CONST	ENDS
;	COMDAT ??_C@_0CN@CLGHPEIK@xmlAddRef?3?5Reference?5list?5inser@
CONST	SEGMENT
??_C@_0CN@CLGHPEIK@xmlAddRef?3?5Reference?5list?5inser@ DB 'xmlAddRef: Re'
	DB	'ference list insertion failed!', 0aH, 00H	; `string'
CONST	ENDS
;	COMDAT ??_C@_0CM@EILGCMCJ@xmlAddRef?3?5Reference?5list?5creat@
CONST	SEGMENT
??_C@_0CM@EILGCMCJ@xmlAddRef?3?5Reference?5list?5creat@ DB 'xmlAddRef: Re'
	DB	'ference list creation failed!', 0aH, 00H	; `string'
CONST	ENDS
;	COMDAT ??_C@_0CD@JKLLCBGN@xmlAddRef?3?5Table?5creation?5faile@
CONST	SEGMENT
??_C@_0CD@JKLLCBGN@xmlAddRef?3?5Table?5creation?5faile@ DB 'xmlAddRef: Ta'
	DB	'ble creation failed!', 0aH, 00H		; `string'
CONST	ENDS
;	COMDAT ??_C@_01MCMALHOG@a@
CONST	SEGMENT
??_C@_01MCMALHOG@a@ DB 'a', 00H				; `string'
CONST	ENDS
;	COMDAT ??_C@_04MEMAJGDJ@name@
CONST	SEGMENT
??_C@_04MEMAJGDJ@name@ DB 'name', 00H			; `string'
CONST	ENDS
;	COMDAT ??_C@_03PJHHNEEI@xml@
CONST	SEGMENT
??_C@_03PJHHNEEI@xml@ DB 'xml', 00H			; `string'
CONST	ENDS
;	COMDAT ??_C@_02EGCJHIOB@id@
CONST	SEGMENT
??_C@_02EGCJHIOB@id@ DB 'id', 00H			; `string'
CONST	ENDS
;	COMDAT ??_C@_0BH@JKIFIOPN@ID?5?$CFs?5already?5defined?6@
CONST	SEGMENT
??_C@_0BH@JKIFIOPN@ID?5?$CFs?5already?5defined?6@ DB 'ID %s already defin'
	DB	'ed', 0aH, 00H				; `string'
CONST	ENDS
;	COMDAT ??_C@_0CC@HPFDMDEK@xmlAddID?3?5Table?5creation?5failed@
CONST	SEGMENT
??_C@_0CC@HPFDMDEK@xmlAddID?3?5Table?5creation?5failed@ DB 'xmlAddID: Tab'
	DB	'le creation failed!', 0aH, 00H		; `string'
CONST	ENDS
;	COMDAT ??_C@_03KKJDKPMN@?5?$DO?6@
CONST	SEGMENT
??_C@_03KKJDKPMN@?5?$DO?6@ DB ' >', 0aH, 00H		; `string'
CONST	ENDS
;	COMDAT ??_C@_08PAGGLANP@?5SYSTEM?5@
CONST	SEGMENT
??_C@_08PAGGLANP@?5SYSTEM?5@ DB ' SYSTEM ', 00H		; `string'
CONST	ENDS
;	COMDAT ??_C@_08GBBLECIH@?5PUBLIC?5@
CONST	SEGMENT
??_C@_08GBBLECIH@?5PUBLIC?5@ DB ' PUBLIC ', 00H		; `string'
CONST	ENDS
;	COMDAT ??_C@_0M@IOFINGOM@?$DM?$CBNOTATION?5@
CONST	SEGMENT
??_C@_0M@IOFINGOM@?$DM?$CBNOTATION?5@ DB '<!NOTATION ', 00H ; `string'
CONST	ENDS
;	COMDAT ??_C@_0CI@HFJJKKEO@xmlAddNotationDecl?3?5?$CFs?5already?5@
CONST	SEGMENT
??_C@_0CI@HFJJKKEO@xmlAddNotationDecl?3?5?$CFs?5already?5@ DB 'xmlAddNota'
	DB	'tionDecl: %s already defined', 0aH, 00H	; `string'
CONST	ENDS
;	COMDAT ??_C@_0CM@PJBPJANJ@xmlAddNotationDecl?3?5Table?5creat@
CONST	SEGMENT
??_C@_0CM@PJBPJANJ@xmlAddNotationDecl?3?5Table?5creat@ DB 'xmlAddNotation'
	DB	'Decl: Table creation failed!', 0aH, 00H	; `string'
CONST	ENDS
;	COMDAT ??_C@_0DC@EJJFJDDL@Internal?3?5ATTRIBUTE?5struct?5corr@
CONST	SEGMENT
??_C@_0DC@EJJFJDDL@Internal?3?5ATTRIBUTE?5struct?5corr@ DB 'Internal: ATT'
	DB	'RIBUTE struct corrupted invalid def', 0aH, 00H ; `string'
CONST	ENDS
;	COMDAT ??_C@_07PNOBFAOP@?5?$CDFIXED@
CONST	SEGMENT
??_C@_07PNOBFAOP@?5?$CDFIXED@ DB ' #FIXED', 00H		; `string'
CONST	ENDS
;	COMDAT ??_C@_09GOIPIIGC@?5?$CDIMPLIED@
CONST	SEGMENT
??_C@_09GOIPIIGC@?5?$CDIMPLIED@ DB ' #IMPLIED', 00H	; `string'
CONST	ENDS
;	COMDAT ??_C@_0L@IEBFJPBC@?5?$CDREQUIRED@
CONST	SEGMENT
??_C@_0L@IEBFJPBC@?5?$CDREQUIRED@ DB ' #REQUIRED', 00H	; `string'
CONST	ENDS
;	COMDAT ??_C@_0M@IGKIMAHJ@?5NOTATION?5?$CI@
CONST	SEGMENT
??_C@_0M@IGKIMAHJ@?5NOTATION?5?$CI@ DB ' NOTATION (', 00H ; `string'
CONST	ENDS
;	COMDAT ??_C@_02GFKOMOKH@?5?$CI@
CONST	SEGMENT
??_C@_02GFKOMOKH@?5?$CI@ DB ' (', 00H			; `string'
CONST	ENDS
;	COMDAT ??_C@_09LGAPIBOH@?5NMTOKENS@
CONST	SEGMENT
??_C@_09LGAPIBOH@?5NMTOKENS@ DB ' NMTOKENS', 00H	; `string'
CONST	ENDS
;	COMDAT ??_C@_08JLMONKHB@?5NMTOKEN@
CONST	SEGMENT
??_C@_08JLMONKHB@?5NMTOKEN@ DB ' NMTOKEN', 00H		; `string'
CONST	ENDS
;	COMDAT ??_C@_09MILPKLMO@?5ENTITIES@
CONST	SEGMENT
??_C@_09MILPKLMO@?5ENTITIES@ DB ' ENTITIES', 00H	; `string'
CONST	ENDS
;	COMDAT ??_C@_07GLIJGNMP@?5ENTITY@
CONST	SEGMENT
??_C@_07GLIJGNMP@?5ENTITY@ DB ' ENTITY', 00H		; `string'
CONST	ENDS
;	COMDAT ??_C@_07CNGJPBFB@?5IDREFS@
CONST	SEGMENT
??_C@_07CNGJPBFB@?5IDREFS@ DB ' IDREFS', 00H		; `string'
CONST	ENDS
;	COMDAT ??_C@_06JJHMNMLB@?5IDREF@
CONST	SEGMENT
??_C@_06JJHMNMLB@?5IDREF@ DB ' IDREF', 00H		; `string'
CONST	ENDS
;	COMDAT ??_C@_03JFNHLDJD@?5ID@
CONST	SEGMENT
??_C@_03JFNHLDJD@?5ID@ DB ' ID', 00H			; `string'
CONST	ENDS
;	COMDAT ??_C@_06CIOOFICG@?5CDATA@
CONST	SEGMENT
??_C@_06CIOOFICG@?5CDATA@ DB ' CDATA', 00H		; `string'
CONST	ENDS
;	COMDAT ??_C@_0L@NDHICKFH@?$DM?$CBATTLIST?5@
CONST	SEGMENT
??_C@_0L@NDHICKFH@?$DM?$CBATTLIST?5@ DB '<!ATTLIST ', 00H ; `string'
CONST	ENDS
;	COMDAT ??_C@_05PPEFOGKI@xmlns@
CONST	SEGMENT
??_C@_05PPEFOGKI@xmlns@ DB 'xmlns', 00H			; `string'
CONST	ENDS
;	COMDAT ??_C@_0DD@GEPJIIIF@Element?5?$CFs?5has?5too?5may?5ID?5attri@
CONST	SEGMENT
??_C@_0DD@GEPJIIIF@Element?5?$CFs?5has?5too?5may?5ID?5attri@ DB 'Element '
	DB	'%s has too may ID attributes defined : %s', 0aH, 00H ; `string'
CONST	ENDS
;	COMDAT ??_C@_0CN@HJBCFPNE@Attribute?5?$CFs?5of?5element?5?$CFs?3?5alr@
CONST	SEGMENT
??_C@_0CN@HJBCFPNE@Attribute?5?$CFs?5of?5element?5?$CFs?3?5alr@ DB 'Attri'
	DB	'bute %s of element %s: already defined', 0aH, 00H ; `string'
CONST	ENDS
;	COMDAT ??_C@_0CN@LFDBMMCB@xmlAddAttributeDecl?3?5Table?5crea@
CONST	SEGMENT
??_C@_0CN@LFDBMMCB@xmlAddAttributeDecl?3?5Table?5crea@ DB 'xmlAddAttribut'
	DB	'eDecl: Table creation failed!', 0aH, 00H	; `string'
CONST	ENDS
;	COMDAT ??_C@_0CL@IHGCOODJ@Attribute?5?$CFs?5of?5?$CFs?3?5invalid?5def@
CONST	SEGMENT
??_C@_0CL@IHGCOODJ@Attribute?5?$CFs?5of?5?$CFs?3?5invalid?5def@ DB 'Attri'
	DB	'bute %s of %s: invalid default value', 0aH, 00H ; `string'
CONST	ENDS
;	COMDAT ??_C@_0DD@NLJCGIHL@Internal?3?5ATTRIBUTE?5struct?5corr@
CONST	SEGMENT
??_C@_0DD@NLJCGIHL@Internal?3?5ATTRIBUTE?5struct?5corr@ DB 'Internal: ATT'
	DB	'RIBUTE struct corrupted invalid type', 0aH, 00H ; `string'
CONST	ENDS
;	COMDAT ??_C@_0DE@EJGKGKMH@Element?5?$CFs?5has?5too?5many?5ID?5attr@
CONST	SEGMENT
??_C@_0DE@EJGKGKMH@Element?5?$CFs?5has?5too?5many?5ID?5attr@ DB 'Element '
	DB	'%s has too many ID attributes defined : %s', 0aH, 00H ; `string'
CONST	ENDS
;	COMDAT ??_C@_0DB@NFLGBMMC@Internal?3?5ELEMENT?5struct?5corrup@
CONST	SEGMENT
??_C@_0DB@NFLGBMMC@Internal?3?5ELEMENT?5struct?5corrup@ DB 'Internal: ELE'
	DB	'MENT struct corrupted invalid type', 0aH, 00H ; `string'
CONST	ENDS
;	COMDAT ??_C@_02NEKEAGPN@?$DO?6@
CONST	SEGMENT
??_C@_02NEKEAGPN@?$DO?6@ DB '>', 0aH, 00H		; `string'
CONST	ENDS
;	COMDAT ??_C@_01CLKCMJKC@?5@
CONST	SEGMENT
??_C@_01CLKCMJKC@?5@ DB ' ', 00H			; `string'
CONST	ENDS
;	COMDAT ??_C@_06OMPGEGME@?5ANY?$DO?6@
CONST	SEGMENT
??_C@_06OMPGEGME@?5ANY?$DO?6@ DB ' ANY>', 0aH, 00H	; `string'
CONST	ENDS
;	COMDAT ??_C@_08HMKELAAG@?5EMPTY?$DO?6@
CONST	SEGMENT
??_C@_08HMKELAAG@?5EMPTY?$DO?6@ DB ' EMPTY>', 0aH, 00H	; `string'
CONST	ENDS
;	COMDAT ??_C@_0L@EMLMHHFJ@?$DM?$CBELEMENT?5@
CONST	SEGMENT
??_C@_0L@EMLMHHFJ@?$DM?$CBELEMENT?5@ DB '<!ELEMENT ', 00H ; `string'
CONST	ENDS
;	COMDAT ??_C@_0BM@DLJMKEJ@Redefinition?5of?5element?5?$CFs?6@
CONST	SEGMENT
??_C@_0BM@DLJMKEJ@Redefinition?5of?5element?5?$CFs?6@ DB 'Redefinition of'
	DB	' element %s', 0aH, 00H			; `string'
CONST	ENDS
;	COMDAT ??_C@_0CL@IICJECDN@xmlAddElementDecl?3?5Table?5creati@
CONST	SEGMENT
??_C@_0CL@IICJECDN@xmlAddElementDecl?3?5Table?5creati@ DB 'xmlAddElementD'
	DB	'ecl: Table creation failed!', 0aH, 00H	; `string'
CONST	ENDS
;	COMDAT ??_C@_0CP@HFIOBKAA@Internal?3?5ELEMENT?5decl?5corrupte@
CONST	SEGMENT
??_C@_0CP@HFIOBKAA@Internal?3?5ELEMENT?5decl?5corrupte@ DB 'Internal: ELE'
	DB	'MENT decl corrupted invalid type', 0aH, 00H	; `string'
CONST	ENDS
;	COMDAT ??_C@_0DA@CFDLEHAD@xmlAddElementDecl?3?5content?5?$DN?$DN?5N@
CONST	SEGMENT
??_C@_0DA@CFDLEHAD@xmlAddElementDecl?3?5content?5?$DN?$DN?5N@ DB 'xmlAddE'
	DB	'lementDecl: content == NULL for ELEMENT', 0aH, 00H ; `string'
CONST	ENDS
;	COMDAT ??_C@_0CO@IMMDEKCP@xmlAddElementDecl?3?5content?5?$DN?$DN?5N@
CONST	SEGMENT
??_C@_0CO@IMMDEKCP@xmlAddElementDecl?3?5content?5?$DN?$DN?5N@ DB 'xmlAddE'
	DB	'lementDecl: content == NULL for MIXED', 0aH, 00H ; `string'
CONST	ENDS
;	COMDAT ??_C@_0CM@DBFKJMHA@xmlAddElementDecl?3?5content?5?$CB?$DN?5N@
CONST	SEGMENT
??_C@_0CM@DBFKJMHA@xmlAddElementDecl?3?5content?5?$CB?$DN?5N@ DB 'xmlAddE'
	DB	'lementDecl: content != NULL for ANY', 0aH, 00H ; `string'
CONST	ENDS
;	COMDAT ??_C@_0CO@BLBNCGCL@xmlAddElementDecl?3?5content?5?$CB?$DN?5N@
CONST	SEGMENT
??_C@_0CO@BLBNCGCL@xmlAddElementDecl?3?5content?5?$CB?$DN?5N@ DB 'xmlAddE'
	DB	'lementDecl: content != NULL for EMPTY', 0aH, 00H ; `string'
CONST	ENDS
;	COMDAT ??_C@_04IBCFJNCN@?5?4?4?4@
CONST	SEGMENT
??_C@_04IBCFJNCN@?5?4?4?4@ DB ' ...', 00H		; `string'
CONST	ENDS
;	COMDAT ??_C@_01MIFGBAGJ@?$CL@
CONST	SEGMENT
??_C@_01MIFGBAGJ@?$CL@ DB '+', 00H			; `string'
CONST	ENDS
;	COMDAT ??_C@_01NBENCBCI@?$CK@
CONST	SEGMENT
??_C@_01NBENCBCI@?$CK@ DB '*', 00H			; `string'
CONST	ENDS
;	COMDAT ??_C@_01OGPIMHDM@?$DP@
CONST	SEGMENT
??_C@_01OGPIMHDM@?$DP@ DB '?', 00H			; `string'
CONST	ENDS
;	COMDAT ??_C@_01PKGAHCOL@?$CJ@
CONST	SEGMENT
??_C@_01PKGAHCOL@?$CJ@ DB ')', 00H			; `string'
CONST	ENDS
;	COMDAT ??_C@_03LGOGDKEL@?5?$HM?5@
CONST	SEGMENT
??_C@_03LGOGDKEL@?5?$HM?5@ DB ' | ', 00H		; `string'
CONST	ENDS
;	COMDAT ??_C@_03NKFKBEPL@?5?0?5@
CONST	SEGMENT
??_C@_03NKFKBEPL@?5?0?5@ DB ' , ', 00H			; `string'
CONST	ENDS
;	COMDAT ??_C@_01JLIPDDHJ@?3@
CONST	SEGMENT
??_C@_01JLIPDDHJ@?3@ DB ':', 00H			; `string'
CONST	ENDS
;	COMDAT ??_C@_07ELDBONKP@?$CDPCDATA@
CONST	SEGMENT
??_C@_07ELDBONKP@?$CDPCDATA@ DB '#PCDATA', 00H		; `string'
CONST	ENDS
;	COMDAT ??_C@_01ODHLEDKK@?$CI@
CONST	SEGMENT
??_C@_01ODHLEDKK@?$CI@ DB '(', 00H			; `string'
CONST	ENDS
;	COMDAT ??_C@_0DC@GLPLFDD@Internal?3?5ELEMENT?5content?5corru@
CONST	SEGMENT
??_C@_0DC@GLPLFDD@Internal?3?5ELEMENT?5content?5corru@ DB 'Internal: ELEM'
	DB	'ENT content corrupted invalid type', 0aH, 00H ; `string'
CONST	ENDS
;	COMDAT ??_C@_0CH@EHMNFIPD@xmlNewElementContent?5?3?5name?5?$CB?$DN?5@
CONST	SEGMENT
??_C@_0CH@EHMNFIPD@xmlNewElementContent?5?3?5name?5?$CB?$DN?5@ DB 'xmlNew'
	DB	'ElementContent : name != NULL !', 0aH, 00H	; `string'
CONST	ENDS
;	COMDAT ??_C@_0CH@ODCBAOPP@xmlNewElementContent?5?3?5name?5?$DN?$DN?5@
CONST	SEGMENT
??_C@_0CH@ODCBAOPP@xmlNewElementContent?5?3?5name?5?$DN?$DN?5@ DB 'xmlNew'
	DB	'ElementContent : name == NULL !', 0aH, 00H	; `string'
CONST	ENDS
;	COMDAT ??_C@_0CM@GHMIMING@Content?5model?5of?5?$CFs?5is?5not?5dete@
CONST	SEGMENT
??_C@_0CM@GHMIMING@Content?5model?5of?5?$CFs?5is?5not?5dete@ DB 'Content '
	DB	'model of %s is not determinist: %s', 0aH, 00H ; `string'
CONST	ENDS
;	COMDAT ??_C@_0CH@LILACHHH@Cannot?5create?5automata?5for?5elem@
CONST	SEGMENT
??_C@_0CH@LILACHHH@Cannot?5create?5automata?5for?5elem@ DB 'Cannot create'
	DB	' automata for element %s', 0aH, 00H		; `string'
CONST	ENDS
;	COMDAT ??_C@_0CE@LMBMADBI@ContentModel?5broken?5for?5element@
CONST	SEGMENT
??_C@_0CE@LMBMADBI@ContentModel?5broken?5for?5element@ DB 'ContentModel b'
	DB	'roken for element %s', 0aH, 00H		; `string'
CONST	ENDS
;	COMDAT ??_C@_0BH@INHICIGB@Building?5content?5model@
CONST	SEGMENT
??_C@_0BH@INHICIGB@Building?5content?5model@ DB 'Building content model', 00H ; `string'
CONST	ENDS
;	COMDAT ??_C@_0CF@IIHAKBAI@Found?5PCDATA?5in?5content?5model?5o@
CONST	SEGMENT
??_C@_0CF@IIHAKBAI@Found?5PCDATA?5in?5content?5model?5o@ DB 'Found PCDATA'
	DB	' in content model of %s', 0aH, 00H		; `string'
CONST	ENDS
;	COMDAT ??_C@_0CL@FIAOIAHN@Found?5NULL?5content?5in?5content?5m@
CONST	SEGMENT
??_C@_0CL@FIAOIAHN@Found?5NULL?5content?5in?5content?5m@ DB 'Found NULL c'
	DB	'ontent in content model of %s', 0aH, 00H	; `string'
CONST	ENDS
;	COMDAT ??_C@_0CN@GEBFHDLO@Failed?5to?5build?5content?5model?5r@
CONST	SEGMENT
??_C@_0CN@GEBFHDLO@Failed?5to?5build?5content?5model?5r@ DB 'Failed to bu'
	DB	'ild content model regexp for %s', 0aH, 00H	; `string'
CONST	ENDS
;	COMDAT ??_C@_0P@BHJOIPMJ@realloc?5failed@
CONST	SEGMENT
??_C@_0P@BHJOIPMJ@realloc?5failed@ DB 'realloc failed', 00H ; `string'
CONST	ENDS
;	COMDAT ??_C@_0O@IMHFIAOC@malloc?5failed@
CONST	SEGMENT
??_C@_0O@IMHFIAOC@malloc?5failed@ DB 'malloc failed', 00H ; `string'
CONST	ENDS
;	COMDAT ??_C@_02DKCKIIND@?$CFs@
CONST	SEGMENT
??_C@_02DKCKIIND@?$CFs@ DB '%s', 00H			; `string'
CONST	ENDS
;	COMDAT ??_C@_0BK@GDFDKGPJ@Memory?5allocation?5failed?6@
CONST	SEGMENT
??_C@_0BK@GDFDKGPJ@Memory?5allocation?5failed?6@ DB 'Memory allocation fa'
	DB	'iled', 0aH, 00H				; `string'
CONST	ENDS
;	COMDAT ??_C@_0BP@DJFHNAOK@Memory?5allocation?5failed?5?3?5?$CFs?6@
CONST	SEGMENT
??_C@_0BP@DJFHNAOK@Memory?5allocation?5failed?5?3?5?$CFs?6@ DB 'Memory al'
	DB	'location failed : %s', 0aH, 00H		; `string'
CONST	ENDS
; Function compile flags: /Odt
;	COMDAT __JustMyCode_Default
_TEXT	SEGMENT
__JustMyCode_Default PROC				; COMDAT
	push	ebp
	mov	ebp, esp
	pop	ebp
	ret	0
__JustMyCode_Default ENDP
_TEXT	ENDS
; Function compile flags: /Ogtp
; File c:\users\dag\documents\_clients\codeproject authors group\windows on arm\libxml2\libxml2-2.9.9\valid.c
;	COMDAT _xmlNoValidityErr
_TEXT	SEGMENT
_ctx$ = 8						; size = 4
_msg$ = 12						; size = 4
_xmlNoValidityErr PROC					; COMDAT
	mov	ecx, OFFSET __56F63275_valid@c
	jmp	@__CheckForDebuggerJustMyCode@4
_xmlNoValidityErr ENDP
_TEXT	ENDS
; Function compile flags: /Ogtp
; File c:\users\dag\documents\_clients\codeproject authors group\windows on arm\libxml2\libxml2-2.9.9\valid.c
;	COMDAT _xmlValidateAttributeCallback
_TEXT	SEGMENT
_payload$ = 8						; size = 4
_data$ = 12						; size = 4
_name$ = 16						; size = 4
_xmlValidateAttributeCallback PROC			; COMDAT

; 6710 : 	                     const xmlChar *name ATTRIBUTE_UNUSED) {

	push	ebp
	mov	ebp, esp
	push	esi
	mov	ecx, OFFSET __56F63275_valid@c
	call	@__CheckForDebuggerJustMyCode@4
	mov	esi, DWORD PTR _payload$[ebp]
	test	esi, esi
	je	$LN19@xmlValidat

; 6711 :     xmlAttributePtr cur = (xmlAttributePtr) payload;
; 6712 :     xmlValidCtxtPtr ctxt = (xmlValidCtxtPtr) data;
; 6713 :     int ret;
; 6714 :     xmlDocPtr doc;
; 6715 :     xmlElementPtr elem = NULL;
; 6716 : 
; 6717 :     if (cur == NULL)
; 6718 : 	return;
; 6719 :     switch (cur->atype) {

	mov	eax, DWORD PTR [esi+40]
	push	ebx
	push	edi
	mov	edi, DWORD PTR _data$[ebp]
	cmp	eax, 5
	jl	SHORT $LN5@xmlValidat
	cmp	eax, 6
	jle	SHORT $LN8@xmlValidat
	cmp	eax, 10					; 0000000aH
	jne	SHORT $LN5@xmlValidat
$LN8@xmlValidat:

; 6720 : 	case XML_ATTRIBUTE_CDATA:
; 6721 : 	case XML_ATTRIBUTE_ID:
; 6722 : 	case XML_ATTRIBUTE_IDREF	:
; 6723 : 	case XML_ATTRIBUTE_IDREFS:
; 6724 : 	case XML_ATTRIBUTE_NMTOKEN:
; 6725 : 	case XML_ATTRIBUTE_NMTOKENS:
; 6726 : 	case XML_ATTRIBUTE_ENUMERATION:
; 6727 : 	    break;
; 6728 : 	case XML_ATTRIBUTE_ENTITY:
; 6729 : 	case XML_ATTRIBUTE_ENTITIES:
; 6730 : 	case XML_ATTRIBUTE_NOTATION:
; 6731 : 	    if (cur->defaultValue != NULL) {

	mov	ecx, DWORD PTR [esi+48]
	test	ecx, ecx
	je	SHORT $LN10@xmlValidat

; 6732 : 
; 6733 : 		ret = xmlValidateAttributeValue2(ctxt, ctxt->doc, cur->name,

	push	ecx
	push	eax
	push	DWORD PTR [esi+8]
	push	DWORD PTR [edi+32]
	push	edi
	call	_xmlValidateAttributeValue2
	add	esp, 20					; 00000014H

; 6734 : 			                         cur->atype, cur->defaultValue);
; 6735 : 		if ((ret == 0) && (ctxt->valid == 1))

	test	eax, eax
	jne	SHORT $LN10@xmlValidat
	cmp	DWORD PTR [edi+36], 1
	jne	SHORT $LN10@xmlValidat

; 6736 : 		    ctxt->valid = 0;

	mov	DWORD PTR [edi+36], eax
$LN10@xmlValidat:

; 6737 : 	    }
; 6738 : 	    if (cur->tree != NULL) {

	mov	ebx, DWORD PTR [esi+52]
	test	ebx, ebx
	je	SHORT $LN5@xmlValidat
	npad	4
$LL4@xmlValidat:

; 6739 : 		xmlEnumerationPtr tree = cur->tree;
; 6740 : 		while (tree != NULL) {
; 6741 : 		    ret = xmlValidateAttributeValue2(ctxt, ctxt->doc,

	push	DWORD PTR [ebx+4]
	push	DWORD PTR [esi+40]
	push	DWORD PTR [esi+8]
	push	DWORD PTR [edi+32]
	push	edi
	call	_xmlValidateAttributeValue2
	add	esp, 20					; 00000014H

; 6742 : 				    cur->name, cur->atype, tree->name);
; 6743 : 		    if ((ret == 0) && (ctxt->valid == 1))

	test	eax, eax
	jne	SHORT $LN12@xmlValidat
	cmp	DWORD PTR [edi+36], 1
	jne	SHORT $LN12@xmlValidat

; 6744 : 			ctxt->valid = 0;

	mov	DWORD PTR [edi+36], eax
$LN12@xmlValidat:

; 6745 : 		    tree = tree->next;

	mov	ebx, DWORD PTR [ebx]
	test	ebx, ebx
	jne	SHORT $LL4@xmlValidat
$LN5@xmlValidat:

; 6746 : 		}
; 6747 : 	    }
; 6748 :     }
; 6749 :     if (cur->atype == XML_ATTRIBUTE_NOTATION) {

	cmp	DWORD PTR [esi+40], 10			; 0000000aH
	jne	$LN28@xmlValidat

; 6750 : 	doc = cur->doc;
; 6751 : 	if (cur->elem == NULL) {

	mov	eax, DWORD PTR [esi+60]
	mov	ebx, DWORD PTR [esi+32]
	test	eax, eax
	jne	SHORT $LN14@xmlValidat

; 6752 : 	    xmlErrValid(ctxt, XML_ERR_INTERNAL_ERROR,

	push	DWORD PTR [esi+8]
	push	OFFSET ??_C@_0DC@EEKBOKHB@xmlValidateAttributeCallback?$CI?$CFs@
	push	1
	push	edi
	call	_xmlErrValid
	add	esp, 16					; 00000010H
	pop	edi
	pop	ebx
	pop	esi

; 6776 : 	}
; 6777 :     }
; 6778 : }

	pop	ebp
	ret	0
$LN14@xmlValidat:

; 6753 : 		   "xmlValidateAttributeCallback(%s): internal error\n",
; 6754 : 		   (const char *) cur->name);
; 6755 : 	    return;
; 6756 : 	}
; 6757 : 
; 6758 : 	if (doc != NULL)

	test	ebx, ebx
	je	SHORT $LN26@xmlValidat

; 6759 : 	    elem = xmlGetDtdElementDesc(doc->intSubset, cur->elem);

	push	eax
	push	DWORD PTR [ebx+44]
	call	_xmlGetDtdElementDesc
	add	esp, 8

; 6760 : 	if ((elem == NULL) && (doc != NULL))

	test	eax, eax
	jne	SHORT $LN18@xmlValidat

; 6761 : 	    elem = xmlGetDtdElementDesc(doc->extSubset, cur->elem);

	push	DWORD PTR [esi+60]
	push	DWORD PTR [ebx+48]
	call	_xmlGetDtdElementDesc
	add	esp, 8

; 6762 : 	if ((elem == NULL) && (cur->parent != NULL) &&

	test	eax, eax
	jne	SHORT $LN18@xmlValidat
$LN26@xmlValidat:
	mov	eax, DWORD PTR [esi+20]
	test	eax, eax
	je	SHORT $LN27@xmlValidat
	cmp	DWORD PTR [eax+4], 14			; 0000000eH
	jne	SHORT $LN27@xmlValidat

; 6763 : 	    (cur->parent->type == XML_DTD_NODE))
; 6764 : 	    elem = xmlGetDtdElementDesc((xmlDtdPtr) cur->parent, cur->elem);

	push	DWORD PTR [esi+60]
	push	eax
	call	_xmlGetDtdElementDesc
	add	esp, 8

; 6765 : 	if (elem == NULL) {

	test	eax, eax
	je	SHORT $LN27@xmlValidat
$LN18@xmlValidat:

; 6767 : 		   "attribute %s: could not find decl for element %s\n",
; 6768 : 		   cur->name, cur->elem, NULL);
; 6769 : 	    return;
; 6770 : 	}
; 6771 : 	if (elem->etype == XML_ELEMENT_TYPE_EMPTY) {

	cmp	DWORD PTR [eax+36], 1
	jne	SHORT $LN28@xmlValidat

; 6772 : 	    xmlErrValidNode(ctxt, NULL, XML_DTD_EMPTY_NOTATION,

	push	0
	push	DWORD PTR [esi+60]
	push	DWORD PTR [esi+8]
	push	OFFSET ??_C@_0DF@KBMCJLCB@NOTATION?5attribute?5?$CFs?5declared?5@
	push	510					; 000001feH
	push	0
	push	edi
	call	_xmlErrValidNode
	add	esp, 28					; 0000001cH

; 6773 : 		   "NOTATION attribute %s declared for EMPTY element %s\n",
; 6774 : 		   cur->name, cur->elem, NULL);
; 6775 : 	    ctxt->valid = 0;

	mov	DWORD PTR [edi+36], 0
	pop	edi
	pop	ebx
	pop	esi

; 6776 : 	}
; 6777 :     }
; 6778 : }

	pop	ebp
	ret	0
$LN27@xmlValidat:

; 6766 : 	    xmlErrValidNode(ctxt, NULL, XML_DTD_UNKNOWN_ELEM,

	push	0
	push	DWORD PTR [esi+60]
	push	DWORD PTR [esi+8]
	push	OFFSET ??_C@_0DC@CHBKELEG@attribute?5?$CFs?3?5could?5not?5find?5de@
	push	534					; 00000216H
	push	0
	push	edi
	call	_xmlErrValidNode
	add	esp, 28					; 0000001cH
$LN28@xmlValidat:
	pop	edi
	pop	ebx
$LN19@xmlValidat:
	pop	esi

; 6776 : 	}
; 6777 :     }
; 6778 : }

	pop	ebp
	ret	0
_xmlValidateAttributeCallback ENDP
_TEXT	ENDS
; Function compile flags: /Ogtp
; File c:\users\dag\documents\_clients\codeproject authors group\windows on arm\libxml2\libxml2-2.9.9\valid.c
;	COMDAT _xmlValidateNotationCallback
_TEXT	SEGMENT
_payload$ = 8						; size = 4
_data$ = 12						; size = 4
_name$ = 16						; size = 4
_xmlValidateNotationCallback PROC			; COMDAT

; 6689 : 	                    const xmlChar *name ATTRIBUTE_UNUSED) {

	push	ebp
	mov	ebp, esp
	mov	ecx, OFFSET __56F63275_valid@c
	call	@__CheckForDebuggerJustMyCode@4
	mov	eax, DWORD PTR _payload$[ebp]
	test	eax, eax
	je	SHORT $LN5@xmlValidat

; 6690 :     xmlEntityPtr cur = (xmlEntityPtr) payload;
; 6691 :     xmlValidCtxtPtr ctxt = (xmlValidCtxtPtr) data;
; 6692 :     if (cur == NULL)
; 6693 : 	return;
; 6694 :     if (cur->etype == XML_EXTERNAL_GENERAL_UNPARSED_ENTITY) {

	cmp	DWORD PTR [eax+48], 3
	jne	SHORT $LN5@xmlValidat

; 6695 : 	xmlChar *notation = cur->content;

	mov	ecx, DWORD PTR [eax+40]

; 6696 : 
; 6697 : 	if (notation != NULL) {

	test	ecx, ecx
	je	SHORT $LN5@xmlValidat

; 6698 : 	    int ret;
; 6699 : 
; 6700 : 	    ret = xmlValidateNotationUse(ctxt, cur->doc, notation);

	push	esi
	mov	esi, DWORD PTR _data$[ebp]
	push	ecx
	push	DWORD PTR [eax+32]
	push	esi
	call	_xmlValidateNotationUse
	add	esp, 12					; 0000000cH

; 6701 : 	    if (ret != 1) {

	cmp	eax, 1
	je	SHORT $LN7@xmlValidat

; 6702 : 		ctxt->valid = 0;

	mov	DWORD PTR [esi+36], 0
$LN7@xmlValidat:
	pop	esi
$LN5@xmlValidat:

; 6703 : 	    }
; 6704 : 	}
; 6705 :     }
; 6706 : }

	pop	ebp
	ret	0
_xmlValidateNotationCallback ENDP
_TEXT	ENDS
; Function compile flags: /Ogtp
; File c:\users\dag\documents\_clients\codeproject authors group\windows on arm\libxml2\libxml2-2.9.9\valid.c
;	COMDAT _xmlValidateCheckRefCallback
_TEXT	SEGMENT
_memo$ = -8						; size = 8
_payload$ = 8						; size = 4
_data$ = 12						; size = 4
_name$ = 16						; size = 4
_xmlValidateCheckRefCallback PROC			; COMDAT

; 6573 : xmlValidateCheckRefCallback(void *payload, void *data, const xmlChar *name) {

	push	ebp
	mov	ebp, esp
	sub	esp, 8
	mov	ecx, OFFSET __56F63275_valid@c
	call	@__CheckForDebuggerJustMyCode@4
	mov	ecx, DWORD PTR _payload$[ebp]
	test	ecx, ecx
	je	SHORT $LN1@xmlValidat

; 6574 :     xmlListPtr ref_list = (xmlListPtr) payload;
; 6575 :     xmlValidCtxtPtr ctxt = (xmlValidCtxtPtr) data;
; 6576 :     xmlValidateMemo memo;
; 6577 : 
; 6578 :     if (ref_list == NULL)
; 6579 : 	return;
; 6580 :     memo.ctxt = ctxt;

	mov	eax, DWORD PTR _data$[ebp]
	mov	DWORD PTR _memo$[ebp], eax

; 6581 :     memo.name = name;

	mov	eax, DWORD PTR _name$[ebp]
	mov	DWORD PTR _memo$[ebp+4], eax

; 6582 : 
; 6583 :     xmlListWalk(ref_list, xmlWalkValidateList, &memo);

	lea	eax, DWORD PTR _memo$[ebp]
	push	eax
	push	OFFSET _xmlWalkValidateList
	push	ecx
	call	_xmlListWalk
	add	esp, 12					; 0000000cH
$LN1@xmlValidat:

; 6584 : 
; 6585 : }

	mov	esp, ebp
	pop	ebp
	ret	0
_xmlValidateCheckRefCallback ENDP
_TEXT	ENDS
; Function compile flags: /Ogtp
; File c:\users\dag\documents\_clients\codeproject authors group\windows on arm\libxml2\libxml2-2.9.9\valid.c
;	COMDAT _xmlWalkValidateList
_TEXT	SEGMENT
_data$ = 8						; size = 4
_user$ = 12						; size = 4
_xmlWalkValidateList PROC				; COMDAT

; 6559 : {

	push	ebp
	mov	ebp, esp
	mov	ecx, OFFSET __56F63275_valid@c
	call	@__CheckForDebuggerJustMyCode@4
	mov	eax, DWORD PTR _user$[ebp]
	push	DWORD PTR [eax+4]
	push	DWORD PTR [eax]
	push	DWORD PTR _data$[ebp]
	call	_xmlValidateRef
	add	esp, 12					; 0000000cH
	mov	eax, 1

; 6560 : 	xmlValidateMemoPtr memo = (xmlValidateMemoPtr)user;
; 6561 : 	xmlValidateRef((xmlRefPtr)data, memo->ctxt, memo->name);
; 6562 : 	return 1;
; 6563 : }

	pop	ebp
	ret	0
_xmlWalkValidateList ENDP
_TEXT	ENDS
; Function compile flags: /Ogtp
; File c:\users\dag\documents\_clients\codeproject authors group\windows on arm\libxml2\libxml2-2.9.9\valid.c
;	COMDAT _xmlValidateRef
_TEXT	SEGMENT
_dup$1$ = -8						; size = 4
_attr$1$ = -8						; size = 4
_str$1$ = -4						; size = 4
_dup$1$ = 8						; size = 4
_ref$ = 8						; size = 4
_ctxt$ = 12						; size = 4
_name$ = 16						; size = 4
_xmlValidateRef PROC					; COMDAT

; 6475 : 	                   const xmlChar *name) {

	push	ebp
	mov	ebp, esp
	sub	esp, 8
	mov	ecx, OFFSET __56F63275_valid@c
	push	edi
	call	@__CheckForDebuggerJustMyCode@4
	mov	edi, DWORD PTR _ref$[ebp]
	test	edi, edi
	je	$LN27@xmlValidat

; 6476 :     xmlAttrPtr id;
; 6477 :     xmlAttrPtr attr;
; 6478 : 
; 6479 :     if (ref == NULL)
; 6480 : 	return;
; 6481 :     if ((ref->attr == NULL) && (ref->name == NULL))

	push	ebx
	mov	ebx, DWORD PTR [edi+8]
	mov	DWORD PTR _attr$1$[ebp], ebx
	test	ebx, ebx
	jne	SHORT $LN68@xmlValidat
	cmp	DWORD PTR [edi+12], ebx
	je	$LN85@xmlValidat
$LN68@xmlValidat:
	push	esi

; 6482 : 	return;
; 6483 :     attr = ref->attr;
; 6484 :     if (attr == NULL) {

	test	ebx, ebx
	jne	$LN16@xmlValidat

; 6485 : 	xmlChar *dup, *str = NULL, *cur, save;
; 6486 : 
; 6487 : 	dup = xmlStrdup(name);

	push	DWORD PTR _name$[ebp]
	call	_xmlStrdup
	add	esp, 4
	mov	DWORD PTR _dup$1$[ebp], eax

; 6488 : 	if (dup == NULL) {

	test	eax, eax
	jne	SHORT $LN18@xmlValidat

; 6489 : 	    ctxt->valid = 0;

	mov	eax, DWORD PTR _ctxt$[ebp]
	pop	esi
	mov	DWORD PTR [eax+36], ebx
	pop	ebx
	pop	edi

; 6547 :     }
; 6548 : }

	mov	esp, ebp
	pop	ebp
	ret	0
$LN18@xmlValidat:

; 6490 : 	    return;
; 6491 : 	}
; 6492 : 	cur = dup;
; 6493 : 	while (*cur != 0) {

	mov	bl, BYTE PTR [eax]
	mov	esi, eax
	test	bl, bl
	je	$LN80@xmlValidat
$LL2@xmlValidat:

; 6494 : 	    str = cur;

	mov	eax, esi
	mov	DWORD PTR _str$1$[ebp], eax

; 6495 : 	    while ((*cur != 0) && (!IS_BLANK_CH(*cur))) cur++;

	test	bl, bl
	je	SHORT $LN5@xmlValidat
	mov	al, bl
	npad	1
$LL4@xmlValidat:
	mov	bl, al
	cmp	al, 32					; 00000020H
	je	SHORT $LN81@xmlValidat
	cmp	al, 9
	jb	SHORT $LN19@xmlValidat
	cmp	al, 10					; 0000000aH
	jbe	SHORT $LN81@xmlValidat
$LN19@xmlValidat:
	mov	bl, al
	cmp	al, 13					; 0000000dH
	je	SHORT $LN81@xmlValidat
	mov	bl, BYTE PTR [esi+1]
	inc	esi
	mov	al, bl
	test	bl, bl
	jne	SHORT $LL4@xmlValidat
$LN81@xmlValidat:
	mov	eax, DWORD PTR _str$1$[ebp]
$LN5@xmlValidat:

; 6496 : 	    save = *cur;
; 6497 : 	    *cur = 0;
; 6498 : 	    id = xmlGetID(ctxt->doc, str);

	mov	ecx, DWORD PTR _ctxt$[ebp]
	mov	BYTE PTR [esi], 0
	mov	edi, DWORD PTR [ecx+32]

; 2807 :     if (doc == NULL) {

	test	edi, edi
	je	SHORT $LN67@xmlValidat

; 2808 : 	return(NULL);
; 2809 :     }
; 2810 : 
; 2811 :     if (ID == NULL) {

	test	eax, eax
	je	SHORT $LN67@xmlValidat

; 2812 : 	return(NULL);
; 2813 :     }
; 2814 : 
; 2815 :     table = (xmlIDTablePtr) doc->ids;

	mov	eax, DWORD PTR [edi+64]

; 2816 :     if (table == NULL)

	test	eax, eax
	je	SHORT $LN67@xmlValidat

; 2817 :         return(NULL);
; 2818 : 
; 2819 :     id = xmlHashLookup(table, ID);

	push	DWORD PTR _str$1$[ebp]
	push	eax
	call	_xmlHashLookup
	add	esp, 8

; 2820 :     if (id == NULL)

	test	eax, eax
	je	SHORT $LN67@xmlValidat

; 2821 : 	return(NULL);
; 2822 :     if (id->attr == NULL) {

	mov	eax, DWORD PTR [eax+8]
	test	eax, eax
	cmove	eax, edi

; 6499 : 	    if (id == NULL) {

	test	eax, eax
	jne	SHORT $LN20@xmlValidat
$LN67@xmlValidat:

; 6500 : 		xmlErrValidNodeNr(ctxt, NULL, XML_DTD_UNKNOWN_ID,

	push	DWORD PTR _str$1$[ebp]
	mov	edi, DWORD PTR _ref$[ebp]
	push	DWORD PTR [edi+16]
	push	DWORD PTR [edi+12]
	mov	edi, DWORD PTR _ctxt$[ebp]
	push	OFFSET ??_C@_0DE@GLBIFDCC@attribute?5?$CFs?5line?5?$CFd?5references@
	push	536					; 00000218H
	push	0
	push	edi
	call	_xmlErrValidNodeNr
	add	esp, 28					; 0000001cH

; 6501 : 	   "attribute %s line %d references an unknown ID \"%s\"\n",
; 6502 : 		       ref->name, ref->lineno, str);
; 6503 : 		ctxt->valid = 0;

	mov	DWORD PTR [edi+36], 0
$LN20@xmlValidat:

; 6504 : 	    }
; 6505 : 	    if (save == 0)

	test	bl, bl
	je	SHORT $LN82@xmlValidat

; 6506 : 		break;
; 6507 : 	    *cur = save;

	mov	BYTE PTR [esi], bl
$LL6@xmlValidat:

; 6508 : 	    while (IS_BLANK_CH(*cur)) cur++;

	cmp	bl, 32					; 00000020H
	je	SHORT $LN22@xmlValidat
	cmp	bl, 9
	jb	SHORT $LN23@xmlValidat
	cmp	bl, 10					; 0000000aH
	jbe	SHORT $LN22@xmlValidat
$LN23@xmlValidat:
	cmp	bl, 13					; 0000000dH
	jne	SHORT $LN7@xmlValidat
$LN22@xmlValidat:
	mov	bl, BYTE PTR [esi+1]
	inc	esi
	jmp	SHORT $LL6@xmlValidat
$LN7@xmlValidat:

; 6490 : 	    return;
; 6491 : 	}
; 6492 : 	cur = dup;
; 6493 : 	while (*cur != 0) {

	test	bl, bl
	jne	$LL2@xmlValidat
$LN82@xmlValidat:
	mov	eax, DWORD PTR _dup$1$[ebp]

; 6545 : 	}
; 6546 : 	xmlFree(dup);

	push	eax
	call	DWORD PTR _xmlFree
	add	esp, 4
	pop	esi
	pop	ebx
	pop	edi

; 6547 :     }
; 6548 : }

	mov	esp, ebp
	pop	ebp
	ret	0
$LN16@xmlValidat:

; 6509 : 	}
; 6510 : 	xmlFree(dup);
; 6511 :     } else if (attr->atype == XML_ATTRIBUTE_IDREF) {

	mov	eax, DWORD PTR [ebx+40]
	cmp	eax, 3
	jne	SHORT $LN24@xmlValidat

; 6512 : 	id = xmlGetID(ctxt->doc, name);

	mov	esi, DWORD PTR _ctxt$[ebp]
	mov	edi, DWORD PTR _name$[ebp]
	push	edi
	push	DWORD PTR [esi+32]
	call	_xmlGetID
	add	esp, 8

; 6513 : 	if (id == NULL) {

	test	eax, eax
	jne	$LN86@xmlValidat

; 6514 : 	    xmlErrValidNode(ctxt, attr->parent, XML_DTD_UNKNOWN_ID,

	push	eax
	push	edi
	push	DWORD PTR [ebx+8]
	push	OFFSET ??_C@_0DC@HOBCELJH@IDREF?5attribute?5?$CFs?5references?5a@
	push	536					; 00000218H
	push	DWORD PTR [ebx+20]
	push	esi
	call	_xmlErrValidNode
	add	esp, 28					; 0000001cH

; 6515 : 	   "IDREF attribute %s references an unknown ID \"%s\"\n",
; 6516 : 		   attr->name, name, NULL);
; 6517 : 	    ctxt->valid = 0;

	mov	DWORD PTR [esi+36], 0
	pop	esi
	pop	ebx
	pop	edi

; 6547 :     }
; 6548 : }

	mov	esp, ebp
	pop	ebp
	ret	0
$LN24@xmlValidat:

; 6518 : 	}
; 6519 :     } else if (attr->atype == XML_ATTRIBUTE_IDREFS) {

	cmp	eax, 4
	jne	$LN86@xmlValidat

; 6520 : 	xmlChar *dup, *str = NULL, *cur, save;
; 6521 : 
; 6522 : 	dup = xmlStrdup(name);

	push	DWORD PTR _name$[ebp]
	call	_xmlStrdup
	add	esp, 4
	mov	DWORD PTR _dup$1$[ebp], eax

; 6523 : 	if (dup == NULL) {

	test	eax, eax
	jne	SHORT $LN28@xmlValidat

; 6524 : 	    xmlVErrMemory(ctxt, "IDREFS split");

	mov	esi, DWORD PTR _ctxt$[ebp]
	push	OFFSET ??_C@_0N@BBOKCKMC@IDREFS?5split@
	push	esi
	call	_xmlVErrMemory
	add	esp, 8

; 6525 : 	    ctxt->valid = 0;

	mov	DWORD PTR [esi+36], 0
	pop	esi
	pop	ebx
	pop	edi

; 6547 :     }
; 6548 : }

	mov	esp, ebp
	pop	ebp
	ret	0
$LN28@xmlValidat:

; 6526 : 	    return;
; 6527 : 	}
; 6528 : 	cur = dup;
; 6529 : 	while (*cur != 0) {

	mov	bl, BYTE PTR [eax]
	mov	esi, eax
	test	bl, bl
	je	$LN80@xmlValidat
	npad	3
$LL8@xmlValidat:

; 6530 : 	    str = cur;

	mov	edi, esi

; 6531 : 	    while ((*cur != 0) && (!IS_BLANK_CH(*cur))) cur++;

	test	bl, bl
	je	SHORT $LN83@xmlValidat

; 6476 :     xmlAttrPtr id;
; 6477 :     xmlAttrPtr attr;
; 6478 : 
; 6479 :     if (ref == NULL)
; 6480 : 	return;
; 6481 :     if ((ref->attr == NULL) && (ref->name == NULL))

	mov	al, bl
$LL10@xmlValidat:

; 6531 : 	    while ((*cur != 0) && (!IS_BLANK_CH(*cur))) cur++;

	mov	bl, al
	cmp	al, 32					; 00000020H
	je	SHORT $LN83@xmlValidat
	cmp	al, 9
	jb	SHORT $LN29@xmlValidat
	cmp	al, 10					; 0000000aH
	jbe	SHORT $LN83@xmlValidat
$LN29@xmlValidat:
	mov	bl, al
	cmp	al, 13					; 0000000dH
	je	SHORT $LN83@xmlValidat
	mov	bl, BYTE PTR [esi+1]
	inc	esi
	mov	al, bl
	test	bl, bl
	jne	SHORT $LL10@xmlValidat
$LN83@xmlValidat:

; 6532 : 	    save = *cur;
; 6533 : 	    *cur = 0;
; 6534 : 	    id = xmlGetID(ctxt->doc, str);

	mov	eax, DWORD PTR _ctxt$[ebp]
	mov	BYTE PTR [esi], 0
	push	edi
	push	DWORD PTR [eax+32]
	call	_xmlGetID
	add	esp, 8

; 6535 : 	    if (id == NULL) {

	test	eax, eax
	jne	SHORT $LN30@xmlValidat

; 6536 : 		xmlErrValidNode(ctxt, attr->parent, XML_DTD_UNKNOWN_ID,

	push	eax
	mov	eax, DWORD PTR _attr$1$[ebp]
	push	edi
	mov	edi, DWORD PTR _ctxt$[ebp]
	push	DWORD PTR [eax+8]
	push	OFFSET ??_C@_0DD@JBMPIAIH@IDREFS?5attribute?5?$CFs?5references?5@
	push	536					; 00000218H
	push	DWORD PTR [eax+20]
	push	edi
	call	_xmlErrValidNode
	add	esp, 28					; 0000001cH

; 6537 : 	   "IDREFS attribute %s references an unknown ID \"%s\"\n",
; 6538 : 			     attr->name, str, NULL);
; 6539 : 		ctxt->valid = 0;

	mov	DWORD PTR [edi+36], 0
$LN30@xmlValidat:

; 6540 : 	    }
; 6541 : 	    if (save == 0)

	test	bl, bl
	je	SHORT $LN84@xmlValidat

; 6542 : 		break;
; 6543 : 	    *cur = save;

	mov	BYTE PTR [esi], bl
	npad	6
$LL12@xmlValidat:

; 6544 : 	    while (IS_BLANK_CH(*cur)) cur++;

	cmp	bl, 32					; 00000020H
	je	SHORT $LN32@xmlValidat
	cmp	bl, 9
	jb	SHORT $LN33@xmlValidat
	cmp	bl, 10					; 0000000aH
	jbe	SHORT $LN32@xmlValidat
$LN33@xmlValidat:
	cmp	bl, 13					; 0000000dH
	jne	SHORT $LN13@xmlValidat
$LN32@xmlValidat:
	mov	bl, BYTE PTR [esi+1]
	inc	esi
	jmp	SHORT $LL12@xmlValidat
$LN13@xmlValidat:

; 6526 : 	    return;
; 6527 : 	}
; 6528 : 	cur = dup;
; 6529 : 	while (*cur != 0) {

	test	bl, bl
	jne	$LL8@xmlValidat
$LN84@xmlValidat:
	mov	eax, DWORD PTR _dup$1$[ebp]
$LN80@xmlValidat:

; 6545 : 	}
; 6546 : 	xmlFree(dup);

	push	eax
	call	DWORD PTR _xmlFree
	add	esp, 4
$LN86@xmlValidat:
	pop	esi
$LN85@xmlValidat:
	pop	ebx
$LN27@xmlValidat:
	pop	edi

; 6547 :     }
; 6548 : }

	mov	esp, ebp
	pop	ebp
	ret	0
_xmlValidateRef ENDP
_TEXT	ENDS
; Function compile flags: /Ogtp
; File c:\users\dag\documents\_clients\codeproject authors group\windows on arm\libxml2\libxml2-2.9.9\valid.c
;	COMDAT _xmlValidGetElemDecl
_TEXT	SEGMENT
_prefix$1$ = -4						; size = 4
_ctxt$ = 8						; size = 4
_doc$ = 12						; size = 4
_elem$ = 16						; size = 4
_extsubset$ = 20					; size = 4
_xmlValidGetElemDecl PROC				; COMDAT

; 5691 : 	            xmlNodePtr elem, int *extsubset) {

	push	ebp
	mov	ebp, esp
	push	ecx
	push	esi
	mov	ecx, OFFSET __56F63275_valid@c
	call	@__CheckForDebuggerJustMyCode@4
	cmp	DWORD PTR _ctxt$[ebp], 0
	je	$LN3@xmlValidGe

; 5692 :     xmlElementPtr elemDecl = NULL;
; 5693 :     const xmlChar *prefix = NULL;
; 5694 : 
; 5695 :     if ((ctxt == NULL) || (doc == NULL) ||
; 5696 :         (elem == NULL) || (elem->name == NULL))

	mov	eax, DWORD PTR _doc$[ebp]
	test	eax, eax
	je	$LN3@xmlValidGe
	mov	esi, DWORD PTR _elem$[ebp]
	test	esi, esi
	je	$LN3@xmlValidGe
	cmp	DWORD PTR [esi+8], 0
	je	$LN3@xmlValidGe

; 5698 :     if (extsubset != NULL)

	push	ebx
	push	edi
	mov	edi, DWORD PTR _extsubset$[ebp]
	test	edi, edi
	je	SHORT $LN4@xmlValidGe

; 5699 : 	*extsubset = 0;

	mov	DWORD PTR [edi], 0
$LN4@xmlValidGe:

; 5700 : 
; 5701 :     /*
; 5702 :      * Fetch the declaration for the qualified name
; 5703 :      */
; 5704 :     if ((elem->ns != NULL) && (elem->ns->prefix != NULL))

	mov	ecx, DWORD PTR [esi+36]
	test	ecx, ecx
	je	SHORT $LN15@xmlValidGe
	mov	ecx, DWORD PTR [ecx+12]
	mov	DWORD PTR _prefix$1$[ebp], ecx
	test	ecx, ecx
	je	SHORT $LN15@xmlValidGe

; 5705 : 	prefix = elem->ns->prefix;
; 5706 : 
; 5707 :     if (prefix != NULL) {
; 5708 : 	elemDecl = xmlGetDtdQElementDesc(doc->intSubset,

	push	ecx
	push	DWORD PTR [esi+8]
	push	DWORD PTR [eax+44]
	call	_xmlGetDtdQElementDesc
	mov	ebx, eax
	add	esp, 12					; 0000000cH

; 5709 : 		                         elem->name, prefix);
; 5710 : 	if ((elemDecl == NULL) && (doc->extSubset != NULL)) {

	test	ebx, ebx
	jne	$LN12@xmlValidGe
	mov	eax, DWORD PTR _doc$[ebp]
	mov	ecx, DWORD PTR [eax+48]
	test	ecx, ecx
	je	SHORT $LN15@xmlValidGe

; 5711 : 	    elemDecl = xmlGetDtdQElementDesc(doc->extSubset,

	push	DWORD PTR _prefix$1$[ebp]
	push	DWORD PTR [esi+8]
	push	ecx
	call	_xmlGetDtdQElementDesc
	mov	ebx, eax
	add	esp, 12					; 0000000cH

; 5712 : 		                             elem->name, prefix);
; 5713 : 	    if ((elemDecl != NULL) && (extsubset != NULL))

	test	ebx, ebx
	jne	SHORT $LN17@xmlValidGe
	mov	eax, DWORD PTR _doc$[ebp]
$LN15@xmlValidGe:

; 5714 : 		*extsubset = 1;
; 5715 : 	}
; 5716 :     }
; 5717 : 
; 5718 :     /*
; 5719 :      * Fetch the declaration for the non qualified name
; 5720 :      * This is "non-strict" validation should be done on the
; 5721 :      * full QName but in that case being flexible makes sense.
; 5722 :      */
; 5723 :     if (elemDecl == NULL) {
; 5724 : 	elemDecl = xmlGetDtdElementDesc(doc->intSubset, elem->name);

	push	DWORD PTR [esi+8]
	push	DWORD PTR [eax+44]
	call	_xmlGetDtdElementDesc
	mov	ebx, eax
	add	esp, 8

; 5725 : 	if ((elemDecl == NULL) && (doc->extSubset != NULL)) {

	test	ebx, ebx
	jne	SHORT $LN12@xmlValidGe
	mov	eax, DWORD PTR _doc$[ebp]
	mov	eax, DWORD PTR [eax+48]
	test	eax, eax
	je	SHORT $LN14@xmlValidGe

; 5726 : 	    elemDecl = xmlGetDtdElementDesc(doc->extSubset, elem->name);

	push	DWORD PTR [esi+8]
	push	eax
	call	_xmlGetDtdElementDesc
	mov	ebx, eax
	add	esp, 8

; 5727 : 	    if ((elemDecl != NULL) && (extsubset != NULL))

	test	ebx, ebx
	je	SHORT $LN14@xmlValidGe
$LN17@xmlValidGe:

; 5733 : 			XML_DTD_UNKNOWN_ELEM,
; 5734 : 	       "No declaration for element %s\n",
; 5735 : 	       elem->name, NULL, NULL);
; 5736 :     }
; 5737 :     return(elemDecl);

	test	edi, edi
	je	SHORT $LN12@xmlValidGe
	mov	DWORD PTR [edi], 1
	mov	eax, ebx
	pop	edi
	pop	ebx
	pop	esi

; 5738 : }

	mov	esp, ebp
	pop	ebp
	ret	0
$LN14@xmlValidGe:

; 5728 : 		*extsubset = 1;
; 5729 : 	}
; 5730 :     }
; 5731 :     if (elemDecl == NULL) {
; 5732 : 	xmlErrValidNode(ctxt, elem,

	push	0
	push	0
	push	DWORD PTR [esi+8]
	push	OFFSET ??_C@_0BP@CMBGNCIM@No?5declaration?5for?5element?5?$CFs?6@
	push	534					; 00000216H
	push	esi
	push	DWORD PTR _ctxt$[ebp]
	call	_xmlErrValidNode
	add	esp, 28					; 0000001cH
$LN12@xmlValidGe:

; 5733 : 			XML_DTD_UNKNOWN_ELEM,
; 5734 : 	       "No declaration for element %s\n",
; 5735 : 	       elem->name, NULL, NULL);
; 5736 :     }
; 5737 :     return(elemDecl);

	pop	edi
	mov	eax, ebx
	pop	ebx
	pop	esi

; 5738 : }

	mov	esp, ebp
	pop	ebp
	ret	0
$LN3@xmlValidGe:

; 5697 :         return(NULL);

	xor	eax, eax
	pop	esi

; 5738 : }

	mov	esp, ebp
	pop	ebp
	ret	0
_xmlValidGetElemDecl ENDP
_TEXT	ENDS
; Function compile flags: /Ogtp
; File c:\users\dag\documents\_clients\codeproject authors group\windows on arm\libxml2\libxml2-2.9.9\valid.c
;	COMDAT _xmlValidateCheckMixed
_TEXT	SEGMENT
_plen$ = -4						; size = 4
_ctxt$ = 8						; size = 4
_cont$ = 12						; size = 4
_qname$ = 16						; size = 4
_xmlValidateCheckMixed PROC				; COMDAT

; 5623 : 	              xmlElementContentPtr cont, const xmlChar *qname) {

	push	ebp
	mov	ebp, esp
	push	ecx
	push	ebx
	push	esi
	push	edi
	mov	ecx, OFFSET __56F63275_valid@c
	call	@__CheckForDebuggerJustMyCode@4
	mov	edi, DWORD PTR _qname$[ebp]
	lea	eax, DWORD PTR _plen$[ebp]
	push	eax
	push	edi
	call	_xmlSplitQName3
	mov	esi, DWORD PTR _cont$[ebp]
	add	esp, 8
	mov	ebx, eax
	test	esi, esi
	je	$LN39@xmlValidat

; 5624 :     const xmlChar *name;
; 5625 :     int plen;
; 5626 :     name = xmlSplitQName3(qname, &plen);
; 5627 : 
; 5628 :     if (name == NULL) {

	test	ebx, ebx
	jne	$LL4@xmlValidat
$LL2@xmlValidat:

; 5629 : 	while (cont != NULL) {
; 5630 : 	    if (cont->type == XML_ELEMENT_CONTENT_ELEMENT) {

	mov	eax, DWORD PTR [esi]
	cmp	eax, 2
	jne	SHORT $LN8@xmlValidat

; 5631 : 		if ((cont->prefix == NULL) && (xmlStrEqual(cont->name, qname)))

	cmp	DWORD PTR [esi+24], 0
	jne	SHORT $LN14@xmlValidat
	push	edi
	push	DWORD PTR [esi+8]
$LN65@xmlValidat:

; 5641 : 		(cont->c1->type != XML_ELEMENT_CONTENT_PCDATA)){
; 5642 : 		xmlErrValid(NULL, XML_DTD_MIXED_CORRUPT,
; 5643 : 			"Internal: MIXED struct corrupted\n",
; 5644 : 			NULL);
; 5645 : 		break;
; 5646 : 	    }
; 5647 : 	    cont = cont->c2;

	call	_xmlStrEqual
	add	esp, 8
	test	eax, eax
	je	SHORT $LN14@xmlValidat
$LN47@xmlValidat:
	pop	edi

; 5675 : }

	pop	esi
	mov	eax, 1
	pop	ebx
	mov	esp, ebp
	pop	ebp
	ret	0
$LN8@xmlValidat:

; 5632 : 		    return(1);
; 5633 : 	    } else if ((cont->type == XML_ELEMENT_CONTENT_OR) &&
; 5634 : 	       (cont->c1 != NULL) &&

	cmp	eax, 4
	jne	SHORT $LN45@xmlValidat
	mov	eax, DWORD PTR [esi+12]
	test	eax, eax
	je	SHORT $LN45@xmlValidat
	cmp	DWORD PTR [eax], 2
	jne	SHORT $LN55@xmlValidat

; 5635 : 	       (cont->c1->type == XML_ELEMENT_CONTENT_ELEMENT)){
; 5636 : 		if ((cont->c1->prefix == NULL) &&

	cmp	DWORD PTR [eax+24], 0
	jne	SHORT $LN14@xmlValidat
	push	edi
	push	DWORD PTR [eax+8]
	jmp	SHORT $LN65@xmlValidat
$LN55@xmlValidat:

; 5637 : 		    (xmlStrEqual(cont->c1->name, qname)))
; 5638 : 		    return(1);
; 5639 : 	    } else if ((cont->type != XML_ELEMENT_CONTENT_OR) ||
; 5640 : 		(cont->c1 == NULL) ||

	test	eax, eax
	je	SHORT $LN45@xmlValidat
	cmp	DWORD PTR [eax], 1
	jne	SHORT $LN45@xmlValidat
$LN14@xmlValidat:

; 5641 : 		(cont->c1->type != XML_ELEMENT_CONTENT_PCDATA)){
; 5642 : 		xmlErrValid(NULL, XML_DTD_MIXED_CORRUPT,
; 5643 : 			"Internal: MIXED struct corrupted\n",
; 5644 : 			NULL);
; 5645 : 		break;
; 5646 : 	    }
; 5647 : 	    cont = cont->c2;

	mov	esi, DWORD PTR [esi+16]
	test	esi, esi
	jne	SHORT $LL2@xmlValidat

; 5675 : }

	pop	edi
	pop	esi
	xor	eax, eax
	pop	ebx
	mov	esp, ebp
	pop	ebp
	ret	0
$LN45@xmlValidat:

; 122  :         __xmlRaiseError(NULL, channel, data,

	push	OFFSET ??_C@_0CC@LMJFIFCG@Internal?3?5MIXED?5struct?5corrupte@
	push	OFFSET ??_C@_02DKCKIIND@?$CFs@
	push	0
	push	0
	push	0
	push	0
	push	0
	push	0
	push	0
	push	2
	push	519					; 00000207H
	push	23					; 00000017H
	push	0
	push	0
	push	0
	push	0

; 5672 : 	}
; 5673 :     }
; 5674 :     return(0);

	push	0
	call	___xmlRaiseError
	add	esp, 68					; 00000044H
	xor	eax, eax
	pop	edi

; 5675 : }

	pop	esi
	pop	ebx
	mov	esp, ebp
	pop	ebp
	ret	0
$LL4@xmlValidat:

; 5648 : 	}
; 5649 :     } else {
; 5650 : 	while (cont != NULL) {
; 5651 : 	    if (cont->type == XML_ELEMENT_CONTENT_ELEMENT) {

	mov	eax, DWORD PTR [esi]
	cmp	eax, 2
	jne	SHORT $LN16@xmlValidat

; 5652 : 		if ((cont->prefix != NULL) &&
; 5653 : 		    (xmlStrncmp(cont->prefix, qname, plen) == 0) &&

	mov	eax, DWORD PTR [esi+24]
	test	eax, eax
	je	SHORT $LN22@xmlValidat
	push	DWORD PTR _plen$[ebp]
	push	edi
	push	eax
	call	_xmlStrncmp
	add	esp, 12					; 0000000cH
	test	eax, eax
	jne	SHORT $LN22@xmlValidat
	push	ebx
	push	DWORD PTR [esi+8]

; 5654 : 		    (xmlStrEqual(cont->name, name)))
; 5655 : 		    return(1);
; 5656 : 	    } else if ((cont->type == XML_ELEMENT_CONTENT_OR) &&

	jmp	SHORT $LN68@xmlValidat
$LN16@xmlValidat:

; 5657 : 	       (cont->c1 != NULL) &&

	cmp	eax, 4
	jne	SHORT $LN48@xmlValidat
	mov	eax, DWORD PTR [esi+12]
	test	eax, eax
	je	SHORT $LN48@xmlValidat
	cmp	DWORD PTR [eax], 2
	jne	SHORT $LN56@xmlValidat

; 5658 : 	       (cont->c1->type == XML_ELEMENT_CONTENT_ELEMENT)){
; 5659 : 		if ((cont->c1->prefix != NULL) &&
; 5660 : 		    (xmlStrncmp(cont->c1->prefix, qname, plen) == 0) &&

	mov	eax, DWORD PTR [eax+24]
	test	eax, eax
	je	SHORT $LN22@xmlValidat
	push	DWORD PTR _plen$[ebp]
	push	edi
	push	eax
	call	_xmlStrncmp
	add	esp, 12					; 0000000cH
	test	eax, eax
	jne	SHORT $LN22@xmlValidat
	mov	eax, DWORD PTR [esi+12]
	push	ebx
	push	DWORD PTR [eax+8]
$LN68@xmlValidat:

; 5665 : 		(cont->c1->type != XML_ELEMENT_CONTENT_PCDATA)){
; 5666 : 		xmlErrValid(ctxt, XML_DTD_MIXED_CORRUPT,
; 5667 : 			"Internal: MIXED struct corrupted\n",
; 5668 : 			NULL);
; 5669 : 		break;
; 5670 : 	    }
; 5671 : 	    cont = cont->c2;

	call	_xmlStrEqual
	add	esp, 8
	test	eax, eax
	jne	$LN47@xmlValidat
	jmp	SHORT $LN22@xmlValidat
$LN56@xmlValidat:

; 5661 : 		    (xmlStrEqual(cont->c1->name, name)))
; 5662 : 		    return(1);
; 5663 : 	    } else if ((cont->type != XML_ELEMENT_CONTENT_OR) ||
; 5664 : 		(cont->c1 == NULL) ||

	test	eax, eax
	je	SHORT $LN48@xmlValidat
	cmp	DWORD PTR [eax], 1
	jne	SHORT $LN48@xmlValidat
$LN22@xmlValidat:

; 5665 : 		(cont->c1->type != XML_ELEMENT_CONTENT_PCDATA)){
; 5666 : 		xmlErrValid(ctxt, XML_DTD_MIXED_CORRUPT,
; 5667 : 			"Internal: MIXED struct corrupted\n",
; 5668 : 			NULL);
; 5669 : 		break;
; 5670 : 	    }
; 5671 : 	    cont = cont->c2;

	mov	esi, DWORD PTR [esi+16]
	test	esi, esi
	jne	SHORT $LL4@xmlValidat

; 5675 : }

	pop	edi
	pop	esi
	xor	eax, eax
	pop	ebx
	mov	esp, ebp
	pop	ebp
	ret	0
$LN48@xmlValidat:

; 104  :     if (ctxt != NULL) {

	mov	eax, DWORD PTR _ctxt$[ebp]
	xor	esi, esi
	xor	edx, edx
	xor	ecx, ecx
	test	eax, eax
	je	SHORT $LN37@xmlValidat

; 105  :         channel = ctxt->error;
; 106  :         data = ctxt->userData;
; 107  : 	/* Use the special values to detect if it is part of a parsing
; 108  : 	   context */
; 109  : 	if ((ctxt->finishDtd == XML_CTXT_FINISH_DTD_0) ||

	mov	edi, DWORD PTR [eax+28]
	mov	esi, DWORD PTR [eax+4]
	mov	ecx, DWORD PTR [eax]
	cmp	edi, -1412623820			; abcd1234H
	je	SHORT $LN36@xmlValidat
	cmp	edi, -1412623819			; abcd1235H
	jne	SHORT $LN37@xmlValidat
$LN36@xmlValidat:

; 110  : 	    (ctxt->finishDtd == XML_CTXT_FINISH_DTD_1)) {
; 111  : 	    long delta = (char *) ctxt - (char *) ctxt->userData;

	sub	eax, ecx

; 112  : 	    if ((delta > 0) && (delta < 250))

	dec	eax
	cmp	eax, 248				; 000000f8H
	cmovbe	edx, ecx
$LN37@xmlValidat:

; 113  : 		pctxt = ctxt->userData;
; 114  : 	}
; 115  :     }
; 116  :     if (extra)
; 117  :         __xmlRaiseError(NULL, channel, data,
; 118  :                         pctxt, NULL, XML_FROM_VALID, error,
; 119  :                         XML_ERR_ERROR, NULL, 0, extra, NULL, NULL, 0, 0,
; 120  :                         msg, extra);
; 121  :     else
; 122  :         __xmlRaiseError(NULL, channel, data,

	push	OFFSET ??_C@_0CC@LMJFIFCG@Internal?3?5MIXED?5struct?5corrupte@
	push	OFFSET ??_C@_02DKCKIIND@?$CFs@
	push	0
	push	0
	push	0
	push	0
	push	0
	push	0
	push	0
	push	2
	push	519					; 00000207H
	push	23					; 00000017H
	push	0
	push	edx
	push	ecx
	push	esi

; 5672 : 	}
; 5673 :     }
; 5674 :     return(0);

	push	0
	call	___xmlRaiseError
	add	esp, 68					; 00000044H
$LN39@xmlValidat:

; 5675 : }

	pop	edi
	pop	esi
	xor	eax, eax
	pop	ebx
	mov	esp, ebp
	pop	ebp
	ret	0
_xmlValidateCheckMixed ENDP
_TEXT	ENDS
; Function compile flags: /Ogtp
; File c:\users\dag\documents\_clients\codeproject authors group\windows on arm\libxml2\libxml2-2.9.9\valid.c
;	COMDAT _xmlValidateOneCdataElement
_TEXT	SEGMENT
_ctxt$ = 8						; size = 4
_doc$ = 12						; size = 4
_elem$ = 16						; size = 4
_xmlValidateOneCdataElement PROC			; COMDAT

; 5556 :                            xmlNodePtr elem) {

	push	ebp
	mov	ebp, esp
	push	ebx
	push	esi
	push	edi
	mov	ecx, OFFSET __56F63275_valid@c
	call	@__CheckForDebuggerJustMyCode@4
	mov	esi, DWORD PTR _ctxt$[ebp]
	mov	ebx, 1
	test	esi, esi
	je	$LN9@xmlValidat

; 5557 :     int ret = 1;
; 5558 :     xmlNodePtr cur, child;
; 5559 : 
; 5560 :     if ((ctxt == NULL) || (doc == NULL) || (elem == NULL) ||

	cmp	DWORD PTR _doc$[ebp], 0
	je	$LN9@xmlValidat
	mov	edi, DWORD PTR _elem$[ebp]
	test	edi, edi
	je	$LN9@xmlValidat
	cmp	DWORD PTR [edi+4], ebx
	jne	$LN9@xmlValidat

; 5561 :         (elem->type != XML_ELEMENT_NODE))
; 5562 : 	return(0);
; 5563 : 
; 5564 :     child = elem->children;
; 5565 : 
; 5566 :     cur = child;

	mov	edi, DWORD PTR [edi+12]

; 5567 :     while (cur != NULL) {

	test	edi, edi
	je	SHORT $done$36
$LL2@xmlValidat:

; 5568 : 	switch (cur->type) {

	mov	eax, DWORD PTR [edi+4]
	add	eax, -3					; fffffffdH
	cmp	eax, 5
	ja	SHORT $LN13@xmlValidat
	jmp	DWORD PTR $LN35@xmlValidat[eax*4]
$LN10@xmlValidat:

; 5569 : 	    case XML_ENTITY_REF_NODE:
; 5570 : 		/*
; 5571 : 		 * Push the current node to be able to roll back
; 5572 : 		 * and process within the entity
; 5573 : 		 */
; 5574 : 		if ((cur->children != NULL) &&

	mov	eax, DWORD PTR [edi+12]
	test	eax, eax
	je	SHORT $LN11@xmlValidat
	cmp	DWORD PTR [eax+12], 0
	je	SHORT $LN11@xmlValidat

; 5575 : 		    (cur->children->children != NULL)) {
; 5576 : 		    nodeVPush(ctxt, cur);

	push	edi
	push	esi
	call	_nodeVPush

; 5577 : 		    cur = cur->children->children;

	mov	eax, DWORD PTR [edi+12]
	add	esp, 8
	mov	edi, DWORD PTR [eax+12]
	test	edi, edi
	jne	SHORT $LL2@xmlValidat

; 5567 :     while (cur != NULL) {

	jmp	SHORT $done$36
$LN11@xmlValidat:

; 5588 : 		goto done;
; 5589 : 	}
; 5590 : 	/*
; 5591 : 	 * Switch to next element
; 5592 : 	 */
; 5593 : 	cur = cur->next;

	mov	edi, DWORD PTR [edi+24]

; 5594 : 	while (cur == NULL) {

	test	edi, edi
	jne	SHORT $LL2@xmlValidat
$LL6@xmlValidat:

; 470  :     if (ctxt->nodeNr <= 0)

	mov	ecx, DWORD PTR [esi+16]
	test	ecx, ecx
	jle	SHORT $done$36

; 471  :         return (NULL);
; 472  :     ctxt->nodeNr--;

	dec	ecx
	mov	DWORD PTR [esi+16], ecx

; 473  :     if (ctxt->nodeNr > 0)

	test	ecx, ecx
	jle	SHORT $LN19@xmlValidat

; 474  :         ctxt->node = ctxt->nodeTab[ctxt->nodeNr - 1];

	mov	eax, DWORD PTR [esi+24]
	mov	eax, DWORD PTR [eax+ecx*4-4]
	jmp	SHORT $LN20@xmlValidat
$LN19@xmlValidat:

; 475  :     else
; 476  :         ctxt->node = NULL;

	xor	eax, eax
$LN20@xmlValidat:

; 477  :     ret = ctxt->nodeTab[ctxt->nodeNr];

	mov	DWORD PTR [esi+12], eax
	mov	eax, DWORD PTR [esi+24]
	mov	edi, DWORD PTR [eax+ecx*4]

; 478  :     ctxt->nodeTab[ctxt->nodeNr] = NULL;

	mov	DWORD PTR [eax+ecx*4], 0

; 5595 : 	    cur = nodeVPop(ctxt);
; 5596 : 	    if (cur == NULL)

	test	edi, edi
	je	SHORT $done$36

; 5597 : 		break;
; 5598 : 	    cur = cur->next;

	mov	edi, DWORD PTR [edi+24]
	test	edi, edi
	je	SHORT $LL6@xmlValidat

; 5567 :     while (cur != NULL) {

	jmp	SHORT $LL2@xmlValidat
$LN13@xmlValidat:

; 5578 : 		    continue;
; 5579 : 		}
; 5580 : 		break;
; 5581 : 	    case XML_COMMENT_NODE:
; 5582 : 	    case XML_PI_NODE:
; 5583 : 	    case XML_TEXT_NODE:
; 5584 : 	    case XML_CDATA_SECTION_NODE:
; 5585 : 		break;
; 5586 : 	    default:
; 5587 : 		ret = 0;

	xor	ebx, ebx
$done$36:

; 5599 : 	}
; 5600 :     }
; 5601 : done:
; 5602 :     ctxt->nodeMax = 0;
; 5603 :     ctxt->nodeNr = 0;
; 5604 :     if (ctxt->nodeTab != NULL) {

	mov	ecx, DWORD PTR [esi+24]
	mov	DWORD PTR [esi+20], 0
	mov	DWORD PTR [esi+16], 0
	test	ecx, ecx
	je	SHORT $LN15@xmlValidat

; 5605 : 	xmlFree(ctxt->nodeTab);

	push	ecx
	call	DWORD PTR _xmlFree
	add	esp, 4

; 5606 : 	ctxt->nodeTab = NULL;

	mov	DWORD PTR [esi+24], 0
$LN15@xmlValidat:

; 5607 :     }
; 5608 :     return(ret);
; 5609 : }

	pop	edi
	pop	esi
	mov	eax, ebx
	pop	ebx
	pop	ebp
	ret	0
$LN9@xmlValidat:
	pop	edi
	pop	esi
	xor	eax, eax
	pop	ebx
	pop	ebp
	ret	0
	npad	2
$LN35@xmlValidat:
	DD	$LN11@xmlValidat
	DD	$LN11@xmlValidat
	DD	$LN10@xmlValidat
	DD	$LN13@xmlValidat
	DD	$LN11@xmlValidat
	DD	$LN11@xmlValidat
_xmlValidateOneCdataElement ENDP
_TEXT	ENDS
; Function compile flags: /Ogtp
; File c:\users\dag\documents\_clients\codeproject authors group\windows on arm\libxml2\libxml2-2.9.9\valid.c
;	COMDAT _xmlValidateElementContent
_TEXT	SEGMENT
_expr$1 = -10060					; size = 5000
_list$2 = -5060						; size = 5000
_fn$3 = -60						; size = 50
_name$1$ = -8						; size = 4
_cont$1$ = -4						; size = 4
_ctxt$ = 8						; size = 4
_child$ = 12						; size = 4
_exec$1$ = 16						; size = 4
_elemDecl$ = 16						; size = 4
_warn$ = 20						; size = 4
_parent$ = 24						; size = 4
_xmlValidateElementContent PROC				; COMDAT

; 5270 :        xmlElementPtr elemDecl, int warn, xmlNodePtr parent) {

	push	ebp
	mov	ebp, esp
	mov	eax, 10060				; 0000274cH
	call	__chkstk
	push	ebx
	push	esi
	push	edi
	mov	ecx, OFFSET __56F63275_valid@c
	call	@__CheckForDebuggerJustMyCode@4
	mov	ebx, DWORD PTR _elemDecl$[ebp]
	mov	edi, 1
	test	ebx, ebx
	je	$LN9@xmlValidat

; 5271 :     int ret = 1;
; 5272 : #ifndef  LIBXML_REGEXP_ENABLED
; 5273 :     xmlNodePtr repl = NULL, last = NULL, tmp;
; 5274 : #endif
; 5275 :     xmlNodePtr cur;
; 5276 :     xmlElementContentPtr cont;
; 5277 :     const xmlChar *name;
; 5278 : 
; 5279 :     if ((elemDecl == NULL) || (parent == NULL) || (ctxt == NULL))

	cmp	DWORD PTR _parent$[ebp], 0
	je	$LN9@xmlValidat
	mov	esi, DWORD PTR _ctxt$[ebp]
	test	esi, esi
	je	$LN9@xmlValidat

; 5280 : 	return(-1);
; 5281 :     cont = elemDecl->content;

	mov	eax, DWORD PTR [ebx+40]
	mov	DWORD PTR _cont$1$[ebp], eax

; 5282 :     name = elemDecl->name;

	mov	eax, DWORD PTR [ebx+8]
	mov	DWORD PTR _name$1$[ebp], eax

; 5283 : 
; 5284 : #ifdef LIBXML_REGEXP_ENABLED
; 5285 :     /* Build the regexp associated to the content model */
; 5286 :     if (elemDecl->contModel == NULL)

	mov	eax, DWORD PTR [ebx+52]
	test	eax, eax
	jne	SHORT $LN59@xmlValidat

; 5287 : 	ret = xmlValidBuildContentModel(ctxt, elemDecl);

	push	ebx
	push	esi
	call	_xmlValidBuildContentModel
	mov	edi, eax
	add	esp, 8
	mov	eax, DWORD PTR [ebx+52]

; 5288 :     if (elemDecl->contModel == NULL) {

	test	eax, eax
	je	$LN9@xmlValidat
$LN59@xmlValidat:

; 5289 : 	return(-1);
; 5290 :     } else {
; 5291 : 	xmlRegExecCtxtPtr exec;
; 5292 : 
; 5293 : 	if (!xmlRegexpIsDeterminist(elemDecl->contModel)) {

	push	eax
	call	_xmlRegexpIsDeterminist
	add	esp, 4
	test	eax, eax
	je	$LN9@xmlValidat

; 5294 : 	    return(-1);
; 5295 : 	}
; 5296 : 	ctxt->nodeMax = 0;
; 5297 : 	ctxt->nodeNr = 0;
; 5298 : 	ctxt->nodeTab = NULL;
; 5299 : 	exec = xmlRegNewExecCtxt(elemDecl->contModel, NULL, NULL);

	push	0
	mov	DWORD PTR [esi+20], 0
	mov	DWORD PTR [esi+16], 0
	mov	DWORD PTR [esi+24], 0
	push	0
	push	DWORD PTR [ebx+52]
	call	_xmlRegNewExecCtxt
	mov	ebx, eax
	add	esp, 12					; 0000000cH

; 5300 : 	if (exec != NULL) {

	mov	eax, DWORD PTR _child$[ebp]
	mov	DWORD PTR _exec$1$[ebp], ebx
	test	ebx, ebx
	je	SHORT $LN14@xmlValidat

; 5301 : 	    cur = child;

	mov	edi, eax

; 5302 : 	    while (cur != NULL) {

	test	eax, eax
	je	SHORT $LN3@xmlValidat
$LL2@xmlValidat:

; 5303 : 		switch (cur->type) {

	mov	eax, DWORD PTR [edi+4]
	dec	eax
	cmp	eax, 4
	ja	$LN22@xmlValidat
	jmp	DWORD PTR $LN61@xmlValidat[eax*4]
$LN15@xmlValidat:

; 5304 : 		    case XML_ENTITY_REF_NODE:
; 5305 : 			/*
; 5306 : 			 * Push the current node to be able to roll back
; 5307 : 			 * and process within the entity
; 5308 : 			 */
; 5309 : 			if ((cur->children != NULL) &&

	mov	eax, DWORD PTR [edi+12]
	test	eax, eax
	je	$LN22@xmlValidat
	cmp	DWORD PTR [eax+12], 0
	je	$LN22@xmlValidat

; 5310 : 			    (cur->children->children != NULL)) {
; 5311 : 			    nodeVPush(ctxt, cur);

	push	edi
	push	esi
	call	_nodeVPush

; 5312 : 			    cur = cur->children->children;

	mov	eax, DWORD PTR [edi+12]
	add	esp, 8
	mov	edi, DWORD PTR [eax+12]
	test	edi, edi
	jne	SHORT $LL2@xmlValidat
$LN3@xmlValidat:

; 5355 : 		}
; 5356 : 	    }
; 5357 : 	    ret = xmlRegExecPushString(exec, NULL, NULL);

	push	0
	push	0
	push	ebx
	call	_xmlRegExecPushString
	add	esp, 12					; 0000000cH
	mov	edi, eax
$fail$62:

; 5358 : fail:
; 5359 : 	    xmlRegFreeExecCtxt(exec);

	push	ebx
	call	_xmlRegFreeExecCtxt
	add	esp, 4
$LN14@xmlValidat:

; 5360 : 	}
; 5361 :     }
; 5362 : #else  /* LIBXML_REGEXP_ENABLED */
; 5363 :     /*
; 5364 :      * Allocate the stack
; 5365 :      */
; 5366 :     ctxt->vstateMax = 8;
; 5367 :     ctxt->vstateTab = (xmlValidState *) xmlMalloc(
; 5368 : 		 ctxt->vstateMax * sizeof(ctxt->vstateTab[0]));
; 5369 :     if (ctxt->vstateTab == NULL) {
; 5370 : 	xmlVErrMemory(ctxt, "malloc failed");
; 5371 : 	return(-1);
; 5372 :     }
; 5373 :     /*
; 5374 :      * The first entry in the stack is reserved to the current state
; 5375 :      */
; 5376 :     ctxt->nodeMax = 0;
; 5377 :     ctxt->nodeNr = 0;
; 5378 :     ctxt->nodeTab = NULL;
; 5379 :     ctxt->vstate = &ctxt->vstateTab[0];
; 5380 :     ctxt->vstateNr = 1;
; 5381 :     CONT = cont;
; 5382 :     NODE = child;
; 5383 :     DEPTH = 0;
; 5384 :     OCCURS = 0;
; 5385 :     STATE = 0;
; 5386 :     ret = xmlValidateElementType(ctxt);
; 5387 :     if ((ret == -3) && (warn)) {
; 5388 : 	xmlErrValidWarning(ctxt, child, XML_DTD_CONTENT_NOT_DETERMINIST,
; 5389 : 	       "Content model for Element %s is ambiguous\n",
; 5390 : 	                   name, NULL, NULL);
; 5391 :     } else if (ret == -2) {
; 5392 : 	/*
; 5393 : 	 * An entities reference appeared at this level.
; 5394 : 	 * Buid a minimal representation of this node content
; 5395 : 	 * sufficient to run the validation process on it
; 5396 : 	 */
; 5397 : 	DEBUG_VALID_MSG("Found an entity reference, linearizing");
; 5398 : 	cur = child;
; 5399 : 	while (cur != NULL) {
; 5400 : 	    switch (cur->type) {
; 5401 : 		case XML_ENTITY_REF_NODE:
; 5402 : 		    /*
; 5403 : 		     * Push the current node to be able to roll back
; 5404 : 		     * and process within the entity
; 5405 : 		     */
; 5406 : 		    if ((cur->children != NULL) &&
; 5407 : 			(cur->children->children != NULL)) {
; 5408 : 			nodeVPush(ctxt, cur);
; 5409 : 			cur = cur->children->children;
; 5410 : 			continue;
; 5411 : 		    }
; 5412 : 		    break;
; 5413 : 		case XML_TEXT_NODE:
; 5414 : 		    if (xmlIsBlankNode(cur))
; 5415 : 			break;
; 5416 : 		    /* no break on purpose */
; 5417 : 		case XML_CDATA_SECTION_NODE:
; 5418 : 		    /* no break on purpose */
; 5419 : 		case XML_ELEMENT_NODE:
; 5420 : 		    /*
; 5421 : 		     * Allocate a new node and minimally fills in
; 5422 : 		     * what's required
; 5423 : 		     */
; 5424 : 		    tmp = (xmlNodePtr) xmlMalloc(sizeof(xmlNode));
; 5425 : 		    if (tmp == NULL) {
; 5426 : 			xmlVErrMemory(ctxt, "malloc failed");
; 5427 : 			xmlFreeNodeList(repl);
; 5428 : 			ret = -1;
; 5429 : 			goto done;
; 5430 : 		    }
; 5431 : 		    tmp->type = cur->type;
; 5432 : 		    tmp->name = cur->name;
; 5433 : 		    tmp->ns = cur->ns;
; 5434 : 		    tmp->next = NULL;
; 5435 : 		    tmp->content = NULL;
; 5436 : 		    if (repl == NULL)
; 5437 : 			repl = last = tmp;
; 5438 : 		    else {
; 5439 : 			last->next = tmp;
; 5440 : 			last = tmp;
; 5441 : 		    }
; 5442 : 		    if (cur->type == XML_CDATA_SECTION_NODE) {
; 5443 : 			/*
; 5444 : 			 * E59 spaces in CDATA does not match the
; 5445 : 			 * nonterminal S
; 5446 : 			 */
; 5447 : 			tmp->content = xmlStrdup(BAD_CAST "CDATA");
; 5448 : 		    }
; 5449 : 		    break;
; 5450 : 		default:
; 5451 : 		    break;
; 5452 : 	    }
; 5453 : 	    /*
; 5454 : 	     * Switch to next element
; 5455 : 	     */
; 5456 : 	    cur = cur->next;
; 5457 : 	    while (cur == NULL) {
; 5458 : 		cur = nodeVPop(ctxt);
; 5459 : 		if (cur == NULL)
; 5460 : 		    break;
; 5461 : 		cur = cur->next;
; 5462 : 	    }
; 5463 : 	}
; 5464 : 
; 5465 : 	/*
; 5466 : 	 * Relaunch the validation
; 5467 : 	 */
; 5468 : 	ctxt->vstate = &ctxt->vstateTab[0];
; 5469 : 	ctxt->vstateNr = 1;
; 5470 : 	CONT = cont;
; 5471 : 	NODE = repl;
; 5472 : 	DEPTH = 0;
; 5473 : 	OCCURS = 0;
; 5474 : 	STATE = 0;
; 5475 : 	ret = xmlValidateElementType(ctxt);
; 5476 :     }
; 5477 : #endif /* LIBXML_REGEXP_ENABLED */
; 5478 :     if ((warn) && ((ret != 1) && (ret != -3))) {

	cmp	DWORD PTR _warn$[ebp], 0
	je	$LN27@xmlValidat
	cmp	edi, 1
	je	$LN27@xmlValidat
	cmp	edi, -3					; fffffffdH
	je	$LN52@xmlValidat

; 5479 : 	if (ctxt != NULL) {
; 5480 : 	    char expr[5000];
; 5481 : 	    char list[5000];
; 5482 : 
; 5483 : 	    expr[0] = 0;
; 5484 : 	    xmlSnprintfElementContent(&expr[0], 5000, cont, 1);

	push	1
	push	DWORD PTR _cont$1$[ebp]
	lea	eax, DWORD PTR _expr$1[ebp]
	mov	BYTE PTR _expr$1[ebp], 0
	push	5000					; 00001388H
	push	eax
	call	_xmlSnprintfElementContent

; 5485 : 	    list[0] = 0;
; 5486 : #ifndef LIBXML_REGEXP_ENABLED
; 5487 : 	    if (repl != NULL)
; 5488 : 		xmlSnprintfElements(&list[0], 5000, repl, 1);
; 5489 : 	    else
; 5490 : #endif /* LIBXML_REGEXP_ENABLED */
; 5491 : 		xmlSnprintfElements(&list[0], 5000, child, 1);

	push	1
	push	DWORD PTR _child$[ebp]
	lea	eax, DWORD PTR _list$2[ebp]
	mov	BYTE PTR _list$2[ebp], 0
	push	5000					; 00001388H
	push	eax
	call	_xmlSnprintfElements

; 5492 : 
; 5493 : 	    if (name != NULL) {

	mov	edx, DWORD PTR _name$1$[ebp]
	lea	ecx, DWORD PTR _expr$1[ebp]
	test	edx, edx

; 5494 : 		xmlErrValidNode(ctxt, parent, XML_DTD_CONTENT_MODEL,
; 5495 : 	   "Element %s content does not follow the DTD, expecting %s, got %s\n",
; 5496 : 		       name, BAD_CAST expr, BAD_CAST list);
; 5497 : 	    } else {
; 5498 : 		xmlErrValidNode(ctxt, parent, XML_DTD_CONTENT_MODEL,
; 5499 : 	   "Element content does not follow the DTD, expecting %s, got %s\n",
; 5500 : 		       BAD_CAST expr, BAD_CAST list, NULL);
; 5501 : 	    }
; 5502 : 	} else {

	lea	eax, DWORD PTR _list$2[ebp]
	cmovne	ecx, edx
	xor	edi, edi
	test	edx, edx
	cmove	eax, edi
	lea	edi, DWORD PTR _expr$1[ebp]
	push	eax
	lea	eax, DWORD PTR _list$2[ebp]
	cmovne	eax, edi
	push	eax
	push	ecx
	mov	ecx, OFFSET ??_C@_0EC@IAKGOMPC@Element?5?$CFs?5content?5does?5not?5fol@
	mov	eax, OFFSET ??_C@_0DP@CBELDNAH@Element?5content?5does?5not?5follow@
	cmovne	eax, ecx
	push	eax
	push	504					; 000001f8H
	push	DWORD PTR _parent$[ebp]
	push	esi
	call	_xmlErrValidNode
	add	esp, 60					; 0000003cH

; 5503 : 	    if (name != NULL) {
; 5504 : 		xmlErrValidNode(ctxt, parent, XML_DTD_CONTENT_MODEL,
; 5505 : 		       "Element %s content does not follow the DTD\n",
; 5506 : 		       name, NULL, NULL);
; 5507 : 	    } else {
; 5508 : 		xmlErrValidNode(ctxt, parent, XML_DTD_CONTENT_MODEL,
; 5509 : 		       "Element content does not follow the DTD\n",
; 5510 : 		                NULL, NULL, NULL);
; 5511 : 	    }
; 5512 : 	}
; 5513 : 	ret = 0;

	xor	edi, edi

; 5514 :     }
; 5515 :     if (ret == -3)

	jmp	$LN34@xmlValidat
$LN17@xmlValidat:

; 5313 : 			    continue;
; 5314 : 			}
; 5315 : 			break;
; 5316 : 		    case XML_TEXT_NODE:
; 5317 : 			if (xmlIsBlankNode(cur))

	push	edi
	call	_xmlIsBlankNode
	add	esp, 4
	test	eax, eax
	jne	SHORT $LN22@xmlValidat
$LN18@xmlValidat:

; 5358 : fail:
; 5359 : 	    xmlRegFreeExecCtxt(exec);

	xor	edi, edi
	jmp	$fail$62
$LN20@xmlValidat:

; 5318 : 			    break;
; 5319 : 			ret = 0;
; 5320 : 			goto fail;
; 5321 : 		    case XML_CDATA_SECTION_NODE:
; 5322 : 			/* TODO */
; 5323 : 			ret = 0;
; 5324 : 			goto fail;
; 5325 : 		    case XML_ELEMENT_NODE:
; 5326 : 			if ((cur->ns != NULL) && (cur->ns->prefix != NULL)) {

	mov	eax, DWORD PTR [edi+36]
	test	eax, eax
	je	SHORT $LN21@xmlValidat
	mov	eax, DWORD PTR [eax+12]
	test	eax, eax
	je	SHORT $LN21@xmlValidat

; 5327 : 			    xmlChar fn[50];
; 5328 : 			    xmlChar *fullname;
; 5329 : 
; 5330 : 			    fullname = xmlBuildQName(cur->name,

	push	50					; 00000032H
	lea	ecx, DWORD PTR _fn$3[ebp]
	push	ecx
	push	eax
	push	DWORD PTR [edi+8]
	call	_xmlBuildQName
	mov	ebx, eax
	add	esp, 16					; 00000010H

; 5331 : 				                     cur->ns->prefix, fn, 50);
; 5332 : 			    if (fullname == NULL) {

	test	ebx, ebx
	je	$LN46@xmlValidat

; 5335 : 			    }
; 5336 :                             ret = xmlRegExecPushString(exec, fullname, NULL);

	push	0
	push	ebx
	push	DWORD PTR _exec$1$[ebp]
	call	_xmlRegExecPushString

; 5337 : 			    if ((fullname != fn) && (fullname != cur->name))

	lea	eax, DWORD PTR _fn$3[ebp]
	add	esp, 12					; 0000000cH
	cmp	ebx, eax
	je	SHORT $LN57@xmlValidat
	cmp	ebx, DWORD PTR [edi+8]
	je	SHORT $LN57@xmlValidat

; 5338 : 				xmlFree(fullname);

	push	ebx
	call	DWORD PTR _xmlFree
	add	esp, 4
$LN57@xmlValidat:

; 5341 : 			}
; 5342 : 			break;
; 5343 : 		    default:
; 5344 : 			break;
; 5345 : 		}
; 5346 : 		/*
; 5347 : 		 * Switch to next element
; 5348 : 		 */
; 5349 : 		cur = cur->next;

	mov	ebx, DWORD PTR _exec$1$[ebp]
$LN22@xmlValidat:
	mov	edi, DWORD PTR [edi+24]

; 5350 : 		while (cur == NULL) {

	test	edi, edi
	jne	$LL2@xmlValidat
	npad	2
$LL6@xmlValidat:

; 470  :     if (ctxt->nodeNr <= 0)

	mov	ecx, DWORD PTR [esi+16]
	test	ecx, ecx
	jle	$LN3@xmlValidat

; 471  :         return (NULL);
; 472  :     ctxt->nodeNr--;

	dec	ecx
	mov	DWORD PTR [esi+16], ecx

; 473  :     if (ctxt->nodeNr > 0)

	test	ecx, ecx
	jle	SHORT $LN39@xmlValidat

; 474  :         ctxt->node = ctxt->nodeTab[ctxt->nodeNr - 1];

	mov	eax, DWORD PTR [esi+24]
	mov	eax, DWORD PTR [eax+ecx*4-4]
	jmp	SHORT $LN40@xmlValidat
$LN21@xmlValidat:

; 5339 : 			} else {
; 5340 : 			    ret = xmlRegExecPushString(exec, cur->name, NULL);

	push	0
	push	DWORD PTR [edi+8]
	push	ebx
	call	_xmlRegExecPushString
	add	esp, 12					; 0000000cH
	jmp	SHORT $LN22@xmlValidat
$LN39@xmlValidat:

; 476  :         ctxt->node = NULL;

	xor	eax, eax
$LN40@xmlValidat:

; 477  :     ret = ctxt->nodeTab[ctxt->nodeNr];

	mov	DWORD PTR [esi+12], eax
	mov	eax, DWORD PTR [esi+24]
	mov	edi, DWORD PTR [eax+ecx*4]

; 478  :     ctxt->nodeTab[ctxt->nodeNr] = NULL;

	mov	DWORD PTR [eax+ecx*4], 0

; 5351 : 		    cur = nodeVPop(ctxt);
; 5352 : 		    if (cur == NULL)

	test	edi, edi
	je	$LN3@xmlValidat

; 5353 : 			break;
; 5354 : 		    cur = cur->next;

	mov	edi, DWORD PTR [edi+24]
	test	edi, edi
	je	SHORT $LL6@xmlValidat

; 5302 : 	    while (cur != NULL) {

	jmp	$LL2@xmlValidat
$LN46@xmlValidat:

; 5333 : 				ret = -1;
; 5334 : 				goto fail;

	mov	ebx, DWORD PTR _exec$1$[ebp]
	or	edi, -1
	jmp	$fail$62
$LN27@xmlValidat:

; 5514 :     }
; 5515 :     if (ret == -3)

	cmp	edi, -3					; fffffffdH
	jne	SHORT $LN34@xmlValidat
$LN52@xmlValidat:

; 5516 : 	ret = 1;

	mov	edi, 1
$LN34@xmlValidat:

; 5517 : 
; 5518 : #ifndef  LIBXML_REGEXP_ENABLED
; 5519 : done:
; 5520 :     /*
; 5521 :      * Deallocate the copy if done, and free up the validation stack
; 5522 :      */
; 5523 :     while (repl != NULL) {
; 5524 : 	tmp = repl->next;
; 5525 : 	xmlFree(repl);
; 5526 : 	repl = tmp;
; 5527 :     }
; 5528 :     ctxt->vstateMax = 0;
; 5529 :     if (ctxt->vstateTab != NULL) {
; 5530 : 	xmlFree(ctxt->vstateTab);
; 5531 : 	ctxt->vstateTab = NULL;
; 5532 :     }
; 5533 : #endif
; 5534 :     ctxt->nodeMax = 0;
; 5535 :     ctxt->nodeNr = 0;
; 5536 :     if (ctxt->nodeTab != NULL) {

	mov	eax, DWORD PTR [esi+24]
	mov	DWORD PTR [esi+20], 0
	mov	DWORD PTR [esi+16], 0
	test	eax, eax
	je	SHORT $LN35@xmlValidat

; 5537 : 	xmlFree(ctxt->nodeTab);

	push	eax
	call	DWORD PTR _xmlFree
	add	esp, 4

; 5538 : 	ctxt->nodeTab = NULL;

	mov	DWORD PTR [esi+24], 0
$LN35@xmlValidat:

; 5539 :     }
; 5540 :     return(ret);

	mov	eax, edi
	pop	edi

; 5541 : 
; 5542 : }

	pop	esi
	pop	ebx
	mov	esp, ebp
	pop	ebp
	ret	0
$LN9@xmlValidat:
	pop	edi
	pop	esi
	or	eax, -1
	pop	ebx
	mov	esp, ebp
	pop	ebp
	ret	0
$LN61@xmlValidat:
	DD	$LN20@xmlValidat
	DD	$LN22@xmlValidat
	DD	$LN17@xmlValidat
	DD	$LN18@xmlValidat
	DD	$LN15@xmlValidat
_xmlValidateElementContent ENDP
_TEXT	ENDS
; Function compile flags: /Ogtp
; File c:\users\dag\documents\_clients\codeproject authors group\windows on arm\libxml2\libxml2-2.9.9\valid.c
;	COMDAT _xmlSnprintfElements
_TEXT	SEGMENT
tv447 = -8						; size = 4
_len$1$ = -4						; size = 4
_buf$ = 8						; size = 4
_size$ = 12						; size = 4
_node$ = 16						; size = 4
_glob$ = 20						; size = 4
_xmlSnprintfElements PROC				; COMDAT

; 5181 : xmlSnprintfElements(char *buf, int size, xmlNodePtr node, int glob) {

	push	ebp
	mov	ebp, esp
	sub	esp, 8
	mov	ecx, OFFSET __56F63275_valid@c
	call	@__CheckForDebuggerJustMyCode@4
	mov	edx, DWORD PTR _node$[ebp]
	test	edx, edx
	je	$LN24@xmlSnprint

; 5182 :     xmlNodePtr cur;
; 5183 :     int len;
; 5184 : 
; 5185 :     if (node == NULL) return;
; 5186 :     if (glob) strcat(buf, "(");

	cmp	DWORD PTR _glob$[ebp], 0
	push	ebx
	mov	ebx, DWORD PTR _buf$[ebp]
	push	edi
	je	SHORT $LN52@xmlSnprint
	lea	edi, DWORD PTR [ebx-1]
	npad	7
$LL34@xmlSnprint:
	mov	al, BYTE PTR [edi+1]
	lea	edi, DWORD PTR [edi+1]
	test	al, al
	jne	SHORT $LL34@xmlSnprint
	mov	ax, WORD PTR ??_C@_01ODHLEDKK@?$CI@
	mov	WORD PTR [edi], ax
$LN52@xmlSnprint:
	push	esi
$LL2@xmlSnprint:

; 5187 :     cur = node;
; 5188 :     while (cur != NULL) {
; 5189 : 	len = strlen(buf);

	mov	esi, ebx
	lea	ecx, DWORD PTR [esi+1]
	npad	7
$LL35@xmlSnprint:
	mov	al, BYTE PTR [esi]
	inc	esi
	test	al, al
	jne	SHORT $LL35@xmlSnprint

; 5190 : 	if (size - len < 50) {

	mov	edi, DWORD PTR _size$[ebp]
	sub	esi, ecx
	sub	edi, esi
	mov	DWORD PTR _len$1$[ebp], esi
	mov	DWORD PTR tv447[ebp], edi
	cmp	edi, 50					; 00000032H
	jl	$LN27@xmlSnprint

; 5193 : 	    return;
; 5194 : 	}
; 5195 :         switch (cur->type) {

	mov	eax, DWORD PTR [edx+4]
	dec	eax
	cmp	eax, 20					; 00000014H
	ja	$LN22@xmlSnprint
	movzx	eax, BYTE PTR $LN36@xmlSnprint[eax]
	jmp	DWORD PTR $LN74@xmlSnprint[eax*4]
$LN10@xmlSnprint:

; 5196 :             case XML_ELEMENT_NODE:
; 5197 : 		if ((cur->ns != NULL) && (cur->ns->prefix != NULL)) {

	mov	eax, DWORD PTR [edx+36]
	test	eax, eax
	je	SHORT $LN11@xmlSnprint
	mov	eax, DWORD PTR [eax+12]
	test	eax, eax
	je	SHORT $LN11@xmlSnprint

; 5198 : 		    if (size - len < xmlStrlen(cur->ns->prefix) + 10) {

	push	eax
	call	_xmlStrlen
	add	eax, 10					; 0000000aH
	add	esp, 4
	cmp	edi, eax
	jl	$LN28@xmlSnprint

; 5202 : 		    }
; 5203 : 		    strcat(buf, (char *) cur->ns->prefix);

	mov	edx, DWORD PTR _node$[ebp]
	mov	eax, DWORD PTR [edx+36]
	mov	edx, DWORD PTR [eax+12]
	mov	esi, edx
$LL37@xmlSnprint:
	mov	al, BYTE PTR [edx]
	inc	edx
	test	al, al
	jne	SHORT $LL37@xmlSnprint
	sub	edx, esi
	lea	edi, DWORD PTR [ebx-1]
$LL38@xmlSnprint:
	mov	al, BYTE PTR [edi+1]
	inc	edi
	test	al, al
	jne	SHORT $LL38@xmlSnprint
	mov	ecx, edx
	shr	ecx, 2
	rep movsd
	mov	ecx, edx
	and	ecx, 3
	rep movsb

; 5204 : 		    strcat(buf, ":");

	lea	edi, DWORD PTR [ebx-1]
	npad	6
$LL39@xmlSnprint:
	mov	al, BYTE PTR [edi+1]
	lea	edi, DWORD PTR [edi+1]
	test	al, al
	jne	SHORT $LL39@xmlSnprint
	mov	ax, WORD PTR ??_C@_01JLIPDDHJ@?3@
	mov	esi, DWORD PTR _len$1$[ebp]
	mov	edx, DWORD PTR _node$[ebp]
	mov	WORD PTR [edi], ax
	mov	edi, DWORD PTR tv447[ebp]
$LN11@xmlSnprint:

; 5205 : 		}
; 5206 :                 if (size - len < xmlStrlen(cur->name) + 10) {

	push	DWORD PTR [edx+8]
	call	_xmlStrlen
	add	eax, 10					; 0000000aH
	add	esp, 4
	cmp	edi, eax
	jl	$LN29@xmlSnprint

; 5210 : 		}
; 5211 : 	        strcat(buf, (char *) cur->name);

	mov	edx, DWORD PTR _node$[ebp]
	mov	edx, DWORD PTR [edx+8]
	mov	esi, edx
	npad	6
$LL40@xmlSnprint:
	mov	al, BYTE PTR [edx]
	inc	edx
	test	al, al
	jne	SHORT $LL40@xmlSnprint
	sub	edx, esi
	lea	edi, DWORD PTR [ebx-1]
	npad	4
$LL41@xmlSnprint:
	mov	al, BYTE PTR [edi+1]
	inc	edi
	test	al, al
	jne	SHORT $LL41@xmlSnprint
	mov	ecx, edx
	shr	ecx, 2
	rep movsd
	mov	ecx, edx

; 5212 : 		if (cur->next != NULL)

	mov	edx, DWORD PTR _node$[ebp]
	and	ecx, 3
	rep movsb
	cmp	DWORD PTR [edx+24], 0
	je	$LN22@xmlSnprint

; 5213 : 		    strcat(buf, " ");

	lea	edi, DWORD PTR [ebx-1]
$LL42@xmlSnprint:
	mov	al, BYTE PTR [edi+1]
	lea	edi, DWORD PTR [edi+1]
	test	al, al
	jne	SHORT $LL42@xmlSnprint

; 5214 : 		break;

	jmp	SHORT $LN72@xmlSnprint
$LN17@xmlSnprint:

; 5215 :             case XML_TEXT_NODE:
; 5216 : 		if (xmlIsBlankNode(cur))

	push	edx
	call	_xmlIsBlankNode
	mov	edx, DWORD PTR _node$[ebp]
	add	esp, 4
	test	eax, eax
	jne	SHORT $LN22@xmlSnprint
$LN18@xmlSnprint:

; 5217 : 		    break;
; 5218 :                 /* Falls through. */
; 5219 :             case XML_CDATA_SECTION_NODE:
; 5220 :             case XML_ENTITY_REF_NODE:
; 5221 : 	        strcat(buf, "CDATA");

	lea	ecx, DWORD PTR [ebx-1]
$LL43@xmlSnprint:
	mov	al, BYTE PTR [ecx+1]
	lea	ecx, DWORD PTR [ecx+1]
	test	al, al
	jne	SHORT $LL43@xmlSnprint
	mov	eax, DWORD PTR ??_C@_05MLPNBPGH@CDATA@
	mov	DWORD PTR [ecx], eax
	mov	ax, WORD PTR ??_C@_05MLPNBPGH@CDATA@+4
	mov	WORD PTR [ecx+4], ax

; 5222 : 		if (cur->next != NULL)

	cmp	DWORD PTR [edx+24], 0
	je	SHORT $LN22@xmlSnprint

; 5223 : 		    strcat(buf, " ");

	lea	edi, DWORD PTR [ebx-1]
	npad	7
$LL44@xmlSnprint:
	mov	al, BYTE PTR [edi+1]
	lea	edi, DWORD PTR [edi+1]
	test	al, al
	jne	SHORT $LL44@xmlSnprint

; 5224 : 		break;

	jmp	SHORT $LN72@xmlSnprint
$LN21@xmlSnprint:

; 5225 :             case XML_ATTRIBUTE_NODE:
; 5226 :             case XML_DOCUMENT_NODE:
; 5227 : #ifdef LIBXML_DOCB_ENABLED
; 5228 : 	    case XML_DOCB_DOCUMENT_NODE:
; 5229 : #endif
; 5230 : 	    case XML_HTML_DOCUMENT_NODE:
; 5231 :             case XML_DOCUMENT_TYPE_NODE:
; 5232 :             case XML_DOCUMENT_FRAG_NODE:
; 5233 :             case XML_NOTATION_NODE:
; 5234 : 	    case XML_NAMESPACE_DECL:
; 5235 : 	        strcat(buf, "???");

	lea	edi, DWORD PTR [ebx-1]
	npad	1
$LL45@xmlSnprint:
	mov	al, BYTE PTR [edi+1]
	lea	edi, DWORD PTR [edi+1]
	test	al, al
	jne	SHORT $LL45@xmlSnprint
	mov	eax, DWORD PTR ??_C@_03BBKEAIF@?$DP?$DP?$DP@
	mov	DWORD PTR [edi], eax

; 5236 : 		if (cur->next != NULL)

	cmp	DWORD PTR [edx+24], 0
	je	SHORT $LN22@xmlSnprint

; 5237 : 		    strcat(buf, " ");

	lea	edi, DWORD PTR [ebx-1]
	npad	6
$LL46@xmlSnprint:
	mov	al, BYTE PTR [edi+1]
	lea	edi, DWORD PTR [edi+1]
	test	al, al
	jne	SHORT $LL46@xmlSnprint
$LN72@xmlSnprint:

; 5238 : 		break;
; 5239 :             case XML_ENTITY_NODE:
; 5240 :             case XML_PI_NODE:
; 5241 :             case XML_DTD_NODE:
; 5242 :             case XML_COMMENT_NODE:
; 5243 : 	    case XML_ELEMENT_DECL:
; 5244 : 	    case XML_ATTRIBUTE_DECL:
; 5245 : 	    case XML_ENTITY_DECL:
; 5246 : 	    case XML_XINCLUDE_START:
; 5247 : 	    case XML_XINCLUDE_END:
; 5248 : 		break;
; 5249 : 	}
; 5250 : 	cur = cur->next;

	mov	ax, WORD PTR ??_C@_01CLKCMJKC@?5@
	mov	WORD PTR [edi], ax
$LN22@xmlSnprint:
	mov	edx, DWORD PTR [edx+24]
	mov	DWORD PTR _node$[ebp], edx
	test	edx, edx
	jne	$LL2@xmlSnprint

; 5251 :     }
; 5252 :     if (glob) strcat(buf, ")");

	cmp	DWORD PTR _glob$[ebp], edx
	je	$LN70@xmlSnprint
	dec	ebx
	npad	5
$LL49@xmlSnprint:
	mov	al, BYTE PTR [ebx+1]
	inc	ebx
	test	al, al
	jne	SHORT $LL49@xmlSnprint
	mov	ax, WORD PTR ??_C@_01PKGAHCOL@?$CJ@
	mov	edi, ebx
	pop	esi
	mov	WORD PTR [edi], ax
	pop	edi
	pop	ebx

; 5253 : }

	mov	esp, ebp
	pop	ebp
	ret	0
$LN28@xmlSnprint:

; 5199 : 			if ((size - len > 4) && (buf[len - 1] != '.'))

	cmp	edi, 4
	jle	SHORT $LN70@xmlSnprint
	cmp	BYTE PTR [esi+ebx-1], 46		; 0000002eH
	je	SHORT $LN70@xmlSnprint

; 5200 : 			    strcat(buf, " ...");

	dec	ebx
$LL47@xmlSnprint:
	mov	al, BYTE PTR [ebx+1]
	lea	ebx, DWORD PTR [ebx+1]
	test	al, al
	jne	SHORT $LL47@xmlSnprint

; 5201 : 			return;

	jmp	SHORT $LN71@xmlSnprint
$LN29@xmlSnprint:

; 5207 : 		    if ((size - len > 4) && (buf[len - 1] != '.'))

	cmp	edi, 4
	jle	SHORT $LN70@xmlSnprint
	cmp	BYTE PTR [esi+ebx-1], 46		; 0000002eH
	je	SHORT $LN70@xmlSnprint

; 5208 : 			strcat(buf, " ...");

	dec	ebx
$LL48@xmlSnprint:
	mov	al, BYTE PTR [ebx+1]
	lea	ebx, DWORD PTR [ebx+1]
	test	al, al
	jne	SHORT $LL48@xmlSnprint

; 5209 : 		    return;

	jmp	SHORT $LN71@xmlSnprint
$LN27@xmlSnprint:

; 5191 : 	    if ((size - len > 4) && (buf[len - 1] != '.'))

	cmp	edi, 4
	jle	SHORT $LN70@xmlSnprint
	cmp	BYTE PTR [esi+ebx-1], 46		; 0000002eH
	je	SHORT $LN70@xmlSnprint

; 5192 : 		strcat(buf, " ...");

	dec	ebx
	npad	7
$LL50@xmlSnprint:
	mov	al, BYTE PTR [ebx+1]
	lea	ebx, DWORD PTR [ebx+1]
	test	al, al
	jne	SHORT $LL50@xmlSnprint
$LN71@xmlSnprint:
	mov	eax, DWORD PTR ??_C@_04IBCFJNCN@?5?4?4?4@
	mov	DWORD PTR [ebx], eax
	mov	al, BYTE PTR ??_C@_04IBCFJNCN@?5?4?4?4@+4
	mov	BYTE PTR [ebx+4], al
$LN70@xmlSnprint:
	pop	esi
	pop	edi
	pop	ebx
$LN24@xmlSnprint:

; 5253 : }

	mov	esp, ebp
	pop	ebp
	ret	0
$LN74@xmlSnprint:
	DD	$LN10@xmlSnprint
	DD	$LN21@xmlSnprint
	DD	$LN17@xmlSnprint
	DD	$LN18@xmlSnprint
	DD	$LN22@xmlSnprint
$LN36@xmlSnprint:
	DB	0
	DB	1
	DB	2
	DB	3
	DB	3
	DB	4
	DB	4
	DB	4
	DB	1
	DB	1
	DB	1
	DB	1
	DB	1
	DB	4
	DB	4
	DB	4
	DB	4
	DB	1
	DB	4
	DB	4
	DB	1
_xmlSnprintfElements ENDP
_TEXT	ENDS
; Function compile flags: /Ogtp
; File c:\users\dag\documents\_clients\codeproject authors group\windows on arm\libxml2\libxml2-2.9.9\valid.c
;	COMDAT _xmlValidateAttributeIdCallback
_TEXT	SEGMENT
_payload$ = 8						; size = 4
_data$ = 12						; size = 4
_name$ = 16						; size = 4
_xmlValidateAttributeIdCallback PROC			; COMDAT

; 4123 : 	                       const xmlChar *name ATTRIBUTE_UNUSED) {

	push	ebp
	mov	ebp, esp
	mov	ecx, OFFSET __56F63275_valid@c
	call	@__CheckForDebuggerJustMyCode@4
	mov	eax, DWORD PTR _payload$[ebp]
	cmp	DWORD PTR [eax+40], 2
	jne	SHORT $LN2@xmlValidat

; 4124 :     xmlAttributePtr attr = (xmlAttributePtr) payload;
; 4125 :     int *count = (int *) data;
; 4126 :     if (attr->atype == XML_ATTRIBUTE_ID) (*count)++;

	mov	eax, DWORD PTR _data$[ebp]
	inc	DWORD PTR [eax]
$LN2@xmlValidat:

; 4127 : }

	pop	ebp
	ret	0
_xmlValidateAttributeIdCallback ENDP
_TEXT	ENDS
; Function compile flags: /Ogtp
; File c:\users\dag\documents\_clients\codeproject authors group\windows on arm\libxml2\libxml2-2.9.9\valid.c
;	COMDAT _xmlValidateAttributeValue2
_TEXT	SEGMENT
_ret$1$ = -4						; size = 4
_ctxt$ = 8						; size = 4
_doc$ = 12						; size = 4
_name$ = 16						; size = 4
_dup$1$ = 20						; size = 4
_type$ = 20						; size = 4
_value$ = 24						; size = 4
_xmlValidateAttributeValue2 PROC			; COMDAT

; 3871 :       const xmlChar *name, xmlAttributeType type, const xmlChar *value) {

	push	ebp
	mov	ebp, esp
	push	ecx
	push	esi
	push	edi
	mov	ecx, OFFSET __56F63275_valid@c
	call	@__CheckForDebuggerJustMyCode@4
	mov	eax, DWORD PTR _type$[ebp]
	mov	DWORD PTR _ret$1$[ebp], 1
	sub	eax, 5
	je	$LN11@xmlValidat

; 3872 :     int ret = 1;
; 3873 :     switch (type) {

	sub	eax, 1
	je	SHORT $LN16@xmlValidat
	sub	eax, 4
	jne	$LN59@xmlValidat

; 3940 : 	}
; 3941 : 	case XML_ATTRIBUTE_NOTATION: {
; 3942 : 	    xmlNotationPtr nota;
; 3943 : 
; 3944 : 	    nota = xmlGetDtdNotationDesc(doc->intSubset, value);

	mov	esi, DWORD PTR _doc$[ebp]

; 3360 :     if (dtd == NULL) return(NULL);

	mov	edi, DWORD PTR _value$[ebp]

; 3940 : 	}
; 3941 : 	case XML_ATTRIBUTE_NOTATION: {
; 3942 : 	    xmlNotationPtr nota;
; 3943 : 
; 3944 : 	    nota = xmlGetDtdNotationDesc(doc->intSubset, value);

	mov	eax, DWORD PTR [esi+44]

; 3360 :     if (dtd == NULL) return(NULL);

	test	eax, eax
	je	SHORT $LN45@xmlValidat

; 3361 :     if (dtd->notations == NULL) return(NULL);

	mov	eax, DWORD PTR [eax+36]
	test	eax, eax
	je	SHORT $LN45@xmlValidat

; 3362 :     table = (xmlNotationTablePtr) dtd->notations;
; 3363 : 
; 3364 :     return(xmlHashLookup(table, name));

	push	edi
	push	eax
	call	_xmlHashLookup
	add	esp, 8

; 3945 : 	    if ((nota == NULL) && (doc->extSubset != NULL))

	test	eax, eax
	jne	$LN59@xmlValidat
$LN45@xmlValidat:
	mov	eax, DWORD PTR [esi+48]
	test	eax, eax
	je	SHORT $LN46@xmlValidat

; 3946 : 		nota = xmlGetDtdNotationDesc(doc->extSubset, value);

	push	edi
	push	eax
	call	_xmlGetDtdNotationDesc
	add	esp, 8

; 3947 : 
; 3948 : 	    if (nota == NULL) {

	test	eax, eax
	jne	$LN59@xmlValidat
$LN46@xmlValidat:

; 3949 : 		xmlErrValidNode(ctxt, (xmlNodePtr) doc,

	push	0
	push	edi
	push	DWORD PTR _name$[ebp]
	push	OFFSET ??_C@_0DK@HMAANMLE@NOTATION?5attribute?5?$CFs?5reference@
	push	537					; 00000219H
	push	esi
	push	DWORD PTR _ctxt$[ebp]
	call	_xmlErrValidNode
	add	esp, 28					; 0000001cH

; 3950 : 		                XML_DTD_UNKNOWN_NOTATION,
; 3951 :        "NOTATION attribute %s reference an unknown notation \"%s\"\n",
; 3952 : 		       name, value, NULL);
; 3953 : 		ret = 0;

	xor	eax, eax
	pop	edi

; 3954 : 	    }
; 3955 : 	    break;
; 3956 :         }
; 3957 :     }
; 3958 :     return(ret);
; 3959 : }

	pop	esi
	mov	esp, ebp
	pop	ebp
	ret	0
$LN16@xmlValidat:

; 3903 : 	    }
; 3904 : 	    break;
; 3905 :         }
; 3906 : 	case XML_ATTRIBUTE_ENTITIES: {
; 3907 : 	    xmlChar *dup, *nam = NULL, *cur, save;
; 3908 : 	    xmlEntityPtr ent;
; 3909 : 
; 3910 : 	    dup = xmlStrdup(value);

	push	DWORD PTR _value$[ebp]
	call	_xmlStrdup
	add	esp, 4
	mov	DWORD PTR _dup$1$[ebp], eax

; 3911 : 	    if (dup == NULL)

	test	eax, eax
	je	$LN62@xmlValidat

; 3912 : 		return(0);
; 3913 : 	    cur = dup;
; 3914 : 	    while (*cur != 0) {

	push	ebx
	mov	bl, BYTE PTR [eax]
	mov	esi, eax
	test	bl, bl
	je	$LN53@xmlValidat
$LL4@xmlValidat:

; 3915 : 		nam = cur;

	mov	edi, esi

; 3916 : 		while ((*cur != 0) && (!IS_BLANK_CH(*cur))) cur++;

	test	bl, bl
	je	SHORT $LN54@xmlValidat
	mov	al, bl
	npad	1
$LL6@xmlValidat:
	mov	bl, al
	cmp	al, 32					; 00000020H
	je	SHORT $LN54@xmlValidat
	cmp	al, 9
	jb	SHORT $LN18@xmlValidat
	cmp	al, 10					; 0000000aH
	jbe	SHORT $LN54@xmlValidat
$LN18@xmlValidat:
	mov	bl, al
	cmp	al, 13					; 0000000dH
	je	SHORT $LN54@xmlValidat
	mov	bl, BYTE PTR [esi+1]
	inc	esi
	mov	al, bl
	test	bl, bl
	jne	SHORT $LL6@xmlValidat
$LN54@xmlValidat:

; 3917 : 		save = *cur;
; 3918 : 		*cur = 0;
; 3919 : 		ent = xmlGetDocEntity(doc, nam);

	push	edi
	push	DWORD PTR _doc$[ebp]
	mov	BYTE PTR [esi], 0
	call	_xmlGetDocEntity
	add	esp, 8

; 3920 : 		if (ent == NULL) {

	test	eax, eax
	jne	SHORT $LN19@xmlValidat

; 3921 : 		    xmlErrValidNode(ctxt, (xmlNodePtr) doc,

	push	eax
	push	edi
	push	DWORD PTR _name$[ebp]
	push	OFFSET ??_C@_0DI@MOCJGONA@ENTITIES?5attribute?5?$CFs?5reference@
	push	535					; 00000217H

; 3922 : 				    XML_DTD_UNKNOWN_ENTITY,
; 3923 :        "ENTITIES attribute %s reference an unknown entity \"%s\"\n",
; 3924 : 			   name, nam, NULL);
; 3925 : 		    ret = 0;

	jmp	SHORT $LN60@xmlValidat
$LN19@xmlValidat:

; 3926 : 		} else if (ent->etype != XML_EXTERNAL_GENERAL_UNPARSED_ENTITY) {

	cmp	DWORD PTR [eax+48], 3
	je	SHORT $LN21@xmlValidat

; 3927 : 		    xmlErrValidNode(ctxt, (xmlNodePtr) doc,

	push	0
	push	edi
	push	DWORD PTR _name$[ebp]
	push	OFFSET ??_C@_0DO@BNHKOEGN@ENTITIES?5attribute?5?$CFs?5reference@
	push	511					; 000001ffH
$LN60@xmlValidat:

; 3928 : 				    XML_DTD_ENTITY_TYPE,
; 3929 :        "ENTITIES attribute %s reference an entity \"%s\" of wrong type\n",
; 3930 : 			   name, nam, NULL);
; 3931 : 		    ret = 0;
; 3932 : 		}
; 3933 : 		if (save == 0)

	mov	eax, DWORD PTR _doc$[ebp]
	push	eax
	push	DWORD PTR _ctxt$[ebp]
	call	_xmlErrValidNode
	mov	DWORD PTR _ret$1$[ebp], 0
	add	esp, 28					; 0000001cH
$LN21@xmlValidat:
	test	bl, bl
	je	SHORT $LN55@xmlValidat

; 3934 : 		    break;
; 3935 : 		*cur = save;

	mov	BYTE PTR [esi], bl
$LL8@xmlValidat:

; 3936 : 		while (IS_BLANK_CH(*cur)) cur++;

	cmp	bl, 32					; 00000020H
	je	SHORT $LN23@xmlValidat
	cmp	bl, 9
	jb	SHORT $LN24@xmlValidat
	cmp	bl, 10					; 0000000aH
	jbe	SHORT $LN23@xmlValidat
$LN24@xmlValidat:
	cmp	bl, 13					; 0000000dH
	jne	SHORT $LN9@xmlValidat
$LN23@xmlValidat:
	mov	bl, BYTE PTR [esi+1]
	inc	esi
	jmp	SHORT $LL8@xmlValidat
$LN9@xmlValidat:

; 3912 : 		return(0);
; 3913 : 	    cur = dup;
; 3914 : 	    while (*cur != 0) {

	test	bl, bl
	jne	$LL4@xmlValidat
$LN55@xmlValidat:
	mov	eax, DWORD PTR _dup$1$[ebp]
$LN53@xmlValidat:

; 3937 : 	    }
; 3938 : 	    xmlFree(dup);

	push	eax
	call	DWORD PTR _xmlFree

; 3939 : 	    break;

	mov	eax, DWORD PTR _ret$1$[ebp]
	add	esp, 4
	pop	ebx
	pop	edi

; 3954 : 	    }
; 3955 : 	    break;
; 3956 :         }
; 3957 :     }
; 3958 :     return(ret);
; 3959 : }

	pop	esi
	mov	esp, ebp
	pop	ebp
	ret	0
$LN11@xmlValidat:

; 3874 : 	case XML_ATTRIBUTE_IDREFS:
; 3875 : 	case XML_ATTRIBUTE_IDREF:
; 3876 : 	case XML_ATTRIBUTE_ID:
; 3877 : 	case XML_ATTRIBUTE_NMTOKENS:
; 3878 : 	case XML_ATTRIBUTE_ENUMERATION:
; 3879 : 	case XML_ATTRIBUTE_NMTOKEN:
; 3880 :         case XML_ATTRIBUTE_CDATA:
; 3881 : 	    break;
; 3882 : 	case XML_ATTRIBUTE_ENTITY: {
; 3883 : 	    xmlEntityPtr ent;
; 3884 : 
; 3885 : 	    ent = xmlGetDocEntity(doc, value);

	mov	edi, DWORD PTR _value$[ebp]
	mov	esi, DWORD PTR _doc$[ebp]
	push	edi
	push	esi
	call	_xmlGetDocEntity
	add	esp, 8

; 3886 : 	    /* yeah it's a bit messy... */
; 3887 : 	    if ((ent == NULL) && (doc->standalone == 1)) {

	test	eax, eax
	jne	SHORT $LN13@xmlValidat
	cmp	DWORD PTR [esi+40], 1
	jne	SHORT $LN47@xmlValidat

; 3888 : 		doc->standalone = 0;
; 3889 : 		ent = xmlGetDocEntity(doc, value);

	push	edi
	push	esi
	mov	DWORD PTR [esi+40], eax
	call	_xmlGetDocEntity
	add	esp, 8

; 3890 : 	    }
; 3891 : 	    if (ent == NULL) {

	test	eax, eax
	jne	SHORT $LN13@xmlValidat
$LN47@xmlValidat:

; 3892 : 		xmlErrValidNode(ctxt, (xmlNodePtr) doc,

	push	0
	push	edi
	push	DWORD PTR _name$[ebp]
	push	OFFSET ??_C@_0DG@NHAJHAEC@ENTITY?5attribute?5?$CFs?5reference?5a@
	push	535					; 00000217H
	push	esi
	push	DWORD PTR _ctxt$[ebp]
	call	_xmlErrValidNode
	add	esp, 28					; 0000001cH
$LN62@xmlValidat:

; 3954 : 	    }
; 3955 : 	    break;
; 3956 :         }
; 3957 :     }
; 3958 :     return(ret);
; 3959 : }

	pop	edi
	xor	eax, eax
	pop	esi
	mov	esp, ebp
	pop	ebp
	ret	0
$LN13@xmlValidat:

; 3893 : 				XML_DTD_UNKNOWN_ENTITY,
; 3894 :    "ENTITY attribute %s reference an unknown entity \"%s\"\n",
; 3895 : 		       name, value, NULL);
; 3896 : 		ret = 0;
; 3897 : 	    } else if (ent->etype != XML_EXTERNAL_GENERAL_UNPARSED_ENTITY) {

	cmp	DWORD PTR [eax+48], 3
	je	SHORT $LN59@xmlValidat

; 3898 : 		xmlErrValidNode(ctxt, (xmlNodePtr) doc,

	push	0
	push	edi
	push	DWORD PTR _name$[ebp]
	push	OFFSET ??_C@_0DM@CBMBENAH@ENTITY?5attribute?5?$CFs?5reference?5a@
	push	511					; 000001ffH
	push	esi
	push	DWORD PTR _ctxt$[ebp]
	call	_xmlErrValidNode
	add	esp, 28					; 0000001cH

; 3899 : 				XML_DTD_ENTITY_TYPE,
; 3900 :    "ENTITY attribute %s reference an entity \"%s\" of wrong type\n",
; 3901 : 		       name, value, NULL);
; 3902 : 		ret = 0;

	xor	eax, eax
	pop	edi

; 3954 : 	    }
; 3955 : 	    break;
; 3956 :         }
; 3957 :     }
; 3958 :     return(ret);
; 3959 : }

	pop	esi
	mov	esp, ebp
	pop	ebp
	ret	0
$LN59@xmlValidat:
	pop	edi

; 3893 : 				XML_DTD_UNKNOWN_ENTITY,
; 3894 :    "ENTITY attribute %s reference an unknown entity \"%s\"\n",
; 3895 : 		       name, value, NULL);
; 3896 : 		ret = 0;
; 3897 : 	    } else if (ent->etype != XML_EXTERNAL_GENERAL_UNPARSED_ENTITY) {

	mov	eax, 1

; 3954 : 	    }
; 3955 : 	    break;
; 3956 :         }
; 3957 :     }
; 3958 :     return(ret);
; 3959 : }

	pop	esi
	mov	esp, ebp
	pop	ebp
	ret	0
_xmlValidateAttributeValue2 ENDP
_TEXT	ENDS
; Function compile flags: /Ogtp
; File c:\users\dag\documents\_clients\codeproject authors group\windows on arm\libxml2\libxml2-2.9.9\valid.c
;	COMDAT _xmlValidateNmtokensValueInternal
_TEXT	SEGMENT
_len$ = -4						; size = 4
_doc$ = 8						; size = 4
_value$ = 12						; size = 4
_xmlValidateNmtokensValueInternal PROC			; COMDAT

; 3691 : xmlValidateNmtokensValueInternal(xmlDocPtr doc, const xmlChar *value) {

	push	ebp
	mov	ebp, esp
	push	ecx
	push	ebx
	push	esi
	push	edi
	mov	ecx, OFFSET __56F63275_valid@c
	call	@__CheckForDebuggerJustMyCode@4
	mov	edi, DWORD PTR _value$[ebp]
	test	edi, edi
	je	$LN45@xmlValidat
$LN19@xmlValidat:

; 3692 :     const xmlChar *cur;
; 3693 :     int val, len;
; 3694 : 
; 3695 :     if (value == NULL) return(0);
; 3696 :     cur = value;
; 3697 :     val = xmlStringCurrentChar(NULL, cur, &len);
; 3698 :     cur += len;
; 3699 : 
; 3700 :     while (IS_BLANK(val)) {

	lea	eax, DWORD PTR _len$[ebp]
	push	eax
	push	edi
	push	0
	call	_xmlStringCurrentChar
	add	edi, DWORD PTR _len$[ebp]
	mov	esi, eax
	add	esp, 12					; 0000000cH
	cmp	esi, 256				; 00000100H
	jge	SHORT $LN21@xmlValidat
	cmp	esi, 32					; 00000020H
	je	SHORT $LN19@xmlValidat
	cmp	esi, 9
	jl	SHORT $LN18@xmlValidat
	cmp	esi, 10					; 0000000aH
	jle	SHORT $LN19@xmlValidat
$LN18@xmlValidat:
	cmp	esi, 13					; 0000000dH
	je	SHORT $LN19@xmlValidat
$LN21@xmlValidat:

; 3701 : 	val = xmlStringCurrentChar(NULL, cur, &len);
; 3702 : 	cur += len;
; 3703 :     }
; 3704 : 
; 3705 :     if (!xmlIsDocNameChar(doc, val))

	mov	ebx, DWORD PTR _doc$[ebp]
	push	esi
	push	ebx
	call	_xmlIsDocNameChar
	add	esp, 8
	test	eax, eax
	je	$LN45@xmlValidat

; 3706 : 	return(0);
; 3707 : 
; 3708 :     while (xmlIsDocNameChar(doc, val)) {

	push	esi
	push	ebx
	call	_xmlIsDocNameChar
	add	esp, 8
	test	eax, eax
	je	SHORT $LN25@xmlValidat
	npad	1
$LL4@xmlValidat:

; 3709 : 	val = xmlStringCurrentChar(NULL, cur, &len);

	lea	eax, DWORD PTR _len$[ebp]
	push	eax
	push	edi
	push	0
	call	_xmlStringCurrentChar

; 3710 : 	cur += len;

	add	edi, DWORD PTR _len$[ebp]
	mov	esi, eax
	push	esi
	push	ebx
	call	_xmlIsDocNameChar
	add	esp, 20					; 00000014H
	test	eax, eax
	jne	SHORT $LL4@xmlValidat
$LN25@xmlValidat:

; 3711 :     }
; 3712 : 
; 3713 :     /* Should not test IS_BLANK(val) here -- see erratum E20*/
; 3714 :     while (val == 0x20) {

	cmp	esi, 32					; 00000020H
	jne	SHORT $LN7@xmlValidat
$LL8@xmlValidat:

; 3715 : 	while (val == 0x20) {
; 3716 : 	    val = xmlStringCurrentChar(NULL, cur, &len);

	lea	eax, DWORD PTR _len$[ebp]
	push	eax
	push	edi
	push	0
	call	_xmlStringCurrentChar

; 3717 : 	    cur += len;

	add	edi, DWORD PTR _len$[ebp]
	mov	esi, eax
	add	esp, 12					; 0000000cH
	cmp	esi, 32					; 00000020H
	je	SHORT $LL8@xmlValidat

; 3718 : 	}
; 3719 : 	if (val == 0) return(1);

	test	esi, esi
	je	SHORT $LN16@xmlValidat

; 3720 : 
; 3721 : 	if (!xmlIsDocNameChar(doc, val))

	push	esi
	push	ebx
	call	_xmlIsDocNameChar
	add	esp, 8
	test	eax, eax
	je	SHORT $LN45@xmlValidat

; 3722 : 	    return(0);
; 3723 : 
; 3724 : 	val = xmlStringCurrentChar(NULL, cur, &len);

	lea	eax, DWORD PTR _len$[ebp]
	push	eax
	push	edi
	push	0
	call	_xmlStringCurrentChar

; 3725 : 	cur += len;

	add	edi, DWORD PTR _len$[ebp]
	mov	esi, eax

; 3726 : 
; 3727 : 	while (xmlIsDocNameChar(doc, val)) {

	push	esi
	push	ebx
	call	_xmlIsDocNameChar
	add	esp, 20					; 00000014H
	test	eax, eax
	je	SHORT $LN11@xmlValidat
	npad	2
$LL10@xmlValidat:

; 3728 : 	    val = xmlStringCurrentChar(NULL, cur, &len);

	lea	eax, DWORD PTR _len$[ebp]
	push	eax
	push	edi
	push	0
	call	_xmlStringCurrentChar

; 3729 : 	    cur += len;

	add	edi, DWORD PTR _len$[ebp]
	mov	esi, eax
	push	esi
	push	ebx
	call	_xmlIsDocNameChar
	add	esp, 20					; 00000014H
	test	eax, eax
	jne	SHORT $LL10@xmlValidat
$LN11@xmlValidat:

; 3711 :     }
; 3712 : 
; 3713 :     /* Should not test IS_BLANK(val) here -- see erratum E20*/
; 3714 :     while (val == 0x20) {

	cmp	esi, 32					; 00000020H
	je	SHORT $LL8@xmlValidat
$LN7@xmlValidat:

; 3730 : 	}
; 3731 :     }
; 3732 : 
; 3733 :     if (val != 0) return(0);

	test	esi, esi
	jne	SHORT $LN45@xmlValidat
$LN16@xmlValidat:
	pop	edi

; 3734 : 
; 3735 :     return(1);
; 3736 : }

	pop	esi
	mov	eax, 1
	pop	ebx
	mov	esp, ebp
	pop	ebp
	ret	0
$LN45@xmlValidat:
	pop	edi
	pop	esi
	xor	eax, eax
	pop	ebx
	mov	esp, ebp
	pop	ebp
	ret	0
_xmlValidateNmtokensValueInternal ENDP
_TEXT	ENDS
; Function compile flags: /Ogtp
; File c:\users\dag\documents\_clients\codeproject authors group\windows on arm\libxml2\libxml2-2.9.9\valid.c
;	COMDAT _xmlValidateNmtokenValueInternal
_TEXT	SEGMENT
_len$ = -4						; size = 4
_doc$ = 8						; size = 4
_value$ = 12						; size = 4
_xmlValidateNmtokenValueInternal PROC			; COMDAT

; 3638 : xmlValidateNmtokenValueInternal(xmlDocPtr doc, const xmlChar *value) {

	push	ebp
	mov	ebp, esp
	push	ecx
	push	ebx
	push	esi
	push	edi
	mov	ecx, OFFSET __56F63275_valid@c
	call	@__CheckForDebuggerJustMyCode@4
	mov	esi, DWORD PTR _value$[ebp]
	test	esi, esi
	je	$LN64@xmlValidat

; 3639 :     const xmlChar *cur;
; 3640 :     int val, len;
; 3641 : 
; 3642 :     if (value == NULL) return(0);
; 3643 :     cur = value;
; 3644 :     val = xmlStringCurrentChar(NULL, cur, &len);

	lea	eax, DWORD PTR _len$[ebp]
	push	eax
	push	esi
	push	0
	call	_xmlStringCurrentChar

; 3645 :     cur += len;

	mov	edi, DWORD PTR _len$[ebp]

; 3646 : 
; 3647 :     if (!xmlIsDocNameChar(doc, val))

	mov	ebx, DWORD PTR _doc$[ebp]
	add	edi, esi
	push	eax
	push	ebx
	call	_xmlIsDocNameChar
	add	esp, 20					; 00000014H
	test	eax, eax
	je	$LN64@xmlValidat
$LN13@xmlValidat:

; 3473 :     if ((doc == NULL) || (doc->properties & XML_DOC_OLD10) == 0) {

	lea	eax, DWORD PTR _len$[ebp]
	push	eax
	push	edi
	push	0
	call	_xmlStringCurrentChar
	add	edi, DWORD PTR _len$[ebp]
	add	esp, 12					; 0000000cH
	mov	esi, eax
	test	ebx, ebx
	je	$LN11@xmlValidat
	test	BYTE PTR [ebx+92], 4
	je	$LN11@xmlValidat

; 3496 : 	    ((c >= 0x10000) && (c <= 0xEFFFF)))
; 3497 : 	     return(1);
; 3498 :     } else {
; 3499 :         if ((IS_LETTER(c)) || (IS_DIGIT(c)) ||
; 3500 :             (c == '.') || (c == '-') ||
; 3501 : 	    (c == '_') || (c == ':') ||
; 3502 : 	    (IS_COMBINING(c)) ||

	cmp	esi, 256				; 00000100H
	jge	SHORT $LN39@xmlValidat
	cmp	esi, 65					; 00000041H
	jl	SHORT $LN33@xmlValidat
	cmp	esi, 90					; 0000005aH
	jle	SHORT $LN13@xmlValidat
$LN33@xmlValidat:
	cmp	esi, 97					; 00000061H
	jl	SHORT $LN34@xmlValidat
	cmp	esi, 122				; 0000007aH
	jle	SHORT $LN13@xmlValidat
$LN34@xmlValidat:
	cmp	esi, 192				; 000000c0H
	jl	SHORT $LN36@xmlValidat
	cmp	esi, 214				; 000000d6H
	jle	SHORT $LN13@xmlValidat
$LN36@xmlValidat:
	cmp	esi, 216				; 000000d8H
	jl	SHORT $LN37@xmlValidat
	cmp	esi, 246				; 000000f6H
	jle	SHORT $LN13@xmlValidat
$LN37@xmlValidat:
	cmp	esi, 248				; 000000f8H
	jge	SHORT $LN13@xmlValidat
	jmp	SHORT $LN58@xmlValidat
$LN39@xmlValidat:
	push	OFFSET _xmlIsBaseCharGroup
	push	esi
	call	_xmlCharInRange
	add	esp, 8
	test	eax, eax
	jne	SHORT $LN13@xmlValidat
$LN58@xmlValidat:
	cmp	esi, 256				; 00000100H
	jl	SHORT $LN66@xmlValidat
	cmp	esi, 19968				; 00004e00H
	jl	SHORT $LN41@xmlValidat
	cmp	esi, 40869				; 00009fa5H
	jle	$LN13@xmlValidat
$LN41@xmlValidat:
	cmp	esi, 12295				; 00003007H
	je	$LN13@xmlValidat
	cmp	esi, 12321				; 00003021H
	jl	SHORT $LN61@xmlValidat
	cmp	esi, 12329				; 00003029H
	jle	$LN13@xmlValidat
$LN61@xmlValidat:
	cmp	esi, 256				; 00000100H
	jge	SHORT $LN49@xmlValidat
$LN66@xmlValidat:
	lea	eax, DWORD PTR [esi-48]
	cmp	eax, 9
	ja	SHORT $LN59@xmlValidat
	jmp	$LN13@xmlValidat
$LN49@xmlValidat:
	push	OFFSET _xmlIsDigitGroup
	push	esi
	call	_xmlCharInRange
	add	esp, 8
	test	eax, eax
	jne	$LN13@xmlValidat
$LN59@xmlValidat:
	cmp	esi, 46					; 0000002eH
	je	$LN13@xmlValidat
	cmp	esi, 45					; 0000002dH
	je	$LN13@xmlValidat
	cmp	esi, 95					; 0000005fH
	je	$LN13@xmlValidat
	cmp	esi, 58					; 0000003aH
	je	$LN13@xmlValidat
	cmp	esi, 256				; 00000100H
	jl	SHORT $LN62@xmlValidat
	push	OFFSET _xmlIsCombiningGroup
	push	esi
	call	_xmlCharInRange
	add	esp, 8
	test	eax, eax
	jne	$LN13@xmlValidat
	push	OFFSET _xmlIsExtenderGroup
	push	esi
	call	_xmlCharInRange
	add	esp, 8
	jmp	SHORT $LN54@xmlValidat
$LN62@xmlValidat:
	xor	eax, eax
	cmp	esi, 183				; 000000b7H
	sete	al
$LN54@xmlValidat:
	test	eax, eax
	je	$LN12@xmlValidat

; 3503 : 	    (IS_EXTENDER(c)))
; 3504 : 	    return(1);

	jmp	$LN13@xmlValidat
$LN11@xmlValidat:

; 3474 :         /*
; 3475 : 	 * Use the new checks of production [4] [4a] amd [5] of the
; 3476 : 	 * Update 5 of XML-1.0
; 3477 : 	 */
; 3478 : 	if (((c >= 'a') && (c <= 'z')) ||
; 3479 : 	    ((c >= 'A') && (c <= 'Z')) ||
; 3480 : 	    ((c >= '0') && (c <= '9')) || /* !start */
; 3481 : 	    (c == '_') || (c == ':') ||
; 3482 : 	    (c == '-') || (c == '.') || (c == 0xB7) || /* !start */
; 3483 : 	    ((c >= 0xC0) && (c <= 0xD6)) ||
; 3484 : 	    ((c >= 0xD8) && (c <= 0xF6)) ||
; 3485 : 	    ((c >= 0xF8) && (c <= 0x2FF)) ||
; 3486 : 	    ((c >= 0x300) && (c <= 0x36F)) || /* !start */
; 3487 : 	    ((c >= 0x370) && (c <= 0x37D)) ||
; 3488 : 	    ((c >= 0x37F) && (c <= 0x1FFF)) ||
; 3489 : 	    ((c >= 0x200C) && (c <= 0x200D)) ||
; 3490 : 	    ((c >= 0x203F) && (c <= 0x2040)) || /* !start */
; 3491 : 	    ((c >= 0x2070) && (c <= 0x218F)) ||
; 3492 : 	    ((c >= 0x2C00) && (c <= 0x2FEF)) ||
; 3493 : 	    ((c >= 0x3001) && (c <= 0xD7FF)) ||
; 3494 : 	    ((c >= 0xF900) && (c <= 0xFDCF)) ||
; 3495 : 	    ((c >= 0xFDF0) && (c <= 0xFFFD)) ||

	cmp	esi, 97					; 00000061H
	jl	SHORT $LN14@xmlValidat
	cmp	esi, 122				; 0000007aH
	jle	$LN13@xmlValidat
$LN14@xmlValidat:
	cmp	esi, 65					; 00000041H
	jl	SHORT $LN15@xmlValidat
	cmp	esi, 90					; 0000005aH
	jle	$LN13@xmlValidat
$LN15@xmlValidat:
	cmp	esi, 48					; 00000030H
	jl	SHORT $LN16@xmlValidat
	cmp	esi, 57					; 00000039H
	jle	$LN13@xmlValidat
$LN16@xmlValidat:
	cmp	esi, 95					; 0000005fH
	je	$LN13@xmlValidat
	cmp	esi, 58					; 0000003aH
	je	$LN13@xmlValidat
	cmp	esi, 45					; 0000002dH
	je	$LN13@xmlValidat
	cmp	esi, 46					; 0000002eH
	je	$LN13@xmlValidat
	cmp	esi, 183				; 000000b7H
	je	$LN13@xmlValidat
	cmp	esi, 192				; 000000c0H
	jl	SHORT $LN17@xmlValidat
	cmp	esi, 214				; 000000d6H
	jle	$LN13@xmlValidat
$LN17@xmlValidat:
	cmp	esi, 216				; 000000d8H
	jl	SHORT $LN18@xmlValidat
	cmp	esi, 246				; 000000f6H
	jle	$LN13@xmlValidat
$LN18@xmlValidat:
	cmp	esi, 248				; 000000f8H
	jl	SHORT $LN19@xmlValidat
	cmp	esi, 767				; 000002ffH
	jle	$LN13@xmlValidat
$LN19@xmlValidat:
	cmp	esi, 768				; 00000300H
	jl	SHORT $LN20@xmlValidat
	cmp	esi, 879				; 0000036fH
	jle	$LN13@xmlValidat
$LN20@xmlValidat:
	cmp	esi, 880				; 00000370H
	jl	SHORT $LN21@xmlValidat
	cmp	esi, 893				; 0000037dH
	jle	$LN13@xmlValidat
$LN21@xmlValidat:
	cmp	esi, 895				; 0000037fH
	jl	SHORT $LN22@xmlValidat
	cmp	esi, 8191				; 00001fffH
	jle	$LN13@xmlValidat
$LN22@xmlValidat:
	cmp	esi, 8204				; 0000200cH
	jl	SHORT $LN23@xmlValidat
	cmp	esi, 8205				; 0000200dH
	jle	$LN13@xmlValidat
$LN23@xmlValidat:
	cmp	esi, 8255				; 0000203fH
	jl	SHORT $LN24@xmlValidat
	cmp	esi, 8256				; 00002040H
	jle	$LN13@xmlValidat
$LN24@xmlValidat:
	cmp	esi, 8304				; 00002070H
	jl	SHORT $LN25@xmlValidat
	cmp	esi, 8591				; 0000218fH
	jle	$LN13@xmlValidat
$LN25@xmlValidat:
	cmp	esi, 11264				; 00002c00H
	jl	SHORT $LN26@xmlValidat
	cmp	esi, 12271				; 00002fefH
	jle	$LN13@xmlValidat
$LN26@xmlValidat:
	cmp	esi, 12289				; 00003001H
	jl	SHORT $LN27@xmlValidat
	cmp	esi, 55295				; 0000d7ffH
	jle	$LN13@xmlValidat
$LN27@xmlValidat:
	cmp	esi, 63744				; 0000f900H
	jl	SHORT $LN28@xmlValidat
	cmp	esi, 64975				; 0000fdcfH
	jle	$LN13@xmlValidat
$LN28@xmlValidat:
	cmp	esi, 65008				; 0000fdf0H
	jl	SHORT $LN29@xmlValidat
	cmp	esi, 65533				; 0000fffdH
	jle	$LN13@xmlValidat
$LN29@xmlValidat:
	cmp	esi, 65536				; 00010000H
	jl	SHORT $LN12@xmlValidat
	cmp	esi, 983039				; 000effffH
	jle	$LN13@xmlValidat
$LN12@xmlValidat:

; 3648 : 	return(0);
; 3649 : 
; 3650 :     val = xmlStringCurrentChar(NULL, cur, &len);
; 3651 :     cur += len;
; 3652 :     while (xmlIsDocNameChar(doc, val)) {
; 3653 : 	val = xmlStringCurrentChar(NULL, cur, &len);
; 3654 : 	cur += len;
; 3655 :     }
; 3656 : 
; 3657 :     if (val != 0) return(0);

	test	esi, esi
	jne	SHORT $LN64@xmlValidat

; 3658 : 
; 3659 :     return(1);

	pop	edi
	lea	eax, DWORD PTR [esi+1]

; 3660 : }

	pop	esi
	pop	ebx
	mov	esp, ebp
	pop	ebp
	ret	0
$LN64@xmlValidat:
	pop	edi
	pop	esi
	xor	eax, eax
	pop	ebx
	mov	esp, ebp
	pop	ebp
	ret	0
_xmlValidateNmtokenValueInternal ENDP
_TEXT	ENDS
; Function compile flags: /Ogtp
; File c:\users\dag\documents\_clients\codeproject authors group\windows on arm\libxml2\libxml2-2.9.9\valid.c
;	COMDAT _xmlValidateNamesValueInternal
_TEXT	SEGMENT
_len$ = -4						; size = 4
_doc$ = 8						; size = 4
_value$ = 12						; size = 4
_xmlValidateNamesValueInternal PROC			; COMDAT

; 3568 : xmlValidateNamesValueInternal(xmlDocPtr doc, const xmlChar *value) {

	push	ebp
	mov	ebp, esp
	push	ecx
	push	ebx
	push	esi
	push	edi
	mov	ecx, OFFSET __56F63275_valid@c
	call	@__CheckForDebuggerJustMyCode@4
	mov	esi, DWORD PTR _value$[ebp]
	test	esi, esi
	je	$LN31@xmlValidat

; 3569 :     const xmlChar *cur;
; 3570 :     int val, len;
; 3571 : 
; 3572 :     if (value == NULL) return(0);
; 3573 :     cur = value;
; 3574 :     val = xmlStringCurrentChar(NULL, cur, &len);

	lea	eax, DWORD PTR _len$[ebp]
	push	eax
	push	esi
	push	0
	call	_xmlStringCurrentChar

; 3575 :     cur += len;
; 3576 : 
; 3577 :     if (!xmlIsDocNameStartChar(doc, val))

	mov	ebx, DWORD PTR _doc$[ebp]
	add	esi, DWORD PTR _len$[ebp]
	push	eax
	push	ebx
	call	_xmlIsDocNameStartChar
	add	esp, 20					; 00000014H
	test	eax, eax
	je	$LN31@xmlValidat

; 3578 : 	return(0);
; 3579 : 
; 3580 :     val = xmlStringCurrentChar(NULL, cur, &len);

	lea	eax, DWORD PTR _len$[ebp]
	push	eax
	push	esi
	push	0
	call	_xmlStringCurrentChar

; 3581 :     cur += len;

	add	esi, DWORD PTR _len$[ebp]
	mov	edi, eax

; 3582 :     while (xmlIsDocNameChar(doc, val)) {

	push	edi
	push	ebx
	call	_xmlIsDocNameChar
	add	esp, 20					; 00000014H
	test	eax, eax
	je	SHORT $LN16@xmlValidat
	npad	1
$LL2@xmlValidat:

; 3583 : 	val = xmlStringCurrentChar(NULL, cur, &len);

	lea	eax, DWORD PTR _len$[ebp]
	push	eax
	push	esi
	push	0
	call	_xmlStringCurrentChar

; 3584 : 	cur += len;

	add	esi, DWORD PTR _len$[ebp]
	mov	edi, eax
	push	edi
	push	ebx
	call	_xmlIsDocNameChar
	add	esp, 20					; 00000014H
	test	eax, eax
	jne	SHORT $LL2@xmlValidat
$LN16@xmlValidat:

; 3585 :     }
; 3586 : 
; 3587 :     /* Should not test IS_BLANK(val) here -- see erratum E20*/
; 3588 :     while (val == 0x20) {

	cmp	edi, 32					; 00000020H
	jne	SHORT $LN5@xmlValidat
$LL6@xmlValidat:

; 3589 : 	while (val == 0x20) {
; 3590 : 	    val = xmlStringCurrentChar(NULL, cur, &len);

	lea	eax, DWORD PTR _len$[ebp]
	push	eax
	push	esi
	push	0
	call	_xmlStringCurrentChar

; 3591 : 	    cur += len;

	add	esi, DWORD PTR _len$[ebp]
	mov	edi, eax
	add	esp, 12					; 0000000cH
	cmp	edi, 32					; 00000020H
	je	SHORT $LL6@xmlValidat

; 3592 : 	}
; 3593 : 
; 3594 : 	if (!xmlIsDocNameStartChar(doc, val))

	push	edi
	push	ebx
	call	_xmlIsDocNameStartChar
	add	esp, 8
	test	eax, eax
	je	SHORT $LN31@xmlValidat

; 3595 : 	    return(0);
; 3596 : 
; 3597 : 	val = xmlStringCurrentChar(NULL, cur, &len);

	lea	eax, DWORD PTR _len$[ebp]
	push	eax
	push	esi
	push	0
	call	_xmlStringCurrentChar

; 3598 : 	cur += len;

	add	esi, DWORD PTR _len$[ebp]
	mov	edi, eax

; 3599 : 
; 3600 : 	while (xmlIsDocNameChar(doc, val)) {

	push	edi
	push	ebx
	call	_xmlIsDocNameChar
	add	esp, 20					; 00000014H
	test	eax, eax
	je	SHORT $LN9@xmlValidat
	npad	6
$LL8@xmlValidat:

; 3601 : 	    val = xmlStringCurrentChar(NULL, cur, &len);

	lea	eax, DWORD PTR _len$[ebp]
	push	eax
	push	esi
	push	0
	call	_xmlStringCurrentChar

; 3602 : 	    cur += len;

	add	esi, DWORD PTR _len$[ebp]
	mov	edi, eax
	push	edi
	push	ebx
	call	_xmlIsDocNameChar
	add	esp, 20					; 00000014H
	test	eax, eax
	jne	SHORT $LL8@xmlValidat
$LN9@xmlValidat:

; 3585 :     }
; 3586 : 
; 3587 :     /* Should not test IS_BLANK(val) here -- see erratum E20*/
; 3588 :     while (val == 0x20) {

	cmp	edi, 32					; 00000020H
	je	SHORT $LL6@xmlValidat
$LN5@xmlValidat:

; 3603 : 	}
; 3604 :     }
; 3605 : 
; 3606 :     if (val != 0) return(0);

	test	edi, edi
	jne	SHORT $LN31@xmlValidat

; 3607 : 
; 3608 :     return(1);

	lea	eax, DWORD PTR [edi+1]
	pop	edi

; 3609 : }

	pop	esi
	pop	ebx
	mov	esp, ebp
	pop	ebp
	ret	0
$LN31@xmlValidat:
	pop	edi
	pop	esi
	xor	eax, eax
	pop	ebx
	mov	esp, ebp
	pop	ebp
	ret	0
_xmlValidateNamesValueInternal ENDP
_TEXT	ENDS
; Function compile flags: /Ogtp
; File c:\users\dag\documents\_clients\codeproject authors group\windows on arm\libxml2\libxml2-2.9.9\valid.c
;	COMDAT _xmlValidateNameValueInternal
_TEXT	SEGMENT
_len$ = -4						; size = 4
_doc$ = 8						; size = 4
_value$ = 12						; size = 4
_xmlValidateNameValueInternal PROC			; COMDAT

; 3520 : xmlValidateNameValueInternal(xmlDocPtr doc, const xmlChar *value) {

	push	ebp
	mov	ebp, esp
	push	ecx
	push	ebx
	push	esi
	mov	ecx, OFFSET __56F63275_valid@c
	call	@__CheckForDebuggerJustMyCode@4
	mov	esi, DWORD PTR _value$[ebp]
	test	esi, esi
	je	SHORT $LN12@xmlValidat

; 3521 :     const xmlChar *cur;
; 3522 :     int val, len;
; 3523 : 
; 3524 :     if (value == NULL) return(0);
; 3525 :     cur = value;
; 3526 :     val = xmlStringCurrentChar(NULL, cur, &len);

	lea	eax, DWORD PTR _len$[ebp]
	push	eax
	push	esi
	push	0
	call	_xmlStringCurrentChar

; 3527 :     cur += len;
; 3528 :     if (!xmlIsDocNameStartChar(doc, val))

	mov	ebx, DWORD PTR _doc$[ebp]
	add	esi, DWORD PTR _len$[ebp]
	push	eax
	push	ebx
	call	_xmlIsDocNameStartChar
	add	esp, 20					; 00000014H
	test	eax, eax
	je	SHORT $LN12@xmlValidat

; 3529 : 	return(0);
; 3530 : 
; 3531 :     val = xmlStringCurrentChar(NULL, cur, &len);

	push	edi
	lea	eax, DWORD PTR _len$[ebp]
	push	eax
	push	esi
	push	0
	call	_xmlStringCurrentChar

; 3532 :     cur += len;

	add	esi, DWORD PTR _len$[ebp]
	mov	edi, eax

; 3533 :     while (xmlIsDocNameChar(doc, val)) {

	push	edi
	push	ebx
	call	_xmlIsDocNameChar
	add	esp, 20					; 00000014H
	test	eax, eax
	je	SHORT $LN3@xmlValidat
$LL2@xmlValidat:

; 3534 : 	val = xmlStringCurrentChar(NULL, cur, &len);

	lea	eax, DWORD PTR _len$[ebp]
	push	eax
	push	esi
	push	0
	call	_xmlStringCurrentChar

; 3535 : 	cur += len;

	add	esi, DWORD PTR _len$[ebp]
	mov	edi, eax
	push	edi
	push	ebx
	call	_xmlIsDocNameChar
	add	esp, 20					; 00000014H
	test	eax, eax
	jne	SHORT $LL2@xmlValidat
$LN3@xmlValidat:

; 3536 :     }
; 3537 : 
; 3538 :     if (val != 0) return(0);

	test	edi, edi
	pop	edi
	jne	SHORT $LN12@xmlValidat

; 3539 : 
; 3540 :     return(1);

	pop	esi
	mov	eax, 1

; 3541 : }

	pop	ebx
	mov	esp, ebp
	pop	ebp
	ret	0
$LN12@xmlValidat:
	pop	esi

; 3536 :     }
; 3537 : 
; 3538 :     if (val != 0) return(0);

	xor	eax, eax

; 3541 : }

	pop	ebx
	mov	esp, ebp
	pop	ebp
	ret	0
_xmlValidateNameValueInternal ENDP
_TEXT	ENDS
; Function compile flags: /Ogtp
; File c:\users\dag\documents\_clients\codeproject authors group\windows on arm\libxml2\libxml2-2.9.9\valid.c
;	COMDAT _xmlIsDocNameChar
_TEXT	SEGMENT
_doc$ = 8						; size = 4
_c$ = 12						; size = 4
_xmlIsDocNameChar PROC					; COMDAT

; 3472 : xmlIsDocNameChar(xmlDocPtr doc, int c) {

	push	ebp
	mov	ebp, esp
	push	esi
	mov	ecx, OFFSET __56F63275_valid@c
	call	@__CheckForDebuggerJustMyCode@4
	mov	eax, DWORD PTR _doc$[ebp]
	test	eax, eax
	je	$LN4@xmlIsDocNa

; 3473 :     if ((doc == NULL) || (doc->properties & XML_DOC_OLD10) == 0) {

	test	BYTE PTR [eax+92], 4
	je	$LN4@xmlIsDocNa

; 3498 :     } else {
; 3499 :         if ((IS_LETTER(c)) || (IS_DIGIT(c)) ||
; 3500 :             (c == '.') || (c == '-') ||
; 3501 : 	    (c == '_') || (c == ':') ||
; 3502 : 	    (IS_COMBINING(c)) ||

	mov	esi, DWORD PTR _c$[ebp]
	cmp	esi, 256				; 00000100H
	jge	SHORT $LN32@xmlIsDocNa
	cmp	esi, 65					; 00000041H
	jl	SHORT $LN26@xmlIsDocNa
	cmp	esi, 90					; 0000005aH
	jle	SHORT $LN6@xmlIsDocNa
$LN26@xmlIsDocNa:
	cmp	esi, 97					; 00000061H
	jl	SHORT $LN27@xmlIsDocNa
	cmp	esi, 122				; 0000007aH
	jle	SHORT $LN6@xmlIsDocNa
$LN27@xmlIsDocNa:
	cmp	esi, 192				; 000000c0H
	jl	SHORT $LN29@xmlIsDocNa
	cmp	esi, 214				; 000000d6H
	jle	SHORT $LN6@xmlIsDocNa
$LN29@xmlIsDocNa:
	cmp	esi, 216				; 000000d8H
	jl	SHORT $LN30@xmlIsDocNa
	cmp	esi, 246				; 000000f6H
	jle	SHORT $LN6@xmlIsDocNa
$LN30@xmlIsDocNa:
	cmp	esi, 248				; 000000f8H
	jl	SHORT $LN48@xmlIsDocNa
$LN6@xmlIsDocNa:

; 3496 : 	    ((c >= 0x10000) && (c <= 0xEFFFF)))
; 3497 : 	     return(1);

	mov	eax, 1
	pop	esi

; 3507 : }

	pop	ebp
	ret	0
$LN32@xmlIsDocNa:

; 3498 :     } else {
; 3499 :         if ((IS_LETTER(c)) || (IS_DIGIT(c)) ||
; 3500 :             (c == '.') || (c == '-') ||
; 3501 : 	    (c == '_') || (c == ':') ||
; 3502 : 	    (IS_COMBINING(c)) ||

	push	OFFSET _xmlIsBaseCharGroup
	push	esi
	call	_xmlCharInRange
	add	esp, 8
	test	eax, eax
	jne	SHORT $LN6@xmlIsDocNa
$LN48@xmlIsDocNa:
	cmp	esi, 256				; 00000100H
	jl	SHORT $LN54@xmlIsDocNa
	cmp	esi, 19968				; 00004e00H
	jl	SHORT $LN34@xmlIsDocNa
	cmp	esi, 40869				; 00009fa5H
	jle	SHORT $LN6@xmlIsDocNa
$LN34@xmlIsDocNa:
	cmp	esi, 12295				; 00003007H
	je	SHORT $LN6@xmlIsDocNa
	cmp	esi, 12321				; 00003021H
	jl	SHORT $LN51@xmlIsDocNa
	cmp	esi, 12329				; 00003029H
	jle	SHORT $LN6@xmlIsDocNa
$LN51@xmlIsDocNa:
	cmp	esi, 256				; 00000100H
	jge	SHORT $LN42@xmlIsDocNa
$LN54@xmlIsDocNa:
	lea	eax, DWORD PTR [esi-48]
	cmp	eax, 9
	ja	SHORT $LN49@xmlIsDocNa

; 3496 : 	    ((c >= 0x10000) && (c <= 0xEFFFF)))
; 3497 : 	     return(1);

	mov	eax, 1
	pop	esi

; 3507 : }

	pop	ebp
	ret	0
$LN42@xmlIsDocNa:

; 3498 :     } else {
; 3499 :         if ((IS_LETTER(c)) || (IS_DIGIT(c)) ||
; 3500 :             (c == '.') || (c == '-') ||
; 3501 : 	    (c == '_') || (c == ':') ||
; 3502 : 	    (IS_COMBINING(c)) ||

	push	OFFSET _xmlIsDigitGroup
	push	esi
	call	_xmlCharInRange
	add	esp, 8
	test	eax, eax
	jne	SHORT $LN6@xmlIsDocNa
$LN49@xmlIsDocNa:
	cmp	esi, 46					; 0000002eH
	je	SHORT $LN6@xmlIsDocNa
	cmp	esi, 45					; 0000002dH
	je	SHORT $LN6@xmlIsDocNa
	cmp	esi, 95					; 0000005fH
	je	$LN6@xmlIsDocNa
	cmp	esi, 58					; 0000003aH
	je	$LN6@xmlIsDocNa
	cmp	esi, 256				; 00000100H
	jl	SHORT $LN52@xmlIsDocNa
	push	OFFSET _xmlIsCombiningGroup
	push	esi
	call	_xmlCharInRange
	add	esp, 8
	test	eax, eax
	jne	$LN6@xmlIsDocNa
	push	OFFSET _xmlIsExtenderGroup
	push	esi
	call	_xmlCharInRange
	add	esp, 8
	jmp	SHORT $LN47@xmlIsDocNa
$LN52@xmlIsDocNa:
	xor	eax, eax
	cmp	esi, 183				; 000000b7H
	sete	al
$LN47@xmlIsDocNa:
	test	eax, eax
	je	$LN5@xmlIsDocNa

; 3496 : 	    ((c >= 0x10000) && (c <= 0xEFFFF)))
; 3497 : 	     return(1);

	mov	eax, 1
	pop	esi

; 3507 : }

	pop	ebp
	ret	0
$LN4@xmlIsDocNa:

; 3474 :         /*
; 3475 : 	 * Use the new checks of production [4] [4a] amd [5] of the
; 3476 : 	 * Update 5 of XML-1.0
; 3477 : 	 */
; 3478 : 	if (((c >= 'a') && (c <= 'z')) ||
; 3479 : 	    ((c >= 'A') && (c <= 'Z')) ||
; 3480 : 	    ((c >= '0') && (c <= '9')) || /* !start */
; 3481 : 	    (c == '_') || (c == ':') ||
; 3482 : 	    (c == '-') || (c == '.') || (c == 0xB7) || /* !start */
; 3483 : 	    ((c >= 0xC0) && (c <= 0xD6)) ||
; 3484 : 	    ((c >= 0xD8) && (c <= 0xF6)) ||
; 3485 : 	    ((c >= 0xF8) && (c <= 0x2FF)) ||
; 3486 : 	    ((c >= 0x300) && (c <= 0x36F)) || /* !start */
; 3487 : 	    ((c >= 0x370) && (c <= 0x37D)) ||
; 3488 : 	    ((c >= 0x37F) && (c <= 0x1FFF)) ||
; 3489 : 	    ((c >= 0x200C) && (c <= 0x200D)) ||
; 3490 : 	    ((c >= 0x203F) && (c <= 0x2040)) || /* !start */
; 3491 : 	    ((c >= 0x2070) && (c <= 0x218F)) ||
; 3492 : 	    ((c >= 0x2C00) && (c <= 0x2FEF)) ||
; 3493 : 	    ((c >= 0x3001) && (c <= 0xD7FF)) ||
; 3494 : 	    ((c >= 0xF900) && (c <= 0xFDCF)) ||
; 3495 : 	    ((c >= 0xFDF0) && (c <= 0xFFFD)) ||

	mov	eax, DWORD PTR _c$[ebp]
	cmp	eax, 97					; 00000061H
	jl	SHORT $LN7@xmlIsDocNa
	cmp	eax, 122				; 0000007aH
	jle	$LN6@xmlIsDocNa
$LN7@xmlIsDocNa:
	cmp	eax, 65					; 00000041H
	jl	SHORT $LN8@xmlIsDocNa
	cmp	eax, 90					; 0000005aH
	jle	$LN6@xmlIsDocNa
$LN8@xmlIsDocNa:
	cmp	eax, 48					; 00000030H
	jl	SHORT $LN9@xmlIsDocNa
	cmp	eax, 57					; 00000039H
	jle	$LN6@xmlIsDocNa
$LN9@xmlIsDocNa:
	cmp	eax, 95					; 0000005fH
	je	$LN6@xmlIsDocNa
	cmp	eax, 58					; 0000003aH
	je	$LN6@xmlIsDocNa
	cmp	eax, 45					; 0000002dH
	je	$LN6@xmlIsDocNa
	cmp	eax, 46					; 0000002eH
	je	$LN6@xmlIsDocNa
	cmp	eax, 183				; 000000b7H
	je	$LN6@xmlIsDocNa
	cmp	eax, 192				; 000000c0H
	jl	SHORT $LN10@xmlIsDocNa
	cmp	eax, 214				; 000000d6H
	jle	$LN6@xmlIsDocNa
$LN10@xmlIsDocNa:
	cmp	eax, 216				; 000000d8H
	jl	SHORT $LN11@xmlIsDocNa
	cmp	eax, 246				; 000000f6H
	jle	$LN6@xmlIsDocNa
$LN11@xmlIsDocNa:
	cmp	eax, 248				; 000000f8H
	jl	SHORT $LN12@xmlIsDocNa
	cmp	eax, 767				; 000002ffH
	jle	$LN6@xmlIsDocNa
$LN12@xmlIsDocNa:
	cmp	eax, 768				; 00000300H
	jl	SHORT $LN13@xmlIsDocNa
	cmp	eax, 879				; 0000036fH
	jle	$LN6@xmlIsDocNa
$LN13@xmlIsDocNa:
	cmp	eax, 880				; 00000370H
	jl	SHORT $LN14@xmlIsDocNa
	cmp	eax, 893				; 0000037dH
	jle	$LN6@xmlIsDocNa
$LN14@xmlIsDocNa:
	cmp	eax, 895				; 0000037fH
	jl	SHORT $LN15@xmlIsDocNa
	cmp	eax, 8191				; 00001fffH
	jle	$LN6@xmlIsDocNa
$LN15@xmlIsDocNa:
	cmp	eax, 8204				; 0000200cH
	jl	SHORT $LN16@xmlIsDocNa
	cmp	eax, 8205				; 0000200dH
	jle	$LN6@xmlIsDocNa
$LN16@xmlIsDocNa:
	cmp	eax, 8255				; 0000203fH
	jl	SHORT $LN17@xmlIsDocNa
	cmp	eax, 8256				; 00002040H
	jle	$LN6@xmlIsDocNa
$LN17@xmlIsDocNa:
	cmp	eax, 8304				; 00002070H
	jl	SHORT $LN18@xmlIsDocNa
	cmp	eax, 8591				; 0000218fH
	jle	$LN6@xmlIsDocNa
$LN18@xmlIsDocNa:
	cmp	eax, 11264				; 00002c00H
	jl	SHORT $LN19@xmlIsDocNa
	cmp	eax, 12271				; 00002fefH
	jle	$LN6@xmlIsDocNa
$LN19@xmlIsDocNa:
	cmp	eax, 12289				; 00003001H
	jl	SHORT $LN20@xmlIsDocNa
	cmp	eax, 55295				; 0000d7ffH
	jle	$LN6@xmlIsDocNa
$LN20@xmlIsDocNa:
	cmp	eax, 63744				; 0000f900H
	jl	SHORT $LN21@xmlIsDocNa
	cmp	eax, 64975				; 0000fdcfH
	jle	$LN6@xmlIsDocNa
$LN21@xmlIsDocNa:
	cmp	eax, 65008				; 0000fdf0H
	jl	SHORT $LN22@xmlIsDocNa
	cmp	eax, 65533				; 0000fffdH
	jle	$LN6@xmlIsDocNa
$LN22@xmlIsDocNa:
	cmp	eax, 65536				; 00010000H
	jl	SHORT $LN5@xmlIsDocNa
	cmp	eax, 983039				; 000effffH
	jle	$LN6@xmlIsDocNa
$LN5@xmlIsDocNa:

; 3503 : 	    (IS_EXTENDER(c)))
; 3504 : 	    return(1);
; 3505 :     }
; 3506 :     return(0);

	xor	eax, eax
	pop	esi

; 3507 : }

	pop	ebp
	ret	0
_xmlIsDocNameChar ENDP
_TEXT	ENDS
; Function compile flags: /Ogtp
; File c:\users\dag\documents\_clients\codeproject authors group\windows on arm\libxml2\libxml2-2.9.9\valid.c
;	COMDAT _xmlIsDocNameStartChar
_TEXT	SEGMENT
_doc$ = 8						; size = 4
_c$ = 12						; size = 4
_xmlIsDocNameStartChar PROC				; COMDAT

; 3442 : xmlIsDocNameStartChar(xmlDocPtr doc, int c) {

	push	ebp
	mov	ebp, esp
	push	esi
	mov	ecx, OFFSET __56F63275_valid@c
	call	@__CheckForDebuggerJustMyCode@4
	mov	eax, DWORD PTR _doc$[ebp]
	test	eax, eax
	je	$LN4@xmlIsDocNa

; 3443 :     if ((doc == NULL) || (doc->properties & XML_DOC_OLD10) == 0) {

	test	BYTE PTR [eax+92], 4
	je	$LN4@xmlIsDocNa

; 3464 :     } else {
; 3465 :         if (IS_LETTER(c) || (c == '_') || (c == ':'))

	mov	esi, DWORD PTR _c$[ebp]
	cmp	esi, 256				; 00000100H
	jge	SHORT $LN29@xmlIsDocNa
	cmp	esi, 65					; 00000041H
	jl	SHORT $LN23@xmlIsDocNa
	cmp	esi, 90					; 0000005aH
	jle	SHORT $LN6@xmlIsDocNa
$LN23@xmlIsDocNa:
	cmp	esi, 97					; 00000061H
	jl	SHORT $LN24@xmlIsDocNa
	cmp	esi, 122				; 0000007aH
	jle	SHORT $LN6@xmlIsDocNa
$LN24@xmlIsDocNa:
	cmp	esi, 192				; 000000c0H
	jl	SHORT $LN26@xmlIsDocNa
	cmp	esi, 214				; 000000d6H
	jle	SHORT $LN6@xmlIsDocNa
$LN26@xmlIsDocNa:
	cmp	esi, 216				; 000000d8H
	jl	SHORT $LN27@xmlIsDocNa
	cmp	esi, 246				; 000000f6H
	jle	SHORT $LN6@xmlIsDocNa
$LN27@xmlIsDocNa:
	cmp	esi, 248				; 000000f8H
	jl	SHORT $LN37@xmlIsDocNa
$LN6@xmlIsDocNa:

; 3462 : 	    ((c >= 0x10000) && (c <= 0xEFFFF)))
; 3463 : 	    return(1);

	mov	eax, 1
	pop	esi

; 3469 : }

	pop	ebp
	ret	0
$LN29@xmlIsDocNa:

; 3464 :     } else {
; 3465 :         if (IS_LETTER(c) || (c == '_') || (c == ':'))

	push	OFFSET _xmlIsBaseCharGroup
	push	esi
	call	_xmlCharInRange
	add	esp, 8
	test	eax, eax
	jne	SHORT $LN6@xmlIsDocNa
$LN37@xmlIsDocNa:
	cmp	esi, 256				; 00000100H
	jl	SHORT $LN38@xmlIsDocNa
	cmp	esi, 19968				; 00004e00H
	jl	SHORT $LN31@xmlIsDocNa
	cmp	esi, 40869				; 00009fa5H
	jle	SHORT $LN6@xmlIsDocNa
$LN31@xmlIsDocNa:
	cmp	esi, 12295				; 00003007H
	je	SHORT $LN6@xmlIsDocNa
	cmp	esi, 12321				; 00003021H
	jl	SHORT $LN38@xmlIsDocNa
	cmp	esi, 12329				; 00003029H
	jle	SHORT $LN6@xmlIsDocNa
$LN38@xmlIsDocNa:
	cmp	esi, 95					; 0000005fH
	je	SHORT $LN6@xmlIsDocNa
	cmp	esi, 58					; 0000003aH
	jne	$LN5@xmlIsDocNa

; 3462 : 	    ((c >= 0x10000) && (c <= 0xEFFFF)))
; 3463 : 	    return(1);

	lea	eax, DWORD PTR [esi-57]
	pop	esi

; 3469 : }

	pop	ebp
	ret	0
$LN4@xmlIsDocNa:

; 3444 :         /*
; 3445 : 	 * Use the new checks of production [4] [4a] amd [5] of the
; 3446 : 	 * Update 5 of XML-1.0
; 3447 : 	 */
; 3448 : 	if (((c >= 'a') && (c <= 'z')) ||
; 3449 : 	    ((c >= 'A') && (c <= 'Z')) ||
; 3450 : 	    (c == '_') || (c == ':') ||
; 3451 : 	    ((c >= 0xC0) && (c <= 0xD6)) ||
; 3452 : 	    ((c >= 0xD8) && (c <= 0xF6)) ||
; 3453 : 	    ((c >= 0xF8) && (c <= 0x2FF)) ||
; 3454 : 	    ((c >= 0x370) && (c <= 0x37D)) ||
; 3455 : 	    ((c >= 0x37F) && (c <= 0x1FFF)) ||
; 3456 : 	    ((c >= 0x200C) && (c <= 0x200D)) ||
; 3457 : 	    ((c >= 0x2070) && (c <= 0x218F)) ||
; 3458 : 	    ((c >= 0x2C00) && (c <= 0x2FEF)) ||
; 3459 : 	    ((c >= 0x3001) && (c <= 0xD7FF)) ||
; 3460 : 	    ((c >= 0xF900) && (c <= 0xFDCF)) ||
; 3461 : 	    ((c >= 0xFDF0) && (c <= 0xFFFD)) ||

	mov	eax, DWORD PTR _c$[ebp]
	cmp	eax, 97					; 00000061H
	jl	SHORT $LN7@xmlIsDocNa
	cmp	eax, 122				; 0000007aH
	jle	SHORT $LN6@xmlIsDocNa
$LN7@xmlIsDocNa:
	cmp	eax, 65					; 00000041H
	jl	SHORT $LN8@xmlIsDocNa
	cmp	eax, 90					; 0000005aH
	jle	SHORT $LN6@xmlIsDocNa
$LN8@xmlIsDocNa:
	cmp	eax, 95					; 0000005fH
	je	SHORT $LN6@xmlIsDocNa
	cmp	eax, 58					; 0000003aH
	je	SHORT $LN6@xmlIsDocNa
	cmp	eax, 192				; 000000c0H
	jl	SHORT $LN9@xmlIsDocNa
	cmp	eax, 214				; 000000d6H
	jle	$LN6@xmlIsDocNa
$LN9@xmlIsDocNa:
	cmp	eax, 216				; 000000d8H
	jl	SHORT $LN10@xmlIsDocNa
	cmp	eax, 246				; 000000f6H
	jle	$LN6@xmlIsDocNa
$LN10@xmlIsDocNa:
	cmp	eax, 248				; 000000f8H
	jl	SHORT $LN11@xmlIsDocNa
	cmp	eax, 767				; 000002ffH
	jle	$LN6@xmlIsDocNa
$LN11@xmlIsDocNa:
	cmp	eax, 880				; 00000370H
	jl	SHORT $LN12@xmlIsDocNa
	cmp	eax, 893				; 0000037dH
	jle	$LN6@xmlIsDocNa
$LN12@xmlIsDocNa:
	cmp	eax, 895				; 0000037fH
	jl	SHORT $LN13@xmlIsDocNa
	cmp	eax, 8191				; 00001fffH
	jle	$LN6@xmlIsDocNa
$LN13@xmlIsDocNa:
	cmp	eax, 8204				; 0000200cH
	jl	SHORT $LN14@xmlIsDocNa
	cmp	eax, 8205				; 0000200dH
	jle	$LN6@xmlIsDocNa
$LN14@xmlIsDocNa:
	cmp	eax, 8304				; 00002070H
	jl	SHORT $LN15@xmlIsDocNa
	cmp	eax, 8591				; 0000218fH
	jle	$LN6@xmlIsDocNa
$LN15@xmlIsDocNa:
	cmp	eax, 11264				; 00002c00H
	jl	SHORT $LN16@xmlIsDocNa
	cmp	eax, 12271				; 00002fefH
	jle	$LN6@xmlIsDocNa
$LN16@xmlIsDocNa:
	cmp	eax, 12289				; 00003001H
	jl	SHORT $LN17@xmlIsDocNa
	cmp	eax, 55295				; 0000d7ffH
	jle	$LN6@xmlIsDocNa
$LN17@xmlIsDocNa:
	cmp	eax, 63744				; 0000f900H
	jl	SHORT $LN18@xmlIsDocNa
	cmp	eax, 64975				; 0000fdcfH
	jle	$LN6@xmlIsDocNa
$LN18@xmlIsDocNa:
	cmp	eax, 65008				; 0000fdf0H
	jl	SHORT $LN19@xmlIsDocNa
	cmp	eax, 65533				; 0000fffdH
	jle	$LN6@xmlIsDocNa
$LN19@xmlIsDocNa:
	cmp	eax, 65536				; 00010000H
	jl	SHORT $LN5@xmlIsDocNa
	cmp	eax, 983039				; 000effffH
	jle	$LN6@xmlIsDocNa
$LN5@xmlIsDocNa:

; 3466 : 	    return(1);
; 3467 :     }
; 3468 :     return(0);

	xor	eax, eax
	pop	esi

; 3469 : }

	pop	ebp
	ret	0
_xmlIsDocNameStartChar ENDP
_TEXT	ENDS
; Function compile flags: /Ogtp
; File c:\users\dag\documents\_clients\codeproject authors group\windows on arm\libxml2\libxml2-2.9.9\valid.c
;	COMDAT _xmlDummyCompare
_TEXT	SEGMENT
_data0$ = 8						; size = 4
_data1$ = 12						; size = 4
_xmlDummyCompare PROC					; COMDAT
	mov	ecx, OFFSET __56F63275_valid@c
	call	@__CheckForDebuggerJustMyCode@4
	xor	eax, eax
	ret	0
_xmlDummyCompare ENDP
_TEXT	ENDS
; Function compile flags: /Ogtp
; File c:\users\dag\documents\_clients\codeproject authors group\windows on arm\libxml2\libxml2-2.9.9\valid.c
;	COMDAT _xmlWalkRemoveRef
_TEXT	SEGMENT
_data$ = 8						; size = 4
_user$ = 12						; size = 4
_xmlWalkRemoveRef PROC					; COMDAT

; 2892 : {

	push	ebp
	mov	ebp, esp
	mov	ecx, OFFSET __56F63275_valid@c
	call	@__CheckForDebuggerJustMyCode@4
	mov	ecx, DWORD PTR _data$[ebp]
	mov	edx, DWORD PTR _user$[ebp]
	mov	eax, DWORD PTR [ecx+8]
	cmp	eax, DWORD PTR [edx+4]
	jne	SHORT $LN2@xmlWalkRem

; 2893 :     xmlAttrPtr attr0 = ((xmlRefPtr)data)->attr;
; 2894 :     xmlAttrPtr attr1 = ((xmlRemoveMemoPtr)user)->ap;
; 2895 :     xmlListPtr ref_list = ((xmlRemoveMemoPtr)user)->l;
; 2896 : 
; 2897 :     if (attr0 == attr1) { /* Matched: remove and terminate walk */
; 2898 :         xmlListRemoveFirst(ref_list, (void *)data);

	push	ecx
	push	DWORD PTR [edx]
	call	_xmlListRemoveFirst
	add	esp, 8

; 2899 :         return 0;

	xor	eax, eax

; 2902 : }

	pop	ebp
	ret	0
$LN2@xmlWalkRem:

; 2900 :     }
; 2901 :     return 1;

	mov	eax, 1

; 2902 : }

	pop	ebp
	ret	0
_xmlWalkRemoveRef ENDP
_TEXT	ENDS
; Function compile flags: /Ogtp
; File c:\users\dag\documents\_clients\codeproject authors group\windows on arm\libxml2\libxml2-2.9.9\valid.c
;	COMDAT _xmlFreeRefTableEntry
_TEXT	SEGMENT
_payload$ = 8						; size = 4
_name$ = 12						; size = 4
_xmlFreeRefTableEntry PROC				; COMDAT

; 2877 : xmlFreeRefTableEntry(void *payload, const xmlChar *name ATTRIBUTE_UNUSED) {

	push	ebp
	mov	ebp, esp
	mov	ecx, OFFSET __56F63275_valid@c
	call	@__CheckForDebuggerJustMyCode@4
	mov	eax, DWORD PTR _payload$[ebp]
	test	eax, eax
	je	SHORT $LN1@xmlFreeRef

; 2878 :     xmlListPtr list_ref = (xmlListPtr) payload;
; 2879 :     if (list_ref == NULL) return;
; 2880 :     xmlListDelete(list_ref);

	push	eax
	call	_xmlListDelete
	add	esp, 4
$LN1@xmlFreeRef:

; 2881 : }

	pop	ebp
	ret	0
_xmlFreeRefTableEntry ENDP
_TEXT	ENDS
; Function compile flags: /Ogtp
; File c:\users\dag\documents\_clients\codeproject authors group\windows on arm\libxml2\libxml2-2.9.9\valid.c
;	COMDAT _xmlFreeRef
_TEXT	SEGMENT
_lk$ = 8						; size = 4
_xmlFreeRef PROC					; COMDAT

; 2860 : xmlFreeRef(xmlLinkPtr lk) {

	push	ebp
	mov	ebp, esp
	push	esi
	mov	ecx, OFFSET __56F63275_valid@c
	call	@__CheckForDebuggerJustMyCode@4
	push	DWORD PTR _lk$[ebp]
	call	_xmlLinkGetData
	mov	esi, eax
	add	esp, 4
	test	esi, esi
	je	SHORT $LN1@xmlFreeRef

; 2861 :     xmlRefPtr ref = (xmlRefPtr)xmlLinkGetData(lk);
; 2862 :     if (ref == NULL) return;
; 2863 :     if (ref->value != NULL)

	mov	eax, DWORD PTR [esi+4]
	test	eax, eax
	je	SHORT $LN3@xmlFreeRef

; 2864 :         xmlFree((xmlChar *)ref->value);

	push	eax
	call	DWORD PTR _xmlFree
	add	esp, 4
$LN3@xmlFreeRef:

; 2865 :     if (ref->name != NULL)

	mov	eax, DWORD PTR [esi+12]
	test	eax, eax
	je	SHORT $LN4@xmlFreeRef

; 2866 :         xmlFree((xmlChar *)ref->name);

	push	eax
	call	DWORD PTR _xmlFree
	add	esp, 4
$LN4@xmlFreeRef:

; 2867 :     xmlFree(ref);

	push	esi
	call	DWORD PTR _xmlFree
	add	esp, 4
$LN1@xmlFreeRef:
	pop	esi

; 2868 : }

	pop	ebp
	ret	0
_xmlFreeRef ENDP
_TEXT	ENDS
; Function compile flags: /Ogtp
; File c:\users\dag\documents\_clients\codeproject authors group\windows on arm\libxml2\libxml2-2.9.9\valid.c
;	COMDAT _xmlFreeIDTableEntry
_TEXT	SEGMENT
_id$ = 8						; size = 4
_name$ = 12						; size = 4
_xmlFreeIDTableEntry PROC				; COMDAT

; 2675 : xmlFreeIDTableEntry(void *id, const xmlChar *name ATTRIBUTE_UNUSED) {

	push	ebp
	mov	ebp, esp
	mov	ecx, OFFSET __56F63275_valid@c
	call	@__CheckForDebuggerJustMyCode@4
	push	DWORD PTR _id$[ebp]
	call	_xmlFreeID
	add	esp, 4

; 2676 :     xmlFreeID((xmlIDPtr) id);
; 2677 : }

	pop	ebp
	ret	0
_xmlFreeIDTableEntry ENDP
_TEXT	ENDS
; Function compile flags: /Ogtp
; File c:\users\dag\documents\_clients\codeproject authors group\windows on arm\libxml2\libxml2-2.9.9\valid.c
;	COMDAT _xmlFreeID
_TEXT	SEGMENT
_id$ = 8						; size = 4
_xmlFreeID PROC						; COMDAT

; 2574 : xmlFreeID(xmlIDPtr id) {

	push	ebp
	mov	ebp, esp
	push	esi
	push	edi
	mov	ecx, OFFSET __56F63275_valid@c
	call	@__CheckForDebuggerJustMyCode@4
	mov	esi, DWORD PTR _id$[ebp]
	xor	edi, edi
	test	esi, esi
	je	SHORT $LN1@xmlFreeID

; 2575 :     xmlDictPtr dict = NULL;
; 2576 : 
; 2577 :     if (id == NULL) return;
; 2578 : 
; 2579 :     if (id->doc != NULL)

	mov	eax, DWORD PTR [esi+20]
	test	eax, eax
	je	SHORT $LN3@xmlFreeID

; 2580 :         dict = id->doc->dict;

	mov	edi, DWORD PTR [eax+80]
$LN3@xmlFreeID:

; 2581 : 
; 2582 :     if (id->value != NULL)

	mov	eax, DWORD PTR [esi+4]
	test	eax, eax
	je	SHORT $LN5@xmlFreeID

; 2583 : 	DICT_FREE(id->value)

	test	edi, edi
	je	SHORT $LN6@xmlFreeID
	push	eax
	push	edi
	call	_xmlDictOwns
	add	esp, 8
	test	eax, eax
	jne	SHORT $LN5@xmlFreeID
$LN6@xmlFreeID:
	push	DWORD PTR [esi+4]
	call	DWORD PTR _xmlFree
	add	esp, 4
$LN5@xmlFreeID:

; 2584 :     if (id->name != NULL)

	mov	eax, DWORD PTR [esi+12]
	test	eax, eax
	je	SHORT $LN8@xmlFreeID

; 2585 : 	DICT_FREE(id->name)

	test	edi, edi
	je	SHORT $LN9@xmlFreeID
	push	eax
	push	edi
	call	_xmlDictOwns
	add	esp, 8
	test	eax, eax
	jne	SHORT $LN8@xmlFreeID
$LN9@xmlFreeID:
	push	DWORD PTR [esi+12]
	call	DWORD PTR _xmlFree
	add	esp, 4
$LN8@xmlFreeID:

; 2586 :     xmlFree(id);

	push	esi
	call	DWORD PTR _xmlFree
	add	esp, 4
$LN1@xmlFreeID:

; 2587 : }

	pop	edi
	pop	esi
	pop	ebp
	ret	0
_xmlFreeID ENDP
_TEXT	ENDS
; Function compile flags: /Ogtp
; File c:\users\dag\documents\_clients\codeproject authors group\windows on arm\libxml2\libxml2-2.9.9\valid.c
;	COMDAT _xmlDumpNotationDeclScan
_TEXT	SEGMENT
_nota$ = 8						; size = 4
_buf$ = 12						; size = 4
_name$ = 16						; size = 4
_xmlDumpNotationDeclScan PROC				; COMDAT

; 2531 :                         const xmlChar *name ATTRIBUTE_UNUSED) {

	push	ebp
	mov	ebp, esp
	mov	ecx, OFFSET __56F63275_valid@c
	call	@__CheckForDebuggerJustMyCode@4
	push	DWORD PTR _nota$[ebp]
	push	DWORD PTR _buf$[ebp]
	call	_xmlDumpNotationDecl
	add	esp, 8

; 2532 :     xmlDumpNotationDecl((xmlBufferPtr) buf, (xmlNotationPtr) nota);
; 2533 : }

	pop	ebp
	ret	0
_xmlDumpNotationDeclScan ENDP
_TEXT	ENDS
; Function compile flags: /Ogtp
; File c:\users\dag\documents\_clients\codeproject authors group\windows on arm\libxml2\libxml2-2.9.9\valid.c
;	COMDAT _xmlCopyNotation
_TEXT	SEGMENT
_payload$ = 8						; size = 4
_name$ = 12						; size = 4
_xmlCopyNotation PROC					; COMDAT

; 2456 : xmlCopyNotation(void *payload, const xmlChar *name ATTRIBUTE_UNUSED) {

	push	ebp
	mov	ebp, esp
	push	esi
	mov	ecx, OFFSET __56F63275_valid@c
	call	@__CheckForDebuggerJustMyCode@4
	push	12					; 0000000cH
	call	DWORD PTR _xmlMalloc
	mov	esi, eax
	add	esp, 4
	test	esi, esi
	jne	SHORT $LN2@xmlCopyNot

; 77   :         __xmlRaiseError(NULL, channel, data,

	push	OFFSET ??_C@_0O@IMHFIAOC@malloc?5failed@
	push	OFFSET ??_C@_0BP@DJFHNAOK@Memory?5allocation?5failed?5?3?5?$CFs?6@
	push	eax
	push	eax
	push	eax
	push	eax
	push	OFFSET ??_C@_0O@IMHFIAOC@malloc?5failed@
	push	eax
	push	eax
	push	3
	push	2
	push	23					; 00000017H
	push	eax
	push	eax
	push	eax
	push	eax
	push	eax
	call	___xmlRaiseError
	add	esp, 68					; 00000044H

; 2457 :     xmlNotationPtr nota = (xmlNotationPtr) payload;
; 2458 :     xmlNotationPtr cur;
; 2459 : 
; 2460 :     cur = (xmlNotationPtr) xmlMalloc(sizeof(xmlNotation));
; 2461 :     if (cur == NULL) {
; 2462 : 	xmlVErrMemory(NULL, "malloc failed");
; 2463 : 	return(NULL);

	xor	eax, eax
	pop	esi

; 2478 : }

	pop	ebp
	ret	0
$LN2@xmlCopyNot:
	push	edi

; 2464 :     }
; 2465 :     if (nota->name != NULL)

	mov	edi, DWORD PTR _payload$[ebp]
	mov	eax, DWORD PTR [edi]
	test	eax, eax
	je	SHORT $LN3@xmlCopyNot

; 2466 : 	cur->name = xmlStrdup(nota->name);

	push	eax
	call	_xmlStrdup
	add	esp, 4
	jmp	SHORT $LN4@xmlCopyNot
$LN3@xmlCopyNot:

; 2467 :     else
; 2468 : 	cur->name = NULL;

	xor	eax, eax
$LN4@xmlCopyNot:

; 2469 :     if (nota->PublicID != NULL)

	mov	DWORD PTR [esi], eax
	mov	eax, DWORD PTR [edi+4]
	test	eax, eax
	je	SHORT $LN5@xmlCopyNot

; 2470 : 	cur->PublicID = xmlStrdup(nota->PublicID);

	push	eax
	call	_xmlStrdup
	add	esp, 4
	jmp	SHORT $LN6@xmlCopyNot
$LN5@xmlCopyNot:

; 2471 :     else
; 2472 : 	cur->PublicID = NULL;

	xor	eax, eax
$LN6@xmlCopyNot:

; 2473 :     if (nota->SystemID != NULL)

	mov	DWORD PTR [esi+4], eax
	mov	eax, DWORD PTR [edi+8]
	pop	edi
	test	eax, eax
	je	SHORT $LN7@xmlCopyNot

; 2474 : 	cur->SystemID = xmlStrdup(nota->SystemID);

	push	eax
	call	_xmlStrdup
	add	esp, 4

; 2477 :     return(cur);

	mov	DWORD PTR [esi+8], eax
	mov	eax, esi
	pop	esi

; 2478 : }

	pop	ebp
	ret	0
$LN7@xmlCopyNot:

; 2475 :     else
; 2476 : 	cur->SystemID = NULL;

	xor	eax, eax

; 2477 :     return(cur);

	mov	DWORD PTR [esi+8], eax
	mov	eax, esi
	pop	esi

; 2478 : }

	pop	ebp
	ret	0
_xmlCopyNotation ENDP
_TEXT	ENDS
; Function compile flags: /Ogtp
; File c:\users\dag\documents\_clients\codeproject authors group\windows on arm\libxml2\libxml2-2.9.9\valid.c
;	COMDAT _xmlFreeNotationTableEntry
_TEXT	SEGMENT
_nota$ = 8						; size = 4
_name$ = 12						; size = 4
_xmlFreeNotationTableEntry PROC				; COMDAT

; 2431 : xmlFreeNotationTableEntry(void *nota, const xmlChar *name ATTRIBUTE_UNUSED) {

	push	ebp
	mov	ebp, esp
	push	esi
	mov	ecx, OFFSET __56F63275_valid@c
	call	@__CheckForDebuggerJustMyCode@4

; 2341 :     if (nota == NULL) return;

	mov	esi, DWORD PTR _nota$[ebp]
	test	esi, esi
	je	SHORT $LN3@xmlFreeNot

; 2342 :     if (nota->name != NULL)

	mov	eax, DWORD PTR [esi]
	test	eax, eax
	je	SHORT $LN5@xmlFreeNot

; 2343 : 	xmlFree((xmlChar *) nota->name);

	push	eax
	call	DWORD PTR _xmlFree
	add	esp, 4
$LN5@xmlFreeNot:

; 2344 :     if (nota->PublicID != NULL)

	mov	eax, DWORD PTR [esi+4]
	test	eax, eax
	je	SHORT $LN6@xmlFreeNot

; 2345 : 	xmlFree((xmlChar *) nota->PublicID);

	push	eax
	call	DWORD PTR _xmlFree
	add	esp, 4
$LN6@xmlFreeNot:

; 2346 :     if (nota->SystemID != NULL)

	mov	eax, DWORD PTR [esi+8]
	test	eax, eax
	je	SHORT $LN7@xmlFreeNot

; 2347 : 	xmlFree((xmlChar *) nota->SystemID);

	push	eax
	call	DWORD PTR _xmlFree
	add	esp, 4
$LN7@xmlFreeNot:

; 2348 :     xmlFree(nota);

	push	esi
	call	DWORD PTR _xmlFree
	add	esp, 4
$LN3@xmlFreeNot:
	pop	esi

; 2432 :     xmlFreeNotation((xmlNotationPtr) nota);
; 2433 : }

	pop	ebp
	ret	0
_xmlFreeNotationTableEntry ENDP
_TEXT	ENDS
; Function compile flags: /Ogtp
; File c:\users\dag\documents\_clients\codeproject authors group\windows on arm\libxml2\libxml2-2.9.9\valid.c
;	COMDAT _xmlFreeNotation
_TEXT	SEGMENT
_nota$ = 8						; size = 4
_xmlFreeNotation PROC					; COMDAT

; 2340 : xmlFreeNotation(xmlNotationPtr nota) {

	push	ebp
	mov	ebp, esp
	push	esi
	mov	ecx, OFFSET __56F63275_valid@c
	call	@__CheckForDebuggerJustMyCode@4
	mov	esi, DWORD PTR _nota$[ebp]
	test	esi, esi
	je	SHORT $LN1@xmlFreeNot

; 2341 :     if (nota == NULL) return;
; 2342 :     if (nota->name != NULL)

	mov	eax, DWORD PTR [esi]
	test	eax, eax
	je	SHORT $LN3@xmlFreeNot

; 2343 : 	xmlFree((xmlChar *) nota->name);

	push	eax
	call	DWORD PTR _xmlFree
	add	esp, 4
$LN3@xmlFreeNot:

; 2344 :     if (nota->PublicID != NULL)

	mov	eax, DWORD PTR [esi+4]
	test	eax, eax
	je	SHORT $LN4@xmlFreeNot

; 2345 : 	xmlFree((xmlChar *) nota->PublicID);

	push	eax
	call	DWORD PTR _xmlFree
	add	esp, 4
$LN4@xmlFreeNot:

; 2346 :     if (nota->SystemID != NULL)

	mov	eax, DWORD PTR [esi+8]
	test	eax, eax
	je	SHORT $LN5@xmlFreeNot

; 2347 : 	xmlFree((xmlChar *) nota->SystemID);

	push	eax
	call	DWORD PTR _xmlFree
	add	esp, 4
$LN5@xmlFreeNot:

; 2348 :     xmlFree(nota);

	push	esi
	call	DWORD PTR _xmlFree
	add	esp, 4
$LN1@xmlFreeNot:
	pop	esi

; 2349 : }

	pop	ebp
	ret	0
_xmlFreeNotation ENDP
_TEXT	ENDS
; Function compile flags: /Ogtp
; File c:\users\dag\documents\_clients\codeproject authors group\windows on arm\libxml2\libxml2-2.9.9\valid.c
;	COMDAT _xmlDumpAttributeDeclScan
_TEXT	SEGMENT
_attr$ = 8						; size = 4
_buf$ = 12						; size = 4
_name$ = 16						; size = 4
_xmlDumpAttributeDeclScan PROC				; COMDAT

; 2309 :                          const xmlChar *name ATTRIBUTE_UNUSED) {

	push	ebp
	mov	ebp, esp
	mov	ecx, OFFSET __56F63275_valid@c
	call	@__CheckForDebuggerJustMyCode@4
	push	DWORD PTR _attr$[ebp]
	push	DWORD PTR _buf$[ebp]
	call	_xmlDumpAttributeDecl
	add	esp, 8

; 2310 :     xmlDumpAttributeDecl((xmlBufferPtr) buf, (xmlAttributePtr) attr);
; 2311 : }

	pop	ebp
	ret	0
_xmlDumpAttributeDeclScan ENDP
_TEXT	ENDS
; Function compile flags: /Ogtp
; File c:\users\dag\documents\_clients\codeproject authors group\windows on arm\libxml2\libxml2-2.9.9\valid.c
;	COMDAT _xmlCopyAttribute
_TEXT	SEGMENT
_cur$1$ = 8						; size = 4
_payload$ = 8						; size = 4
_name$ = 12						; size = 4
_xmlCopyAttribute PROC					; COMDAT

; 2178 : xmlCopyAttribute(void *payload, const xmlChar *name ATTRIBUTE_UNUSED) {

	push	ebp
	mov	ebp, esp
	push	esi
	mov	ecx, OFFSET __56F63275_valid@c
	call	@__CheckForDebuggerJustMyCode@4
	push	64					; 00000040H
	call	DWORD PTR _xmlMalloc
	mov	esi, eax
	add	esp, 4
	test	esi, esi
	jne	SHORT $LN2@xmlCopyAtt

; 77   :         __xmlRaiseError(NULL, channel, data,

	push	OFFSET ??_C@_0O@IMHFIAOC@malloc?5failed@
	push	OFFSET ??_C@_0BP@DJFHNAOK@Memory?5allocation?5failed?5?3?5?$CFs?6@
	push	eax
	push	eax
	push	eax
	push	eax
	push	OFFSET ??_C@_0O@IMHFIAOC@malloc?5failed@
	push	eax
	push	eax
	push	3
	push	2
	push	23					; 00000017H
	push	eax
	push	eax
	push	eax
	push	eax
	push	eax
	call	___xmlRaiseError
	add	esp, 68					; 00000044H

; 2179 :     xmlAttributePtr attr = (xmlAttributePtr) payload;
; 2180 :     xmlAttributePtr cur;
; 2181 : 
; 2182 :     cur = (xmlAttributePtr) xmlMalloc(sizeof(xmlAttribute));
; 2183 :     if (cur == NULL) {
; 2184 : 	xmlVErrMemory(NULL, "malloc failed");
; 2185 : 	return(NULL);

	xor	eax, eax
	pop	esi

; 2201 : }

	pop	ebp
	ret	0
$LN2@xmlCopyAtt:
	push	ebx
	push	edi

; 2186 :     }
; 2187 :     memset(cur, 0, sizeof(xmlAttribute));

	push	64					; 00000040H
	push	0
	push	esi
	call	_memset

; 2188 :     cur->type = XML_ATTRIBUTE_DECL;
; 2189 :     cur->atype = attr->atype;

	mov	edi, DWORD PTR _payload$[ebp]
	add	esp, 12					; 0000000cH
	mov	DWORD PTR [esi+4], 16			; 00000010H
	mov	eax, DWORD PTR [edi+40]
	mov	DWORD PTR [esi+40], eax

; 2190 :     cur->def = attr->def;

	mov	eax, DWORD PTR [edi+44]
	mov	DWORD PTR [esi+44], eax

; 2191 :     cur->tree = xmlCopyEnumeration(attr->tree);

	mov	eax, DWORD PTR [edi+52]
	mov	DWORD PTR _cur$1$[ebp], eax

; 1811 :     if (cur == NULL) return(NULL);

	test	eax, eax
	jne	SHORT $LN17@xmlCopyAtt
	xor	ebx, ebx
	jmp	SHORT $LN16@xmlCopyAtt
$LN17@xmlCopyAtt:

; 1812 :     ret = xmlCreateEnumeration((xmlChar *) cur->name);

	push	DWORD PTR [eax+4]
	call	_xmlCreateEnumeration
	mov	ebx, eax
	add	esp, 4

; 1813 :     if (ret == NULL) return(NULL);

	test	ebx, ebx
	je	SHORT $LN16@xmlCopyAtt
$LN18@xmlCopyAtt:

; 1814 : 
; 1815 :     if (cur->next != NULL) ret->next = xmlCopyEnumeration(cur->next);

	mov	eax, DWORD PTR _cur$1$[ebp]
	mov	eax, DWORD PTR [eax]
	test	eax, eax
	je	SHORT $LN19@xmlCopyAtt
	push	eax
	call	_xmlCopyEnumeration
	add	esp, 4
	jmp	SHORT $LN20@xmlCopyAtt
$LN19@xmlCopyAtt:

; 1816 :     else ret->next = NULL;

	xor	eax, eax
$LN20@xmlCopyAtt:

; 1817 : 
; 1818 :     return(ret);

	mov	DWORD PTR [ebx], eax
$LN16@xmlCopyAtt:

; 2191 :     cur->tree = xmlCopyEnumeration(attr->tree);

	mov	DWORD PTR [esi+52], ebx

; 2192 :     if (attr->elem != NULL)

	mov	eax, DWORD PTR [edi+60]
	test	eax, eax
	je	SHORT $LN3@xmlCopyAtt

; 2193 : 	cur->elem = xmlStrdup(attr->elem);

	push	eax
	call	_xmlStrdup
	add	esp, 4
	mov	DWORD PTR [esi+60], eax
$LN3@xmlCopyAtt:

; 2194 :     if (attr->name != NULL)

	mov	eax, DWORD PTR [edi+8]
	test	eax, eax
	je	SHORT $LN4@xmlCopyAtt

; 2195 : 	cur->name = xmlStrdup(attr->name);

	push	eax
	call	_xmlStrdup
	add	esp, 4
	mov	DWORD PTR [esi+8], eax
$LN4@xmlCopyAtt:

; 2196 :     if (attr->prefix != NULL)

	mov	eax, DWORD PTR [edi+56]
	test	eax, eax
	je	SHORT $LN5@xmlCopyAtt

; 2197 : 	cur->prefix = xmlStrdup(attr->prefix);

	push	eax
	call	_xmlStrdup
	add	esp, 4
	mov	DWORD PTR [esi+56], eax
$LN5@xmlCopyAtt:

; 2198 :     if (attr->defaultValue != NULL)

	mov	eax, DWORD PTR [edi+48]
	pop	edi
	pop	ebx
	test	eax, eax
	je	SHORT $LN6@xmlCopyAtt

; 2199 : 	cur->defaultValue = xmlStrdup(attr->defaultValue);

	push	eax
	call	_xmlStrdup
	add	esp, 4
	mov	DWORD PTR [esi+48], eax
$LN6@xmlCopyAtt:

; 2200 :     return(cur);

	mov	eax, esi
	pop	esi

; 2201 : }

	pop	ebp
	ret	0
_xmlCopyAttribute ENDP
_TEXT	ENDS
; Function compile flags: /Ogtp
; File c:\users\dag\documents\_clients\codeproject authors group\windows on arm\libxml2\libxml2-2.9.9\valid.c
;	COMDAT _xmlFreeAttributeTableEntry
_TEXT	SEGMENT
_attr$ = 8						; size = 4
_name$ = 12						; size = 4
_xmlFreeAttributeTableEntry PROC			; COMDAT

; 2153 : xmlFreeAttributeTableEntry(void *attr, const xmlChar *name ATTRIBUTE_UNUSED) {

	push	ebp
	mov	ebp, esp
	mov	ecx, OFFSET __56F63275_valid@c
	call	@__CheckForDebuggerJustMyCode@4
	push	DWORD PTR _attr$[ebp]
	call	_xmlFreeAttribute
	add	esp, 4

; 2154 :     xmlFreeAttribute((xmlAttributePtr) attr);
; 2155 : }

	pop	ebp
	ret	0
_xmlFreeAttributeTableEntry ENDP
_TEXT	ENDS
; Function compile flags: /Ogtp
; File c:\users\dag\documents\_clients\codeproject authors group\windows on arm\libxml2\libxml2-2.9.9\valid.c
;	COMDAT _xmlFreeAttribute
_TEXT	SEGMENT
_attr$ = 8						; size = 4
_xmlFreeAttribute PROC					; COMDAT

; 1885 : xmlFreeAttribute(xmlAttributePtr attr) {

	push	ebp
	mov	ebp, esp
	push	esi
	mov	ecx, OFFSET __56F63275_valid@c
	call	@__CheckForDebuggerJustMyCode@4
	mov	esi, DWORD PTR _attr$[ebp]
	test	esi, esi
	je	$LN1@xmlFreeAtt

; 1886 :     xmlDictPtr dict;
; 1887 : 
; 1888 :     if (attr == NULL) return;
; 1889 :     if (attr->doc != NULL)

	push	edi
	mov	edi, DWORD PTR [esi+32]
	test	edi, edi
	je	SHORT $LN3@xmlFreeAtt

; 1890 : 	dict = attr->doc->dict;

	mov	edi, DWORD PTR [edi+80]
	jmp	SHORT $LN4@xmlFreeAtt
$LN3@xmlFreeAtt:

; 1891 :     else
; 1892 : 	dict = NULL;

	xor	edi, edi
$LN4@xmlFreeAtt:

; 1893 :     xmlUnlinkNode((xmlNodePtr) attr);

	push	esi
	call	_xmlUnlinkNode

; 1894 :     if (attr->tree != NULL)

	mov	eax, DWORD PTR [esi+52]
	add	esp, 4
	test	eax, eax
	je	SHORT $LN5@xmlFreeAtt

; 1895 :         xmlFreeEnumeration(attr->tree);

	push	eax
	call	_xmlFreeEnumeration
	add	esp, 4
$LN5@xmlFreeAtt:

; 1896 :     if (dict) {

	mov	eax, DWORD PTR [esi+60]
	test	edi, edi
	je	SHORT $LN6@xmlFreeAtt

; 1897 :         if ((attr->elem != NULL) && (!xmlDictOwns(dict, attr->elem)))

	test	eax, eax
	je	SHORT $LN8@xmlFreeAtt
	push	eax
	push	edi
	call	_xmlDictOwns
	add	esp, 8
	test	eax, eax
	jne	SHORT $LN8@xmlFreeAtt

; 1898 : 	    xmlFree((xmlChar *) attr->elem);

	push	DWORD PTR [esi+60]
	call	DWORD PTR _xmlFree
	add	esp, 4
$LN8@xmlFreeAtt:

; 1899 :         if ((attr->name != NULL) && (!xmlDictOwns(dict, attr->name)))

	mov	eax, DWORD PTR [esi+8]
	test	eax, eax
	je	SHORT $LN9@xmlFreeAtt
	push	eax
	push	edi
	call	_xmlDictOwns
	add	esp, 8
	test	eax, eax
	jne	SHORT $LN9@xmlFreeAtt

; 1900 : 	    xmlFree((xmlChar *) attr->name);

	push	DWORD PTR [esi+8]
	call	DWORD PTR _xmlFree
	add	esp, 4
$LN9@xmlFreeAtt:

; 1901 :         if ((attr->prefix != NULL) && (!xmlDictOwns(dict, attr->prefix)))

	mov	eax, DWORD PTR [esi+56]
	test	eax, eax
	je	SHORT $LN10@xmlFreeAtt
	push	eax
	push	edi
	call	_xmlDictOwns
	add	esp, 8
	test	eax, eax
	jne	SHORT $LN10@xmlFreeAtt

; 1902 : 	    xmlFree((xmlChar *) attr->prefix);

	push	DWORD PTR [esi+56]
	call	DWORD PTR _xmlFree
	add	esp, 4
$LN10@xmlFreeAtt:

; 1903 :         if ((attr->defaultValue != NULL) &&

	mov	eax, DWORD PTR [esi+48]
	test	eax, eax
	je	SHORT $LN15@xmlFreeAtt
	push	eax
	push	edi
	call	_xmlDictOwns
	add	esp, 8
	test	eax, eax
	jne	SHORT $LN15@xmlFreeAtt

; 1904 : 	    (!xmlDictOwns(dict, attr->defaultValue)))
; 1905 : 	    xmlFree((xmlChar *) attr->defaultValue);

	push	DWORD PTR [esi+48]

; 1906 :     } else {

	jmp	SHORT $LN17@xmlFreeAtt
$LN6@xmlFreeAtt:

; 1907 : 	if (attr->elem != NULL)

	test	eax, eax
	je	SHORT $LN12@xmlFreeAtt

; 1908 : 	    xmlFree((xmlChar *) attr->elem);

	push	eax
	call	DWORD PTR _xmlFree
	add	esp, 4
$LN12@xmlFreeAtt:

; 1909 : 	if (attr->name != NULL)

	mov	eax, DWORD PTR [esi+8]
	test	eax, eax
	je	SHORT $LN13@xmlFreeAtt

; 1910 : 	    xmlFree((xmlChar *) attr->name);

	push	eax
	call	DWORD PTR _xmlFree
	add	esp, 4
$LN13@xmlFreeAtt:

; 1911 : 	if (attr->defaultValue != NULL)

	mov	eax, DWORD PTR [esi+48]
	test	eax, eax
	je	SHORT $LN14@xmlFreeAtt

; 1912 : 	    xmlFree((xmlChar *) attr->defaultValue);

	push	eax
	call	DWORD PTR _xmlFree
	add	esp, 4
$LN14@xmlFreeAtt:

; 1913 : 	if (attr->prefix != NULL)

	mov	eax, DWORD PTR [esi+56]
	test	eax, eax
	je	SHORT $LN15@xmlFreeAtt

; 1914 : 	    xmlFree((xmlChar *) attr->prefix);

	push	eax
$LN17@xmlFreeAtt:

; 1915 :     }
; 1916 :     xmlFree(attr);

	call	DWORD PTR _xmlFree
	add	esp, 4
$LN15@xmlFreeAtt:
	push	esi
	call	DWORD PTR _xmlFree
	add	esp, 4
	pop	edi
$LN1@xmlFreeAtt:
	pop	esi

; 1917 : }

	pop	ebp
	ret	0
_xmlFreeAttribute ENDP
_TEXT	ENDS
; Function compile flags: /Ogtp
; File c:\users\dag\documents\_clients\codeproject authors group\windows on arm\libxml2\libxml2-2.9.9\valid.c
;	COMDAT _xmlScanIDAttributeDecl
_TEXT	SEGMENT
_ctxt$ = 8						; size = 4
_elem$ = 12						; size = 4
_err$ = 16						; size = 4
_xmlScanIDAttributeDecl PROC				; COMDAT

; 1858 : xmlScanIDAttributeDecl(xmlValidCtxtPtr ctxt, xmlElementPtr elem, int err) {

	push	ebp
	mov	ebp, esp
	push	ebx
	push	edi
	mov	ecx, OFFSET __56F63275_valid@c
	call	@__CheckForDebuggerJustMyCode@4
	mov	ebx, DWORD PTR _elem$[ebp]
	xor	edi, edi
	test	ebx, ebx
	jne	SHORT $LN4@xmlScanIDA

; 1859 :     xmlAttributePtr cur;
; 1860 :     int ret = 0;
; 1861 : 
; 1862 :     if (elem == NULL) return(0);

	pop	edi
	xor	eax, eax

; 1875 : }

	pop	ebx
	pop	ebp
	ret	0
$LN4@xmlScanIDA:
	push	esi

; 1863 :     cur = elem->attributes;

	mov	esi, DWORD PTR [ebx+44]

; 1864 :     while (cur != NULL) {

	test	esi, esi
	je	SHORT $LN3@xmlScanIDA
$LL2@xmlScanIDA:

; 1865 :         if (cur->atype == XML_ATTRIBUTE_ID) {

	cmp	DWORD PTR [esi+40], 2
	jne	SHORT $LN6@xmlScanIDA

; 1866 : 	    ret ++;

	inc	edi

; 1867 : 	    if ((ret > 1) && (err))

	cmp	edi, 1
	jle	SHORT $LN6@xmlScanIDA
	cmp	DWORD PTR _err$[ebp], 0
	je	SHORT $LN6@xmlScanIDA

; 1868 : 		xmlErrValidNode(ctxt, (xmlNodePtr) elem, XML_DTD_MULTIPLE_ID,

	push	0
	push	DWORD PTR [esi+8]
	push	DWORD PTR [ebx+8]
	push	OFFSET ??_C@_0DE@EJGKGKMH@Element?5?$CFs?5has?5too?5many?5ID?5attr@
	push	520					; 00000208H
	push	ebx
	push	DWORD PTR _ctxt$[ebp]
	call	_xmlErrValidNode
	add	esp, 28					; 0000001cH
$LN6@xmlScanIDA:

; 1869 : 	       "Element %s has too many ID attributes defined : %s\n",
; 1870 : 		       elem->name, cur->name, NULL);
; 1871 : 	}
; 1872 : 	cur = cur->nexth;

	mov	esi, DWORD PTR [esi+36]
	test	esi, esi
	jne	SHORT $LL2@xmlScanIDA
$LN3@xmlScanIDA:

; 1873 :     }
; 1874 :     return(ret);

	pop	esi
	mov	eax, edi
	pop	edi

; 1875 : }

	pop	ebx
	pop	ebp
	ret	0
_xmlScanIDAttributeDecl ENDP
_TEXT	ENDS
; Function compile flags: /Ogtp
; File c:\users\dag\documents\_clients\codeproject authors group\windows on arm\libxml2\libxml2-2.9.9\valid.c
;	COMDAT _xmlDumpEnumeration
_TEXT	SEGMENT
_buf$ = 8						; size = 4
_cur$ = 12						; size = 4
_xmlDumpEnumeration PROC				; COMDAT

; 1831 : xmlDumpEnumeration(xmlBufferPtr buf, xmlEnumerationPtr cur) {

	push	ebp
	mov	ebp, esp
	push	edi
	mov	ecx, OFFSET __56F63275_valid@c
	call	@__CheckForDebuggerJustMyCode@4
	mov	edi, DWORD PTR _buf$[ebp]
	test	edi, edi
	je	SHORT $LN3@xmlDumpEnu
	push	esi
	mov	esi, DWORD PTR _cur$[ebp]
	npad	7
$LL7@xmlDumpEnu:

; 1832 :     if ((buf == NULL) || (cur == NULL))

	test	esi, esi
	je	SHORT $LN14@xmlDumpEnu

; 1833 :         return;
; 1834 : 
; 1835 :     xmlBufferWriteCHAR(buf, cur->name);

	push	DWORD PTR [esi+4]
	push	edi
	call	_xmlBufferWriteCHAR
	add	esp, 8

; 1836 :     if (cur->next == NULL)

	cmp	DWORD PTR [esi], 0
	je	SHORT $LN10@xmlDumpEnu

; 1838 :     else {
; 1839 : 	xmlBufferWriteChar(buf, " | ");

	push	OFFSET ??_C@_03LGOGDKEL@?5?$HM?5@
	push	edi
	call	_xmlBufferWriteChar

; 1840 : 	xmlDumpEnumeration(buf, cur->next);

	mov	esi, DWORD PTR [esi]
	add	esp, 8
	mov	ecx, OFFSET __56F63275_valid@c
	call	@__CheckForDebuggerJustMyCode@4
	jmp	SHORT $LL7@xmlDumpEnu
$LN10@xmlDumpEnu:

; 1837 : 	xmlBufferWriteChar(buf, ")");

	push	OFFSET ??_C@_01PKGAHCOL@?$CJ@
	push	edi
	call	_xmlBufferWriteChar
	add	esp, 8
$LN14@xmlDumpEnu:
	pop	esi
$LN3@xmlDumpEnu:
	pop	edi

; 1841 :     }
; 1842 : }

	pop	ebp
	ret	0
_xmlDumpEnumeration ENDP
_TEXT	ENDS
; Function compile flags: /Ogtp
; File c:\users\dag\documents\_clients\codeproject authors group\windows on arm\libxml2\libxml2-2.9.9\valid.c
;	COMDAT _xmlDumpElementDeclScan
_TEXT	SEGMENT
_elem$ = 8						; size = 4
_buf$ = 12						; size = 4
_name$ = 16						; size = 4
_xmlDumpElementDeclScan PROC				; COMDAT

; 1737 :                        const xmlChar *name ATTRIBUTE_UNUSED) {

	push	ebp
	mov	ebp, esp
	mov	ecx, OFFSET __56F63275_valid@c
	call	@__CheckForDebuggerJustMyCode@4
	push	DWORD PTR _elem$[ebp]
	push	DWORD PTR _buf$[ebp]
	call	_xmlDumpElementDecl
	add	esp, 8

; 1738 :     xmlDumpElementDecl((xmlBufferPtr) buf, (xmlElementPtr) elem);
; 1739 : }

	pop	ebp
	ret	0
_xmlDumpElementDeclScan ENDP
_TEXT	ENDS
; Function compile flags: /Ogtp
; File c:\users\dag\documents\_clients\codeproject authors group\windows on arm\libxml2\libxml2-2.9.9\valid.c
;	COMDAT _xmlCopyElement
_TEXT	SEGMENT
_payload$ = 8						; size = 4
_name$ = 12						; size = 4
_xmlCopyElement PROC					; COMDAT

; 1626 : xmlCopyElement(void *payload, const xmlChar *name ATTRIBUTE_UNUSED) {

	push	ebp
	mov	ebp, esp
	push	esi
	mov	ecx, OFFSET __56F63275_valid@c
	call	@__CheckForDebuggerJustMyCode@4
	push	56					; 00000038H
	call	DWORD PTR _xmlMalloc
	mov	esi, eax
	add	esp, 4
	test	esi, esi
	jne	SHORT $LN2@xmlCopyEle

; 77   :         __xmlRaiseError(NULL, channel, data,

	push	OFFSET ??_C@_0O@IMHFIAOC@malloc?5failed@
	push	OFFSET ??_C@_0BP@DJFHNAOK@Memory?5allocation?5failed?5?3?5?$CFs?6@
	push	eax
	push	eax
	push	eax
	push	eax
	push	OFFSET ??_C@_0O@IMHFIAOC@malloc?5failed@
	push	eax
	push	eax
	push	3
	push	2
	push	23					; 00000017H
	push	eax
	push	eax
	push	eax
	push	eax
	push	eax
	call	___xmlRaiseError
	add	esp, 68					; 00000044H

; 1627 :     xmlElementPtr elem = (xmlElementPtr) payload;
; 1628 :     xmlElementPtr cur;
; 1629 : 
; 1630 :     cur = (xmlElementPtr) xmlMalloc(sizeof(xmlElement));
; 1631 :     if (cur == NULL) {
; 1632 : 	xmlVErrMemory(NULL, "malloc failed");
; 1633 : 	return(NULL);

	xor	eax, eax
	pop	esi

; 1650 : }

	pop	ebp
	ret	0
$LN2@xmlCopyEle:
	push	edi

; 1634 :     }
; 1635 :     memset(cur, 0, sizeof(xmlElement));

	push	56					; 00000038H
	push	0
	push	esi
	call	_memset

; 1636 :     cur->type = XML_ELEMENT_DECL;
; 1637 :     cur->etype = elem->etype;

	mov	edi, DWORD PTR _payload$[ebp]
	add	esp, 12					; 0000000cH
	mov	DWORD PTR [esi+4], 15			; 0000000fH
	mov	eax, DWORD PTR [edi+36]
	mov	DWORD PTR [esi+36], eax

; 1638 :     if (elem->name != NULL)

	mov	eax, DWORD PTR [edi+8]
	test	eax, eax
	je	SHORT $LN3@xmlCopyEle

; 1639 : 	cur->name = xmlStrdup(elem->name);

	push	eax
	call	_xmlStrdup
	add	esp, 4
	jmp	SHORT $LN4@xmlCopyEle
$LN3@xmlCopyEle:

; 1640 :     else
; 1641 : 	cur->name = NULL;

	xor	eax, eax
$LN4@xmlCopyEle:

; 1642 :     if (elem->prefix != NULL)

	mov	DWORD PTR [esi+8], eax
	mov	eax, DWORD PTR [edi+48]
	test	eax, eax
	je	SHORT $LN5@xmlCopyEle

; 1643 : 	cur->prefix = xmlStrdup(elem->prefix);

	push	eax
	call	_xmlStrdup
	add	esp, 4
	jmp	SHORT $LN6@xmlCopyEle
$LN5@xmlCopyEle:

; 1644 :     else
; 1645 : 	cur->prefix = NULL;

	xor	eax, eax
$LN6@xmlCopyEle:

; 1646 :     cur->content = xmlCopyElementContent(elem->content);

	mov	DWORD PTR [esi+48], eax

; 1090 :     return(xmlCopyDocElementContent(NULL, cur));

	push	DWORD PTR [edi+40]
	push	0
	call	_xmlCopyDocElementContent
	add	esp, 8

; 1646 :     cur->content = xmlCopyElementContent(elem->content);

	mov	DWORD PTR [esi+40], eax

; 1647 :     /* TODO : rebuild the attribute list on the copy */
; 1648 :     cur->attributes = NULL;

	mov	DWORD PTR [esi+44], 0

; 1649 :     return(cur);

	mov	eax, esi
	pop	edi
	pop	esi

; 1650 : }

	pop	ebp
	ret	0
_xmlCopyElement ENDP
_TEXT	ENDS
; Function compile flags: /Ogtp
; File c:\users\dag\documents\_clients\codeproject authors group\windows on arm\libxml2\libxml2-2.9.9\valid.c
;	COMDAT _xmlFreeElementTableEntry
_TEXT	SEGMENT
_elem$ = 8						; size = 4
_name$ = 12						; size = 4
_xmlFreeElementTableEntry PROC				; COMDAT

; 1601 : xmlFreeElementTableEntry(void *elem, const xmlChar *name ATTRIBUTE_UNUSED) {

	push	ebp
	mov	ebp, esp
	mov	ecx, OFFSET __56F63275_valid@c
	call	@__CheckForDebuggerJustMyCode@4
	push	DWORD PTR _elem$[ebp]
	call	_xmlFreeElement
	add	esp, 4

; 1602 :     xmlFreeElement((xmlElementPtr) elem);
; 1603 : }

	pop	ebp
	ret	0
_xmlFreeElementTableEntry ENDP
_TEXT	ENDS
; Function compile flags: /Ogtp
; File c:\users\dag\documents\_clients\codeproject authors group\windows on arm\libxml2\libxml2-2.9.9\valid.c
;	COMDAT _xmlFreeElement
_TEXT	SEGMENT
_elem$ = 8						; size = 4
_xmlFreeElement PROC					; COMDAT

; 1358 : xmlFreeElement(xmlElementPtr elem) {

	push	ebp
	mov	ebp, esp
	push	esi
	mov	ecx, OFFSET __56F63275_valid@c
	call	@__CheckForDebuggerJustMyCode@4
	mov	esi, DWORD PTR _elem$[ebp]
	test	esi, esi
	je	SHORT $LN1@xmlFreeEle

; 1359 :     if (elem == NULL) return;
; 1360 :     xmlUnlinkNode((xmlNodePtr) elem);

	push	esi
	call	_xmlUnlinkNode

; 1361 :     xmlFreeDocElementContent(elem->doc, elem->content);

	push	DWORD PTR [esi+40]
	push	DWORD PTR [esi+32]
	call	_xmlFreeDocElementContent

; 1362 :     if (elem->name != NULL)

	mov	eax, DWORD PTR [esi+8]
	add	esp, 12					; 0000000cH
	test	eax, eax
	je	SHORT $LN3@xmlFreeEle

; 1363 : 	xmlFree((xmlChar *) elem->name);

	push	eax
	call	DWORD PTR _xmlFree
	add	esp, 4
$LN3@xmlFreeEle:

; 1364 :     if (elem->prefix != NULL)

	mov	eax, DWORD PTR [esi+48]
	test	eax, eax
	je	SHORT $LN4@xmlFreeEle

; 1365 : 	xmlFree((xmlChar *) elem->prefix);

	push	eax
	call	DWORD PTR _xmlFree
	add	esp, 4
$LN4@xmlFreeEle:

; 1366 : #ifdef LIBXML_REGEXP_ENABLED
; 1367 :     if (elem->contModel != NULL)

	mov	eax, DWORD PTR [esi+52]
	test	eax, eax
	je	SHORT $LN5@xmlFreeEle

; 1368 : 	xmlRegFreeRegexp(elem->contModel);

	push	eax
	call	_xmlRegFreeRegexp
	add	esp, 4
$LN5@xmlFreeEle:

; 1369 : #endif
; 1370 :     xmlFree(elem);

	push	esi
	call	DWORD PTR _xmlFree
	add	esp, 4
$LN1@xmlFreeEle:
	pop	esi

; 1371 : }

	pop	ebp
	ret	0
_xmlFreeElement ENDP
_TEXT	ENDS
; Function compile flags: /Ogtp
; File c:\users\dag\documents\_clients\codeproject authors group\windows on arm\libxml2\libxml2-2.9.9\valid.c
;	COMDAT _xmlDumpElementContent
_TEXT	SEGMENT
_buf$ = 8						; size = 4
_content$ = 12						; size = 4
_glob$ = 16						; size = 4
_xmlDumpElementContent PROC				; COMDAT

; 1159 : xmlDumpElementContent(xmlBufferPtr buf, xmlElementContentPtr content, int glob) {

	push	ebp
	mov	ebp, esp
	push	edi
	mov	ecx, OFFSET __56F63275_valid@c
	call	@__CheckForDebuggerJustMyCode@4
	mov	edi, DWORD PTR _content$[ebp]
	test	edi, edi
	je	$LN4@xmlDumpEle

; 1160 :     if (content == NULL) return;
; 1161 : 
; 1162 :     if (glob) xmlBufferWriteChar(buf, "(");

	cmp	DWORD PTR _glob$[ebp], 0
	push	esi
	mov	esi, DWORD PTR _buf$[ebp]
	je	SHORT $LN7@xmlDumpEle
	push	OFFSET ??_C@_01ODHLEDKK@?$CI@
	push	esi
	call	_xmlBufferWriteChar
	add	esp, 8
$LN7@xmlDumpEle:

; 1163 :     switch (content->type) {

	mov	eax, DWORD PTR [edi]
	dec	eax
	cmp	eax, 3
	ja	$LN25@xmlDumpEle
	jmp	DWORD PTR $LN44@xmlDumpEle[eax*4]
$LN8@xmlDumpEle:

; 1164 :         case XML_ELEMENT_CONTENT_PCDATA:
; 1165 :             xmlBufferWriteChar(buf, "#PCDATA");

	push	OFFSET ??_C@_07ELDBONKP@?$CDPCDATA@
	push	esi
	call	_xmlBufferWriteChar
	add	esp, 8

; 1166 : 	    break;

	jmp	$LN38@xmlDumpEle
$LN9@xmlDumpEle:

; 1167 : 	case XML_ELEMENT_CONTENT_ELEMENT:
; 1168 : 	    if (content->prefix != NULL) {

	mov	eax, DWORD PTR [edi+24]
	test	eax, eax
	je	SHORT $LN10@xmlDumpEle

; 1169 : 		xmlBufferWriteCHAR(buf, content->prefix);

	push	eax
	push	esi
	call	_xmlBufferWriteCHAR

; 1170 : 		xmlBufferWriteChar(buf, ":");

	push	OFFSET ??_C@_01JLIPDDHJ@?3@
	push	esi
	call	_xmlBufferWriteChar
	add	esp, 16					; 00000010H
$LN10@xmlDumpEle:

; 1171 : 	    }
; 1172 : 	    xmlBufferWriteCHAR(buf, content->name);

	push	DWORD PTR [edi+8]
	push	esi
	call	_xmlBufferWriteCHAR
	add	esp, 8

; 1173 : 	    break;

	jmp	$LN38@xmlDumpEle
$LN11@xmlDumpEle:

; 1174 : 	case XML_ELEMENT_CONTENT_SEQ:
; 1175 : 	    if ((content->c1 != NULL) &&

	mov	eax, DWORD PTR [edi+12]
	test	eax, eax
	je	SHORT $LN12@xmlDumpEle
	mov	ecx, DWORD PTR [eax]
	cmp	ecx, 4
	je	SHORT $LN14@xmlDumpEle
	cmp	ecx, 3
	jne	SHORT $LN12@xmlDumpEle
$LN14@xmlDumpEle:

; 1176 : 	        ((content->c1->type == XML_ELEMENT_CONTENT_OR) ||
; 1177 : 	         (content->c1->type == XML_ELEMENT_CONTENT_SEQ)))
; 1178 : 		xmlDumpElementContent(buf, content->c1, 1);

	mov	ecx, 1
	jmp	SHORT $LN13@xmlDumpEle
$LN12@xmlDumpEle:

; 1179 : 	    else
; 1180 : 		xmlDumpElementContent(buf, content->c1, 0);

	xor	ecx, ecx
$LN13@xmlDumpEle:

; 1181 :             xmlBufferWriteChar(buf, " , ");

	push	ecx
	push	eax
	push	esi
	call	_xmlDumpElementContent
	push	OFFSET ??_C@_03NKFKBEPL@?5?0?5@
	push	esi
	call	_xmlBufferWriteChar

; 1182 : 	    if ((content->c2 != NULL) &&

	mov	eax, DWORD PTR [edi+16]
	add	esp, 20					; 00000014H
	test	eax, eax
	je	SHORT $LN15@xmlDumpEle
	mov	ecx, DWORD PTR [eax]
	cmp	ecx, 4
	je	SHORT $LN17@xmlDumpEle
	cmp	ecx, 3
$LN42@xmlDumpEle:

; 1203 : 	    else
; 1204 : 		xmlDumpElementContent(buf, content->c2, 0);
; 1205 : 	    break;
; 1206 : 	default:
; 1207 : 	    xmlErrValid(NULL, XML_ERR_INTERNAL_ERROR,
; 1208 : 		    "Internal: ELEMENT content corrupted invalid type\n",
; 1209 : 		    NULL);
; 1210 :     }
; 1211 :     if (glob)

	jne	SHORT $LN15@xmlDumpEle
	cmp	DWORD PTR [eax+4], 1
	je	SHORT $LN15@xmlDumpEle
$LN17@xmlDumpEle:
	mov	ecx, 1
	push	ecx
	push	eax
	push	esi
	call	_xmlDumpElementContent
	add	esp, 12					; 0000000cH
	jmp	$LN38@xmlDumpEle
$LN15@xmlDumpEle:
	xor	ecx, ecx
	push	ecx
	push	eax
	push	esi
	call	_xmlDumpElementContent
	add	esp, 12					; 0000000cH
	jmp	SHORT $LN38@xmlDumpEle
$LN18@xmlDumpEle:

; 1183 : 	        ((content->c2->type == XML_ELEMENT_CONTENT_OR) ||
; 1184 : 	         ((content->c2->type == XML_ELEMENT_CONTENT_SEQ) &&
; 1185 : 		  (content->c2->ocur != XML_ELEMENT_CONTENT_ONCE))))
; 1186 : 		xmlDumpElementContent(buf, content->c2, 1);
; 1187 : 	    else
; 1188 : 		xmlDumpElementContent(buf, content->c2, 0);
; 1189 : 	    break;
; 1190 : 	case XML_ELEMENT_CONTENT_OR:
; 1191 : 	    if ((content->c1 != NULL) &&

	mov	eax, DWORD PTR [edi+12]
	test	eax, eax
	je	SHORT $LN19@xmlDumpEle
	mov	ecx, DWORD PTR [eax]
	cmp	ecx, 4
	je	SHORT $LN21@xmlDumpEle
	cmp	ecx, 3
	jne	SHORT $LN19@xmlDumpEle
$LN21@xmlDumpEle:

; 1192 : 	        ((content->c1->type == XML_ELEMENT_CONTENT_OR) ||
; 1193 : 	         (content->c1->type == XML_ELEMENT_CONTENT_SEQ)))
; 1194 : 		xmlDumpElementContent(buf, content->c1, 1);

	mov	ecx, 1
	jmp	SHORT $LN20@xmlDumpEle
$LN19@xmlDumpEle:

; 1195 : 	    else
; 1196 : 		xmlDumpElementContent(buf, content->c1, 0);

	xor	ecx, ecx
$LN20@xmlDumpEle:

; 1197 :             xmlBufferWriteChar(buf, " | ");

	push	ecx
	push	eax
	push	esi
	call	_xmlDumpElementContent
	push	OFFSET ??_C@_03LGOGDKEL@?5?$HM?5@
	push	esi
	call	_xmlBufferWriteChar

; 1198 : 	    if ((content->c2 != NULL) &&

	mov	eax, DWORD PTR [edi+16]
	add	esp, 20					; 00000014H
	test	eax, eax
	je	SHORT $LN15@xmlDumpEle
	mov	ecx, DWORD PTR [eax]
	cmp	ecx, 3
	je	SHORT $LN17@xmlDumpEle
	cmp	ecx, 4

; 1199 : 	        ((content->c2->type == XML_ELEMENT_CONTENT_SEQ) ||
; 1200 : 	         ((content->c2->type == XML_ELEMENT_CONTENT_OR) &&
; 1201 : 		  (content->c2->ocur != XML_ELEMENT_CONTENT_ONCE))))
; 1202 : 		xmlDumpElementContent(buf, content->c2, 1);

	jmp	SHORT $LN42@xmlDumpEle
$LN25@xmlDumpEle:

; 122  :         __xmlRaiseError(NULL, channel, data,

	push	OFFSET ??_C@_0DC@GLPLFDD@Internal?3?5ELEMENT?5content?5corru@
	push	OFFSET ??_C@_02DKCKIIND@?$CFs@
	push	0
	push	0
	push	0
	push	0
	push	0
	push	0
	push	0
	push	2
	push	1
	push	23					; 00000017H
	push	0
	push	0
	push	0
	push	0
	push	0
	call	___xmlRaiseError
	add	esp, 68					; 00000044H
$LN38@xmlDumpEle:

; 1203 : 	    else
; 1204 : 		xmlDumpElementContent(buf, content->c2, 0);
; 1205 : 	    break;
; 1206 : 	default:
; 1207 : 	    xmlErrValid(NULL, XML_ERR_INTERNAL_ERROR,
; 1208 : 		    "Internal: ELEMENT content corrupted invalid type\n",
; 1209 : 		    NULL);
; 1210 :     }
; 1211 :     if (glob)

	cmp	DWORD PTR _glob$[ebp], 0
	je	SHORT $LN26@xmlDumpEle

; 1212 :         xmlBufferWriteChar(buf, ")");

	push	OFFSET ??_C@_01PKGAHCOL@?$CJ@
	push	esi
	call	_xmlBufferWriteChar
	add	esp, 8
$LN26@xmlDumpEle:

; 1213 :     switch (content->ocur) {

	mov	eax, DWORD PTR [edi+4]
	sub	eax, 2
	je	SHORT $LN28@xmlDumpEle
	sub	eax, 1
	je	SHORT $LN29@xmlDumpEle
	sub	eax, 1
	jne	SHORT $LN40@xmlDumpEle

; 1221 : 	    break;
; 1222 :         case XML_ELEMENT_CONTENT_PLUS:
; 1223 : 	    xmlBufferWriteChar(buf, "+");

	push	OFFSET ??_C@_01MIFGBAGJ@?$CL@
	push	esi
	call	_xmlBufferWriteChar
	add	esp, 8
	pop	esi
	pop	edi

; 1224 : 	    break;
; 1225 :     }
; 1226 : }

	pop	ebp
	ret	0
$LN29@xmlDumpEle:

; 1218 : 	    break;
; 1219 :         case XML_ELEMENT_CONTENT_MULT:
; 1220 : 	    xmlBufferWriteChar(buf, "*");

	push	OFFSET ??_C@_01NBENCBCI@?$CK@
	push	esi
	call	_xmlBufferWriteChar
	add	esp, 8
	pop	esi
	pop	edi

; 1224 : 	    break;
; 1225 :     }
; 1226 : }

	pop	ebp
	ret	0
$LN28@xmlDumpEle:

; 1214 :         case XML_ELEMENT_CONTENT_ONCE:
; 1215 : 	    break;
; 1216 :         case XML_ELEMENT_CONTENT_OPT:
; 1217 : 	    xmlBufferWriteChar(buf, "?");

	push	OFFSET ??_C@_01OGPIMHDM@?$DP@
	push	esi
	call	_xmlBufferWriteChar
	add	esp, 8
$LN40@xmlDumpEle:
	pop	esi
$LN4@xmlDumpEle:
	pop	edi

; 1224 : 	    break;
; 1225 :     }
; 1226 : }

	pop	ebp
	ret	0
$LN44@xmlDumpEle:
	DD	$LN8@xmlDumpEle
	DD	$LN9@xmlDumpEle
	DD	$LN11@xmlDumpEle
	DD	$LN18@xmlDumpEle
_xmlDumpElementContent ENDP
_TEXT	ENDS
; Function compile flags: /Ogtp
; File c:\users\dag\documents\_clients\codeproject authors group\windows on arm\libxml2\libxml2-2.9.9\valid.c
;	COMDAT _xmlValidBuildAContentModel
_TEXT	SEGMENT
_fn$1 = -60						; size = 50
_ocur$1$ = -8						; size = 4
_oldend$1$ = -4						; size = 4
_oldend$1$ = -4						; size = 4
_oldstate$1$ = 8					; size = 4
_oldstate$1$ = 8					; size = 4
_oldstate$1$ = 8					; size = 4
_content$ = 8						; size = 4
_ctxt$ = 12						; size = 4
_name$ = 16						; size = 4
_xmlValidBuildAContentModel PROC			; COMDAT

; 661  : 		           const xmlChar *name) {

	push	ebp
	mov	ebp, esp
	sub	esp, 60					; 0000003cH
	mov	ecx, OFFSET __56F63275_valid@c
	push	esi
	call	@__CheckForDebuggerJustMyCode@4
	mov	esi, DWORD PTR _content$[ebp]
	test	esi, esi
	jne	SHORT $LN16@xmlValidBu

; 662  :     if (content == NULL) {
; 663  : 	xmlErrValidNode(ctxt, NULL, XML_ERR_INTERNAL_ERROR,

	push	esi
	push	esi
	push	DWORD PTR _name$[ebp]
	push	OFFSET ??_C@_0CL@FIAOIAHN@Found?5NULL?5content?5in?5content?5m@
	push	1
	push	esi
	push	DWORD PTR _ctxt$[ebp]
	call	_xmlErrValidNode
	add	esp, 28					; 0000001cH

; 664  : 			"Found NULL content in content model of %s\n",
; 665  : 			name, NULL, NULL);
; 666  : 	return(0);

	xor	eax, eax
	pop	esi

; 801  : }

	mov	esp, ebp
	pop	ebp
	ret	0
$LN16@xmlValidBu:

; 667  :     }
; 668  :     switch (content->type) {

	mov	eax, DWORD PTR [esi]
	dec	eax
	push	ebx
	push	edi
	cmp	eax, 3
	ja	$LN40@xmlValidBu
	jmp	DWORD PTR $LN70@xmlValidBu[eax*4]
$LN17@xmlValidBu:

; 669  : 	case XML_ELEMENT_CONTENT_PCDATA:
; 670  : 	    xmlErrValidNode(ctxt, NULL, XML_ERR_INTERNAL_ERROR,

	push	0
	push	0
	push	DWORD PTR _name$[ebp]
	push	OFFSET ??_C@_0CF@IIHAKBAI@Found?5PCDATA?5in?5content?5model?5o@
	push	1
	push	0
	push	DWORD PTR _ctxt$[ebp]
	call	_xmlErrValidNode
	add	esp, 28					; 0000001cH

; 796  : 	                "ContentModel broken for element %s\n",
; 797  : 			(const char *) name);
; 798  : 	    return(0);

	xor	eax, eax
	pop	edi
	pop	ebx
	pop	esi

; 801  : }

	mov	esp, ebp
	pop	ebp
	ret	0
$LN18@xmlValidBu:

; 671  : 			    "Found PCDATA in content model of %s\n",
; 672  : 		            name, NULL, NULL);
; 673  : 	    return(0);
; 674  : 	    break;
; 675  : 	case XML_ELEMENT_CONTENT_ELEMENT: {
; 676  : 	    xmlAutomataStatePtr oldstate = ctxt->state;

	mov	edi, DWORD PTR _ctxt$[ebp]

; 677  : 	    xmlChar fn[50];
; 678  : 	    xmlChar *fullname;
; 679  : 
; 680  : 	    fullname = xmlBuildQName(content->name, content->prefix, fn, 50);

	push	50					; 00000032H
	mov	eax, DWORD PTR [edi+60]
	mov	DWORD PTR _oldstate$1$[ebp], eax
	lea	eax, DWORD PTR _fn$1[ebp]
	push	eax
	push	DWORD PTR [esi+24]
	push	DWORD PTR [esi+8]
	call	_xmlBuildQName
	mov	ebx, eax
	add	esp, 16					; 00000010H

; 681  : 	    if (fullname == NULL) {

	test	ebx, ebx
	jne	SHORT $LN19@xmlValidBu

; 682  : 	        xmlVErrMemory(ctxt, "Building content model");

	push	OFFSET ??_C@_0BH@INHICIGB@Building?5content?5model@
	push	edi
	call	_xmlVErrMemory
	add	esp, 8

; 796  : 	                "ContentModel broken for element %s\n",
; 797  : 			(const char *) name);
; 798  : 	    return(0);

	xor	eax, eax
	pop	edi
	pop	ebx
	pop	esi

; 801  : }

	mov	esp, ebp
	pop	ebp
	ret	0
$LN19@xmlValidBu:

; 683  : 		return(0);
; 684  : 	    }
; 685  : 
; 686  : 	    switch (content->ocur) {

	mov	eax, DWORD PTR [esi+4]
	dec	eax
	cmp	eax, 3
	ja	$LN4@xmlValidBu
	jmp	DWORD PTR $LN71@xmlValidBu[eax*4]
$LN20@xmlValidBu:

; 687  : 		case XML_ELEMENT_CONTENT_ONCE:
; 688  : 		    ctxt->state = xmlAutomataNewTransition(ctxt->am,

	push	0
	push	ebx
	push	0
	push	DWORD PTR [edi+60]
	push	DWORD PTR [edi+56]
	call	_xmlAutomataNewTransition
	add	esp, 20					; 00000014H
	mov	DWORD PTR [edi+60], eax

; 689  : 			    ctxt->state, NULL, fullname, NULL);
; 690  : 		    break;

	jmp	SHORT $LN4@xmlValidBu
$LN21@xmlValidBu:

; 691  : 		case XML_ELEMENT_CONTENT_OPT:
; 692  : 		    ctxt->state = xmlAutomataNewTransition(ctxt->am,

	push	0
	push	ebx
	push	0
	push	DWORD PTR [edi+60]
	push	DWORD PTR [edi+56]
	call	_xmlAutomataNewTransition

; 693  : 			    ctxt->state, NULL, fullname, NULL);
; 694  : 		    xmlAutomataNewEpsilon(ctxt->am, oldstate, ctxt->state);

	push	eax
	push	DWORD PTR _oldstate$1$[ebp]
	mov	DWORD PTR [edi+60], eax
	push	DWORD PTR [edi+56]
	call	_xmlAutomataNewEpsilon

; 695  : 		    break;

	jmp	SHORT $LN67@xmlValidBu
$LN22@xmlValidBu:

; 696  : 		case XML_ELEMENT_CONTENT_PLUS:
; 697  : 		    ctxt->state = xmlAutomataNewTransition(ctxt->am,

	push	0
	push	ebx
	push	0
	push	DWORD PTR [edi+60]
	push	DWORD PTR [edi+56]
	call	_xmlAutomataNewTransition

; 698  : 			    ctxt->state, NULL, fullname, NULL);
; 699  : 		    xmlAutomataNewTransition(ctxt->am, ctxt->state,

	push	0
	push	ebx
	push	eax
	push	eax
	push	DWORD PTR [edi+56]
	mov	DWORD PTR [edi+60], eax
	call	_xmlAutomataNewTransition
	add	esp, 40					; 00000028H

; 700  : 			                     ctxt->state, fullname, NULL);
; 701  : 		    break;

	jmp	SHORT $LN4@xmlValidBu
$LN23@xmlValidBu:

; 702  : 		case XML_ELEMENT_CONTENT_MULT:
; 703  : 		    ctxt->state = xmlAutomataNewEpsilon(ctxt->am,

	push	0
	push	DWORD PTR [edi+60]
	push	DWORD PTR [edi+56]
	call	_xmlAutomataNewEpsilon

; 704  : 					    ctxt->state, NULL);
; 705  : 		    xmlAutomataNewTransition(ctxt->am,

	push	0
	push	ebx
	push	eax
	push	eax
	push	DWORD PTR [edi+56]
	mov	DWORD PTR [edi+60], eax
	call	_xmlAutomataNewTransition
$LN67@xmlValidBu:

; 706  : 			    ctxt->state, ctxt->state, fullname, NULL);
; 707  : 		    break;
; 708  : 	    }
; 709  : 	    if ((fullname != fn) && (fullname != content->name))

	add	esp, 32					; 00000020H
$LN4@xmlValidBu:
	lea	eax, DWORD PTR _fn$1[ebp]
	cmp	ebx, eax
	je	$LN14@xmlValidBu
	cmp	ebx, DWORD PTR [esi+8]
	je	$LN14@xmlValidBu

; 710  : 		xmlFree(fullname);

	push	ebx
	call	DWORD PTR _xmlFree
	add	esp, 4

; 799  :     }
; 800  :     return(1);

	mov	eax, 1
	pop	edi
	pop	ebx
	pop	esi

; 801  : }

	mov	esp, ebp
	pop	ebp
	ret	0
$LN25@xmlValidBu:

; 711  : 	    break;
; 712  : 	}
; 713  : 	case XML_ELEMENT_CONTENT_SEQ: {
; 714  : 	    xmlAutomataStatePtr oldstate, oldend;
; 715  : 	    xmlElementContentOccur ocur;
; 716  : 
; 717  : 	    /*
; 718  : 	     * Simply iterate over the content
; 719  : 	     */
; 720  : 	    oldstate = ctxt->state;

	mov	edi, DWORD PTR _ctxt$[ebp]

; 721  : 	    ocur = content->ocur;

	mov	ebx, DWORD PTR [esi+4]
	mov	eax, DWORD PTR [edi+60]
	mov	DWORD PTR _oldstate$1$[ebp], eax

; 722  : 	    if (ocur != XML_ELEMENT_CONTENT_ONCE) {

	cmp	ebx, 1
	je	SHORT $LL8@xmlValidBu

; 723  : 		ctxt->state = xmlAutomataNewEpsilon(ctxt->am, oldstate, NULL);

	push	0
	push	eax
	push	DWORD PTR [edi+56]
	call	_xmlAutomataNewEpsilon
	add	esp, 12					; 0000000cH
	mov	DWORD PTR _oldstate$1$[ebp], eax
	mov	DWORD PTR [edi+60], eax
	npad	5
$LL8@xmlValidBu:

; 724  : 		oldstate = ctxt->state;
; 725  : 	    }
; 726  : 	    do {
; 727  : 		xmlValidBuildAContentModel(content->c1, ctxt, name);

	push	DWORD PTR _name$[ebp]
	push	edi
	push	DWORD PTR [esi+12]
	call	_xmlValidBuildAContentModel

; 728  : 		content = content->c2;

	mov	esi, DWORD PTR [esi+16]
	add	esp, 12					; 0000000cH

; 729  : 	    } while ((content->type == XML_ELEMENT_CONTENT_SEQ) &&

	cmp	DWORD PTR [esi], 3
	jne	SHORT $LN27@xmlValidBu
	cmp	DWORD PTR [esi+4], 1
	je	SHORT $LL8@xmlValidBu
$LN27@xmlValidBu:

; 730  : 		     (content->ocur == XML_ELEMENT_CONTENT_ONCE));
; 731  : 	    xmlValidBuildAContentModel(content, ctxt, name);

	push	DWORD PTR _name$[ebp]
	push	edi
	push	esi
	call	_xmlValidBuildAContentModel

; 732  : 	    oldend = ctxt->state;

	mov	eax, DWORD PTR [edi+60]

; 733  : 	    ctxt->state = xmlAutomataNewEpsilon(ctxt->am, oldend, NULL);

	push	0
	push	eax
	push	DWORD PTR [edi+56]
	mov	DWORD PTR _oldend$1$[ebp], eax
	call	_xmlAutomataNewEpsilon
	add	esp, 24					; 00000018H
	mov	DWORD PTR [edi+60], eax

; 734  : 	    switch (ocur) {

	sub	ebx, 2
	je	SHORT $LN29@xmlValidBu
	sub	ebx, 1
	je	SHORT $LN30@xmlValidBu
	sub	ebx, 1
	jne	$LN14@xmlValidBu

; 743  : 		    break;
; 744  : 		case XML_ELEMENT_CONTENT_PLUS:
; 745  : 		    xmlAutomataNewEpsilon(ctxt->am, oldend, oldstate);

	mov	esi, DWORD PTR _oldstate$1$[ebp]
	push	esi
	push	DWORD PTR _oldend$1$[ebp]
	jmp	$LN68@xmlValidBu
$LN30@xmlValidBu:

; 739  : 		    break;
; 740  : 		case XML_ELEMENT_CONTENT_MULT:
; 741  : 		    xmlAutomataNewEpsilon(ctxt->am, oldstate, ctxt->state);

	mov	esi, DWORD PTR _oldstate$1$[ebp]
	push	eax
	push	esi
	push	DWORD PTR [edi+56]
	call	_xmlAutomataNewEpsilon

; 742  : 		    xmlAutomataNewEpsilon(ctxt->am, oldend, oldstate);

	push	esi
	push	DWORD PTR _oldend$1$[ebp]
	push	DWORD PTR [edi+56]
	call	_xmlAutomataNewEpsilon
	add	esp, 24					; 00000018H

; 799  :     }
; 800  :     return(1);

	mov	eax, 1
	pop	edi
	pop	ebx
	pop	esi

; 801  : }

	mov	esp, ebp
	pop	ebp
	ret	0
$LN29@xmlValidBu:

; 735  : 		case XML_ELEMENT_CONTENT_ONCE:
; 736  : 		    break;
; 737  : 		case XML_ELEMENT_CONTENT_OPT:
; 738  : 		    xmlAutomataNewEpsilon(ctxt->am, oldstate, ctxt->state);

	mov	esi, DWORD PTR _oldstate$1$[ebp]
	push	eax
	push	esi

; 746  : 		    break;
; 747  : 	    }
; 748  : 	    break;

	jmp	$LN68@xmlValidBu
$LN32@xmlValidBu:

; 749  : 	}
; 750  : 	case XML_ELEMENT_CONTENT_OR: {
; 751  : 	    xmlAutomataStatePtr oldstate, oldend;
; 752  : 	    xmlElementContentOccur ocur;
; 753  : 
; 754  : 	    ocur = content->ocur;

	mov	ebx, DWORD PTR [esi+4]

; 755  : 	    if ((ocur == XML_ELEMENT_CONTENT_PLUS) ||

	mov	edi, DWORD PTR _ctxt$[ebp]
	mov	DWORD PTR _ocur$1$[ebp], ebx
	cmp	ebx, 4
	je	SHORT $LN34@xmlValidBu
	cmp	ebx, 3
	jne	SHORT $LN33@xmlValidBu
$LN34@xmlValidBu:

; 756  : 		(ocur == XML_ELEMENT_CONTENT_MULT)) {
; 757  : 		ctxt->state = xmlAutomataNewEpsilon(ctxt->am,

	push	0
	push	DWORD PTR [edi+60]
	push	DWORD PTR [edi+56]
	call	_xmlAutomataNewEpsilon
	add	esp, 12					; 0000000cH
	mov	DWORD PTR [edi+60], eax
$LN33@xmlValidBu:

; 758  : 			ctxt->state, NULL);
; 759  : 	    }
; 760  : 	    oldstate = ctxt->state;

	mov	eax, DWORD PTR [edi+60]

; 761  : 	    oldend = xmlAutomataNewState(ctxt->am);

	push	DWORD PTR [edi+56]
	mov	DWORD PTR _oldstate$1$[ebp], eax
	call	_xmlAutomataNewState
	mov	ebx, DWORD PTR _oldstate$1$[ebp]
	add	esp, 4
	mov	DWORD PTR _oldend$1$[ebp], eax
	npad	4
$LL13@xmlValidBu:

; 762  : 
; 763  : 	    /*
; 764  : 	     * iterate over the subtypes and remerge the end with an
; 765  : 	     * epsilon transition
; 766  : 	     */
; 767  : 	    do {
; 768  : 		ctxt->state = oldstate;
; 769  : 		xmlValidBuildAContentModel(content->c1, ctxt, name);

	push	DWORD PTR _name$[ebp]
	mov	DWORD PTR [edi+60], ebx
	push	edi
	push	DWORD PTR [esi+12]
	call	_xmlValidBuildAContentModel

; 770  : 		xmlAutomataNewEpsilon(ctxt->am, ctxt->state, oldend);

	push	DWORD PTR _oldend$1$[ebp]
	push	DWORD PTR [edi+60]
	push	DWORD PTR [edi+56]
	call	_xmlAutomataNewEpsilon

; 771  : 		content = content->c2;

	mov	esi, DWORD PTR [esi+16]
	add	esp, 24					; 00000018H

; 772  : 	    } while ((content->type == XML_ELEMENT_CONTENT_OR) &&

	cmp	DWORD PTR [esi], 4
	jne	SHORT $LN35@xmlValidBu
	cmp	DWORD PTR [esi+4], 1
	je	SHORT $LL13@xmlValidBu
$LN35@xmlValidBu:

; 773  : 		     (content->ocur == XML_ELEMENT_CONTENT_ONCE));
; 774  : 	    ctxt->state = oldstate;
; 775  : 	    xmlValidBuildAContentModel(content, ctxt, name);

	push	DWORD PTR _name$[ebp]
	mov	eax, ebx
	push	edi
	push	esi
	mov	DWORD PTR [edi+60], eax
	call	_xmlValidBuildAContentModel

; 776  : 	    xmlAutomataNewEpsilon(ctxt->am, ctxt->state, oldend);

	mov	esi, DWORD PTR _oldend$1$[ebp]
	push	esi
	push	DWORD PTR [edi+60]
	push	DWORD PTR [edi+56]
	call	_xmlAutomataNewEpsilon

; 777  : 	    ctxt->state = xmlAutomataNewEpsilon(ctxt->am, oldend, NULL);

	push	0
	push	esi
	push	DWORD PTR [edi+56]
	call	_xmlAutomataNewEpsilon

; 778  : 	    switch (ocur) {

	mov	ebx, DWORD PTR _ocur$1$[ebp]
	add	esp, 36					; 00000024H
	mov	DWORD PTR [edi+60], eax
	sub	ebx, 2
	je	SHORT $LN37@xmlValidBu
	sub	ebx, 1
	je	SHORT $LN38@xmlValidBu
	sub	ebx, 1
	jne	SHORT $LN14@xmlValidBu

; 787  : 		    break;
; 788  : 		case XML_ELEMENT_CONTENT_PLUS:
; 789  : 		    xmlAutomataNewEpsilon(ctxt->am, oldend, oldstate);

	push	DWORD PTR _oldstate$1$[ebp]
	push	esi
	jmp	SHORT $LN68@xmlValidBu
$LN38@xmlValidBu:

; 783  : 		    break;
; 784  : 		case XML_ELEMENT_CONTENT_MULT:
; 785  : 		    xmlAutomataNewEpsilon(ctxt->am, oldstate, ctxt->state);

	mov	ebx, DWORD PTR _oldstate$1$[ebp]
	push	eax
	push	ebx
	push	DWORD PTR [edi+56]
	call	_xmlAutomataNewEpsilon

; 786  : 		    xmlAutomataNewEpsilon(ctxt->am, oldend, oldstate);

	push	ebx
	push	esi
	push	DWORD PTR [edi+56]
	call	_xmlAutomataNewEpsilon
	add	esp, 24					; 00000018H

; 799  :     }
; 800  :     return(1);

	mov	eax, 1
	pop	edi
	pop	ebx
	pop	esi

; 801  : }

	mov	esp, ebp
	pop	ebp
	ret	0
$LN37@xmlValidBu:

; 779  : 		case XML_ELEMENT_CONTENT_ONCE:
; 780  : 		    break;
; 781  : 		case XML_ELEMENT_CONTENT_OPT:
; 782  : 		    xmlAutomataNewEpsilon(ctxt->am, oldstate, ctxt->state);

	push	eax
	push	DWORD PTR _oldstate$1$[ebp]
$LN68@xmlValidBu:

; 799  :     }
; 800  :     return(1);

	push	DWORD PTR [edi+56]
	call	_xmlAutomataNewEpsilon
	add	esp, 12					; 0000000cH
$LN14@xmlValidBu:
	pop	edi
	pop	ebx
	mov	eax, 1
	pop	esi

; 801  : }

	mov	esp, ebp
	pop	ebp
	ret	0
$LN40@xmlValidBu:

; 790  : 		    break;
; 791  : 	    }
; 792  : 	    break;
; 793  : 	}
; 794  : 	default:
; 795  : 	    xmlErrValid(ctxt, XML_ERR_INTERNAL_ERROR,

	push	DWORD PTR _name$[ebp]
	push	OFFSET ??_C@_0CE@LMBMADBI@ContentModel?5broken?5for?5element@
	push	1
	push	DWORD PTR _ctxt$[ebp]
	call	_xmlErrValid
	add	esp, 16					; 00000010H

; 796  : 	                "ContentModel broken for element %s\n",
; 797  : 			(const char *) name);
; 798  : 	    return(0);

	xor	eax, eax
	pop	edi
	pop	ebx
	pop	esi

; 801  : }

	mov	esp, ebp
	pop	ebp
	ret	0
$LN70@xmlValidBu:
	DD	$LN17@xmlValidBu
	DD	$LN18@xmlValidBu
	DD	$LN25@xmlValidBu
	DD	$LN32@xmlValidBu
$LN71@xmlValidBu:
	DD	$LN20@xmlValidBu
	DD	$LN21@xmlValidBu
	DD	$LN23@xmlValidBu
	DD	$LN22@xmlValidBu
_xmlValidBuildAContentModel ENDP
_TEXT	ENDS
; Function compile flags: /Ogtp
; File c:\users\dag\documents\_clients\codeproject authors group\windows on arm\libxml2\libxml2-2.9.9\valid.c
;	COMDAT _nodeVPop
_TEXT	SEGMENT
_ctxt$ = 8						; size = 4
_nodeVPop PROC						; COMDAT

; 467  : {

	push	ebp
	mov	ebp, esp
	mov	ecx, OFFSET __56F63275_valid@c
	call	@__CheckForDebuggerJustMyCode@4
	mov	edx, DWORD PTR _ctxt$[ebp]
	mov	ecx, DWORD PTR [edx+16]
	test	ecx, ecx
	jg	SHORT $LN2@nodeVPop

; 468  :     xmlNodePtr ret;
; 469  : 
; 470  :     if (ctxt->nodeNr <= 0)
; 471  :         return (NULL);

	xor	eax, eax

; 480  : }

	pop	ebp
	ret	0
$LN2@nodeVPop:

; 472  :     ctxt->nodeNr--;

	dec	ecx
	mov	DWORD PTR [edx+16], ecx

; 473  :     if (ctxt->nodeNr > 0)

	test	ecx, ecx
	jle	SHORT $LN3@nodeVPop

; 474  :         ctxt->node = ctxt->nodeTab[ctxt->nodeNr - 1];

	mov	eax, DWORD PTR [edx+24]
	mov	eax, DWORD PTR [eax+ecx*4-4]

; 477  :     ret = ctxt->nodeTab[ctxt->nodeNr];

	mov	DWORD PTR [edx+12], eax
	mov	eax, DWORD PTR [edx+24]
	mov	edx, DWORD PTR [eax+ecx*4]

; 478  :     ctxt->nodeTab[ctxt->nodeNr] = NULL;

	mov	DWORD PTR [eax+ecx*4], 0

; 479  :     return (ret);

	mov	eax, edx

; 480  : }

	pop	ebp
	ret	0
$LN3@nodeVPop:

; 475  :     else
; 476  :         ctxt->node = NULL;

	xor	eax, eax

; 477  :     ret = ctxt->nodeTab[ctxt->nodeNr];

	mov	DWORD PTR [edx+12], eax
	mov	eax, DWORD PTR [edx+24]
	mov	edx, DWORD PTR [eax+ecx*4]

; 478  :     ctxt->nodeTab[ctxt->nodeNr] = NULL;

	mov	DWORD PTR [eax+ecx*4], 0

; 479  :     return (ret);

	mov	eax, edx

; 480  : }

	pop	ebp
	ret	0
_nodeVPop ENDP
_TEXT	ENDS
; Function compile flags: /Ogtp
; File c:\users\dag\documents\_clients\codeproject authors group\windows on arm\libxml2\libxml2-2.9.9\valid.c
;	COMDAT _nodeVPush
_TEXT	SEGMENT
_ctxt$ = 8						; size = 4
_value$ = 12						; size = 4
_nodeVPush PROC						; COMDAT

; 438  : {

	push	ebp
	mov	ebp, esp
	push	esi
	mov	ecx, OFFSET __56F63275_valid@c
	call	@__CheckForDebuggerJustMyCode@4
	mov	esi, DWORD PTR _ctxt$[ebp]
	cmp	DWORD PTR [esi+20], 0
	jg	SHORT $LN10@nodeVPush

; 439  :     if (ctxt->nodeMax <= 0) {
; 440  :         ctxt->nodeMax = 4;

	push	16					; 00000010H
	mov	DWORD PTR [esi+20], 4

; 441  :         ctxt->nodeTab =

	call	DWORD PTR _xmlMalloc
	add	esp, 4
	mov	DWORD PTR [esi+24], eax

; 442  :             (xmlNodePtr *) xmlMalloc(ctxt->nodeMax *
; 443  :                                      sizeof(ctxt->nodeTab[0]));
; 444  :         if (ctxt->nodeTab == NULL) {

	test	eax, eax
	jne	SHORT $LN10@nodeVPush

; 445  : 	    xmlVErrMemory(ctxt, "malloc failed");

	push	OFFSET ??_C@_0O@IMHFIAOC@malloc?5failed@
	push	esi
	call	_xmlVErrMemory
	add	esp, 8

; 446  :             ctxt->nodeMax = 0;

	mov	DWORD PTR [esi+20], 0

; 447  :             return (0);

	xor	eax, eax
	pop	esi

; 464  : }

	pop	ebp
	ret	0
$LN10@nodeVPush:

; 448  :         }
; 449  :     }
; 450  :     if (ctxt->nodeNr >= ctxt->nodeMax) {

	mov	edx, DWORD PTR [esi+16]
	mov	eax, DWORD PTR [esi+20]
	cmp	edx, eax
	jl	SHORT $LN11@nodeVPush

; 451  :         xmlNodePtr *tmp;
; 452  :         tmp = (xmlNodePtr *) xmlRealloc(ctxt->nodeTab,

	shl	eax, 3
	push	eax
	push	DWORD PTR [esi+24]
	call	DWORD PTR _xmlRealloc
	mov	ecx, eax
	add	esp, 8

; 453  : 			      ctxt->nodeMax * 2 * sizeof(ctxt->nodeTab[0]));
; 454  :         if (tmp == NULL) {

	test	ecx, ecx
	jne	SHORT $LN5@nodeVPush

; 455  : 	    xmlVErrMemory(ctxt, "realloc failed");

	push	OFFSET ??_C@_0P@BHJOIPMJ@realloc?5failed@
	push	esi
	call	_xmlVErrMemory
	add	esp, 8

; 456  :             return (0);

	xor	eax, eax
	pop	esi

; 464  : }

	pop	ebp
	ret	0
$LN5@nodeVPush:

; 457  :         }
; 458  :         ctxt->nodeMax *= 2;

	mov	eax, DWORD PTR [esi+20]

; 459  : 	ctxt->nodeTab = tmp;

	mov	edx, DWORD PTR [esi+16]
	add	eax, eax
	mov	DWORD PTR [esi+20], eax
	mov	DWORD PTR [esi+24], ecx
$LN11@nodeVPush:

; 460  :     }
; 461  :     ctxt->nodeTab[ctxt->nodeNr] = value;

	mov	eax, DWORD PTR [esi+24]
	mov	ecx, DWORD PTR _value$[ebp]
	mov	DWORD PTR [eax+edx*4], ecx

; 462  :     ctxt->node = value;
; 463  :     return (ctxt->nodeNr++);

	mov	eax, DWORD PTR [esi+16]
	mov	DWORD PTR [esi+12], ecx
	lea	ecx, DWORD PTR [eax+1]
	mov	DWORD PTR [esi+16], ecx
	pop	esi

; 464  : }

	pop	ebp
	ret	0
_nodeVPush ENDP
_TEXT	ENDS
; Function compile flags: /Ogtp
; File c:\users\dag\documents\_clients\codeproject authors group\windows on arm\libxml2\libxml2-2.9.9\valid.c
;	COMDAT _vstateVPop
_TEXT	SEGMENT
_ctxt$ = 8						; size = 4
_vstateVPop PROC					; COMDAT

; 318  : vstateVPop(xmlValidCtxtPtr ctxt) {

	push	ebp
	mov	ebp, esp
	push	esi
	mov	ecx, OFFSET __56F63275_valid@c
	call	@__CheckForDebuggerJustMyCode@4
	mov	esi, DWORD PTR _ctxt$[ebp]
	mov	edx, DWORD PTR [esi+44]
	cmp	edx, 1
	jge	SHORT $LN2@vstateVPop

; 319  :     xmlElementPtr elemDecl;
; 320  : 
; 321  :     if (ctxt->vstateNr < 1) return(-1);

	or	eax, -1
	pop	esi

; 335  : }

	pop	ebp
	ret	0
$LN2@vstateVPop:

; 322  :     ctxt->vstateNr--;
; 323  :     elemDecl = ctxt->vstateTab[ctxt->vstateNr].elemDecl;

	mov	ecx, DWORD PTR [esi+52]
	dec	edx
	mov	DWORD PTR [esi+44], edx
	push	edi
	lea	eax, DWORD PTR [edx+edx*2]
	mov	edi, DWORD PTR [ecx+eax*4]

; 324  :     ctxt->vstateTab[ctxt->vstateNr].elemDecl = NULL;

	lea	eax, DWORD PTR [edx+edx*2]
	mov	DWORD PTR [ecx+eax*4], 0

; 325  :     ctxt->vstateTab[ctxt->vstateNr].node = NULL;

	mov	eax, DWORD PTR [esi+44]
	lea	ecx, DWORD PTR [eax+eax*2]
	mov	eax, DWORD PTR [esi+52]
	mov	DWORD PTR [eax+ecx*4+4], 0

; 326  :     if ((elemDecl != NULL) && (elemDecl->etype == XML_ELEMENT_TYPE_ELEMENT)) {

	test	edi, edi
	je	SHORT $LN3@vstateVPop
	cmp	DWORD PTR [edi+36], 4
	jne	SHORT $LN3@vstateVPop

; 327  : 	xmlRegFreeExecCtxt(ctxt->vstateTab[ctxt->vstateNr].exec);

	mov	eax, DWORD PTR [esi+44]
	lea	ecx, DWORD PTR [eax+eax*2]
	mov	eax, DWORD PTR [esi+52]
	push	DWORD PTR [eax+ecx*4+8]
	call	_xmlRegFreeExecCtxt
	add	esp, 4
$LN3@vstateVPop:

; 328  :     }
; 329  :     ctxt->vstateTab[ctxt->vstateNr].exec = NULL;

	mov	eax, DWORD PTR [esi+44]

; 330  :     if (ctxt->vstateNr >= 1)

	pop	edi
	lea	ecx, DWORD PTR [eax+eax*2]
	mov	eax, DWORD PTR [esi+52]
	mov	DWORD PTR [eax+ecx*4+8], 0
	mov	eax, DWORD PTR [esi+44]
	cmp	eax, 1
	jl	SHORT $LN4@vstateVPop

; 331  : 	ctxt->vstate = &ctxt->vstateTab[ctxt->vstateNr - 1];

	lea	ecx, DWORD PTR [eax+eax*2]
	mov	eax, DWORD PTR [esi+52]
	lea	eax, DWORD PTR [eax+ecx*4]
	add	eax, -12				; fffffff4H

; 334  :     return(ctxt->vstateNr);

	mov	DWORD PTR [esi+40], eax
	mov	eax, DWORD PTR [esi+44]
	pop	esi

; 335  : }

	pop	ebp
	ret	0
$LN4@vstateVPop:

; 332  :     else
; 333  : 	ctxt->vstate = NULL;

	xor	eax, eax

; 334  :     return(ctxt->vstateNr);

	mov	DWORD PTR [esi+40], eax
	mov	eax, DWORD PTR [esi+44]
	pop	esi

; 335  : }

	pop	ebp
	ret	0
_vstateVPop ENDP
_TEXT	ENDS
; Function compile flags: /Ogtp
; File c:\users\dag\documents\_clients\codeproject authors group\windows on arm\libxml2\libxml2-2.9.9\valid.c
;	COMDAT _vstateVPush
_TEXT	SEGMENT
_ctxt$ = 8						; size = 4
_elemDecl$ = 12						; size = 4
_node$ = 16						; size = 4
_vstateVPush PROC					; COMDAT

; 274  : vstateVPush(xmlValidCtxtPtr ctxt, xmlElementPtr elemDecl, xmlNodePtr node) {

	push	ebp
	mov	ebp, esp
	push	esi
	push	edi
	mov	ecx, OFFSET __56F63275_valid@c
	call	@__CheckForDebuggerJustMyCode@4
	mov	esi, DWORD PTR _ctxt$[ebp]
	mov	eax, DWORD PTR [esi+48]
	test	eax, eax
	je	SHORT $LN14@vstateVPus

; 275  :     if ((ctxt->vstateMax == 0) || (ctxt->vstateTab == NULL)) {

	mov	ecx, DWORD PTR [esi+52]
	test	ecx, ecx
	jne	SHORT $LN4@vstateVPus
$LN14@vstateVPus:

; 276  : 	ctxt->vstateMax = 10;
; 277  : 	ctxt->vstateTab = (xmlValidState *) xmlMalloc(ctxt->vstateMax *

	push	120					; 00000078H
	mov	DWORD PTR [esi+48], 10			; 0000000aH
	call	DWORD PTR _xmlMalloc
	mov	ecx, eax
	add	esp, 4
	mov	DWORD PTR [esi+52], ecx

; 278  : 		              sizeof(ctxt->vstateTab[0]));
; 279  :         if (ctxt->vstateTab == NULL) {

	test	ecx, ecx
	jne	SHORT $LN13@vstateVPus

; 280  : 	    xmlVErrMemory(ctxt, "malloc failed");

	push	OFFSET ??_C@_0O@IMHFIAOC@malloc?5failed@
	push	esi
	call	_xmlVErrMemory
	add	esp, 8

; 281  : 	    return(-1);

	or	eax, -1
	pop	edi

; 315  : }

	pop	esi
	pop	ebp
	ret	0
$LN13@vstateVPus:

; 275  :     if ((ctxt->vstateMax == 0) || (ctxt->vstateTab == NULL)) {

	mov	eax, DWORD PTR [esi+48]
$LN4@vstateVPus:

; 282  : 	}
; 283  :     }
; 284  : 
; 285  :     if (ctxt->vstateNr >= ctxt->vstateMax) {

	mov	edx, DWORD PTR [esi+44]
	cmp	edx, eax
	jl	SHORT $LN15@vstateVPus

; 286  :         xmlValidState *tmp;
; 287  : 
; 288  : 	tmp = (xmlValidState *) xmlRealloc(ctxt->vstateTab,

	lea	eax, DWORD PTR [eax+eax*2]
	shl	eax, 3
	push	eax
	push	ecx
	call	DWORD PTR _xmlRealloc
	mov	ecx, eax
	add	esp, 8

; 289  : 	             2 * ctxt->vstateMax * sizeof(ctxt->vstateTab[0]));
; 290  :         if (tmp == NULL) {

	test	ecx, ecx
	jne	SHORT $LN6@vstateVPus

; 291  : 	    xmlVErrMemory(ctxt, "realloc failed");

	push	OFFSET ??_C@_0P@BHJOIPMJ@realloc?5failed@
	push	esi
	call	_xmlVErrMemory
	add	esp, 8

; 292  : 	    return(-1);

	or	eax, -1
	pop	edi

; 315  : }

	pop	esi
	pop	ebp
	ret	0
$LN6@vstateVPus:

; 293  : 	}
; 294  : 	ctxt->vstateMax *= 2;

	mov	eax, DWORD PTR [esi+48]

; 295  : 	ctxt->vstateTab = tmp;

	mov	edx, DWORD PTR [esi+44]
	add	eax, eax
	mov	DWORD PTR [esi+48], eax
	mov	DWORD PTR [esi+52], ecx
$LN15@vstateVPus:

; 296  :     }
; 297  :     ctxt->vstate = &ctxt->vstateTab[ctxt->vstateNr];

	lea	eax, DWORD PTR [edx+edx*2]

; 298  :     ctxt->vstateTab[ctxt->vstateNr].elemDecl = elemDecl;
; 299  :     ctxt->vstateTab[ctxt->vstateNr].node = node;

	mov	edx, DWORD PTR _node$[ebp]
	lea	eax, DWORD PTR [ecx+eax*4]
	mov	DWORD PTR [esi+40], eax
	push	ebx
	mov	ebx, DWORD PTR _elemDecl$[ebp]
	mov	DWORD PTR [eax], ebx
	mov	eax, DWORD PTR [esi+44]
	lea	ecx, DWORD PTR [eax+eax*2]
	mov	eax, DWORD PTR [esi+52]
	mov	DWORD PTR [eax+ecx*4+4], edx

; 300  :     if ((elemDecl != NULL) && (elemDecl->etype == XML_ELEMENT_TYPE_ELEMENT)) {

	test	ebx, ebx
	je	SHORT $LN10@vstateVPus
	cmp	DWORD PTR [ebx+36], 4
	jne	SHORT $LN10@vstateVPus

; 301  : 	if (elemDecl->contModel == NULL)

	mov	eax, DWORD PTR [ebx+52]
	test	eax, eax
	jne	SHORT $LN17@vstateVPus

; 302  : 	    xmlValidBuildContentModel(ctxt, elemDecl);

	push	ebx
	push	esi
	call	_xmlValidBuildContentModel
	mov	eax, DWORD PTR [ebx+52]
	add	esp, 8
	mov	edx, DWORD PTR _node$[ebp]

; 303  : 	if (elemDecl->contModel != NULL) {

	test	eax, eax
	je	SHORT $LN9@vstateVPus
$LN17@vstateVPus:

; 304  : 	    ctxt->vstateTab[ctxt->vstateNr].exec =

	push	0
	push	0
	push	eax
	call	_xmlRegNewExecCtxt
	mov	ecx, DWORD PTR [esi+44]
	add	esp, 12					; 0000000cH
	lea	edx, DWORD PTR [ecx+ecx*2]
	mov	ecx, DWORD PTR [esi+52]

; 309  : 	                    XML_ERR_INTERNAL_ERROR,
; 310  : 			    "Failed to build content model regexp for %s\n",
; 311  : 			    node->name, NULL, NULL);
; 312  : 	}
; 313  :     }
; 314  :     return(ctxt->vstateNr++);

	pop	ebx
	pop	edi
	mov	DWORD PTR [ecx+edx*4+8], eax
	mov	eax, DWORD PTR [esi+44]
	lea	ecx, DWORD PTR [eax+1]
	mov	DWORD PTR [esi+44], ecx

; 315  : }

	pop	esi
	pop	ebp
	ret	0
$LN9@vstateVPus:

; 305  : 		xmlRegNewExecCtxt(elemDecl->contModel, NULL, NULL);
; 306  : 	} else {
; 307  : 	    ctxt->vstateTab[ctxt->vstateNr].exec = NULL;

	mov	eax, DWORD PTR [esi+44]

; 308  : 	    xmlErrValidNode(ctxt, (xmlNodePtr) elemDecl,

	push	0
	push	0
	lea	ecx, DWORD PTR [eax+eax*2]
	mov	eax, DWORD PTR [esi+52]
	mov	DWORD PTR [eax+ecx*4+8], 0
	push	DWORD PTR [edx+8]
	push	OFFSET ??_C@_0CN@GEBFHDLO@Failed?5to?5build?5content?5model?5r@
	push	1
	push	ebx
	push	esi
	call	_xmlErrValidNode
	add	esp, 28					; 0000001cH
$LN10@vstateVPus:

; 309  : 	                    XML_ERR_INTERNAL_ERROR,
; 310  : 			    "Failed to build content model regexp for %s\n",
; 311  : 			    node->name, NULL, NULL);
; 312  : 	}
; 313  :     }
; 314  :     return(ctxt->vstateNr++);

	mov	eax, DWORD PTR [esi+44]
	pop	ebx
	pop	edi
	lea	ecx, DWORD PTR [eax+1]
	mov	DWORD PTR [esi+44], ecx

; 315  : }

	pop	esi
	pop	ebp
	ret	0
_vstateVPush ENDP
_TEXT	ENDS
; Function compile flags: /Ogtp
; File c:\users\dag\documents\_clients\codeproject authors group\windows on arm\libxml2\libxml2-2.9.9\valid.c
;	COMDAT _xmlErrValidWarning
_TEXT	SEGMENT
_ctxt$ = 8						; size = 4
_node$ = 12						; size = 4
_error$ = 16						; size = 4
_msg$ = 20						; size = 4
_str1$ = 24						; size = 4
_str2$ = 28						; size = 4
_str3$ = 32						; size = 4
_xmlErrValidWarning PROC				; COMDAT

; 229  : {

	push	ebp
	mov	ebp, esp
	push	ebx
	push	esi
	push	edi
	mov	ecx, OFFSET __56F63275_valid@c
	call	@__CheckForDebuggerJustMyCode@4
	mov	eax, DWORD PTR _ctxt$[ebp]
	xor	ebx, ebx
	xor	edi, edi
	xor	esi, esi
	test	eax, eax
	je	SHORT $LN5@xmlErrVali

; 230  :     xmlStructuredErrorFunc schannel = NULL;
; 231  :     xmlGenericErrorFunc channel = NULL;
; 232  :     xmlParserCtxtPtr pctxt = NULL;
; 233  :     void *data = NULL;
; 234  : 
; 235  :     if (ctxt != NULL) {
; 236  :         channel = ctxt->warning;

	mov	ecx, DWORD PTR [eax+28]
	mov	ebx, DWORD PTR [eax+8]

; 237  :         data = ctxt->userData;

	mov	esi, DWORD PTR [eax]

; 238  : 	/* Use the special values to detect if it is part of a parsing
; 239  : 	   context */
; 240  : 	if ((ctxt->finishDtd == XML_CTXT_FINISH_DTD_0) ||

	cmp	ecx, -1412623820			; abcd1234H
	je	SHORT $LN4@xmlErrVali
	cmp	ecx, -1412623819			; abcd1235H
	jne	SHORT $LN5@xmlErrVali
$LN4@xmlErrVali:

; 241  : 	    (ctxt->finishDtd == XML_CTXT_FINISH_DTD_1)) {
; 242  : 	    long delta = (char *) ctxt - (char *) ctxt->userData;

	sub	eax, esi

; 243  : 	    if ((delta > 0) && (delta < 250))

	dec	eax
	cmp	eax, 248				; 000000f8H
	cmovbe	edi, esi
$LN5@xmlErrVali:

; 244  : 		pctxt = ctxt->userData;
; 245  : 	}
; 246  :     }
; 247  :     __xmlRaiseError(schannel, channel, data, pctxt, node, XML_FROM_VALID, error,

	mov	edx, DWORD PTR _str3$[ebp]
	mov	ecx, DWORD PTR _str2$[ebp]
	mov	eax, DWORD PTR _str1$[ebp]
	push	edx
	push	ecx
	push	eax
	push	DWORD PTR _msg$[ebp]
	push	0
	push	0
	push	edx
	push	ecx
	push	eax
	push	0
	push	0
	push	1
	push	DWORD PTR _error$[ebp]
	push	23					; 00000017H
	push	DWORD PTR _node$[ebp]
	push	edi
	push	esi
	push	ebx
	push	0
	call	___xmlRaiseError
	add	esp, 76					; 0000004cH
	pop	edi
	pop	esi
	pop	ebx

; 248  :                     XML_ERR_WARNING, NULL, 0,
; 249  :                     (const char *) str1,
; 250  :                     (const char *) str2,
; 251  :                     (const char *) str3, 0, 0, msg, str1, str2, str3);
; 252  : }

	pop	ebp
	ret	0
_xmlErrValidWarning ENDP
_TEXT	ENDS
; Function compile flags: /Ogtp
; File c:\users\dag\documents\_clients\codeproject authors group\windows on arm\libxml2\libxml2-2.9.9\valid.c
;	COMDAT _xmlErrValidNodeNr
_TEXT	SEGMENT
_ctxt$ = 8						; size = 4
_node$ = 12						; size = 4
_error$ = 16						; size = 4
_msg$ = 20						; size = 4
_str1$ = 24						; size = 4
_int2$ = 28						; size = 4
_str3$ = 32						; size = 4
_xmlErrValidNodeNr PROC					; COMDAT

; 188  : {

	push	ebp
	mov	ebp, esp
	push	ebx
	push	esi
	push	edi
	mov	ecx, OFFSET __56F63275_valid@c
	call	@__CheckForDebuggerJustMyCode@4
	mov	eax, DWORD PTR _ctxt$[ebp]
	xor	ebx, ebx
	xor	edi, edi
	xor	esi, esi
	test	eax, eax
	je	SHORT $LN5@xmlErrVali

; 189  :     xmlStructuredErrorFunc schannel = NULL;
; 190  :     xmlGenericErrorFunc channel = NULL;
; 191  :     xmlParserCtxtPtr pctxt = NULL;
; 192  :     void *data = NULL;
; 193  : 
; 194  :     if (ctxt != NULL) {
; 195  :         channel = ctxt->error;

	mov	ecx, DWORD PTR [eax+28]
	mov	ebx, DWORD PTR [eax+4]

; 196  :         data = ctxt->userData;

	mov	esi, DWORD PTR [eax]

; 197  : 	/* Use the special values to detect if it is part of a parsing
; 198  : 	   context */
; 199  : 	if ((ctxt->finishDtd == XML_CTXT_FINISH_DTD_0) ||

	cmp	ecx, -1412623820			; abcd1234H
	je	SHORT $LN4@xmlErrVali
	cmp	ecx, -1412623819			; abcd1235H
	jne	SHORT $LN5@xmlErrVali
$LN4@xmlErrVali:

; 200  : 	    (ctxt->finishDtd == XML_CTXT_FINISH_DTD_1)) {
; 201  : 	    long delta = (char *) ctxt - (char *) ctxt->userData;

	sub	eax, esi

; 202  : 	    if ((delta > 0) && (delta < 250))

	dec	eax
	cmp	eax, 248				; 000000f8H
	cmovbe	edi, esi
$LN5@xmlErrVali:

; 203  : 		pctxt = ctxt->userData;
; 204  : 	}
; 205  :     }
; 206  :     __xmlRaiseError(schannel, channel, data, pctxt, node, XML_FROM_VALID, error,

	mov	edx, DWORD PTR _str3$[ebp]
	mov	eax, DWORD PTR _int2$[ebp]
	mov	ecx, DWORD PTR _str1$[ebp]
	push	edx
	push	eax
	push	ecx
	push	DWORD PTR _msg$[ebp]
	push	0
	push	eax
	push	0
	push	edx
	push	ecx
	push	0
	push	0
	push	2
	push	DWORD PTR _error$[ebp]
	push	23					; 00000017H
	push	DWORD PTR _node$[ebp]
	push	edi
	push	esi
	push	ebx
	push	0
	call	___xmlRaiseError
	add	esp, 76					; 0000004cH
	pop	edi
	pop	esi
	pop	ebx

; 207  :                     XML_ERR_ERROR, NULL, 0,
; 208  :                     (const char *) str1,
; 209  :                     (const char *) str3,
; 210  :                     NULL, int2, 0, msg, str1, int2, str3);
; 211  : }

	pop	ebp
	ret	0
_xmlErrValidNodeNr ENDP
_TEXT	ENDS
; Function compile flags: /Ogtp
; File c:\users\dag\documents\_clients\codeproject authors group\windows on arm\libxml2\libxml2-2.9.9\valid.c
;	COMDAT _xmlErrValidNode
_TEXT	SEGMENT
_ctxt$ = 8						; size = 4
_node$ = 12						; size = 4
_error$ = 16						; size = 4
_msg$ = 20						; size = 4
_str1$ = 24						; size = 4
_str2$ = 28						; size = 4
_str3$ = 32						; size = 4
_xmlErrValidNode PROC					; COMDAT

; 145  : {

	push	ebp
	mov	ebp, esp
	push	ebx
	push	esi
	push	edi
	mov	ecx, OFFSET __56F63275_valid@c
	call	@__CheckForDebuggerJustMyCode@4
	mov	eax, DWORD PTR _ctxt$[ebp]
	xor	ebx, ebx
	xor	edi, edi
	xor	esi, esi
	test	eax, eax
	je	SHORT $LN5@xmlErrVali

; 146  :     xmlStructuredErrorFunc schannel = NULL;
; 147  :     xmlGenericErrorFunc channel = NULL;
; 148  :     xmlParserCtxtPtr pctxt = NULL;
; 149  :     void *data = NULL;
; 150  : 
; 151  :     if (ctxt != NULL) {
; 152  :         channel = ctxt->error;

	mov	ecx, DWORD PTR [eax+28]
	mov	ebx, DWORD PTR [eax+4]

; 153  :         data = ctxt->userData;

	mov	esi, DWORD PTR [eax]

; 154  : 	/* Use the special values to detect if it is part of a parsing
; 155  : 	   context */
; 156  : 	if ((ctxt->finishDtd == XML_CTXT_FINISH_DTD_0) ||

	cmp	ecx, -1412623820			; abcd1234H
	je	SHORT $LN4@xmlErrVali
	cmp	ecx, -1412623819			; abcd1235H
	jne	SHORT $LN5@xmlErrVali
$LN4@xmlErrVali:

; 157  : 	    (ctxt->finishDtd == XML_CTXT_FINISH_DTD_1)) {
; 158  : 	    long delta = (char *) ctxt - (char *) ctxt->userData;

	sub	eax, esi

; 159  : 	    if ((delta > 0) && (delta < 250))

	dec	eax
	cmp	eax, 248				; 000000f8H
	cmovbe	edi, esi
$LN5@xmlErrVali:

; 160  : 		pctxt = ctxt->userData;
; 161  : 	}
; 162  :     }
; 163  :     __xmlRaiseError(schannel, channel, data, pctxt, node, XML_FROM_VALID, error,

	mov	edx, DWORD PTR _str3$[ebp]
	mov	ecx, DWORD PTR _str2$[ebp]
	mov	eax, DWORD PTR _str1$[ebp]
	push	edx
	push	ecx
	push	eax
	push	DWORD PTR _msg$[ebp]
	push	0
	push	0
	push	edx
	push	ecx
	push	eax
	push	0
	push	0
	push	2
	push	DWORD PTR _error$[ebp]
	push	23					; 00000017H
	push	DWORD PTR _node$[ebp]
	push	edi
	push	esi
	push	ebx
	push	0
	call	___xmlRaiseError
	add	esp, 76					; 0000004cH
	pop	edi
	pop	esi
	pop	ebx

; 164  :                     XML_ERR_ERROR, NULL, 0,
; 165  :                     (const char *) str1,
; 166  :                     (const char *) str2,
; 167  :                     (const char *) str3, 0, 0, msg, str1, str2, str3);
; 168  : }

	pop	ebp
	ret	0
_xmlErrValidNode ENDP
_TEXT	ENDS
; Function compile flags: /Ogtp
; File c:\users\dag\documents\_clients\codeproject authors group\windows on arm\libxml2\libxml2-2.9.9\valid.c
;	COMDAT _xmlErrValid
_TEXT	SEGMENT
_ctxt$ = 8						; size = 4
_error$ = 12						; size = 4
_msg$ = 16						; size = 4
_extra$ = 20						; size = 4
_xmlErrValid PROC					; COMDAT

; 99   : {

	push	ebp
	mov	ebp, esp
	push	esi
	mov	ecx, OFFSET __56F63275_valid@c
	call	@__CheckForDebuggerJustMyCode@4
	mov	eax, DWORD PTR _ctxt$[ebp]
	xor	esi, esi
	xor	edx, edx
	xor	ecx, ecx
	test	eax, eax
	je	SHORT $LN5@xmlErrVali

; 100  :     xmlGenericErrorFunc channel = NULL;
; 101  :     xmlParserCtxtPtr pctxt = NULL;
; 102  :     void *data = NULL;
; 103  : 
; 104  :     if (ctxt != NULL) {
; 105  :         channel = ctxt->error;

	cmp	DWORD PTR [eax+28], -1412623820		; abcd1234H
	mov	esi, DWORD PTR [eax+4]

; 106  :         data = ctxt->userData;

	mov	ecx, DWORD PTR [eax]

; 107  : 	/* Use the special values to detect if it is part of a parsing
; 108  : 	   context */
; 109  : 	if ((ctxt->finishDtd == XML_CTXT_FINISH_DTD_0) ||

	je	SHORT $LN4@xmlErrVali
	cmp	DWORD PTR [eax+28], -1412623819		; abcd1235H
	jne	SHORT $LN5@xmlErrVali
$LN4@xmlErrVali:

; 110  : 	    (ctxt->finishDtd == XML_CTXT_FINISH_DTD_1)) {
; 111  : 	    long delta = (char *) ctxt - (char *) ctxt->userData;

	sub	eax, ecx

; 112  : 	    if ((delta > 0) && (delta < 250))

	dec	eax
	cmp	eax, 248				; 000000f8H
	cmovbe	edx, ecx
$LN5@xmlErrVali:

; 113  : 		pctxt = ctxt->userData;
; 114  : 	}
; 115  :     }
; 116  :     if (extra)

	mov	eax, DWORD PTR _extra$[ebp]
	test	eax, eax
	je	SHORT $LN6@xmlErrVali

; 117  :         __xmlRaiseError(NULL, channel, data,

	push	eax
	push	DWORD PTR _msg$[ebp]
	push	0
	push	0
	push	0
	push	0
	push	eax
	jmp	SHORT $LN9@xmlErrVali
$LN6@xmlErrVali:

; 118  :                         pctxt, NULL, XML_FROM_VALID, error,
; 119  :                         XML_ERR_ERROR, NULL, 0, extra, NULL, NULL, 0, 0,
; 120  :                         msg, extra);
; 121  :     else
; 122  :         __xmlRaiseError(NULL, channel, data,

	push	DWORD PTR _msg$[ebp]
	push	OFFSET ??_C@_02DKCKIIND@?$CFs@
	push	0
	push	0
	push	0
	push	0
	push	0
$LN9@xmlErrVali:

; 123  :                         pctxt, NULL, XML_FROM_VALID, error,
; 124  :                         XML_ERR_ERROR, NULL, 0, NULL, NULL, NULL, 0, 0,
; 125  :                         "%s", msg);
; 126  : }

	push	0
	push	0
	push	2
	push	DWORD PTR _error$[ebp]
	push	23					; 00000017H
	push	0
	push	edx
	push	ecx
	push	esi
	push	0
	call	___xmlRaiseError
	add	esp, 68					; 00000044H
	pop	esi
	pop	ebp
	ret	0
_xmlErrValid ENDP
_TEXT	ENDS
; Function compile flags: /Ogtp
; File c:\users\dag\documents\_clients\codeproject authors group\windows on arm\libxml2\libxml2-2.9.9\valid.c
;	COMDAT _xmlVErrMemory
_TEXT	SEGMENT
_ctxt$ = 8						; size = 4
_extra$ = 12						; size = 4
_xmlVErrMemory PROC					; COMDAT

; 59   : {

	push	ebp
	mov	ebp, esp
	push	esi
	mov	ecx, OFFSET __56F63275_valid@c
	call	@__CheckForDebuggerJustMyCode@4
	mov	eax, DWORD PTR _ctxt$[ebp]
	xor	esi, esi
	xor	edx, edx
	xor	ecx, ecx
	test	eax, eax
	je	SHORT $LN5@xmlVErrMem

; 60   :     xmlGenericErrorFunc channel = NULL;
; 61   :     xmlParserCtxtPtr pctxt = NULL;
; 62   :     void *data = NULL;
; 63   : 
; 64   :     if (ctxt != NULL) {
; 65   :         channel = ctxt->error;

	cmp	DWORD PTR [eax+28], -1412623820		; abcd1234H
	mov	esi, DWORD PTR [eax+4]

; 66   :         data = ctxt->userData;

	mov	ecx, DWORD PTR [eax]

; 67   : 	/* Use the special values to detect if it is part of a parsing
; 68   : 	   context */
; 69   : 	if ((ctxt->finishDtd == XML_CTXT_FINISH_DTD_0) ||

	je	SHORT $LN4@xmlVErrMem
	cmp	DWORD PTR [eax+28], -1412623819		; abcd1235H
	jne	SHORT $LN5@xmlVErrMem
$LN4@xmlVErrMem:

; 70   : 	    (ctxt->finishDtd == XML_CTXT_FINISH_DTD_1)) {
; 71   : 	    long delta = (char *) ctxt - (char *) ctxt->userData;

	sub	eax, ecx

; 72   : 	    if ((delta > 0) && (delta < 250))

	dec	eax
	cmp	eax, 248				; 000000f8H
	cmovbe	edx, ecx
$LN5@xmlVErrMem:

; 73   : 		pctxt = ctxt->userData;
; 74   : 	}
; 75   :     }
; 76   :     if (extra)

	mov	eax, DWORD PTR _extra$[ebp]
	test	eax, eax
	je	SHORT $LN6@xmlVErrMem

; 77   :         __xmlRaiseError(NULL, channel, data,

	push	eax
	push	OFFSET ??_C@_0BP@DJFHNAOK@Memory?5allocation?5failed?5?3?5?$CFs?6@
	push	0
	push	0
	push	0
	push	0
	push	eax
	push	0
	push	0
	push	3
	push	2
	push	23					; 00000017H
	push	0
	push	edx
	push	ecx
	push	esi
	push	0
	call	___xmlRaiseError
	add	esp, 68					; 00000044H
	pop	esi

; 83   :                         pctxt, NULL, XML_FROM_VALID, XML_ERR_NO_MEMORY,
; 84   :                         XML_ERR_FATAL, NULL, 0, NULL, NULL, NULL, 0, 0,
; 85   :                         "Memory allocation failed\n");
; 86   : }

	pop	ebp
	ret	0
$LN6@xmlVErrMem:

; 78   :                         pctxt, NULL, XML_FROM_VALID, XML_ERR_NO_MEMORY,
; 79   :                         XML_ERR_FATAL, NULL, 0, extra, NULL, NULL, 0, 0,
; 80   :                         "Memory allocation failed : %s\n", extra);
; 81   :     else
; 82   :         __xmlRaiseError(NULL, channel, data,

	push	OFFSET ??_C@_0BK@GDFDKGPJ@Memory?5allocation?5failed?6@
	push	0
	push	0
	push	0
	push	0
	push	0
	push	0
	push	0
	push	3
	push	2
	push	23					; 00000017H
	push	0
	push	edx
	push	ecx
	push	esi
	push	0
	call	___xmlRaiseError
	add	esp, 64					; 00000040H
	pop	esi

; 83   :                         pctxt, NULL, XML_FROM_VALID, XML_ERR_NO_MEMORY,
; 84   :                         XML_ERR_FATAL, NULL, 0, NULL, NULL, NULL, 0, 0,
; 85   :                         "Memory allocation failed\n");
; 86   : }

	pop	ebp
	ret	0
_xmlVErrMemory ENDP
_TEXT	ENDS
; Function compile flags: /Ogtp
; File c:\users\dag\documents\_clients\codeproject authors group\windows on arm\libxml2\libxml2-2.9.9\valid.c
;	COMDAT _xmlValidateAttributeValueInternal
_TEXT	SEGMENT
_doc$ = 8						; size = 4
_type$ = 12						; size = 4
_value$ = 16						; size = 4
_xmlValidateAttributeValueInternal PROC			; COMDAT

; 3790 :                                   const xmlChar *value) {

	push	ebp
	mov	ebp, esp
	mov	ecx, OFFSET __56F63275_valid@c
	call	@__CheckForDebuggerJustMyCode@4
	mov	eax, DWORD PTR _type$[ebp]
	add	eax, -2					; fffffffeH
	cmp	eax, 8
	ja	SHORT $LN8@xmlValidat

; 3791 :     switch (type) {

	jmp	DWORD PTR $LN11@xmlValidat[eax*4]
$LN4@xmlValidat:

; 3792 : 	case XML_ATTRIBUTE_ENTITIES:
; 3793 : 	case XML_ATTRIBUTE_IDREFS:
; 3794 : 	    return(xmlValidateNamesValueInternal(doc, value));

	push	DWORD PTR _value$[ebp]
	push	DWORD PTR _doc$[ebp]
	call	_xmlValidateNamesValueInternal
	add	esp, 8

; 3809 : }

	pop	ebp
	ret	0
$LN5@xmlValidat:

; 3795 : 	case XML_ATTRIBUTE_ENTITY:
; 3796 : 	case XML_ATTRIBUTE_IDREF:
; 3797 : 	case XML_ATTRIBUTE_ID:
; 3798 : 	case XML_ATTRIBUTE_NOTATION:
; 3799 : 	    return(xmlValidateNameValueInternal(doc, value));

	push	DWORD PTR _value$[ebp]
	push	DWORD PTR _doc$[ebp]
	call	_xmlValidateNameValueInternal
	add	esp, 8

; 3809 : }

	pop	ebp
	ret	0
$LN6@xmlValidat:

; 3800 : 	case XML_ATTRIBUTE_NMTOKENS:
; 3801 : 	case XML_ATTRIBUTE_ENUMERATION:
; 3802 : 	    return(xmlValidateNmtokensValueInternal(doc, value));

	push	DWORD PTR _value$[ebp]
	push	DWORD PTR _doc$[ebp]
	call	_xmlValidateNmtokensValueInternal
	add	esp, 8

; 3809 : }

	pop	ebp
	ret	0
$LN7@xmlValidat:

; 3803 : 	case XML_ATTRIBUTE_NMTOKEN:
; 3804 : 	    return(xmlValidateNmtokenValueInternal(doc, value));

	push	DWORD PTR _value$[ebp]
	push	DWORD PTR _doc$[ebp]
	call	_xmlValidateNmtokenValueInternal
	add	esp, 8

; 3809 : }

	pop	ebp
	ret	0
$LN8@xmlValidat:

; 3805 :         case XML_ATTRIBUTE_CDATA:
; 3806 : 	    break;
; 3807 :     }
; 3808 :     return(1);

	mov	eax, 1

; 3809 : }

	pop	ebp
	ret	0
	npad	2
$LN11@xmlValidat:
	DD	$LN5@xmlValidat
	DD	$LN5@xmlValidat
	DD	$LN4@xmlValidat
	DD	$LN5@xmlValidat
	DD	$LN4@xmlValidat
	DD	$LN7@xmlValidat
	DD	$LN6@xmlValidat
	DD	$LN6@xmlValidat
	DD	$LN5@xmlValidat
_xmlValidateAttributeValueInternal ENDP
_TEXT	ENDS
; Function compile flags: /Ogtp
; File c:\users\dag\documents\_clients\codeproject authors group\windows on arm\libxml2\libxml2-2.9.9\valid.c
;	COMDAT _xmlGetDtdElementDesc2
_TEXT	SEGMENT
_prefix$ = -4						; size = 4
_dtd$ = 8						; size = 4
_name$ = 12						; size = 4
_create$ = 16						; size = 4
_xmlGetDtdElementDesc2 PROC				; COMDAT

; 3206 : xmlGetDtdElementDesc2(xmlDtdPtr dtd, const xmlChar *name, int create) {

	push	ebp
	mov	ebp, esp
	push	ecx
	push	esi
	push	edi
	mov	ecx, OFFSET __56F63275_valid@c
	call	@__CheckForDebuggerJustMyCode@4
	mov	esi, DWORD PTR _dtd$[ebp]
	mov	DWORD PTR _prefix$[ebp], 0
	test	esi, esi
	je	SHORT $LN30@xmlGetDtdE

; 3207 :     xmlElementTablePtr table;
; 3208 :     xmlElementPtr cur;
; 3209 :     xmlChar *uqname = NULL, *prefix = NULL;
; 3210 : 
; 3211 :     if (dtd == NULL) return(NULL);
; 3212 :     if (dtd->elements == NULL) {

	mov	edi, DWORD PTR [esi+40]
	test	edi, edi
	jne	SHORT $LN7@xmlGetDtdE

; 3213 : 	xmlDictPtr dict = NULL;
; 3214 : 
; 3215 : 	if (dtd->doc != NULL)

	mov	eax, DWORD PTR [esi+32]
	xor	ecx, ecx
	test	eax, eax
	je	SHORT $LN4@xmlGetDtdE

; 3216 : 	    dict = dtd->doc->dict;

	mov	ecx, DWORD PTR [eax+80]
$LN4@xmlGetDtdE:

; 3217 : 
; 3218 : 	if (!create)

	cmp	DWORD PTR _create$[ebp], 0
	je	SHORT $LN30@xmlGetDtdE

; 3219 : 	    return(NULL);
; 3220 : 	/*
; 3221 : 	 * Create the Element table if needed.
; 3222 : 	 */
; 3223 : 	table = (xmlElementTablePtr) dtd->elements;
; 3224 : 	if (table == NULL) {
; 3225 : 	    table = xmlHashCreateDict(0, dict);

	push	ecx
	push	0
	call	_xmlHashCreateDict
	mov	edi, eax
	add	esp, 8

; 3226 : 	    dtd->elements = (void *) table;

	mov	DWORD PTR [esi+40], edi

; 3227 : 	}
; 3228 : 	if (table == NULL) {

	test	edi, edi
	jne	SHORT $LN7@xmlGetDtdE

; 77   :         __xmlRaiseError(NULL, channel, data,

	push	OFFSET ??_C@_0CA@OJAJCLMD@element?5table?5allocation?5failed@
	push	OFFSET ??_C@_0BP@DJFHNAOK@Memory?5allocation?5failed?5?3?5?$CFs?6@
	push	eax
	push	eax
	push	eax
	push	eax
	push	OFFSET ??_C@_0CA@OJAJCLMD@element?5table?5allocation?5failed@
	push	eax
	push	eax
	push	3
	push	2
	push	23					; 00000017H
	push	eax
	push	eax
	push	eax
	push	eax
	push	eax
	call	___xmlRaiseError
	add	esp, 68					; 00000044H
$LN30@xmlGetDtdE:
	pop	edi

; 3260 : }

	xor	eax, eax
	pop	esi
	mov	esp, ebp
	pop	ebp
	ret	0
$LN7@xmlGetDtdE:

; 3229 : 	    xmlVErrMemory(NULL, "element table allocation failed");
; 3230 : 	    return(NULL);
; 3231 : 	}
; 3232 :     }
; 3233 :     table = (xmlElementTablePtr) dtd->elements;
; 3234 : 
; 3235 :     uqname = xmlSplitQName2(name, &prefix);

	mov	esi, DWORD PTR _name$[ebp]
	lea	eax, DWORD PTR _prefix$[ebp]
	push	ebx
	push	eax
	push	esi
	call	_xmlSplitQName2

; 3236 :     if (uqname != NULL)
; 3237 :         name = uqname;
; 3238 :     cur = xmlHashLookup2(table, name, prefix);

	push	DWORD PTR _prefix$[ebp]
	mov	ebx, eax
	test	ebx, ebx
	cmovne	esi, ebx
	push	esi
	push	edi
	mov	DWORD PTR _name$[ebp], esi
	call	_xmlHashLookup2
	mov	esi, eax
	add	esp, 20					; 00000014H

; 3239 :     if ((cur == NULL) && (create)) {

	test	esi, esi
	jne	$LN9@xmlGetDtdE
	cmp	DWORD PTR _create$[ebp], eax
	je	$LN9@xmlGetDtdE

; 3240 : 	cur = (xmlElementPtr) xmlMalloc(sizeof(xmlElement));

	push	56					; 00000038H
	call	DWORD PTR _xmlMalloc
	mov	esi, eax
	add	esp, 4

; 3241 : 	if (cur == NULL) {

	test	esi, esi
	jne	SHORT $LN10@xmlGetDtdE

; 77   :         __xmlRaiseError(NULL, channel, data,

	push	OFFSET ??_C@_0O@IMHFIAOC@malloc?5failed@
	push	OFFSET ??_C@_0BP@DJFHNAOK@Memory?5allocation?5failed?5?3?5?$CFs?6@
	push	eax
	push	eax
	push	eax
	push	eax
	push	OFFSET ??_C@_0O@IMHFIAOC@malloc?5failed@
	push	eax
	push	eax
	push	3
	push	2
	push	23					; 00000017H
	push	eax
	push	eax
	push	eax
	push	eax
	push	eax
	call	___xmlRaiseError
	add	esp, 68					; 00000044H

; 3242 : 	    xmlVErrMemory(NULL, "malloc failed");
; 3243 : 	    return(NULL);

	xor	eax, eax
	pop	ebx
	pop	edi

; 3260 : }

	pop	esi
	mov	esp, ebp
	pop	ebp
	ret	0
$LN10@xmlGetDtdE:

; 3244 : 	}
; 3245 : 	memset(cur, 0, sizeof(xmlElement));

	push	56					; 00000038H
	push	0
	push	esi
	call	_memset

; 3246 : 	cur->type = XML_ELEMENT_DECL;
; 3247 : 
; 3248 : 	/*
; 3249 : 	 * fill the structure.
; 3250 : 	 */
; 3251 : 	cur->name = xmlStrdup(name);

	push	DWORD PTR _name$[ebp]
	mov	DWORD PTR [esi+4], 15			; 0000000fH
	call	_xmlStrdup
	mov	DWORD PTR [esi+8], eax

; 3252 : 	cur->prefix = xmlStrdup(prefix);

	push	DWORD PTR _prefix$[ebp]
	call	_xmlStrdup

; 3253 : 	cur->etype = XML_ELEMENT_TYPE_UNDEFINED;
; 3254 : 
; 3255 : 	xmlHashAddEntry2(table, name, prefix, cur);

	push	esi
	mov	DWORD PTR [esi+48], eax
	mov	DWORD PTR [esi+36], 0
	push	DWORD PTR _prefix$[ebp]
	push	DWORD PTR _name$[ebp]
	push	edi
	call	_xmlHashAddEntry2
	add	esp, 36					; 00000024H
$LN9@xmlGetDtdE:

; 3256 :     }
; 3257 :     if (prefix != NULL) xmlFree(prefix);

	mov	eax, DWORD PTR _prefix$[ebp]
	test	eax, eax
	je	SHORT $LN11@xmlGetDtdE
	push	eax
	call	DWORD PTR _xmlFree
	add	esp, 4
$LN11@xmlGetDtdE:

; 3258 :     if (uqname != NULL) xmlFree(uqname);

	test	ebx, ebx
	je	SHORT $LN12@xmlGetDtdE
	push	ebx
	call	DWORD PTR _xmlFree
	add	esp, 4
$LN12@xmlGetDtdE:

; 3259 :     return(cur);

	pop	ebx
	pop	edi
	mov	eax, esi

; 3260 : }

	pop	esi
	mov	esp, ebp
	pop	ebp
	ret	0
_xmlGetDtdElementDesc2 ENDP
_TEXT	ENDS
; Function compile flags: /Ogtp
; File c:\users\dag\documents\_clients\codeproject authors group\windows on arm\libxml2\libxml2-2.9.9\valid.c
;	COMDAT _xmlValidatePopElement
_TEXT	SEGMENT
_ctxt$ = 8						; size = 4
_doc$ = 12						; size = 4
_elem$ = 16						; size = 4
_qname$ = 20						; size = 4
_xmlValidatePopElement PROC				; COMDAT

; 5922 : 		      const xmlChar *qname ATTRIBUTE_UNUSED) {

	push	ebp
	mov	ebp, esp
	push	ebx
	push	esi
	mov	ecx, OFFSET __56F63275_valid@c
	call	@__CheckForDebuggerJustMyCode@4
	mov	esi, DWORD PTR _ctxt$[ebp]
	mov	ebx, 1
	test	esi, esi
	jne	SHORT $LN2@xmlValidat

; 5923 :     int ret = 1;
; 5924 : 
; 5925 :     if (ctxt == NULL)
; 5926 :         return(0);

	pop	esi
	xor	eax, eax

; 5959 : }

	pop	ebx
	pop	ebp
	ret	0
$LN2@xmlValidat:

; 5927 : /* printf("PopElem %s\n", qname); */
; 5928 :     if ((ctxt->vstateNr > 0) && (ctxt->vstate != NULL)) {

	cmp	DWORD PTR [esi+44], 0
	jle	$LN14@xmlValidat
	push	edi
	mov	edi, DWORD PTR [esi+40]
	test	edi, edi
	je	$LN16@xmlValidat

; 5929 : 	xmlValidStatePtr state = ctxt->vstate;
; 5930 : 	xmlElementPtr elemDecl;
; 5931 : 
; 5932 : 	/*
; 5933 : 	 * Check the new element against the content model of the new elem.
; 5934 : 	 */
; 5935 : 	if (state->elemDecl != NULL) {

	mov	eax, DWORD PTR [edi]
	test	eax, eax
	je	SHORT $LN8@xmlValidat

; 5936 : 	    elemDecl = state->elemDecl;
; 5937 : 
; 5938 : 	    if (elemDecl->etype == XML_ELEMENT_TYPE_ELEMENT) {

	cmp	DWORD PTR [eax+36], 4
	jne	SHORT $LN8@xmlValidat

; 5939 : 		if (state->exec != NULL) {

	mov	eax, DWORD PTR [edi+8]
	test	eax, eax
	je	SHORT $LN8@xmlValidat

; 5940 : 		    ret = xmlRegExecPushString(state->exec, NULL, NULL);

	push	0
	push	0
	push	eax
	call	_xmlRegExecPushString
	mov	ebx, eax
	add	esp, 12					; 0000000cH

; 5941 : 		    if (ret == 0) {

	test	ebx, ebx
	jne	SHORT $LN7@xmlValidat

; 5942 : 			xmlErrValidNode(ctxt, state->node,

	mov	ecx, DWORD PTR [edi+4]
	push	eax
	push	eax
	push	DWORD PTR [ecx+8]
	push	OFFSET ??_C@_0EC@JDBIOCJK@Element?5?$CFs?5content?5does?5not?5fol@
	push	504					; 000001f8H
	push	ecx
	push	esi
	call	_xmlErrValidNode
	add	esp, 28					; 0000001cH

; 5943 : 			                XML_DTD_CONTENT_MODEL,
; 5944 : 	   "Element %s content does not follow the DTD, Expecting more child\n",
; 5945 : 			       state->node->name, NULL,NULL);
; 5946 : 		    } else {

	jmp	SHORT $LN8@xmlValidat
$LN7@xmlValidat:

; 5947 : 			/*
; 5948 : 			 * previous validation errors should not generate
; 5949 : 			 * a new one here
; 5950 : 			 */
; 5951 : 			ret = 1;

	mov	ebx, 1
$LN8@xmlValidat:

; 321  :     if (ctxt->vstateNr < 1) return(-1);

	mov	edx, DWORD PTR [esi+44]
	cmp	edx, 1
	jl	SHORT $LN16@xmlValidat

; 322  :     ctxt->vstateNr--;
; 323  :     elemDecl = ctxt->vstateTab[ctxt->vstateNr].elemDecl;

	mov	ecx, DWORD PTR [esi+52]
	dec	edx
	mov	DWORD PTR [esi+44], edx
	lea	eax, DWORD PTR [edx+edx*2]
	mov	edi, DWORD PTR [ecx+eax*4]

; 324  :     ctxt->vstateTab[ctxt->vstateNr].elemDecl = NULL;

	lea	eax, DWORD PTR [edx+edx*2]
	mov	DWORD PTR [ecx+eax*4], 0

; 325  :     ctxt->vstateTab[ctxt->vstateNr].node = NULL;

	mov	eax, DWORD PTR [esi+44]
	lea	ecx, DWORD PTR [eax+eax*2]
	mov	eax, DWORD PTR [esi+52]
	mov	DWORD PTR [eax+ecx*4+4], 0

; 326  :     if ((elemDecl != NULL) && (elemDecl->etype == XML_ELEMENT_TYPE_ELEMENT)) {

	test	edi, edi
	je	SHORT $LN12@xmlValidat
	cmp	DWORD PTR [edi+36], 4
	jne	SHORT $LN12@xmlValidat

; 327  : 	xmlRegFreeExecCtxt(ctxt->vstateTab[ctxt->vstateNr].exec);

	mov	eax, DWORD PTR [esi+44]
	lea	ecx, DWORD PTR [eax+eax*2]
	mov	eax, DWORD PTR [esi+52]
	push	DWORD PTR [eax+ecx*4+8]
	call	_xmlRegFreeExecCtxt
	add	esp, 4
$LN12@xmlValidat:

; 328  :     }
; 329  :     ctxt->vstateTab[ctxt->vstateNr].exec = NULL;

	mov	eax, DWORD PTR [esi+44]
	lea	ecx, DWORD PTR [eax+eax*2]
	mov	eax, DWORD PTR [esi+52]
	mov	DWORD PTR [eax+ecx*4+8], 0

; 330  :     if (ctxt->vstateNr >= 1)

	mov	eax, DWORD PTR [esi+44]
	cmp	eax, 1
	jl	SHORT $LN13@xmlValidat

; 331  : 	ctxt->vstate = &ctxt->vstateTab[ctxt->vstateNr - 1];

	lea	ecx, DWORD PTR [eax+eax*2]
	mov	eax, DWORD PTR [esi+52]
	pop	edi
	lea	eax, DWORD PTR [eax+ecx*4]
	add	eax, -12				; fffffff4H
	mov	DWORD PTR [esi+40], eax

; 5952 : 		    }
; 5953 : 		}
; 5954 : 	    }
; 5955 : 	}
; 5956 : 	vstateVPop(ctxt);
; 5957 :     }
; 5958 :     return(ret);

	mov	eax, ebx
	pop	esi

; 5959 : }

	pop	ebx
	pop	ebp
	ret	0
$LN13@xmlValidat:

; 333  : 	ctxt->vstate = NULL;

	mov	DWORD PTR [esi+40], 0
$LN16@xmlValidat:
	pop	edi
$LN14@xmlValidat:
	pop	esi

; 5952 : 		    }
; 5953 : 		}
; 5954 : 	    }
; 5955 : 	}
; 5956 : 	vstateVPop(ctxt);
; 5957 :     }
; 5958 :     return(ret);

	mov	eax, ebx

; 5959 : }

	pop	ebx
	pop	ebp
	ret	0
_xmlValidatePopElement ENDP
_TEXT	ENDS
; Function compile flags: /Ogtp
; File c:\users\dag\documents\_clients\codeproject authors group\windows on arm\libxml2\libxml2-2.9.9\valid.c
;	COMDAT _xmlValidatePushCData
_TEXT	SEGMENT
_ctxt$ = 8						; size = 4
_data$ = 12						; size = 4
_len$ = 16						; size = 4
_xmlValidatePushCData PROC				; COMDAT

; 5846 : xmlValidatePushCData(xmlValidCtxtPtr ctxt, const xmlChar *data, int len) {

	push	ebp
	mov	ebp, esp
	push	esi
	push	edi
	mov	ecx, OFFSET __56F63275_valid@c
	call	@__CheckForDebuggerJustMyCode@4
	mov	esi, DWORD PTR _ctxt$[ebp]
	mov	edi, 1
	test	esi, esi
	jne	SHORT $LN7@xmlValidat

; 5847 :     int ret = 1;
; 5848 : 
; 5849 : /* printf("CDATA %s %d\n", data, len); */
; 5850 :     if (ctxt == NULL)
; 5851 :         return(0);

	pop	edi
	xor	eax, eax

; 5886 : 						XML_DTD_CONTENT_MODEL,
; 5887 : 	   "Element %s content does not follow the DTD, Text not allowed\n",
; 5888 : 				       state->node->name, NULL, NULL);
; 5889 : 				ret = 0;
; 5890 : 				goto done;
; 5891 : 			    }
; 5892 : 			}
; 5893 : 			/*
; 5894 : 			 * TODO:
; 5895 : 			 * VC: Standalone Document Declaration
; 5896 : 			 *  element types with element content, if white space
; 5897 : 			 *  occurs directly within any instance of those types.
; 5898 : 			 */
; 5899 : 		    }
; 5900 : 		    break;
; 5901 : 	    }
; 5902 : 	}
; 5903 :     }
; 5904 : done:
; 5905 :     return(ret);
; 5906 : }

	pop	esi
	pop	ebp
	ret	0
$LN7@xmlValidat:

; 5852 :     if (len <= 0)

	mov	edx, DWORD PTR _len$[ebp]
	test	edx, edx
	jle	$done$29

; 5853 : 	return(ret);
; 5854 :     if ((ctxt->vstateNr > 0) && (ctxt->vstate != NULL)) {

	cmp	DWORD PTR [esi+44], 0
	jle	$done$29
	push	ebx
	mov	ebx, DWORD PTR [esi+40]
	test	ebx, ebx
	je	$LN26@xmlValidat

; 5855 : 	xmlValidStatePtr state = ctxt->vstate;
; 5856 : 	xmlElementPtr elemDecl;
; 5857 : 
; 5858 : 	/*
; 5859 : 	 * Check the new element against the content model of the new elem.
; 5860 : 	 */
; 5861 : 	if (state->elemDecl != NULL) {

	mov	eax, DWORD PTR [ebx]
	test	eax, eax
	je	$LN26@xmlValidat

; 5862 : 	    elemDecl = state->elemDecl;
; 5863 : 
; 5864 : 	    switch(elemDecl->etype) {

	mov	eax, DWORD PTR [eax+36]
	sub	eax, 0
	je	SHORT $LN11@xmlValidat
	sub	eax, 1
	je	SHORT $LN12@xmlValidat
	sub	eax, 3
	jne	SHORT $LN26@xmlValidat

; 5870 : 				    XML_DTD_NOT_EMPTY,
; 5871 : 	       "Element %s was declared EMPTY this one has content\n",
; 5872 : 			   state->node->name, NULL, NULL);
; 5873 : 		    ret = 0;
; 5874 : 		    break;
; 5875 : 		case XML_ELEMENT_TYPE_ANY:
; 5876 : 		    break;
; 5877 : 		case XML_ELEMENT_TYPE_MIXED:
; 5878 : 		    break;
; 5879 : 		case XML_ELEMENT_TYPE_ELEMENT:
; 5880 : 		    if (len > 0) {
; 5881 : 			int i;
; 5882 : 
; 5883 : 			for (i = 0;i < len;i++) {

	xor	ecx, ecx
	test	edx, edx
	jle	SHORT $LN26@xmlValidat
$LL6@xmlValidat:

; 5884 : 			    if (!IS_BLANK_CH(data[i])) {

	mov	eax, DWORD PTR _data$[ebp]
	mov	al, BYTE PTR [ecx+eax]
	cmp	al, 32					; 00000020H
	je	SHORT $LN4@xmlValidat
	cmp	al, 9
	jb	SHORT $LN18@xmlValidat
	cmp	al, 10					; 0000000aH
	jbe	SHORT $LN4@xmlValidat
$LN18@xmlValidat:
	cmp	al, 13					; 0000000dH
	jne	SHORT $LN21@xmlValidat
$LN4@xmlValidat:

; 5870 : 				    XML_DTD_NOT_EMPTY,
; 5871 : 	       "Element %s was declared EMPTY this one has content\n",
; 5872 : 			   state->node->name, NULL, NULL);
; 5873 : 		    ret = 0;
; 5874 : 		    break;
; 5875 : 		case XML_ELEMENT_TYPE_ANY:
; 5876 : 		    break;
; 5877 : 		case XML_ELEMENT_TYPE_MIXED:
; 5878 : 		    break;
; 5879 : 		case XML_ELEMENT_TYPE_ELEMENT:
; 5880 : 		    if (len > 0) {
; 5881 : 			int i;
; 5882 : 
; 5883 : 			for (i = 0;i < len;i++) {

	inc	ecx
	cmp	ecx, edx
	jl	SHORT $LL6@xmlValidat

; 5886 : 						XML_DTD_CONTENT_MODEL,
; 5887 : 	   "Element %s content does not follow the DTD, Text not allowed\n",
; 5888 : 				       state->node->name, NULL, NULL);
; 5889 : 				ret = 0;
; 5890 : 				goto done;
; 5891 : 			    }
; 5892 : 			}
; 5893 : 			/*
; 5894 : 			 * TODO:
; 5895 : 			 * VC: Standalone Document Declaration
; 5896 : 			 *  element types with element content, if white space
; 5897 : 			 *  occurs directly within any instance of those types.
; 5898 : 			 */
; 5899 : 		    }
; 5900 : 		    break;
; 5901 : 	    }
; 5902 : 	}
; 5903 :     }
; 5904 : done:
; 5905 :     return(ret);
; 5906 : }

	pop	ebx
	mov	eax, edi
	pop	edi
	pop	esi
	pop	ebp
	ret	0
$LN21@xmlValidat:

; 5885 : 				xmlErrValidNode(ctxt, state->node,

	mov	eax, DWORD PTR [ebx+4]
	push	0
	push	0
	push	DWORD PTR [eax+8]
	push	OFFSET ??_C@_0DO@HNMIGKJO@Element?5?$CFs?5content?5does?5not?5fol@
	push	504					; 000001f8H
	push	eax
	push	esi
	call	_xmlErrValidNode
	add	esp, 28					; 0000001cH
	xor	edi, edi

; 5886 : 						XML_DTD_CONTENT_MODEL,
; 5887 : 	   "Element %s content does not follow the DTD, Text not allowed\n",
; 5888 : 				       state->node->name, NULL, NULL);
; 5889 : 				ret = 0;
; 5890 : 				goto done;
; 5891 : 			    }
; 5892 : 			}
; 5893 : 			/*
; 5894 : 			 * TODO:
; 5895 : 			 * VC: Standalone Document Declaration
; 5896 : 			 *  element types with element content, if white space
; 5897 : 			 *  occurs directly within any instance of those types.
; 5898 : 			 */
; 5899 : 		    }
; 5900 : 		    break;
; 5901 : 	    }
; 5902 : 	}
; 5903 :     }
; 5904 : done:
; 5905 :     return(ret);
; 5906 : }

	mov	eax, edi
	pop	ebx
	pop	edi
	pop	esi
	pop	ebp
	ret	0
$LN12@xmlValidat:

; 5867 : 		    break;
; 5868 : 		case XML_ELEMENT_TYPE_EMPTY:
; 5869 : 		    xmlErrValidNode(ctxt, state->node,

	mov	eax, DWORD PTR [ebx+4]
	push	0
	push	0
	push	DWORD PTR [eax+8]
	push	OFFSET ??_C@_0DE@KLKCMFPH@Element?5?$CFs?5was?5declared?5EMPTY?5t@
	push	528					; 00000210H
	push	eax
	push	esi
	call	_xmlErrValidNode
	add	esp, 28					; 0000001cH
$LN11@xmlValidat:

; 5865 : 		case XML_ELEMENT_TYPE_UNDEFINED:
; 5866 : 		    ret = 0;

	xor	edi, edi
$LN26@xmlValidat:
	pop	ebx
$done$29:

; 5886 : 						XML_DTD_CONTENT_MODEL,
; 5887 : 	   "Element %s content does not follow the DTD, Text not allowed\n",
; 5888 : 				       state->node->name, NULL, NULL);
; 5889 : 				ret = 0;
; 5890 : 				goto done;
; 5891 : 			    }
; 5892 : 			}
; 5893 : 			/*
; 5894 : 			 * TODO:
; 5895 : 			 * VC: Standalone Document Declaration
; 5896 : 			 *  element types with element content, if white space
; 5897 : 			 *  occurs directly within any instance of those types.
; 5898 : 			 */
; 5899 : 		    }
; 5900 : 		    break;
; 5901 : 	    }
; 5902 : 	}
; 5903 :     }
; 5904 : done:
; 5905 :     return(ret);
; 5906 : }

	mov	eax, edi
	pop	edi
	pop	esi
	pop	ebp
	ret	0
_xmlValidatePushCData ENDP
_TEXT	ENDS
; Function compile flags: /Ogtp
; File c:\users\dag\documents\_clients\codeproject authors group\windows on arm\libxml2\libxml2-2.9.9\valid.c
;	COMDAT _xmlValidatePushElement
_TEXT	SEGMENT
_extsubset$ = 8						; size = 4
_ctxt$ = 8						; size = 4
_doc$ = 12						; size = 4
_elem$ = 16						; size = 4
_qname$ = 20						; size = 4
_xmlValidatePushElement PROC				; COMDAT

; 5754 :                        xmlNodePtr elem, const xmlChar *qname) {

	push	ebp
	mov	ebp, esp
	push	ebx
	push	edi
	mov	ecx, OFFSET __56F63275_valid@c
	call	@__CheckForDebuggerJustMyCode@4
	mov	edi, DWORD PTR _ctxt$[ebp]
	mov	ebx, 1
	test	edi, edi
	jne	SHORT $LN4@xmlValidat

; 5755 :     int ret = 1;
; 5756 :     xmlElementPtr eDecl;
; 5757 :     int extsubset = 0;
; 5758 : 
; 5759 :     if (ctxt == NULL)
; 5760 :         return(0);

	pop	edi
	xor	eax, eax

; 5833 : }

	pop	ebx
	pop	ebp
	ret	0
$LN4@xmlValidat:

; 5761 : /* printf("PushElem %s\n", qname); */
; 5762 :     if ((ctxt->vstateNr > 0) && (ctxt->vstate != NULL)) {

	cmp	DWORD PTR [edi+44], 0
	push	esi
	jle	$LN17@xmlValidat
	mov	esi, DWORD PTR [edi+40]
	test	esi, esi
	je	$LN17@xmlValidat

; 5763 : 	xmlValidStatePtr state = ctxt->vstate;
; 5764 : 	xmlElementPtr elemDecl;
; 5765 : 
; 5766 : 	/*
; 5767 : 	 * Check the new element against the content model of the new elem.
; 5768 : 	 */
; 5769 : 	if (state->elemDecl != NULL) {

	mov	eax, DWORD PTR [esi]
	test	eax, eax
	je	$LN17@xmlValidat

; 5770 : 	    elemDecl = state->elemDecl;
; 5771 : 
; 5772 : 	    switch(elemDecl->etype) {

	mov	ecx, DWORD PTR [eax+36]
	cmp	ecx, 4
	ja	$LN17@xmlValidat
	jmp	DWORD PTR $LN21@xmlValidat[ecx*4]
$LN8@xmlValidat:

; 5773 : 		case XML_ELEMENT_TYPE_UNDEFINED:
; 5774 : 		    ret = 0;
; 5775 : 		    break;
; 5776 : 		case XML_ELEMENT_TYPE_EMPTY:
; 5777 : 		    xmlErrValidNode(ctxt, state->node,

	mov	eax, DWORD PTR [esi+4]
	push	0
	push	0
	push	DWORD PTR [eax+8]
	push	OFFSET ??_C@_0DE@KLKCMFPH@Element?5?$CFs?5was?5declared?5EMPTY?5t@
	push	528					; 00000210H

; 5824 : 			}
; 5825 : 		    }
; 5826 : 		    break;
; 5827 : 	    }
; 5828 : 	}
; 5829 :     }
; 5830 :     eDecl = xmlValidGetElemDecl(ctxt, doc, elem, &extsubset);

	push	eax
	push	edi
	call	_xmlErrValidNode
	add	esp, 28					; 0000001cH
	xor	ebx, ebx
	jmp	$LN17@xmlValidat
$LN10@xmlValidat:

; 5778 : 				    XML_DTD_NOT_EMPTY,
; 5779 : 	       "Element %s was declared EMPTY this one has content\n",
; 5780 : 			   state->node->name, NULL, NULL);
; 5781 : 		    ret = 0;
; 5782 : 		    break;
; 5783 : 		case XML_ELEMENT_TYPE_ANY:
; 5784 : 		    /* I don't think anything is required then */
; 5785 : 		    break;
; 5786 : 		case XML_ELEMENT_TYPE_MIXED:
; 5787 : 		    /* simple case of declared as #PCDATA */
; 5788 : 		    if ((elemDecl->content != NULL) &&

	mov	eax, DWORD PTR [eax+40]
	test	eax, eax
	je	SHORT $LN11@xmlValidat
	cmp	DWORD PTR [eax], ebx
	jne	SHORT $LN11@xmlValidat

; 5789 : 			(elemDecl->content->type ==
