; Listing generated by Microsoft (R) Optimizing Compiler Version 19.16.27027.1 

	TITLE	C:\Users\DAG\Documents\_Clients\CodeProject Authors Group\Windows on ARM\libxml2\libxml2-2.9.9\xmlregexp.c
	.686P
	.XMM
	include listing.inc
	.model	flat

INCLUDELIB MSVCRT
INCLUDELIB OLDNAMES

PUBLIC	_forbiddenExp
PUBLIC	_emptyExp
_DATA	SEGMENT
COMM	_xmlMalloc:DWORD
COMM	_xmlMallocAtomic:DWORD
COMM	_xmlRealloc:DWORD
COMM	_xmlFree:DWORD
COMM	_xmlMemStrdup:DWORD
COMM	_xmlIsBaseCharGroup:BYTE:010H
COMM	_xmlIsCharGroup:BYTE:010H
COMM	_xmlIsCombiningGroup:BYTE:010H
COMM	_xmlIsDigitGroup:BYTE:010H
COMM	_xmlIsExtenderGroup:BYTE:010H
COMM	_xmlIsIdeographicGroup:BYTE:010H
COMM	_xmlIsPubidChar_tab:BYTE:0100H
COMM	_xmlParserMaxDepth:DWORD
_DATA	ENDS
msvcjmc	SEGMENT
__188180DA_corecrt_math@h DB 01H
__2CC6E67D_corecrt_stdio_config@h DB 01H
__05476D76_corecrt_wstdio@h DB 01H
__A452D4A0_stdio@h DB 01H
__4384A2D9_corecrt_memcpy_s@h DB 01H
__4E51A221_corecrt_wstring@h DB 01H
__2140C079_string@h DB 01H
__F6DD4902_xmlregexp@c DB 01H
msvcjmc	ENDS
_DATA	SEGMENT
_forbiddenExp DD FLAT:_forbiddenExpNode
_emptyExp DD	FLAT:_emptyExpNode
_forbiddenExpNode DB 01H
	DB	00H
	DW	00H
	DD	00H
	DD	00H
	DD	00H
	DD	00H
	DD	00H
	DD	00H
_emptyExpNode DB 00H
	DB	01H
	DW	00H
	DD	00H
	DD	00H
	DD	00H
	DD	00H
	DD	00H
	DD	00H
_DATA	ENDS
PUBLIC	___local_stdio_printf_options
PUBLIC	_fprintf
PUBLIC	_printf
PUBLIC	_snprintf
PUBLIC	_xmlRegexpCompile
PUBLIC	_xmlRegFreeRegexp
PUBLIC	_xmlRegexpExec
PUBLIC	_xmlRegexpPrint
PUBLIC	_xmlRegexpIsDeterminist
PUBLIC	_xmlRegNewExecCtxt
PUBLIC	_xmlRegFreeExecCtxt
PUBLIC	_xmlRegExecPushString
PUBLIC	_xmlRegExecPushString2
PUBLIC	_xmlRegExecNextValues
PUBLIC	_xmlRegExecErrInfo
PUBLIC	_xmlExpFreeCtxt
PUBLIC	_xmlExpNewCtxt
PUBLIC	_xmlExpCtxtNbNodes
PUBLIC	_xmlExpCtxtNbCons
PUBLIC	_xmlExpFree
PUBLIC	_xmlExpRef
PUBLIC	_xmlExpParse
PUBLIC	_xmlExpNewAtom
PUBLIC	_xmlExpNewOr
PUBLIC	_xmlExpNewSeq
PUBLIC	_xmlExpNewRange
PUBLIC	_xmlExpIsNillable
PUBLIC	_xmlExpMaxToken
PUBLIC	_xmlExpGetLanguage
PUBLIC	_xmlExpGetStart
PUBLIC	_xmlExpStringDerive
PUBLIC	_xmlExpExpDerive
PUBLIC	_xmlExpSubsume
PUBLIC	_xmlExpDump
PUBLIC	_xmlNewAutomata
PUBLIC	_xmlFreeAutomata
PUBLIC	_xmlAutomataGetInitState
PUBLIC	_xmlAutomataSetFinalState
PUBLIC	_xmlAutomataNewState
PUBLIC	_xmlAutomataNewTransition
PUBLIC	_xmlAutomataNewTransition2
PUBLIC	_xmlAutomataNewNegTrans
PUBLIC	_xmlAutomataNewCountTrans
PUBLIC	_xmlAutomataNewCountTrans2
PUBLIC	_xmlAutomataNewOnceTrans
PUBLIC	_xmlAutomataNewOnceTrans2
PUBLIC	_xmlAutomataNewAllTrans
PUBLIC	_xmlAutomataNewEpsilon
PUBLIC	_xmlAutomataNewCountedTrans
PUBLIC	_xmlAutomataNewCounterTrans
PUBLIC	_xmlAutomataNewCounter
PUBLIC	_xmlAutomataCompile
PUBLIC	_xmlAutomataIsDeterminist
PUBLIC	_xmlAutomataSetFlags
PUBLIC	__JustMyCode_Default
PUBLIC	??_C@_0BP@DJFHNAOK@Memory?5allocation?5failed?5?3?5?$CFs?6@ ; `string'
PUBLIC	??_C@_0BH@CFFLONMP@failed?5to?5compile?3?5?$CFs?6@ ; `string'
PUBLIC	??_C@_0BB@FJPDMDM@compiling?5regexp@		; `string'
PUBLIC	??_C@_0BB@PBEHJOM@allocating?5range@		; `string'
PUBLIC	??_C@_0BA@JCPCIFNM@allocating?5atom@		; `string'
PUBLIC	??_C@_0N@ECMBACNP@copying?5atom@		; `string'
PUBLIC	??_C@_0BB@CKELLPME@allocating?5state@		; `string'
PUBLIC	??_C@_08LJGDJFJP@epsilon?5@			; `string'
PUBLIC	??_C@_08DFHMJFEK@charval?5@			; `string'
PUBLIC	??_C@_07IPEOMBMH@ranges?5@			; `string'
PUBLIC	??_C@_08BABENLJO@subexpr?5@			; `string'
PUBLIC	??_C@_07HBAIICBM@string?5@			; `string'
PUBLIC	??_C@_08IIDGBAEF@anychar?5@			; `string'
PUBLIC	??_C@_09IFBFMEEE@anyspace?5@			; `string'
PUBLIC	??_C@_09PIGAJOFL@notspace?5@			; `string'
PUBLIC	??_C@_09PGNNJPMN@initname?5@			; `string'
PUBLIC	??_C@_0N@PKALLFNP@notinitname?5@		; `string'
PUBLIC	??_C@_09GMGKKJAH@namechar?5@			; `string'
PUBLIC	??_C@_0N@GALMIDBF@notnamechar?5@		; `string'
PUBLIC	??_C@_08CDKGKILA@decimal?5@			; `string'
PUBLIC	??_C@_0M@EDJHICHL@notdecimal?5@			; `string'
PUBLIC	??_C@_09MOCDMJPB@realchar?5@			; `string'
PUBLIC	??_C@_0N@MCPFODOD@notrealchar?5@		; `string'
PUBLIC	??_C@_07POCGPIHD@LETTER?5@			; `string'
PUBLIC	??_C@_0BC@KMHMCLHI@LETTER_UPPERCASE?5@		; `string'
PUBLIC	??_C@_0BC@MLADGGJK@LETTER_LOWERCASE?5@		; `string'
PUBLIC	??_C@_0BC@FGJDLGPN@LETTER_TITLECASE?5@		; `string'
PUBLIC	??_C@_0BB@MHDADLFE@LETTER_MODIFIER?5@		; `string'
PUBLIC	??_C@_0P@ONCGNHEJ@LETTER_OTHERS?5@		; `string'
PUBLIC	??_C@_05BACHLHLN@MARK?5@			; `string'
PUBLIC	??_C@_0BB@FIDLEIEL@MARK_NONSPACING?5@		; `string'
PUBLIC	??_C@_0BF@GJKDPMF@MARK_SPACECOMBINING?5@	; `string'
PUBLIC	??_C@_0BA@NNNPPLBP@MARK_ENCLOSING?5@		; `string'
PUBLIC	??_C@_07BAKEFCLB@NUMBER?5@			; `string'
PUBLIC	??_C@_0BA@JLEBGNKM@NUMBER_DECIMAL?5@		; `string'
PUBLIC	??_C@_0P@FJBLFHMA@NUMBER_LETTER?5@		; `string'
PUBLIC	??_C@_0P@PDKFLOJK@NUMBER_OTHERS?5@		; `string'
PUBLIC	??_C@_06INFGODEH@PUNCT?5@			; `string'
PUBLIC	??_C@_0BB@DCHADIII@PUNCT_CONNECTOR?5@		; `string'
PUBLIC	??_C@_0M@BBMKBPFM@PUNCT_DASH?5@			; `string'
PUBLIC	??_C@_0M@FHHCCFFM@PUNCT_OPEN?5@			; `string'
PUBLIC	??_C@_0N@OCGFHNOE@PUNCT_CLOSE?5@		; `string'
PUBLIC	??_C@_0BB@HJFINBLL@PUNCT_INITQUOTE?5@		; `string'
PUBLIC	??_C@_0BA@EBCHGEDF@PUNCT_FINQUOTE?5@		; `string'
PUBLIC	??_C@_0O@FIEDELON@PUNCT_OTHERS?5@		; `string'
PUBLIC	??_C@_06MODMGGJL@SEPAR?5@			; `string'
PUBLIC	??_C@_0N@CEDLANHM@SEPAR_SPACE?5@		; `string'
PUBLIC	??_C@_0M@GPNEEMIA@SEPAR_LINE?5@			; `string'
PUBLIC	??_C@_0M@DGHGIFFK@SEPAR_PARA?5@			; `string'
PUBLIC	??_C@_07EJLPHCCB@SYMBOL?5@			; `string'
PUBLIC	??_C@_0N@LBDJILGE@SYMBOL_MATH?5@		; `string'
PUBLIC	??_C@_0BB@MBFAMNND@SYMBOL_CURRENCY?5@		; `string'
PUBLIC	??_C@_0BB@CEPANLJE@SYMBOL_MODIFIER?5@		; `string'
PUBLIC	??_C@_0P@LKPECLCL@SYMBOL_OTHERS?5@		; `string'
PUBLIC	??_C@_06HJDKAKAL@OTHER?5@			; `string'
PUBLIC	??_C@_0P@FGFCBEPI@OTHER_CONTROL?5@		; `string'
PUBLIC	??_C@_0O@BACNFCMB@OTHER_FORMAT?5@		; `string'
PUBLIC	??_C@_0P@DEHNHHA@OTHER_PRIVATE?5@		; `string'
PUBLIC	??_C@_09NECDEFOF@OTHER_NA?5@			; `string'
PUBLIC	??_C@_06HDNEPAAO@BLOCK?5@			; `string'
PUBLIC	??_C@_05GDJGFPHL@once?5@			; `string'
PUBLIC	??_C@_02LKANKAOC@?$DP?5@			; `string'
PUBLIC	??_C@_02KAOAMBHJ@?$CK?5@			; `string'
PUBLIC	??_C@_02KBCCKLEO@?$CL?5@			; `string'
PUBLIC	??_C@_06IBKHBGID@range?5@			; `string'
PUBLIC	??_C@_09EPCGBNDN@onceonly?5@			; `string'
PUBLIC	??_C@_04DIDGAIEC@all?5@				; `string'
PUBLIC	??_C@_09LLABEBOE@?5?5range?3?5@			; `string'
PUBLIC	??_C@_09KDBNABJA@negative?5@			; `string'
PUBLIC	??_C@_08BNCIEJGK@?$CFc?5?9?5?$CFc?6@		; `string'
PUBLIC	??_C@_07LAIPMBOA@?5atom?3?5@			; `string'
PUBLIC	??_C@_05NJDBAOFA@NULL?6@			; `string'
PUBLIC	??_C@_04LKOGMCLF@not?5@				; `string'
PUBLIC	??_C@_06BIJEIIBB@?$CFd?9?$CFd?5@		; `string'
PUBLIC	??_C@_05IMLJLABD@?8?$CFs?8?5@			; `string'
PUBLIC	??_C@_08PCGOOLFO@char?5?$CFc?6@			; `string'
PUBLIC	??_C@_0M@BCDCHBAM@?$CFd?5entries?6@		; `string'
PUBLIC	??_C@_0BB@GBMGKEL@start?5?$CFd?5end?5?$CFd?6@	; `string'
PUBLIC	??_C@_01EEMJAFIK@?6@				; `string'
PUBLIC	??_C@_09KCGMBGNH@?5?5trans?3?5@			; `string'
PUBLIC	??_C@_08IDDAKHFP@removed?6@			; `string'
PUBLIC	??_C@_0BH@PJNPIGKD@last?5not?5determinist?0?5@	; `string'
PUBLIC	??_C@_0BC@EKCPHBCA@not?5determinist?0?5@	; `string'
PUBLIC	??_C@_0N@NIIDMCG@counted?5?$CFd?0?5@		; `string'
PUBLIC	??_C@_0BB@CPMJDJHN@all?5transition?0?5@		; `string'
PUBLIC	??_C@_0BB@LHHOLMKP@count?5based?5?$CFd?0?5@	; `string'
PUBLIC	??_C@_0P@BEFDCDEN@epsilon?5to?5?$CFd?6@		; `string'
PUBLIC	??_C@_08JNAFCHHG@char?5?$CFc?5@			; `string'
PUBLIC	??_C@_0BA@DDAHGLMD@atom?5?$CFd?0?5to?5?$CFd?6@	; `string'
PUBLIC	??_C@_08NOIFNCJM@?5state?3?5@			; `string'
PUBLIC	??_C@_06BNBHINFE@START?5@			; `string'
PUBLIC	??_C@_06EFHALCBA@FINAL?5@			; `string'
PUBLIC	??_C@_0BF@NHMHHIIL@?$CFd?0?5?$CFd?5transitions?3?6@ ; `string'
PUBLIC	??_C@_0BI@MEBKNK@add?5range?3?5atom?5is?5NULL@	; `string'
PUBLIC	??_C@_0BO@PJJILLLG@add?5range?3?5atom?5is?5not?5ranges@ ; `string'
PUBLIC	??_C@_0O@INOJCFAI@adding?5ranges@		; `string'
PUBLIC	??_C@_0BD@OEINICOI@allocating?5counter@		; `string'
PUBLIC	??_C@_0BI@LIIKMBAE@atom?5push?3?5atom?5is?5NULL@ ; `string'
PUBLIC	??_C@_0N@PMKNEBIB@pushing?5atom@		; `string'
PUBLIC	??_C@_0BC@FHJHIDDF@adding?5transition@		; `string'
PUBLIC	??_C@_0BJ@KPILLGIF@add?5state?3?5state?5is?5NULL@ ; `string'
PUBLIC	??_C@_0BK@PPLNMJBI@add?5state?3?5target?5is?5NULL@ ; `string'
PUBLIC	??_C@_0N@NHLBLLB@adding?5state@			; `string'
PUBLIC	??_C@_0CB@LMLDANHN@genrate?5transition?3?5atom?5?$DN?$DN?5NUL@ ; `string'
PUBLIC	??_C@_0BJ@POCEJEIB@TODO?3?5XML_REGEXP_STRING?6@	; `string'
PUBLIC	??_C@_0O@PEGCJGLF@saving?5regexp@		; `string'
PUBLIC	??_C@_0BN@CPBANDJM@exec?5save?3?5allocation?5failed@ ; `string'
PUBLIC	??_C@_0P@IJHGICCJ@running?5regexp@		; `string'
PUBLIC	??_C@_0CE@CMNJHAKA@epsilon?5transition?5left?5at?5runt@ ; `string'
PUBLIC	??_C@_0BL@LMPHHOAL@creating?5execution?5context@ ; `string'
PUBLIC	??_C@_0BF@FEDDAGIG@pushing?5input?5string@	; `string'
PUBLIC	??_C@_0GL@GCGJPEPF@c?3?2users?2dag?2documents?2_clients@ ; `string'
PUBLIC	??_C@_0BO@MDEMDPPE@Unimplemented?5block?5at?5?$CFs?3?$CFd?6@ ; `string'
PUBLIC	??_C@_0BA@KPLOEDJN@IsXXXX?5expected@		; `string'
PUBLIC	??_C@_0BG@ECFAFFBF@Unknown?5char?5property@	; `string'
PUBLIC	??_C@_0BO@BOFONOMH@Escaped?5sequence?3?5expecting?5?2@ ; `string'
PUBLIC	??_C@_0O@OGGGBIPE@Expecting?5?8?$HL?8@		; `string'
PUBLIC	??_C@_0O@OCOLGEEG@Expecting?5?8?$HN?8@		; `string'
PUBLIC	??_C@_0CP@BDPLJNDH@Wrong?5escape?5sequence?0?5misuse?5o@ ; `string'
PUBLIC	??_C@_0O@NKKGCCKG@Expecting?5?8?$FN?8@		; `string'
PUBLIC	??_C@_0BF@HOMDEKLG@Invalid?5escape?5value@	; `string'
PUBLIC	??_C@_0BH@LOJMKNAD@Expecting?5a?5char?5range@	; `string'
PUBLIC	??_C@_0CC@JHFKDBIP@Expecting?5the?5end?5of?5a?5char?5ran@ ; `string'
PUBLIC	??_C@_0CG@BKADGONK@End?5of?5range?5is?5before?5start?5of@ ; `string'
PUBLIC	??_C@_0BM@FJAEMPFO@charClassExpr?3?5?8?$FN?8?5expected@ ; `string'
PUBLIC	??_C@_0CC@FKLKCEIP@xmlFAParseCharClass?3?5?8?$FN?8?5expect@ ; `string'
PUBLIC	??_C@_0BE@PGBJEMPN@Improper?5quantifier@	; `string'
PUBLIC	??_C@_0BI@HKPFPPFN@Unterminated?5quantifier@	; `string'
PUBLIC	??_C@_0BO@CCFFKIJF@xmlFAParseAtom?3?5expecting?5?8?$CJ?8@ ; `string'
PUBLIC	??_C@_0BM@PFFMPGPF@internal?3?5no?5atom?5generated@ ; `string'
PUBLIC	??_C@_0BL@KAIMKABF@expecting?5a?5branch?5after?5?$HM@ ; `string'
PUBLIC	??_C@_09BNLLHCCB@?5regexp?3?5@			; `string'
PUBLIC	??_C@_0L@PLBJGPP@?$CFd?5atoms?3?6@		; `string'
PUBLIC	??_C@_06NLBGECGK@?5?$CF02d?5@			; `string'
PUBLIC	??_C@_0L@LDKKLMNF@?$CFd?5states?3@		; `string'
PUBLIC	??_C@_0O@EOOCDOKK@?$CFd?5counters?3?6@		; `string'
PUBLIC	??_C@_0BE@LNLBBGGH@?5?$CFd?3?5min?5?$CFd?5max?5?$CFd?6@ ; `string'
PUBLIC	??_C@_0CD@GPPIOFAL@xmlFAParseRegExp?3?5extra?5charact@ ; `string'
PUBLIC	??_C@_06NGEMONLJ@not?5?$CFs@			; `string'
PUBLIC	??_C@_0BF@FNELPLND@unbalanced?5?8?$CI?8?5?3?5?$CFs?6@ ; `string'
PUBLIC	??_C@_01ODHLEDKK@?$CI@				; `string'
PUBLIC	??_C@_05LBJMNBOG@empty@				; `string'
PUBLIC	??_C@_09PDGFMGED@forbidden@			; `string'
PUBLIC	??_C@_03NKFKBEPL@?5?0?5@			; `string'
PUBLIC	??_C@_03LGOGDKEL@?5?$HM?5@			; `string'
PUBLIC	??_C@_04PFHMOCHH@?$HL?$CFd?$HN@			; `string'
PUBLIC	??_C@_08EMBBFCPF@?$HL?$CFd?0inf?$HN@		; `string'
PUBLIC	??_C@_07CDJFAPGJ@?$HL?$CFd?0?$CFd?$HN@		; `string'
PUBLIC	??_C@_0P@OCJKDKLA@Error?5in?5tree?6@		; `string'
PUBLIC	??_C@_01PKGAHCOL@?$CJ@				; `string'
EXTRN	_xmlStrdup:PROC
EXTRN	_xmlStrndup:PROC
EXTRN	_xmlStrEqual:PROC
EXTRN	__imp____acrt_iob_func:PROC
EXTRN	__imp____stdio_common_vfprintf:PROC
EXTRN	__imp____stdio_common_vsprintf:PROC
EXTRN	_xmlDictCreate:PROC
EXTRN	_xmlDictReference:PROC
EXTRN	_xmlDictFree:PROC
EXTRN	_xmlDictLookup:PROC
EXTRN	_xmlDictExists:PROC
EXTRN	_xmlBufferWriteCHAR:PROC
EXTRN	_xmlBufferWriteChar:PROC
EXTRN	___xmlRaiseError:PROC
EXTRN	___xmlGenericError:PROC
EXTRN	___xmlGenericErrorContext:PROC
EXTRN	_xmlCharInRange:PROC
EXTRN	_xmlStringCurrentChar:PROC
EXTRN	_xmlUCSIsBlock:PROC
EXTRN	_xmlUCSIsCatC:PROC
EXTRN	_xmlUCSIsCatCc:PROC
EXTRN	_xmlUCSIsCatCf:PROC
EXTRN	_xmlUCSIsCatCo:PROC
EXTRN	_xmlUCSIsCatL:PROC
EXTRN	_xmlUCSIsCatLl:PROC
EXTRN	_xmlUCSIsCatLm:PROC
EXTRN	_xmlUCSIsCatLo:PROC
EXTRN	_xmlUCSIsCatLt:PROC
EXTRN	_xmlUCSIsCatLu:PROC
EXTRN	_xmlUCSIsCatM:PROC
EXTRN	_xmlUCSIsCatMc:PROC
EXTRN	_xmlUCSIsCatMe:PROC
EXTRN	_xmlUCSIsCatMn:PROC
EXTRN	_xmlUCSIsCatN:PROC
EXTRN	_xmlUCSIsCatNd:PROC
EXTRN	_xmlUCSIsCatNl:PROC
EXTRN	_xmlUCSIsCatNo:PROC
EXTRN	_xmlUCSIsCatP:PROC
EXTRN	_xmlUCSIsCatPc:PROC
EXTRN	_xmlUCSIsCatPd:PROC
EXTRN	_xmlUCSIsCatPe:PROC
EXTRN	_xmlUCSIsCatPf:PROC
EXTRN	_xmlUCSIsCatPi:PROC
EXTRN	_xmlUCSIsCatPo:PROC
EXTRN	_xmlUCSIsCatPs:PROC
EXTRN	_xmlUCSIsCatS:PROC
EXTRN	_xmlUCSIsCatSc:PROC
EXTRN	_xmlUCSIsCatSk:PROC
EXTRN	_xmlUCSIsCatSm:PROC
EXTRN	_xmlUCSIsCatSo:PROC
EXTRN	_xmlUCSIsCatZ:PROC
EXTRN	_xmlUCSIsCatZl:PROC
EXTRN	_xmlUCSIsCatZp:PROC
EXTRN	_xmlUCSIsCatZs:PROC
EXTRN	@__CheckForDebuggerJustMyCode@4:PROC
EXTRN	_memcpy:PROC
EXTRN	_memset:PROC
_DATA	SEGMENT
COMM	?_OptionsStorage@?1??__local_stdio_printf_options@@9@9:QWORD							; `__local_stdio_printf_options'::`2'::_OptionsStorage
_DATA	ENDS
;	COMDAT ??_C@_01PKGAHCOL@?$CJ@
CONST	SEGMENT
??_C@_01PKGAHCOL@?$CJ@ DB ')', 00H			; `string'
CONST	ENDS
;	COMDAT ??_C@_0P@OCJKDKLA@Error?5in?5tree?6@
CONST	SEGMENT
??_C@_0P@OCJKDKLA@Error?5in?5tree?6@ DB 'Error in tree', 0aH, 00H ; `string'
CONST	ENDS
;	COMDAT ??_C@_07CDJFAPGJ@?$HL?$CFd?0?$CFd?$HN@
CONST	SEGMENT
??_C@_07CDJFAPGJ@?$HL?$CFd?0?$CFd?$HN@ DB '{%d,%d}', 00H ; `string'
CONST	ENDS
;	COMDAT ??_C@_08EMBBFCPF@?$HL?$CFd?0inf?$HN@
CONST	SEGMENT
??_C@_08EMBBFCPF@?$HL?$CFd?0inf?$HN@ DB '{%d,inf}', 00H	; `string'
CONST	ENDS
;	COMDAT ??_C@_04PFHMOCHH@?$HL?$CFd?$HN@
CONST	SEGMENT
??_C@_04PFHMOCHH@?$HL?$CFd?$HN@ DB '{%d}', 00H		; `string'
CONST	ENDS
;	COMDAT ??_C@_03LGOGDKEL@?5?$HM?5@
CONST	SEGMENT
??_C@_03LGOGDKEL@?5?$HM?5@ DB ' | ', 00H		; `string'
CONST	ENDS
;	COMDAT ??_C@_03NKFKBEPL@?5?0?5@
CONST	SEGMENT
??_C@_03NKFKBEPL@?5?0?5@ DB ' , ', 00H			; `string'
CONST	ENDS
;	COMDAT ??_C@_09PDGFMGED@forbidden@
CONST	SEGMENT
??_C@_09PDGFMGED@forbidden@ DB 'forbidden', 00H		; `string'
CONST	ENDS
;	COMDAT ??_C@_05LBJMNBOG@empty@
CONST	SEGMENT
??_C@_05LBJMNBOG@empty@ DB 'empty', 00H			; `string'
CONST	ENDS
;	COMDAT ??_C@_01ODHLEDKK@?$CI@
CONST	SEGMENT
??_C@_01ODHLEDKK@?$CI@ DB '(', 00H			; `string'
CONST	ENDS
;	COMDAT ??_C@_0BF@FNELPLND@unbalanced?5?8?$CI?8?5?3?5?$CFs?6@
CONST	SEGMENT
??_C@_0BF@FNELPLND@unbalanced?5?8?$CI?8?5?3?5?$CFs?6@ DB 'unbalanced ''('''
	DB	' : %s', 0aH, 00H				; `string'
CONST	ENDS
;	COMDAT ??_C@_06NGEMONLJ@not?5?$CFs@
CONST	SEGMENT
??_C@_06NGEMONLJ@not?5?$CFs@ DB 'not %s', 00H		; `string'
CONST	ENDS
;	COMDAT ??_C@_0CD@GPPIOFAL@xmlFAParseRegExp?3?5extra?5charact@
CONST	SEGMENT
??_C@_0CD@GPPIOFAL@xmlFAParseRegExp?3?5extra?5charact@ DB 'xmlFAParseRegE'
	DB	'xp: extra characters', 00H			; `string'
CONST	ENDS
;	COMDAT ??_C@_0BE@LNLBBGGH@?5?$CFd?3?5min?5?$CFd?5max?5?$CFd?6@
CONST	SEGMENT
??_C@_0BE@LNLBBGGH@?5?$CFd?3?5min?5?$CFd?5max?5?$CFd?6@ DB ' %d: min %d m'
	DB	'ax %d', 0aH, 00H				; `string'
CONST	ENDS
;	COMDAT ??_C@_0O@EOOCDOKK@?$CFd?5counters?3?6@
CONST	SEGMENT
??_C@_0O@EOOCDOKK@?$CFd?5counters?3?6@ DB '%d counters:', 0aH, 00H ; `string'
CONST	ENDS
;	COMDAT ??_C@_0L@LDKKLMNF@?$CFd?5states?3@
CONST	SEGMENT
??_C@_0L@LDKKLMNF@?$CFd?5states?3@ DB '%d states:', 00H	; `string'
CONST	ENDS
;	COMDAT ??_C@_06NLBGECGK@?5?$CF02d?5@
CONST	SEGMENT
??_C@_06NLBGECGK@?5?$CF02d?5@ DB ' %02d ', 00H		; `string'
CONST	ENDS
;	COMDAT ??_C@_0L@PLBJGPP@?$CFd?5atoms?3?6@
CONST	SEGMENT
??_C@_0L@PLBJGPP@?$CFd?5atoms?3?6@ DB '%d atoms:', 0aH, 00H ; `string'
CONST	ENDS
;	COMDAT ??_C@_09BNLLHCCB@?5regexp?3?5@
CONST	SEGMENT
??_C@_09BNLLHCCB@?5regexp?3?5@ DB ' regexp: ', 00H	; `string'
CONST	ENDS
;	COMDAT ??_C@_0BL@KAIMKABF@expecting?5a?5branch?5after?5?$HM@
CONST	SEGMENT
??_C@_0BL@KAIMKABF@expecting?5a?5branch?5after?5?$HM@ DB 'expecting a bra'
	DB	'nch after |', 00H				; `string'
CONST	ENDS
;	COMDAT ??_C@_0BM@PFFMPGPF@internal?3?5no?5atom?5generated@
CONST	SEGMENT
??_C@_0BM@PFFMPGPF@internal?3?5no?5atom?5generated@ DB 'internal: no atom'
	DB	' generated', 00H				; `string'
CONST	ENDS
;	COMDAT ??_C@_0BO@CCFFKIJF@xmlFAParseAtom?3?5expecting?5?8?$CJ?8@
CONST	SEGMENT
??_C@_0BO@CCFFKIJF@xmlFAParseAtom?3?5expecting?5?8?$CJ?8@ DB 'xmlFAParseA'
	DB	'tom: expecting '')''', 00H			; `string'
CONST	ENDS
;	COMDAT ??_C@_0BI@HKPFPPFN@Unterminated?5quantifier@
CONST	SEGMENT
??_C@_0BI@HKPFPPFN@Unterminated?5quantifier@ DB 'Unterminated quantifier', 00H ; `string'
CONST	ENDS
;	COMDAT ??_C@_0BE@PGBJEMPN@Improper?5quantifier@
CONST	SEGMENT
??_C@_0BE@PGBJEMPN@Improper?5quantifier@ DB 'Improper quantifier', 00H ; `string'
CONST	ENDS
;	COMDAT ??_C@_0CC@FKLKCEIP@xmlFAParseCharClass?3?5?8?$FN?8?5expect@
CONST	SEGMENT
??_C@_0CC@FKLKCEIP@xmlFAParseCharClass?3?5?8?$FN?8?5expect@ DB 'xmlFAPars'
	DB	'eCharClass: '']'' expected', 00H		; `string'
CONST	ENDS
;	COMDAT ??_C@_0BM@FJAEMPFO@charClassExpr?3?5?8?$FN?8?5expected@
CONST	SEGMENT
??_C@_0BM@FJAEMPFO@charClassExpr?3?5?8?$FN?8?5expected@ DB 'charClassExpr'
	DB	': '']'' expected', 00H			; `string'
CONST	ENDS
;	COMDAT ??_C@_0CG@BKADGONK@End?5of?5range?5is?5before?5start?5of@
CONST	SEGMENT
??_C@_0CG@BKADGONK@End?5of?5range?5is?5before?5start?5of@ DB 'End of rang'
	DB	'e is before start of range', 00H		; `string'
CONST	ENDS
;	COMDAT ??_C@_0CC@JHFKDBIP@Expecting?5the?5end?5of?5a?5char?5ran@
CONST	SEGMENT
??_C@_0CC@JHFKDBIP@Expecting?5the?5end?5of?5a?5char?5ran@ DB 'Expecting t'
	DB	'he end of a char range', 00H		; `string'
CONST	ENDS
;	COMDAT ??_C@_0BH@LOJMKNAD@Expecting?5a?5char?5range@
CONST	SEGMENT
??_C@_0BH@LOJMKNAD@Expecting?5a?5char?5range@ DB 'Expecting a char range', 00H ; `string'
CONST	ENDS
;	COMDAT ??_C@_0BF@HOMDEKLG@Invalid?5escape?5value@
CONST	SEGMENT
??_C@_0BF@HOMDEKLG@Invalid?5escape?5value@ DB 'Invalid escape value', 00H ; `string'
CONST	ENDS
;	COMDAT ??_C@_0O@NKKGCCKG@Expecting?5?8?$FN?8@
CONST	SEGMENT
??_C@_0O@NKKGCCKG@Expecting?5?8?$FN?8@ DB 'Expecting '']''', 00H ; `string'
CONST	ENDS
;	COMDAT ??_C@_0CP@BDPLJNDH@Wrong?5escape?5sequence?0?5misuse?5o@
CONST	SEGMENT
??_C@_0CP@BDPLJNDH@Wrong?5escape?5sequence?0?5misuse?5o@ DB 'Wrong escape'
	DB	' sequence, misuse of character ''\''', 00H	; `string'
CONST	ENDS
;	COMDAT ??_C@_0O@OCOLGEEG@Expecting?5?8?$HN?8@
CONST	SEGMENT
??_C@_0O@OCOLGEEG@Expecting?5?8?$HN?8@ DB 'Expecting ''}''', 00H ; `string'
CONST	ENDS
;	COMDAT ??_C@_0O@OGGGBIPE@Expecting?5?8?$HL?8@
CONST	SEGMENT
??_C@_0O@OGGGBIPE@Expecting?5?8?$HL?8@ DB 'Expecting ''{''', 00H ; `string'
CONST	ENDS
;	COMDAT ??_C@_0BO@BOFONOMH@Escaped?5sequence?3?5expecting?5?2@
CONST	SEGMENT
??_C@_0BO@BOFONOMH@Escaped?5sequence?3?5expecting?5?2@ DB 'Escaped sequen'
	DB	'ce: expecting \', 00H			; `string'
CONST	ENDS
;	COMDAT ??_C@_0BG@ECFAFFBF@Unknown?5char?5property@
CONST	SEGMENT
??_C@_0BG@ECFAFFBF@Unknown?5char?5property@ DB 'Unknown char property', 00H ; `string'
CONST	ENDS
;	COMDAT ??_C@_0BA@KPLOEDJN@IsXXXX?5expected@
CONST	SEGMENT
??_C@_0BA@KPLOEDJN@IsXXXX?5expected@ DB 'IsXXXX expected', 00H ; `string'
CONST	ENDS
;	COMDAT ??_C@_0BO@MDEMDPPE@Unimplemented?5block?5at?5?$CFs?3?$CFd?6@
CONST	SEGMENT
??_C@_0BO@MDEMDPPE@Unimplemented?5block?5at?5?$CFs?3?$CFd?6@ DB 'Unimplem'
	DB	'ented block at %s:%d', 0aH, 00H		; `string'
CONST	ENDS
;	COMDAT ??_C@_0GL@GCGJPEPF@c?3?2users?2dag?2documents?2_clients@
CONST	SEGMENT
??_C@_0GL@GCGJPEPF@c?3?2users?2dag?2documents?2_clients@ DB 'c:\users\dag'
	DB	'\documents\_clients\codeproject authors group\windows on arm\'
	DB	'libxml2\libxml2-2.9.9\xmlregexp.c', 00H	; `string'
CONST	ENDS
;	COMDAT ??_C@_0BF@FEDDAGIG@pushing?5input?5string@
CONST	SEGMENT
??_C@_0BF@FEDDAGIG@pushing?5input?5string@ DB 'pushing input string', 00H ; `string'
CONST	ENDS
;	COMDAT ??_C@_0BL@LMPHHOAL@creating?5execution?5context@
CONST	SEGMENT
??_C@_0BL@LMPHHOAL@creating?5execution?5context@ DB 'creating execution c'
	DB	'ontext', 00H				; `string'
CONST	ENDS
;	COMDAT ??_C@_0CE@CMNJHAKA@epsilon?5transition?5left?5at?5runt@
CONST	SEGMENT
??_C@_0CE@CMNJHAKA@epsilon?5transition?5left?5at?5runt@ DB 'epsilon trans'
	DB	'ition left at runtime', 0aH, 00H		; `string'
CONST	ENDS
;	COMDAT ??_C@_0P@IJHGICCJ@running?5regexp@
CONST	SEGMENT
??_C@_0P@IJHGICCJ@running?5regexp@ DB 'running regexp', 00H ; `string'
CONST	ENDS
;	COMDAT ??_C@_0BN@CPBANDJM@exec?5save?3?5allocation?5failed@
CONST	SEGMENT
??_C@_0BN@CPBANDJM@exec?5save?3?5allocation?5failed@ DB 'exec save: alloc'
	DB	'ation failed', 00H				; `string'
CONST	ENDS
;	COMDAT ??_C@_0O@PEGCJGLF@saving?5regexp@
CONST	SEGMENT
??_C@_0O@PEGCJGLF@saving?5regexp@ DB 'saving regexp', 00H ; `string'
CONST	ENDS
;	COMDAT ??_C@_0BJ@POCEJEIB@TODO?3?5XML_REGEXP_STRING?6@
CONST	SEGMENT
??_C@_0BJ@POCEJEIB@TODO?3?5XML_REGEXP_STRING?6@ DB 'TODO: XML_REGEXP_STRI'
	DB	'NG', 0aH, 00H				; `string'
CONST	ENDS
;	COMDAT ??_C@_0CB@LMLDANHN@genrate?5transition?3?5atom?5?$DN?$DN?5NUL@
CONST	SEGMENT
??_C@_0CB@LMLDANHN@genrate?5transition?3?5atom?5?$DN?$DN?5NUL@ DB 'genrat'
	DB	'e transition: atom == NULL', 00H		; `string'
CONST	ENDS
;	COMDAT ??_C@_0N@NHLBLLB@adding?5state@
CONST	SEGMENT
??_C@_0N@NHLBLLB@adding?5state@ DB 'adding state', 00H	; `string'
CONST	ENDS
;	COMDAT ??_C@_0BK@PPLNMJBI@add?5state?3?5target?5is?5NULL@
CONST	SEGMENT
??_C@_0BK@PPLNMJBI@add?5state?3?5target?5is?5NULL@ DB 'add state: target '
	DB	'is NULL', 00H				; `string'
CONST	ENDS
;	COMDAT ??_C@_0BJ@KPILLGIF@add?5state?3?5state?5is?5NULL@
CONST	SEGMENT
??_C@_0BJ@KPILLGIF@add?5state?3?5state?5is?5NULL@ DB 'add state: state is'
	DB	' NULL', 00H					; `string'
CONST	ENDS
;	COMDAT ??_C@_0BC@FHJHIDDF@adding?5transition@
CONST	SEGMENT
??_C@_0BC@FHJHIDDF@adding?5transition@ DB 'adding transition', 00H ; `string'
CONST	ENDS
;	COMDAT ??_C@_0N@PMKNEBIB@pushing?5atom@
CONST	SEGMENT
??_C@_0N@PMKNEBIB@pushing?5atom@ DB 'pushing atom', 00H	; `string'
CONST	ENDS
;	COMDAT ??_C@_0BI@LIIKMBAE@atom?5push?3?5atom?5is?5NULL@
CONST	SEGMENT
??_C@_0BI@LIIKMBAE@atom?5push?3?5atom?5is?5NULL@ DB 'atom push: atom is N'
	DB	'ULL', 00H					; `string'
CONST	ENDS
;	COMDAT ??_C@_0BD@OEINICOI@allocating?5counter@
CONST	SEGMENT
??_C@_0BD@OEINICOI@allocating?5counter@ DB 'allocating counter', 00H ; `string'
CONST	ENDS
;	COMDAT ??_C@_0O@INOJCFAI@adding?5ranges@
CONST	SEGMENT
??_C@_0O@INOJCFAI@adding?5ranges@ DB 'adding ranges', 00H ; `string'
CONST	ENDS
;	COMDAT ??_C@_0BO@PJJILLLG@add?5range?3?5atom?5is?5not?5ranges@
CONST	SEGMENT
??_C@_0BO@PJJILLLG@add?5range?3?5atom?5is?5not?5ranges@ DB 'add range: at'
	DB	'om is not ranges', 00H			; `string'
CONST	ENDS
;	COMDAT ??_C@_0BI@MEBKNK@add?5range?3?5atom?5is?5NULL@
CONST	SEGMENT
??_C@_0BI@MEBKNK@add?5range?3?5atom?5is?5NULL@ DB 'add range: atom is NUL'
	DB	'L', 00H					; `string'
CONST	ENDS
;	COMDAT ??_C@_0BF@NHMHHIIL@?$CFd?0?5?$CFd?5transitions?3?6@
CONST	SEGMENT
??_C@_0BF@NHMHHIIL@?$CFd?0?5?$CFd?5transitions?3?6@ DB '%d, %d transition'
	DB	's:', 0aH, 00H				; `string'
CONST	ENDS
;	COMDAT ??_C@_06EFHALCBA@FINAL?5@
CONST	SEGMENT
??_C@_06EFHALCBA@FINAL?5@ DB 'FINAL ', 00H		; `string'
CONST	ENDS
;	COMDAT ??_C@_06BNBHINFE@START?5@
CONST	SEGMENT
??_C@_06BNBHINFE@START?5@ DB 'START ', 00H		; `string'
CONST	ENDS
;	COMDAT ??_C@_08NOIFNCJM@?5state?3?5@
CONST	SEGMENT
??_C@_08NOIFNCJM@?5state?3?5@ DB ' state: ', 00H	; `string'
CONST	ENDS
;	COMDAT ??_C@_0BA@DDAHGLMD@atom?5?$CFd?0?5to?5?$CFd?6@
CONST	SEGMENT
??_C@_0BA@DDAHGLMD@atom?5?$CFd?0?5to?5?$CFd?6@ DB 'atom %d, to %d', 0aH, 00H ; `string'
CONST	ENDS
;	COMDAT ??_C@_08JNAFCHHG@char?5?$CFc?5@
CONST	SEGMENT
??_C@_08JNAFCHHG@char?5?$CFc?5@ DB 'char %c ', 00H	; `string'
CONST	ENDS
;	COMDAT ??_C@_0P@BEFDCDEN@epsilon?5to?5?$CFd?6@
CONST	SEGMENT
??_C@_0P@BEFDCDEN@epsilon?5to?5?$CFd?6@ DB 'epsilon to %d', 0aH, 00H ; `string'
CONST	ENDS
;	COMDAT ??_C@_0BB@LHHOLMKP@count?5based?5?$CFd?0?5@
CONST	SEGMENT
??_C@_0BB@LHHOLMKP@count?5based?5?$CFd?0?5@ DB 'count based %d, ', 00H ; `string'
CONST	ENDS
;	COMDAT ??_C@_0BB@CPMJDJHN@all?5transition?0?5@
CONST	SEGMENT
??_C@_0BB@CPMJDJHN@all?5transition?0?5@ DB 'all transition, ', 00H ; `string'
CONST	ENDS
;	COMDAT ??_C@_0N@NIIDMCG@counted?5?$CFd?0?5@
CONST	SEGMENT
??_C@_0N@NIIDMCG@counted?5?$CFd?0?5@ DB 'counted %d, ', 00H ; `string'
CONST	ENDS
;	COMDAT ??_C@_0BC@EKCPHBCA@not?5determinist?0?5@
CONST	SEGMENT
??_C@_0BC@EKCPHBCA@not?5determinist?0?5@ DB 'not determinist, ', 00H ; `string'
CONST	ENDS
;	COMDAT ??_C@_0BH@PJNPIGKD@last?5not?5determinist?0?5@
CONST	SEGMENT
??_C@_0BH@PJNPIGKD@last?5not?5determinist?0?5@ DB 'last not determinist, '
	DB	00H						; `string'
CONST	ENDS
;	COMDAT ??_C@_08IDDAKHFP@removed?6@
CONST	SEGMENT
??_C@_08IDDAKHFP@removed?6@ DB 'removed', 0aH, 00H	; `string'
CONST	ENDS
;	COMDAT ??_C@_09KCGMBGNH@?5?5trans?3?5@
CONST	SEGMENT
??_C@_09KCGMBGNH@?5?5trans?3?5@ DB '  trans: ', 00H	; `string'
CONST	ENDS
;	COMDAT ??_C@_01EEMJAFIK@?6@
CONST	SEGMENT
??_C@_01EEMJAFIK@?6@ DB 0aH, 00H			; `string'
CONST	ENDS
;	COMDAT ??_C@_0BB@GBMGKEL@start?5?$CFd?5end?5?$CFd?6@
CONST	SEGMENT
??_C@_0BB@GBMGKEL@start?5?$CFd?5end?5?$CFd?6@ DB 'start %d end %d', 0aH, 00H ; `string'
CONST	ENDS
;	COMDAT ??_C@_0M@BCDCHBAM@?$CFd?5entries?6@
CONST	SEGMENT
??_C@_0M@BCDCHBAM@?$CFd?5entries?6@ DB '%d entries', 0aH, 00H ; `string'
CONST	ENDS
;	COMDAT ??_C@_08PCGOOLFO@char?5?$CFc?6@
CONST	SEGMENT
??_C@_08PCGOOLFO@char?5?$CFc?6@ DB 'char %c', 0aH, 00H	; `string'
CONST	ENDS
;	COMDAT ??_C@_05IMLJLABD@?8?$CFs?8?5@
CONST	SEGMENT
??_C@_05IMLJLABD@?8?$CFs?8?5@ DB '''%s'' ', 00H		; `string'
CONST	ENDS
;	COMDAT ??_C@_06BIJEIIBB@?$CFd?9?$CFd?5@
CONST	SEGMENT
??_C@_06BIJEIIBB@?$CFd?9?$CFd?5@ DB '%d-%d ', 00H	; `string'
CONST	ENDS
;	COMDAT ??_C@_04LKOGMCLF@not?5@
CONST	SEGMENT
??_C@_04LKOGMCLF@not?5@ DB 'not ', 00H			; `string'
CONST	ENDS
;	COMDAT ??_C@_05NJDBAOFA@NULL?6@
CONST	SEGMENT
??_C@_05NJDBAOFA@NULL?6@ DB 'NULL', 0aH, 00H		; `string'
CONST	ENDS
;	COMDAT ??_C@_07LAIPMBOA@?5atom?3?5@
CONST	SEGMENT
??_C@_07LAIPMBOA@?5atom?3?5@ DB ' atom: ', 00H		; `string'
CONST	ENDS
;	COMDAT ??_C@_08BNCIEJGK@?$CFc?5?9?5?$CFc?6@
CONST	SEGMENT
??_C@_08BNCIEJGK@?$CFc?5?9?5?$CFc?6@ DB '%c - %c', 0aH, 00H ; `string'
CONST	ENDS
;	COMDAT ??_C@_09KDBNABJA@negative?5@
CONST	SEGMENT
??_C@_09KDBNABJA@negative?5@ DB 'negative ', 00H	; `string'
CONST	ENDS
;	COMDAT ??_C@_09LLABEBOE@?5?5range?3?5@
CONST	SEGMENT
??_C@_09LLABEBOE@?5?5range?3?5@ DB '  range: ', 00H	; `string'
CONST	ENDS
;	COMDAT ??_C@_04DIDGAIEC@all?5@
CONST	SEGMENT
??_C@_04DIDGAIEC@all?5@ DB 'all ', 00H			; `string'
CONST	ENDS
;	COMDAT ??_C@_09EPCGBNDN@onceonly?5@
CONST	SEGMENT
??_C@_09EPCGBNDN@onceonly?5@ DB 'onceonly ', 00H	; `string'
CONST	ENDS
;	COMDAT ??_C@_06IBKHBGID@range?5@
CONST	SEGMENT
??_C@_06IBKHBGID@range?5@ DB 'range ', 00H		; `string'
CONST	ENDS
;	COMDAT ??_C@_02KBCCKLEO@?$CL?5@
CONST	SEGMENT
??_C@_02KBCCKLEO@?$CL?5@ DB '+ ', 00H			; `string'
CONST	ENDS
;	COMDAT ??_C@_02KAOAMBHJ@?$CK?5@
CONST	SEGMENT
??_C@_02KAOAMBHJ@?$CK?5@ DB '* ', 00H			; `string'
CONST	ENDS
;	COMDAT ??_C@_02LKANKAOC@?$DP?5@
CONST	SEGMENT
??_C@_02LKANKAOC@?$DP?5@ DB '? ', 00H			; `string'
CONST	ENDS
;	COMDAT ??_C@_05GDJGFPHL@once?5@
CONST	SEGMENT
??_C@_05GDJGFPHL@once?5@ DB 'once ', 00H		; `string'
CONST	ENDS
;	COMDAT ??_C@_06HDNEPAAO@BLOCK?5@
CONST	SEGMENT
??_C@_06HDNEPAAO@BLOCK?5@ DB 'BLOCK ', 00H		; `string'
CONST	ENDS
;	COMDAT ??_C@_09NECDEFOF@OTHER_NA?5@
CONST	SEGMENT
??_C@_09NECDEFOF@OTHER_NA?5@ DB 'OTHER_NA ', 00H	; `string'
CONST	ENDS
;	COMDAT ??_C@_0P@DEHNHHA@OTHER_PRIVATE?5@
CONST	SEGMENT
??_C@_0P@DEHNHHA@OTHER_PRIVATE?5@ DB 'OTHER_PRIVATE ', 00H ; `string'
CONST	ENDS
;	COMDAT ??_C@_0O@BACNFCMB@OTHER_FORMAT?5@
CONST	SEGMENT
??_C@_0O@BACNFCMB@OTHER_FORMAT?5@ DB 'OTHER_FORMAT ', 00H ; `string'
CONST	ENDS
;	COMDAT ??_C@_0P@FGFCBEPI@OTHER_CONTROL?5@
CONST	SEGMENT
??_C@_0P@FGFCBEPI@OTHER_CONTROL?5@ DB 'OTHER_CONTROL ', 00H ; `string'
CONST	ENDS
;	COMDAT ??_C@_06HJDKAKAL@OTHER?5@
CONST	SEGMENT
??_C@_06HJDKAKAL@OTHER?5@ DB 'OTHER ', 00H		; `string'
CONST	ENDS
;	COMDAT ??_C@_0P@LKPECLCL@SYMBOL_OTHERS?5@
CONST	SEGMENT
??_C@_0P@LKPECLCL@SYMBOL_OTHERS?5@ DB 'SYMBOL_OTHERS ', 00H ; `string'
CONST	ENDS
;	COMDAT ??_C@_0BB@CEPANLJE@SYMBOL_MODIFIER?5@
CONST	SEGMENT
??_C@_0BB@CEPANLJE@SYMBOL_MODIFIER?5@ DB 'SYMBOL_MODIFIER ', 00H ; `string'
CONST	ENDS
;	COMDAT ??_C@_0BB@MBFAMNND@SYMBOL_CURRENCY?5@
CONST	SEGMENT
??_C@_0BB@MBFAMNND@SYMBOL_CURRENCY?5@ DB 'SYMBOL_CURRENCY ', 00H ; `string'
CONST	ENDS
;	COMDAT ??_C@_0N@LBDJILGE@SYMBOL_MATH?5@
CONST	SEGMENT
??_C@_0N@LBDJILGE@SYMBOL_MATH?5@ DB 'SYMBOL_MATH ', 00H	; `string'
CONST	ENDS
;	COMDAT ??_C@_07EJLPHCCB@SYMBOL?5@
CONST	SEGMENT
??_C@_07EJLPHCCB@SYMBOL?5@ DB 'SYMBOL ', 00H		; `string'
CONST	ENDS
;	COMDAT ??_C@_0M@DGHGIFFK@SEPAR_PARA?5@
CONST	SEGMENT
??_C@_0M@DGHGIFFK@SEPAR_PARA?5@ DB 'SEPAR_PARA ', 00H	; `string'
CONST	ENDS
;	COMDAT ??_C@_0M@GPNEEMIA@SEPAR_LINE?5@
CONST	SEGMENT
??_C@_0M@GPNEEMIA@SEPAR_LINE?5@ DB 'SEPAR_LINE ', 00H	; `string'
CONST	ENDS
;	COMDAT ??_C@_0N@CEDLANHM@SEPAR_SPACE?5@
CONST	SEGMENT
??_C@_0N@CEDLANHM@SEPAR_SPACE?5@ DB 'SEPAR_SPACE ', 00H	; `string'
CONST	ENDS
;	COMDAT ??_C@_06MODMGGJL@SEPAR?5@
CONST	SEGMENT
??_C@_06MODMGGJL@SEPAR?5@ DB 'SEPAR ', 00H		; `string'
CONST	ENDS
;	COMDAT ??_C@_0O@FIEDELON@PUNCT_OTHERS?5@
CONST	SEGMENT
??_C@_0O@FIEDELON@PUNCT_OTHERS?5@ DB 'PUNCT_OTHERS ', 00H ; `string'
CONST	ENDS
;	COMDAT ??_C@_0BA@EBCHGEDF@PUNCT_FINQUOTE?5@
CONST	SEGMENT
??_C@_0BA@EBCHGEDF@PUNCT_FINQUOTE?5@ DB 'PUNCT_FINQUOTE ', 00H ; `string'
CONST	ENDS
;	COMDAT ??_C@_0BB@HJFINBLL@PUNCT_INITQUOTE?5@
CONST	SEGMENT
??_C@_0BB@HJFINBLL@PUNCT_INITQUOTE?5@ DB 'PUNCT_INITQUOTE ', 00H ; `string'
CONST	ENDS
;	COMDAT ??_C@_0N@OCGFHNOE@PUNCT_CLOSE?5@
CONST	SEGMENT
??_C@_0N@OCGFHNOE@PUNCT_CLOSE?5@ DB 'PUNCT_CLOSE ', 00H	; `string'
CONST	ENDS
;	COMDAT ??_C@_0M@FHHCCFFM@PUNCT_OPEN?5@
CONST	SEGMENT
??_C@_0M@FHHCCFFM@PUNCT_OPEN?5@ DB 'PUNCT_OPEN ', 00H	; `string'
CONST	ENDS
;	COMDAT ??_C@_0M@BBMKBPFM@PUNCT_DASH?5@
CONST	SEGMENT
??_C@_0M@BBMKBPFM@PUNCT_DASH?5@ DB 'PUNCT_DASH ', 00H	; `string'
CONST	ENDS
;	COMDAT ??_C@_0BB@DCHADIII@PUNCT_CONNECTOR?5@
CONST	SEGMENT
??_C@_0BB@DCHADIII@PUNCT_CONNECTOR?5@ DB 'PUNCT_CONNECTOR ', 00H ; `string'
CONST	ENDS
;	COMDAT ??_C@_06INFGODEH@PUNCT?5@
CONST	SEGMENT
??_C@_06INFGODEH@PUNCT?5@ DB 'PUNCT ', 00H		; `string'
CONST	ENDS
;	COMDAT ??_C@_0P@PDKFLOJK@NUMBER_OTHERS?5@
CONST	SEGMENT
??_C@_0P@PDKFLOJK@NUMBER_OTHERS?5@ DB 'NUMBER_OTHERS ', 00H ; `string'
CONST	ENDS
;	COMDAT ??_C@_0P@FJBLFHMA@NUMBER_LETTER?5@
CONST	SEGMENT
??_C@_0P@FJBLFHMA@NUMBER_LETTER?5@ DB 'NUMBER_LETTER ', 00H ; `string'
CONST	ENDS
;	COMDAT ??_C@_0BA@JLEBGNKM@NUMBER_DECIMAL?5@
CONST	SEGMENT
??_C@_0BA@JLEBGNKM@NUMBER_DECIMAL?5@ DB 'NUMBER_DECIMAL ', 00H ; `string'
CONST	ENDS
;	COMDAT ??_C@_07BAKEFCLB@NUMBER?5@
CONST	SEGMENT
??_C@_07BAKEFCLB@NUMBER?5@ DB 'NUMBER ', 00H		; `string'
CONST	ENDS
;	COMDAT ??_C@_0BA@NNNPPLBP@MARK_ENCLOSING?5@
CONST	SEGMENT
??_C@_0BA@NNNPPLBP@MARK_ENCLOSING?5@ DB 'MARK_ENCLOSING ', 00H ; `string'
CONST	ENDS
;	COMDAT ??_C@_0BF@GJKDPMF@MARK_SPACECOMBINING?5@
CONST	SEGMENT
??_C@_0BF@GJKDPMF@MARK_SPACECOMBINING?5@ DB 'MARK_SPACECOMBINING ', 00H ; `string'
CONST	ENDS
;	COMDAT ??_C@_0BB@FIDLEIEL@MARK_NONSPACING?5@
CONST	SEGMENT
??_C@_0BB@FIDLEIEL@MARK_NONSPACING?5@ DB 'MARK_NONSPACING ', 00H ; `string'
CONST	ENDS
;	COMDAT ??_C@_05BACHLHLN@MARK?5@
CONST	SEGMENT
??_C@_05BACHLHLN@MARK?5@ DB 'MARK ', 00H		; `string'
CONST	ENDS
;	COMDAT ??_C@_0P@ONCGNHEJ@LETTER_OTHERS?5@
CONST	SEGMENT
??_C@_0P@ONCGNHEJ@LETTER_OTHERS?5@ DB 'LETTER_OTHERS ', 00H ; `string'
CONST	ENDS
;	COMDAT ??_C@_0BB@MHDADLFE@LETTER_MODIFIER?5@
CONST	SEGMENT
??_C@_0BB@MHDADLFE@LETTER_MODIFIER?5@ DB 'LETTER_MODIFIER ', 00H ; `string'
CONST	ENDS
;	COMDAT ??_C@_0BC@FGJDLGPN@LETTER_TITLECASE?5@
CONST	SEGMENT
??_C@_0BC@FGJDLGPN@LETTER_TITLECASE?5@ DB 'LETTER_TITLECASE ', 00H ; `string'
CONST	ENDS
;	COMDAT ??_C@_0BC@MLADGGJK@LETTER_LOWERCASE?5@
CONST	SEGMENT
??_C@_0BC@MLADGGJK@LETTER_LOWERCASE?5@ DB 'LETTER_LOWERCASE ', 00H ; `string'
CONST	ENDS
;	COMDAT ??_C@_0BC@KMHMCLHI@LETTER_UPPERCASE?5@
CONST	SEGMENT
??_C@_0BC@KMHMCLHI@LETTER_UPPERCASE?5@ DB 'LETTER_UPPERCASE ', 00H ; `string'
CONST	ENDS
;	COMDAT ??_C@_07POCGPIHD@LETTER?5@
CONST	SEGMENT
??_C@_07POCGPIHD@LETTER?5@ DB 'LETTER ', 00H		; `string'
CONST	ENDS
;	COMDAT ??_C@_0N@MCPFODOD@notrealchar?5@
CONST	SEGMENT
??_C@_0N@MCPFODOD@notrealchar?5@ DB 'notrealchar ', 00H	; `string'
CONST	ENDS
;	COMDAT ??_C@_09MOCDMJPB@realchar?5@
CONST	SEGMENT
??_C@_09MOCDMJPB@realchar?5@ DB 'realchar ', 00H	; `string'
CONST	ENDS
;	COMDAT ??_C@_0M@EDJHICHL@notdecimal?5@
CONST	SEGMENT
??_C@_0M@EDJHICHL@notdecimal?5@ DB 'notdecimal ', 00H	; `string'
CONST	ENDS
;	COMDAT ??_C@_08CDKGKILA@decimal?5@
CONST	SEGMENT
??_C@_08CDKGKILA@decimal?5@ DB 'decimal ', 00H		; `string'
CONST	ENDS
;	COMDAT ??_C@_0N@GALMIDBF@notnamechar?5@
CONST	SEGMENT
??_C@_0N@GALMIDBF@notnamechar?5@ DB 'notnamechar ', 00H	; `string'
CONST	ENDS
;	COMDAT ??_C@_09GMGKKJAH@namechar?5@
CONST	SEGMENT
??_C@_09GMGKKJAH@namechar?5@ DB 'namechar ', 00H	; `string'
CONST	ENDS
;	COMDAT ??_C@_0N@PKALLFNP@notinitname?5@
CONST	SEGMENT
??_C@_0N@PKALLFNP@notinitname?5@ DB 'notinitname ', 00H	; `string'
CONST	ENDS
;	COMDAT ??_C@_09PGNNJPMN@initname?5@
CONST	SEGMENT
??_C@_09PGNNJPMN@initname?5@ DB 'initname ', 00H	; `string'
CONST	ENDS
;	COMDAT ??_C@_09PIGAJOFL@notspace?5@
CONST	SEGMENT
??_C@_09PIGAJOFL@notspace?5@ DB 'notspace ', 00H	; `string'
CONST	ENDS
;	COMDAT ??_C@_09IFBFMEEE@anyspace?5@
CONST	SEGMENT
??_C@_09IFBFMEEE@anyspace?5@ DB 'anyspace ', 00H	; `string'
CONST	ENDS
;	COMDAT ??_C@_08IIDGBAEF@anychar?5@
CONST	SEGMENT
??_C@_08IIDGBAEF@anychar?5@ DB 'anychar ', 00H		; `string'
CONST	ENDS
;	COMDAT ??_C@_07HBAIICBM@string?5@
CONST	SEGMENT
??_C@_07HBAIICBM@string?5@ DB 'string ', 00H		; `string'
CONST	ENDS
;	COMDAT ??_C@_08BABENLJO@subexpr?5@
CONST	SEGMENT
??_C@_08BABENLJO@subexpr?5@ DB 'subexpr ', 00H		; `string'
CONST	ENDS
;	COMDAT ??_C@_07IPEOMBMH@ranges?5@
CONST	SEGMENT
??_C@_07IPEOMBMH@ranges?5@ DB 'ranges ', 00H		; `string'
CONST	ENDS
;	COMDAT ??_C@_08DFHMJFEK@charval?5@
CONST	SEGMENT
??_C@_08DFHMJFEK@charval?5@ DB 'charval ', 00H		; `string'
CONST	ENDS
;	COMDAT ??_C@_08LJGDJFJP@epsilon?5@
CONST	SEGMENT
??_C@_08LJGDJFJP@epsilon?5@ DB 'epsilon ', 00H		; `string'
CONST	ENDS
;	COMDAT ??_C@_0BB@CKELLPME@allocating?5state@
CONST	SEGMENT
??_C@_0BB@CKELLPME@allocating?5state@ DB 'allocating state', 00H ; `string'
CONST	ENDS
;	COMDAT ??_C@_0N@ECMBACNP@copying?5atom@
CONST	SEGMENT
??_C@_0N@ECMBACNP@copying?5atom@ DB 'copying atom', 00H	; `string'
CONST	ENDS
;	COMDAT ??_C@_0BA@JCPCIFNM@allocating?5atom@
CONST	SEGMENT
??_C@_0BA@JCPCIFNM@allocating?5atom@ DB 'allocating atom', 00H ; `string'
CONST	ENDS
;	COMDAT ??_C@_0BB@PBEHJOM@allocating?5range@
CONST	SEGMENT
??_C@_0BB@PBEHJOM@allocating?5range@ DB 'allocating range', 00H ; `string'
CONST	ENDS
;	COMDAT ??_C@_0BB@FJPDMDM@compiling?5regexp@
CONST	SEGMENT
??_C@_0BB@FJPDMDM@compiling?5regexp@ DB 'compiling regexp', 00H ; `string'
CONST	ENDS
;	COMDAT ??_C@_0BH@CFFLONMP@failed?5to?5compile?3?5?$CFs?6@
CONST	SEGMENT
??_C@_0BH@CFFLONMP@failed?5to?5compile?3?5?$CFs?6@ DB 'failed to compile:'
	DB	' %s', 0aH, 00H				; `string'
CONST	ENDS
;	COMDAT ??_C@_0BP@DJFHNAOK@Memory?5allocation?5failed?5?3?5?$CFs?6@
CONST	SEGMENT
??_C@_0BP@DJFHNAOK@Memory?5allocation?5failed?5?3?5?$CFs?6@ DB 'Memory al'
	DB	'location failed : %s', 0aH, 00H		; `string'
CONST	ENDS
; Function compile flags: /Odt
;	COMDAT __JustMyCode_Default
_TEXT	SEGMENT
__JustMyCode_Default PROC				; COMDAT
	push	ebp
	mov	ebp, esp
	pop	ebp
	ret	0
__JustMyCode_Default ENDP
_TEXT	ENDS
; Function compile flags: /Ogtp
; File c:\users\dag\documents\_clients\codeproject authors group\windows on arm\libxml2\libxml2-2.9.9\xmlregexp.c
;	COMDAT _xmlExpDumpInt
_TEXT	SEGMENT
_rep$1 = -40						; size = 40
_buf$ = 8						; size = 4
_expr$ = 12						; size = 4
_glob$ = 16						; size = 4
_xmlExpDumpInt PROC					; COMDAT

; 8043 : xmlExpDumpInt(xmlBufferPtr buf, xmlExpNodePtr expr, int glob) {

	push	ebp
	mov	ebp, esp
	sub	esp, 40					; 00000028H
	mov	ecx, OFFSET __F6DD4902_xmlregexp@c
	push	edi
	call	@__CheckForDebuggerJustMyCode@4
	mov	edi, DWORD PTR _expr$[ebp]
	test	edi, edi
	je	$LN38@xmlExpDump

; 8044 :     xmlExpNodePtr c;
; 8045 : 
; 8046 :     if (expr == NULL) return;
; 8047 :     if (glob) xmlBufferWriteChar(buf, "(");

	cmp	DWORD PTR _glob$[ebp], 0
	push	esi
	mov	esi, DWORD PTR _buf$[ebp]
	je	SHORT $LN5@xmlExpDump
	push	OFFSET ??_C@_01ODHLEDKK@?$CI@
	push	esi
	call	_xmlBufferWriteChar
	add	esp, 8
$LN5@xmlExpDump:

; 8048 :     switch (expr->type) {

	movzx	eax, BYTE PTR [edi]
	cmp	eax, 5
	ja	$LN37@xmlExpDump
	jmp	DWORD PTR $LN48@xmlExpDump[eax*4]
$LN6@xmlExpDump:

; 8049 :         case XML_EXP_EMPTY:
; 8050 : 	    xmlBufferWriteChar(buf, "empty");

	push	OFFSET ??_C@_05LBJMNBOG@empty@
	push	esi
	call	_xmlBufferWriteChar

; 8051 : 	    break;

	jmp	$LN45@xmlExpDump
$LN7@xmlExpDump:

; 8052 :         case XML_EXP_FORBID:
; 8053 : 	    xmlBufferWriteChar(buf, "forbidden");

	push	OFFSET ??_C@_09PDGFMGED@forbidden@
	push	esi
	call	_xmlBufferWriteChar

; 8054 : 	    break;

	jmp	$LN45@xmlExpDump
$LN8@xmlExpDump:

; 8055 :         case XML_EXP_ATOM:
; 8056 : 	    xmlBufferWriteCHAR(buf, expr->exp_str);

	push	DWORD PTR [edi+20]
	push	esi
	call	_xmlBufferWriteCHAR

; 8057 : 	    break;

	jmp	$LN45@xmlExpDump
$LN9@xmlExpDump:

; 8058 :         case XML_EXP_SEQ:
; 8059 : 	    c = expr->exp_left;

	mov	ecx, DWORD PTR [edi+12]

; 8060 : 	    if ((c->type == XML_EXP_SEQ) || (c->type == XML_EXP_OR))

	mov	al, BYTE PTR [ecx]
	cmp	al, 3
	je	SHORT $LN12@xmlExpDump
	cmp	al, 4
	je	SHORT $LN12@xmlExpDump

; 8062 : 	    else
; 8063 : 	        xmlExpDumpInt(buf, c, 0);

	xor	eax, eax
	jmp	SHORT $LN11@xmlExpDump
$LN12@xmlExpDump:

; 8061 : 	        xmlExpDumpInt(buf, c, 1);

	mov	eax, 1
$LN11@xmlExpDump:

; 8064 : 	    xmlBufferWriteChar(buf, " , ");

	push	eax
	push	ecx
	push	esi
	call	_xmlExpDumpInt
	push	OFFSET ??_C@_03NKFKBEPL@?5?0?5@
$LN46@xmlExpDump:

; 8114 :     }
; 8115 :     if (glob)

	push	esi
	call	_xmlBufferWriteChar
	mov	ecx, DWORD PTR [edi+20]
	add	esp, 20					; 00000014H
	mov	al, BYTE PTR [ecx]
	cmp	al, 3
	je	SHORT $LN15@xmlExpDump
	cmp	al, 4
	je	SHORT $LN15@xmlExpDump
	xor	eax, eax
	push	eax
	push	ecx
	push	esi
	call	_xmlExpDumpInt
	add	esp, 12					; 0000000cH
	jmp	$LN2@xmlExpDump
$LN15@xmlExpDump:
	mov	eax, 1
	push	eax
	push	ecx
	push	esi
	call	_xmlExpDumpInt
	add	esp, 12					; 0000000cH
	jmp	$LN2@xmlExpDump
$LN16@xmlExpDump:

; 8065 : 	    c = expr->exp_right;
; 8066 : 	    if ((c->type == XML_EXP_SEQ) || (c->type == XML_EXP_OR))
; 8067 : 	        xmlExpDumpInt(buf, c, 1);
; 8068 : 	    else
; 8069 : 	        xmlExpDumpInt(buf, c, 0);
; 8070 :             break;
; 8071 :         case XML_EXP_OR:
; 8072 : 	    c = expr->exp_left;

	mov	ecx, DWORD PTR [edi+12]

; 8073 : 	    if ((c->type == XML_EXP_SEQ) || (c->type == XML_EXP_OR))

	mov	al, BYTE PTR [ecx]
	cmp	al, 3
	je	SHORT $LN19@xmlExpDump
	cmp	al, 4
	je	SHORT $LN19@xmlExpDump

; 8075 : 	    else
; 8076 : 	        xmlExpDumpInt(buf, c, 0);

	xor	eax, eax

; 8077 : 	    xmlBufferWriteChar(buf, " | ");

	push	eax
	push	ecx
	push	esi
	call	_xmlExpDumpInt
	push	OFFSET ??_C@_03LGOGDKEL@?5?$HM?5@

; 8078 : 	    c = expr->exp_right;
; 8079 : 	    if ((c->type == XML_EXP_SEQ) || (c->type == XML_EXP_OR))
; 8080 : 	        xmlExpDumpInt(buf, c, 1);
; 8081 : 	    else
; 8082 : 	        xmlExpDumpInt(buf, c, 0);

	jmp	SHORT $LN46@xmlExpDump
$LN19@xmlExpDump:

; 8074 : 	        xmlExpDumpInt(buf, c, 1);

	mov	eax, 1

; 8077 : 	    xmlBufferWriteChar(buf, " | ");

	push	eax
	push	ecx
	push	esi
	call	_xmlExpDumpInt
	push	OFFSET ??_C@_03LGOGDKEL@?5?$HM?5@

; 8078 : 	    c = expr->exp_right;
; 8079 : 	    if ((c->type == XML_EXP_SEQ) || (c->type == XML_EXP_OR))
; 8080 : 	        xmlExpDumpInt(buf, c, 1);
; 8081 : 	    else
; 8082 : 	        xmlExpDumpInt(buf, c, 0);

	jmp	SHORT $LN46@xmlExpDump
$LN23@xmlExpDump:

; 8083 :             break;
; 8084 :         case XML_EXP_COUNT: {
; 8085 : 	    char rep[40];
; 8086 : 
; 8087 : 	    c = expr->exp_left;

	mov	ecx, DWORD PTR [edi+12]

; 8088 : 	    if ((c->type == XML_EXP_SEQ) || (c->type == XML_EXP_OR))

	mov	al, BYTE PTR [ecx]
	cmp	al, 3
	je	SHORT $LN26@xmlExpDump
	cmp	al, 4
	je	SHORT $LN26@xmlExpDump

; 8090 : 	    else
; 8091 : 	        xmlExpDumpInt(buf, c, 0);

	xor	eax, eax
	jmp	SHORT $LN25@xmlExpDump
$LN26@xmlExpDump:

; 8089 : 	        xmlExpDumpInt(buf, c, 1);

	mov	eax, 1
$LN25@xmlExpDump:

; 8092 : 	    if ((expr->exp_min == 0) && (expr->exp_max == 1)) {

	push	eax
	push	ecx
	push	esi
	call	_xmlExpDumpInt
	mov	eax, DWORD PTR [edi+20]
	add	esp, 12					; 0000000cH
	test	eax, eax
	jne	SHORT $LN41@xmlExpDump
	mov	ecx, DWORD PTR [edi+24]
	cmp	ecx, 1
	jne	SHORT $LN43@xmlExpDump

; 8107 : 	    }
; 8108 : 	    rep[39] = 0;

	mov	BYTE PTR _rep$1[ebp+39], al

; 8109 : 	    xmlBufferWriteChar(buf, rep);

	lea	eax, DWORD PTR _rep$1[ebp]
	push	eax
	push	esi
	mov	WORD PTR _rep$1[ebp], 63		; 0000003fH
	call	_xmlBufferWriteChar

; 8110 : 	    break;

	jmp	$LN45@xmlExpDump
$LN43@xmlExpDump:

; 8093 : 		rep[0] = '?';
; 8094 : 		rep[1] = 0;
; 8095 : 	    } else if ((expr->exp_min == 0) && (expr->exp_max == -1)) {

	cmp	ecx, -1
	jne	SHORT $LN42@xmlExpDump

; 8109 : 	    xmlBufferWriteChar(buf, rep);

	lea	eax, DWORD PTR _rep$1[ebp]
	mov	WORD PTR _rep$1[ebp], 42		; 0000002aH
	push	eax
	push	esi
	mov	BYTE PTR _rep$1[ebp+39], 0
	call	_xmlBufferWriteChar

; 8110 : 	    break;

	jmp	$LN45@xmlExpDump
$LN41@xmlExpDump:

; 8096 : 		rep[0] = '*';
; 8097 : 		rep[1] = 0;
; 8098 : 	    } else if ((expr->exp_min == 1) && (expr->exp_max == -1)) {

	cmp	eax, 1
	jne	SHORT $LN42@xmlExpDump
	cmp	DWORD PTR [edi+24], -1
	jne	SHORT $LN42@xmlExpDump

; 8109 : 	    xmlBufferWriteChar(buf, rep);

	lea	eax, DWORD PTR _rep$1[ebp]
	mov	WORD PTR _rep$1[ebp], 43		; 0000002bH
	push	eax
	push	esi
	mov	BYTE PTR _rep$1[ebp+39], 0
	call	_xmlBufferWriteChar

; 8110 : 	    break;

	jmp	$LN45@xmlExpDump
$LN42@xmlExpDump:

; 8099 : 		rep[0] = '+';
; 8100 : 		rep[1] = 0;
; 8101 : 	    } else if (expr->exp_max == expr->exp_min) {

	mov	ecx, DWORD PTR [edi+24]
	cmp	ecx, eax
	jne	SHORT $LN33@xmlExpDump

; 8102 : 	        snprintf(rep, 39, "{%d}", expr->exp_min);

	push	eax
	push	OFFSET ??_C@_04PFHMOCHH@?$HL?$CFd?$HN@
	lea	eax, DWORD PTR _rep$1[ebp]
	push	39					; 00000027H
	push	eax
	call	_snprintf
	add	esp, 16					; 00000010H

; 8107 : 	    }
; 8108 : 	    rep[39] = 0;

	mov	BYTE PTR _rep$1[ebp+39], 0

; 8109 : 	    xmlBufferWriteChar(buf, rep);

	lea	eax, DWORD PTR _rep$1[ebp]
	push	eax
	push	esi
	call	_xmlBufferWriteChar

; 8110 : 	    break;

	jmp	SHORT $LN45@xmlExpDump
$LN33@xmlExpDump:

; 8103 : 	    } else if (expr->exp_max < 0) {

	test	ecx, ecx
	jns	SHORT $LN35@xmlExpDump

; 8104 : 	        snprintf(rep, 39, "{%d,inf}", expr->exp_min);

	push	eax
	push	OFFSET ??_C@_08EMBBFCPF@?$HL?$CFd?0inf?$HN@
	lea	eax, DWORD PTR _rep$1[ebp]
	push	39					; 00000027H
	push	eax
	call	_snprintf
	add	esp, 16					; 00000010H

; 8107 : 	    }
; 8108 : 	    rep[39] = 0;

	mov	BYTE PTR _rep$1[ebp+39], 0

; 8109 : 	    xmlBufferWriteChar(buf, rep);

	lea	eax, DWORD PTR _rep$1[ebp]
	push	eax
	push	esi
	call	_xmlBufferWriteChar

; 8110 : 	    break;

	jmp	SHORT $LN45@xmlExpDump
$LN35@xmlExpDump:

; 8105 : 	    } else {
; 8106 : 	        snprintf(rep, 39, "{%d,%d}", expr->exp_min, expr->exp_max);

	push	ecx
	push	eax
	push	OFFSET ??_C@_07CDJFAPGJ@?$HL?$CFd?0?$CFd?$HN@
	lea	eax, DWORD PTR _rep$1[ebp]
	push	39					; 00000027H
	push	eax
	call	_snprintf
	add	esp, 20					; 00000014H

; 8107 : 	    }
; 8108 : 	    rep[39] = 0;

	mov	BYTE PTR _rep$1[ebp+39], 0

; 8109 : 	    xmlBufferWriteChar(buf, rep);

	lea	eax, DWORD PTR _rep$1[ebp]
	push	eax
	push	esi
	call	_xmlBufferWriteChar

; 8110 : 	    break;

	jmp	SHORT $LN45@xmlExpDump
$LN37@xmlExpDump:

; 8111 : 	}
; 8112 : 	default:
; 8113 : 	    fprintf(stderr, "Error in tree\n");

	push	OFFSET ??_C@_0P@OCJKDKLA@Error?5in?5tree?6@
	push	2
	call	DWORD PTR __imp____acrt_iob_func
	add	esp, 4
	push	eax
	call	_fprintf
$LN45@xmlExpDump:

; 8114 :     }
; 8115 :     if (glob)

	add	esp, 8
$LN2@xmlExpDump:
	cmp	DWORD PTR _glob$[ebp], 0
	je	SHORT $LN44@xmlExpDump

; 8116 :         xmlBufferWriteChar(buf, ")");

	push	OFFSET ??_C@_01PKGAHCOL@?$CJ@
	push	esi
	call	_xmlBufferWriteChar
	add	esp, 8
$LN44@xmlExpDump:
	pop	esi
$LN38@xmlExpDump:
	pop	edi

; 8117 : }

	mov	esp, ebp
	pop	ebp
	ret	0
$LN48@xmlExpDump:
	DD	$LN6@xmlExpDump
	DD	$LN7@xmlExpDump
	DD	$LN8@xmlExpDump
	DD	$LN9@xmlExpDump
	DD	$LN16@xmlExpDump
	DD	$LN23@xmlExpDump
_xmlExpDumpInt ENDP
_TEXT	ENDS
; Function compile flags: /Ogtp
; File c:\users\dag\documents\_clients\codeproject authors group\windows on arm\libxml2\libxml2-2.9.9\xmlregexp.c
;	COMDAT _xmlExpParseSeq
_TEXT	SEGMENT
_ctxt$ = 8						; size = 4
_xmlExpParseSeq PROC					; COMDAT

; 7970 : xmlExpParseSeq(xmlExpCtxtPtr ctxt) {

	push	ebp
	mov	ebp, esp
	push	esi
	push	edi
	mov	ecx, OFFSET __F6DD4902_xmlregexp@c
	call	@__CheckForDebuggerJustMyCode@4
	mov	esi, DWORD PTR _ctxt$[ebp]
	push	esi
	call	_xmlExpParseOr
	mov	ecx, DWORD PTR [esi+28]
	add	esp, 4
	mov	edi, eax
$LL2@xmlExpPars:

; 7971 :     xmlExpNodePtr ret, right;
; 7972 : 
; 7973 :     ret = xmlExpParseOr(ctxt);
; 7974 :     SKIP_BLANKS

	mov	dl, BYTE PTR [ecx]
	cmp	dl, 32					; 00000020H
	je	SHORT $LN6@xmlExpPars
	cmp	dl, 10					; 0000000aH
	je	SHORT $LN6@xmlExpPars
	cmp	dl, 13					; 0000000dH
	je	SHORT $LN6@xmlExpPars
	cmp	dl, 9
	jne	SHORT $LN12@xmlExpPars
$LN6@xmlExpPars:
	inc	ecx
	mov	DWORD PTR [esi+28], ecx
	jmp	SHORT $LL2@xmlExpPars
$LN12@xmlExpPars:

; 7975 :     while (CUR == '|') {

	cmp	dl, 124					; 0000007cH
	jne	SHORT $LN5@xmlExpPars
$LL4@xmlExpPars:

; 7976 :         NEXT

	lea	eax, DWORD PTR [ecx+1]

; 7977 : 	right = xmlExpParseOr(ctxt);

	push	esi
	mov	DWORD PTR [esi+28], eax
	call	_xmlExpParseOr
	add	esp, 4

; 7978 : 	if (right == NULL) {

	test	eax, eax
	je	SHORT $LN13@xmlExpPars

; 7980 : 	    return(NULL);
; 7981 : 	}
; 7982 : 	ret = xmlExpHashGetEntry(ctxt, XML_EXP_OR, ret, right, NULL, 0, 0);

	push	0
	push	0
	push	0
	push	eax
	push	edi
	push	4
	push	esi
	call	_xmlExpHashGetEntry
	mov	edi, eax
	add	esp, 28					; 0000001cH

; 7983 : 	if (ret == NULL)

	test	edi, edi
	je	SHORT $LN14@xmlExpPars

; 7975 :     while (CUR == '|') {

	mov	ecx, DWORD PTR [esi+28]
	cmp	BYTE PTR [ecx], 124			; 0000007cH
	je	SHORT $LL4@xmlExpPars
$LN5@xmlExpPars:

; 7984 : 	    return(NULL);
; 7985 :     }
; 7986 :     return(ret);

	mov	eax, edi
	pop	edi

; 7987 : }

	pop	esi
	pop	ebp
	ret	0
$LN13@xmlExpPars:

; 7979 : 	    xmlExpFree(ctxt, ret);

	push	edi
	push	esi
	call	_xmlExpFree
	add	esp, 8
$LN14@xmlExpPars:

; 7987 : }

	pop	edi
	xor	eax, eax
	pop	esi
	pop	ebp
	ret	0
_xmlExpParseSeq ENDP
_TEXT	ENDS
; Function compile flags: /Ogtp
; File c:\users\dag\documents\_clients\codeproject authors group\windows on arm\libxml2\libxml2-2.9.9\xmlregexp.c
;	COMDAT _xmlExpParseOr
_TEXT	SEGMENT
tv3237 = 8						; size = 4
tv3230 = 8						; size = 4
tv3227 = 8						; size = 4
_ctxt$ = 8						; size = 4
_xmlExpParseOr PROC					; COMDAT

; 7893 : xmlExpParseOr(xmlExpCtxtPtr ctxt) {

	push	ebp
	mov	ebp, esp
	push	ebx
	push	esi
	push	edi
	mov	ecx, OFFSET __F6DD4902_xmlregexp@c
	call	@__CheckForDebuggerJustMyCode@4
	mov	esi, DWORD PTR _ctxt$[ebp]
	mov	ebx, DWORD PTR [esi+28]
$LN491@xmlExpPars:

; 7894 :     const char *base;
; 7895 :     xmlExpNodePtr ret;
; 7896 :     const xmlChar *val;
; 7897 : 
; 7898 :     SKIP_BLANKS

	mov	al, BYTE PTR [ebx]
	mov	ecx, ebx
	cmp	al, 32					; 00000020H
	je	SHORT $LN24@xmlExpPars
	cmp	al, 10					; 0000000aH
	je	SHORT $LN24@xmlExpPars
	cmp	al, 13					; 0000000dH
	je	SHORT $LN24@xmlExpPars
	cmp	al, 9
	jne	SHORT $LN3@xmlExpPars
$LN24@xmlExpPars:
	inc	ebx
	mov	DWORD PTR [esi+28], ebx
	jmp	SHORT $LN491@xmlExpPars
$LN3@xmlExpPars:

; 7899 :     base = ctxt->cur;
; 7900 :     if (*ctxt->cur == '(') {

	cmp	al, 40					; 00000028H
	jne	$LN357@xmlExpPars

; 7901 :         NEXT

	lea	eax, DWORD PTR [ebx+1]

; 7902 : 	ret = xmlExpParseExpr(ctxt);

	push	esi
	mov	DWORD PTR [esi+28], eax
	call	_xmlExpParseExpr
	mov	ecx, DWORD PTR [esi+28]
	add	esp, 4
	mov	edi, eax
	npad	4
$LL4@xmlExpPars:

; 7903 : 	SKIP_BLANKS

	mov	al, BYTE PTR [ecx]
	cmp	al, 32					; 00000020H
	je	SHORT $LN26@xmlExpPars
	cmp	al, 10					; 0000000aH
	je	SHORT $LN26@xmlExpPars
	cmp	al, 13					; 0000000dH
	je	SHORT $LN26@xmlExpPars
	cmp	al, 9
	jne	SHORT $LN5@xmlExpPars
$LN26@xmlExpPars:
	inc	ecx
	mov	DWORD PTR [esi+28], ecx
	jmp	SHORT $LL4@xmlExpPars
$LN5@xmlExpPars:

; 7904 : 	if (*ctxt->cur != ')') {

	cmp	al, 41					; 00000029H
	je	SHORT $LN27@xmlExpPars

; 7905 : 	    fprintf(stderr, "unbalanced '(' : %s\n", base);

	push	ebx
	push	OFFSET ??_C@_0BF@FNELPLND@unbalanced?5?8?$CI?8?5?3?5?$CFs?6@
	push	2
	call	DWORD PTR __imp____acrt_iob_func
	add	esp, 4
	push	eax
	call	_fprintf

; 7906 : 	    xmlExpFree(ctxt, ret);

	push	edi
	push	esi
	call	_xmlExpFree
	add	esp, 20					; 00000014H
$LN442@xmlExpPars:

; 7966 : }

	pop	edi
	pop	esi
	xor	eax, eax
	pop	ebx
	pop	ebp
	ret	0
$LN27@xmlExpPars:

; 7907 : 	    return(NULL);
; 7908 : 	}
; 7909 : 	NEXT;
; 7910 : 	SKIP_BLANKS

	inc	ecx
	mov	DWORD PTR [esi+28], ecx
	mov	al, BYTE PTR [ecx]
	cmp	al, 32					; 00000020H
	je	SHORT $LN27@xmlExpPars
	cmp	al, 10					; 0000000aH
	je	SHORT $LN27@xmlExpPars
	cmp	al, 13					; 0000000dH
	je	SHORT $LN27@xmlExpPars
	cmp	al, 9
	je	SHORT $LN27@xmlExpPars
$parse_quantifier$493:

; 7924 : parse_quantifier:
; 7925 :     if (CUR == '{') {

	cmp	al, 123					; 0000007bH
	jne	$LN32@xmlExpPars

; 7926 :         int min, max;
; 7927 : 
; 7928 :         NEXT

	lea	eax, DWORD PTR [ecx+1]

; 7929 : 	min = xmlExpParseNumber(ctxt);

	push	esi
	mov	DWORD PTR [esi+28], eax
	call	_xmlExpParseNumber
	mov	ebx, eax
	add	esp, 4

; 7930 : 	if (min < 0) {

	test	ebx, ebx
	js	$LN441@xmlExpPars
	mov	eax, DWORD PTR [esi+28]
	npad	2
$LL12@xmlExpPars:

; 7931 : 	    xmlExpFree(ctxt, ret);
; 7932 : 	    return(NULL);
; 7933 : 	}
; 7934 : 	SKIP_BLANKS

	mov	cl, BYTE PTR [eax]
	cmp	cl, 32					; 00000020H
	je	SHORT $LN35@xmlExpPars
	cmp	cl, 10					; 0000000aH
	je	SHORT $LN35@xmlExpPars
	cmp	cl, 13					; 0000000dH
	je	SHORT $LN35@xmlExpPars
	cmp	cl, 9
	jne	$LN13@xmlExpPars
$LN35@xmlExpPars:
	inc	eax
	mov	DWORD PTR [esi+28], eax
	jmp	SHORT $LL12@xmlExpPars
$LN357@xmlExpPars:

; 7911 : 	goto parse_quantifier;
; 7912 :     }
; 7913 :     while ((CUR != 0) && (!(IS_BLANK(CUR))) && (CUR != '(') &&
; 7914 :            (CUR != ')') && (CUR != '|') && (CUR != ',') && (CUR != '{') &&
; 7915 : 	   (CUR != '*') && (CUR != '+') && (CUR != '?') && (CUR != '}'))

	test	al, al
	je	SHORT $LN483@xmlExpPars
	mov	edi, ebx
$LL8@xmlExpPars:
	mov	edx, ecx
	cmp	al, 32					; 00000020H
	je	SHORT $LN483@xmlExpPars
	cmp	al, 10					; 0000000aH
	je	SHORT $LN483@xmlExpPars
	cmp	al, 13					; 0000000dH
	je	SHORT $LN483@xmlExpPars
	cmp	al, 9
	je	SHORT $LN483@xmlExpPars
	cmp	al, 40					; 00000028H
	je	SHORT $LN483@xmlExpPars
	cmp	al, 41					; 00000029H
	je	SHORT $LN483@xmlExpPars
	cmp	al, 124					; 0000007cH
	je	SHORT $LN483@xmlExpPars
	cmp	al, 44					; 0000002cH
	je	SHORT $LN483@xmlExpPars
	cmp	al, 123					; 0000007bH
	je	SHORT $LN483@xmlExpPars
	cmp	al, 42					; 0000002aH
	je	SHORT $LN483@xmlExpPars
	cmp	al, 43					; 0000002bH
	je	SHORT $LN483@xmlExpPars
	cmp	al, 63					; 0000003fH
	je	SHORT $LN483@xmlExpPars
	cmp	al, 125					; 0000007dH
	je	SHORT $LN483@xmlExpPars

; 7916 : 	NEXT;

	lea	ecx, DWORD PTR [edi+1]
	mov	DWORD PTR [esi+28], ecx
	mov	edi, ecx
	mov	al, BYTE PTR [ecx]
	test	al, al
	jne	SHORT $LL8@xmlExpPars
$LN483@xmlExpPars:

; 7917 :     val = xmlDictLookup(ctxt->dict, BAD_CAST base, ctxt->cur - base);

	sub	ecx, ebx
	push	ecx
	push	ebx
	push	DWORD PTR [esi]
	call	_xmlDictLookup
	add	esp, 12					; 0000000cH

; 7918 :     if (val == NULL)

	test	eax, eax
	je	$LN442@xmlExpPars

; 7919 :         return(NULL);
; 7920 :     ret = xmlExpHashGetEntry(ctxt, XML_EXP_ATOM, NULL, NULL, val, 0, 0);

	push	0
	push	0
	push	eax
	push	0
	push	0
	push	2
	push	esi
	call	_xmlExpHashGetEntry
	mov	edi, eax
	add	esp, 28					; 0000001cH

; 7921 :     if (ret == NULL)

	test	edi, edi
	je	$LN442@xmlExpPars
	npad	2
$LL10@xmlExpPars:

; 7922 :         return(NULL);
; 7923 :     SKIP_BLANKS

	mov	ecx, DWORD PTR [esi+28]
	mov	al, BYTE PTR [ecx]
	cmp	al, 32					; 00000020H
	je	SHORT $LN31@xmlExpPars
	cmp	al, 10					; 0000000aH
	je	SHORT $LN31@xmlExpPars
	cmp	al, 13					; 0000000dH
	je	SHORT $LN31@xmlExpPars
	cmp	al, 9
	jne	$parse_quantifier$493
$LN31@xmlExpPars:
	lea	eax, DWORD PTR [ecx+1]
	mov	DWORD PTR [esi+28], eax
	jmp	SHORT $LL10@xmlExpPars
$LN13@xmlExpPars:

; 7935 : 	if (CUR == ',') {

	cmp	cl, 44					; 0000002cH
	jne	SHORT $LN36@xmlExpPars

; 7936 : 	    NEXT

	inc	eax

; 7937 : 	    max = xmlExpParseNumber(ctxt);

	push	esi
	mov	DWORD PTR [esi+28], eax
	call	_xmlExpParseNumber
	mov	edx, eax
	add	esp, 4
	mov	eax, DWORD PTR [esi+28]
$LL14@xmlExpPars:

; 7938 : 	    SKIP_BLANKS

	mov	cl, BYTE PTR [eax]
	cmp	cl, 32					; 00000020H
	je	SHORT $LN38@xmlExpPars
	cmp	cl, 10					; 0000000aH
	je	SHORT $LN38@xmlExpPars
	cmp	cl, 13					; 0000000dH
	je	SHORT $LN38@xmlExpPars
	cmp	cl, 9
	jne	SHORT $LN37@xmlExpPars
$LN38@xmlExpPars:
	inc	eax
	mov	DWORD PTR [esi+28], eax
	jmp	SHORT $LL14@xmlExpPars
$LN36@xmlExpPars:

; 7939 : 	} else
; 7940 : 	    max = min;

	mov	edx, ebx
$LN37@xmlExpPars:

; 7941 : 	if (CUR != '}') {

	cmp	cl, 125					; 0000007dH
	jne	SHORT $LN441@xmlExpPars

; 7943 : 	    return(NULL);
; 7944 : 	}
; 7945 :         NEXT
; 7946 : 	ret = xmlExpHashGetEntry(ctxt, XML_EXP_COUNT, ret, NULL, NULL,

	push	edx
	push	ebx
	push	0
	push	0
	push	edi
	inc	eax
	push	5
	push	esi
	mov	DWORD PTR [esi+28], eax
	call	_xmlExpHashGetEntry
	mov	ecx, DWORD PTR [esi+28]
	add	esp, 28					; 0000001cH
	mov	edi, eax
$LL16@xmlExpPars:

; 7947 : 	                         min, max);
; 7948 : 	SKIP_BLANKS

	mov	al, BYTE PTR [ecx]
	cmp	al, 32					; 00000020H
	je	SHORT $LN40@xmlExpPars
	cmp	al, 10					; 0000000aH
	je	SHORT $LN40@xmlExpPars
	cmp	al, 13					; 0000000dH
	je	SHORT $LN40@xmlExpPars
	cmp	al, 9
	jne	$LN485@xmlExpPars
$LN40@xmlExpPars:
	inc	ecx
	mov	DWORD PTR [esi+28], ecx
	jmp	SHORT $LL16@xmlExpPars
$LN441@xmlExpPars:

; 7942 : 	    xmlExpFree(ctxt, ret);

	push	edi
	push	esi
	call	_xmlExpFree
	add	esp, 8

; 7966 : }

	xor	eax, eax
	pop	edi
	pop	esi
	pop	ebx
	pop	ebp
	ret	0
$LN32@xmlExpPars:

; 7949 :     } else if (CUR == '?') {

	cmp	al, 63					; 0000003fH
	jne	$LN41@xmlExpPars

; 7950 :         NEXT

	lea	eax, DWORD PTR [ecx+1]
	mov	DWORD PTR [esi+28], eax

; 6604 : 	kbase += left->key;

	mov	ax, WORD PTR [edi+2]
	inc	ax
	movzx	ebx, ax

; 6605 :     } else if (type == XML_EXP_OR) {
; 6606 :         /* Forbid reduction rules */
; 6607 :         if (left->type == XML_EXP_FORBID) {
; 6608 : 	    xmlExpFree(ctxt, left);
; 6609 : 	    return(right);
; 6610 : 	}
; 6611 :         if (right->type == XML_EXP_FORBID) {
; 6612 : 	    xmlExpFree(ctxt, right);
; 6613 : 	    return(left);
; 6614 : 	}
; 6615 : 
; 6616 :         /* OR reduction rule 1 */
; 6617 : 	/* a | a reduced to a */
; 6618 :         if (left == right) {
; 6619 : 	    left->ref--;
; 6620 : 	    return(left);
; 6621 : 	}
; 6622 :         /* OR canonicalization rule 1 */
; 6623 : 	/* linearize (a | b) | c into a | (b | c) */
; 6624 :         if ((left->type == XML_EXP_OR) && (right->type != XML_EXP_OR)) {
; 6625 : 	    xmlExpNodePtr tmp = left;
; 6626 :             left = right;
; 6627 : 	    right = tmp;
; 6628 : 	}
; 6629 :         /* OR reduction rule 2 */
; 6630 : 	/* a | (a | b) and b | (a | b) are reduced to a | b */
; 6631 :         if (right->type == XML_EXP_OR) {
; 6632 : 	    if ((left == right->exp_left) ||
; 6633 : 	        (left == right->exp_right)) {
; 6634 : 		xmlExpFree(ctxt, left);
; 6635 : 		return(right);
; 6636 : 	    }
; 6637 : 	}
; 6638 :         /* OR canonicalization rule 2 */
; 6639 : 	/* linearize (a | b) | c into a | (b | c) */
; 6640 :         if (left->type == XML_EXP_OR) {
; 6641 : 	    xmlExpNodePtr tmp;
; 6642 : 
; 6643 : 	    /* OR canonicalization rule 2 */
; 6644 : 	    if ((left->exp_right->type != XML_EXP_OR) &&
; 6645 : 	        (left->exp_right->key < left->exp_left->key)) {
; 6646 : 	        tmp = left->exp_right;
; 6647 : 		left->exp_right = left->exp_left;
; 6648 : 		left->exp_left = tmp;
; 6649 : 	    }
; 6650 : 	    left->exp_right->ref++;
; 6651 : 	    tmp = xmlExpHashGetEntry(ctxt, XML_EXP_OR, left->exp_right, right,
; 6652 : 	                             NULL, 0, 0);
; 6653 : 	    left->exp_left->ref++;
; 6654 : 	    tmp = xmlExpHashGetEntry(ctxt, XML_EXP_OR, left->exp_left, tmp,
; 6655 : 	                             NULL, 0, 0);
; 6656 : 
; 6657 : 	    xmlExpFree(ctxt, left);
; 6658 : 	    return(tmp);
; 6659 : 	}
; 6660 : 	if (right->type == XML_EXP_OR) {
; 6661 : 	    /* Ordering in the tree */
; 6662 : 	    /* C | (A | B) -> A | (B | C) */
; 6663 : 	    if (left->key > right->exp_right->key) {
; 6664 : 		xmlExpNodePtr tmp;
; 6665 : 		right->exp_right->ref++;
; 6666 : 		tmp = xmlExpHashGetEntry(ctxt, XML_EXP_OR, right->exp_right,
; 6667 : 		                         left, NULL, 0, 0);
; 6668 : 		right->exp_left->ref++;
; 6669 : 		tmp = xmlExpHashGetEntry(ctxt, XML_EXP_OR, right->exp_left,
; 6670 : 		                         tmp, NULL, 0, 0);
; 6671 : 		xmlExpFree(ctxt, right);
; 6672 : 		return(tmp);
; 6673 : 	    }
; 6674 : 	    /* Ordering in the tree */
; 6675 : 	    /* B | (A | C) -> A | (B | C) */
; 6676 : 	    if (left->key > right->exp_left->key) {
; 6677 : 		xmlExpNodePtr tmp;
; 6678 : 		right->exp_right->ref++;
; 6679 : 		tmp = xmlExpHashGetEntry(ctxt, XML_EXP_OR, left,
; 6680 : 		                         right->exp_right, NULL, 0, 0);
; 6681 : 		right->exp_left->ref++;
; 6682 : 		tmp = xmlExpHashGetEntry(ctxt, XML_EXP_OR, right->exp_left,
; 6683 : 		                         tmp, NULL, 0, 0);
; 6684 : 		xmlExpFree(ctxt, right);
; 6685 : 		return(tmp);
; 6686 : 	    }
; 6687 : 	}
; 6688 : 	/* we know both types are != XML_EXP_OR here */
; 6689 :         else if (left->key > right->key) {
; 6690 : 	    xmlExpNodePtr tmp = left;
; 6691 :             left = right;
; 6692 : 	    right = tmp;
; 6693 : 	}
; 6694 : 	kbase = xmlExpHashComputeKey(type, left, right);
; 6695 :     } else if (type == XML_EXP_SEQ) {
; 6696 :         /* Forbid reduction rules */
; 6697 :         if (left->type == XML_EXP_FORBID) {
; 6698 : 	    xmlExpFree(ctxt, right);
; 6699 : 	    return(left);
; 6700 : 	}
; 6701 :         if (right->type == XML_EXP_FORBID) {
; 6702 : 	    xmlExpFree(ctxt, left);
; 6703 : 	    return(right);
; 6704 : 	}
; 6705 :         /* Empty reduction rules */
; 6706 :         if (right->type == XML_EXP_EMPTY) {
; 6707 : 	    return(left);
; 6708 : 	}
; 6709 :         if (left->type == XML_EXP_EMPTY) {
; 6710 : 	    return(right);
; 6711 : 	}
; 6712 : 	kbase = xmlExpHashComputeKey(type, left, right);
; 6713 :     } else
; 6714 :         return(NULL);
; 6715 : 
; 6716 :     key = kbase % ctxt->size;

	mov	eax, ebx
	cdq
	idiv	DWORD PTR [esi+8]

; 6717 :     if (ctxt->table[key] != NULL) {

	mov	eax, DWORD PTR [esi+4]
	movzx	ecx, dx
	shl	ecx, 2
	mov	DWORD PTR tv3237[ebp], ecx
	mov	eax, DWORD PTR [ecx+eax]
	test	eax, eax
	je	SHORT $LN464@xmlExpPars
$LL71@xmlExpPars:

; 6720 : 	    if ((insert->key == kbase) &&

	cmp	WORD PTR [eax+2], bx
	jne	SHORT $LN69@xmlExpPars
	cmp	BYTE PTR [eax], 5
	jne	SHORT $LN69@xmlExpPars

; 6721 : 	        (insert->type == type)) {
; 6722 : 		if (type == XML_EXP_ATOM) {
; 6723 : 		    if (name == insert->exp_str) {
; 6724 : 			insert->ref++;
; 6725 : 			return(insert);
; 6726 : 		    }
; 6727 : 		} else if (type == XML_EXP_COUNT) {
; 6728 : 		    if ((insert->exp_min == min) && (insert->exp_max == max) &&

	cmp	DWORD PTR [eax+20], 0
	jne	SHORT $LN69@xmlExpPars
	cmp	DWORD PTR [eax+24], 1
	jne	SHORT $LN69@xmlExpPars
	cmp	DWORD PTR [eax+12], edi
	je	$LN368@xmlExpPars
$LN69@xmlExpPars:

; 6718 : 	for (insert = ctxt->table[key]; insert != NULL;
; 6719 : 	     insert = insert->next) {

	mov	eax, DWORD PTR [eax+16]
	test	eax, eax
	jne	SHORT $LL71@xmlExpPars
$LN464@xmlExpPars:

; 6545 :     if (ctxt->nb_nodes >= MAX_NODES)

	cmp	DWORD PTR [esi+16], 10000		; 00002710H
	jge	SHORT $LN423@xmlExpPars

; 6546 :         return(NULL);
; 6547 :     ret = (xmlExpNodePtr) xmlMalloc(sizeof(xmlExpNode));

	push	28					; 0000001cH
	call	DWORD PTR _xmlMalloc
	mov	ecx, eax
	add	esp, 4

; 6548 :     if (ret == NULL)

	test	ecx, ecx
	je	SHORT $LN423@xmlExpPars
	xorps	xmm0, xmm0

; 6549 :         return(NULL);
; 6550 :     memset(ret, 0, sizeof(xmlExpNode));

	movups	XMMWORD PTR [ecx], xmm0
	movq	QWORD PTR [ecx+16], xmm0
	mov	DWORD PTR [ecx+24], 0

; 6551 :     ret->type = type;

	mov	BYTE PTR [ecx], 5

; 6552 :     ret->next = NULL;
; 6553 :     ctxt->nb_nodes++;

	inc	DWORD PTR [esi+16]

; 6554 :     ctxt->nb_cons++;

	inc	DWORD PTR [esi+32]

; 6757 : 	    entry->info |= XML_EXP_NILABLE;

	or	BYTE PTR [ecx+1], 1
	mov	DWORD PTR [ecx+12], edi
	mov	WORD PTR [ecx+2], bx
	mov	DWORD PTR [ecx+20], 0
	mov	DWORD PTR [ecx+24], 1

; 6758 : 	if (max < 0)
; 6759 : 	    entry->c_max = -1;
; 6760 : 	else
; 6761 : 	    entry->c_max = max * entry->exp_left->c_max;

	mov	eax, DWORD PTR [edi+8]

; 6762 :     } else {
; 6763 : 	entry->exp_left = left;
; 6764 : 	entry->exp_right = right;
; 6765 : 	if (type == XML_EXP_OR) {
; 6766 : 	    if ((IS_NILLABLE(left)) || (IS_NILLABLE(right)))
; 6767 : 		entry->info |= XML_EXP_NILABLE;
; 6768 : 	    if ((entry->exp_left->c_max == -1) ||
; 6769 : 	        (entry->exp_right->c_max == -1))
; 6770 : 		entry->c_max = -1;
; 6771 : 	    else if (entry->exp_left->c_max > entry->exp_right->c_max)
; 6772 : 	        entry->c_max = entry->exp_left->c_max;
; 6773 : 	    else
; 6774 : 	        entry->c_max = entry->exp_right->c_max;
; 6775 : 	} else {
; 6776 : 	    if ((IS_NILLABLE(left)) && (IS_NILLABLE(right)))
; 6777 : 		entry->info |= XML_EXP_NILABLE;
; 6778 : 	    if ((entry->exp_left->c_max == -1) ||
; 6779 : 	        (entry->exp_right->c_max == -1))
; 6780 : 		entry->c_max = -1;
; 6781 : 	    else
; 6782 : 	        entry->c_max = entry->exp_left->c_max + entry->exp_right->c_max;
; 6783 : 	}
; 6784 :     }
; 6785 :     entry->ref = 1;
; 6786 :     if (ctxt->table[key] != NULL)

	mov	edi, DWORD PTR tv3237[ebp]
	mov	DWORD PTR [ecx+8], eax
	mov	DWORD PTR [ecx+4], 1
	mov	eax, DWORD PTR [esi+4]
	mov	edx, DWORD PTR [edi+eax]
	test	edx, edx
	je	SHORT $LN136@xmlExpPars

; 6787 :         entry->next = ctxt->table[key];

	mov	DWORD PTR [ecx+16], edx
	mov	eax, DWORD PTR [esi+4]
$LN136@xmlExpPars:

; 6788 : 
; 6789 :     ctxt->table[key] = entry;

	mov	DWORD PTR [eax+edi], ecx

; 6790 :     ctxt->nbElems++;
; 6791 : 
; 6792 :     return(entry);

	mov	edi, ecx
	inc	DWORD PTR [esi+12]
	jmp	SHORT $LL18@xmlExpPars
$LN368@xmlExpPars:

; 6729 : 		        (insert->exp_left == left)) {
; 6730 : 			insert->ref++;

	inc	DWORD PTR [eax+4]

; 6731 : 			left->ref--;

	dec	DWORD PTR [edi+4]

; 6732 : 			return(insert);

	mov	edi, eax
	jmp	SHORT $LL18@xmlExpPars
$LN423@xmlExpPars:

; 6733 : 		    }
; 6734 : 		} else if ((insert->exp_left == left) &&
; 6735 : 			   (insert->exp_right == right)) {
; 6736 : 		    insert->ref++;
; 6737 : 		    left->ref--;
; 6738 : 		    right->ref--;
; 6739 : 		    return(insert);
; 6740 : 		}
; 6741 : 	    }
; 6742 : 	}
; 6743 :     }
; 6744 : 
; 6745 :     entry = xmlExpNewNode(ctxt, type);
; 6746 :     if (entry == NULL)
; 6747 :         return(NULL);

	xor	edi, edi
	npad	2
$LL18@xmlExpPars:

; 7951 : 	ret = xmlExpHashGetEntry(ctxt, XML_EXP_COUNT, ret, NULL, NULL,
; 7952 : 	                         0, 1);
; 7953 : 	SKIP_BLANKS

	mov	ecx, DWORD PTR [esi+28]
	mov	al, BYTE PTR [ecx]
	cmp	al, 32					; 00000020H
	je	SHORT $LN43@xmlExpPars
	cmp	al, 10					; 0000000aH
	je	SHORT $LN43@xmlExpPars
	cmp	al, 13					; 0000000dH
	je	SHORT $LN43@xmlExpPars
	cmp	al, 9
	jne	$LN485@xmlExpPars
$LN43@xmlExpPars:
	lea	eax, DWORD PTR [ecx+1]
	mov	DWORD PTR [esi+28], eax
	jmp	SHORT $LL18@xmlExpPars
$LN41@xmlExpPars:

; 7954 :     } else if (CUR == '+') {

	cmp	al, 43					; 0000002bH
	jne	$LN44@xmlExpPars

; 7955 :         NEXT

	lea	eax, DWORD PTR [ecx+1]
	mov	DWORD PTR [esi+28], eax

; 6604 : 	kbase += left->key;

	mov	ax, WORD PTR [edi+2]
	add	ax, 80					; 00000050H
	movzx	ebx, ax

; 6605 :     } else if (type == XML_EXP_OR) {
; 6606 :         /* Forbid reduction rules */
; 6607 :         if (left->type == XML_EXP_FORBID) {
; 6608 : 	    xmlExpFree(ctxt, left);
; 6609 : 	    return(right);
; 6610 : 	}
; 6611 :         if (right->type == XML_EXP_FORBID) {
; 6612 : 	    xmlExpFree(ctxt, right);
; 6613 : 	    return(left);
; 6614 : 	}
; 6615 : 
; 6616 :         /* OR reduction rule 1 */
; 6617 : 	/* a | a reduced to a */
; 6618 :         if (left == right) {
; 6619 : 	    left->ref--;
; 6620 : 	    return(left);
; 6621 : 	}
; 6622 :         /* OR canonicalization rule 1 */
; 6623 : 	/* linearize (a | b) | c into a | (b | c) */
; 6624 :         if ((left->type == XML_EXP_OR) && (right->type != XML_EXP_OR)) {
; 6625 : 	    xmlExpNodePtr tmp = left;
; 6626 :             left = right;
; 6627 : 	    right = tmp;
; 6628 : 	}
; 6629 :         /* OR reduction rule 2 */
; 6630 : 	/* a | (a | b) and b | (a | b) are reduced to a | b */
; 6631 :         if (right->type == XML_EXP_OR) {
; 6632 : 	    if ((left == right->exp_left) ||
; 6633 : 	        (left == right->exp_right)) {
; 6634 : 		xmlExpFree(ctxt, left);
; 6635 : 		return(right);
; 6636 : 	    }
; 6637 : 	}
; 6638 :         /* OR canonicalization rule 2 */
; 6639 : 	/* linearize (a | b) | c into a | (b | c) */
; 6640 :         if (left->type == XML_EXP_OR) {
; 6641 : 	    xmlExpNodePtr tmp;
; 6642 : 
; 6643 : 	    /* OR canonicalization rule 2 */
; 6644 : 	    if ((left->exp_right->type != XML_EXP_OR) &&
; 6645 : 	        (left->exp_right->key < left->exp_left->key)) {
; 6646 : 	        tmp = left->exp_right;
; 6647 : 		left->exp_right = left->exp_left;
; 6648 : 		left->exp_left = tmp;
; 6649 : 	    }
; 6650 : 	    left->exp_right->ref++;
; 6651 : 	    tmp = xmlExpHashGetEntry(ctxt, XML_EXP_OR, left->exp_right, right,
; 6652 : 	                             NULL, 0, 0);
; 6653 : 	    left->exp_left->ref++;
; 6654 : 	    tmp = xmlExpHashGetEntry(ctxt, XML_EXP_OR, left->exp_left, tmp,
; 6655 : 	                             NULL, 0, 0);
; 6656 : 
; 6657 : 	    xmlExpFree(ctxt, left);
; 6658 : 	    return(tmp);
; 6659 : 	}
; 6660 : 	if (right->type == XML_EXP_OR) {
; 6661 : 	    /* Ordering in the tree */
; 6662 : 	    /* C | (A | B) -> A | (B | C) */
; 6663 : 	    if (left->key > right->exp_right->key) {
; 6664 : 		xmlExpNodePtr tmp;
; 6665 : 		right->exp_right->ref++;
; 6666 : 		tmp = xmlExpHashGetEntry(ctxt, XML_EXP_OR, right->exp_right,
; 6667 : 		                         left, NULL, 0, 0);
; 6668 : 		right->exp_left->ref++;
; 6669 : 		tmp = xmlExpHashGetEntry(ctxt, XML_EXP_OR, right->exp_left,
; 6670 : 		                         tmp, NULL, 0, 0);
; 6671 : 		xmlExpFree(ctxt, right);
; 6672 : 		return(tmp);
; 6673 : 	    }
; 6674 : 	    /* Ordering in the tree */
; 6675 : 	    /* B | (A | C) -> A | (B | C) */
; 6676 : 	    if (left->key > right->exp_left->key) {
; 6677 : 		xmlExpNodePtr tmp;
; 6678 : 		right->exp_right->ref++;
; 6679 : 		tmp = xmlExpHashGetEntry(ctxt, XML_EXP_OR, left,
; 6680 : 		                         right->exp_right, NULL, 0, 0);
; 6681 : 		right->exp_left->ref++;
; 6682 : 		tmp = xmlExpHashGetEntry(ctxt, XML_EXP_OR, right->exp_left,
; 6683 : 		                         tmp, NULL, 0, 0);
; 6684 : 		xmlExpFree(ctxt, right);
; 6685 : 		return(tmp);
; 6686 : 	    }
; 6687 : 	}
; 6688 : 	/* we know both types are != XML_EXP_OR here */
; 6689 :         else if (left->key > right->key) {
; 6690 : 	    xmlExpNodePtr tmp = left;
; 6691 :             left = right;
; 6692 : 	    right = tmp;
; 6693 : 	}
; 6694 : 	kbase = xmlExpHashComputeKey(type, left, right);
; 6695 :     } else if (type == XML_EXP_SEQ) {
; 6696 :         /* Forbid reduction rules */
; 6697 :         if (left->type == XML_EXP_FORBID) {
; 6698 : 	    xmlExpFree(ctxt, right);
; 6699 : 	    return(left);
; 6700 : 	}
; 6701 :         if (right->type == XML_EXP_FORBID) {
; 6702 : 	    xmlExpFree(ctxt, left);
; 6703 : 	    return(right);
; 6704 : 	}
; 6705 :         /* Empty reduction rules */
; 6706 :         if (right->type == XML_EXP_EMPTY) {
; 6707 : 	    return(left);
; 6708 : 	}
; 6709 :         if (left->type == XML_EXP_EMPTY) {
; 6710 : 	    return(right);
; 6711 : 	}
; 6712 : 	kbase = xmlExpHashComputeKey(type, left, right);
; 6713 :     } else
; 6714 :         return(NULL);
; 6715 : 
; 6716 :     key = kbase % ctxt->size;

	mov	eax, ebx
	cdq
	idiv	DWORD PTR [esi+8]

; 6717 :     if (ctxt->table[key] != NULL) {

	mov	eax, DWORD PTR [esi+4]
	movzx	ecx, dx
	shl	ecx, 2
	mov	DWORD PTR tv3230[ebp], ecx
	mov	eax, DWORD PTR [ecx+eax]
	test	eax, eax
	je	SHORT $LN465@xmlExpPars
$LL166@xmlExpPars:

; 6720 : 	    if ((insert->key == kbase) &&

	cmp	WORD PTR [eax+2], bx
	jne	SHORT $LN164@xmlExpPars
	cmp	BYTE PTR [eax], 5
	jne	SHORT $LN164@xmlExpPars

; 6721 : 	        (insert->type == type)) {
; 6722 : 		if (type == XML_EXP_ATOM) {
; 6723 : 		    if (name == insert->exp_str) {
; 6724 : 			insert->ref++;
; 6725 : 			return(insert);
; 6726 : 		    }
; 6727 : 		} else if (type == XML_EXP_COUNT) {
; 6728 : 		    if ((insert->exp_min == min) && (insert->exp_max == max) &&

	cmp	DWORD PTR [eax+20], 1
	jne	SHORT $LN164@xmlExpPars
	cmp	DWORD PTR [eax+24], -1
	jne	SHORT $LN164@xmlExpPars
	cmp	DWORD PTR [eax+12], edi
	je	$LN369@xmlExpPars
$LN164@xmlExpPars:

; 6718 : 	for (insert = ctxt->table[key]; insert != NULL;
; 6719 : 	     insert = insert->next) {

	mov	eax, DWORD PTR [eax+16]
	test	eax, eax
	jne	SHORT $LL166@xmlExpPars
$LN465@xmlExpPars:

; 6545 :     if (ctxt->nb_nodes >= MAX_NODES)

	cmp	DWORD PTR [esi+16], 10000		; 00002710H
	jge	SHORT $LN424@xmlExpPars

; 6546 :         return(NULL);
; 6547 :     ret = (xmlExpNodePtr) xmlMalloc(sizeof(xmlExpNode));

	push	28					; 0000001cH
	call	DWORD PTR _xmlMalloc
	add	esp, 4

; 6548 :     if (ret == NULL)

	test	eax, eax
	je	SHORT $LN424@xmlExpPars
	xorps	xmm0, xmm0

; 6549 :         return(NULL);
; 6550 :     memset(ret, 0, sizeof(xmlExpNode));

	movups	XMMWORD PTR [eax], xmm0
	movq	QWORD PTR [eax+16], xmm0
	mov	DWORD PTR [eax+24], 0

; 6551 :     ret->type = type;

	mov	BYTE PTR [eax], 5

; 6552 :     ret->next = NULL;
; 6553 :     ctxt->nb_nodes++;

	inc	DWORD PTR [esi+16]

; 6554 :     ctxt->nb_cons++;

	inc	DWORD PTR [esi+32]

; 6748 :     entry->key = kbase;

	mov	WORD PTR [eax+2], bx

; 6749 :     if (type == XML_EXP_ATOM) {
; 6750 : 	entry->exp_str = name;
; 6751 : 	entry->c_max = 1;
; 6752 :     } else if (type == XML_EXP_COUNT) {
; 6753 :         entry->exp_min = min;

	mov	DWORD PTR [eax+20], 1

; 6754 :         entry->exp_max = max;

	mov	DWORD PTR [eax+24], -1

; 6755 : 	entry->exp_left = left;

	mov	DWORD PTR [eax+12], edi

; 6756 : 	if ((min == 0) || (IS_NILLABLE(left)))

	test	BYTE PTR [edi+1], 1
	je	SHORT $LN214@xmlExpPars

; 6757 : 	    entry->info |= XML_EXP_NILABLE;

	or	BYTE PTR [eax+1], 1
$LN214@xmlExpPars:

; 6762 :     } else {
; 6763 : 	entry->exp_left = left;
; 6764 : 	entry->exp_right = right;
; 6765 : 	if (type == XML_EXP_OR) {
; 6766 : 	    if ((IS_NILLABLE(left)) || (IS_NILLABLE(right)))
; 6767 : 		entry->info |= XML_EXP_NILABLE;
; 6768 : 	    if ((entry->exp_left->c_max == -1) ||
; 6769 : 	        (entry->exp_right->c_max == -1))
; 6770 : 		entry->c_max = -1;
; 6771 : 	    else if (entry->exp_left->c_max > entry->exp_right->c_max)
; 6772 : 	        entry->c_max = entry->exp_left->c_max;
; 6773 : 	    else
; 6774 : 	        entry->c_max = entry->exp_right->c_max;
; 6775 : 	} else {
; 6776 : 	    if ((IS_NILLABLE(left)) && (IS_NILLABLE(right)))
; 6777 : 		entry->info |= XML_EXP_NILABLE;
; 6778 : 	    if ((entry->exp_left->c_max == -1) ||
; 6779 : 	        (entry->exp_right->c_max == -1))
; 6780 : 		entry->c_max = -1;
; 6781 : 	    else
; 6782 : 	        entry->c_max = entry->exp_left->c_max + entry->exp_right->c_max;
; 6783 : 	}
; 6784 :     }
; 6785 :     entry->ref = 1;
; 6786 :     if (ctxt->table[key] != NULL)

	mov	edi, DWORD PTR tv3230[ebp]
	mov	DWORD PTR [eax+8], -1
	mov	DWORD PTR [eax+4], 1
	mov	ecx, DWORD PTR [esi+4]
	mov	edx, DWORD PTR [edi+ecx]
	test	edx, edx
	je	SHORT $LN231@xmlExpPars

; 6787 :         entry->next = ctxt->table[key];

	mov	DWORD PTR [eax+16], edx
	mov	ecx, DWORD PTR [esi+4]
$LN231@xmlExpPars:

; 6788 : 
; 6789 :     ctxt->table[key] = entry;

	mov	DWORD PTR [ecx+edi], eax

; 6790 :     ctxt->nbElems++;
; 6791 : 
; 6792 :     return(entry);

	mov	edi, eax
	inc	DWORD PTR [esi+12]
	jmp	SHORT $LN392@xmlExpPars
$LN369@xmlExpPars:

; 6729 : 		        (insert->exp_left == left)) {
; 6730 : 			insert->ref++;

	inc	DWORD PTR [eax+4]

; 6731 : 			left->ref--;

	dec	DWORD PTR [edi+4]

; 6732 : 			return(insert);

	mov	edi, eax
	jmp	SHORT $LN392@xmlExpPars
$LN424@xmlExpPars:

; 6733 : 		    }
; 6734 : 		} else if ((insert->exp_left == left) &&
; 6735 : 			   (insert->exp_right == right)) {
; 6736 : 		    insert->ref++;
; 6737 : 		    left->ref--;
; 6738 : 		    right->ref--;
; 6739 : 		    return(insert);
; 6740 : 		}
; 6741 : 	    }
; 6742 : 	}
; 6743 :     }
; 6744 : 
; 6745 :     entry = xmlExpNewNode(ctxt, type);
; 6746 :     if (entry == NULL)
; 6747 :         return(NULL);

	xor	edi, edi
$LN392@xmlExpPars:
	mov	ecx, DWORD PTR [esi+28]
$LL20@xmlExpPars:

; 7956 : 	ret = xmlExpHashGetEntry(ctxt, XML_EXP_COUNT, ret, NULL, NULL,
; 7957 : 	                         1, -1);
; 7958 : 	SKIP_BLANKS

	mov	al, BYTE PTR [ecx]
	cmp	al, 32					; 00000020H
	je	SHORT $LN46@xmlExpPars
	cmp	al, 10					; 0000000aH
	je	SHORT $LN46@xmlExpPars
	cmp	al, 13					; 0000000dH
	je	SHORT $LN46@xmlExpPars
	cmp	al, 9
	jne	$LN485@xmlExpPars
$LN46@xmlExpPars:
	inc	ecx
	mov	DWORD PTR [esi+28], ecx
	jmp	SHORT $LL20@xmlExpPars
$LN44@xmlExpPars:

; 7959 :     } else if (CUR == '*') {

	cmp	al, 42					; 0000002aH
	jne	$LN485@xmlExpPars

; 7960 :         NEXT

	lea	eax, DWORD PTR [ecx+1]
	mov	DWORD PTR [esi+28], eax

; 6604 : 	kbase += left->key;

	mov	ax, WORD PTR [edi+2]
	add	ax, 79					; 0000004fH
	movzx	ebx, ax

; 6605 :     } else if (type == XML_EXP_OR) {
; 6606 :         /* Forbid reduction rules */
; 6607 :         if (left->type == XML_EXP_FORBID) {
; 6608 : 	    xmlExpFree(ctxt, left);
; 6609 : 	    return(right);
; 6610 : 	}
; 6611 :         if (right->type == XML_EXP_FORBID) {
; 6612 : 	    xmlExpFree(ctxt, right);
; 6613 : 	    return(left);
; 6614 : 	}
; 6615 : 
; 6616 :         /* OR reduction rule 1 */
; 6617 : 	/* a | a reduced to a */
; 6618 :         if (left == right) {
; 6619 : 	    left->ref--;
; 6620 : 	    return(left);
; 6621 : 	}
; 6622 :         /* OR canonicalization rule 1 */
; 6623 : 	/* linearize (a | b) | c into a | (b | c) */
; 6624 :         if ((left->type == XML_EXP_OR) && (right->type != XML_EXP_OR)) {
; 6625 : 	    xmlExpNodePtr tmp = left;
; 6626 :             left = right;
; 6627 : 	    right = tmp;
; 6628 : 	}
; 6629 :         /* OR reduction rule 2 */
; 6630 : 	/* a | (a | b) and b | (a | b) are reduced to a | b */
; 6631 :         if (right->type == XML_EXP_OR) {
; 6632 : 	    if ((left == right->exp_left) ||
; 6633 : 	        (left == right->exp_right)) {
; 6634 : 		xmlExpFree(ctxt, left);
; 6635 : 		return(right);
; 6636 : 	    }
; 6637 : 	}
; 6638 :         /* OR canonicalization rule 2 */
; 6639 : 	/* linearize (a | b) | c into a | (b | c) */
; 6640 :         if (left->type == XML_EXP_OR) {
; 6641 : 	    xmlExpNodePtr tmp;
; 6642 : 
; 6643 : 	    /* OR canonicalization rule 2 */
; 6644 : 	    if ((left->exp_right->type != XML_EXP_OR) &&
; 6645 : 	        (left->exp_right->key < left->exp_left->key)) {
; 6646 : 	        tmp = left->exp_right;
; 6647 : 		left->exp_right = left->exp_left;
; 6648 : 		left->exp_left = tmp;
; 6649 : 	    }
; 6650 : 	    left->exp_right->ref++;
; 6651 : 	    tmp = xmlExpHashGetEntry(ctxt, XML_EXP_OR, left->exp_right, right,
; 6652 : 	                             NULL, 0, 0);
; 6653 : 	    left->exp_left->ref++;
; 6654 : 	    tmp = xmlExpHashGetEntry(ctxt, XML_EXP_OR, left->exp_left, tmp,
; 6655 : 	                             NULL, 0, 0);
; 6656 : 
; 6657 : 	    xmlExpFree(ctxt, left);
; 6658 : 	    return(tmp);
; 6659 : 	}
; 6660 : 	if (right->type == XML_EXP_OR) {
; 6661 : 	    /* Ordering in the tree */
; 6662 : 	    /* C | (A | B) -> A | (B | C) */
; 6663 : 	    if (left->key > right->exp_right->key) {
; 6664 : 		xmlExpNodePtr tmp;
; 6665 : 		right->exp_right->ref++;
; 6666 : 		tmp = xmlExpHashGetEntry(ctxt, XML_EXP_OR, right->exp_right,
; 6667 : 		                         left, NULL, 0, 0);
; 6668 : 		right->exp_left->ref++;
; 6669 : 		tmp = xmlExpHashGetEntry(ctxt, XML_EXP_OR, right->exp_left,
; 6670 : 		                         tmp, NULL, 0, 0);
; 6671 : 		xmlExpFree(ctxt, right);
; 6672 : 		return(tmp);
; 6673 : 	    }
; 6674 : 	    /* Ordering in the tree */
; 6675 : 	    /* B | (A | C) -> A | (B | C) */
; 6676 : 	    if (left->key > right->exp_left->key) {
; 6677 : 		xmlExpNodePtr tmp;
; 6678 : 		right->exp_right->ref++;
; 6679 : 		tmp = xmlExpHashGetEntry(ctxt, XML_EXP_OR, left,
; 6680 : 		                         right->exp_right, NULL, 0, 0);
; 6681 : 		right->exp_left->ref++;
; 6682 : 		tmp = xmlExpHashGetEntry(ctxt, XML_EXP_OR, right->exp_left,
; 6683 : 		                         tmp, NULL, 0, 0);
; 6684 : 		xmlExpFree(ctxt, right);
; 6685 : 		return(tmp);
; 6686 : 	    }
; 6687 : 	}
; 6688 : 	/* we know both types are != XML_EXP_OR here */
; 6689 :         else if (left->key > right->key) {
; 6690 : 	    xmlExpNodePtr tmp = left;
; 6691 :             left = right;
; 6692 : 	    right = tmp;
; 6693 : 	}
; 6694 : 	kbase = xmlExpHashComputeKey(type, left, right);
; 6695 :     } else if (type == XML_EXP_SEQ) {
; 6696 :         /* Forbid reduction rules */
; 6697 :         if (left->type == XML_EXP_FORBID) {
; 6698 : 	    xmlExpFree(ctxt, right);
; 6699 : 	    return(left);
; 6700 : 	}
; 6701 :         if (right->type == XML_EXP_FORBID) {
; 6702 : 	    xmlExpFree(ctxt, left);
; 6703 : 	    return(right);
; 6704 : 	}
; 6705 :         /* Empty reduction rules */
; 6706 :         if (right->type == XML_EXP_EMPTY) {
; 6707 : 	    return(left);
; 6708 : 	}
; 6709 :         if (left->type == XML_EXP_EMPTY) {
; 6710 : 	    return(right);
; 6711 : 	}
; 6712 : 	kbase = xmlExpHashComputeKey(type, left, right);
; 6713 :     } else
; 6714 :         return(NULL);
; 6715 : 
; 6716 :     key = kbase % ctxt->size;

	mov	eax, ebx
	cdq
	idiv	DWORD PTR [esi+8]

; 6717 :     if (ctxt->table[key] != NULL) {

	mov	eax, DWORD PTR [esi+4]
	movzx	ecx, dx
	shl	ecx, 2
	mov	DWORD PTR tv3227[ebp], ecx
	mov	eax, DWORD PTR [ecx+eax]
	test	eax, eax
	je	SHORT $LN466@xmlExpPars
$LL261@xmlExpPars:

; 6720 : 	    if ((insert->key == kbase) &&

	cmp	WORD PTR [eax+2], bx
	jne	SHORT $LN259@xmlExpPars
	cmp	BYTE PTR [eax], 5
	jne	SHORT $LN259@xmlExpPars

; 6721 : 	        (insert->type == type)) {
; 6722 : 		if (type == XML_EXP_ATOM) {
; 6723 : 		    if (name == insert->exp_str) {
; 6724 : 			insert->ref++;
; 6725 : 			return(insert);
; 6726 : 		    }
; 6727 : 		} else if (type == XML_EXP_COUNT) {
; 6728 : 		    if ((insert->exp_min == min) && (insert->exp_max == max) &&

	cmp	DWORD PTR [eax+20], 0
	jne	SHORT $LN259@xmlExpPars
	cmp	DWORD PTR [eax+24], -1
	jne	SHORT $LN259@xmlExpPars
	cmp	DWORD PTR [eax+12], edi
	je	SHORT $LN370@xmlExpPars
$LN259@xmlExpPars:

; 6718 : 	for (insert = ctxt->table[key]; insert != NULL;
; 6719 : 	     insert = insert->next) {

	mov	eax, DWORD PTR [eax+16]
	test	eax, eax
	jne	SHORT $LL261@xmlExpPars
$LN466@xmlExpPars:

; 6545 :     if (ctxt->nb_nodes >= MAX_NODES)

	cmp	DWORD PTR [esi+16], 10000		; 00002710H
	jge	SHORT $LN425@xmlExpPars

; 6546 :         return(NULL);
; 6547 :     ret = (xmlExpNodePtr) xmlMalloc(sizeof(xmlExpNode));

	push	28					; 0000001cH
	call	DWORD PTR _xmlMalloc
	add	esp, 4

; 6548 :     if (ret == NULL)

	test	eax, eax
	je	SHORT $LN425@xmlExpPars
	xorps	xmm0, xmm0

; 6549 :         return(NULL);
; 6550 :     memset(ret, 0, sizeof(xmlExpNode));

	movups	XMMWORD PTR [eax], xmm0
	movq	QWORD PTR [eax+16], xmm0
	mov	DWORD PTR [eax+24], 0

; 6551 :     ret->type = type;

	mov	BYTE PTR [eax], 5

; 6552 :     ret->next = NULL;
; 6553 :     ctxt->nb_nodes++;

	inc	DWORD PTR [esi+16]

; 6554 :     ctxt->nb_cons++;

	inc	DWORD PTR [esi+32]

; 6757 : 	    entry->info |= XML_EXP_NILABLE;

	or	BYTE PTR [eax+1], 1
	mov	DWORD PTR [eax+12], edi

; 6762 :     } else {
; 6763 : 	entry->exp_left = left;
; 6764 : 	entry->exp_right = right;
; 6765 : 	if (type == XML_EXP_OR) {
; 6766 : 	    if ((IS_NILLABLE(left)) || (IS_NILLABLE(right)))
; 6767 : 		entry->info |= XML_EXP_NILABLE;
; 6768 : 	    if ((entry->exp_left->c_max == -1) ||
; 6769 : 	        (entry->exp_right->c_max == -1))
; 6770 : 		entry->c_max = -1;
; 6771 : 	    else if (entry->exp_left->c_max > entry->exp_right->c_max)
; 6772 : 	        entry->c_max = entry->exp_left->c_max;
; 6773 : 	    else
; 6774 : 	        entry->c_max = entry->exp_right->c_max;
; 6775 : 	} else {
; 6776 : 	    if ((IS_NILLABLE(left)) && (IS_NILLABLE(right)))
; 6777 : 		entry->info |= XML_EXP_NILABLE;
; 6778 : 	    if ((entry->exp_left->c_max == -1) ||
; 6779 : 	        (entry->exp_right->c_max == -1))
; 6780 : 		entry->c_max = -1;
; 6781 : 	    else
; 6782 : 	        entry->c_max = entry->exp_left->c_max + entry->exp_right->c_max;
; 6783 : 	}
; 6784 :     }
; 6785 :     entry->ref = 1;
; 6786 :     if (ctxt->table[key] != NULL)

	mov	edi, DWORD PTR tv3227[ebp]
	mov	WORD PTR [eax+2], bx
	mov	DWORD PTR [eax+20], 0
	mov	DWORD PTR [eax+24], -1
	mov	DWORD PTR [eax+8], -1
	mov	DWORD PTR [eax+4], 1
	mov	ecx, DWORD PTR [esi+4]
	mov	edx, DWORD PTR [edi+ecx]
	test	edx, edx
	je	SHORT $LN326@xmlExpPars

; 6787 :         entry->next = ctxt->table[key];

	mov	DWORD PTR [eax+16], edx
	mov	ecx, DWORD PTR [esi+4]
$LN326@xmlExpPars:

; 6788 : 
; 6789 :     ctxt->table[key] = entry;

	mov	DWORD PTR [ecx+edi], eax

; 6790 :     ctxt->nbElems++;
; 6791 : 
; 6792 :     return(entry);

	mov	edi, eax
	inc	DWORD PTR [esi+12]
	jmp	SHORT $LL22@xmlExpPars
$LN370@xmlExpPars:

; 6729 : 		        (insert->exp_left == left)) {
; 6730 : 			insert->ref++;

	inc	DWORD PTR [eax+4]

; 6731 : 			left->ref--;

	dec	DWORD PTR [edi+4]

; 6732 : 			return(insert);

	mov	edi, eax
	jmp	SHORT $LL22@xmlExpPars
$LN425@xmlExpPars:

; 6733 : 		    }
; 6734 : 		} else if ((insert->exp_left == left) &&
; 6735 : 			   (insert->exp_right == right)) {
; 6736 : 		    insert->ref++;
; 6737 : 		    left->ref--;
; 6738 : 		    right->ref--;
; 6739 : 		    return(insert);
; 6740 : 		}
; 6741 : 	    }
; 6742 : 	}
; 6743 :     }
; 6744 : 
; 6745 :     entry = xmlExpNewNode(ctxt, type);
; 6746 :     if (entry == NULL)
; 6747 :         return(NULL);

	xor	edi, edi
	npad	6
$LL22@xmlExpPars:

; 7961 : 	ret = xmlExpHashGetEntry(ctxt, XML_EXP_COUNT, ret, NULL, NULL,
; 7962 : 	                         0, -1);
; 7963 : 	SKIP_BLANKS

	mov	ecx, DWORD PTR [esi+28]
	mov	al, BYTE PTR [ecx]
	cmp	al, 32					; 00000020H
	je	SHORT $LN48@xmlExpPars
	cmp	al, 10					; 0000000aH
	je	SHORT $LN48@xmlExpPars
	cmp	al, 13					; 0000000dH
	je	SHORT $LN48@xmlExpPars
	cmp	al, 9
	jne	SHORT $LN485@xmlExpPars
$LN48@xmlExpPars:
	lea	eax, DWORD PTR [ecx+1]
	mov	DWORD PTR [esi+28], eax
	jmp	SHORT $LL22@xmlExpPars
$LN485@xmlExpPars:

; 7964 :     }
; 7965 :     return(ret);

	mov	eax, edi
	pop	edi

; 7966 : }

	pop	esi
	pop	ebx
	pop	ebp
	ret	0
_xmlExpParseOr ENDP
_TEXT	ENDS
; Function compile flags: /Ogtp
; File c:\users\dag\documents\_clients\codeproject authors group\windows on arm\libxml2\libxml2-2.9.9\xmlregexp.c
;	COMDAT _xmlExpParseNumber
_TEXT	SEGMENT
_ctxt$ = 8						; size = 4
_xmlExpParseNumber PROC					; COMDAT

; 7875 : xmlExpParseNumber(xmlExpCtxtPtr ctxt) {

	push	ebp
	mov	ebp, esp
	push	esi
	mov	ecx, OFFSET __F6DD4902_xmlregexp@c
	call	@__CheckForDebuggerJustMyCode@4
	mov	esi, DWORD PTR _ctxt$[ebp]
	xor	ecx, ecx
	mov	edx, DWORD PTR [esi+28]
$LL2@xmlExpPars:

; 7876 :     int ret = 0;
; 7877 : 
; 7878 :     SKIP_BLANKS

	mov	al, BYTE PTR [edx]
	cmp	al, 32					; 00000020H
	je	SHORT $LN6@xmlExpPars
	cmp	al, 10					; 0000000aH
	je	SHORT $LN6@xmlExpPars
	cmp	al, 13					; 0000000dH
	je	SHORT $LN6@xmlExpPars
	cmp	al, 9
	jne	SHORT $LN3@xmlExpPars
$LN6@xmlExpPars:
	inc	edx
	mov	DWORD PTR [esi+28], edx
	jmp	SHORT $LL2@xmlExpPars
$LN3@xmlExpPars:

; 7879 :     if (CUR == '*') {

	cmp	al, 42					; 0000002aH
	jne	SHORT $LN7@xmlExpPars

; 7880 : 	NEXT

	lea	eax, DWORD PTR [edx+1]
	mov	DWORD PTR [esi+28], eax
$LN9@xmlExpPars:

; 7890 : }

	or	eax, -1
	pop	esi
	pop	ebp
	ret	0
$LN7@xmlExpPars:

; 7881 : 	return(-1);
; 7882 :     }
; 7883 :     if ((CUR < '0') || (CUR > '9'))

	cmp	al, 48					; 00000030H
	jl	SHORT $LN9@xmlExpPars
	cmp	al, 57					; 00000039H
	jg	SHORT $LN9@xmlExpPars
$LL4@xmlExpPars:

; 7884 :         return(-1);
; 7885 :     while ((CUR >= '0') && (CUR <= '9')) {

	cmp	al, 57					; 00000039H
	jg	SHORT $LN5@xmlExpPars

; 7886 :         ret = ret * 10 + (CUR - '0');

	movsx	eax, al
	lea	ecx, DWORD PTR [ecx+ecx*4]

; 7887 : 	NEXT

	inc	edx
	lea	ecx, DWORD PTR [ecx-24]
	mov	DWORD PTR [esi+28], edx
	lea	ecx, DWORD PTR [eax+ecx*2]
	mov	al, BYTE PTR [edx]
	cmp	al, 48					; 00000030H
	jge	SHORT $LL4@xmlExpPars
$LN5@xmlExpPars:

; 7888 :     }
; 7889 :     return(ret);

	mov	eax, ecx
	pop	esi

; 7890 : }

	pop	ebp
	ret	0
_xmlExpParseNumber ENDP
_TEXT	ENDS
; Function compile flags: /Ogtp
; File c:\users\dag\documents\_clients\codeproject authors group\windows on arm\libxml2\libxml2-2.9.9\xmlregexp.c
;	COMDAT _xmlExpParseExpr
_TEXT	SEGMENT
_ctxt$ = 8						; size = 4
_xmlExpParseExpr PROC					; COMDAT

; 7990 : xmlExpParseExpr(xmlExpCtxtPtr ctxt) {

	push	ebp
	mov	ebp, esp
	push	esi
	push	edi
	mov	ecx, OFFSET __F6DD4902_xmlregexp@c
	call	@__CheckForDebuggerJustMyCode@4
	mov	esi, DWORD PTR _ctxt$[ebp]
	push	esi
	call	_xmlExpParseSeq
	mov	ecx, DWORD PTR [esi+28]
	add	esp, 4
	mov	edi, eax
$LL2@xmlExpPars:

; 7991 :     xmlExpNodePtr ret, right;
; 7992 : 
; 7993 :     ret = xmlExpParseSeq(ctxt);
; 7994 :     SKIP_BLANKS

	mov	dl, BYTE PTR [ecx]
	cmp	dl, 32					; 00000020H
	je	SHORT $LN6@xmlExpPars
	cmp	dl, 10					; 0000000aH
	je	SHORT $LN6@xmlExpPars
	cmp	dl, 13					; 0000000dH
	je	SHORT $LN6@xmlExpPars
	cmp	dl, 9
	jne	SHORT $LN12@xmlExpPars
$LN6@xmlExpPars:
	inc	ecx
	mov	DWORD PTR [esi+28], ecx
	jmp	SHORT $LL2@xmlExpPars
$LN12@xmlExpPars:

; 7995 :     while (CUR == ',') {

	cmp	dl, 44					; 0000002cH
	jne	SHORT $LN5@xmlExpPars
$LL4@xmlExpPars:

; 7996 :         NEXT

	lea	eax, DWORD PTR [ecx+1]

; 7997 : 	right = xmlExpParseSeq(ctxt);

	push	esi
	mov	DWORD PTR [esi+28], eax
	call	_xmlExpParseSeq
	add	esp, 4

; 7998 : 	if (right == NULL) {

	test	eax, eax
	je	SHORT $LN13@xmlExpPars

; 8000 : 	    return(NULL);
; 8001 : 	}
; 8002 : 	ret = xmlExpHashGetEntry(ctxt, XML_EXP_SEQ, ret, right, NULL, 0, 0);

	push	0
	push	0
	push	0
	push	eax
	push	edi
	push	3
	push	esi
	call	_xmlExpHashGetEntry
	mov	edi, eax
	add	esp, 28					; 0000001cH

; 8003 : 	if (ret == NULL)

	test	edi, edi
	je	SHORT $LN14@xmlExpPars

; 7995 :     while (CUR == ',') {

	mov	ecx, DWORD PTR [esi+28]
	cmp	BYTE PTR [ecx], 44			; 0000002cH
	je	SHORT $LL4@xmlExpPars
$LN5@xmlExpPars:

; 8004 : 	    return(NULL);
; 8005 :     }
; 8006 :     return(ret);

	mov	eax, edi
	pop	edi

; 8007 : }

	pop	esi
	pop	ebp
	ret	0
$LN13@xmlExpPars:

; 7999 : 	    xmlExpFree(ctxt, ret);

	push	edi
	push	esi
	call	_xmlExpFree
	add	esp, 8
$LN14@xmlExpPars:

; 8007 : }

	pop	edi
	xor	eax, eax
	pop	esi
	pop	ebp
	ret	0
_xmlExpParseExpr ENDP
_TEXT	ENDS
; Function compile flags: /Ogtp
; File c:\users\dag\documents\_clients\codeproject authors group\windows on arm\libxml2\libxml2-2.9.9\xmlregexp.c
;	COMDAT _xmlExpDivide
_TEXT	SEGMENT
_ctxt$ = 8						; size = 4
_exp$ = 12						; size = 4
_sub$ = 16						; size = 4
_mult$ = 20						; size = 4
_remain$ = 24						; size = 4
_xmlExpDivide PROC					; COMDAT

; 7266 :              xmlExpNodePtr *mult, xmlExpNodePtr *remain) {

	push	ebp
	mov	ebp, esp
	mov	ecx, OFFSET __F6DD4902_xmlregexp@c
	call	@__CheckForDebuggerJustMyCode@4
	mov	eax, DWORD PTR _mult$[ebp]
	test	eax, eax
	je	SHORT $LN5@xmlExpDivi

; 7267 :     int i;
; 7268 :     xmlExpNodePtr tmp, tmp2;
; 7269 : 
; 7270 :     if (mult != NULL) *mult = NULL;

	mov	DWORD PTR [eax], 0
$LN5@xmlExpDivi:

; 7271 :     if (remain != NULL) *remain = NULL;

	mov	eax, DWORD PTR _remain$[ebp]
	test	eax, eax
	je	SHORT $LN6@xmlExpDivi
	mov	DWORD PTR [eax], 0
$LN6@xmlExpDivi:

; 7272 :     if (exp->c_max == -1) return(0);

	mov	eax, DWORD PTR _exp$[ebp]
	push	ebx
	push	esi
	push	edi
	mov	ecx, DWORD PTR [eax+8]
	cmp	ecx, -1
	je	$LN3@xmlExpDivi

; 7273 :     if (IS_NILLABLE(exp) && (!IS_NILLABLE(sub))) return(0);

	test	BYTE PTR [eax+1], 1
	mov	eax, DWORD PTR _sub$[ebp]
	je	SHORT $LN8@xmlExpDivi
	test	BYTE PTR [eax+1], 1
	je	$LN3@xmlExpDivi
$LN8@xmlExpDivi:

; 7274 : 
; 7275 :     for (i = 1;i <= exp->c_max;i++) {

	mov	ebx, 1
	cmp	ecx, ebx
	jl	$LN3@xmlExpDivi
	mov	edi, DWORD PTR _ctxt$[ebp]
	npad	4
$LL4@xmlExpDivi:

; 7276 :         sub->ref++;

	inc	DWORD PTR [eax+4]

; 7277 :         tmp = xmlExpHashGetEntry(ctxt, XML_EXP_COUNT,

	push	ebx
	push	ebx
	push	0
	push	0
	push	eax
	push	5
	push	edi
	call	_xmlExpHashGetEntry
	mov	esi, eax
	add	esp, 28					; 0000001cH

; 7278 : 				 sub, NULL, NULL, i, i);
; 7279 : 	if (tmp == NULL) {

	test	esi, esi
	je	$LN25@xmlExpDivi

; 7234 :     if (sub->c_max == -1) {

	mov	edx, DWORD PTR _exp$[ebp]
	mov	eax, DWORD PTR [esi+8]
	mov	ecx, DWORD PTR [edx+8]
	cmp	ecx, -1
	je	SHORT $LN22@xmlExpDivi

; 7235 :         if (exp->c_max != -1)
; 7236 : 	    ret = 0;
; 7237 :     } else if ((exp->c_max >= 0) && (exp->c_max < sub->c_max)) {

	test	eax, eax
	js	SHORT $LN10@xmlExpDivi
	cmp	eax, ecx
	jge	SHORT $LN10@xmlExpDivi

; 7280 : 	    return(-1);
; 7281 : 	}
; 7282 : 	if (!xmlExpCheckCard(tmp, exp)) {

	jmp	SHORT $LN2@xmlExpDivi
$LN22@xmlExpDivi:
	cmp	eax, -1
	jne	SHORT $LN2@xmlExpDivi
$LN10@xmlExpDivi:

; 7283 : 	    xmlExpFree(ctxt, tmp);
; 7284 : 	    continue;
; 7285 : 	}
; 7286 : 	tmp2 = xmlExpExpDeriveInt(ctxt, tmp, exp);

	push	edx
	push	esi
	push	edi
	call	_xmlExpExpDeriveInt
	mov	edi, eax
	add	esp, 12					; 0000000cH

; 7287 : 	if (tmp2 == NULL) {

	test	edi, edi
	je	SHORT $LN26@xmlExpDivi

; 7289 : 	    return(-1);
; 7290 : 	}
; 7291 : 	if ((tmp2 != forbiddenExp) && (IS_NILLABLE(tmp2))) {

	cmp	edi, DWORD PTR _forbiddenExp
	je	SHORT $LN12@xmlExpDivi
	test	BYTE PTR [edi+1], 1
	jne	SHORT $LN27@xmlExpDivi
$LN12@xmlExpDivi:

; 7304 : 	}
; 7305 : 	xmlExpFree(ctxt, tmp);

	mov	eax, DWORD PTR _ctxt$[ebp]
	push	esi
	push	eax
	call	_xmlExpFree

; 7306 : 	xmlExpFree(ctxt, tmp2);

	mov	esi, edi
	add	esp, 8
	mov	edi, DWORD PTR _ctxt$[ebp]
$LN2@xmlExpDivi:

; 7274 : 
; 7275 :     for (i = 1;i <= exp->c_max;i++) {

	push	esi
	push	edi
	call	_xmlExpFree
	mov	eax, DWORD PTR _exp$[ebp]
	inc	ebx
	add	esp, 8
	cmp	ebx, DWORD PTR [eax+8]
	jg	SHORT $LN3@xmlExpDivi
	mov	eax, DWORD PTR _sub$[ebp]
	jmp	$LL4@xmlExpDivi
$LN27@xmlExpDivi:

; 7292 : 	    if (remain != NULL)

	mov	eax, DWORD PTR _remain$[ebp]
	test	eax, eax
	je	SHORT $LN13@xmlExpDivi

; 7293 : 	        *remain = tmp2;

	mov	DWORD PTR [eax], edi
	mov	edi, DWORD PTR _ctxt$[ebp]
	jmp	SHORT $LN14@xmlExpDivi
$LN13@xmlExpDivi:

; 7294 : 	    else
; 7295 : 	        xmlExpFree(ctxt, tmp2);

	push	edi
	mov	edi, DWORD PTR _ctxt$[ebp]
	push	edi
	call	_xmlExpFree
	add	esp, 8
$LN14@xmlExpDivi:

; 7296 : 	    if (mult != NULL)

	mov	eax, DWORD PTR _mult$[ebp]
	test	eax, eax
	je	SHORT $LN15@xmlExpDivi

; 7297 : 	        *mult = tmp;

	pop	edi
	mov	DWORD PTR [eax], esi

; 7300 : #ifdef DEBUG_DERIV
; 7301 : 	    printf("Divide succeeded %d\n", i);
; 7302 : #endif
; 7303 : 	    return(i);

	mov	eax, ebx

; 7307 :     }
; 7308 : #ifdef DEBUG_DERIV
; 7309 :     printf("Divide failed\n");
; 7310 : #endif
; 7311 :     return(0);
; 7312 : }

	pop	esi
	pop	ebx
	pop	ebp
	ret	0
$LN15@xmlExpDivi:

; 7298 : 	    else
; 7299 : 	        xmlExpFree(ctxt, tmp);

	push	esi
	push	edi
	call	_xmlExpFree
	add	esp, 8

; 7300 : #ifdef DEBUG_DERIV
; 7301 : 	    printf("Divide succeeded %d\n", i);
; 7302 : #endif
; 7303 : 	    return(i);

	mov	eax, ebx
	pop	edi

; 7307 :     }
; 7308 : #ifdef DEBUG_DERIV
; 7309 :     printf("Divide failed\n");
; 7310 : #endif
; 7311 :     return(0);
; 7312 : }

	pop	esi
	pop	ebx
	pop	ebp
	ret	0
$LN26@xmlExpDivi:

; 7288 : 	    xmlExpFree(ctxt, tmp);

	mov	eax, DWORD PTR _ctxt$[ebp]
	push	esi
	push	eax
	call	_xmlExpFree
	add	esp, 8
$LN25@xmlExpDivi:

; 7307 :     }
; 7308 : #ifdef DEBUG_DERIV
; 7309 :     printf("Divide failed\n");
; 7310 : #endif
; 7311 :     return(0);
; 7312 : }

	pop	edi
	pop	esi
	or	eax, -1
	pop	ebx
	pop	ebp
	ret	0
$LN3@xmlExpDivi:
	pop	edi
	pop	esi
	xor	eax, eax
	pop	ebx
	pop	ebp
	ret	0
_xmlExpDivide ENDP
_TEXT	ENDS
; Function compile flags: /Ogtp
; File c:\users\dag\documents\_clients\codeproject authors group\windows on arm\libxml2\libxml2-2.9.9\xmlregexp.c
;	COMDAT _xmlExpExpDeriveInt
_TEXT	SEGMENT
_tmp2$4$ = -20						; size = 4
_sub$1$ = -16						; size = 4
_tmp3$1$ = -16						; size = 4
tv1441 = -16						; size = 4
tv1407 = -16						; size = 4
_len$1$ = -12						; size = 4
_i$1$ = -8						; size = 4
$T1 = -4						; size = 4
_tmp$7$ = -4						; size = 4
_ctxt$ = 8						; size = 4
_exp$1$ = 12						; size = 4
_tab$1$ = 12						; size = 4
_tmp2$1$ = 12						; size = 4
_ret$6$ = 12						; size = 4
_ret$4$ = 12						; size = 4
tv1450 = 12						; size = 4
tv1444 = 12						; size = 4
tv1434 = 12						; size = 4
tv1375 = 12						; size = 4
tv1364 = 12						; size = 4
_exp$ = 12						; size = 4
_i$1$ = 16						; size = 4
_ret$7$ = 16						; size = 4
tv1449 = 16						; size = 4
_sub$ = 16						; size = 4
_xmlExpExpDeriveInt PROC				; COMDAT

; 7326 : xmlExpExpDeriveInt(xmlExpCtxtPtr ctxt, xmlExpNodePtr exp, xmlExpNodePtr sub) {

	push	ebp
	mov	ebp, esp
	sub	esp, 20					; 00000014H
	mov	ecx, OFFSET __F6DD4902_xmlregexp@c
	push	ebx
	push	esi
	push	edi
	call	@__CheckForDebuggerJustMyCode@4
	mov	ebx, DWORD PTR _exp$[ebp]
	mov	esi, DWORD PTR _sub$[ebp]
	cmp	ebx, esi
	jne	SHORT $LN9@xmlExpExpD

; 7327 :     xmlExpNodePtr ret, tmp, tmp2, tmp3;
; 7328 :     const xmlChar **tab;
; 7329 :     int len, i;
; 7330 : 
; 7331 :     /*
; 7332 :      * In case of equality and if the expression can only consume a finite
; 7333 :      * amount, then the derivation is empty
; 7334 :      */
; 7335 :     if ((exp == sub) && (exp->c_max >= 0)) {

	cmp	DWORD PTR [ebx+8], 0
	jge	$LN155@xmlExpExpD
$LN9@xmlExpExpD:

; 7336 : #ifdef DEBUG_DERIV
; 7337 :         printf("Equal(exp, sub) and finite -> Empty\n");
; 7338 : #endif
; 7339 :         return(emptyExp);
; 7340 :     }
; 7341 :     /*
; 7342 :      * decompose sub sequence first
; 7343 :      */
; 7344 :     if (sub->type == XML_EXP_EMPTY) {

	mov	al, BYTE PTR [esi]
	test	al, al
	jne	SHORT $LN10@xmlExpExpD

; 7345 : #ifdef DEBUG_DERIV
; 7346 :         printf("Empty(sub) -> Empty\n");
; 7347 : #endif
; 7348 : 	exp->ref++;

	inc	DWORD PTR [ebx+4]

; 7349 :         return(exp);

	mov	eax, ebx
	pop	edi

; 7763 : }

	pop	esi
	pop	ebx
	mov	esp, ebp
	pop	ebp
	ret	0
$LN10@xmlExpExpD:

; 7350 :     }
; 7351 :     if (sub->type == XML_EXP_SEQ) {

	cmp	al, 3
	jne	SHORT $LN11@xmlExpExpD

; 7352 : #ifdef DEBUG_DERIV
; 7353 :         printf("Seq(sub) -> decompose\n");
; 7354 : #endif
; 7355 :         tmp = xmlExpExpDeriveInt(ctxt, exp, sub->exp_left);

	push	DWORD PTR [esi+12]
	push	ebx
	mov	ebx, DWORD PTR _ctxt$[ebp]
	push	ebx
	call	_xmlExpExpDeriveInt
	mov	edi, eax
	add	esp, 12					; 0000000cH

; 7356 : 	if (tmp == NULL)

	test	edi, edi
	je	$LN149@xmlExpExpD

; 7357 : 	    return(NULL);
; 7358 : 	if (tmp == forbiddenExp)

	cmp	edi, DWORD PTR _forbiddenExp
	je	$LN1@xmlExpExpD

; 7359 : 	    return(tmp);
; 7360 : 	ret = xmlExpExpDeriveInt(ctxt, tmp, sub->exp_right);

	push	DWORD PTR [esi+20]
	push	edi
	push	ebx
	call	_xmlExpExpDeriveInt

; 7361 : 	xmlExpFree(ctxt, tmp);

	push	edi
	push	ebx
	mov	esi, eax
	call	_xmlExpFree
	add	esp, 20					; 00000014H

; 7362 : 	return(ret);

	mov	eax, esi
	pop	edi

; 7763 : }

	pop	esi
	pop	ebx
	mov	esp, ebp
	pop	ebp
	ret	0
$LN11@xmlExpExpD:

; 7363 :     }
; 7364 :     if (sub->type == XML_EXP_OR) {

	cmp	al, 4
	jne	SHORT $LN14@xmlExpExpD

; 7365 : #ifdef DEBUG_DERIV
; 7366 :         printf("Or(sub) -> decompose\n");
; 7367 : #endif
; 7368 :         tmp = xmlExpExpDeriveInt(ctxt, exp, sub->exp_left);

	push	DWORD PTR [esi+12]
	push	ebx
	push	DWORD PTR _ctxt$[ebp]
	call	_xmlExpExpDeriveInt
	mov	edi, eax
	add	esp, 12					; 0000000cH

; 7369 : 	if (tmp == forbiddenExp)

	cmp	edi, DWORD PTR _forbiddenExp
	je	$LN1@xmlExpExpD

; 7370 : 	    return(tmp);
; 7371 : 	if (tmp == NULL)

	test	edi, edi
	je	$LN149@xmlExpExpD

; 7372 : 	    return(NULL);
; 7373 : 	ret = xmlExpExpDeriveInt(ctxt, exp, sub->exp_right);

	push	DWORD PTR [esi+20]
	push	ebx
	mov	ebx, DWORD PTR _ctxt$[ebp]
	push	ebx
	call	_xmlExpExpDeriveInt
	mov	esi, eax
	add	esp, 12					; 0000000cH

; 7374 : 	if ((ret == NULL) || (ret == forbiddenExp)) {

	test	esi, esi
	je	SHORT $LN18@xmlExpExpD
	cmp	esi, DWORD PTR _forbiddenExp
	je	SHORT $LN18@xmlExpExpD

; 7377 : 	}
; 7378 : 	return(xmlExpHashGetEntry(ctxt, XML_EXP_OR, tmp, ret, NULL, 0, 0));

	push	0
	push	0
	push	0
	push	esi
	push	edi
	push	4
	push	ebx
	call	_xmlExpHashGetEntry
	add	esp, 28					; 0000001cH
	pop	edi

; 7763 : }

	pop	esi
	pop	ebx
	mov	esp, ebp
	pop	ebp
	ret	0
$LN18@xmlExpExpD:

; 7375 : 	    xmlExpFree(ctxt, tmp);

	push	edi
	push	ebx
	call	_xmlExpFree
	add	esp, 8

; 7376 : 	    return(ret);

	mov	eax, esi
	pop	edi

; 7763 : }

	pop	esi
	pop	ebx
	mov	esp, ebp
	pop	ebp
	ret	0
$LN14@xmlExpExpD:

; 7379 :     }
; 7380 :     if (!xmlExpCheckCard(exp, sub)) {

	push	esi
	push	ebx
	call	_xmlExpCheckCard
	add	esp, 8
	test	eax, eax
	je	$LN158@xmlExpExpD

; 7381 : #ifdef DEBUG_DERIV
; 7382 :         printf("CheckCard(exp, sub) failed -> Forbid\n");
; 7383 : #endif
; 7384 :         return(forbiddenExp);
; 7385 :     }
; 7386 :     switch (exp->type) {

	movzx	eax, BYTE PTR [ebx]
	mov	edi, DWORD PTR _ctxt$[ebp]
	cmp	eax, 5
	ja	$LN157@xmlExpExpD
	jmp	DWORD PTR $LN163@xmlExpExpD[eax*4]
$LN20@xmlExpExpD:

; 7387 :         case XML_EXP_EMPTY:
; 7388 : 	    if (sub == emptyExp)

	cmp	esi, DWORD PTR _emptyExp
	jmp	SHORT $LN159@xmlExpExpD
$LN23@xmlExpExpD:

; 7389 : 	        return(emptyExp);
; 7390 : #ifdef DEBUG_DERIV
; 7391 : 	    printf("Empty(exp) -> Forbid\n");
; 7392 : #endif
; 7393 : 	    return(forbiddenExp);
; 7394 :         case XML_EXP_FORBID:
; 7395 : #ifdef DEBUG_DERIV
; 7396 : 	    printf("Forbid(exp) -> Forbid\n");
; 7397 : #endif
; 7398 : 	    return(forbiddenExp);
; 7399 :         case XML_EXP_ATOM:
; 7400 : 	    if (sub->type == XML_EXP_ATOM) {

	mov	al, BYTE PTR [esi]
	cmp	al, 2
	jne	SHORT $LN24@xmlExpExpD

; 7401 : 	        /* TODO: handle wildcards */
; 7402 : 	        if (exp->exp_str == sub->exp_str) {

	mov	eax, DWORD PTR [ebx+20]
	cmp	eax, DWORD PTR [esi+20]
	jmp	SHORT $LN159@xmlExpExpD
$LN24@xmlExpExpD:

; 7403 : #ifdef DEBUG_DERIV
; 7404 : 		    printf("Atom match -> Empty\n");
; 7405 : #endif
; 7406 : 		    return(emptyExp);
; 7407 :                 }
; 7408 : #ifdef DEBUG_DERIV
; 7409 : 		printf("Atom mismatch -> Forbid\n");
; 7410 : #endif
; 7411 : 	        return(forbiddenExp);
; 7412 : 	    }
; 7413 : 	    if ((sub->type == XML_EXP_COUNT) &&
; 7414 : 	        (sub->exp_max == 1) &&

	cmp	al, 5
	jne	$LN158@xmlExpExpD
	cmp	DWORD PTR [esi+24], 1
	jne	$LN158@xmlExpExpD
	mov	ecx, DWORD PTR [esi+12]
	cmp	BYTE PTR [ecx], 2
	jne	$LN158@xmlExpExpD

; 7415 : 	        (sub->exp_left->type == XML_EXP_ATOM)) {
; 7416 : 	        /* TODO: handle wildcards */
; 7417 : 	        if (exp->exp_str == sub->exp_left->exp_str) {

	mov	eax, DWORD PTR [ebx+20]
	cmp	eax, DWORD PTR [ecx+20]
$LN159@xmlExpExpD:

; 7418 : #ifdef DEBUG_DERIV
; 7419 : 		    printf("Atom match -> Empty\n");
; 7420 : #endif
; 7421 : 		    return(emptyExp);

	jne	$LN158@xmlExpExpD
$LN155@xmlExpExpD:
	mov	eax, DWORD PTR _emptyExp
	pop	edi

; 7763 : }

	pop	esi
	pop	ebx
	mov	esp, ebp
	pop	ebp
	ret	0
$LN28@xmlExpExpD:

; 7422 : 		}
; 7423 : #ifdef DEBUG_DERIV
; 7424 : 		printf("Atom mismatch -> Forbid\n");
; 7425 : #endif
; 7426 : 	        return(forbiddenExp);
; 7427 : 	    }
; 7428 : #ifdef DEBUG_DERIV
; 7429 : 	    printf("Compex exp vs Atom -> Forbid\n");
; 7430 : #endif
; 7431 : 	    return(forbiddenExp);
; 7432 :         case XML_EXP_SEQ:
; 7433 : 	    /* try to get the sequence consumed only if possible */
; 7434 : 	    if (xmlExpCheckCard(exp->exp_left, sub)) {

	push	esi
	push	DWORD PTR [ebx+12]
	call	_xmlExpCheckCard
	add	esp, 8
	test	eax, eax
	je	SHORT $LN156@xmlExpExpD

; 7435 : 		/* See if the sequence can be consumed directly */
; 7436 : #ifdef DEBUG_DERIV
; 7437 : 		printf("Seq trying left only\n");
; 7438 : #endif
; 7439 : 		ret = xmlExpExpDeriveInt(ctxt, exp->exp_left, sub);

	push	esi
	push	DWORD PTR [ebx+12]
	push	edi
	call	_xmlExpExpDeriveInt
	add	esp, 12					; 0000000cH

; 7440 : 		if ((ret != forbiddenExp) && (ret != NULL)) {

	cmp	eax, DWORD PTR _forbiddenExp
	je	SHORT $LN156@xmlExpExpD
	test	eax, eax
	je	SHORT $LN156@xmlExpExpD

; 7441 : #ifdef DEBUG_DERIV
; 7442 : 		    printf("Seq trying left only worked\n");
; 7443 : #endif
; 7444 : 		    /*
; 7445 : 		     * TODO: assumption here that we are determinist
; 7446 : 		     *       i.e. we won't get to a nillable exp left
; 7447 : 		     *       subset which could be matched by the right
; 7448 : 		     *       part too.
; 7449 : 		     * e.g.: (a | b)+,(a | c) and 'a+,a'
; 7450 : 		     */
; 7451 : 		    exp->exp_right->ref++;

	mov	ecx, DWORD PTR [ebx+20]

; 7452 : 		    return(xmlExpHashGetEntry(ctxt, XML_EXP_SEQ, ret,

	push	0
	push	0
	push	0
	inc	DWORD PTR [ecx+4]
	push	DWORD PTR [ebx+20]
	push	eax
	push	3
	push	edi
	call	_xmlExpHashGetEntry
	add	esp, 28					; 0000001cH
	pop	edi

; 7763 : }

	pop	esi
	pop	ebx
	mov	esp, ebp
	pop	ebp
	ret	0
$LN156@xmlExpExpD:

; 7453 : 					      exp->exp_right, NULL, 0, 0));
; 7454 : 		}
; 7455 : #ifdef DEBUG_DERIV
; 7456 : 	    } else {
; 7457 : 		printf("Seq: left too short\n");
; 7458 : #endif
; 7459 : 	    }
; 7460 : 	    /* Try instead to decompose */
; 7461 : 	    if (sub->type == XML_EXP_COUNT) {

	cmp	BYTE PTR [esi], 5
	jne	$LN157@xmlExpExpD

; 7462 : 		int min, max;
; 7463 : 
; 7464 : #ifdef DEBUG_DERIV
; 7465 : 		printf("Seq: sub is a count\n");
; 7466 : #endif
; 7467 : 	        ret = xmlExpExpDeriveInt(ctxt, exp->exp_left, sub->exp_left);

	push	DWORD PTR [esi+12]
	push	DWORD PTR [ebx+12]
	push	edi
	call	_xmlExpExpDeriveInt
	add	esp, 12					; 0000000cH
	mov	DWORD PTR _ret$4$[ebp], eax

; 7468 : 		if (ret == NULL)

	test	eax, eax
	je	SHORT $LN149@xmlExpExpD

; 7469 : 		    return(NULL);
; 7470 : 		if (ret != forbiddenExp) {

	cmp	eax, DWORD PTR _forbiddenExp
	je	$LN157@xmlExpExpD

; 7471 : #ifdef DEBUG_DERIV
; 7472 : 		    printf("Seq , Count match on left\n");
; 7473 : #endif
; 7474 : 		    if (sub->exp_max < 0)

	mov	ecx, DWORD PTR [esi+24]

; 7475 : 		        max = -1;
; 7476 : 	            else
; 7477 : 		        max = sub->exp_max -1;
; 7478 : 		    if (sub->exp_min > 0)

	or	eax, -1
	test	ecx, ecx

; 7479 : 		        min = sub->exp_min -1;
; 7480 : 		    else
; 7481 : 		        min = 0;
; 7482 : 		    exp->exp_right->ref++;
; 7483 : 		    tmp = xmlExpHashGetEntry(ctxt, XML_EXP_SEQ, ret,

	push	0
	push	0
	lea	edx, DWORD PTR [ecx-1]
	cmovns	eax, edx
	mov	DWORD PTR tv1449[ebp], eax
	mov	eax, DWORD PTR [esi+20]
	mov	DWORD PTR tv1441[ebp], eax
	mov	eax, DWORD PTR [ebx+20]
	push	0
	inc	DWORD PTR [eax+4]
	push	DWORD PTR [ebx+20]
	push	DWORD PTR _ret$4$[ebp]
	push	3
	push	edi
	call	_xmlExpHashGetEntry
	mov	ebx, eax
	add	esp, 28					; 0000001cH

; 7484 : 		                             exp->exp_right, NULL, 0, 0);
; 7485 : 		    if (tmp == NULL)

	test	ebx, ebx
	je	SHORT $LN149@xmlExpExpD

; 7486 : 		        return(NULL);
; 7487 : 
; 7488 : 		    sub->exp_left->ref++;

	mov	ecx, DWORD PTR [esi+12]
	xor	edx, edx
	mov	eax, DWORD PTR tv1441[ebp]

; 7489 : 		    tmp2 = xmlExpHashGetEntry(ctxt, XML_EXP_COUNT,

	push	DWORD PTR tv1449[ebp]
	inc	DWORD PTR [ecx+4]
	test	eax, eax
	lea	ecx, DWORD PTR [eax-1]
	cmovle	ecx, edx
	push	ecx
	push	edx
	push	edx
	push	DWORD PTR [esi+12]
	push	5
	push	edi
	call	_xmlExpHashGetEntry
	add	esp, 28					; 0000001cH
	mov	DWORD PTR _tmp2$1$[ebp], eax

; 7490 : 				      sub->exp_left, NULL, NULL, min, max);
; 7491 : 		    if (tmp2 == NULL) {

	test	eax, eax
	jne	SHORT $LN39@xmlExpExpD

; 7492 : 		        xmlExpFree(ctxt, tmp);

	push	ebx
	push	edi
	call	_xmlExpFree
	add	esp, 8
$LN149@xmlExpExpD:

; 7763 : }

	pop	edi
	pop	esi
	xor	eax, eax
	pop	ebx
	mov	esp, ebp
	pop	ebp
	ret	0
$LN39@xmlExpExpD:

; 7493 : 			return(NULL);
; 7494 : 		    }
; 7495 : 		    ret = xmlExpExpDeriveInt(ctxt, tmp, tmp2);

	push	eax
	push	ebx
	push	edi
	call	_xmlExpExpDeriveInt

; 7496 : 		    xmlExpFree(ctxt, tmp);

	push	ebx
	push	edi
	mov	esi, eax
	call	_xmlExpFree

; 7497 : 		    xmlExpFree(ctxt, tmp2);

	push	DWORD PTR _tmp2$1$[ebp]
	push	edi
	call	_xmlExpFree
	add	esp, 28					; 0000001cH

; 7498 : 		    return(ret);

	mov	eax, esi
	pop	edi

; 7763 : }

	pop	esi
	pop	ebx
	mov	esp, ebp
	pop	ebp
	ret	0
$LN40@xmlExpExpD:

; 7499 : 		}
; 7500 : 	    }
; 7501 : 	    /* we made no progress on structured operations */
; 7502 : 	    break;
; 7503 :         case XML_EXP_OR:
; 7504 : #ifdef DEBUG_DERIV
; 7505 : 	    printf("Or , trying both side\n");
; 7506 : #endif
; 7507 : 	    ret = xmlExpExpDeriveInt(ctxt, exp->exp_left, sub);

	push	esi
	push	DWORD PTR [ebx+12]
	push	edi
	call	_xmlExpExpDeriveInt
	add	esp, 12					; 0000000cH
	mov	DWORD PTR _ret$6$[ebp], eax

; 7508 : 	    if (ret == NULL)

	test	eax, eax
	je	SHORT $LN149@xmlExpExpD

; 7509 : 	        return(NULL);
; 7510 : 	    tmp = xmlExpExpDeriveInt(ctxt, exp->exp_right, sub);

	push	esi
	push	DWORD PTR [ebx+20]
	push	edi
	call	_xmlExpExpDeriveInt
	add	esp, 12					; 0000000cH

; 7511 : 	    if (tmp == NULL) {

	test	eax, eax
	jne	SHORT $LN42@xmlExpExpD

; 7512 : 		xmlExpFree(ctxt, ret);

	push	DWORD PTR _ret$6$[ebp]
	push	edi
	call	_xmlExpFree
	add	esp, 8

; 7513 : 	        return(NULL);

	xor	eax, eax
	pop	edi

; 7763 : }

	pop	esi
	pop	ebx
	mov	esp, ebp
	pop	ebp
	ret	0
$LN42@xmlExpExpD:

; 7514 : 	    }
; 7515 : 	    return(xmlExpHashGetEntry(ctxt, XML_EXP_OR, ret, tmp, NULL, 0, 0));

	push	0
	push	0
	push	0
	push	eax
	push	DWORD PTR _ret$6$[ebp]
	push	4
	push	edi
	call	_xmlExpHashGetEntry
	add	esp, 28					; 0000001cH
	pop	edi

; 7763 : }

	pop	esi
	pop	ebx
	mov	esp, ebp
	pop	ebp
	ret	0
$LN43@xmlExpExpD:

; 7516 :         case XML_EXP_COUNT: {
; 7517 : 	    int min, max;
; 7518 : 
; 7519 : 	    if (sub->type == XML_EXP_COUNT) {

	cmp	BYTE PTR [esi], 5
	jne	$LN44@xmlExpExpD

; 7520 : 	        /*
; 7521 : 		 * Try to see if the loop is completely subsumed
; 7522 : 		 */
; 7523 : 	        tmp = xmlExpExpDeriveInt(ctxt, exp->exp_left, sub->exp_left);

	push	DWORD PTR [esi+12]
	push	DWORD PTR [ebx+12]
	push	edi
	call	_xmlExpExpDeriveInt
	mov	edi, eax
	add	esp, 12					; 0000000cH

; 7524 : 		if (tmp == NULL)

	test	edi, edi
	je	$LN149@xmlExpExpD

; 7525 : 		    return(NULL);
; 7526 : 		if (tmp == forbiddenExp) {

	cmp	edi, DWORD PTR _forbiddenExp
	jne	$LN46@xmlExpExpD

; 7527 : 		    int mult;
; 7528 : 
; 7529 : #ifdef DEBUG_DERIV
; 7530 : 		    printf("Count, Count inner don't subsume\n");
; 7531 : #endif
; 7532 : 		    mult = xmlExpDivide(ctxt, sub->exp_left, exp->exp_left,

	mov	eax, DWORD PTR [esi+12]
	mov	ecx, DWORD PTR [ebx+12]
	mov	DWORD PTR _sub$1$[ebp], ecx
	mov	DWORD PTR _exp$1$[ebp], eax

; 7272 :     if (exp->c_max == -1) return(0);

	mov	edx, DWORD PTR [eax+8]
	cmp	edx, -1
	je	$LN158@xmlExpExpD

; 7273 :     if (IS_NILLABLE(exp) && (!IS_NILLABLE(sub))) return(0);

	test	BYTE PTR [eax+1], 1
	je	SHORT $LN111@xmlExpExpD
	test	BYTE PTR [ecx+1], 1
	je	$LN158@xmlExpExpD
$LN111@xmlExpExpD:

; 7274 : 
; 7275 :     for (i = 1;i <= exp->c_max;i++) {

	mov	eax, 1
	mov	DWORD PTR _i$1$[ebp], eax
	cmp	edx, eax
	jl	$LN158@xmlExpExpD
	mov	edi, DWORD PTR _ctxt$[ebp]
$LL107@xmlExpExpD:

; 7276 :         sub->ref++;

	inc	DWORD PTR [ecx+4]

; 7277 :         tmp = xmlExpHashGetEntry(ctxt, XML_EXP_COUNT,

	push	eax
	push	eax
	push	0
	push	0
	push	ecx
	push	5
	push	edi
	call	_xmlExpHashGetEntry
	add	esp, 28					; 0000001cH
	mov	DWORD PTR $T1[ebp], eax

; 7278 : 				 sub, NULL, NULL, i, i);
; 7279 : 	if (tmp == NULL) {

	test	eax, eax
	je	$LN158@xmlExpExpD

; 7234 :     if (sub->c_max == -1) {

	mov	edx, DWORD PTR _exp$1$[ebp]
	mov	ecx, DWORD PTR [eax+8]
	mov	edx, DWORD PTR [edx+8]
	cmp	edx, -1
	je	SHORT $LN125@xmlExpExpD

; 7235 :         if (exp->c_max != -1)
; 7236 : 	    ret = 0;
; 7237 :     } else if ((exp->c_max >= 0) && (exp->c_max < sub->c_max)) {

	test	ecx, ecx
	js	SHORT $LN113@xmlExpExpD
	cmp	ecx, edx
	jge	SHORT $LN113@xmlExpExpD

; 7282 : 	if (!xmlExpCheckCard(tmp, exp)) {

	jmp	SHORT $LN105@xmlExpExpD
$LN125@xmlExpExpD:
	cmp	ecx, -1
	jne	SHORT $LN105@xmlExpExpD
$LN113@xmlExpExpD:

; 7283 : 	    xmlExpFree(ctxt, tmp);
; 7284 : 	    continue;
; 7285 : 	}
; 7286 : 	tmp2 = xmlExpExpDeriveInt(ctxt, tmp, exp);

	push	DWORD PTR _exp$1$[ebp]
	push	eax
	push	edi
	call	_xmlExpExpDeriveInt
	mov	edi, eax
	add	esp, 12					; 0000000cH

; 7287 : 	if (tmp2 == NULL) {

	test	edi, edi
	je	$LN131@xmlExpExpD

; 7290 : 	}
; 7291 : 	if ((tmp2 != forbiddenExp) && (IS_NILLABLE(tmp2))) {

	cmp	edi, DWORD PTR _forbiddenExp
	je	SHORT $LN115@xmlExpExpD
	test	BYTE PTR [edi+1], 1
	jne	SHORT $LN132@xmlExpExpD
$LN115@xmlExpExpD:

; 7300 : #ifdef DEBUG_DERIV
; 7301 : 	    printf("Divide succeeded %d\n", i);
; 7302 : #endif
; 7303 : 	    return(i);
; 7304 : 	}
; 7305 : 	xmlExpFree(ctxt, tmp);

	push	DWORD PTR $T1[ebp]
	mov	eax, DWORD PTR _ctxt$[ebp]
	push	eax
	call	_xmlExpFree

; 7306 : 	xmlExpFree(ctxt, tmp2);

	mov	eax, edi
	add	esp, 8
	mov	edi, DWORD PTR _ctxt$[ebp]
$LN105@xmlExpExpD:

; 7274 : 
; 7275 :     for (i = 1;i <= exp->c_max;i++) {

	push	eax
	push	edi
	call	_xmlExpFree
	mov	eax, DWORD PTR _i$1$[ebp]
	add	esp, 8
	mov	ecx, DWORD PTR _exp$1$[ebp]
	inc	eax
	mov	DWORD PTR _i$1$[ebp], eax
	cmp	eax, DWORD PTR [ecx+8]
	jg	$LN158@xmlExpExpD
	mov	ecx, DWORD PTR _sub$1$[ebp]
	jmp	$LL107@xmlExpExpD
$LN132@xmlExpExpD:

; 7292 : 	    if (remain != NULL)
; 7293 : 	        *remain = tmp2;
; 7294 : 	    else
; 7295 : 	        xmlExpFree(ctxt, tmp2);
; 7296 : 	    if (mult != NULL)
; 7297 : 	        *mult = tmp;
; 7298 : 	    else
; 7299 : 	        xmlExpFree(ctxt, tmp);

	push	DWORD PTR $T1[ebp]
	mov	eax, DWORD PTR _ctxt$[ebp]
	push	eax
	call	_xmlExpFree

; 7533 : 		                        NULL, &tmp);
; 7534 : 		    if (mult <= 0) {

	mov	eax, DWORD PTR _i$1$[ebp]

; 7299 : 	        xmlExpFree(ctxt, tmp);

	add	esp, 8

; 7533 : 		                        NULL, &tmp);
; 7534 : 		    if (mult <= 0) {

	test	eax, eax
	jle	SHORT $LN158@xmlExpExpD

; 7535 : #ifdef DEBUG_DERIV
; 7536 : 			printf("Count, Count not multiple => forbidden\n");
; 7537 : #endif
; 7538 :                         return(forbiddenExp);
; 7539 : 		    }
; 7540 : 		    if (sub->exp_max == -1) {

	mov	ecx, DWORD PTR [esi+24]
	mov	edx, DWORD PTR [ebx+24]
	cmp	ecx, -1
	jne	SHORT $LN49@xmlExpExpD

; 7541 : 		        max = -1;
; 7542 : 			if (exp->exp_max == -1) {

	cmp	edx, ecx
	jne	SHORT $LN152@xmlExpExpD

; 7543 : 			    if (exp->exp_min <= sub->exp_min * mult)

	mov	edx, DWORD PTR [esi+20]

; 7544 : 			        min = 0;
; 7545 : 			    else
; 7546 : 			        min = exp->exp_min - sub->exp_min * mult;
; 7547 : 			} else {
; 7548 : #ifdef DEBUG_DERIV
; 7549 : 			    printf("Count, Count finite can't subsume infinite\n");
; 7550 : #endif
; 7551 :                             xmlExpFree(ctxt, tmp);
; 7552 : 			    return(forbiddenExp);
; 7553 : 			}
; 7554 : 		    } else {

	xor	esi, esi
	mov	ecx, DWORD PTR [ebx+20]
	imul	edx, eax
	sub	ecx, edx
	cmp	DWORD PTR [ebx+20], edx
	cmovg	esi, ecx
	or	edx, -1
	jmp	$LN73@xmlExpExpD
$LN49@xmlExpExpD:

; 7555 : 			if (exp->exp_max == -1) {

	cmp	edx, -1
	jne	SHORT $LN55@xmlExpExpD

; 7556 : #ifdef DEBUG_DERIV
; 7557 : 			    printf("Infinite loop consume mult finite loop\n");
; 7558 : #endif
; 7559 : 			    if (exp->exp_min > sub->exp_min * mult) {

	mov	ecx, DWORD PTR [esi+20]

; 7560 : 				max = -1;
; 7561 : 				min = exp->exp_min - sub->exp_min * mult;
; 7562 : 			    } else {
; 7563 : 				max = -1;
; 7564 : 				min = 0;
; 7565 : 			    }
; 7566 : 			} else {

	or	edx, edx
	mov	esi, DWORD PTR [ebx+20]
	imul	ecx, eax
	mov	DWORD PTR tv1364[ebp], 0
	sub	esi, ecx
	cmp	DWORD PTR [ebx+20], ecx
	cmovle	esi, DWORD PTR tv1364[ebp]
	jmp	$LN73@xmlExpExpD
$LN55@xmlExpExpD:

; 7567 : 			    if (exp->exp_max < sub->exp_max * mult) {

	imul	ecx, eax
	mov	DWORD PTR tv1434[ebp], ecx
	cmp	edx, ecx
	jge	SHORT $LN59@xmlExpExpD
$LN152@xmlExpExpD:

; 7763 : }

	push	edi
$LN161@xmlExpExpD:
	push	DWORD PTR _ctxt$[ebp]
	call	_xmlExpFree
	add	esp, 8
$LN158@xmlExpExpD:
	mov	eax, DWORD PTR _forbiddenExp
$LN1@xmlExpExpD:
	pop	edi
	pop	esi
	pop	ebx
	mov	esp, ebp
	pop	ebp
	ret	0
$LN59@xmlExpExpD:

; 7568 : #ifdef DEBUG_DERIV
; 7569 : 				printf("loops max mult mismatch => forbidden\n");
; 7570 : #endif
; 7571 : 				xmlExpFree(ctxt, tmp);
; 7572 : 				return(forbiddenExp);
; 7573 : 			    }
; 7574 : 			    if (sub->exp_max * mult > exp->exp_min)

	mov	ecx, DWORD PTR [ebx+20]

; 7575 : 				min = 0;
; 7576 : 			    else
; 7577 : 				min = exp->exp_min - sub->exp_max * mult;
; 7578 : 			    max = exp->exp_max - sub->exp_max * mult;

	xor	esi, esi
	sub	edx, DWORD PTR tv1434[ebp]
	mov	eax, ecx
	sub	eax, DWORD PTR tv1434[ebp]
	cmp	DWORD PTR tv1434[ebp], ecx

; 7579 : 			}
; 7580 : 		    }

	jmp	SHORT $LN160@xmlExpExpD
$LN131@xmlExpExpD:

; 7288 : 	    xmlExpFree(ctxt, tmp);

	push	DWORD PTR $T1[ebp]

; 7289 : 	    return(-1);

	jmp	SHORT $LN161@xmlExpExpD
$LN46@xmlExpExpD:

; 7581 : 		} else if (!IS_NILLABLE(tmp)) {

	test	BYTE PTR [edi+1], 1
	je	SHORT $LN152@xmlExpExpD

; 7582 : 		    /*
; 7583 : 		     * TODO: loop here to try to grow if working on finite
; 7584 : 		     *       blocks.
; 7585 : 		     */
; 7586 : #ifdef DEBUG_DERIV
; 7587 : 		    printf("Count, Count remain not nillable => forbidden\n");
; 7588 : #endif
; 7589 : 		    xmlExpFree(ctxt, tmp);
; 7590 : 		    return(forbiddenExp);
; 7591 : 		} else if (sub->exp_max == -1) {

	mov	eax, DWORD PTR [esi+24]
	mov	edx, DWORD PTR [ebx+24]
	mov	DWORD PTR tv1450[ebp], eax
	cmp	eax, -1
	jne	SHORT $LN64@xmlExpExpD

; 7592 : 		    if (exp->exp_max == -1) {

	mov	esi, DWORD PTR [esi+20]
	mov	ecx, DWORD PTR [ebx+20]
	mov	DWORD PTR tv1444[ebp], esi
	cmp	edx, eax
	jne	SHORT $LN66@xmlExpExpD

; 7593 : 		        if (exp->exp_min <= sub->exp_min) {
; 7594 : #ifdef DEBUG_DERIV
; 7595 : 			    printf("Infinite loops Okay => COUNT(0,Inf)\n");
; 7596 : #endif
; 7597 :                             max = -1;
; 7598 : 			    min = 0;
; 7599 : 			} else {
; 7600 : #ifdef DEBUG_DERIV
; 7601 : 			    printf("Infinite loops min => Count(X,Inf)\n");
; 7602 : #endif
; 7603 :                             max = -1;
; 7604 : 			    min = exp->exp_min - sub->exp_min;
; 7605 : 			}

	mov	eax, ecx
	sub	eax, esi
	xor	esi, esi
	cmp	ecx, DWORD PTR tv1444[ebp]
	cmovg	esi, eax

; 7615 : 		    }
; 7616 : 		} else {

	or	edx, -1
	jmp	SHORT $LN73@xmlExpExpD
$LN66@xmlExpExpD:

; 7606 : 		    } else if (exp->exp_min > sub->exp_min) {

	cmp	ecx, esi
	jg	SHORT $LN152@xmlExpExpD

; 7607 : #ifdef DEBUG_DERIV
; 7608 : 			printf("loops min mismatch 1 => forbidden ???\n");
; 7609 : #endif
; 7610 : 		        xmlExpFree(ctxt, tmp);
; 7611 : 		        return(forbiddenExp);
; 7612 : 		    } else {
; 7613 : 			max = -1;
; 7614 : 			min = 0;

	xor	esi, esi

; 7615 : 		    }
; 7616 : 		} else {

	or	edx, -1
	jmp	SHORT $LN73@xmlExpExpD
$LN64@xmlExpExpD:

; 7617 : 		    if (exp->exp_max == -1) {

	cmp	edx, -1
	jne	SHORT $LN72@xmlExpExpD

; 7618 : #ifdef DEBUG_DERIV
; 7619 : 			printf("Infinite loop consume finite loop\n");
; 7620 : #endif
; 7621 : 		        if (exp->exp_min > sub->exp_min) {

	mov	eax, DWORD PTR [esi+20]

; 7622 : 			    max = -1;
; 7623 : 			    min = exp->exp_min - sub->exp_min;
; 7624 : 			} else {
; 7625 : 			    max = -1;
; 7626 : 			    min = 0;
; 7627 : 			}
; 7628 : 		    } else {

	or	edx, edx
	mov	esi, DWORD PTR [ebx+20]
	sub	esi, eax
	mov	DWORD PTR tv1375[ebp], 0
	cmp	DWORD PTR [ebx+20], eax
	cmovle	esi, DWORD PTR tv1375[ebp]
	jmp	SHORT $LN73@xmlExpExpD
$LN72@xmlExpExpD:

; 7629 : 		        if (exp->exp_max < sub->exp_max) {

	cmp	edx, eax
	jl	$LN152@xmlExpExpD

; 7630 : #ifdef DEBUG_DERIV
; 7631 : 			    printf("loops max mismatch => forbidden\n");
; 7632 : #endif
; 7633 : 			    xmlExpFree(ctxt, tmp);
; 7634 : 			    return(forbiddenExp);
; 7635 : 			}
; 7636 : 			if (sub->exp_max > exp->exp_min)

	mov	ecx, DWORD PTR [ebx+20]

; 7637 : 			    min = 0;
; 7638 : 			else
; 7639 : 			    min = exp->exp_min - sub->exp_max;
; 7640 : 			max = exp->exp_max - sub->exp_max;

	sub	edx, eax
	mov	eax, ecx
	xor	esi, esi
	sub	eax, DWORD PTR tv1450[ebp]
	cmp	DWORD PTR tv1450[ebp], ecx
$LN160@xmlExpExpD:

; 7641 : 		    }
; 7642 : 		}
; 7643 : #ifdef DEBUG_DERIV
; 7644 : 		printf("loops match => SEQ(COUNT())\n");
; 7645 : #endif
; 7646 : 		exp->exp_left->ref++;

	cmovle	esi, eax
$LN73@xmlExpExpD:
	mov	eax, DWORD PTR [ebx+12]

; 7647 : 		tmp2 = xmlExpHashGetEntry(ctxt, XML_EXP_COUNT, exp->exp_left,

	push	edx
	push	esi
	push	0
	inc	DWORD PTR [eax+4]
	push	0
	push	DWORD PTR [ebx+12]
	mov	ebx, DWORD PTR _ctxt$[ebp]
	push	5
	push	ebx
	call	_xmlExpHashGetEntry
	add	esp, 28					; 0000001cH

; 7648 : 		                          NULL, NULL, min, max);
; 7649 : 		if (tmp2 == NULL) {

	test	eax, eax
	je	$LN149@xmlExpExpD

; 7650 : 		    return(NULL);
; 7651 : 		}
; 7652 :                 ret = xmlExpHashGetEntry(ctxt, XML_EXP_SEQ, tmp, tmp2,

	push	0
	push	0
	push	0
	push	eax
	push	edi
	push	3
	push	ebx
	call	_xmlExpHashGetEntry
	add	esp, 28					; 0000001cH
	pop	edi

; 7763 : }

	pop	esi
	pop	ebx
	mov	esp, ebp
	pop	ebp
	ret	0
$LN44@xmlExpExpD:

; 7653 : 		                         NULL, 0, 0);
; 7654 : 		return(ret);
; 7655 : 	    }
; 7656 : 	    tmp = xmlExpExpDeriveInt(ctxt, exp->exp_left, sub);

	push	esi
	push	DWORD PTR [ebx+12]
	push	edi
	call	_xmlExpExpDeriveInt
	mov	edi, eax
	add	esp, 12					; 0000000cH

; 7657 : 	    if (tmp == NULL)

	test	edi, edi
	je	$LN149@xmlExpExpD

; 7658 : 		return(NULL);
; 7659 : 	    if (tmp == forbiddenExp) {

	cmp	edi, DWORD PTR _forbiddenExp
	je	$LN158@xmlExpExpD

; 7660 : #ifdef DEBUG_DERIV
; 7661 : 		printf("loop mismatch => forbidden\n");
; 7662 : #endif
; 7663 : 		return(forbiddenExp);
; 7664 : 	    }
; 7665 : 	    if (exp->exp_min > 0)
; 7666 : 		min = exp->exp_min - 1;
; 7667 : 	    else
; 7668 : 		min = 0;
; 7669 : 	    if (exp->exp_max < 0)
; 7670 : 		max = -1;
; 7671 : 	    else
; 7672 : 		max = exp->exp_max - 1;
; 7673 : 
; 7674 : #ifdef DEBUG_DERIV
; 7675 : 	    printf("loop match => SEQ(COUNT())\n");
; 7676 : #endif
; 7677 : 	    exp->exp_left->ref++;

	mov	ecx, DWORD PTR [ebx+12]
	or	eax, -1
	mov	edx, DWORD PTR [ebx+24]
	mov	esi, DWORD PTR [ebx+20]
	inc	DWORD PTR [ecx+4]
	test	edx, edx
	lea	ecx, DWORD PTR [edx-1]
	cmovns	eax, ecx
	xor	ecx, ecx

; 7678 : 	    tmp2 = xmlExpHashGetEntry(ctxt, XML_EXP_COUNT, exp->exp_left,

	push	eax
	test	esi, esi
	lea	eax, DWORD PTR [esi-1]
	mov	esi, DWORD PTR _ctxt$[ebp]
	cmovle	eax, ecx
	push	eax
	push	ecx
	push	ecx
	push	DWORD PTR [ebx+12]
	push	5
	push	esi
	call	_xmlExpHashGetEntry
	add	esp, 28					; 0000001cH

; 7679 : 				      NULL, NULL, min, max);
; 7680 : 	    if (tmp2 == NULL)

	test	eax, eax
	je	$LN149@xmlExpExpD

; 7681 : 		return(NULL);
; 7682 : 	    ret = xmlExpHashGetEntry(ctxt, XML_EXP_SEQ, tmp, tmp2,

	push	0
	push	0
	push	0
	push	eax
	push	edi
	push	3
	push	esi
	call	_xmlExpHashGetEntry
	add	esp, 28					; 0000001cH
	pop	edi

; 7763 : }

	pop	esi
	pop	ebx
	mov	esp, ebp
	pop	ebp
	ret	0
$LN157@xmlExpExpD:

; 7683 : 				     NULL, 0, 0);
; 7684 : 	    return(ret);
; 7685 : 	}
; 7686 :     }
; 7687 : 
; 7688 : #ifdef DEBUG_DERIV
; 7689 :     printf("Fallback to derivative\n");
; 7690 : #endif
; 7691 :     if (IS_NILLABLE(sub)) {

	test	BYTE PTR [esi+1], 1
	je	SHORT $LN87@xmlExpExpD

; 7692 :         if (!(IS_NILLABLE(exp)))

	test	BYTE PTR [ebx+1], 1
	je	$LN158@xmlExpExpD

; 7693 : 	    return(forbiddenExp);
; 7694 : 	else
; 7695 : 	    ret = emptyExp;

	mov	eax, DWORD PTR _emptyExp
	mov	DWORD PTR _ret$7$[ebp], eax

; 7696 :     } else

	jmp	SHORT $LN88@xmlExpExpD
$LN87@xmlExpExpD:

; 7697 : 	ret = NULL;

	mov	DWORD PTR _ret$7$[ebp], 0
$LN88@xmlExpExpD:

; 7698 :     /*
; 7699 :      * here the structured derivation made no progress so
; 7700 :      * we use the default token based derivation to force one more step
; 7701 :      */
; 7702 :     if (ctxt->tabSize == 0)

	mov	eax, DWORD PTR [edi+36]
	test	eax, eax
	jne	SHORT $LN91@xmlExpExpD

; 7703 :         ctxt->tabSize = 40;

	mov	DWORD PTR [edi+36], 40			; 00000028H
	mov	eax, 40					; 00000028H
$LN91@xmlExpExpD:

; 7704 : 
; 7705 :     tab = (const xmlChar **) xmlMalloc(ctxt->tabSize *

	shl	eax, 2
	push	eax
	call	DWORD PTR _xmlMalloc
	add	esp, 4
	mov	DWORD PTR _tab$1$[ebp], eax

; 7706 : 	                               sizeof(const xmlChar *));
; 7707 :     if (tab == NULL) {

	test	eax, eax
	je	$LN149@xmlExpExpD

; 7708 : 	return(NULL);
; 7709 :     }
; 7710 : 
; 7711 :     /*
; 7712 :      * collect all the strings accepted by the subexpression on input
; 7713 :      */
; 7714 :     len = xmlExpGetStartInt(ctxt, sub, tab, ctxt->tabSize, 0);

	push	0
	push	DWORD PTR [edi+36]
	push	eax
	push	esi
	push	edi
	call	_xmlExpGetStartInt
	add	esp, 20					; 00000014H
	mov	DWORD PTR _len$1$[ebp], eax

; 7715 :     while (len < 0) {

	test	eax, eax
	jns	SHORT $LN5@xmlExpExpD
	npad	4
$LL4@xmlExpExpD:

; 7716 :         const xmlChar **temp;
; 7717 : 	temp = (const xmlChar **) xmlRealloc((xmlChar **) tab, ctxt->tabSize * 2 *

	mov	eax, DWORD PTR [edi+36]
	shl	eax, 3
	push	eax
	push	DWORD PTR _tab$1$[ebp]
	call	DWORD PTR _xmlRealloc
	add	esp, 8

; 7718 : 	                                     sizeof(const xmlChar *));
; 7719 : 	if (temp == NULL) {

	test	eax, eax
	je	$LN133@xmlExpExpD

; 7720 : 	    xmlFree((xmlChar **) tab);
; 7721 : 	    return(NULL);
; 7722 : 	}
; 7723 : 	tab = temp;
; 7724 : 	ctxt->tabSize *= 2;

	mov	ecx, DWORD PTR [edi+36]

; 7725 : 	len = xmlExpGetStartInt(ctxt, sub, tab, ctxt->tabSize, 0);

	push	0
	add	ecx, ecx
	mov	DWORD PTR _tab$1$[ebp], eax
	push	ecx
	push	eax
	push	esi
	push	edi
	mov	DWORD PTR [edi+36], ecx
	call	_xmlExpGetStartInt
	add	esp, 20					; 00000014H
	mov	DWORD PTR _len$1$[ebp], eax
	test	eax, eax
	js	SHORT $LL4@xmlExpExpD
$LN5@xmlExpExpD:

; 7726 :     }
; 7727 :     for (i = 0;i < len;i++) {

	xor	ecx, ecx
	mov	DWORD PTR _i$1$[ebp], ecx
	test	eax, eax
	jle	$LN7@xmlExpExpD
	npad	8
$LL8@xmlExpExpD:

; 7728 :         tmp = xmlExpStringDeriveInt(ctxt, exp, tab[i]);

	mov	eax, DWORD PTR _tab$1$[ebp]
	push	DWORD PTR [eax+ecx*4]
	lea	eax, DWORD PTR [eax+ecx*4]
	push	ebx
	push	edi
	mov	DWORD PTR tv1407[ebp], eax
	call	_xmlExpStringDeriveInt
	add	esp, 12					; 0000000cH
	mov	DWORD PTR _tmp$7$[ebp], eax

; 7729 : 	if ((tmp == NULL) || (tmp == forbiddenExp)) {

	test	eax, eax
	je	$LN95@xmlExpExpD
	cmp	eax, DWORD PTR _forbiddenExp
	je	$LN95@xmlExpExpD

; 7733 : 	}
; 7734 : 	tmp2 = xmlExpStringDeriveInt(ctxt, sub, tab[i]);

	mov	eax, DWORD PTR tv1407[ebp]
	push	DWORD PTR [eax]
	push	esi
	push	edi
	call	_xmlExpStringDeriveInt
	add	esp, 12					; 0000000cH
	mov	DWORD PTR _tmp2$4$[ebp], eax

; 7735 : 	if ((tmp2 == NULL) || (tmp2 == forbiddenExp)) {

	test	eax, eax
	je	$LN97@xmlExpExpD
	cmp	eax, DWORD PTR _forbiddenExp
	je	$LN97@xmlExpExpD

; 7740 : 	}
; 7741 : 	tmp3 = xmlExpExpDeriveInt(ctxt, tmp, tmp2);

	push	eax
	push	DWORD PTR _tmp$7$[ebp]
	push	edi
	call	_xmlExpExpDeriveInt

; 7742 : 	xmlExpFree(ctxt, tmp);

	push	DWORD PTR _tmp$7$[ebp]
	mov	DWORD PTR _tmp3$1$[ebp], eax
	push	edi
	call	_xmlExpFree

; 7743 : 	xmlExpFree(ctxt, tmp2);

	push	DWORD PTR _tmp2$4$[ebp]
	push	edi
	call	_xmlExpFree

; 7744 : 
; 7745 : 	if ((tmp3 == NULL) || (tmp3 == forbiddenExp)) {

	mov	ecx, DWORD PTR _tmp3$1$[ebp]
	add	esp, 28					; 0000001cH
	test	ecx, ecx
	je	SHORT $LN99@xmlExpExpD
	cmp	ecx, DWORD PTR _forbiddenExp
	je	SHORT $LN99@xmlExpExpD

; 7749 : 	}
; 7750 : 
; 7751 : 	if (ret == NULL)

	mov	eax, DWORD PTR _ret$7$[ebp]
	test	eax, eax
	jne	SHORT $LN100@xmlExpExpD

; 7752 : 	    ret = tmp3;

	mov	DWORD PTR _ret$7$[ebp], ecx
	jmp	SHORT $LN6@xmlExpExpD
$LN133@xmlExpExpD:

; 7763 : }

	push	DWORD PTR _tab$1$[ebp]
	call	DWORD PTR _xmlFree
	add	esp, 4
	xor	eax, eax
	pop	edi
	pop	esi
	pop	ebx
	mov	esp, ebp
	pop	ebp
	ret	0
$LN100@xmlExpExpD:

; 7753 : 	else {
; 7754 : 	    ret = xmlExpHashGetEntry(ctxt, XML_EXP_OR, ret, tmp3, NULL, 0, 0);

	push	0
	push	0
	push	0
	push	ecx
	push	eax
	push	4
	push	edi
	call	_xmlExpHashGetEntry
	add	esp, 28					; 0000001cH
	mov	DWORD PTR _ret$7$[ebp], eax

; 7755 : 	    if (ret == NULL) {

	test	eax, eax
	je	SHORT $LN133@xmlExpExpD
$LN6@xmlExpExpD:

; 7726 :     }
; 7727 :     for (i = 0;i < len;i++) {

	mov	ecx, DWORD PTR _i$1$[ebp]
	inc	ecx
	mov	DWORD PTR _i$1$[ebp], ecx
	cmp	ecx, DWORD PTR _len$1$[ebp]
	jl	$LL8@xmlExpExpD
$LN7@xmlExpExpD:

; 7756 : 		xmlFree((xmlChar **) tab);
; 7757 : 	        return(NULL);
; 7758 : 	    }
; 7759 : 	}
; 7760 :     }
; 7761 :     xmlFree((xmlChar **) tab);

	push	DWORD PTR _tab$1$[ebp]
	call	DWORD PTR _xmlFree

; 7762 :     return(ret);

	mov	eax, DWORD PTR _ret$7$[ebp]
	add	esp, 4
	pop	edi

; 7763 : }

	pop	esi
	pop	ebx
	mov	esp, ebp
	pop	ebp
	ret	0
$LN99@xmlExpExpD:

; 7746 : 	    xmlExpFree(ctxt, ret);

	push	DWORD PTR _ret$7$[ebp]
	push	edi
	call	_xmlExpFree

; 7747 : 	    xmlFree((xmlChar **) tab);

	push	DWORD PTR _tab$1$[ebp]
	call	DWORD PTR _xmlFree

; 7748 : 	    return(tmp3);

	mov	eax, DWORD PTR _tmp3$1$[ebp]
	add	esp, 12					; 0000000cH
	pop	edi

; 7763 : }

	pop	esi
	pop	ebx
	mov	esp, ebp
	pop	ebp
	ret	0
$LN97@xmlExpExpD:

; 7736 : 	    xmlExpFree(ctxt, tmp);

	mov	ebx, DWORD PTR _tmp$7$[ebp]
	push	ebx
	push	edi
	call	_xmlExpFree

; 7737 : 	    xmlExpFree(ctxt, ret);

	push	DWORD PTR _ret$7$[ebp]
	push	edi
	call	_xmlExpFree

; 7738 : 	    xmlFree((xmlChar **) tab);

	push	DWORD PTR _tab$1$[ebp]
	call	DWORD PTR _xmlFree
	add	esp, 20					; 00000014H

; 7739 : 	    return(tmp);

	mov	eax, ebx
	pop	edi

; 7763 : }

	pop	esi
	pop	ebx
	mov	esp, ebp
	pop	ebp
	ret	0
$LN95@xmlExpExpD:

; 7730 : 	    xmlExpFree(ctxt, ret);

	push	DWORD PTR _ret$7$[ebp]
	push	edi
	call	_xmlExpFree

; 7731 : 	    xmlFree((xmlChar **) tab);

	push	DWORD PTR _tab$1$[ebp]
	call	DWORD PTR _xmlFree

; 7732 : 	    return(tmp);

	mov	eax, DWORD PTR _tmp$7$[ebp]
	add	esp, 12					; 0000000cH
	pop	edi

; 7763 : }

	pop	esi
	pop	ebx
	mov	esp, ebp
	pop	ebp
	ret	0
	npad	1
$LN163@xmlExpExpD:
	DD	$LN20@xmlExpExpD
	DD	$LN158@xmlExpExpD
	DD	$LN23@xmlExpExpD
	DD	$LN28@xmlExpExpD
	DD	$LN40@xmlExpExpD
	DD	$LN43@xmlExpExpD
_xmlExpExpDeriveInt ENDP
_TEXT	ENDS
; Function compile flags: /Ogtp
; File c:\users\dag\documents\_clients\codeproject authors group\windows on arm\libxml2\libxml2-2.9.9\xmlregexp.c
;	COMDAT _xmlExpCheckCard
_TEXT	SEGMENT
_exp$ = 8						; size = 4
_sub$ = 12						; size = 4
_xmlExpCheckCard PROC					; COMDAT

; 7231 : xmlExpCheckCard(xmlExpNodePtr exp, xmlExpNodePtr sub) {

	push	ebp
	mov	ebp, esp
	push	esi
	mov	ecx, OFFSET __F6DD4902_xmlregexp@c
	call	@__CheckForDebuggerJustMyCode@4
	mov	eax, DWORD PTR _sub$[ebp]
	mov	ecx, 1
	mov	esi, DWORD PTR [eax+8]
	mov	eax, DWORD PTR _exp$[ebp]
	mov	edx, DWORD PTR [eax+8]
	cmp	esi, -1
	jne	SHORT $LN2@xmlExpChec

; 7232 :     int ret = 1;
; 7233 : 
; 7234 :     if (sub->c_max == -1) {
; 7235 :         if (exp->c_max != -1)
; 7236 : 	    ret = 0;
; 7237 :     } else if ((exp->c_max >= 0) && (exp->c_max < sub->c_max)) {

	xor	eax, eax
	cmp	edx, esi
	pop	esi
	sete	al

; 7238 :         ret = 0;
; 7239 :     }
; 7240 : #if 0
; 7241 :     if ((IS_NILLABLE(sub)) && (!IS_NILLABLE(exp)))
; 7242 :         ret = 0;
; 7243 : #endif
; 7244 :     return(ret);
; 7245 : }

	pop	ebp
	ret	0
$LN2@xmlExpChec:

; 7232 :     int ret = 1;
; 7233 : 
; 7234 :     if (sub->c_max == -1) {
; 7235 :         if (exp->c_max != -1)
; 7236 : 	    ret = 0;
; 7237 :     } else if ((exp->c_max >= 0) && (exp->c_max < sub->c_max)) {

	test	edx, edx
	js	SHORT $LN7@xmlExpChec
	xor	eax, eax
	cmp	edx, esi
	cmovl	ecx, eax
$LN7@xmlExpChec:

; 7238 :         ret = 0;
; 7239 :     }
; 7240 : #if 0
; 7241 :     if ((IS_NILLABLE(sub)) && (!IS_NILLABLE(exp)))
; 7242 :         ret = 0;
; 7243 : #endif
; 7244 :     return(ret);
; 7245 : }

	mov	eax, ecx
	pop	esi
	pop	ebp
	ret	0
_xmlExpCheckCard ENDP
_TEXT	ENDS
; Function compile flags: /Ogtp
; File c:\users\dag\documents\_clients\codeproject authors group\windows on arm\libxml2\libxml2-2.9.9\xmlregexp.c
;	COMDAT _xmlExpStringDeriveInt
_TEXT	SEGMENT
_ctxt$ = 8						; size = 4
tv358 = 12						; size = 4
_exp$ = 12						; size = 4
_str$ = 16						; size = 4
_xmlExpStringDeriveInt PROC				; COMDAT

; 7091 : {

	push	ebp
	mov	ebp, esp
	push	ebx
	push	esi
	push	edi
	mov	ecx, OFFSET __F6DD4902_xmlregexp@c
	call	@__CheckForDebuggerJustMyCode@4
	mov	esi, DWORD PTR _exp$[ebp]
	movzx	eax, BYTE PTR [esi]
	cmp	eax, 5
	ja	SHORT $LN2@xmlExpStri

; 7092 :     xmlExpNodePtr ret;
; 7093 : 
; 7094 :     switch (exp->type) {

	jmp	DWORD PTR $LN33@xmlExpStri[eax*4]
$LN6@xmlExpStri:

; 7095 : 	case XML_EXP_EMPTY:
; 7096 : 	    return(forbiddenExp);
; 7097 : 	case XML_EXP_FORBID:
; 7098 : 	    return(forbiddenExp);
; 7099 : 	case XML_EXP_ATOM:
; 7100 : 	    if (exp->exp_str == str) {

	mov	ecx, DWORD PTR [esi+20]
	cmp	ecx, DWORD PTR _str$[ebp]
	mov	eax, DWORD PTR _forbiddenExp
	cmove	eax, DWORD PTR _emptyExp
	pop	edi

; 7193 : 	                              NULL, 0, 0));
; 7194 : 	}
; 7195 :     }
; 7196 :     return(NULL);
; 7197 : }

	pop	esi
	pop	ebx
	pop	ebp
	ret	0
$LN9@xmlExpStri:

; 7101 : #ifdef DEBUG_DERIV
; 7102 : 		printf("deriv atom: equal => Empty\n");
; 7103 : #endif
; 7104 : 	        ret = emptyExp;
; 7105 : 	    } else {
; 7106 : #ifdef DEBUG_DERIV
; 7107 : 		printf("deriv atom: mismatch => forbid\n");
; 7108 : #endif
; 7109 : 	        /* TODO wildcards here */
; 7110 : 		ret = forbiddenExp;
; 7111 : 	    }
; 7112 : 	    return(ret);
; 7113 : 	case XML_EXP_OR: {
; 7114 : 	    xmlExpNodePtr tmp;
; 7115 : 
; 7116 : #ifdef DEBUG_DERIV
; 7117 : 	    printf("deriv or: => or(derivs)\n");
; 7118 : #endif
; 7119 : 	    tmp = xmlExpStringDeriveInt(ctxt, exp->exp_left, str);

	push	DWORD PTR _str$[ebp]
	mov	edi, DWORD PTR _ctxt$[ebp]
	push	DWORD PTR [esi+12]
	push	edi
	call	_xmlExpStringDeriveInt
	mov	ebx, eax
	add	esp, 12					; 0000000cH

; 7120 : 	    if (tmp == NULL) {

	test	ebx, ebx
	je	SHORT $LN2@xmlExpStri

; 7121 : 		return(NULL);
; 7122 : 	    }
; 7123 : 	    ret = xmlExpStringDeriveInt(ctxt, exp->exp_right, str);

	push	DWORD PTR _str$[ebp]
	push	DWORD PTR [esi+20]
	push	edi
	call	_xmlExpStringDeriveInt
	add	esp, 12					; 0000000cH

; 7124 : 	    if (ret == NULL) {

	test	eax, eax
	jne	SHORT $LN11@xmlExpStri

; 7125 : 	        xmlExpFree(ctxt, tmp);

	push	ebx
	push	edi
	call	_xmlExpFree
	add	esp, 8
$LN2@xmlExpStri:

; 7193 : 	                              NULL, 0, 0));
; 7194 : 	}
; 7195 :     }
; 7196 :     return(NULL);
; 7197 : }

	xor	eax, eax
$LN1@xmlExpStri:
	pop	edi
	pop	esi
	pop	ebx
	pop	ebp
	ret	0
$LN11@xmlExpStri:

; 7126 : 		return(NULL);
; 7127 : 	    }
; 7128 :             ret = xmlExpHashGetEntry(ctxt, XML_EXP_OR, tmp, ret,

	push	0
	push	0
	push	0
	push	eax
	push	ebx
	push	4
	push	edi
	call	_xmlExpHashGetEntry
	add	esp, 28					; 0000001cH
	pop	edi

; 7193 : 	                              NULL, 0, 0));
; 7194 : 	}
; 7195 :     }
; 7196 :     return(NULL);
; 7197 : }

	pop	esi
	pop	ebx
	pop	ebp
	ret	0
$LN12@xmlExpStri:

; 7129 : 			     NULL, 0, 0);
; 7130 : 	    return(ret);
; 7131 : 	}
; 7132 : 	case XML_EXP_SEQ:
; 7133 : #ifdef DEBUG_DERIV
; 7134 : 	    printf("deriv seq: starting with left\n");
; 7135 : #endif
; 7136 : 	    ret = xmlExpStringDeriveInt(ctxt, exp->exp_left, str);

	mov	ebx, DWORD PTR _str$[ebp]
	mov	edi, DWORD PTR _ctxt$[ebp]
	push	ebx
	push	DWORD PTR [esi+12]
	push	edi
	call	_xmlExpStringDeriveInt
	mov	edx, eax
	add	esp, 12					; 0000000cH

; 7137 : 	    if (ret == NULL) {

	test	edx, edx
	je	SHORT $LN2@xmlExpStri

; 7138 : 	        return(NULL);
; 7139 : 	    } else if (ret == forbiddenExp) {

	cmp	edx, DWORD PTR _forbiddenExp
	jne	SHORT $LN15@xmlExpStri

; 7140 : 	        if (IS_NILLABLE(exp->exp_left)) {

	mov	ecx, DWORD PTR [esi+12]
	test	BYTE PTR [ecx+1], 1
	je	SHORT $LN16@xmlExpStri

; 7141 : #ifdef DEBUG_DERIV
; 7142 : 		    printf("deriv seq: left failed but nillable\n");
; 7143 : #endif
; 7144 : 		    ret = xmlExpStringDeriveInt(ctxt, exp->exp_right, str);

	push	ebx
	push	DWORD PTR [esi+20]
	push	edi
	call	_xmlExpStringDeriveInt
	add	esp, 12					; 0000000cH

; 7152 : 		                         NULL, 0, 0);
; 7153 : 	    }
; 7154 : 	    return(ret);

	mov	edx, eax
	pop	edi

; 7193 : 	                              NULL, 0, 0));
; 7194 : 	}
; 7195 :     }
; 7196 :     return(NULL);
; 7197 : }

	pop	esi
	pop	ebx
	pop	ebp
	ret	0
$LN15@xmlExpStri:

; 7145 : 		}
; 7146 : 	    } else {
; 7147 : #ifdef DEBUG_DERIV
; 7148 : 		printf("deriv seq: left match => sequence\n");
; 7149 : #endif
; 7150 : 	        exp->exp_right->ref++;

	mov	eax, DWORD PTR [esi+20]

; 7151 : 	        ret = xmlExpHashGetEntry(ctxt, XML_EXP_SEQ, ret, exp->exp_right,

	push	0
	push	0
	push	0
	inc	DWORD PTR [eax+4]
	push	DWORD PTR [esi+20]
	push	edx
	push	3
	push	edi
	call	_xmlExpHashGetEntry
	add	esp, 28					; 0000001cH

; 7152 : 		                         NULL, 0, 0);
; 7153 : 	    }
; 7154 : 	    return(ret);

	mov	edx, eax
$LN16@xmlExpStri:

; 7193 : 	                              NULL, 0, 0));
; 7194 : 	}
; 7195 :     }
; 7196 :     return(NULL);
; 7197 : }

	pop	edi
	pop	esi
	mov	eax, edx
	pop	ebx
	pop	ebp
	ret	0
$LN18@xmlExpStri:

; 7155 : 	case XML_EXP_COUNT: {
; 7156 : 	    int min, max;
; 7157 : 	    xmlExpNodePtr tmp;
; 7158 : 
; 7159 : 	    if (exp->exp_max == 0)

	cmp	DWORD PTR [esi+24], 0
	je	$LN30@xmlExpStri

; 7161 : 	    ret = xmlExpStringDeriveInt(ctxt, exp->exp_left, str);

	push	DWORD PTR _str$[ebp]
	mov	ebx, DWORD PTR _ctxt$[ebp]
	push	DWORD PTR [esi+12]
	push	ebx
	call	_xmlExpStringDeriveInt
	mov	edi, eax
	add	esp, 12					; 0000000cH

; 7162 : 	    if (ret == NULL)

	test	edi, edi
	je	$LN2@xmlExpStri

; 7163 : 	        return(NULL);
; 7164 : 	    if (ret == forbiddenExp) {

	cmp	edi, DWORD PTR _forbiddenExp
	je	$LN1@xmlExpStri

; 7165 : #ifdef DEBUG_DERIV
; 7166 : 		printf("deriv count: pattern mismatch => forbid\n");
; 7167 : #endif
; 7168 : 	        return(ret);
; 7169 : 	    }
; 7170 : 	    if (exp->exp_max == 1)

	mov	ecx, DWORD PTR [esi+24]
	mov	DWORD PTR tv358[ebp], ecx
	cmp	ecx, 1
	je	$LN1@xmlExpStri

; 7171 : 		return(ret);
; 7172 : 	    if (exp->exp_max < 0) /* unbounded */
; 7173 : 		max = -1;
; 7174 : 	    else
; 7175 : 		max = exp->exp_max - 1;
; 7176 : 	    if (exp->exp_min > 0)
; 7177 : 		min = exp->exp_min - 1;
; 7178 : 	    else
; 7179 : 		min = 0;
; 7180 : 	    exp->exp_left->ref++;

	mov	eax, DWORD PTR [esi+12]
	dec	ecx
	mov	edx, DWORD PTR [esi+20]
	inc	DWORD PTR [eax+4]
	or	eax, -1
	cmp	DWORD PTR tv358[ebp], 0
	cmovge	eax, ecx
	xor	ecx, ecx

; 7181 : 	    tmp = xmlExpHashGetEntry(ctxt, XML_EXP_COUNT, exp->exp_left, NULL,

	push	eax
	test	edx, edx
	lea	eax, DWORD PTR [edx-1]
	cmovle	eax, ecx
	push	eax
	push	ecx
	push	ecx
	push	DWORD PTR [esi+12]
	push	5
	push	ebx
	call	_xmlExpHashGetEntry
	add	esp, 28					; 0000001cH

; 7182 : 				     NULL, min, max);
; 7183 : 	    if (ret == emptyExp) {

	cmp	edi, DWORD PTR _emptyExp
	je	$LN1@xmlExpStri

; 7184 : #ifdef DEBUG_DERIV
; 7185 : 		printf("deriv count: match to empty => new count\n");
; 7186 : #endif
; 7187 : 	        return(tmp);
; 7188 : 	    }
; 7189 : #ifdef DEBUG_DERIV
; 7190 : 	    printf("deriv count: match => sequence with new count\n");
; 7191 : #endif
; 7192 : 	    return(xmlExpHashGetEntry(ctxt, XML_EXP_SEQ, ret, tmp,

	push	0
	push	0
	push	0
	push	eax
	push	edi
	push	3
	push	ebx
	call	_xmlExpHashGetEntry
	add	esp, 28					; 0000001cH
	pop	edi

; 7193 : 	                              NULL, 0, 0));
; 7194 : 	}
; 7195 :     }
; 7196 :     return(NULL);
; 7197 : }

	pop	esi
	pop	ebx
	pop	ebp
	ret	0
$LN30@xmlExpStri:

; 7160 : 		return(forbiddenExp);

	mov	eax, DWORD PTR _forbiddenExp
	pop	edi

; 7193 : 	                              NULL, 0, 0));
; 7194 : 	}
; 7195 :     }
; 7196 :     return(NULL);
; 7197 : }

	pop	esi
	pop	ebx
	pop	ebp
	ret	0
	npad	2
$LN33@xmlExpStri:
	DD	$LN30@xmlExpStri
	DD	$LN30@xmlExpStri
	DD	$LN6@xmlExpStri
	DD	$LN12@xmlExpStri
	DD	$LN9@xmlExpStri
	DD	$LN18@xmlExpStri
_xmlExpStringDeriveInt ENDP
_TEXT	ENDS
; Function compile flags: /Ogtp
; File c:\users\dag\documents\_clients\codeproject authors group\windows on arm\libxml2\libxml2-2.9.9\xmlregexp.c
;	COMDAT _xmlExpGetStartInt
_TEXT	SEGMENT
_ctxt$ = 8						; size = 4
_exp$ = 12						; size = 4
_list$ = 16						; size = 4
_len$ = 20						; size = 4
_nb$ = 24						; size = 4
_xmlExpGetStartInt PROC					; COMDAT

; 7008 :                   const xmlChar**list, int len, int nb) {

	push	ebp
	mov	ebp, esp
	push	ebx
	push	esi
	push	edi
	mov	ecx, OFFSET __F6DD4902_xmlregexp@c
	call	@__CheckForDebuggerJustMyCode@4
	mov	esi, DWORD PTR _exp$[ebp]
	movzx	eax, BYTE PTR [esi]
	cmp	eax, 5
	ja	SHORT $LN2@xmlExpGetS
	npad	5
$tail$32:

; 7009 :     int tmp, tmp2;
; 7010 : tail:
; 7011 :     switch (exp->type) {

	jmp	DWORD PTR $LN31@xmlExpGetS[eax*4]
$LN12@xmlExpGetS:

; 7023 : 	    return(1);
; 7024 :         case XML_EXP_COUNT:
; 7025 : 	    exp = exp->exp_left;

	mov	esi, DWORD PTR [esi+12]
	movzx	eax, BYTE PTR [esi]
	cmp	eax, 5
	jbe	SHORT $tail$32
$LN2@xmlExpGetS:

; 7048 :     }
; 7049 :     return(-1);

	or	eax, -1
$LN1@xmlExpGetS:
	pop	edi

; 7050 : }

	pop	esi
	pop	ebx
	pop	ebp
	ret	0
$LN9@xmlExpGetS:

; 7012 :         case XML_EXP_FORBID:
; 7013 : 	    return(0);
; 7014 :         case XML_EXP_EMPTY:
; 7015 : 	    return(0);
; 7016 :         case XML_EXP_ATOM:
; 7017 : 	    for (tmp = 0;tmp < nb;tmp++)

	mov	ecx, DWORD PTR _nb$[ebp]
	xor	eax, eax
	mov	edx, DWORD PTR _list$[ebp]
	test	ecx, ecx
	jle	SHORT $LN5@xmlExpGetS

; 7018 : 	        if (list[tmp] == exp->exp_str)

	mov	edi, DWORD PTR [esi+20]
	npad	7
$LL6@xmlExpGetS:
	cmp	DWORD PTR [edx+eax*4], edi
	je	SHORT $LN23@xmlExpGetS

; 7012 :         case XML_EXP_FORBID:
; 7013 : 	    return(0);
; 7014 :         case XML_EXP_EMPTY:
; 7015 : 	    return(0);
; 7016 :         case XML_EXP_ATOM:
; 7017 : 	    for (tmp = 0;tmp < nb;tmp++)

	inc	eax
	cmp	eax, ecx
	jl	SHORT $LL6@xmlExpGetS
$LN5@xmlExpGetS:

; 7019 : 		    return(0);
; 7020 :             if (nb >= len)

	cmp	ecx, DWORD PTR _len$[ebp]
	jl	SHORT $LN11@xmlExpGetS

; 7050 : }

	pop	edi
	pop	esi
	mov	eax, -2					; fffffffeH
	pop	ebx
	pop	ebp
	ret	0
$LN11@xmlExpGetS:

; 7021 : 	        return(-2);
; 7022 : 	    list[nb] = exp->exp_str;

	mov	eax, DWORD PTR [esi+20]
	pop	edi

; 7050 : }

	pop	esi
	mov	DWORD PTR [edx+ecx*4], eax
	mov	eax, 1
	pop	ebx
	pop	ebp
	ret	0
$LN23@xmlExpGetS:
	pop	edi
	pop	esi
	xor	eax, eax
	pop	ebx
	pop	ebp
	ret	0
$LN13@xmlExpGetS:

; 7026 : 	    goto tail;
; 7027 :         case XML_EXP_SEQ:
; 7028 : 	    tmp = xmlExpGetStartInt(ctxt, exp->exp_left, list, len, nb);

	mov	ebx, DWORD PTR _nb$[ebp]
	push	ebx
	push	DWORD PTR _len$[ebp]
	push	DWORD PTR _list$[ebp]
	push	DWORD PTR [esi+12]
	push	DWORD PTR _ctxt$[ebp]
	call	_xmlExpGetStartInt
	mov	edi, eax
	add	esp, 20					; 00000014H

; 7029 : 	    if (tmp < 0)

	test	edi, edi
	js	SHORT $LN15@xmlExpGetS

; 7030 : 	        return(tmp);
; 7031 : 	    if (IS_NILLABLE(exp->exp_left)) {

	mov	eax, DWORD PTR [esi+12]
	test	BYTE PTR [eax+1], 1
	je	SHORT $LN15@xmlExpGetS

; 7032 : 		tmp2 = xmlExpGetStartInt(ctxt, exp->exp_right, list, len,

	lea	eax, DWORD PTR [edi+ebx]
	push	eax
	push	DWORD PTR _len$[ebp]
	push	DWORD PTR _list$[ebp]
	push	DWORD PTR [esi+20]
	push	DWORD PTR _ctxt$[ebp]
	call	_xmlExpGetStartInt
	add	esp, 20					; 00000014H

; 7033 : 					    nb + tmp);
; 7034 : 		if (tmp2 < 0)

	test	eax, eax
	js	$LN1@xmlExpGetS

; 7035 : 		    return(tmp2);
; 7036 : 		tmp += tmp2;

	add	edi, eax
$LN15@xmlExpGetS:

; 7050 : }

	mov	eax, edi
	pop	edi
	pop	esi
	pop	ebx
	pop	ebp
	ret	0
$LN17@xmlExpGetS:

; 7037 : 	    }
; 7038 :             return(tmp);
; 7039 :         case XML_EXP_OR:
; 7040 : 	    tmp = xmlExpGetStartInt(ctxt, exp->exp_left, list, len, nb);

	mov	ebx, DWORD PTR _nb$[ebp]
	push	ebx
	push	DWORD PTR _len$[ebp]
	push	DWORD PTR _list$[ebp]
	push	DWORD PTR [esi+12]
	push	DWORD PTR _ctxt$[ebp]
	call	_xmlExpGetStartInt
	mov	edi, eax
	add	esp, 20					; 00000014H

; 7041 : 	    if (tmp < 0)

	test	edi, edi
	js	SHORT $LN15@xmlExpGetS

; 7042 : 	        return(tmp);
; 7043 : 	    tmp2 = xmlExpGetStartInt(ctxt, exp->exp_right, list, len,

	lea	eax, DWORD PTR [edi+ebx]
	push	eax
	push	DWORD PTR _len$[ebp]
	push	DWORD PTR _list$[ebp]
	push	DWORD PTR [esi+20]
	push	DWORD PTR _ctxt$[ebp]
	call	_xmlExpGetStartInt
	add	esp, 20					; 00000014H

; 7044 : 	                                nb + tmp);
; 7045 : 	    if (tmp2 < 0)

	test	eax, eax
	js	$LN1@xmlExpGetS

; 7046 : 	        return(tmp2);
; 7047 :             return(tmp + tmp2);

	add	eax, edi
	pop	edi

; 7050 : }

	pop	esi
	pop	ebx
	pop	ebp
	ret	0
	npad	3
$LN31@xmlExpGetS:
	DD	$LN23@xmlExpGetS
	DD	$LN23@xmlExpGetS
	DD	$LN9@xmlExpGetS
	DD	$LN13@xmlExpGetS
	DD	$LN17@xmlExpGetS
	DD	$LN12@xmlExpGetS
_xmlExpGetStartInt ENDP
_TEXT	ENDS
; Function compile flags: /Ogtp
; File c:\users\dag\documents\_clients\codeproject authors group\windows on arm\libxml2\libxml2-2.9.9\xmlregexp.c
;	COMDAT _xmlExpGetLanguageInt
_TEXT	SEGMENT
_ctxt$ = 8						; size = 4
_exp$ = 12						; size = 4
_list$ = 16						; size = 4
_len$ = 20						; size = 4
_nb$ = 24						; size = 4
_xmlExpGetLanguageInt PROC				; COMDAT

; 6955 :                      const xmlChar**list, int len, int nb) {

	push	ebp
	mov	ebp, esp
	push	esi
	push	edi
	mov	ecx, OFFSET __F6DD4902_xmlregexp@c
	call	@__CheckForDebuggerJustMyCode@4
	mov	esi, DWORD PTR _exp$[ebp]
	movzx	eax, BYTE PTR [esi]
	cmp	eax, 5
	ja	SHORT $LN2@xmlExpGetL
	npad	6
$tail$28:

; 6956 :     int tmp, tmp2;
; 6957 : tail:
; 6958 :     switch (exp->type) {

	jmp	DWORD PTR $LN27@xmlExpGetL[eax*4]
$LN11@xmlExpGetL:

; 6969 :         case XML_EXP_COUNT:
; 6970 : 	    exp = exp->exp_left;

	mov	esi, DWORD PTR [esi+12]
	movzx	eax, BYTE PTR [esi]
	cmp	eax, 5
	jbe	SHORT $tail$28
$LN2@xmlExpGetL:
	pop	edi

; 6982 :     }
; 6983 :     return(-1);

	or	eax, -1

; 6984 : }

	pop	esi
	pop	ebp
	ret	0
$LN8@xmlExpGetL:

; 6959 :         case XML_EXP_EMPTY:
; 6960 : 	    return(0);
; 6961 :         case XML_EXP_ATOM:
; 6962 : 	    for (tmp = 0;tmp < nb;tmp++)

	mov	ecx, DWORD PTR _nb$[ebp]
	xor	eax, eax
	mov	edx, DWORD PTR _list$[ebp]
	test	ecx, ecx
	jle	SHORT $LN5@xmlExpGetL

; 6963 : 	        if (list[tmp] == exp->exp_str)

	mov	edi, DWORD PTR [esi+20]
$LL6@xmlExpGetL:
	cmp	DWORD PTR [edx+eax*4], edi
	je	SHORT $LN18@xmlExpGetL

; 6959 :         case XML_EXP_EMPTY:
; 6960 : 	    return(0);
; 6961 :         case XML_EXP_ATOM:
; 6962 : 	    for (tmp = 0;tmp < nb;tmp++)

	inc	eax
	cmp	eax, ecx
	jl	SHORT $LL6@xmlExpGetL
$LN5@xmlExpGetL:

; 6965 :             if (nb >= len)

	cmp	ecx, DWORD PTR _len$[ebp]
	jl	SHORT $LN10@xmlExpGetL

; 6966 : 	        return(-2);

	pop	edi
	mov	eax, -2					; fffffffeH

; 6984 : }

	pop	esi
	pop	ebp
	ret	0
$LN10@xmlExpGetL:

; 6967 : 	    list[nb] = exp->exp_str;

	mov	eax, DWORD PTR [esi+20]
	pop	edi
	mov	DWORD PTR [edx+ecx*4], eax

; 6968 : 	    return(1);

	mov	eax, 1

; 6984 : }

	pop	esi
	pop	ebp
	ret	0
$LN18@xmlExpGetL:
	pop	edi

; 6964 : 		    return(0);

	xor	eax, eax

; 6984 : }

	pop	esi
	pop	ebp
	ret	0
$LN12@xmlExpGetL:
	push	ebx

; 6971 : 	    goto tail;
; 6972 :         case XML_EXP_SEQ:
; 6973 :         case XML_EXP_OR:
; 6974 : 	    tmp = xmlExpGetLanguageInt(ctxt, exp->exp_left, list, len, nb);

	mov	ebx, DWORD PTR _nb$[ebp]
	push	ebx
	push	DWORD PTR _len$[ebp]
	push	DWORD PTR _list$[ebp]
	push	DWORD PTR [esi+12]
	push	DWORD PTR _ctxt$[ebp]
	call	_xmlExpGetLanguageInt
	mov	edi, eax
	add	esp, 20					; 00000014H

; 6975 : 	    if (tmp < 0)

	test	edi, edi
	jns	SHORT $LN13@xmlExpGetL
$LN25@xmlExpGetL:
	pop	ebx
	pop	edi

; 6984 : }

	pop	esi
	pop	ebp
	ret	0
$LN13@xmlExpGetL:

; 6976 : 	        return(tmp);
; 6977 : 	    tmp2 = xmlExpGetLanguageInt(ctxt, exp->exp_right, list, len,

	lea	eax, DWORD PTR [edi+ebx]
	push	eax
	push	DWORD PTR _len$[ebp]
	push	DWORD PTR _list$[ebp]
	push	DWORD PTR [esi+20]
	push	DWORD PTR _ctxt$[ebp]
	call	_xmlExpGetLanguageInt
	add	esp, 20					; 00000014H

; 6978 : 	                                nb + tmp);
; 6979 : 	    if (tmp2 < 0)

	test	eax, eax
	js	SHORT $LN25@xmlExpGetL

; 6980 : 	        return(tmp2);
; 6981 :             return(tmp + tmp2);

	pop	ebx
	add	eax, edi
	pop	edi

; 6984 : }

	pop	esi
	pop	ebp
	ret	0
$LN27@xmlExpGetL:
	DD	$LN18@xmlExpGetL
	DD	$LN2@xmlExpGetL
	DD	$LN8@xmlExpGetL
	DD	$LN12@xmlExpGetL
	DD	$LN12@xmlExpGetL
	DD	$LN11@xmlExpGetL
_xmlExpGetLanguageInt ENDP
_TEXT	ENDS
; Function compile flags: /Ogtp
; File c:\users\dag\documents\_clients\codeproject authors group\windows on arm\libxml2\libxml2-2.9.9\xmlregexp.c
;	COMDAT _xmlExpHashGetEntry
_TEXT	SEGMENT
tv1599 = -12						; size = 4
_min$1$ = -8						; size = 4
_type$1$ = -4						; size = 4
tv1631 = -4						; size = 4
_kbase$ = 8						; size = 2
_value$1 = 8						; size = 2
_ctxt$ = 8						; size = 4
_kbase$1$ = 10						; size = 2
_type$ = 12						; size = 4
_left$ = 16						; size = 4
_right$ = 20						; size = 4
_name$ = 24						; size = 4
_min$ = 28						; size = 4
_max$ = 32						; size = 4
_xmlExpHashGetEntry PROC				; COMDAT

; 6571 : 		   const xmlChar *name, int min, int max) {

	push	ebp
	mov	ebp, esp
	sub	esp, 12					; 0000000cH
	mov	ecx, OFFSET __F6DD4902_xmlregexp@c
	push	ebx
	push	esi
	push	edi
	call	@__CheckForDebuggerJustMyCode@4
	mov	esi, DWORD PTR _ctxt$[ebp]
	test	esi, esi
	je	$LN32@xmlExpHash

; 6572 :     unsigned short kbase, key;
; 6573 :     xmlExpNodePtr entry;
; 6574 :     xmlExpNodePtr insert;
; 6575 : 
; 6576 :     if (ctxt == NULL)
; 6577 : 	return(NULL);
; 6578 : 
; 6579 :     /*
; 6580 :      * Check for duplicate and insertion location.
; 6581 :      */
; 6582 :     if (type == XML_EXP_ATOM) {

	mov	eax, DWORD PTR _type$[ebp]
	mov	ecx, DWORD PTR _min$[ebp]
	mov	edx, DWORD PTR _max$[ebp]
	mov	DWORD PTR _type$1$[ebp], eax
	mov	DWORD PTR _min$1$[ebp], ecx
	cmp	eax, 2
	jne	SHORT $LN6@xmlExpHash

; 6583 : 	kbase = xmlExpHashNameComputeKey(name);

	mov	eax, DWORD PTR _name$[ebp]
	mov	edi, eax

; 6494 :     unsigned short value = 0L;

	mov	DWORD PTR _value$1[ebp], 0

; 6495 :     char ch;
; 6496 : 
; 6497 :     if (name != NULL) {

	test	eax, eax
	je	SHORT $LN100@xmlExpHash

; 6498 : 	value += 30 * (*name);

	mov	bl, BYTE PTR [eax]
	movzx	eax, bl
	mov	cx, ax
	shl	cx, 4
	sub	cx, ax
	add	cx, cx
	movzx	ecx, cx
	mov	DWORD PTR _value$1[ebp], ecx

; 6499 : 	while ((ch = *name++) != 0) {

	test	bl, bl
	je	SHORT $LN100@xmlExpHash
	mov	dx, cx
$LL72@xmlExpHash:

; 6500 : 	    value = value ^ ((value << 5) + (value >> 3) + (unsigned long)ch);

	mov	ax, dx
	shl	ecx, 5
	shr	ax, 3
	lea	edi, DWORD PTR [edi+1]
	add	cx, ax
	movsx	ax, bl
	mov	bl, BYTE PTR [edi]
	add	cx, ax
	xor	dx, cx
	mov	WORD PTR _value$1[ebp], dx
	test	bl, bl
	je	SHORT $LN85@xmlExpHash

; 6499 : 	while ((ch = *name++) != 0) {

	mov	ecx, DWORD PTR _value$1[ebp]
	jmp	SHORT $LL72@xmlExpHash
$LN100@xmlExpHash:
	mov	dx, WORD PTR _value$1[ebp]
$LN85@xmlExpHash:

; 6583 : 	kbase = xmlExpHashNameComputeKey(name);

	mov	ebx, DWORD PTR _right$[ebp]
	mov	edi, DWORD PTR _left$[ebp]
	movzx	eax, dx
	jmp	$LN110@xmlExpHash
$LN6@xmlExpHash:

; 6584 :     } else if (type == XML_EXP_COUNT) {

	mov	edi, DWORD PTR _left$[ebp]
	cmp	eax, 5
	jne	SHORT $LN8@xmlExpHash

; 6585 :         /* COUNT reduction rule 1 */
; 6586 : 	/* a{1} -> a */
; 6587 : 	if (min == max) {

	cmp	ecx, edx
	jne	SHORT $LN12@xmlExpHash

; 6588 : 	    if (min == 1) {

	cmp	ecx, 1
	je	SHORT $LN97@xmlExpHash

; 6589 : 		return(left);
; 6590 : 	    }
; 6591 : 	    if (min == 0) {

	test	ecx, ecx
	jne	SHORT $LN111@xmlExpHash

; 6592 : 		xmlExpFree(ctxt, left);

	push	edi
	push	esi
	call	_xmlExpFree

; 6593 : 	        return(emptyExp);

	mov	eax, DWORD PTR _emptyExp
	add	esp, 8
	pop	edi

; 6793 : }

	pop	esi
	pop	ebx
	mov	esp, ebp
	pop	ebp
	ret	0
$LN12@xmlExpHash:

; 6594 : 	    }
; 6595 : 	}
; 6596 : 	if (min < 0) {

	test	ecx, ecx
$LN111@xmlExpHash:
	jns	SHORT $LN13@xmlExpHash

; 6597 : 	    xmlExpFree(ctxt, left);

	push	edi
	push	esi
	call	_xmlExpFree

; 6598 : 	    return(forbiddenExp);

	mov	eax, DWORD PTR _forbiddenExp
	add	esp, 8
	pop	edi

; 6793 : }

	pop	esi
	pop	ebx
	mov	esp, ebp
	pop	ebp
	ret	0
$LN13@xmlExpHash:

; 6599 : 	}
; 6600 :         if (max == -1)

	movzx	ecx, cx
	cmp	edx, -1
	jne	SHORT $LN14@xmlExpHash

; 6601 : 	    kbase = min + 79;

	lea	eax, DWORD PTR [ecx+79]
	jmp	SHORT $LN112@xmlExpHash
$LN14@xmlExpHash:

; 6602 : 	else
; 6603 : 	    kbase = max - min;

	mov	eax, edx
	sub	eax, ecx
$LN112@xmlExpHash:

; 6604 : 	kbase += left->key;

	mov	ebx, DWORD PTR _right$[ebp]
	movzx	eax, ax
	mov	DWORD PTR _kbase$[ebp], eax
	add	ax, WORD PTR [edi+2]
	jmp	$LN113@xmlExpHash
$LN8@xmlExpHash:

; 6605 :     } else if (type == XML_EXP_OR) {

	mov	ebx, DWORD PTR _right$[ebp]
	cmp	eax, 4
	jne	$LN16@xmlExpHash

; 6606 :         /* Forbid reduction rules */
; 6607 :         if (left->type == XML_EXP_FORBID) {

	mov	dl, BYTE PTR [edi]
	cmp	dl, 1
	je	SHORT $LN24@xmlExpHash

; 6608 : 	    xmlExpFree(ctxt, left);
; 6609 : 	    return(right);
; 6610 : 	}
; 6611 :         if (right->type == XML_EXP_FORBID) {

	mov	cl, BYTE PTR [ebx]
	cmp	cl, 1
	je	$LN95@xmlExpHash

; 6612 : 	    xmlExpFree(ctxt, right);
; 6613 : 	    return(left);
; 6614 : 	}
; 6615 : 
; 6616 :         /* OR reduction rule 1 */
; 6617 : 	/* a | a reduced to a */
; 6618 :         if (left == right) {

	cmp	edi, ebx
	jne	SHORT $LN20@xmlExpHash

; 6619 : 	    left->ref--;

	dec	DWORD PTR [edi+4]
$LN97@xmlExpHash:

; 6793 : }

	mov	eax, edi
	pop	edi
	pop	esi
	pop	ebx
	mov	esp, ebp
	pop	ebp
	ret	0
$LN20@xmlExpHash:

; 6620 : 	    return(left);
; 6621 : 	}
; 6622 :         /* OR canonicalization rule 1 */
; 6623 : 	/* linearize (a | b) | c into a | (b | c) */
; 6624 :         if ((left->type == XML_EXP_OR) && (right->type != XML_EXP_OR)) {

	mov	al, cl
	cmp	dl, 4
	jne	SHORT $LN21@xmlExpHash
	cmp	cl, dl
	je	SHORT $LN21@xmlExpHash

; 6625 : 	    xmlExpNodePtr tmp = left;

	mov	eax, edi

; 6626 :             left = right;

	mov	edi, ebx

; 6627 : 	    right = tmp;

	mov	ebx, eax
	mov	al, dl
$LN21@xmlExpHash:

; 6628 : 	}
; 6629 :         /* OR reduction rule 2 */
; 6630 : 	/* a | (a | b) and b | (a | b) are reduced to a | b */
; 6631 :         if (right->type == XML_EXP_OR) {

	cmp	al, 4
	jne	SHORT $LN94@xmlExpHash

; 6632 : 	    if ((left == right->exp_left) ||

	cmp	edi, DWORD PTR [ebx+12]
	je	SHORT $LN24@xmlExpHash
	cmp	edi, DWORD PTR [ebx+20]
	jne	SHORT $LN94@xmlExpHash
$LN24@xmlExpHash:

; 6793 : }

	push	edi
	push	esi
	call	_xmlExpFree
	add	esp, 8
$LN116@xmlExpHash:
	pop	edi
	pop	esi
	mov	eax, ebx
	pop	ebx
	mov	esp, ebp
	pop	ebp
	ret	0
$LN94@xmlExpHash:

; 6633 : 	        (left == right->exp_right)) {
; 6634 : 		xmlExpFree(ctxt, left);
; 6635 : 		return(right);
; 6636 : 	    }
; 6637 : 	}
; 6638 :         /* OR canonicalization rule 2 */
; 6639 : 	/* linearize (a | b) | c into a | (b | c) */
; 6640 :         if (left->type == XML_EXP_OR) {

	cmp	BYTE PTR [edi], 4
	jne	SHORT $LN25@xmlExpHash

; 6641 : 	    xmlExpNodePtr tmp;
; 6642 : 
; 6643 : 	    /* OR canonicalization rule 2 */
; 6644 : 	    if ((left->exp_right->type != XML_EXP_OR) &&

	mov	ecx, DWORD PTR [edi+20]
	mov	edx, ecx
	cmp	BYTE PTR [ecx], 4
	je	SHORT $LN26@xmlExpHash
	mov	esi, DWORD PTR [edi+12]
	mov	ax, WORD PTR [ecx+2]
	cmp	ax, WORD PTR [esi+2]
	mov	esi, DWORD PTR _ctxt$[ebp]
	jae	SHORT $LN26@xmlExpHash

; 6645 : 	        (left->exp_right->key < left->exp_left->key)) {
; 6646 : 	        tmp = left->exp_right;
; 6647 : 		left->exp_right = left->exp_left;

	mov	eax, DWORD PTR [edi+12]

; 6648 : 		left->exp_left = tmp;

	mov	edx, eax
	mov	DWORD PTR [edi+20], eax
	mov	DWORD PTR [edi+12], ecx
$LN26@xmlExpHash:

; 6649 : 	    }
; 6650 : 	    left->exp_right->ref++;

	inc	DWORD PTR [edx+4]

; 6651 : 	    tmp = xmlExpHashGetEntry(ctxt, XML_EXP_OR, left->exp_right, right,

	push	0
	push	0
	push	0
	push	ebx
	push	DWORD PTR [edi+20]
	push	4
	push	esi
	call	_xmlExpHashGetEntry

; 6652 : 	                             NULL, 0, 0);
; 6653 : 	    left->exp_left->ref++;

	mov	ecx, DWORD PTR [edi+12]

; 6654 : 	    tmp = xmlExpHashGetEntry(ctxt, XML_EXP_OR, left->exp_left, tmp,

	push	0
	push	0
	push	0
	inc	DWORD PTR [ecx+4]
	push	eax
	push	DWORD PTR [edi+12]
	push	4
	push	esi
	call	_xmlExpHashGetEntry

; 6655 : 	                             NULL, 0, 0);
; 6656 : 
; 6657 : 	    xmlExpFree(ctxt, left);

	push	edi
	push	DWORD PTR _ctxt$[ebp]
	mov	esi, eax
	call	_xmlExpFree
	add	esp, 64					; 00000040H

; 6658 : 	    return(tmp);

	mov	eax, esi
	pop	edi

; 6793 : }

	pop	esi
	pop	ebx
	mov	esp, ebp
	pop	ebp
	ret	0
$LN25@xmlExpHash:

; 6659 : 	}
; 6660 : 	if (right->type == XML_EXP_OR) {

	cmp	al, 4
	jne	$LN27@xmlExpHash

; 6661 : 	    /* Ordering in the tree */
; 6662 : 	    /* C | (A | B) -> A | (B | C) */
; 6663 : 	    if (left->key > right->exp_right->key) {

	mov	ecx, DWORD PTR [ebx+20]
	movzx	edx, WORD PTR [edi+2]
	cmp	dx, WORD PTR [ecx+2]
	jbe	SHORT $LN29@xmlExpHash

; 6664 : 		xmlExpNodePtr tmp;
; 6665 : 		right->exp_right->ref++;

	inc	DWORD PTR [ecx+4]

; 6666 : 		tmp = xmlExpHashGetEntry(ctxt, XML_EXP_OR, right->exp_right,

	push	0
	push	0
	push	0
	push	edi
	push	DWORD PTR [ebx+20]
	push	4
	push	esi
	call	_xmlExpHashGetEntry

; 6667 : 		                         left, NULL, 0, 0);
; 6668 : 		right->exp_left->ref++;

	mov	ecx, DWORD PTR [ebx+12]

; 6669 : 		tmp = xmlExpHashGetEntry(ctxt, XML_EXP_OR, right->exp_left,

	push	0
	push	0
	push	0
	inc	DWORD PTR [ecx+4]
	push	eax
	push	DWORD PTR [ebx+12]
	push	4
	push	esi
	call	_xmlExpHashGetEntry

; 6670 : 		                         tmp, NULL, 0, 0);
; 6671 : 		xmlExpFree(ctxt, right);

	push	ebx
	push	DWORD PTR _ctxt$[ebp]
	mov	esi, eax
	call	_xmlExpFree
	add	esp, 64					; 00000040H

; 6672 : 		return(tmp);

	mov	eax, esi
	pop	edi

; 6793 : }

	pop	esi
	pop	ebx
	mov	esp, ebp
	pop	ebp
	ret	0
$LN29@xmlExpHash:

; 6673 : 	    }
; 6674 : 	    /* Ordering in the tree */
; 6675 : 	    /* B | (A | C) -> A | (B | C) */
; 6676 : 	    if (left->key > right->exp_left->key) {

	mov	eax, DWORD PTR [ebx+12]
	cmp	dx, WORD PTR [eax+2]
	jbe	SHORT $LN31@xmlExpHash

; 6677 : 		xmlExpNodePtr tmp;
; 6678 : 		right->exp_right->ref++;

	inc	DWORD PTR [ecx+4]

; 6679 : 		tmp = xmlExpHashGetEntry(ctxt, XML_EXP_OR, left,

	push	0
	push	0
	push	0
	push	DWORD PTR [ebx+20]
	push	edi
	push	4
	push	esi
	call	_xmlExpHashGetEntry

; 6680 : 		                         right->exp_right, NULL, 0, 0);
; 6681 : 		right->exp_left->ref++;

	mov	ecx, DWORD PTR [ebx+12]

; 6682 : 		tmp = xmlExpHashGetEntry(ctxt, XML_EXP_OR, right->exp_left,

	push	0
	push	0
	push	0
	inc	DWORD PTR [ecx+4]
	push	eax
	push	DWORD PTR [ebx+12]
	push	4
	push	esi
	call	_xmlExpHashGetEntry

; 6683 : 		                         tmp, NULL, 0, 0);
; 6684 : 		xmlExpFree(ctxt, right);

	push	ebx
	push	DWORD PTR _ctxt$[ebp]
	mov	esi, eax
	call	_xmlExpFree
	add	esp, 64					; 00000040H

; 6685 : 		return(tmp);

	mov	eax, esi
	pop	edi

; 6793 : }

	pop	esi
	pop	ebx
	mov	esp, ebp
	pop	ebp
	ret	0
$LN27@xmlExpHash:

; 6686 : 	    }
; 6687 : 	}
; 6688 : 	/* we know both types are != XML_EXP_OR here */
; 6689 :         else if (left->key > right->key) {

	mov	ax, WORD PTR [edi+2]
	cmp	ax, WORD PTR [ebx+2]
	jbe	SHORT $LN31@xmlExpHash

; 6690 : 	    xmlExpNodePtr tmp = left;

	mov	eax, edi

; 6691 :             left = right;

	mov	edi, ebx

; 6692 : 	    right = tmp;

	mov	ebx, eax
$LN31@xmlExpHash:

; 6693 : 	}
; 6694 : 	kbase = xmlExpHashComputeKey(type, left, right);

	push	ebx
	push	edi
	push	4
	jmp	SHORT $LN114@xmlExpHash
$LN16@xmlExpHash:

; 6695 :     } else if (type == XML_EXP_SEQ) {

	cmp	eax, 3
	jne	$LN32@xmlExpHash

; 6696 :         /* Forbid reduction rules */
; 6697 :         if (left->type == XML_EXP_FORBID) {

	mov	al, BYTE PTR [edi]
	cmp	al, 1
	jne	SHORT $LN34@xmlExpHash
$LN95@xmlExpHash:

; 6698 : 	    xmlExpFree(ctxt, right);

	push	ebx
	push	esi
	call	_xmlExpFree
	add	esp, 8

; 6699 : 	    return(left);

	mov	eax, edi
	pop	edi

; 6793 : }

	pop	esi
	pop	ebx
	mov	esp, ebp
	pop	ebp
	ret	0
$LN34@xmlExpHash:

; 6700 : 	}
; 6701 :         if (right->type == XML_EXP_FORBID) {

	mov	cl, BYTE PTR [ebx]
	cmp	cl, 1
	je	$LN24@xmlExpHash

; 6702 : 	    xmlExpFree(ctxt, left);
; 6703 : 	    return(right);
; 6704 : 	}
; 6705 :         /* Empty reduction rules */
; 6706 :         if (right->type == XML_EXP_EMPTY) {

	test	cl, cl
	je	$LN97@xmlExpHash

; 6707 : 	    return(left);
; 6708 : 	}
; 6709 :         if (left->type == XML_EXP_EMPTY) {

	test	al, al
	je	$LN116@xmlExpHash

; 6710 : 	    return(right);
; 6711 : 	}
; 6712 : 	kbase = xmlExpHashComputeKey(type, left, right);

	push	ebx
	push	edi
	push	3
$LN114@xmlExpHash:

; 6713 :     } else
; 6714 :         return(NULL);
; 6715 : 
; 6716 :     key = kbase % ctxt->size;

	call	_xmlExpHashComputeKey
	movzx	eax, ax
	add	esp, 12					; 0000000cH
$LN110@xmlExpHash:
	mov	DWORD PTR _kbase$[ebp], eax
$LN113@xmlExpHash:
	mov	WORD PTR _kbase$1$[ebp], ax
	movzx	eax, ax
	cdq
	idiv	DWORD PTR [esi+8]

; 6717 :     if (ctxt->table[key] != NULL) {

	mov	eax, DWORD PTR [esi+4]
	movzx	ecx, dx
	shl	ecx, 2
	mov	DWORD PTR tv1599[ebp], ecx
	mov	ecx, DWORD PTR [ecx+eax]
	test	ecx, ecx
	je	SHORT $LN98@xmlExpHash
	mov	ax, WORD PTR _kbase$1$[ebp]
$LL4@xmlExpHash:

; 6720 : 	    if ((insert->key == kbase) &&

	cmp	WORD PTR [ecx+2], ax
	jne	SHORT $LN2@xmlExpHash
	movzx	eax, BYTE PTR [ecx]
	mov	edx, DWORD PTR _type$1$[ebp]
	cmp	eax, edx
	jne	SHORT $LN109@xmlExpHash

; 6721 : 	        (insert->type == type)) {
; 6722 : 		if (type == XML_EXP_ATOM) {

	cmp	edx, 2
	jne	SHORT $LN40@xmlExpHash

; 6723 : 		    if (name == insert->exp_str) {

	mov	eax, DWORD PTR _name$[ebp]
	cmp	eax, DWORD PTR [ecx+20]
	jne	SHORT $LN109@xmlExpHash

; 6724 : 			insert->ref++;

	inc	DWORD PTR [ecx+4]

; 6725 : 			return(insert);

	mov	eax, ecx
	pop	edi

; 6793 : }

	pop	esi
	pop	ebx
	mov	esp, ebp
	pop	ebp
	ret	0
$LN40@xmlExpHash:

; 6726 : 		    }
; 6727 : 		} else if (type == XML_EXP_COUNT) {

	cmp	edx, 5
	jne	SHORT $LN43@xmlExpHash

; 6728 : 		    if ((insert->exp_min == min) && (insert->exp_max == max) &&

	mov	eax, DWORD PTR _min$1$[ebp]
	cmp	DWORD PTR [ecx+20], eax
	jne	SHORT $LN109@xmlExpHash
	mov	eax, DWORD PTR _max$[ebp]
	cmp	DWORD PTR [ecx+24], eax
	jne	SHORT $LN109@xmlExpHash
	cmp	DWORD PTR [ecx+12], edi
	jne	SHORT $LN109@xmlExpHash

; 6729 : 		        (insert->exp_left == left)) {
; 6730 : 			insert->ref++;

	inc	DWORD PTR [ecx+4]

; 6731 : 			left->ref--;
; 6732 : 			return(insert);

	mov	eax, ecx
	dec	DWORD PTR [edi+4]
	pop	edi

; 6793 : }

	pop	esi
	pop	ebx
	mov	esp, ebp
	pop	ebp
	ret	0
$LN43@xmlExpHash:

; 6733 : 		    }
; 6734 : 		} else if ((insert->exp_left == left) &&

	cmp	DWORD PTR [ecx+12], edi
	jne	SHORT $LN109@xmlExpHash
	cmp	DWORD PTR [ecx+20], ebx
	je	SHORT $LN84@xmlExpHash
$LN109@xmlExpHash:

; 6718 : 	for (insert = ctxt->table[key]; insert != NULL;
; 6719 : 	     insert = insert->next) {

	mov	ax, WORD PTR _kbase$1$[ebp]
$LN2@xmlExpHash:
	mov	ecx, DWORD PTR [ecx+16]
	test	ecx, ecx
	jne	SHORT $LL4@xmlExpHash
$LN98@xmlExpHash:

; 6545 :     if (ctxt->nb_nodes >= MAX_NODES)

	cmp	DWORD PTR [esi+16], 10000		; 00002710H
	jge	$LN32@xmlExpHash

; 6546 :         return(NULL);
; 6547 :     ret = (xmlExpNodePtr) xmlMalloc(sizeof(xmlExpNode));

	push	28					; 0000001cH
	call	DWORD PTR _xmlMalloc
	mov	ecx, eax
	add	esp, 4

; 6548 :     if (ret == NULL)

	test	ecx, ecx
	je	$LN32@xmlExpHash

; 6551 :     ret->type = type;

	mov	eax, DWORD PTR _type$1$[ebp]
	xorps	xmm0, xmm0

; 6740 : 		}
; 6741 : 	    }
; 6742 : 	}
; 6743 :     }
; 6744 : 
; 6745 :     entry = xmlExpNewNode(ctxt, type);
; 6746 :     if (entry == NULL)
; 6747 :         return(NULL);
; 6748 :     entry->key = kbase;

	mov	dx, WORD PTR _kbase$1$[ebp]

; 6550 :     memset(ret, 0, sizeof(xmlExpNode));

	movups	XMMWORD PTR [ecx], xmm0
	movq	QWORD PTR [ecx+16], xmm0
	mov	DWORD PTR [ecx+24], 0

; 6551 :     ret->type = type;

	mov	BYTE PTR [ecx], al

; 6552 :     ret->next = NULL;
; 6553 :     ctxt->nb_nodes++;

	inc	DWORD PTR [esi+16]

; 6554 :     ctxt->nb_cons++;

	inc	DWORD PTR [esi+32]

; 6740 : 		}
; 6741 : 	    }
; 6742 : 	}
; 6743 :     }
; 6744 : 
; 6745 :     entry = xmlExpNewNode(ctxt, type);
; 6746 :     if (entry == NULL)
; 6747 :         return(NULL);
; 6748 :     entry->key = kbase;

	mov	WORD PTR [ecx+2], dx

; 6749 :     if (type == XML_EXP_ATOM) {

	cmp	eax, 2
	jne	SHORT $LN48@xmlExpHash

; 6750 : 	entry->exp_str = name;

	mov	eax, DWORD PTR _name$[ebp]
	mov	DWORD PTR [ecx+20], eax

; 6751 : 	entry->c_max = 1;

	mov	eax, 1
	jmp	$LN115@xmlExpHash
$LN84@xmlExpHash:

; 6735 : 			   (insert->exp_right == right)) {
; 6736 : 		    insert->ref++;

	inc	DWORD PTR [ecx+4]

; 6737 : 		    left->ref--;
; 6738 : 		    right->ref--;
; 6739 : 		    return(insert);

	mov	eax, ecx
	dec	DWORD PTR [edi+4]
	dec	DWORD PTR [ebx+4]
	pop	edi

; 6793 : }

	pop	esi
	pop	ebx
	mov	esp, ebp
	pop	ebp
	ret	0
$LN48@xmlExpHash:

; 6752 :     } else if (type == XML_EXP_COUNT) {

	mov	DWORD PTR [ecx+12], edi
	cmp	eax, 5
	jne	SHORT $LN50@xmlExpHash

; 6753 :         entry->exp_min = min;

	mov	eax, DWORD PTR _min$1$[ebp]

; 6754 :         entry->exp_max = max;

	mov	edx, DWORD PTR _max$[ebp]
	mov	DWORD PTR [ecx+20], eax
	mov	DWORD PTR [ecx+24], edx

; 6755 : 	entry->exp_left = left;
; 6756 : 	if ((min == 0) || (IS_NILLABLE(left)))

	test	eax, eax
	je	SHORT $LN53@xmlExpHash
	test	BYTE PTR [edi+1], 1
	je	SHORT $LN52@xmlExpHash
$LN53@xmlExpHash:

; 6757 : 	    entry->info |= XML_EXP_NILABLE;

	or	BYTE PTR [ecx+1], 1
$LN52@xmlExpHash:

; 6758 : 	if (max < 0)

	test	edx, edx
	js	SHORT $LN68@xmlExpHash

; 6759 : 	    entry->c_max = -1;
; 6760 : 	else
; 6761 : 	    entry->c_max = max * entry->exp_left->c_max;

	mov	eax, DWORD PTR [edi+8]
	imul	eax, edx

; 6762 :     } else {

	jmp	SHORT $LN115@xmlExpHash
$LN50@xmlExpHash:

; 6763 : 	entry->exp_left = left;
; 6764 : 	entry->exp_right = right;

	mov	DWORD PTR [ecx+20], ebx
	mov	dl, BYTE PTR [edi+1]
	and	dl, 1

; 6765 : 	if (type == XML_EXP_OR) {

	cmp	eax, 4
	jne	SHORT $LN56@xmlExpHash

; 6766 : 	    if ((IS_NILLABLE(left)) || (IS_NILLABLE(right)))

	test	dl, dl
	jne	SHORT $LN59@xmlExpHash
	test	BYTE PTR [ebx+1], 1
	je	SHORT $LN58@xmlExpHash
$LN59@xmlExpHash:

; 6767 : 		entry->info |= XML_EXP_NILABLE;

	or	BYTE PTR [ecx+1], 1
$LN58@xmlExpHash:

; 6768 : 	    if ((entry->exp_left->c_max == -1) ||

	mov	edx, DWORD PTR [edi+8]
	cmp	edx, -1
	je	SHORT $LN68@xmlExpHash
	mov	eax, DWORD PTR [ebx+8]
	cmp	eax, -1
	je	SHORT $LN68@xmlExpHash

; 6769 : 	        (entry->exp_right->c_max == -1))
; 6770 : 		entry->c_max = -1;
; 6771 : 	    else if (entry->exp_left->c_max > entry->exp_right->c_max)

	cmp	edx, eax
	cmovg	eax, edx

; 6772 : 	        entry->c_max = entry->exp_left->c_max;
; 6773 : 	    else
; 6774 : 	        entry->c_max = entry->exp_right->c_max;

	jmp	SHORT $LN115@xmlExpHash
$LN56@xmlExpHash:

; 6775 : 	} else {
; 6776 : 	    if ((IS_NILLABLE(left)) && (IS_NILLABLE(right)))

	test	dl, dl
	je	SHORT $LN65@xmlExpHash
	test	BYTE PTR [ebx+1], 1
	je	SHORT $LN65@xmlExpHash

; 6777 : 		entry->info |= XML_EXP_NILABLE;

	or	BYTE PTR [ecx+1], 1
$LN65@xmlExpHash:

; 6778 : 	    if ((entry->exp_left->c_max == -1) ||

	mov	edx, DWORD PTR [edi+8]
	cmp	edx, -1
	je	SHORT $LN68@xmlExpHash
	mov	eax, DWORD PTR [ebx+8]
	cmp	eax, -1
	je	SHORT $LN68@xmlExpHash

; 6779 : 	        (entry->exp_right->c_max == -1))
; 6780 : 		entry->c_max = -1;
; 6781 : 	    else
; 6782 : 	        entry->c_max = entry->exp_left->c_max + entry->exp_right->c_max;

	add	eax, edx
	jmp	SHORT $LN115@xmlExpHash
$LN68@xmlExpHash:

; 6783 : 	}
; 6784 :     }
; 6785 :     entry->ref = 1;

	or	eax, -1
$LN115@xmlExpHash:

; 6786 :     if (ctxt->table[key] != NULL)

	mov	edi, DWORD PTR tv1599[ebp]
	mov	edx, ecx
	mov	DWORD PTR [edx+8], eax
	mov	DWORD PTR [ecx+4], 1
	mov	eax, DWORD PTR [esi+4]
	mov	edx, DWORD PTR [eax+edi]
	test	edx, edx
	je	SHORT $LN69@xmlExpHash

; 6787 :         entry->next = ctxt->table[key];

	mov	DWORD PTR [ecx+16], edx
	mov	eax, DWORD PTR [esi+4]
$LN69@xmlExpHash:

; 6788 : 
; 6789 :     ctxt->table[key] = entry;

	mov	DWORD PTR [eax+edi], ecx

; 6790 :     ctxt->nbElems++;
; 6791 : 
; 6792 :     return(entry);

	mov	eax, ecx
	inc	DWORD PTR [esi+12]
	pop	edi

; 6793 : }

	pop	esi
	pop	ebx
	mov	esp, ebp
	pop	ebp
	ret	0
$LN32@xmlExpHash:
	pop	edi
	pop	esi
	xor	eax, eax
	pop	ebx
	mov	esp, ebp
	pop	ebp
	ret	0
_xmlExpHashGetEntry ENDP
_TEXT	ENDS
; Function compile flags: /Ogtp
; File c:\users\dag\documents\_clients\codeproject authors group\windows on arm\libxml2\libxml2-2.9.9\xmlregexp.c
;	COMDAT _xmlExpHashComputeKey
_TEXT	SEGMENT
_type$ = 8						; size = 4
_left$ = 12						; size = 4
_right$ = 16						; size = 4
_xmlExpHashComputeKey PROC				; COMDAT

; 6512 :                      xmlExpNodePtr right) {

	push	ebp
	mov	ebp, esp
	mov	ecx, OFFSET __F6DD4902_xmlregexp@c
	call	@__CheckForDebuggerJustMyCode@4
	mov	eax, DWORD PTR _type$[ebp]
	sub	eax, 3
	je	SHORT $LN4@xmlExpHash

; 6513 :     unsigned long value;
; 6514 :     unsigned short ret;
; 6515 : 
; 6516 :     switch (type) {

	sub	eax, 1
	je	SHORT $LN5@xmlExpHash
	sub	eax, 1
	je	SHORT $LN6@xmlExpHash

; 6533 : 	    break;
; 6534 : 	default:
; 6535 : 	    ret = 0;

	xor	eax, eax

; 6536 :     }
; 6537 :     return(ret);
; 6538 : }

	pop	ebp
	ret	0
$LN6@xmlExpHash:

; 6527 : 	    ret = (unsigned short) value;
; 6528 : 	    break;
; 6529 :         case XML_EXP_COUNT:
; 6530 : 	    value = left->key;
; 6531 : 	    value += right->key;

	mov	eax, DWORD PTR _left$[ebp]
	mov	cx, WORD PTR [eax+2]
	mov	eax, DWORD PTR _right$[ebp]
	add	cx, WORD PTR [eax+2]

; 6532 : 	    ret = (unsigned short) value;

	movzx	eax, cx

; 6536 :     }
; 6537 :     return(ret);
; 6538 : }

	pop	ebp
	ret	0
$LN5@xmlExpHash:

; 6521 : 	    ret = (unsigned short) value;
; 6522 : 	    break;
; 6523 :         case XML_EXP_OR:
; 6524 : 	    value = left->key;
; 6525 : 	    value += right->key;
; 6526 : 	    value *= 7;

	mov	eax, DWORD PTR _left$[ebp]
	mov	cx, WORD PTR [eax+2]
	mov	eax, DWORD PTR _right$[ebp]
	add	cx, WORD PTR [eax+2]
	mov	ax, cx
	shl	ax, 3
	sub	ax, cx

; 6536 :     }
; 6537 :     return(ret);
; 6538 : }

	movzx	eax, ax
	pop	ebp
	ret	0
$LN4@xmlExpHash:

; 6517 :         case XML_EXP_SEQ:
; 6518 : 	    value = left->key;
; 6519 : 	    value += right->key;
; 6520 : 	    value *= 3;

	mov	eax, DWORD PTR _left$[ebp]
	mov	cx, WORD PTR [eax+2]
	mov	eax, DWORD PTR _right$[ebp]
	add	cx, WORD PTR [eax+2]
	mov	ax, cx
	add	cx, cx
	add	ax, cx

; 6536 :     }
; 6537 :     return(ret);
; 6538 : }

	movzx	eax, ax
	pop	ebp
	ret	0
_xmlExpHashComputeKey ENDP
_TEXT	ENDS
; Function compile flags: /Ogtp
; File c:\users\dag\documents\_clients\codeproject authors group\windows on arm\libxml2\libxml2-2.9.9\xmlregexp.c
;	COMDAT _xmlExpHashNameComputeKey
_TEXT	SEGMENT
_value$ = -4						; size = 2
_name$ = 8						; size = 4
_xmlExpHashNameComputeKey PROC				; COMDAT

; 6493 : xmlExpHashNameComputeKey(const xmlChar *name) {

	push	ebp
	mov	ebp, esp
	push	ecx
	push	esi
	mov	ecx, OFFSET __F6DD4902_xmlregexp@c
	call	@__CheckForDebuggerJustMyCode@4
	mov	esi, DWORD PTR _name$[ebp]
	mov	DWORD PTR _value$[ebp], 0
	test	esi, esi
	je	SHORT $LN12@xmlExpHash

; 6494 :     unsigned short value = 0L;
; 6495 :     char ch;
; 6496 : 
; 6497 :     if (name != NULL) {
; 6498 : 	value += 30 * (*name);

	push	ebx
	mov	bl, BYTE PTR [esi]
	movzx	eax, bl
	mov	cx, ax
	shl	cx, 4
	sub	cx, ax
	add	cx, cx
	movzx	eax, cx
	mov	DWORD PTR _value$[ebp], eax

; 6499 : 	while ((ch = *name++) != 0) {

	test	bl, bl
	je	SHORT $LN11@xmlExpHash
	mov	dx, ax
	npad	3
$LL2@xmlExpHash:

; 6500 : 	    value = value ^ ((value << 5) + (value >> 3) + (unsigned long)ch);

	mov	cx, dx
	shl	eax, 5
	shr	cx, 3
	lea	esi, DWORD PTR [esi+1]
	add	ax, cx
	movsx	cx, bl
	mov	bl, BYTE PTR [esi]
	add	ax, cx
	xor	dx, ax
	mov	WORD PTR _value$[ebp], dx
	test	bl, bl
	je	SHORT $LN16@xmlExpHash

; 6499 : 	while ((ch = *name++) != 0) {

	mov	eax, DWORD PTR _value$[ebp]
	jmp	SHORT $LL2@xmlExpHash
$LN16@xmlExpHash:
	pop	ebx

; 6501 : 	}
; 6502 :     }
; 6503 :     return (value);

	mov	ax, dx
	pop	esi

; 6504 : }

	mov	esp, ebp
	pop	ebp
	ret	0
$LN11@xmlExpHash:

; 6501 : 	}
; 6502 :     }
; 6503 :     return (value);

	mov	ax, WORD PTR _value$[ebp]
	pop	ebx
	pop	esi

; 6504 : }

	mov	esp, ebp
	pop	ebp
	ret	0
$LN12@xmlExpHash:

; 6501 : 	}
; 6502 :     }
; 6503 :     return (value);

	mov	ax, WORD PTR _value$[ebp]
	pop	esi

; 6504 : }

	mov	esp, ebp
	pop	ebp
	ret	0
_xmlExpHashNameComputeKey ENDP
_TEXT	ENDS
; Function compile flags: /Ogtp
; File c:\users\dag\documents\_clients\codeproject authors group\windows on arm\libxml2\libxml2-2.9.9\xmlregexp.c
;	COMDAT _xmlExpNewNode
_TEXT	SEGMENT
_ctxt$ = 8						; size = 4
_type$ = 12						; size = 4
_xmlExpNewNode PROC					; COMDAT

; 6542 : xmlExpNewNode(xmlExpCtxtPtr ctxt, xmlExpNodeType type) {

	push	ebp
	mov	ebp, esp
	push	esi
	mov	ecx, OFFSET __F6DD4902_xmlregexp@c
	call	@__CheckForDebuggerJustMyCode@4
	mov	esi, DWORD PTR _ctxt$[ebp]
	cmp	DWORD PTR [esi+16], 10000		; 00002710H
	jge	SHORT $LN5@xmlExpNewN

; 6543 :     xmlExpNodePtr ret;
; 6544 : 
; 6545 :     if (ctxt->nb_nodes >= MAX_NODES)
; 6546 :         return(NULL);
; 6547 :     ret = (xmlExpNodePtr) xmlMalloc(sizeof(xmlExpNode));

	push	28					; 0000001cH
	call	DWORD PTR _xmlMalloc
	add	esp, 4

; 6548 :     if (ret == NULL)

	test	eax, eax
	je	SHORT $LN5@xmlExpNewN

; 6550 :     memset(ret, 0, sizeof(xmlExpNode));
; 6551 :     ret->type = type;

	mov	cl, BYTE PTR _type$[ebp]
	xorps	xmm0, xmm0
	movups	XMMWORD PTR [eax], xmm0
	movq	QWORD PTR [eax+16], xmm0
	mov	DWORD PTR [eax+24], 0
	mov	BYTE PTR [eax], cl

; 6552 :     ret->next = NULL;
; 6553 :     ctxt->nb_nodes++;

	inc	DWORD PTR [esi+16]

; 6554 :     ctxt->nb_cons++;

	inc	DWORD PTR [esi+32]
	pop	esi

; 6555 :     return(ret);
; 6556 : }

	pop	ebp
	ret	0
$LN5@xmlExpNewN:

; 6549 :         return(NULL);

	xor	eax, eax
	pop	esi

; 6555 :     return(ret);
; 6556 : }

	pop	ebp
	ret	0
_xmlExpNewNode ENDP
_TEXT	ENDS
; Function compile flags: /Ogtp
; File c:\users\dag\documents\_clients\codeproject authors group\windows on arm\libxml2\libxml2-2.9.9\xmlregexp.c
;	COMDAT _xmlFAParseBranch
_TEXT	SEGMENT
_ctxt$ = 8						; size = 4
_to$ = 12						; size = 4
_xmlFAParseBranch PROC					; COMDAT

; 5344 : xmlFAParseBranch(xmlRegParserCtxtPtr ctxt, xmlRegStatePtr to) {

	push	ebp
	mov	ebp, esp
	push	ebx
	push	esi
	push	edi
	mov	ecx, OFFSET __F6DD4902_xmlregexp@c
	call	@__CheckForDebuggerJustMyCode@4
	mov	esi, DWORD PTR _ctxt$[ebp]
	push	esi
	mov	edi, DWORD PTR [esi+24]
	call	_xmlFAParsePiece
	add	esp, 4
	test	eax, eax
	je	SHORT $LN3@xmlFAParse

; 5345 :     xmlRegStatePtr previous;
; 5346 :     int ret;
; 5347 : 
; 5348 :     previous = ctxt->state;
; 5349 :     ret = xmlFAParsePiece(ctxt);
; 5350 :     if (ret != 0) {
; 5351 : 	if (xmlFAGenerateTransitions(ctxt, previous,
; 5352 : 	        (CUR=='|' || CUR==')') ? to : NULL, ctxt->atom) < 0)

	mov	ebx, DWORD PTR _to$[ebp]
$LN21@xmlFAParse:

; 5353 : 	    return(-1);
; 5354 : 	previous = ctxt->state;
; 5355 : 	ctxt->atom = NULL;
; 5356 :     }
; 5357 :     while ((ret != 0) && (ctxt->error == 0)) {

	mov	eax, DWORD PTR [esi+4]
	mov	al, BYTE PTR [eax]
	cmp	al, 124					; 0000007cH
	je	SHORT $LN9@xmlFAParse
	cmp	al, 41					; 00000029H
	je	SHORT $LN9@xmlFAParse
	xor	eax, eax
	jmp	SHORT $LN10@xmlFAParse
$LN9@xmlFAParse:
	mov	eax, ebx
$LN10@xmlFAParse:
	push	DWORD PTR [esi+28]
	push	eax
	push	edi
	push	esi
	call	_xmlFAGenerateTransitions
	add	esp, 16					; 00000010H
	test	eax, eax
	js	SHORT $LN14@xmlFAParse
	cmp	DWORD PTR [esi+8], 0
	mov	edi, DWORD PTR [esi+24]
	mov	DWORD PTR [esi+28], 0
	jne	SHORT $LN3@xmlFAParse

; 5358 : 	ret = xmlFAParsePiece(ctxt);

	push	esi
	call	_xmlFAParsePiece
	add	esp, 4

; 5359 : 	if (ret != 0) {

	test	eax, eax
	jne	SHORT $LN21@xmlFAParse
$LN3@xmlFAParse:
	pop	edi

; 5360 : 	    if (xmlFAGenerateTransitions(ctxt, previous,
; 5361 : 	            (CUR=='|' || CUR==')') ? to : NULL, ctxt->atom) < 0)
; 5362 : 		    return(-1);
; 5363 : 	    previous = ctxt->state;
; 5364 : 	    ctxt->atom = NULL;
; 5365 : 	}
; 5366 :     }
; 5367 :     return(0);
; 5368 : }

	pop	esi
	xor	eax, eax
	pop	ebx
	pop	ebp
	ret	0
$LN14@xmlFAParse:
	pop	edi
	pop	esi
	or	eax, -1
	pop	ebx
	pop	ebp
	ret	0
_xmlFAParseBranch ENDP
_TEXT	ENDS
; Function compile flags: /Ogtp
; File c:\users\dag\documents\_clients\codeproject authors group\windows on arm\libxml2\libxml2-2.9.9\xmlregexp.c
;	COMDAT _xmlFAParsePiece
_TEXT	SEGMENT
_ctxt$ = 8						; size = 4
_xmlFAParsePiece PROC					; COMDAT

; 5319 : xmlFAParsePiece(xmlRegParserCtxtPtr ctxt) {

	push	ebp
	mov	ebp, esp
	push	esi
	mov	ecx, OFFSET __F6DD4902_xmlregexp@c
	call	@__CheckForDebuggerJustMyCode@4
	mov	esi, DWORD PTR _ctxt$[ebp]
	push	esi
	mov	DWORD PTR [esi+28], 0
	call	_xmlFAParseAtom
	add	esp, 4
	test	eax, eax
	jne	SHORT $LN2@xmlFAParse
	pop	esi

; 5331 : }

	pop	ebp
	ret	0
$LN2@xmlFAParse:

; 5320 :     int ret;
; 5321 : 
; 5322 :     ctxt->atom = NULL;
; 5323 :     ret = xmlFAParseAtom(ctxt);
; 5324 :     if (ret == 0)
; 5325 : 	return(0);
; 5326 :     if (ctxt->atom == NULL) {

	cmp	DWORD PTR [esi+28], 0
	jne	SHORT $LN3@xmlFAParse

; 5327 : 	ERROR("internal: no atom generated");

	push	OFFSET ??_C@_0BM@PFFMPGPF@internal?3?5no?5atom?5generated@
	push	esi
	mov	DWORD PTR [esi+8], 1450			; 000005aaH
	call	_xmlRegexpErrCompile
	add	esp, 8
$LN3@xmlFAParse:

; 5201 :     cur = CUR;

	mov	ecx, DWORD PTR [esi+4]
	push	ebx
	push	edi
	mov	al, BYTE PTR [ecx]

; 5202 :     if ((cur == '?') || (cur == '*') || (cur == '+')) {

	cmp	al, 63					; 0000003fH
	je	$LN7@xmlFAParse
	cmp	al, 42					; 0000002aH
	je	$LN7@xmlFAParse
	cmp	al, 43					; 0000002bH
	je	$LN7@xmlFAParse

; 5212 : 	return(1);
; 5213 :     }
; 5214 :     if (cur == '{') {

	cmp	al, 123					; 0000007bH
	jne	$LN14@xmlFAParse

; 5215 : 	int min = 0, max = 0;
; 5216 : 
; 5217 : 	NEXT;

	lea	eax, DWORD PTR [ecx+1]
	xor	edi, edi

; 5218 : 	cur = xmlFAParseQuantExact(ctxt);

	push	esi
	xor	ebx, ebx
	mov	DWORD PTR [esi+4], eax
	call	_xmlFAParseQuantExact
	add	esp, 4

; 5219 : 	if (cur >= 0)

	test	eax, eax
	cmovns	edi, eax

; 5220 : 	    min = cur;
; 5221 : 	if (CUR == ',') {

	mov	eax, DWORD PTR [esi+4]
	cmp	BYTE PTR [eax], 44			; 0000002cH
	jne	SHORT $LN20@xmlFAParse

; 5222 : 	    NEXT;

	inc	eax
	mov	DWORD PTR [esi+4], eax

; 5223 : 	    if (CUR == '}')

	cmp	BYTE PTR [eax], 125			; 0000007dH
	jne	SHORT $LN17@xmlFAParse

; 5224 : 	        max = INT_MAX;

	mov	ebx, 2147483647				; 7fffffffH
	jmp	SHORT $LN20@xmlFAParse
$LN17@xmlFAParse:

; 5225 : 	    else {
; 5226 : 	        cur = xmlFAParseQuantExact(ctxt);

	push	esi
	call	_xmlFAParseQuantExact
	add	esp, 4

; 5227 : 	        if (cur >= 0)

	test	eax, eax
	js	SHORT $LN19@xmlFAParse

; 5228 : 		    max = cur;

	mov	ebx, eax
	jmp	SHORT $LN20@xmlFAParse
$LN19@xmlFAParse:

; 5229 : 		else {
; 5230 : 		    ERROR("Improper quantifier");

	push	OFFSET ??_C@_0BE@PGBJEMPN@Improper?5quantifier@
	push	esi
	mov	DWORD PTR [esi+8], 1450			; 000005aaH
	call	_xmlRegexpErrCompile
	add	esp, 8
$LN20@xmlFAParse:

; 5231 : 		}
; 5232 : 	    }
; 5233 : 	}
; 5234 : 	if (CUR == '}') {

	mov	eax, DWORD PTR [esi+4]
	cmp	BYTE PTR [eax], 125			; 0000007dH
	jne	SHORT $LN21@xmlFAParse

; 5235 : 	    NEXT;

	inc	eax
	mov	DWORD PTR [esi+4], eax

; 5236 : 	} else {

	jmp	SHORT $LN22@xmlFAParse
$LN21@xmlFAParse:

; 5237 : 	    ERROR("Unterminated quantifier");

	push	OFFSET ??_C@_0BI@HKPFPPFN@Unterminated?5quantifier@
	push	esi
	mov	DWORD PTR [esi+8], 1450			; 000005aaH
	call	_xmlRegexpErrCompile
	add	esp, 8
$LN22@xmlFAParse:

; 5238 : 	}
; 5239 : 	if (max == 0)
; 5240 : 	    max = min;
; 5241 : 	if (ctxt->atom != NULL) {

	mov	eax, DWORD PTR [esi+28]
	test	eax, eax
	je	SHORT $LN14@xmlFAParse

; 5242 : 	    ctxt->atom->quant = XML_REGEXP_QUANT_RANGE;

	mov	DWORD PTR [eax+8], 8
	test	ebx, ebx

; 5243 : 	    ctxt->atom->min = min;

	mov	eax, DWORD PTR [esi+28]
	mov	DWORD PTR [eax+12], edi
	cmovne	edi, ebx

; 5244 : 	    ctxt->atom->max = max;

	mov	eax, DWORD PTR [esi+28]
	mov	DWORD PTR [eax+16], edi

; 5328 :     }
; 5329 :     xmlFAParseQuantifier(ctxt);
; 5330 :     return(1);

	mov	eax, 1
	pop	edi
	pop	ebx
	pop	esi

; 5331 : }

	pop	ebp
	ret	0
$LN7@xmlFAParse:

; 5203 : 	if (ctxt->atom != NULL) {

	mov	ecx, DWORD PTR [esi+28]
	test	ecx, ecx
	je	SHORT $LN13@xmlFAParse

; 5204 : 	    if (cur == '?')

	cmp	al, 63					; 0000003fH
	jne	SHORT $LN9@xmlFAParse

; 5328 :     }
; 5329 :     xmlFAParseQuantifier(ctxt);
; 5330 :     return(1);

	pop	edi

; 5205 : 		ctxt->atom->quant = XML_REGEXP_QUANT_OPT;

	mov	DWORD PTR [ecx+8], 3

; 5328 :     }
; 5329 :     xmlFAParseQuantifier(ctxt);
; 5330 :     return(1);

	mov	eax, 1

; 5211 : 	NEXT;

	inc	DWORD PTR [esi+4]

; 5328 :     }
; 5329 :     xmlFAParseQuantifier(ctxt);
; 5330 :     return(1);

	pop	ebx
	pop	esi

; 5331 : }

	pop	ebp
	ret	0
$LN9@xmlFAParse:

; 5206 : 	    else if (cur == '*')

	cmp	al, 42					; 0000002aH
	jne	SHORT $LN11@xmlFAParse

; 5328 :     }
; 5329 :     xmlFAParseQuantifier(ctxt);
; 5330 :     return(1);

	pop	edi

; 5207 : 		ctxt->atom->quant = XML_REGEXP_QUANT_MULT;

	mov	DWORD PTR [ecx+8], 4

; 5328 :     }
; 5329 :     xmlFAParseQuantifier(ctxt);
; 5330 :     return(1);

	mov	eax, 1

; 5211 : 	NEXT;

	inc	DWORD PTR [esi+4]

; 5328 :     }
; 5329 :     xmlFAParseQuantifier(ctxt);
; 5330 :     return(1);

	pop	ebx
	pop	esi

; 5331 : }

	pop	ebp
	ret	0
$LN11@xmlFAParse:

; 5208 : 	    else if (cur == '+')

	cmp	al, 43					; 0000002bH
	jne	SHORT $LN13@xmlFAParse

; 5209 : 		ctxt->atom->quant = XML_REGEXP_QUANT_PLUS;

	mov	DWORD PTR [ecx+8], 5
$LN13@xmlFAParse:

; 5210 : 	}
; 5211 : 	NEXT;

	inc	DWORD PTR [esi+4]
$LN14@xmlFAParse:

; 5328 :     }
; 5329 :     xmlFAParseQuantifier(ctxt);
; 5330 :     return(1);

	pop	edi
	pop	ebx
	mov	eax, 1
	pop	esi

; 5331 : }

	pop	ebp
	ret	0
_xmlFAParsePiece ENDP
_TEXT	ENDS
; Function compile flags: /Ogtp
; File c:\users\dag\documents\_clients\codeproject authors group\windows on arm\libxml2\libxml2-2.9.9\xmlregexp.c
;	COMDAT _xmlFAParseAtom
_TEXT	SEGMENT
_len$ = -4						; size = 4
_oldend$1$ = 8						; size = 4
_len$1 = 8						; size = 4
_ctxt$ = 8						; size = 4
_xmlFAParseAtom PROC					; COMDAT

; 5258 : xmlFAParseAtom(xmlRegParserCtxtPtr ctxt) {

	push	ebp
	mov	ebp, esp
	push	ecx
	push	ebx
	push	esi
	push	edi
	mov	ecx, OFFSET __F6DD4902_xmlregexp@c
	call	@__CheckForDebuggerJustMyCode@4

; 4606 :     cur = CUR_SCHAR(ctxt->cur, len);

	mov	esi, DWORD PTR _ctxt$[ebp]
	lea	eax, DWORD PTR _len$1[ebp]
	push	eax
	push	DWORD PTR [esi+4]
	push	0
	call	_xmlStringCurrentChar
	add	esp, 12					; 0000000cH

; 4607 :     if ((cur == '.') || (cur == '\\') || (cur == '?') ||
; 4608 : 	(cur == '*') || (cur == '+') || (cur == '(') ||
; 4609 : 	(cur == ')') || (cur == '|') || (cur == 0x5B) ||
; 4610 : 	(cur == 0x5D) || (cur == 0))

	cmp	eax, 46					; 0000002eH
	je	SHORT $LN2@xmlFAParse
	cmp	eax, 92					; 0000005cH
	je	SHORT $LN2@xmlFAParse
	cmp	eax, 63					; 0000003fH
	je	SHORT $LN2@xmlFAParse
	cmp	eax, 42					; 0000002aH
	je	SHORT $LN2@xmlFAParse
	cmp	eax, 43					; 0000002bH
	je	SHORT $LN2@xmlFAParse
	cmp	eax, 40					; 00000028H
	je	SHORT $LN2@xmlFAParse
	cmp	eax, 41					; 00000029H
	je	SHORT $LN2@xmlFAParse
	cmp	eax, 124				; 0000007cH
	je	SHORT $LN2@xmlFAParse
	cmp	eax, 91					; 0000005bH
	je	SHORT $LN2@xmlFAParse
	cmp	eax, 93					; 0000005dH
	je	SHORT $LN2@xmlFAParse
	test	eax, eax

; 5259 :     int codepoint, len;
; 5260 : 
; 5261 :     codepoint = xmlFAIsChar(ctxt);
; 5262 :     if (codepoint > 0) {

	jle	SHORT $LN2@xmlFAParse

; 5263 : 	ctxt->atom = xmlRegNewAtom(ctxt, XML_REGEXP_CHARVAL);

	push	2
	push	esi
	call	_xmlRegNewAtom
	add	esp, 8
	mov	DWORD PTR [esi+28], eax

; 5264 : 	if (ctxt->atom == NULL)

	test	eax, eax
	je	$LN52@xmlFAParse

; 5265 : 	    return(-1);
; 5266 : 	codepoint = CUR_SCHAR(ctxt->cur, len);

	lea	eax, DWORD PTR _len$[ebp]
	push	eax
	push	DWORD PTR [esi+4]
	push	0
	call	_xmlStringCurrentChar

; 5267 : 	ctxt->atom->codepoint = codepoint;

	mov	ecx, DWORD PTR [esi+28]
	add	esp, 12					; 0000000cH
	mov	DWORD PTR [ecx+32], eax

; 5268 : 	NEXTL(len);

	mov	eax, DWORD PTR _len$[ebp]
	add	DWORD PTR [esi+4], eax

; 5269 : 	return(1);

	mov	eax, 1
	pop	edi

; 5308 :     }
; 5309 :     return(0);
; 5310 : }

	pop	esi
	pop	ebx
	mov	esp, ebp
	pop	ebp
	ret	0
$LN2@xmlFAParse:

; 5270 :     } else if (CUR == '|') {

	mov	ecx, DWORD PTR [esi+4]
	mov	al, BYTE PTR [ecx]
	cmp	al, 124					; 0000007cH
	je	$LN51@xmlFAParse

; 5271 : 	return(0);
; 5272 :     } else if (CUR == 0) {

	test	al, al
	je	$LN51@xmlFAParse

; 5273 : 	return(0);
; 5274 :     } else if (CUR == ')') {

	cmp	al, 41					; 00000029H
	je	$LN51@xmlFAParse

; 5275 : 	return(0);
; 5276 :     } else if (CUR == '(') {

	cmp	al, 40					; 00000028H
	jne	$LN11@xmlFAParse

; 5277 : 	xmlRegStatePtr start, oldend, start0;
; 5278 : 
; 5279 : 	NEXT;
; 5280 : 	/*
; 5281 : 	 * this extra Epsilon transition is needed if we count with 0 allowed
; 5282 : 	 * unfortunately this can't be known at that point
; 5283 : 	 */
; 5284 : 	xmlFAGenerateEpsilonTransition(ctxt, ctxt->state, NULL);

	push	0
	push	DWORD PTR [esi+24]
	lea	eax, DWORD PTR [ecx+1]
	push	esi
	mov	DWORD PTR [esi+4], eax
	call	_xmlFAGenerateEpsilonTransition

; 5285 : 	start0 = ctxt->state;

	mov	edi, DWORD PTR [esi+24]

; 5286 : 	xmlFAGenerateEpsilonTransition(ctxt, ctxt->state, NULL);

	push	0
	push	edi
	push	esi
	call	_xmlFAGenerateEpsilonTransition

; 5287 : 	start = ctxt->state;
; 5288 : 	oldend = ctxt->end;

	mov	eax, DWORD PTR [esi+20]
	mov	ebx, DWORD PTR [esi+24]

; 5289 : 	ctxt->end = NULL;
; 5290 : 	ctxt->atom = NULL;
; 5291 : 	xmlFAParseRegExp(ctxt, 0);

	push	0
	push	esi
	mov	DWORD PTR _oldend$1$[ebp], eax
	mov	DWORD PTR [esi+20], 0
	mov	DWORD PTR [esi+28], 0
	call	_xmlFAParseRegExp

; 5292 : 	if (CUR == ')') {

	mov	eax, DWORD PTR [esi+4]
	add	esp, 32					; 00000020H
	cmp	BYTE PTR [eax], 41			; 00000029H
	jne	SHORT $LN13@xmlFAParse

; 5293 : 	    NEXT;

	inc	eax
	mov	DWORD PTR [esi+4], eax

; 5294 : 	} else {

	jmp	SHORT $LN14@xmlFAParse
$LN13@xmlFAParse:

; 5295 : 	    ERROR("xmlFAParseAtom: expecting ')'");

	push	OFFSET ??_C@_0BO@CCFFKIJF@xmlFAParseAtom?3?5expecting?5?8?$CJ?8@
	push	esi
	mov	DWORD PTR [esi+8], 1450			; 000005aaH
	call	_xmlRegexpErrCompile
	add	esp, 8
$LN14@xmlFAParse:

; 5296 : 	}
; 5297 : 	ctxt->atom = xmlRegNewAtom(ctxt, XML_REGEXP_SUBREG);

	push	4
	push	esi
	call	_xmlRegNewAtom
	add	esp, 8
	mov	DWORD PTR [esi+28], eax

; 5298 : 	if (ctxt->atom == NULL)

	test	eax, eax
	jne	SHORT $LN15@xmlFAParse
$LN52@xmlFAParse:
	pop	edi

; 5308 :     }
; 5309 :     return(0);
; 5310 : }

	pop	esi
	or	eax, -1
	pop	ebx
	mov	esp, ebp
	pop	ebp
	ret	0
$LN15@xmlFAParse:

; 5299 : 	    return(-1);
; 5300 : 	ctxt->atom->start = start;

	mov	DWORD PTR [eax+36], ebx

; 5301 : 	ctxt->atom->start0 = start0;

	mov	eax, DWORD PTR [esi+28]
	mov	DWORD PTR [eax+40], edi

; 5302 : 	ctxt->atom->stop = ctxt->state;

	mov	ecx, DWORD PTR [esi+28]
	mov	eax, DWORD PTR [esi+24]
	pop	edi
	mov	DWORD PTR [ecx+44], eax

; 5303 : 	ctxt->end = oldend;

	mov	eax, DWORD PTR _oldend$1$[ebp]
	mov	DWORD PTR [esi+20], eax

; 5304 : 	return(1);

	mov	eax, 1

; 5308 :     }
; 5309 :     return(0);
; 5310 : }

	pop	esi
	pop	ebx
	mov	esp, ebp
	pop	ebp
	ret	0
$LN11@xmlFAParse:

; 5305 :     } else if ((CUR == '[') || (CUR == '\\') || (CUR == '.')) {

	cmp	al, 91					; 0000005bH
	je	SHORT $LN50@xmlFAParse
	cmp	al, 92					; 0000005cH
	je	SHORT $LN44@xmlFAParse
	cmp	al, 46					; 0000002eH
	jne	SHORT $LN51@xmlFAParse
$LN44@xmlFAParse:

; 5159 : 	xmlFAParseCharClassEsc(ctxt);

	push	esi
	call	_xmlFAParseCharClassEsc
	add	esp, 4

; 5306 : 	xmlFAParseCharClass(ctxt);
; 5307 : 	return(1);

	mov	eax, 1
	pop	edi

; 5308 :     }
; 5309 :     return(0);
; 5310 : }

	pop	esi
	pop	ebx
	mov	esp, ebp
	pop	ebp
	ret	0
$LN50@xmlFAParse:

; 5148 : 	NEXT;

	lea	eax, DWORD PTR [ecx+1]

; 5149 : 	ctxt->atom = xmlRegNewAtom(ctxt, XML_REGEXP_RANGES);

	push	3
	push	esi
	mov	DWORD PTR [esi+4], eax
	call	_xmlRegNewAtom
	add	esp, 8
	mov	DWORD PTR [esi+28], eax

; 5150 : 	if (ctxt->atom == NULL)

	test	eax, eax
	je	SHORT $LN45@xmlFAParse

; 5151 : 	    return;
; 5152 : 	xmlFAParseCharGroup(ctxt);

	push	esi
	call	_xmlFAParseCharGroup

; 5153 : 	if (CUR == ']') {

	mov	eax, DWORD PTR [esi+4]
	add	esp, 4
	cmp	BYTE PTR [eax], 93			; 0000005dH
	jne	SHORT $LN47@xmlFAParse

; 5154 : 	    NEXT;

	inc	eax
	pop	edi
	mov	DWORD PTR [esi+4], eax

; 5306 : 	xmlFAParseCharClass(ctxt);
; 5307 : 	return(1);

	mov	eax, 1

; 5308 :     }
; 5309 :     return(0);
; 5310 : }

	pop	esi
	pop	ebx
	mov	esp, ebp
	pop	ebp
	ret	0
$LN47@xmlFAParse:

; 5156 : 	    ERROR("xmlFAParseCharClass: ']' expected");

	push	OFFSET ??_C@_0CC@FKLKCEIP@xmlFAParseCharClass?3?5?8?$FN?8?5expect@
	push	esi
	mov	DWORD PTR [esi+8], 1450			; 000005aaH
	call	_xmlRegexpErrCompile
	add	esp, 8
$LN45@xmlFAParse:
	pop	edi

; 5308 :     }
; 5309 :     return(0);
; 5310 : }

	pop	esi
	mov	eax, 1
	pop	ebx
	mov	esp, ebp
	pop	ebp
	ret	0
$LN51@xmlFAParse:
	pop	edi
	pop	esi
	xor	eax, eax
	pop	ebx
	mov	esp, ebp
	pop	ebp
	ret	0
_xmlFAParseAtom ENDP
_TEXT	ENDS
; Function compile flags: /Ogtp
; File c:\users\dag\documents\_clients\codeproject authors group\windows on arm\libxml2\libxml2-2.9.9\xmlregexp.c
;	COMDAT _xmlFAParseQuantifier
_TEXT	SEGMENT
_ctxt$ = 8						; size = 4
_xmlFAParseQuantifier PROC				; COMDAT

; 5198 : xmlFAParseQuantifier(xmlRegParserCtxtPtr ctxt) {

	push	ebp
	mov	ebp, esp
	push	esi
	mov	ecx, OFFSET __F6DD4902_xmlregexp@c
	call	@__CheckForDebuggerJustMyCode@4
	mov	esi, DWORD PTR _ctxt$[ebp]
	mov	ecx, DWORD PTR [esi+4]
	mov	al, BYTE PTR [ecx]
	cmp	al, 63					; 0000003fH
	je	$LN3@xmlFAParse

; 5199 :     int cur;
; 5200 : 
; 5201 :     cur = CUR;
; 5202 :     if ((cur == '?') || (cur == '*') || (cur == '+')) {

	cmp	al, 42					; 0000002aH
	je	$LN3@xmlFAParse
	cmp	al, 43					; 0000002bH
	je	$LN3@xmlFAParse

; 5212 : 	return(1);
; 5213 :     }
; 5214 :     if (cur == '{') {

	cmp	al, 123					; 0000007bH
	jne	$LN10@xmlFAParse

; 5215 : 	int min = 0, max = 0;

	push	ebx
	push	edi

; 5216 : 
; 5217 : 	NEXT;

	lea	eax, DWORD PTR [ecx+1]
	xor	edi, edi

; 5218 : 	cur = xmlFAParseQuantExact(ctxt);

	push	esi
	xor	ebx, ebx
	mov	DWORD PTR [esi+4], eax
	call	_xmlFAParseQuantExact
	add	esp, 4

; 5219 : 	if (cur >= 0)

	test	eax, eax
	cmovns	edi, eax

; 5220 : 	    min = cur;
; 5221 : 	if (CUR == ',') {

	mov	eax, DWORD PTR [esi+4]
	cmp	BYTE PTR [eax], 44			; 0000002cH
	jne	SHORT $LN16@xmlFAParse

; 5222 : 	    NEXT;

	inc	eax
	mov	DWORD PTR [esi+4], eax

; 5223 : 	    if (CUR == '}')

	cmp	BYTE PTR [eax], 125			; 0000007dH
	jne	SHORT $LN13@xmlFAParse

; 5224 : 	        max = INT_MAX;

	mov	ebx, 2147483647				; 7fffffffH
	jmp	SHORT $LN16@xmlFAParse
$LN13@xmlFAParse:

; 5225 : 	    else {
; 5226 : 	        cur = xmlFAParseQuantExact(ctxt);

	push	esi
	call	_xmlFAParseQuantExact
	add	esp, 4

; 5227 : 	        if (cur >= 0)

	test	eax, eax
	js	SHORT $LN15@xmlFAParse

; 5228 : 		    max = cur;

	mov	ebx, eax
	jmp	SHORT $LN16@xmlFAParse
$LN15@xmlFAParse:

; 5229 : 		else {
; 5230 : 		    ERROR("Improper quantifier");

	push	OFFSET ??_C@_0BE@PGBJEMPN@Improper?5quantifier@
	push	esi
	mov	DWORD PTR [esi+8], 1450			; 000005aaH
	call	_xmlRegexpErrCompile
	add	esp, 8
$LN16@xmlFAParse:

; 5231 : 		}
; 5232 : 	    }
; 5233 : 	}
; 5234 : 	if (CUR == '}') {

	mov	eax, DWORD PTR [esi+4]
	cmp	BYTE PTR [eax], 125			; 0000007dH
	jne	SHORT $LN17@xmlFAParse

; 5235 : 	    NEXT;

	inc	eax
	mov	DWORD PTR [esi+4], eax

; 5236 : 	} else {

	jmp	SHORT $LN18@xmlFAParse
$LN17@xmlFAParse:

; 5237 : 	    ERROR("Unterminated quantifier");

	push	OFFSET ??_C@_0BI@HKPFPPFN@Unterminated?5quantifier@
	push	esi
	mov	DWORD PTR [esi+8], 1450			; 000005aaH
	call	_xmlRegexpErrCompile
	add	esp, 8
$LN18@xmlFAParse:

; 5238 : 	}
; 5239 : 	if (max == 0)
; 5240 : 	    max = min;
; 5241 : 	if (ctxt->atom != NULL) {

	mov	eax, DWORD PTR [esi+28]
	test	eax, eax
	je	SHORT $LN20@xmlFAParse

; 5242 : 	    ctxt->atom->quant = XML_REGEXP_QUANT_RANGE;

	mov	DWORD PTR [eax+8], 8
	test	ebx, ebx

; 5243 : 	    ctxt->atom->min = min;

	mov	eax, DWORD PTR [esi+28]
	mov	DWORD PTR [eax+12], edi
	cmovne	edi, ebx

; 5244 : 	    ctxt->atom->max = max;

	mov	eax, DWORD PTR [esi+28]
	mov	DWORD PTR [eax+16], edi
$LN20@xmlFAParse:

; 5245 : 	}
; 5246 : 	return(1);

	pop	edi
	pop	ebx

; 5249 : }

	mov	eax, 1
	pop	esi
	pop	ebp
	ret	0
$LN10@xmlFAParse:

; 5247 :     }
; 5248 :     return(0);

	xor	eax, eax
	pop	esi

; 5249 : }

	pop	ebp
	ret	0
$LN3@xmlFAParse:

; 5203 : 	if (ctxt->atom != NULL) {

	mov	ecx, DWORD PTR [esi+28]
	test	ecx, ecx
	je	SHORT $LN9@xmlFAParse

; 5204 : 	    if (cur == '?')

	cmp	al, 63					; 0000003fH
	jne	SHORT $LN5@xmlFAParse

; 5205 : 		ctxt->atom->quant = XML_REGEXP_QUANT_OPT;

	mov	DWORD PTR [ecx+8], 3

; 5249 : }

	mov	eax, 1
	inc	DWORD PTR [esi+4]
	pop	esi
	pop	ebp
	ret	0
$LN5@xmlFAParse:

; 5206 : 	    else if (cur == '*')

	cmp	al, 42					; 0000002aH
	jne	SHORT $LN7@xmlFAParse

; 5207 : 		ctxt->atom->quant = XML_REGEXP_QUANT_MULT;

	mov	DWORD PTR [ecx+8], 4

; 5249 : }

	mov	eax, 1
	inc	DWORD PTR [esi+4]
	pop	esi
	pop	ebp
	ret	0
$LN7@xmlFAParse:

; 5208 : 	    else if (cur == '+')

	cmp	al, 43					; 0000002bH
	jne	SHORT $LN9@xmlFAParse

; 5209 : 		ctxt->atom->quant = XML_REGEXP_QUANT_PLUS;

	mov	DWORD PTR [ecx+8], 5
$LN9@xmlFAParse:

; 5210 : 	}
; 5211 : 	NEXT;

	inc	DWORD PTR [esi+4]

; 5249 : }

	mov	eax, 1
	pop	esi
	pop	ebp
	ret	0
_xmlFAParseQuantifier ENDP
_TEXT	ENDS
; Function compile flags: /Ogtp
; File c:\users\dag\documents\_clients\codeproject authors group\windows on arm\libxml2\libxml2-2.9.9\xmlregexp.c
;	COMDAT _xmlFAParseQuantExact
_TEXT	SEGMENT
_ctxt$ = 8						; size = 4
_xmlFAParseQuantExact PROC				; COMDAT

; 5172 : xmlFAParseQuantExact(xmlRegParserCtxtPtr ctxt) {

	push	ebp
	mov	ebp, esp
	push	esi
	push	edi
	mov	ecx, OFFSET __F6DD4902_xmlregexp@c
	call	@__CheckForDebuggerJustMyCode@4
	mov	edi, DWORD PTR _ctxt$[ebp]
	xor	ecx, ecx
	xor	esi, esi
	mov	edx, DWORD PTR [edi+4]
	mov	al, BYTE PTR [edx]
	cmp	al, 48					; 00000030H
	jb	SHORT $LN10@xmlFAParse
	npad	1
$LL2@xmlFAParse:

; 5173 :     int ret = 0;
; 5174 :     int ok = 0;
; 5175 : 
; 5176 :     while ((CUR >= '0') && (CUR <= '9')) {

	cmp	al, 57					; 00000039H
	ja	SHORT $LN3@xmlFAParse

; 5177 : 	ret = ret * 10 + (CUR - '0');

	movzx	eax, al
	lea	ecx, DWORD PTR [ecx+ecx*4]

; 5178 : 	ok = 1;
; 5179 : 	NEXT;

	inc	edx
	lea	ecx, DWORD PTR [ecx-24]
	mov	DWORD PTR [edi+4], edx
	mov	esi, 1
	lea	ecx, DWORD PTR [eax+ecx*2]
	mov	al, BYTE PTR [edx]
	cmp	al, 48					; 00000030H
	jae	SHORT $LL2@xmlFAParse

; 5183 :     }
; 5184 :     return(ret);

	pop	edi
	mov	eax, ecx

; 5185 : }

	pop	esi
	pop	ebp
	ret	0
$LN3@xmlFAParse:

; 5180 :     }
; 5181 :     if (ok != 1) {

	cmp	esi, 1
	jne	SHORT $LN10@xmlFAParse

; 5183 :     }
; 5184 :     return(ret);

	pop	edi
	mov	eax, ecx

; 5185 : }

	pop	esi
	pop	ebp
	ret	0
$LN10@xmlFAParse:
	pop	edi

; 5182 : 	return(-1);

	or	eax, -1

; 5185 : }

	pop	esi
	pop	ebp
	ret	0
_xmlFAParseQuantExact ENDP
_TEXT	ENDS
; Function compile flags: /Ogtp
; File c:\users\dag\documents\_clients\codeproject authors group\windows on arm\libxml2\libxml2-2.9.9\xmlregexp.c
;	COMDAT _xmlFAParseCharClass
_TEXT	SEGMENT
_ctxt$ = 8						; size = 4
_xmlFAParseCharClass PROC				; COMDAT

; 5146 : xmlFAParseCharClass(xmlRegParserCtxtPtr ctxt) {

	push	ebp
	mov	ebp, esp
	push	esi
	mov	ecx, OFFSET __F6DD4902_xmlregexp@c
	call	@__CheckForDebuggerJustMyCode@4
	mov	esi, DWORD PTR _ctxt$[ebp]
	mov	eax, DWORD PTR [esi+4]
	cmp	BYTE PTR [eax], 91			; 0000005bH
	jne	SHORT $LN2@xmlFAParse

; 5147 :     if (CUR == '[') {
; 5148 : 	NEXT;
; 5149 : 	ctxt->atom = xmlRegNewAtom(ctxt, XML_REGEXP_RANGES);

	inc	eax
	push	3
	push	esi
	mov	DWORD PTR [esi+4], eax
	call	_xmlRegNewAtom
	add	esp, 8
	mov	DWORD PTR [esi+28], eax

; 5150 : 	if (ctxt->atom == NULL)

	test	eax, eax
	je	SHORT $LN3@xmlFAParse

; 5151 : 	    return;
; 5152 : 	xmlFAParseCharGroup(ctxt);

	push	esi
	call	_xmlFAParseCharGroup

; 5153 : 	if (CUR == ']') {

	mov	eax, DWORD PTR [esi+4]
	add	esp, 4
	cmp	BYTE PTR [eax], 93			; 0000005dH
	jne	SHORT $LN5@xmlFAParse

; 5154 : 	    NEXT;

	inc	eax
	mov	DWORD PTR [esi+4], eax
	pop	esi

; 5160 :     }
; 5161 : }

	pop	ebp
	ret	0
$LN5@xmlFAParse:

; 5155 : 	} else {
; 5156 : 	    ERROR("xmlFAParseCharClass: ']' expected");

	push	OFFSET ??_C@_0CC@FKLKCEIP@xmlFAParseCharClass?3?5?8?$FN?8?5expect@
	push	esi
	mov	DWORD PTR [esi+8], 1450			; 000005aaH
	call	_xmlRegexpErrCompile
	add	esp, 8
	pop	esi

; 5160 :     }
; 5161 : }

	pop	ebp
	ret	0
$LN2@xmlFAParse:

; 5157 : 	}
; 5158 :     } else {
; 5159 : 	xmlFAParseCharClassEsc(ctxt);

	push	esi
	call	_xmlFAParseCharClassEsc
	add	esp, 4
$LN3@xmlFAParse:
	pop	esi

; 5160 :     }
; 5161 : }

	pop	ebp
	ret	0
_xmlFAParseCharClass ENDP
_TEXT	ENDS
; Function compile flags: /Ogtp
; File c:\users\dag\documents\_clients\codeproject authors group\windows on arm\libxml2\libxml2-2.9.9\xmlregexp.c
;	COMDAT _xmlFAParseCharGroup
_TEXT	SEGMENT
_ctxt$ = 8						; size = 4
_xmlFAParseCharGroup PROC				; COMDAT

; 5107 : xmlFAParseCharGroup(xmlRegParserCtxtPtr ctxt) {

	push	ebp
	mov	ebp, esp
	push	ebx
	push	esi
	mov	ecx, OFFSET __F6DD4902_xmlregexp@c
	call	@__CheckForDebuggerJustMyCode@4
	mov	esi, DWORD PTR _ctxt$[ebp]
	mov	eax, DWORD PTR [esi+4]
	mov	ebx, DWORD PTR [esi+12]
	cmp	BYTE PTR [eax], 93			; 0000005dH
	je	$LN18@xmlFAParse
	push	edi
$LL2@xmlFAParse:

; 5108 :     int n = ctxt->neg;
; 5109 :     while ((CUR != ']') && (ctxt->error == 0)) {

	cmp	DWORD PTR [esi+8], 0
	jne	$LN19@xmlFAParse

; 5110 : 	if (CUR == '^') {

	mov	cl, BYTE PTR [eax]
	cmp	cl, 94					; 0000005eH
	jne	SHORT $LN4@xmlFAParse

; 5111 : 	    int neg = ctxt->neg;

	mov	edi, DWORD PTR [esi+12]

; 5112 : 
; 5113 : 	    NEXT;

	inc	eax
	mov	DWORD PTR [esi+4], eax

; 5114 : 	    ctxt->neg = !ctxt->neg;

	xor	eax, eax
	test	edi, edi

; 5115 : 	    xmlFAParsePosCharGroup(ctxt);

	push	esi
	sete	al
	mov	DWORD PTR [esi+12], eax
	call	_xmlFAParsePosCharGroup

; 5116 : 	    ctxt->neg = neg;

	mov	DWORD PTR [esi+12], edi
	jmp	SHORT $LN21@xmlFAParse
$LN4@xmlFAParse:

; 5117 : 	} else if ((CUR == '-') && (NXT(1) == '[')) {

	cmp	cl, 45					; 0000002dH
	jne	SHORT $LN6@xmlFAParse
	cmp	BYTE PTR [eax+1], 91			; 0000005bH
	je	SHORT $LN13@xmlFAParse
$LN6@xmlFAParse:

; 5127 : 		break;
; 5128 : 	    }
; 5129 : 	    ctxt->neg = neg;
; 5130 : 	    break;
; 5131 : 	} else if (CUR != ']') {

	cmp	cl, 93					; 0000005dH
	je	SHORT $LN10@xmlFAParse

; 5132 : 	    xmlFAParsePosCharGroup(ctxt);

	push	esi
	call	_xmlFAParsePosCharGroup
$LN21@xmlFAParse:

; 5108 :     int n = ctxt->neg;
; 5109 :     while ((CUR != ']') && (ctxt->error == 0)) {

	add	esp, 4
$LN10@xmlFAParse:
	mov	eax, DWORD PTR [esi+4]
	cmp	BYTE PTR [eax], 93			; 0000005dH
	jne	SHORT $LL2@xmlFAParse

; 5133 : 	}
; 5134 :     }
; 5135 :     ctxt->neg = n;
; 5136 : }

	pop	edi
	mov	DWORD PTR [esi+12], ebx
	pop	esi
	pop	ebx
	pop	ebp
	ret	0
$LN13@xmlFAParse:

; 5118 : 	    int neg = ctxt->neg;
; 5119 : 	    ctxt->neg = 2;
; 5120 : 	    NEXT;	/* eat the '-' */
; 5121 : 	    NEXT;	/* eat the '[' */

	add	eax, 2
	mov	DWORD PTR [esi+12], 2

; 5122 : 	    xmlFAParseCharGroup(ctxt);

	push	esi
	mov	DWORD PTR [esi+4], eax
	call	_xmlFAParseCharGroup

; 5123 : 	    if (CUR == ']') {

	mov	eax, DWORD PTR [esi+4]
	add	esp, 4
	cmp	BYTE PTR [eax], 93			; 0000005dH
	jne	SHORT $LN8@xmlFAParse

; 5124 : 		NEXT;

	inc	eax

; 5133 : 	}
; 5134 :     }
; 5135 :     ctxt->neg = n;
; 5136 : }

	mov	DWORD PTR [esi+12], ebx
	pop	edi
	mov	DWORD PTR [esi+4], eax
	pop	esi
	pop	ebx
	pop	ebp
	ret	0
$LN8@xmlFAParse:

; 5125 : 	    } else {
; 5126 : 		ERROR("charClassExpr: ']' expected");

	push	OFFSET ??_C@_0BM@FJAEMPFO@charClassExpr?3?5?8?$FN?8?5expected@
	push	esi
	mov	DWORD PTR [esi+8], 1450			; 000005aaH
	call	_xmlRegexpErrCompile
	add	esp, 8
$LN19@xmlFAParse:
	pop	edi
$LN18@xmlFAParse:

; 5133 : 	}
; 5134 :     }
; 5135 :     ctxt->neg = n;
; 5136 : }

	mov	DWORD PTR [esi+12], ebx
	pop	esi
	pop	ebx
	pop	ebp
	ret	0
_xmlFAParseCharGroup ENDP
_TEXT	ENDS
; Function compile flags: /Ogtp
; File c:\users\dag\documents\_clients\codeproject authors group\windows on arm\libxml2\libxml2-2.9.9\xmlregexp.c
;	COMDAT _xmlFAParsePosCharGroup
_TEXT	SEGMENT
_ctxt$ = 8						; size = 4
_xmlFAParsePosCharGroup PROC				; COMDAT

; 5086 : xmlFAParsePosCharGroup(xmlRegParserCtxtPtr ctxt) {

	push	ebp
	mov	ebp, esp
	push	esi
	mov	ecx, OFFSET __F6DD4902_xmlregexp@c
	call	@__CheckForDebuggerJustMyCode@4
	mov	esi, DWORD PTR _ctxt$[ebp]
	mov	eax, DWORD PTR [esi+4]
	mov	al, BYTE PTR [eax]
$LL4@xmlFAParse:

; 5087 :     do {
; 5088 : 	if (CUR == '\\') {

	push	esi
	cmp	al, 92					; 0000005cH
	jne	SHORT $LN5@xmlFAParse

; 5089 : 	    xmlFAParseCharClassEsc(ctxt);

	call	_xmlFAParseCharClassEsc

; 5090 : 	} else {

	jmp	SHORT $LN12@xmlFAParse
$LN5@xmlFAParse:

; 5091 : 	    xmlFAParseCharRange(ctxt);

	call	_xmlFAParseCharRange
$LN12@xmlFAParse:

; 5092 : 	}
; 5093 :     } while ((CUR != ']') && (CUR != '^') && (CUR != '-') &&
; 5094 :              (CUR != 0) && (ctxt->error == 0));

	mov	eax, DWORD PTR [esi+4]
	add	esp, 4
	mov	al, BYTE PTR [eax]
	cmp	al, 93					; 0000005dH
	je	SHORT $LN7@xmlFAParse
	cmp	al, 94					; 0000005eH
	je	SHORT $LN7@xmlFAParse
	cmp	al, 45					; 0000002dH
	je	SHORT $LN7@xmlFAParse
	test	al, al
	je	SHORT $LN7@xmlFAParse
	cmp	DWORD PTR [esi+8], 0
	je	SHORT $LL4@xmlFAParse
$LN7@xmlFAParse:
	pop	esi

; 5095 : }

	pop	ebp
	ret	0
_xmlFAParsePosCharGroup ENDP
_TEXT	ENDS
; Function compile flags: /Ogtp
; File c:\users\dag\documents\_clients\codeproject authors group\windows on arm\libxml2\libxml2-2.9.9\xmlregexp.c
;	COMDAT _xmlFAParseCharRange
_TEXT	SEGMENT
_len$ = -4						; size = 4
_ctxt$ = 8						; size = 4
_xmlFAParseCharRange PROC				; COMDAT

; 4994 : xmlFAParseCharRange(xmlRegParserCtxtPtr ctxt) {

	push	ebp
	mov	ebp, esp
	push	ecx
	push	esi
	mov	ecx, OFFSET __F6DD4902_xmlregexp@c
	call	@__CheckForDebuggerJustMyCode@4
	mov	esi, DWORD PTR _ctxt$[ebp]
	mov	ecx, DWORD PTR [esi+4]
	mov	al, BYTE PTR [ecx]
	test	al, al
	jne	SHORT $LN6@xmlFAParse

; 4995 :     int cur, len;
; 4996 :     int start = -1;
; 4997 :     int end = -1;
; 4998 : 
; 4999 :     if (CUR == '\0') {
; 5000 :         ERROR("Expecting ']'");

	push	OFFSET ??_C@_0O@NKKGCCKG@Expecting?5?8?$FN?8@
	push	esi
	mov	DWORD PTR [esi+8], 1450			; 000005aaH
	call	_xmlRegexpErrCompile
	add	esp, 8
	pop	esi

; 5074 : 		           XML_REGEXP_CHARVAL, start, end, NULL);
; 5075 :     }
; 5076 :     return;
; 5077 : }

	mov	esp, ebp
	pop	ebp
	ret	0
$LN6@xmlFAParse:
	push	edi

; 5001 : 	return;
; 5002 :     }
; 5003 : 
; 5004 :     cur = CUR;
; 5005 :     if (cur == '\\') {

	cmp	al, 92					; 0000005cH
	jne	SHORT $LN7@xmlFAParse

; 5006 : 	NEXT;

	lea	eax, DWORD PTR [ecx+1]
	mov	DWORD PTR [esi+4], eax

; 5007 : 	cur = CUR;

	movzx	edi, BYTE PTR [eax]

; 5008 : 	switch (cur) {

	lea	eax, DWORD PTR [edi-40]
	cmp	eax, 85					; 00000055H
	ja	$LN25@xmlFAParse
	movzx	eax, BYTE PTR $LN31@xmlFAParse[eax]
	jmp	DWORD PTR $LN37@xmlFAParse[eax*4]
$LN9@xmlFAParse:

; 5012 : 	    case '\\': case '|': case '.': case '-': case '^': case '?':
; 5013 : 	    case '*': case '+': case '{': case '}': case '(': case ')':
; 5014 : 	    case '[': case ']':
; 5015 : 		start = cur; break;
; 5016 : 	    default:
; 5017 : 		ERROR("Invalid escape value");
; 5018 : 		return;
; 5019 : 	}
; 5020 : 	end = start;
; 5021 :         len = 1;

	mov	eax, 1
	mov	edi, 10					; 0000000aH
	mov	DWORD PTR _len$[ebp], eax
	jmp	SHORT $LN15@xmlFAParse
$LN10@xmlFAParse:
	mov	eax, 1
	mov	edi, 13					; 0000000dH
	mov	DWORD PTR _len$[ebp], eax
	jmp	SHORT $LN15@xmlFAParse
$LN11@xmlFAParse:

; 5009 : 	    case 'n': start = 0xA; break;
; 5010 : 	    case 'r': start = 0xD; break;
; 5011 : 	    case 't': start = 0x9; break;

	mov	edi, 9
$LN12@xmlFAParse:

; 5012 : 	    case '\\': case '|': case '.': case '-': case '^': case '?':
; 5013 : 	    case '*': case '+': case '{': case '}': case '(': case ')':
; 5014 : 	    case '[': case ']':
; 5015 : 		start = cur; break;
; 5016 : 	    default:
; 5017 : 		ERROR("Invalid escape value");
; 5018 : 		return;
; 5019 : 	}
; 5020 : 	end = start;
; 5021 :         len = 1;

	mov	eax, 1
	mov	DWORD PTR _len$[ebp], eax
	jmp	SHORT $LN15@xmlFAParse
$LN7@xmlFAParse:

; 5022 :     } else if ((cur != 0x5B) && (cur != 0x5D)) {

	cmp	al, 91					; 0000005bH
	je	$LN14@xmlFAParse
	cmp	al, 93					; 0000005dH
	je	$LN14@xmlFAParse

; 5023 :         end = start = CUR_SCHAR(ctxt->cur, len);

	lea	eax, DWORD PTR _len$[ebp]
	push	eax
	push	ecx
	push	0
	call	_xmlStringCurrentChar
	mov	edi, eax
	add	esp, 12					; 0000000cH
	mov	eax, DWORD PTR _len$[ebp]
$LN15@xmlFAParse:

; 5026 : 	return;
; 5027 :     }
; 5028 :     /*
; 5029 :      * Since we are "inside" a range, we can assume ctxt->cur is past
; 5030 :      * the start of ctxt->string, and PREV should be safe
; 5031 :      */
; 5032 :     if ((start == '-') && (NXT(1) != ']') && (PREV != '[') && (PREV != '^')) {

	cmp	edi, 45					; 0000002dH
	jne	SHORT $LN16@xmlFAParse
	mov	ecx, DWORD PTR [esi+4]
	cmp	BYTE PTR [ecx+1], 93			; 0000005dH
	je	SHORT $LN16@xmlFAParse
	mov	dl, BYTE PTR [ecx-1]
	cmp	dl, 91					; 0000005bH
	je	SHORT $LN16@xmlFAParse
	cmp	dl, 94					; 0000005eH
	je	SHORT $LN16@xmlFAParse

; 5033 : 	NEXTL(len);

	add	eax, ecx
	pop	edi
	mov	DWORD PTR [esi+4], eax
	pop	esi

; 5074 : 		           XML_REGEXP_CHARVAL, start, end, NULL);
; 5075 :     }
; 5076 :     return;
; 5077 : }

	mov	esp, ebp
	pop	ebp
	ret	0
$LN16@xmlFAParse:

; 5034 : 	return;
; 5035 :     }
; 5036 :     NEXTL(len);

	add	DWORD PTR [esi+4], eax
	mov	ecx, DWORD PTR [esi+4]

; 5037 :     cur = CUR;
; 5038 :     if ((cur != '-') || (NXT(1) == ']')) {

	cmp	BYTE PTR [ecx], 45			; 0000002dH
	jne	$LN18@xmlFAParse
	inc	ecx
	cmp	BYTE PTR [ecx], 93			; 0000005dH
	je	$LN18@xmlFAParse

; 5040 : 		              XML_REGEXP_CHARVAL, start, end, NULL);
; 5041 : 	return;
; 5042 :     }
; 5043 :     NEXT;

	mov	DWORD PTR [esi+4], ecx

; 5044 :     cur = CUR;

	mov	al, BYTE PTR [ecx]

; 5045 :     if (cur == '\\') {

	cmp	al, 92					; 0000005cH
	jne	SHORT $LN19@xmlFAParse

; 5046 : 	NEXT;

	lea	eax, DWORD PTR [ecx+1]
	mov	DWORD PTR [esi+4], eax

; 5047 : 	cur = CUR;

	movzx	ecx, BYTE PTR [eax]

; 5048 : 	switch (cur) {

	lea	eax, DWORD PTR [ecx-40]
	cmp	eax, 85					; 00000055H
	ja	SHORT $LN25@xmlFAParse
	movzx	eax, BYTE PTR $LN32@xmlFAParse[eax]
	jmp	DWORD PTR $LN38@xmlFAParse[eax*4]
$LN21@xmlFAParse:

; 5059 : 	}
; 5060 :         len = 1;

	mov	eax, 1
	mov	ecx, 10					; 0000000aH
	mov	DWORD PTR _len$[ebp], eax
	jmp	SHORT $LN27@xmlFAParse
$LN22@xmlFAParse:
	mov	eax, 1
	mov	ecx, 13					; 0000000dH
	mov	DWORD PTR _len$[ebp], eax
	jmp	SHORT $LN27@xmlFAParse
$LN23@xmlFAParse:

; 5049 : 	    case 'n': end = 0xA; break;
; 5050 : 	    case 'r': end = 0xD; break;
; 5051 : 	    case 't': end = 0x9; break;

	mov	ecx, 9
$LN24@xmlFAParse:

; 5059 : 	}
; 5060 :         len = 1;

	mov	eax, 1
	mov	DWORD PTR _len$[ebp], eax
	jmp	SHORT $LN27@xmlFAParse
$LN25@xmlFAParse:

; 5052 : 	    case '\\': case '|': case '.': case '-': case '^': case '?':
; 5053 : 	    case '*': case '+': case '{': case '}': case '(': case ')':
; 5054 : 	    case '[': case ']':
; 5055 : 		end = cur; break;
; 5056 : 	    default:
; 5057 : 		ERROR("Invalid escape value");

	push	OFFSET ??_C@_0BF@HOMDEKLG@Invalid?5escape?5value@

; 5058 : 		return;

	jmp	SHORT $LN34@xmlFAParse
$LN19@xmlFAParse:

; 5061 :     } else if ((cur != '\0') && (cur != 0x5B) && (cur != 0x5D)) {

	test	al, al
	je	SHORT $LN26@xmlFAParse
	cmp	al, 91					; 0000005bH
	je	SHORT $LN26@xmlFAParse
	cmp	al, 93					; 0000005dH
	je	SHORT $LN26@xmlFAParse

; 5062 :         end = CUR_SCHAR(ctxt->cur, len);

	lea	eax, DWORD PTR _len$[ebp]
	push	eax
	push	ecx
	push	0
	call	_xmlStringCurrentChar
	mov	ecx, eax
	add	esp, 12					; 0000000cH
	mov	eax, DWORD PTR _len$[ebp]
$LN27@xmlFAParse:

; 5066 :     }
; 5067 : 
; 5068 :     /* TODO check that the values are acceptable character ranges for XML */
; 5069 :     if (end < start) {

	cmp	ecx, edi
	jge	SHORT $LN28@xmlFAParse

; 5070 : 	ERROR("End of range is before start of range");

	push	OFFSET ??_C@_0CG@BKADGONK@End?5of?5range?5is?5before?5start?5of@

; 5071 :     } else {

	jmp	SHORT $LN34@xmlFAParse
$LN28@xmlFAParse:

; 5072 :         NEXTL(len);

	add	DWORD PTR [esi+4], eax

; 5073 :         xmlRegAtomAddRange(ctxt, ctxt->atom, ctxt->neg,

	push	0
	push	ecx
	jmp	SHORT $LN35@xmlFAParse
$LN26@xmlFAParse:

; 5063 :     } else {
; 5064 : 	ERROR("Expecting the end of a char range");

	push	OFFSET ??_C@_0CC@JHFKDBIP@Expecting?5the?5end?5of?5a?5char?5ran@

; 5065 : 	return;

	jmp	SHORT $LN34@xmlFAParse
$LN18@xmlFAParse:

; 5039 :         xmlRegAtomAddRange(ctxt, ctxt->atom, ctxt->neg,

	push	0
	push	edi
$LN35@xmlFAParse:
	push	edi
	push	2
	push	DWORD PTR [esi+12]
	push	DWORD PTR [esi+28]
	push	esi
	call	_xmlRegAtomAddRange
	add	esp, 28					; 0000001cH
	pop	edi
	pop	esi

; 5074 : 		           XML_REGEXP_CHARVAL, start, end, NULL);
; 5075 :     }
; 5076 :     return;
; 5077 : }

	mov	esp, ebp
	pop	ebp
	ret	0
$LN14@xmlFAParse:

; 5024 :     } else {
; 5025 : 	ERROR("Expecting a char range");

	push	OFFSET ??_C@_0BH@LOJMKNAD@Expecting?5a?5char?5range@
$LN34@xmlFAParse:
	push	esi
	mov	DWORD PTR [esi+8], 1450			; 000005aaH
	call	_xmlRegexpErrCompile
	add	esp, 8
	pop	edi
	pop	esi

; 5074 : 		           XML_REGEXP_CHARVAL, start, end, NULL);
; 5075 :     }
; 5076 :     return;
; 5077 : }

	mov	esp, ebp
	pop	ebp
	ret	0
	npad	3
$LN37@xmlFAParse:
	DD	$LN12@xmlFAParse
	DD	$LN9@xmlFAParse
	DD	$LN10@xmlFAParse
	DD	$LN11@xmlFAParse
	DD	$LN25@xmlFAParse
$LN31@xmlFAParse:
	DB	0
	DB	0
	DB	0
	DB	0
	DB	4
	DB	0
	DB	0
	DB	4
	DB	4
	DB	4
	DB	4
	DB	4
	DB	4
	DB	4
	DB	4
	DB	4
	DB	4
	DB	4
	DB	4
	DB	4
	DB	4
	DB	4
	DB	4
	DB	0
	DB	4
	DB	4
	DB	4
	DB	4
	DB	4
	DB	4
	DB	4
	DB	4
	DB	4
	DB	4
	DB	4
	DB	4
	DB	4
	DB	4
	DB	4
	DB	4
	DB	4
	DB	4
	DB	4
	DB	4
	DB	4
	DB	4
	DB	4
	DB	4
	DB	4
	DB	4
	DB	4
	DB	0
	DB	0
	DB	0
	DB	0
	DB	4
	DB	4
	DB	4
	DB	4
	DB	4
	DB	4
	DB	4
	DB	4
	DB	4
	DB	4
	DB	4
	DB	4
	DB	4
	DB	4
	DB	4
	DB	1
	DB	4
	DB	4
	DB	4
	DB	2
	DB	4
	DB	3
	DB	4
	DB	4
	DB	4
	DB	4
	DB	4
	DB	4
	DB	0
	DB	0
	DB	0
	npad	2
$LN38@xmlFAParse:
	DD	$LN24@xmlFAParse
	DD	$LN21@xmlFAParse
	DD	$LN22@xmlFAParse
	DD	$LN23@xmlFAParse
	DD	$LN25@xmlFAParse
$LN32@xmlFAParse:
	DB	0
	DB	0
	DB	0
	DB	0
	DB	4
	DB	0
	DB	0
	DB	4
	DB	4
	DB	4
	DB	4
	DB	4
	DB	4
	DB	4
	DB	4
	DB	4
	DB	4
	DB	4
	DB	4
	DB	4
	DB	4
	DB	4
	DB	4
	DB	0
	DB	4
	DB	4
	DB	4
	DB	4
	DB	4
	DB	4
	DB	4
	DB	4
	DB	4
	DB	4
	DB	4
	DB	4
	DB	4
	DB	4
	DB	4
	DB	4
	DB	4
	DB	4
	DB	4
	DB	4
	DB	4
	DB	4
	DB	4
	DB	4
	DB	4
	DB	4
	DB	4
	DB	0
	DB	0
	DB	0
	DB	0
	DB	4
	DB	4
	DB	4
	DB	4
	DB	4
	DB	4
	DB	4
	DB	4
	DB	4
	DB	4
	DB	4
	DB	4
	DB	4
	DB	4
	DB	4
	DB	1
	DB	4
	DB	4
	DB	4
	DB	2
	DB	4
	DB	3
	DB	4
	DB	4
	DB	4
	DB	4
	DB	4
	DB	4
	DB	0
	DB	0
	DB	0
_xmlFAParseCharRange ENDP
_TEXT	ENDS
; Function compile flags: /Ogtp
; File c:\users\dag\documents\_clients\codeproject authors group\windows on arm\libxml2\libxml2-2.9.9\xmlregexp.c
;	COMDAT _xmlFAParseCharClassEsc
_TEXT	SEGMENT
_ctxt$ = 8						; size = 4
_xmlFAParseCharClassEsc PROC				; COMDAT

; 4849 : xmlFAParseCharClassEsc(xmlRegParserCtxtPtr ctxt) {

	push	ebp
	mov	ebp, esp
	push	esi
	mov	ecx, OFFSET __F6DD4902_xmlregexp@c
	call	@__CheckForDebuggerJustMyCode@4
	mov	esi, DWORD PTR _ctxt$[ebp]
	mov	ecx, DWORD PTR [esi+4]
	mov	al, BYTE PTR [ecx]
	cmp	al, 46					; 0000002eH
	jne	SHORT $LN8@xmlFAParse

; 4850 :     int cur;
; 4851 : 
; 4852 :     if (CUR == '.') {
; 4853 : 	if (ctxt->atom == NULL) {

	mov	eax, DWORD PTR [esi+28]
	test	eax, eax
	jne	SHORT $LN9@xmlFAParse

; 4854 : 	    ctxt->atom = xmlRegNewAtom(ctxt, XML_REGEXP_ANYCHAR);

	push	6
	push	esi
	call	_xmlRegNewAtom
	add	esp, 8
	mov	DWORD PTR [esi+28], eax

; 4857 : 			       XML_REGEXP_ANYCHAR, 0, 0, NULL);
; 4858 : 	}
; 4859 : 	NEXT;

	inc	DWORD PTR [esi+4]
	pop	esi

; 4980 :     }
; 4981 : }

	pop	ebp
	ret	0
$LN9@xmlFAParse:

; 4855 : 	} else if (ctxt->atom->type == XML_REGEXP_RANGES) {

	cmp	DWORD PTR [eax+4], 3
	jne	SHORT $LN11@xmlFAParse

; 4856 : 	    xmlRegAtomAddRange(ctxt, ctxt->atom, ctxt->neg,

	push	0
	push	0
	push	0
	push	6
	push	DWORD PTR [esi+12]
	push	eax
	push	esi
	call	_xmlRegAtomAddRange
	add	esp, 28					; 0000001cH
$LN11@xmlFAParse:

; 4857 : 			       XML_REGEXP_ANYCHAR, 0, 0, NULL);
; 4858 : 	}
; 4859 : 	NEXT;

	inc	DWORD PTR [esi+4]
	pop	esi

; 4980 :     }
; 4981 : }

	pop	ebp
	ret	0
$LN8@xmlFAParse:

; 4860 : 	return;
; 4861 :     }
; 4862 :     if (CUR != '\\') {

	cmp	al, 92					; 0000005cH
	je	SHORT $LN12@xmlFAParse

; 4863 : 	ERROR("Escaped sequence: expecting \\");

	push	OFFSET ??_C@_0BO@BOFONOMH@Escaped?5sequence?3?5expecting?5?2@
	push	esi
	mov	DWORD PTR [esi+8], 1450			; 000005aaH
	call	_xmlRegexpErrCompile
	add	esp, 8
	pop	esi

; 4980 :     }
; 4981 : }

	pop	ebp
	ret	0
$LN12@xmlFAParse:

; 4864 : 	return;
; 4865 :     }
; 4866 :     NEXT;

	lea	edx, DWORD PTR [ecx+1]
	push	edi
	mov	DWORD PTR [esi+4], edx

; 4867 :     cur = CUR;

	movzx	edi, BYTE PTR [edx]

; 4868 :     if (cur == 'p') {

	cmp	edi, 112				; 00000070H
	jne	SHORT $LN13@xmlFAParse

; 4869 : 	NEXT;

	lea	eax, DWORD PTR [edx+1]
	mov	DWORD PTR [esi+4], eax

; 4870 : 	if (CUR != '{') {

	cmp	BYTE PTR [eax], 123			; 0000007bH
	jne	SHORT $LN54@xmlFAParse

; 4871 : 	    ERROR("Expecting '{'");
; 4872 : 	    return;
; 4873 : 	}
; 4874 : 	NEXT;

	inc	eax

; 4875 : 	xmlFAParseCharProp(ctxt);

	push	esi
	mov	DWORD PTR [esi+4], eax
	call	_xmlFAParseCharProp

; 4876 : 	if (CUR != '}') {

	mov	eax, DWORD PTR [esi+4]
	add	esp, 4
	cmp	BYTE PTR [eax], 125			; 0000007dH
	jne	SHORT $LN53@xmlFAParse
$LN21@xmlFAParse:

; 4877 : 	    ERROR("Expecting '}'");
; 4878 : 	    return;
; 4879 : 	}
; 4880 : 	NEXT;

	inc	eax
	pop	edi
	mov	DWORD PTR [esi+4], eax
	pop	esi

; 4980 :     }
; 4981 : }

	pop	ebp
	ret	0
$LN13@xmlFAParse:

; 4881 :     } else if (cur == 'P') {

	cmp	edi, 80					; 00000050H
	jne	SHORT $LN17@xmlFAParse

; 4882 : 	NEXT;

	lea	eax, DWORD PTR [edx+1]
	mov	DWORD PTR [esi+4], eax

; 4883 : 	if (CUR != '{') {

	cmp	BYTE PTR [eax], 123			; 0000007bH
	je	SHORT $LN19@xmlFAParse
$LN54@xmlFAParse:

; 4884 : 	    ERROR("Expecting '{'");

	push	OFFSET ??_C@_0O@OGGGBIPE@Expecting?5?8?$HL?8@
	push	esi
	mov	DWORD PTR [esi+8], 1450			; 000005aaH
	call	_xmlRegexpErrCompile
	add	esp, 8
	pop	edi
	pop	esi

; 4980 :     }
; 4981 : }

	pop	ebp
	ret	0
$LN19@xmlFAParse:

; 4885 : 	    return;
; 4886 : 	}
; 4887 : 	NEXT;

	inc	eax

; 4888 : 	xmlFAParseCharProp(ctxt);

	push	esi
	mov	DWORD PTR [esi+4], eax
	call	_xmlFAParseCharProp

; 4889 :         if (ctxt->atom != NULL)

	mov	eax, DWORD PTR [esi+28]
	add	esp, 4
	test	eax, eax
	je	SHORT $LN20@xmlFAParse

; 4890 : 	    ctxt->atom->neg = 1;

	mov	DWORD PTR [eax+28], 1
$LN20@xmlFAParse:

; 4891 : 	if (CUR != '}') {

	mov	eax, DWORD PTR [esi+4]
	cmp	BYTE PTR [eax], 125			; 0000007dH
	je	SHORT $LN21@xmlFAParse
$LN53@xmlFAParse:

; 4892 : 	    ERROR("Expecting '}'");

	push	OFFSET ??_C@_0O@OCOLGEEG@Expecting?5?8?$HN?8@
	push	esi
	mov	DWORD PTR [esi+8], 1450			; 000005aaH
	call	_xmlRegexpErrCompile
	add	esp, 8
	pop	edi
	pop	esi

; 4980 :     }
; 4981 : }

	pop	ebp
	ret	0
$LN17@xmlFAParse:

; 4893 : 	    return;
; 4894 : 	}
; 4895 : 	NEXT;
; 4896 :     } else if ((cur == 'n') || (cur == 'r') || (cur == 't') || (cur == '\\') ||
; 4897 : 	(cur == '|') || (cur == '.') || (cur == '?') || (cur == '*') ||
; 4898 : 	(cur == '+') || (cur == '(') || (cur == ')') || (cur == '{') ||
; 4899 : 	(cur == '}') || (cur == 0x2D) || (cur == 0x5B) || (cur == 0x5D) ||

	cmp	edi, 110				; 0000006eH
	je	$LN24@xmlFAParse
	cmp	edi, 114				; 00000072H
	je	$LN24@xmlFAParse
	cmp	edi, 116				; 00000074H
	je	$LN24@xmlFAParse
	cmp	edi, 92					; 0000005cH
	je	$LN24@xmlFAParse
	cmp	edi, 124				; 0000007cH
	je	$LN24@xmlFAParse
	cmp	edi, 46					; 0000002eH
	je	$LN24@xmlFAParse
	cmp	edi, 63					; 0000003fH
	je	$LN24@xmlFAParse
	cmp	edi, 42					; 0000002aH
	je	$LN24@xmlFAParse
	cmp	edi, 43					; 0000002bH
	je	$LN24@xmlFAParse
	cmp	edi, 40					; 00000028H
	je	$LN24@xmlFAParse
	cmp	edi, 41					; 00000029H
	je	$LN24@xmlFAParse
	cmp	edi, 123				; 0000007bH
	je	$LN24@xmlFAParse
	cmp	edi, 125				; 0000007dH
	je	$LN24@xmlFAParse
	cmp	edi, 45					; 0000002dH
	je	$LN24@xmlFAParse
	cmp	edi, 91					; 0000005bH
	je	$LN24@xmlFAParse
	cmp	edi, 93					; 0000005dH
	je	$LN24@xmlFAParse
	cmp	edi, 94					; 0000005eH
	je	$LN24@xmlFAParse

; 4934 :     } else if ((cur == 's') || (cur == 'S') || (cur == 'i') || (cur == 'I') ||
; 4935 : 	(cur == 'c') || (cur == 'C') || (cur == 'd') || (cur == 'D') ||
; 4936 : 	(cur == 'w') || (cur == 'W')) {

	cmp	edi, 115				; 00000073H
	je	SHORT $LN38@xmlFAParse
	cmp	edi, 83					; 00000053H
	je	SHORT $LN38@xmlFAParse
	cmp	edi, 105				; 00000069H
	je	SHORT $LN38@xmlFAParse
	cmp	edi, 73					; 00000049H
	je	SHORT $LN38@xmlFAParse
	cmp	edi, 99					; 00000063H
	je	SHORT $LN38@xmlFAParse
	cmp	edi, 67					; 00000043H
	je	SHORT $LN38@xmlFAParse
	cmp	edi, 100				; 00000064H
	je	SHORT $LN38@xmlFAParse
	cmp	edi, 68					; 00000044H
	je	SHORT $LN38@xmlFAParse
	cmp	edi, 119				; 00000077H
	je	SHORT $LN38@xmlFAParse
	cmp	edi, 87					; 00000057H
	je	SHORT $LN38@xmlFAParse

; 4976 : 			       type, 0, 0, NULL);
; 4977 : 	}
; 4978 :     } else {
; 4979 : 	ERROR("Wrong escape sequence, misuse of character '\\'");

	push	OFFSET ??_C@_0CP@BDPLJNDH@Wrong?5escape?5sequence?0?5misuse?5o@
	push	esi
	mov	DWORD PTR [esi+8], 1450			; 000005aaH
	call	_xmlRegexpErrCompile
	add	esp, 8
	pop	edi
	pop	esi

; 4980 :     }
; 4981 : }

	pop	ebp
	ret	0
$LN38@xmlFAParse:

; 4937 : 	xmlRegAtomType type = XML_REGEXP_ANYSPACE;
; 4938 : 
; 4939 : 	switch (cur) {

	add	edi, -67				; ffffffbdH
	mov	ecx, 7
	cmp	edi, 52					; 00000034H
	ja	SHORT $LN6@xmlFAParse
	movzx	eax, BYTE PTR $LN55@xmlFAParse[edi]
	jmp	DWORD PTR $LN58@xmlFAParse[eax*4]
$LN40@xmlFAParse:

; 4940 : 	    case 's':
; 4941 : 		type = XML_REGEXP_ANYSPACE;
; 4942 : 		break;
; 4943 : 	    case 'S':
; 4944 : 		type = XML_REGEXP_NOTSPACE;

	mov	ecx, 8

; 4945 : 		break;

	jmp	SHORT $LN6@xmlFAParse
$LN41@xmlFAParse:

; 4946 : 	    case 'i':
; 4947 : 		type = XML_REGEXP_INITNAME;

	mov	ecx, 9

; 4948 : 		break;

	jmp	SHORT $LN6@xmlFAParse
$LN42@xmlFAParse:

; 4949 : 	    case 'I':
; 4950 : 		type = XML_REGEXP_NOTINITNAME;

	mov	ecx, 10					; 0000000aH

; 4951 : 		break;

	jmp	SHORT $LN6@xmlFAParse
$LN43@xmlFAParse:

; 4952 : 	    case 'c':
; 4953 : 		type = XML_REGEXP_NAMECHAR;

	mov	ecx, 11					; 0000000bH

; 4954 : 		break;

	jmp	SHORT $LN6@xmlFAParse
$LN44@xmlFAParse:

; 4955 : 	    case 'C':
; 4956 : 		type = XML_REGEXP_NOTNAMECHAR;

	mov	ecx, 12					; 0000000cH

; 4957 : 		break;

	jmp	SHORT $LN6@xmlFAParse
$LN45@xmlFAParse:

; 4958 : 	    case 'd':
; 4959 : 		type = XML_REGEXP_DECIMAL;

	mov	ecx, 13					; 0000000dH

; 4960 : 		break;

	jmp	SHORT $LN6@xmlFAParse
$LN46@xmlFAParse:

; 4961 : 	    case 'D':
; 4962 : 		type = XML_REGEXP_NOTDECIMAL;

	mov	ecx, 14					; 0000000eH

; 4963 : 		break;

	jmp	SHORT $LN6@xmlFAParse
$LN47@xmlFAParse:

; 4964 : 	    case 'w':
; 4965 : 		type = XML_REGEXP_REALCHAR;

	mov	ecx, 15					; 0000000fH

; 4966 : 		break;

	jmp	SHORT $LN6@xmlFAParse
$LN48@xmlFAParse:

; 4967 : 	    case 'W':
; 4968 : 		type = XML_REGEXP_NOTREALCHAR;

	mov	ecx, 16					; 00000010H
$LN6@xmlFAParse:

; 4969 : 		break;
; 4970 : 	}
; 4971 : 	NEXT;

	lea	eax, DWORD PTR [edx+1]
	mov	DWORD PTR [esi+4], eax

; 4972 : 	if (ctxt->atom == NULL) {

	mov	eax, DWORD PTR [esi+28]
	test	eax, eax
	jne	SHORT $LN49@xmlFAParse

; 4973 : 	    ctxt->atom = xmlRegNewAtom(ctxt, type);

	push	ecx
	push	esi
	call	_xmlRegNewAtom
	add	esp, 8
	mov	DWORD PTR [esi+28], eax
	pop	edi
	pop	esi

; 4980 :     }
; 4981 : }

	pop	ebp
	ret	0
$LN49@xmlFAParse:

; 4974 : 	} else if (ctxt->atom->type == XML_REGEXP_RANGES) {

	cmp	DWORD PTR [eax+4], 3
	jne	$LN56@xmlFAParse

; 4975 : 	    xmlRegAtomAddRange(ctxt, ctxt->atom, ctxt->neg,

	push	0
	push	0
	push	0
	push	ecx
	push	DWORD PTR [esi+12]
	push	eax
	push	esi
	call	_xmlRegAtomAddRange
	add	esp, 28					; 0000001cH
	pop	edi
	pop	esi

; 4980 :     }
; 4981 : }

	pop	ebp
	ret	0
$LN24@xmlFAParse:

; 4900 : 	(cur == 0x5E)) {
; 4901 : 	if (ctxt->atom == NULL) {

	mov	ecx, DWORD PTR [esi+28]
	test	ecx, ecx
	jne	SHORT $LN25@xmlFAParse

; 4902 : 	    ctxt->atom = xmlRegNewAtom(ctxt, XML_REGEXP_CHARVAL);

	push	2
	push	esi
	call	_xmlRegNewAtom
	add	esp, 8
	mov	DWORD PTR [esi+28], eax

; 4903 : 	    if (ctxt->atom != NULL) {

	test	eax, eax
	je	$LN32@xmlFAParse

; 4904 : 	        switch (cur) {

	mov	ecx, edi
	sub	ecx, 110				; 0000006eH
	je	SHORT $LN28@xmlFAParse
	sub	ecx, 4
	je	SHORT $LN29@xmlFAParse
	sub	ecx, 2
	je	SHORT $LN30@xmlFAParse

; 4913 : 			break;
; 4914 : 		    default:
; 4915 : 			ctxt->atom->codepoint = cur;

	mov	DWORD PTR [eax+32], edi

; 4931 : 			       XML_REGEXP_CHARVAL, cur, cur, NULL);
; 4932 : 	}
; 4933 : 	NEXT;

	inc	DWORD PTR [esi+4]
	pop	edi
	pop	esi

; 4980 :     }
; 4981 : }

	pop	ebp
	ret	0
$LN30@xmlFAParse:

; 4910 : 			break;
; 4911 : 		    case 't':
; 4912 : 		        ctxt->atom->codepoint = '\t';

	mov	DWORD PTR [eax+32], 9

; 4931 : 			       XML_REGEXP_CHARVAL, cur, cur, NULL);
; 4932 : 	}
; 4933 : 	NEXT;

	inc	DWORD PTR [esi+4]
	pop	edi
	pop	esi

; 4980 :     }
; 4981 : }

	pop	ebp
	ret	0
$LN29@xmlFAParse:

; 4907 : 			break;
; 4908 : 		    case 'r':
; 4909 : 		        ctxt->atom->codepoint = '\r';

	mov	DWORD PTR [eax+32], 13			; 0000000dH

; 4931 : 			       XML_REGEXP_CHARVAL, cur, cur, NULL);
; 4932 : 	}
; 4933 : 	NEXT;

	inc	DWORD PTR [esi+4]
	pop	edi
	pop	esi

; 4980 :     }
; 4981 : }

	pop	ebp
	ret	0
$LN28@xmlFAParse:

; 4905 : 		    case 'n':
; 4906 : 		        ctxt->atom->codepoint = '\n';

	mov	DWORD PTR [eax+32], 10			; 0000000aH

; 4931 : 			       XML_REGEXP_CHARVAL, cur, cur, NULL);
; 4932 : 	}
; 4933 : 	NEXT;

	inc	DWORD PTR [esi+4]
	pop	edi
	pop	esi

; 4980 :     }
; 4981 : }

	pop	ebp
	ret	0
$LN25@xmlFAParse:

; 4916 : 		}
; 4917 : 	    }
; 4918 : 	} else if (ctxt->atom->type == XML_REGEXP_RANGES) {

	cmp	DWORD PTR [ecx+4], 3
	jne	SHORT $LN32@xmlFAParse

; 4919 :             switch (cur) {

	mov	eax, edi
	sub	eax, 110				; 0000006eH
	je	SHORT $LN33@xmlFAParse
	sub	eax, 4
	je	SHORT $LN34@xmlFAParse
	sub	eax, 2
	jne	SHORT $LN4@xmlFAParse

; 4926 :                 case 't':
; 4927 :                     cur = '\t';

	lea	edi, DWORD PTR [eax+9]
	jmp	SHORT $LN4@xmlFAParse
$LN34@xmlFAParse:

; 4922 :                     break;
; 4923 :                 case 'r':
; 4924 :                     cur = '\r';

	mov	edi, 13					; 0000000dH

; 4925 :                     break;

	jmp	SHORT $LN4@xmlFAParse
$LN33@xmlFAParse:

; 4920 :                 case 'n':
; 4921 :                     cur = '\n';

	mov	edi, 10					; 0000000aH
$LN4@xmlFAParse:

; 4928 :                     break;
; 4929 :             }
; 4930 : 	    xmlRegAtomAddRange(ctxt, ctxt->atom, ctxt->neg,

	push	0
	push	edi
	push	edi
	push	2
	push	DWORD PTR [esi+12]
	push	ecx
	push	esi
	call	_xmlRegAtomAddRange
	add	esp, 28					; 0000001cH
$LN32@xmlFAParse:

; 4931 : 			       XML_REGEXP_CHARVAL, cur, cur, NULL);
; 4932 : 	}
; 4933 : 	NEXT;

	inc	DWORD PTR [esi+4]
$LN56@xmlFAParse:
	pop	edi
	pop	esi

; 4980 :     }
; 4981 : }

	pop	ebp
	ret	0
	npad	2
$LN58@xmlFAParse:
	DD	$LN44@xmlFAParse
	DD	$LN46@xmlFAParse
	DD	$LN42@xmlFAParse
	DD	$LN40@xmlFAParse
	DD	$LN48@xmlFAParse
	DD	$LN43@xmlFAParse
	DD	$LN45@xmlFAParse
	DD	$LN41@xmlFAParse
	DD	$LN6@xmlFAParse
	DD	$LN47@xmlFAParse
	DD	$LN6@xmlFAParse
$LN55@xmlFAParse:
	DB	0
	DB	1
	DB	10					; 0000000aH
	DB	10					; 0000000aH
	DB	10					; 0000000aH
	DB	10					; 0000000aH
	DB	2
	DB	10					; 0000000aH
	DB	10					; 0000000aH
	DB	10					; 0000000aH
	DB	10					; 0000000aH
	DB	10					; 0000000aH
	DB	10					; 0000000aH
	DB	10					; 0000000aH
	DB	10					; 0000000aH
	DB	10					; 0000000aH
	DB	3
	DB	10					; 0000000aH
	DB	10					; 0000000aH
	DB	10					; 0000000aH
	DB	4
	DB	10					; 0000000aH
	DB	10					; 0000000aH
	DB	10					; 0000000aH
	DB	10					; 0000000aH
	DB	10					; 0000000aH
	DB	10					; 0000000aH
	DB	10					; 0000000aH
	DB	10					; 0000000aH
	DB	10					; 0000000aH
	DB	10					; 0000000aH
	DB	10					; 0000000aH
	DB	5
	DB	6
	DB	10					; 0000000aH
	DB	10					; 0000000aH
	DB	10					; 0000000aH
	DB	10					; 0000000aH
	DB	7
	DB	10					; 0000000aH
	DB	10					; 0000000aH
	DB	10					; 0000000aH
	DB	10					; 0000000aH
	DB	10					; 0000000aH
	DB	10					; 0000000aH
	DB	10					; 0000000aH
	DB	10					; 0000000aH
	DB	10					; 0000000aH
	DB	8
	DB	10					; 0000000aH
	DB	10					; 0000000aH
	DB	10					; 0000000aH
	DB	9
_xmlFAParseCharClassEsc ENDP
_TEXT	ENDS
; Function compile flags: /Ogtp
; File c:\users\dag\documents\_clients\codeproject authors group\windows on arm\libxml2\libxml2-2.9.9\xmlregexp.c
;	COMDAT _xmlFAParseCharProp
_TEXT	SEGMENT
_ctxt$ = 8						; size = 4
_xmlFAParseCharProp PROC				; COMDAT

; 4632 : xmlFAParseCharProp(xmlRegParserCtxtPtr ctxt) {

	push	ebp
	mov	ebp, esp
	push	ebx
	push	esi
	push	edi
	mov	ecx, OFFSET __F6DD4902_xmlregexp@c
	call	@__CheckForDebuggerJustMyCode@4
	mov	esi, DWORD PTR _ctxt$[ebp]
	xor	ebx, ebx
	mov	ecx, DWORD PTR [esi+4]
	mov	al, BYTE PTR [ecx]
	cmp	al, 76					; 0000004cH
	jne	SHORT $LN4@xmlFAParse

; 4633 :     int cur;
; 4634 :     xmlRegAtomType type = (xmlRegAtomType) 0;
; 4635 :     xmlChar *blockName = NULL;
; 4636 : 
; 4637 :     cur = CUR;
; 4638 :     if (cur == 'L') {
; 4639 : 	NEXT;

	lea	eax, DWORD PTR [ecx+1]
	mov	DWORD PTR [esi+4], eax

; 4640 : 	cur = CUR;

	mov	cl, BYTE PTR [eax]

; 4641 : 	if (cur == 'u') {

	cmp	cl, 117					; 00000075H
	jne	SHORT $LN6@xmlFAParse

; 4642 : 	    NEXT;

	inc	eax

; 4643 : 	    type = XML_REGEXP_LETTER_UPPERCASE;

	lea	edi, DWORD PTR [ebx+101]
	mov	DWORD PTR [esi+4], eax
	jmp	$LN77@xmlFAParse
$LN6@xmlFAParse:

; 4644 : 	} else if (cur == 'l') {

	cmp	cl, 108					; 0000006cH
	jne	SHORT $LN8@xmlFAParse

; 4645 : 	    NEXT;

	inc	eax

; 4646 : 	    type = XML_REGEXP_LETTER_LOWERCASE;

	mov	edi, 102				; 00000066H
	mov	DWORD PTR [esi+4], eax
	jmp	$LN77@xmlFAParse
$LN8@xmlFAParse:

; 4647 : 	} else if (cur == 't') {

	cmp	cl, 116					; 00000074H
	jne	SHORT $LN10@xmlFAParse

; 4648 : 	    NEXT;

	inc	eax

; 4649 : 	    type = XML_REGEXP_LETTER_TITLECASE;

	mov	edi, 103				; 00000067H
	mov	DWORD PTR [esi+4], eax
	jmp	$LN77@xmlFAParse
$LN10@xmlFAParse:

; 4650 : 	} else if (cur == 'm') {

	cmp	cl, 109					; 0000006dH
	jne	SHORT $LN12@xmlFAParse

; 4651 : 	    NEXT;

	inc	eax

; 4652 : 	    type = XML_REGEXP_LETTER_MODIFIER;

	mov	edi, 104				; 00000068H
	mov	DWORD PTR [esi+4], eax
	jmp	$LN77@xmlFAParse
$LN12@xmlFAParse:

; 4653 : 	} else if (cur == 'o') {

	cmp	cl, 111					; 0000006fH
	jne	SHORT $LN14@xmlFAParse

; 4654 : 	    NEXT;

	inc	eax

; 4655 : 	    type = XML_REGEXP_LETTER_OTHERS;

	mov	edi, 105				; 00000069H
	mov	DWORD PTR [esi+4], eax

; 4656 : 	} else {

	jmp	$LN77@xmlFAParse
$LN14@xmlFAParse:

; 4657 : 	    type = XML_REGEXP_LETTER;

	mov	edi, 100				; 00000064H

; 4658 : 	}

	jmp	$LN77@xmlFAParse
$LN4@xmlFAParse:

; 4659 :     } else if (cur == 'M') {

	cmp	al, 77					; 0000004dH
	jne	SHORT $LN16@xmlFAParse

; 4660 : 	NEXT;

	lea	eax, DWORD PTR [ecx+1]
	mov	DWORD PTR [esi+4], eax

; 4661 : 	cur = CUR;

	mov	cl, BYTE PTR [eax]

; 4662 : 	if (cur == 'n') {

	cmp	cl, 110					; 0000006eH
	jne	SHORT $LN18@xmlFAParse

; 4663 : 	    NEXT;

	inc	eax

; 4664 : 	    /* nonspacing */
; 4665 : 	    type = XML_REGEXP_MARK_NONSPACING;

	mov	edi, 107				; 0000006bH
	mov	DWORD PTR [esi+4], eax
	jmp	$LN77@xmlFAParse
$LN18@xmlFAParse:

; 4666 : 	} else if (cur == 'c') {

	cmp	cl, 99					; 00000063H
	jne	SHORT $LN20@xmlFAParse

; 4667 : 	    NEXT;

	inc	eax

; 4668 : 	    /* spacing combining */
; 4669 : 	    type = XML_REGEXP_MARK_SPACECOMBINING;

	mov	edi, 108				; 0000006cH
	mov	DWORD PTR [esi+4], eax
	jmp	$LN77@xmlFAParse
$LN20@xmlFAParse:

; 4670 : 	} else if (cur == 'e') {

	cmp	cl, 101					; 00000065H
	jne	SHORT $LN22@xmlFAParse

; 4671 : 	    NEXT;

	inc	eax

; 4672 : 	    /* enclosing */
; 4673 : 	    type = XML_REGEXP_MARK_ENCLOSING;

	mov	edi, 109				; 0000006dH
	mov	DWORD PTR [esi+4], eax

; 4674 : 	} else {

	jmp	$LN77@xmlFAParse
$LN22@xmlFAParse:

; 4675 : 	    /* all marks */
; 4676 : 	    type = XML_REGEXP_MARK;

	mov	edi, 106				; 0000006aH

; 4677 : 	}

	jmp	$LN77@xmlFAParse
$LN16@xmlFAParse:

; 4678 :     } else if (cur == 'N') {

	cmp	al, 78					; 0000004eH
	jne	SHORT $LN24@xmlFAParse

; 4679 : 	NEXT;

	lea	eax, DWORD PTR [ecx+1]
	mov	DWORD PTR [esi+4], eax

; 4680 : 	cur = CUR;

	mov	cl, BYTE PTR [eax]

; 4681 : 	if (cur == 'd') {

	cmp	cl, 100					; 00000064H
	jne	SHORT $LN26@xmlFAParse

; 4682 : 	    NEXT;

	inc	eax

; 4683 : 	    /* digital */
; 4684 : 	    type = XML_REGEXP_NUMBER_DECIMAL;

	mov	edi, 111				; 0000006fH
	mov	DWORD PTR [esi+4], eax
	jmp	$LN77@xmlFAParse
$LN26@xmlFAParse:

; 4685 : 	} else if (cur == 'l') {

	cmp	cl, 108					; 0000006cH
	jne	SHORT $LN28@xmlFAParse

; 4686 : 	    NEXT;

	inc	eax

; 4687 : 	    /* letter */
; 4688 : 	    type = XML_REGEXP_NUMBER_LETTER;

	mov	edi, 112				; 00000070H
	mov	DWORD PTR [esi+4], eax
	jmp	$LN77@xmlFAParse
$LN28@xmlFAParse:

; 4689 : 	} else if (cur == 'o') {

	cmp	cl, 111					; 0000006fH
	jne	SHORT $LN30@xmlFAParse

; 4690 : 	    NEXT;

	inc	eax

; 4691 : 	    /* other */
; 4692 : 	    type = XML_REGEXP_NUMBER_OTHERS;

	mov	edi, 113				; 00000071H
	mov	DWORD PTR [esi+4], eax

; 4693 : 	} else {

	jmp	$LN77@xmlFAParse
$LN30@xmlFAParse:

; 4694 : 	    /* all numbers */
; 4695 : 	    type = XML_REGEXP_NUMBER;

	mov	edi, 110				; 0000006eH

; 4696 : 	}

	jmp	$LN77@xmlFAParse
$LN24@xmlFAParse:

; 4697 :     } else if (cur == 'P') {

	cmp	al, 80					; 00000050H
	jne	$LN32@xmlFAParse

; 4698 : 	NEXT;

	lea	eax, DWORD PTR [ecx+1]
	mov	DWORD PTR [esi+4], eax

; 4699 : 	cur = CUR;

	mov	cl, BYTE PTR [eax]

; 4700 : 	if (cur == 'c') {

	cmp	cl, 99					; 00000063H
	jne	SHORT $LN34@xmlFAParse

; 4701 : 	    NEXT;

	inc	eax

; 4702 : 	    /* connector */
; 4703 : 	    type = XML_REGEXP_PUNCT_CONNECTOR;

	mov	edi, 115				; 00000073H
	mov	DWORD PTR [esi+4], eax
	jmp	$LN77@xmlFAParse
$LN34@xmlFAParse:

; 4704 : 	} else if (cur == 'd') {

	cmp	cl, 100					; 00000064H
	jne	SHORT $LN36@xmlFAParse

; 4705 : 	    NEXT;

	inc	eax

; 4706 : 	    /* dash */
; 4707 : 	    type = XML_REGEXP_PUNCT_DASH;

	mov	edi, 116				; 00000074H
	mov	DWORD PTR [esi+4], eax
	jmp	$LN77@xmlFAParse
$LN36@xmlFAParse:

; 4708 : 	} else if (cur == 's') {

	cmp	cl, 115					; 00000073H
	jne	SHORT $LN38@xmlFAParse

; 4709 : 	    NEXT;

	inc	eax

; 4710 : 	    /* open */
; 4711 : 	    type = XML_REGEXP_PUNCT_OPEN;

	mov	edi, 117				; 00000075H
	mov	DWORD PTR [esi+4], eax
	jmp	$LN77@xmlFAParse
$LN38@xmlFAParse:

; 4712 : 	} else if (cur == 'e') {

	cmp	cl, 101					; 00000065H
	jne	SHORT $LN40@xmlFAParse

; 4713 : 	    NEXT;

	inc	eax

; 4714 : 	    /* close */
; 4715 : 	    type = XML_REGEXP_PUNCT_CLOSE;

	mov	edi, 118				; 00000076H
	mov	DWORD PTR [esi+4], eax
	jmp	$LN77@xmlFAParse
$LN40@xmlFAParse:

; 4716 : 	} else if (cur == 'i') {

	cmp	cl, 105					; 00000069H
	jne	SHORT $LN42@xmlFAParse

; 4717 : 	    NEXT;

	inc	eax

; 4718 : 	    /* initial quote */
; 4719 : 	    type = XML_REGEXP_PUNCT_INITQUOTE;

	mov	edi, 119				; 00000077H
	mov	DWORD PTR [esi+4], eax
	jmp	$LN77@xmlFAParse
$LN42@xmlFAParse:

; 4720 : 	} else if (cur == 'f') {

	cmp	cl, 102					; 00000066H
	jne	SHORT $LN44@xmlFAParse

; 4721 : 	    NEXT;

	inc	eax

; 4722 : 	    /* final quote */
; 4723 : 	    type = XML_REGEXP_PUNCT_FINQUOTE;

	mov	edi, 120				; 00000078H
	mov	DWORD PTR [esi+4], eax
	jmp	$LN77@xmlFAParse
$LN44@xmlFAParse:

; 4724 : 	} else if (cur == 'o') {

	cmp	cl, 111					; 0000006fH
	jne	SHORT $LN46@xmlFAParse

; 4725 : 	    NEXT;

	inc	eax

; 4726 : 	    /* other */
; 4727 : 	    type = XML_REGEXP_PUNCT_OTHERS;

	mov	edi, 121				; 00000079H
	mov	DWORD PTR [esi+4], eax

; 4728 : 	} else {

	jmp	$LN77@xmlFAParse
$LN46@xmlFAParse:

; 4729 : 	    /* all punctuation */
; 4730 : 	    type = XML_REGEXP_PUNCT;

	mov	edi, 114				; 00000072H

; 4731 : 	}

	jmp	$LN77@xmlFAParse
$LN32@xmlFAParse:

; 4732 :     } else if (cur == 'Z') {

	cmp	al, 90					; 0000005aH
	jne	SHORT $LN48@xmlFAParse

; 4733 : 	NEXT;

	lea	eax, DWORD PTR [ecx+1]
	mov	DWORD PTR [esi+4], eax

; 4734 : 	cur = CUR;

	mov	cl, BYTE PTR [eax]

; 4735 : 	if (cur == 's') {

	cmp	cl, 115					; 00000073H
	jne	SHORT $LN50@xmlFAParse

; 4736 : 	    NEXT;

	inc	eax

; 4737 : 	    /* space */
; 4738 : 	    type = XML_REGEXP_SEPAR_SPACE;

	mov	edi, 123				; 0000007bH
	mov	DWORD PTR [esi+4], eax
	jmp	$LN77@xmlFAParse
$LN50@xmlFAParse:

; 4739 : 	} else if (cur == 'l') {

	cmp	cl, 108					; 0000006cH
	jne	SHORT $LN52@xmlFAParse

; 4740 : 	    NEXT;

	inc	eax

; 4741 : 	    /* line */
; 4742 : 	    type = XML_REGEXP_SEPAR_LINE;

	mov	edi, 124				; 0000007cH
	mov	DWORD PTR [esi+4], eax
	jmp	$LN77@xmlFAParse
$LN52@xmlFAParse:

; 4743 : 	} else if (cur == 'p') {

	cmp	cl, 112					; 00000070H
	jne	SHORT $LN54@xmlFAParse

; 4744 : 	    NEXT;

	inc	eax

; 4745 : 	    /* paragraph */
; 4746 : 	    type = XML_REGEXP_SEPAR_PARA;

	mov	edi, 125				; 0000007dH
	mov	DWORD PTR [esi+4], eax

; 4747 : 	} else {

	jmp	$LN77@xmlFAParse
$LN54@xmlFAParse:

; 4748 : 	    /* all separators */
; 4749 : 	    type = XML_REGEXP_SEPAR;

	mov	edi, 122				; 0000007aH

; 4750 : 	}

	jmp	$LN77@xmlFAParse
$LN48@xmlFAParse:

; 4751 :     } else if (cur == 'S') {

	cmp	al, 83					; 00000053H
	jne	SHORT $LN56@xmlFAParse

; 4752 : 	NEXT;

	lea	eax, DWORD PTR [ecx+1]
	mov	DWORD PTR [esi+4], eax

; 4753 : 	cur = CUR;

	mov	cl, BYTE PTR [eax]

; 4754 : 	if (cur == 'm') {

	cmp	cl, 109					; 0000006dH
	jne	SHORT $LN58@xmlFAParse

; 4755 : 	    NEXT;

	inc	eax

; 4756 : 	    type = XML_REGEXP_SYMBOL_MATH;

	mov	edi, 127				; 0000007fH
	mov	DWORD PTR [esi+4], eax
	jmp	$LN77@xmlFAParse
$LN58@xmlFAParse:

; 4757 : 	    /* math */
; 4758 : 	} else if (cur == 'c') {

	cmp	cl, 99					; 00000063H
	jne	SHORT $LN60@xmlFAParse

; 4759 : 	    NEXT;

	inc	eax

; 4760 : 	    type = XML_REGEXP_SYMBOL_CURRENCY;

	mov	edi, 128				; 00000080H
	mov	DWORD PTR [esi+4], eax
	jmp	$LN77@xmlFAParse
$LN60@xmlFAParse:

; 4761 : 	    /* currency */
; 4762 : 	} else if (cur == 'k') {

	cmp	cl, 107					; 0000006bH
	jne	SHORT $LN62@xmlFAParse

; 4763 : 	    NEXT;

	inc	eax

; 4764 : 	    type = XML_REGEXP_SYMBOL_MODIFIER;

	mov	edi, 129				; 00000081H
	mov	DWORD PTR [esi+4], eax
	jmp	$LN77@xmlFAParse
$LN62@xmlFAParse:

; 4765 : 	    /* modifiers */
; 4766 : 	} else if (cur == 'o') {

	cmp	cl, 111					; 0000006fH
	jne	SHORT $LN64@xmlFAParse

; 4767 : 	    NEXT;

	inc	eax

; 4768 : 	    type = XML_REGEXP_SYMBOL_OTHERS;

	mov	edi, 130				; 00000082H
	mov	DWORD PTR [esi+4], eax

; 4769 : 	    /* other */
; 4770 : 	} else {

	jmp	$LN77@xmlFAParse
$LN64@xmlFAParse:

; 4771 : 	    /* all symbols */
; 4772 : 	    type = XML_REGEXP_SYMBOL;

	mov	edi, 126				; 0000007eH

; 4773 : 	}

	jmp	$LN77@xmlFAParse
$LN56@xmlFAParse:

; 4774 :     } else if (cur == 'C') {

	cmp	al, 67					; 00000043H
	jne	SHORT $LN66@xmlFAParse

; 4775 : 	NEXT;

	lea	eax, DWORD PTR [ecx+1]
	mov	DWORD PTR [esi+4], eax

; 4776 : 	cur = CUR;

	mov	cl, BYTE PTR [eax]

; 4777 : 	if (cur == 'c') {

	cmp	cl, 99					; 00000063H
	jne	SHORT $LN68@xmlFAParse

; 4778 : 	    NEXT;

	inc	eax

; 4779 : 	    /* control */
; 4780 : 	    type = XML_REGEXP_OTHER_CONTROL;

	mov	edi, 132				; 00000084H
	mov	DWORD PTR [esi+4], eax
	jmp	$LN77@xmlFAParse
$LN68@xmlFAParse:

; 4781 : 	} else if (cur == 'f') {

	cmp	cl, 102					; 00000066H
	jne	SHORT $LN70@xmlFAParse

; 4782 : 	    NEXT;

	inc	eax

; 4783 : 	    /* format */
; 4784 : 	    type = XML_REGEXP_OTHER_FORMAT;

	mov	edi, 133				; 00000085H
	mov	DWORD PTR [esi+4], eax
	jmp	$LN77@xmlFAParse
$LN70@xmlFAParse:

; 4785 : 	} else if (cur == 'o') {

	cmp	cl, 111					; 0000006fH
	jne	SHORT $LN72@xmlFAParse

; 4786 : 	    NEXT;

	inc	eax

; 4787 : 	    /* private use */
; 4788 : 	    type = XML_REGEXP_OTHER_PRIVATE;

	mov	edi, 134				; 00000086H
	mov	DWORD PTR [esi+4], eax
	jmp	$LN77@xmlFAParse
$LN72@xmlFAParse:

; 4789 : 	} else if (cur == 'n') {

	cmp	cl, 110					; 0000006eH
	jne	SHORT $LN74@xmlFAParse

; 4790 : 	    NEXT;

	inc	eax

; 4791 : 	    /* not assigned */
; 4792 : 	    type = XML_REGEXP_OTHER_NA;

	mov	edi, 135				; 00000087H
	mov	DWORD PTR [esi+4], eax

; 4793 : 	} else {

	jmp	$LN77@xmlFAParse
$LN74@xmlFAParse:

; 4794 : 	    /* all others */
; 4795 : 	    type = XML_REGEXP_OTHER;

	mov	edi, 131				; 00000083H

; 4796 : 	}

	jmp	$LN77@xmlFAParse
$LN66@xmlFAParse:

; 4797 :     } else if (cur == 'I') {

	cmp	al, 73					; 00000049H
	jne	$LN76@xmlFAParse

; 4798 : 	const xmlChar *start;
; 4799 : 	NEXT;

	inc	ecx
	mov	DWORD PTR [esi+4], ecx

; 4800 : 	cur = CUR;
; 4801 : 	if (cur != 's') {

	cmp	BYTE PTR [ecx], 115			; 00000073H
	je	SHORT $LN78@xmlFAParse

; 4802 : 	    ERROR("IsXXXX expected");

	push	OFFSET ??_C@_0BA@KPLOEDJN@IsXXXX?5expected@

; 4803 : 	    return;

	jmp	$LN97@xmlFAParse
$LN78@xmlFAParse:

; 4804 : 	}
; 4805 : 	NEXT;

	lea	edx, DWORD PTR [ecx+1]
	mov	DWORD PTR [esi+4], edx

; 4806 : 	start = ctxt->cur;
; 4807 : 	cur = CUR;

	mov	cl, BYTE PTR [edx]

; 4808 : 	if (((cur >= 'a') && (cur <= 'z')) ||
; 4809 : 	    ((cur >= 'A') && (cur <= 'Z')) ||
; 4810 : 	    ((cur >= '0') && (cur <= '9')) ||

	cmp	cl, 97					; 00000061H
	jb	SHORT $LN81@xmlFAParse
	cmp	cl, 122					; 0000007aH
	jbe	SHORT $LN80@xmlFAParse
$LN81@xmlFAParse:
	cmp	cl, 65					; 00000041H
	jb	SHORT $LN82@xmlFAParse
	cmp	cl, 90					; 0000005aH
	jbe	SHORT $LN80@xmlFAParse
$LN82@xmlFAParse:
	cmp	cl, 48					; 00000030H
	jb	SHORT $LN83@xmlFAParse
	cmp	cl, 57					; 00000039H
	jbe	SHORT $LN80@xmlFAParse
$LN83@xmlFAParse:
	mov	eax, edx
	cmp	cl, 45					; 0000002dH
	jne	SHORT $LN95@xmlFAParse
$LN80@xmlFAParse:

; 4811 : 	    (cur == 0x2D)) {
; 4812 : 	    NEXT;

	lea	eax, DWORD PTR [edx+1]
	mov	DWORD PTR [esi+4], eax
$LN98@xmlFAParse:

; 4813 : 	    cur = CUR;
; 4814 : 	    while (((cur >= 'a') && (cur <= 'z')) ||
; 4815 : 		((cur >= 'A') && (cur <= 'Z')) ||
; 4816 : 		((cur >= '0') && (cur <= '9')) ||

	movzx	ecx, BYTE PTR [eax]
	cmp	ecx, 97					; 00000061H
	jb	SHORT $LN85@xmlFAParse
	cmp	ecx, 122				; 0000007aH
	jbe	SHORT $LN84@xmlFAParse
$LN85@xmlFAParse:
	cmp	ecx, 65					; 00000041H
	jb	SHORT $LN86@xmlFAParse
	cmp	ecx, 90					; 0000005aH
	jbe	SHORT $LN84@xmlFAParse
$LN86@xmlFAParse:
	cmp	ecx, 48					; 00000030H
	jb	SHORT $LN87@xmlFAParse
	cmp	ecx, 57					; 00000039H
	jbe	SHORT $LN84@xmlFAParse
$LN87@xmlFAParse:
	cmp	ecx, 45					; 0000002dH
	jne	SHORT $LN95@xmlFAParse
$LN84@xmlFAParse:

; 4817 : 		(cur == 0x2D)) {
; 4818 : 		NEXT;

	inc	DWORD PTR [esi+4]
	mov	eax, DWORD PTR [esi+4]

; 4819 : 		cur = CUR;
; 4820 : 	    }

	jmp	SHORT $LN98@xmlFAParse
$LN95@xmlFAParse:

; 4821 : 	}
; 4822 : 	type = XML_REGEXP_BLOCK_NAME;
; 4823 : 	blockName = xmlStrndup(start, ctxt->cur - start);

	sub	eax, edx
	mov	edi, 136				; 00000088H
	push	eax
	push	edx
	call	_xmlStrndup
	add	esp, 8
	mov	ebx, eax
$LN77@xmlFAParse:

; 4826 : 	return;
; 4827 :     }
; 4828 :     if (ctxt->atom == NULL) {

	mov	ecx, DWORD PTR [esi+28]
	test	ecx, ecx
	jne	SHORT $LN88@xmlFAParse

; 4829 : 	ctxt->atom = xmlRegNewAtom(ctxt, type);

	push	edi
	push	esi
	call	_xmlRegNewAtom
	add	esp, 8
	mov	DWORD PTR [esi+28], eax

; 4830 : 	if (ctxt->atom != NULL)

	test	eax, eax
	je	SHORT $LN91@xmlFAParse

; 4834 : 		           type, 0, 0, blockName);
; 4835 :     }
; 4836 : }

	pop	edi
	pop	esi
	mov	DWORD PTR [eax+20], ebx
	pop	ebx
	pop	ebp
	ret	0
$LN88@xmlFAParse:

; 4831 : 	    ctxt->atom->valuep = blockName;
; 4832 :     } else if (ctxt->atom->type == XML_REGEXP_RANGES) {

	cmp	DWORD PTR [ecx+4], 3
	jne	SHORT $LN91@xmlFAParse

; 4833 :         xmlRegAtomAddRange(ctxt, ctxt->atom, ctxt->neg,

	push	ebx
	push	0
	push	0
	push	edi
	push	DWORD PTR [esi+12]
	push	ecx
	push	esi
	call	_xmlRegAtomAddRange
	add	esp, 28					; 0000001cH
	pop	edi

; 4834 : 		           type, 0, 0, blockName);
; 4835 :     }
; 4836 : }

	pop	esi
	pop	ebx
	pop	ebp
	ret	0
$LN76@xmlFAParse:

; 4824 :     } else {
; 4825 : 	ERROR("Unknown char property");

	push	OFFSET ??_C@_0BG@ECFAFFBF@Unknown?5char?5property@
$LN97@xmlFAParse:

; 4834 : 		           type, 0, 0, blockName);
; 4835 :     }
; 4836 : }

	push	esi
	mov	DWORD PTR [esi+8], 1450			; 000005aaH
	call	_xmlRegexpErrCompile
	add	esp, 8
$LN91@xmlFAParse:
	pop	edi
	pop	esi
	pop	ebx
	pop	ebp
	ret	0
_xmlFAParseCharProp ENDP
_TEXT	ENDS
; Function compile flags: /Ogtp
; File c:\users\dag\documents\_clients\codeproject authors group\windows on arm\libxml2\libxml2-2.9.9\xmlregexp.c
;	COMDAT _xmlFAIsChar
_TEXT	SEGMENT
_len$ = -4						; size = 4
_ctxt$ = 8						; size = 4
_xmlFAIsChar PROC					; COMDAT

; 4602 : xmlFAIsChar(xmlRegParserCtxtPtr ctxt) {

	push	ebp
	mov	ebp, esp
	push	ecx
	mov	ecx, OFFSET __F6DD4902_xmlregexp@c
	call	@__CheckForDebuggerJustMyCode@4
	lea	eax, DWORD PTR _len$[ebp]
	push	eax
	mov	eax, DWORD PTR _ctxt$[ebp]
	push	DWORD PTR [eax+4]
	push	0
	call	_xmlStringCurrentChar
	add	esp, 12					; 0000000cH
	cmp	eax, 46					; 0000002eH
	je	SHORT $LN3@xmlFAIsCha

; 4603 :     int cur;
; 4604 :     int len;
; 4605 : 
; 4606 :     cur = CUR_SCHAR(ctxt->cur, len);
; 4607 :     if ((cur == '.') || (cur == '\\') || (cur == '?') ||
; 4608 : 	(cur == '*') || (cur == '+') || (cur == '(') ||
; 4609 : 	(cur == ')') || (cur == '|') || (cur == 0x5B) ||
; 4610 : 	(cur == 0x5D) || (cur == 0))

	cmp	eax, 92					; 0000005cH
	je	SHORT $LN3@xmlFAIsCha
	cmp	eax, 63					; 0000003fH
	je	SHORT $LN3@xmlFAIsCha
	cmp	eax, 42					; 0000002aH
	je	SHORT $LN3@xmlFAIsCha
	cmp	eax, 43					; 0000002bH
	je	SHORT $LN3@xmlFAIsCha
	cmp	eax, 40					; 00000028H
	je	SHORT $LN3@xmlFAIsCha
	cmp	eax, 41					; 00000029H
	je	SHORT $LN3@xmlFAIsCha
	cmp	eax, 124				; 0000007cH
	je	SHORT $LN3@xmlFAIsCha
	cmp	eax, 91					; 0000005bH
	je	SHORT $LN3@xmlFAIsCha
	cmp	eax, 93					; 0000005dH
	je	SHORT $LN3@xmlFAIsCha
	test	eax, eax
	jne	SHORT $LN1@xmlFAIsCha
$LN3@xmlFAIsCha:

; 4611 : 	return(-1);

	or	eax, -1
$LN1@xmlFAIsCha:

; 4612 :     return(cur);
; 4613 : }

	mov	esp, ebp
	pop	ebp
	ret	0
_xmlFAIsChar ENDP
_TEXT	ENDS
; Function compile flags: /Ogtp
; File c:\users\dag\documents\_clients\codeproject authors group\windows on arm\libxml2\libxml2-2.9.9\xmlregexp.c
;	COMDAT _xmlRegExecGetValues
_TEXT	SEGMENT
_transno$1$ = -16					; size = 4
tv1308 = -16						; size = 4
tv1301 = -16						; size = 4
tv1300 = -16						; size = 4
tv1297 = -12						; size = 4
tv1296 = -12						; size = 4
_state$1$ = -8						; size = 4
_maxval$1$ = -4						; size = 4
_state$1$ = 8						; size = 4
_exec$ = 8						; size = 4
_err$ = 12						; size = 4
_nbval$ = 16						; size = 4
_nbneg$ = 20						; size = 4
_values$ = 24						; size = 4
_terminal$ = 28						; size = 4
_xmlRegExecGetValues PROC				; COMDAT

; 4221 : 		    xmlChar **values, int *terminal) {

	push	ebp
	mov	ebp, esp
	sub	esp, 16					; 00000010H
	mov	ecx, OFFSET __F6DD4902_xmlregexp@c
	push	ebx
	push	esi
	push	edi
	call	@__CheckForDebuggerJustMyCode@4
	mov	eax, DWORD PTR _exec$[ebp]
	xor	edi, edi
	test	eax, eax
	je	SHORT $LN15@xmlRegExec

; 4222 :     int maxval;
; 4223 :     int nb = 0;
; 4224 : 
; 4225 :     if ((exec == NULL) || (nbval == NULL) || (nbneg == NULL) ||
; 4226 :         (values == NULL) || (*nbval <= 0))

	mov	ecx, DWORD PTR _nbval$[ebp]
	test	ecx, ecx
	je	SHORT $LN15@xmlRegExec
	mov	ebx, DWORD PTR _nbneg$[ebp]
	test	ebx, ebx
	je	SHORT $LN15@xmlRegExec
	cmp	DWORD PTR _values$[ebp], edi
	je	SHORT $LN15@xmlRegExec
	mov	esi, DWORD PTR [ecx]
	mov	DWORD PTR _maxval$1$[ebp], esi
	test	esi, esi
	jle	SHORT $LN15@xmlRegExec

; 4227 :         return(-1);
; 4228 : 
; 4229 :     maxval = *nbval;
; 4230 :     *nbval = 0;

	mov	DWORD PTR [ecx], edi

; 4231 :     *nbneg = 0;

	mov	DWORD PTR [ebx], edi

; 4232 :     if ((exec->comp != NULL) && (exec->comp->compact != NULL)) {

	mov	edx, DWORD PTR [eax+8]
	test	edx, edx
	je	$LN16@xmlRegExec
	mov	ebx, DWORD PTR [edx+40]
	test	ebx, ebx
	je	$LN16@xmlRegExec

; 4233 :         xmlRegexpPtr comp;
; 4234 : 	int target, i, state;
; 4235 : 
; 4236 :         comp = exec->comp;
; 4237 : 
; 4238 : 	if (err) {

	cmp	DWORD PTR _err$[ebp], edi
	je	SHORT $LN18@xmlRegExec

; 4239 : 	    if (exec->errStateNo == -1) return(-1);

	mov	eax, DWORD PTR [eax+72]
	mov	DWORD PTR _state$1$[ebp], eax
	cmp	eax, -1
	jne	SHORT $LN19@xmlRegExec
$LN15@xmlRegExec:
	pop	edi

; 4357 : 		}
; 4358 : 	    }
; 4359 : 	}
; 4360 :     }
; 4361 :     return(0);
; 4362 : }

	pop	esi
	or	eax, -1
	pop	ebx
	mov	esp, ebp
	pop	ebp
	ret	0
$LN18@xmlRegExec:

; 4240 : 	    state = exec->errStateNo;
; 4241 : 	} else {
; 4242 : 	    state = exec->index;

	mov	eax, DWORD PTR [eax+56]
	mov	DWORD PTR _state$1$[ebp], eax
$LN19@xmlRegExec:

; 4243 : 	}
; 4244 : 	if (terminal != NULL) {

	mov	esi, DWORD PTR _terminal$[ebp]
	test	esi, esi
	je	SHORT $LN22@xmlRegExec

; 4245 : 	    if (comp->compact[state * (comp->nbstrings + 1)] ==

	mov	ecx, DWORD PTR [edx+48]
	inc	ecx
	imul	ecx, eax
	xor	eax, eax
	cmp	DWORD PTR [ebx+ecx*4], 2
	sete	al
	mov	DWORD PTR [esi], eax
$LN22@xmlRegExec:

; 4246 : 	        XML_REGEXP_FINAL_STATE)
; 4247 : 		*terminal = 1;
; 4248 : 	    else
; 4249 : 		*terminal = 0;
; 4250 : 	}
; 4251 : 	for (i = 0;(i < comp->nbstrings) && (nb < maxval);i++) {

	mov	ecx, DWORD PTR [edx+48]
	xor	ebx, ebx
	test	ecx, ecx
	jle	SHORT $LN81@xmlRegExec
	mov	esi, ecx
$LL4@xmlRegExec:
	mov	ecx, esi
	cmp	edi, DWORD PTR _maxval$1$[ebp]
	jge	SHORT $LN81@xmlRegExec

; 4252 : 	    target = comp->compact[state * (comp->nbstrings + 1) + i + 1];

	mov	ecx, DWORD PTR [edx+40]
	lea	eax, DWORD PTR [esi+1]
	mov	DWORD PTR tv1301[ebp], eax
	imul	eax, DWORD PTR _state$1$[ebp]
	add	eax, ebx
	mov	eax, DWORD PTR [ecx+eax*4+4]
	mov	ecx, esi

; 4253 : 	    if ((target > 0) && (target <= comp->nbstates) &&

	test	eax, eax
	jle	SHORT $LN2@xmlRegExec
	cmp	eax, DWORD PTR [edx+36]
	jg	SHORT $LN2@xmlRegExec
	mov	esi, DWORD PTR [edx+40]
	lea	eax, DWORD PTR [eax*4-4]
	imul	eax, DWORD PTR tv1301[ebp]
	cmp	DWORD PTR [eax+esi], 4
	je	SHORT $LN2@xmlRegExec

; 4254 : 	        (comp->compact[(target - 1) * (comp->nbstrings + 1)] !=
; 4255 : 		 XML_REGEXP_SINK_STATE)) {
; 4256 : 	        values[nb++] = comp->stringMap[i];

	mov	eax, DWORD PTR [edx+52]
	mov	ecx, DWORD PTR _values$[ebp]
	mov	eax, DWORD PTR [eax+ebx*4]
	mov	DWORD PTR [ecx+edi*4], eax
	inc	edi

; 4257 : 		(*nbval)++;

	mov	eax, DWORD PTR _nbval$[ebp]
	inc	DWORD PTR [eax]
	mov	ecx, DWORD PTR [edx+48]
$LN2@xmlRegExec:

; 4246 : 	        XML_REGEXP_FINAL_STATE)
; 4247 : 		*terminal = 1;
; 4248 : 	    else
; 4249 : 		*terminal = 0;
; 4250 : 	}
; 4251 : 	for (i = 0;(i < comp->nbstrings) && (nb < maxval);i++) {

	inc	ebx
	mov	esi, ecx
	cmp	ebx, ecx
	jl	SHORT $LL4@xmlRegExec
$LN81@xmlRegExec:

; 4258 : 	    }
; 4259 : 	}
; 4260 : 	for (i = 0;(i < comp->nbstrings) && (nb < maxval);i++) {

	xor	ebx, ebx
	test	ecx, ecx
	jle	$LN83@xmlRegExec
$LL7@xmlRegExec:
	cmp	edi, DWORD PTR _maxval$1$[ebp]
	jge	$LN83@xmlRegExec

; 4261 : 	    target = comp->compact[state * (comp->nbstrings + 1) + i + 1];

	mov	esi, DWORD PTR [edx+40]
	lea	eax, DWORD PTR [ecx+1]
	mov	DWORD PTR tv1300[ebp], eax
	imul	eax, DWORD PTR _state$1$[ebp]
	add	eax, ebx
	mov	eax, DWORD PTR [esi+eax*4+4]
	mov	esi, ecx

; 4262 : 	    if ((target > 0) && (target <= comp->nbstates) &&

	test	eax, eax
	jle	SHORT $LN5@xmlRegExec
	cmp	eax, DWORD PTR [edx+36]
	jg	SHORT $LN5@xmlRegExec
	mov	ecx, DWORD PTR [edx+40]
	lea	eax, DWORD PTR [eax*4-4]
	imul	eax, DWORD PTR tv1300[ebp]
	cmp	DWORD PTR [eax+ecx], 4
	jne	SHORT $LN5@xmlRegExec

; 4263 : 	        (comp->compact[(target - 1) * (comp->nbstrings + 1)] ==
; 4264 : 		 XML_REGEXP_SINK_STATE)) {
; 4265 : 	        values[nb++] = comp->stringMap[i];

	mov	eax, DWORD PTR [edx+52]
	mov	ecx, DWORD PTR _values$[ebp]
	mov	eax, DWORD PTR [eax+ebx*4]
	mov	DWORD PTR [ecx+edi*4], eax
	inc	edi

; 4266 : 		(*nbneg)++;

	mov	eax, DWORD PTR _nbneg$[ebp]
	inc	DWORD PTR [eax]
	mov	esi, DWORD PTR [edx+48]
$LN5@xmlRegExec:

; 4258 : 	    }
; 4259 : 	}
; 4260 : 	for (i = 0;(i < comp->nbstrings) && (nb < maxval);i++) {

	inc	ebx
	mov	ecx, esi
	cmp	ebx, esi
	jl	SHORT $LL7@xmlRegExec

; 4357 : 		}
; 4358 : 	    }
; 4359 : 	}
; 4360 :     }
; 4361 :     return(0);
; 4362 : }

	pop	edi
	pop	esi
	xor	eax, eax
	pop	ebx
	mov	esp, ebp
	pop	ebp
	ret	0
$LN16@xmlRegExec:

; 4267 : 	    }
; 4268 : 	}
; 4269 :     } else {
; 4270 :         int transno;
; 4271 : 	xmlRegTransPtr trans;
; 4272 : 	xmlRegAtomPtr atom;
; 4273 : 	xmlRegStatePtr state;
; 4274 : 
; 4275 : 	if (terminal != NULL) {

	mov	edx, DWORD PTR _terminal$[ebp]
	test	edx, edx
	je	SHORT $LN27@xmlRegExec

; 4276 : 	    if (exec->state->type == XML_REGEXP_FINAL_STATE)

	mov	eax, DWORD PTR [eax+20]
	xor	ecx, ecx
	cmp	DWORD PTR [eax], 2
	mov	eax, DWORD PTR _exec$[ebp]
	sete	cl
	mov	DWORD PTR [edx], ecx
$LN27@xmlRegExec:

; 4277 : 		*terminal = 1;
; 4278 : 	    else
; 4279 : 		*terminal = 0;
; 4280 : 	}
; 4281 : 
; 4282 : 	if (err) {

	cmp	DWORD PTR _err$[ebp], edi
	je	SHORT $LN29@xmlRegExec

; 4283 : 	    if (exec->errState == NULL) return(-1);

	mov	ebx, DWORD PTR [eax+76]

; 4284 : 	    state = exec->errState;
; 4285 : 	} else {

	jmp	SHORT $LN95@xmlRegExec
$LN29@xmlRegExec:

; 4286 : 	    if (exec->state == NULL) return(-1);

	mov	ebx, DWORD PTR [eax+20]
$LN95@xmlRegExec:

; 4287 : 	    state = exec->state;
; 4288 : 	}
; 4289 : 	for (transno = 0;

	mov	DWORD PTR _state$1$[ebp], ebx
	test	ebx, ebx
	je	$LN15@xmlRegExec

; 4290 : 	     (transno < state->nbTrans) && (nb < maxval);

	mov	eax, DWORD PTR [ebx+24]
	mov	DWORD PTR _transno$1$[ebp], edi
	test	eax, eax
	jle	$LN82@xmlRegExec
	xor	ecx, ecx
	mov	DWORD PTR tv1297[ebp], ecx
$LL10@xmlRegExec:
	cmp	edi, esi
	jge	$LN82@xmlRegExec

; 4292 : 	    trans = &state->trans[transno];

	mov	eax, DWORD PTR [ebx+28]

; 4293 : 	    if (trans->to < 0)

	mov	ebx, DWORD PTR [eax+ecx+4]
	add	eax, ecx
	test	ebx, ebx
	js	$LN8@xmlRegExec

; 4294 : 		continue;
; 4295 : 	    atom = trans->atom;

	mov	ecx, DWORD PTR [eax]

; 4296 : 	    if ((atom == NULL) || (atom->valuep == NULL))

	test	ecx, ecx
	je	$LN8@xmlRegExec
	mov	esi, DWORD PTR [ecx+20]
	test	esi, esi
	je	$LN93@xmlRegExec

; 4297 : 		continue;
; 4298 : 	    if (trans->count == REGEXP_ALL_LAX_COUNTER) {

	mov	edx, DWORD PTR [eax+12]
	cmp	edx, 1193047				; 00123457H
	jne	SHORT $LN36@xmlRegExec

; 4299 : 	        /* this should not be reached but ... */
; 4300 : 	        TODO;

	call	___xmlGenericError
	mov	esi, eax
	call	___xmlGenericErrorContext
	push	4300					; 000010ccH
$LN97@xmlRegExec:

; 4291 : 	     transno++) {

	push	OFFSET ??_C@_0GL@GCGJPEPF@c?3?2users?2dag?2documents?2_clients@
	push	OFFSET ??_C@_0BO@MDEMDPPE@Unimplemented?5block?5at?5?$CFs?3?$CFd?6@
	push	DWORD PTR [eax]
	mov	eax, DWORD PTR [esi]
	call	eax
	add	esp, 16					; 00000010H
	jmp	$LN93@xmlRegExec
$LN36@xmlRegExec:

; 4301 : 	    } else if (trans->count == REGEXP_ALL_COUNTER) {

	cmp	edx, 1193046				; 00123456H
	jne	SHORT $LN38@xmlRegExec

; 4302 : 	        /* this should not be reached but ... */
; 4303 : 	        TODO;

	call	___xmlGenericError
	mov	esi, eax
	call	___xmlGenericErrorContext
	push	4303					; 000010cfH
	jmp	SHORT $LN97@xmlRegExec
$LN38@xmlRegExec:

; 4304 : 	    } else if (trans->counter >= 0) {

	mov	edx, DWORD PTR [eax+8]
	mov	eax, DWORD PTR _exec$[ebp]
	test	edx, edx
	js	SHORT $LN40@xmlRegExec

; 4305 : 		xmlRegCounterPtr counter = NULL;
; 4306 : 		int count;
; 4307 : 
; 4308 : 		if (err)

	cmp	DWORD PTR _err$[ebp], 0
	je	SHORT $LN42@xmlRegExec

; 4309 : 		    count = exec->errCounts[trans->counter];

	mov	eax, DWORD PTR [eax+84]
	jmp	SHORT $LN96@xmlRegExec
$LN42@xmlRegExec:

; 4310 : 		else
; 4311 : 		    count = exec->counts[trans->counter];

	mov	eax, DWORD PTR [eax+44]
$LN96@xmlRegExec:

; 4312 : 		if (exec->comp != NULL)

	mov	ebx, DWORD PTR [eax+edx*4]
	mov	eax, DWORD PTR _exec$[ebp]
	mov	eax, DWORD PTR [eax+8]
	test	eax, eax
	je	SHORT $LN46@xmlRegExec

; 4313 : 		    counter = &exec->comp->counters[trans->counter];

	mov	eax, DWORD PTR [eax+24]
	lea	eax, DWORD PTR [eax+edx*8]

; 4314 : 		if ((counter == NULL) || (count < counter->max)) {

	test	eax, eax
	je	SHORT $LN46@xmlRegExec
	cmp	ebx, DWORD PTR [eax+4]
	jge	SHORT $LN93@xmlRegExec

; 4315 : 		    if (atom->neg)
; 4316 : 			values[nb++] = (xmlChar *) atom->valuep2;
; 4317 : 		    else
; 4318 : 			values[nb++] = (xmlChar *) atom->valuep;
; 4319 : 		    (*nbval)++;
; 4320 : 		}
; 4321 : 	    } else {

	jmp	SHORT $LN46@xmlRegExec
$LN40@xmlRegExec:

; 4322 :                 if ((exec->comp != NULL) && (exec->comp->states[trans->to] != NULL) &&

	mov	eax, DWORD PTR [eax+8]
	test	eax, eax
	je	SHORT $LN93@xmlRegExec
	mov	eax, DWORD PTR [eax+8]
	mov	eax, DWORD PTR [eax+ebx*4]
	test	eax, eax
	je	SHORT $LN93@xmlRegExec
	cmp	DWORD PTR [eax], 4
	je	SHORT $LN93@xmlRegExec
$LN46@xmlRegExec:

; 4291 : 	     transno++) {

	cmp	DWORD PTR [ecx+28], 0
	je	SHORT $LN50@xmlRegExec
	mov	esi, DWORD PTR [ecx+24]
$LN50@xmlRegExec:
	mov	ecx, DWORD PTR _values$[ebp]
	mov	DWORD PTR [ecx+edi*4], esi
	mov	ecx, DWORD PTR _nbval$[ebp]
	inc	DWORD PTR [ecx]
	inc	edi
$LN93@xmlRegExec:
	mov	esi, DWORD PTR _maxval$1$[ebp]
$LN8@xmlRegExec:

; 4290 : 	     (transno < state->nbTrans) && (nb < maxval);

	mov	ebx, DWORD PTR _state$1$[ebp]

; 4291 : 	     transno++) {

	mov	ecx, DWORD PTR _transno$1$[ebp]
	add	DWORD PTR tv1297[ebp], 20		; 00000014H
	inc	ecx
	mov	DWORD PTR _transno$1$[ebp], ecx
	mov	eax, DWORD PTR [ebx+24]
	cmp	ecx, eax
	mov	ecx, DWORD PTR tv1297[ebp]
	jl	$LL10@xmlRegExec
$LN82@xmlRegExec:

; 4323 : 		    (exec->comp->states[trans->to]->type !=
; 4324 : 		     XML_REGEXP_SINK_STATE)) {
; 4325 : 		    if (atom->neg)
; 4326 : 			values[nb++] = (xmlChar *) atom->valuep2;
; 4327 : 		    else
; 4328 : 			values[nb++] = (xmlChar *) atom->valuep;
; 4329 : 		    (*nbval)++;
; 4330 : 		}
; 4331 : 	    }
; 4332 : 	}
; 4333 : 	for (transno = 0;

	xor	ebx, ebx

; 4334 : 	     (transno < state->nbTrans) && (nb < maxval);

	test	eax, eax
	jle	$LN83@xmlRegExec

; 4323 : 		    (exec->comp->states[trans->to]->type !=
; 4324 : 		     XML_REGEXP_SINK_STATE)) {
; 4325 : 		    if (atom->neg)
; 4326 : 			values[nb++] = (xmlChar *) atom->valuep2;
; 4327 : 		    else
