; Listing generated by Microsoft (R) Optimizing Compiler Version 19.16.27027.1 

	TITLE	C:\Users\DAG\Documents\_Clients\CodeProject Authors Group\Windows on ARM\libxml2\libxml2-2.9.9\xmlreader.c
	.686P
	.XMM
	include listing.inc
	.model	flat

INCLUDELIB MSVCRT
INCLUDELIB OLDNAMES

_DATA	SEGMENT
COMM	_xmlMalloc:DWORD
COMM	_xmlMallocAtomic:DWORD
COMM	_xmlRealloc:DWORD
COMM	_xmlFree:DWORD
COMM	_xmlMemStrdup:DWORD
COMM	_xmlIsBaseCharGroup:BYTE:010H
COMM	_xmlIsCharGroup:BYTE:010H
COMM	_xmlIsCombiningGroup:BYTE:010H
COMM	_xmlIsDigitGroup:BYTE:010H
COMM	_xmlIsExtenderGroup:BYTE:010H
COMM	_xmlIsIdeographicGroup:BYTE:010H
COMM	_xmlIsPubidChar_tab:BYTE:0100H
COMM	_xmlParserMaxDepth:DWORD
COMM	_forbiddenExp:DWORD
COMM	_emptyExp:DWORD
_DATA	ENDS
msvcjmc	SEGMENT
__188180DA_corecrt_math@h DB 01H
__2CC6E67D_corecrt_stdio_config@h DB 01H
__05476D76_corecrt_wstdio@h DB 01H
__A452D4A0_stdio@h DB 01H
__4384A2D9_corecrt_memcpy_s@h DB 01H
__4E51A221_corecrt_wstring@h DB 01H
__2140C079_string@h DB 01H
__7B7A869E_ctype@h DB 01H
__BC13D883_xmlreader@c DB 01H
msvcjmc	ENDS
PUBLIC	___local_stdio_printf_options
PUBLIC	_printf
PUBLIC	_xmlNewTextReader
PUBLIC	_xmlNewTextReaderFilename
PUBLIC	_xmlFreeTextReader
PUBLIC	_xmlTextReaderSetup
PUBLIC	_xmlTextReaderRead
PUBLIC	_xmlTextReaderReadInnerXml
PUBLIC	_xmlTextReaderReadOuterXml
PUBLIC	_xmlTextReaderReadString
PUBLIC	_xmlTextReaderReadAttributeValue
PUBLIC	_xmlTextReaderAttributeCount
PUBLIC	_xmlTextReaderDepth
PUBLIC	_xmlTextReaderHasAttributes
PUBLIC	_xmlTextReaderHasValue
PUBLIC	_xmlTextReaderIsDefault
PUBLIC	_xmlTextReaderIsEmptyElement
PUBLIC	_xmlTextReaderNodeType
PUBLIC	_xmlTextReaderQuoteChar
PUBLIC	_xmlTextReaderReadState
PUBLIC	_xmlTextReaderIsNamespaceDecl
PUBLIC	_xmlTextReaderConstBaseUri
PUBLIC	_xmlTextReaderConstLocalName
PUBLIC	_xmlTextReaderConstName
PUBLIC	_xmlTextReaderConstNamespaceUri
PUBLIC	_xmlTextReaderConstPrefix
PUBLIC	_xmlTextReaderConstXmlLang
PUBLIC	_xmlTextReaderConstString
PUBLIC	_xmlTextReaderConstValue
PUBLIC	_xmlTextReaderBaseUri
PUBLIC	_xmlTextReaderLocalName
PUBLIC	_xmlTextReaderName
PUBLIC	_xmlTextReaderNamespaceUri
PUBLIC	_xmlTextReaderPrefix
PUBLIC	_xmlTextReaderXmlLang
PUBLIC	_xmlTextReaderValue
PUBLIC	_xmlTextReaderClose
PUBLIC	_xmlTextReaderGetAttributeNo
PUBLIC	_xmlTextReaderGetAttribute
PUBLIC	_xmlTextReaderGetAttributeNs
PUBLIC	_xmlTextReaderGetRemainder
PUBLIC	_xmlTextReaderLookupNamespace
PUBLIC	_xmlTextReaderMoveToAttributeNo
PUBLIC	_xmlTextReaderMoveToAttribute
PUBLIC	_xmlTextReaderMoveToAttributeNs
PUBLIC	_xmlTextReaderMoveToFirstAttribute
PUBLIC	_xmlTextReaderMoveToNextAttribute
PUBLIC	_xmlTextReaderMoveToElement
PUBLIC	_xmlTextReaderNormalization
PUBLIC	_xmlTextReaderConstEncoding
PUBLIC	_xmlTextReaderSetParserProp
PUBLIC	_xmlTextReaderGetParserProp
PUBLIC	_xmlTextReaderCurrentNode
PUBLIC	_xmlTextReaderGetParserLineNumber
PUBLIC	_xmlTextReaderGetParserColumnNumber
PUBLIC	_xmlTextReaderPreserve
PUBLIC	_xmlTextReaderPreservePattern
PUBLIC	_xmlTextReaderCurrentDoc
PUBLIC	_xmlTextReaderExpand
PUBLIC	_xmlTextReaderNext
PUBLIC	_xmlTextReaderNextSibling
PUBLIC	_xmlTextReaderIsValid
PUBLIC	_xmlTextReaderRelaxNGValidate
PUBLIC	_xmlTextReaderRelaxNGValidateCtxt
PUBLIC	_xmlTextReaderRelaxNGSetSchema
PUBLIC	_xmlTextReaderSchemaValidate
PUBLIC	_xmlTextReaderSchemaValidateCtxt
PUBLIC	_xmlTextReaderSetSchema
PUBLIC	_xmlTextReaderConstXmlVersion
PUBLIC	_xmlTextReaderStandalone
PUBLIC	_xmlTextReaderByteConsumed
PUBLIC	_xmlReaderWalker
PUBLIC	_xmlReaderForDoc
PUBLIC	_xmlReaderForFile
PUBLIC	_xmlReaderForMemory
PUBLIC	_xmlReaderForFd
PUBLIC	_xmlReaderForIO
PUBLIC	_xmlReaderNewWalker
PUBLIC	_xmlReaderNewDoc
PUBLIC	_xmlReaderNewFile
PUBLIC	_xmlReaderNewMemory
PUBLIC	_xmlReaderNewFd
PUBLIC	_xmlReaderNewIO
PUBLIC	_xmlTextReaderLocatorLineNumber
PUBLIC	_xmlTextReaderLocatorBaseURI
PUBLIC	_xmlTextReaderSetErrorHandler
PUBLIC	_xmlTextReaderSetStructuredErrorHandler
PUBLIC	_xmlTextReaderGetErrorHandler
PUBLIC	__JustMyCode_Default
PUBLIC	??_C@_0BE@MPMNBMMA@xmlMalloc?5failed?5?$CB?6@	; `string'
PUBLIC	??_C@_0BF@DCPGEBNC@xmlRealloc?5failed?5?$CB?6@	; `string'
PUBLIC	??_C@_01JLIPDDHJ@?3@				; `string'
PUBLIC	??_C@_0BB@DOFEEJAH@Expand?5failed?5?$CB?6@	; `string'
PUBLIC	??_C@_00CNPNBAHC@@				; `string'
PUBLIC	??_C@_0CA@MIIEHMNN@http?3?1?1www?4w3?4org?12003?1XInclude@ ; `string'
PUBLIC	??_C@_0CA@JAOIMFBM@http?3?1?1www?4w3?4org?12001?1XInclude@ ; `string'
PUBLIC	??_C@_0GL@PIJMIJNC@c?3?2users?2dag?2documents?2_clients@ ; `string'
PUBLIC	??_C@_0BO@MDEMDPPE@Unimplemented?5block?5at?5?$CFs?3?$CFd?6@ ; `string'
PUBLIC	??_C@_0CC@HCDAIILG@xmlNewTextReader?5?3?5malloc?5faile@ ; `string'
PUBLIC	??_C@_05PPEFOGKI@xmlns@				; `string'
PUBLIC	??_C@_0BO@GBJIDPIB@http?3?1?1www?4w3?4org?12000?1xmlns?1@ ; `string'
PUBLIC	??_C@_05NOBOONOA@?$CDtext@			; `string'
PUBLIC	??_C@_0P@LIENAFBO@?$CDcdata?9section@		; `string'
PUBLIC	??_C@_08FBDKDMPC@?$CDcomment@			; `string'
PUBLIC	??_C@_09DFKKGJPK@?$CDdocument@			; `string'
PUBLIC	??_C@_0BD@FMMPJIKP@?$CDdocument?9fragment@	; `string'
PUBLIC	??_C@_0CE@MNBJMFAB@xmlTextReaderSetup?5?3?5malloc?5fai@ ; `string'
PUBLIC	??_C@_02DKCKIIND@?$CFs@				; `string'
PUBLIC	??_C@_0BE@KJPJIHAO@vsnprintf?5failed?5?$CB?6@	; `string'
PUBLIC	??_C@_07FHOHOHLG@include@			; `string'
EXTRN	_xmlStrdup:PROC
EXTRN	_xmlStrEqual:PROC
EXTRN	_xmlStrlen:PROC
EXTRN	_xmlStrcat:PROC
EXTRN	__imp____acrt_iob_func:PROC
EXTRN	__imp____stdio_common_vfprintf:PROC
EXTRN	__imp____stdio_common_vsprintf:PROC
EXTRN	_xmlBufContent:PROC
EXTRN	_xmlBufUse:PROC
EXTRN	_xmlBufShrink:PROC
EXTRN	_xmlDictCreate:PROC
EXTRN	_xmlDictFree:PROC
EXTRN	_xmlDictLookup:PROC
EXTRN	_xmlDictQLookup:PROC
EXTRN	_xmlDictOwns:PROC
EXTRN	_xmlSplitQName2:PROC
EXTRN	_xmlBufferCreate:PROC
EXTRN	_xmlBufferFree:PROC
EXTRN	_xmlBufferCat:PROC
EXTRN	_xmlFreeDtd:PROC
EXTRN	_xmlFreeNs:PROC
EXTRN	_xmlFreeNsList:PROC
EXTRN	_xmlFreeDoc:PROC
EXTRN	_xmlCopyDtd:PROC
EXTRN	_xmlNewDocText:PROC
EXTRN	_xmlDocCopyNode:PROC
EXTRN	_xmlGetLineNo:PROC
EXTRN	_xmlIsBlankNode:PROC
EXTRN	_xmlUnlinkNode:PROC
EXTRN	_xmlFreeNode:PROC
EXTRN	_xmlSearchNs:PROC
EXTRN	_xmlGetNoNsProp:PROC
EXTRN	_xmlGetNsProp:PROC
EXTRN	_xmlNodeListGetString:PROC
EXTRN	_xmlBufGetNodeContent:PROC
EXTRN	_xmlNodeGetLang:PROC
EXTRN	_xmlNodeGetSpacePreserve:PROC
EXTRN	_xmlNodeGetBase:PROC
EXTRN	_xmlNodeDump:PROC
EXTRN	_xmlHashFree:PROC
EXTRN	_xmlHashLookup:PROC
EXTRN	_xmlParserError:PROC
EXTRN	_xmlParserWarning:PROC
EXTRN	_xmlParserValidityError:PROC
EXTRN	_xmlParserValidityWarning:PROC
EXTRN	_xmlIsID:PROC
EXTRN	_xmlFreeRefTable:PROC
EXTRN	_xmlValidatePushElement:PROC
EXTRN	_xmlValidatePushCData:PROC
EXTRN	_xmlValidatePopElement:PROC
EXTRN	_xmlFindCharEncodingHandler:PROC
EXTRN	_xmlAllocParserInputBuffer:PROC
EXTRN	_xmlParserInputBufferCreateFilename:PROC
EXTRN	_xmlParserInputBufferCreateFd:PROC
EXTRN	_xmlParserInputBufferCreateStatic:PROC
EXTRN	_xmlParserInputBufferCreateIO:PROC
EXTRN	_xmlParserInputBufferRead:PROC
EXTRN	_xmlFreeParserInputBuffer:PROC
EXTRN	_xmlParserGetDirectory:PROC
EXTRN	_xmlStopParser:PROC
EXTRN	_xmlFreeParserCtxt:PROC
EXTRN	_xmlCreatePushParserCtxt:PROC
EXTRN	_xmlParseChunk:PROC
EXTRN	_xmlByteConsumed:PROC
EXTRN	_xmlCtxtReset:PROC
EXTRN	_xmlCtxtUseOptions:PROC
EXTRN	_xmlSAXVersion:PROC
EXTRN	___xmlGenericError:PROC
EXTRN	___xmlGenericErrorContext:PROC
EXTRN	___xmlDeregisterNodeDefaultValue:PROC
EXTRN	_xmlRelaxNGNewParserCtxt:PROC
EXTRN	_xmlRelaxNGFreeParserCtxt:PROC
EXTRN	_xmlRelaxNGSetParserErrors:PROC
EXTRN	_xmlRelaxNGParse:PROC
EXTRN	_xmlRelaxNGFree:PROC
EXTRN	_xmlRelaxNGSetValidErrors:PROC
EXTRN	_xmlRelaxNGSetValidStructuredErrors:PROC
EXTRN	_xmlRelaxNGNewValidCtxt:PROC
EXTRN	_xmlRelaxNGFreeValidCtxt:PROC
EXTRN	_xmlRelaxNGValidatePushElement:PROC
EXTRN	_xmlRelaxNGValidatePushCData:PROC
EXTRN	_xmlRelaxNGValidatePopElement:PROC
EXTRN	_xmlRelaxNGValidateFullElement:PROC
EXTRN	_xmlSchemaNewParserCtxt:PROC
EXTRN	_xmlSchemaFreeParserCtxt:PROC
EXTRN	_xmlSchemaSetParserErrors:PROC
EXTRN	_xmlSchemaIsValid:PROC
EXTRN	_xmlSchemaParse:PROC
EXTRN	_xmlSchemaFree:PROC
EXTRN	_xmlSchemaSetValidErrors:PROC
EXTRN	_xmlSchemaSetValidStructuredErrors:PROC
EXTRN	_xmlSchemaNewValidCtxt:PROC
EXTRN	_xmlSchemaFreeValidCtxt:PROC
EXTRN	_xmlSchemaSAXPlug:PROC
EXTRN	_xmlSchemaSAXUnplug:PROC
EXTRN	_xmlSchemaValidateSetLocator:PROC
EXTRN	_xmlSwitchToEncoding:PROC
EXTRN	_xmlNewInputStream:PROC
EXTRN	_inputPush:PROC
EXTRN	_xmlCanonicPath:PROC
EXTRN	_xmlXIncludeNewContext:PROC
EXTRN	_xmlXIncludeSetFlags:PROC
EXTRN	_xmlXIncludeFreeContext:PROC
EXTRN	_xmlXIncludeProcessNode:PROC
EXTRN	_xmlFreePattern:PROC
EXTRN	_xmlPatterncompile:PROC
EXTRN	_xmlPatternMatch:PROC
EXTRN	_xmlBufCreateSize:PROC
EXTRN	_xmlBufSetAllocationScheme:PROC
EXTRN	_xmlBufGetAllocationScheme:PROC
EXTRN	_xmlBufFree:PROC
EXTRN	_xmlBufEmpty:PROC
EXTRN	_xmlBufResetInput:PROC
EXTRN	@__CheckForDebuggerJustMyCode@4:PROC
EXTRN	_memset:PROC
EXTRN	___xmlRegisterCallbacks:DWORD
_DATA	SEGMENT
COMM	?_OptionsStorage@?1??__local_stdio_printf_options@@9@9:QWORD							; `__local_stdio_printf_options'::`2'::_OptionsStorage
_DATA	ENDS
;	COMDAT ??_C@_07FHOHOHLG@include@
CONST	SEGMENT
??_C@_07FHOHOHLG@include@ DB 'include', 00H		; `string'
CONST	ENDS
;	COMDAT ??_C@_0BE@KJPJIHAO@vsnprintf?5failed?5?$CB?6@
CONST	SEGMENT
??_C@_0BE@KJPJIHAO@vsnprintf?5failed?5?$CB?6@ DB 'vsnprintf failed !', 0aH
	DB	00H						; `string'
CONST	ENDS
;	COMDAT ??_C@_02DKCKIIND@?$CFs@
CONST	SEGMENT
??_C@_02DKCKIIND@?$CFs@ DB '%s', 00H			; `string'
CONST	ENDS
;	COMDAT ??_C@_0CE@MNBJMFAB@xmlTextReaderSetup?5?3?5malloc?5fai@
CONST	SEGMENT
??_C@_0CE@MNBJMFAB@xmlTextReaderSetup?5?3?5malloc?5fai@ DB 'xmlTextReader'
	DB	'Setup : malloc failed', 0aH, 00H		; `string'
CONST	ENDS
;	COMDAT ??_C@_0BD@FMMPJIKP@?$CDdocument?9fragment@
CONST	SEGMENT
??_C@_0BD@FMMPJIKP@?$CDdocument?9fragment@ DB '#document-fragment', 00H ; `string'
CONST	ENDS
;	COMDAT ??_C@_09DFKKGJPK@?$CDdocument@
CONST	SEGMENT
??_C@_09DFKKGJPK@?$CDdocument@ DB '#document', 00H	; `string'
CONST	ENDS
;	COMDAT ??_C@_08FBDKDMPC@?$CDcomment@
CONST	SEGMENT
??_C@_08FBDKDMPC@?$CDcomment@ DB '#comment', 00H	; `string'
CONST	ENDS
;	COMDAT ??_C@_0P@LIENAFBO@?$CDcdata?9section@
CONST	SEGMENT
??_C@_0P@LIENAFBO@?$CDcdata?9section@ DB '#cdata-section', 00H ; `string'
CONST	ENDS
;	COMDAT ??_C@_05NOBOONOA@?$CDtext@
CONST	SEGMENT
??_C@_05NOBOONOA@?$CDtext@ DB '#text', 00H		; `string'
CONST	ENDS
;	COMDAT ??_C@_0BO@GBJIDPIB@http?3?1?1www?4w3?4org?12000?1xmlns?1@
CONST	SEGMENT
??_C@_0BO@GBJIDPIB@http?3?1?1www?4w3?4org?12000?1xmlns?1@ DB 'http://www.'
	DB	'w3.org/2000/xmlns/', 00H			; `string'
CONST	ENDS
;	COMDAT ??_C@_05PPEFOGKI@xmlns@
CONST	SEGMENT
??_C@_05PPEFOGKI@xmlns@ DB 'xmlns', 00H			; `string'
CONST	ENDS
;	COMDAT ??_C@_0CC@HCDAIILG@xmlNewTextReader?5?3?5malloc?5faile@
CONST	SEGMENT
??_C@_0CC@HCDAIILG@xmlNewTextReader?5?3?5malloc?5faile@ DB 'xmlNewTextRea'
	DB	'der : malloc failed', 0aH, 00H		; `string'
CONST	ENDS
;	COMDAT ??_C@_0BO@MDEMDPPE@Unimplemented?5block?5at?5?$CFs?3?$CFd?6@
CONST	SEGMENT
??_C@_0BO@MDEMDPPE@Unimplemented?5block?5at?5?$CFs?3?$CFd?6@ DB 'Unimplem'
	DB	'ented block at %s:%d', 0aH, 00H		; `string'
CONST	ENDS
;	COMDAT ??_C@_0GL@PIJMIJNC@c?3?2users?2dag?2documents?2_clients@
CONST	SEGMENT
??_C@_0GL@PIJMIJNC@c?3?2users?2dag?2documents?2_clients@ DB 'c:\users\dag'
	DB	'\documents\_clients\codeproject authors group\windows on arm\'
	DB	'libxml2\libxml2-2.9.9\xmlreader.c', 00H	; `string'
CONST	ENDS
;	COMDAT ??_C@_0CA@JAOIMFBM@http?3?1?1www?4w3?4org?12001?1XInclude@
CONST	SEGMENT
??_C@_0CA@JAOIMFBM@http?3?1?1www?4w3?4org?12001?1XInclude@ DB 'http://www'
	DB	'.w3.org/2001/XInclude', 00H			; `string'
CONST	ENDS
;	COMDAT ??_C@_0CA@MIIEHMNN@http?3?1?1www?4w3?4org?12003?1XInclude@
CONST	SEGMENT
??_C@_0CA@MIIEHMNN@http?3?1?1www?4w3?4org?12003?1XInclude@ DB 'http://www'
	DB	'.w3.org/2003/XInclude', 00H			; `string'
CONST	ENDS
;	COMDAT ??_C@_00CNPNBAHC@@
CONST	SEGMENT
??_C@_00CNPNBAHC@@ DB 00H				; `string'
CONST	ENDS
;	COMDAT ??_C@_0BB@DOFEEJAH@Expand?5failed?5?$CB?6@
CONST	SEGMENT
??_C@_0BB@DOFEEJAH@Expand?5failed?5?$CB?6@ DB 'Expand failed !', 0aH, 00H ; `string'
CONST	ENDS
;	COMDAT ??_C@_01JLIPDDHJ@?3@
CONST	SEGMENT
??_C@_01JLIPDDHJ@?3@ DB ':', 00H			; `string'
CONST	ENDS
;	COMDAT ??_C@_0BF@DCPGEBNC@xmlRealloc?5failed?5?$CB?6@
CONST	SEGMENT
??_C@_0BF@DCPGEBNC@xmlRealloc?5failed?5?$CB?6@ DB 'xmlRealloc failed !', 0aH
	DB	00H						; `string'
CONST	ENDS
;	COMDAT ??_C@_0BE@MPMNBMMA@xmlMalloc?5failed?5?$CB?6@
CONST	SEGMENT
??_C@_0BE@MPMNBMMA@xmlMalloc?5failed?5?$CB?6@ DB 'xmlMalloc failed !', 0aH
	DB	00H						; `string'
CONST	ENDS
; Function compile flags: /Odt
;	COMDAT __JustMyCode_Default
_TEXT	SEGMENT
__JustMyCode_Default PROC				; COMDAT
	push	ebp
	mov	ebp, esp
	pop	ebp
	ret	0
__JustMyCode_Default ENDP
_TEXT	ENDS
; Function compile flags: /Ogtp
; File c:\users\dag\documents\_clients\codeproject authors group\windows on arm\libxml2\libxml2-2.9.9\xmlreader.c
;	COMDAT _xmlTextReaderWarning
_TEXT	SEGMENT
_ctxt$ = 8						; size = 4
_msg$ = 12						; size = 4
_xmlTextReaderWarning PROC				; COMDAT

; 4878 : {

	push	ebp
	mov	ebp, esp
	push	esi
	mov	ecx, OFFSET __BC13D883_xmlreader@c
	call	@__CheckForDebuggerJustMyCode@4
	lea	eax, DWORD PTR _msg$[ebp+4]
	push	eax
	push	DWORD PTR _msg$[ebp]
	call	_xmlTextReaderBuildMessage
	mov	esi, eax
	add	esp, 8

; 4843 :     if (str != NULL) {

	test	esi, esi
	je	SHORT $LN4@xmlTextRea

; 4841 :     xmlTextReaderPtr reader = (xmlTextReaderPtr) ctx->_private;

	mov	eax, DWORD PTR _ctxt$[ebp]
	mov	ecx, DWORD PTR [eax+272]

; 4844 :         if (reader->errorFunc)

	mov	edx, DWORD PTR [ecx+108]
	test	edx, edx
	je	SHORT $LN5@xmlTextRea

; 4845 :             reader->errorFunc(reader->errorFuncArg, str, severity,

	push	eax
	push	3
	push	esi
	push	DWORD PTR [ecx+112]
	call	edx
	add	esp, 16					; 00000010H
$LN5@xmlTextRea:

; 4846 :                               (xmlTextReaderLocatorPtr) ctx);
; 4847 :         xmlFree(str);

	push	esi
	call	DWORD PTR _xmlFree
	add	esp, 4
$LN4@xmlTextRea:
	pop	esi

; 4879 :     va_list ap;
; 4880 : 
; 4881 :     va_start(ap, msg);
; 4882 :     xmlTextReaderGenericError(ctxt,
; 4883 :                               XML_PARSER_SEVERITY_WARNING,
; 4884 :                               xmlTextReaderBuildMessage(msg, ap));
; 4885 :     va_end(ap);
; 4886 : }

	pop	ebp
	ret	0
_xmlTextReaderWarning ENDP
_TEXT	ENDS
; Function compile flags: /Ogtp
; File c:\users\dag\documents\_clients\codeproject authors group\windows on arm\libxml2\libxml2-2.9.9\xmlreader.c
;	COMDAT _xmlTextReaderError
_TEXT	SEGMENT
_ctxt$ = 8						; size = 4
_msg$ = 12						; size = 4
_xmlTextReaderError PROC				; COMDAT

; 4865 : {

	push	ebp
	mov	ebp, esp
	push	esi
	mov	ecx, OFFSET __BC13D883_xmlreader@c
	call	@__CheckForDebuggerJustMyCode@4
	lea	eax, DWORD PTR _msg$[ebp+4]
	push	eax
	push	DWORD PTR _msg$[ebp]
	call	_xmlTextReaderBuildMessage
	mov	esi, eax
	add	esp, 8

; 4843 :     if (str != NULL) {

	test	esi, esi
	je	SHORT $LN4@xmlTextRea

; 4841 :     xmlTextReaderPtr reader = (xmlTextReaderPtr) ctx->_private;

	mov	eax, DWORD PTR _ctxt$[ebp]
	mov	ecx, DWORD PTR [eax+272]

; 4844 :         if (reader->errorFunc)

	mov	edx, DWORD PTR [ecx+108]
	test	edx, edx
	je	SHORT $LN5@xmlTextRea

; 4845 :             reader->errorFunc(reader->errorFuncArg, str, severity,

	push	eax
	push	4
	push	esi
	push	DWORD PTR [ecx+112]
	call	edx
	add	esp, 16					; 00000010H
$LN5@xmlTextRea:

; 4846 :                               (xmlTextReaderLocatorPtr) ctx);
; 4847 :         xmlFree(str);

	push	esi
	call	DWORD PTR _xmlFree
	add	esp, 4
$LN4@xmlTextRea:
	pop	esi

; 4866 :     va_list ap;
; 4867 : 
; 4868 :     va_start(ap, msg);
; 4869 :     xmlTextReaderGenericError(ctxt,
; 4870 :                               XML_PARSER_SEVERITY_ERROR,
; 4871 :                               xmlTextReaderBuildMessage(msg, ap));
; 4872 :     va_end(ap);
; 4873 : 
; 4874 : }

	pop	ebp
	ret	0
_xmlTextReaderError ENDP
_TEXT	ENDS
; Function compile flags: /Ogtp
; File c:\users\dag\documents\_clients\codeproject authors group\windows on arm\libxml2\libxml2-2.9.9\xmlreader.c
;	COMDAT _xmlTextReaderGenericError
_TEXT	SEGMENT
_ctxt$ = 8						; size = 4
_severity$ = 12						; size = 4
_str$ = 16						; size = 4
_xmlTextReaderGenericError PROC				; COMDAT

; 4838 : {

	push	ebp
	mov	ebp, esp
	push	esi
	mov	ecx, OFFSET __BC13D883_xmlreader@c
	call	@__CheckForDebuggerJustMyCode@4
	mov	esi, DWORD PTR _str$[ebp]
	test	esi, esi
	je	SHORT $LN2@xmlTextRea

; 4839 :     xmlParserCtxtPtr ctx = (xmlParserCtxtPtr) ctxt;
; 4840 : 
; 4841 :     xmlTextReaderPtr reader = (xmlTextReaderPtr) ctx->_private;

	mov	eax, DWORD PTR _ctxt$[ebp]
	mov	ecx, DWORD PTR [eax+272]

; 4842 : 
; 4843 :     if (str != NULL) {
; 4844 :         if (reader->errorFunc)

	mov	edx, DWORD PTR [ecx+108]
	test	edx, edx
	je	SHORT $LN3@xmlTextRea

; 4845 :             reader->errorFunc(reader->errorFuncArg, str, severity,

	push	eax
	push	DWORD PTR _severity$[ebp]
	push	esi
	push	DWORD PTR [ecx+112]
	call	edx
	add	esp, 16					; 00000010H
$LN3@xmlTextRea:

; 4846 :                               (xmlTextReaderLocatorPtr) ctx);
; 4847 :         xmlFree(str);

	push	esi
	call	DWORD PTR _xmlFree
	add	esp, 4
$LN2@xmlTextRea:
	pop	esi

; 4848 :     }
; 4849 : }

	pop	ebp
	ret	0
_xmlTextReaderGenericError ENDP
_TEXT	ENDS
; Function compile flags: /Ogtp
; File c:\users\dag\documents\_clients\codeproject authors group\windows on arm\libxml2\libxml2-2.9.9\xmlreader.c
;	COMDAT _xmlTextReaderSchemaValidateInternal
_TEXT	SEGMENT
_reader$ = 8						; size = 4
_xsd$ = 12						; size = 4
_ctxt$ = 16						; size = 4
_options$ = 20						; size = 4
_xmlTextReaderSchemaValidateInternal PROC		; COMDAT

; 4457 : {

	push	ebp
	mov	ebp, esp
	push	ebx
	push	esi
	push	edi
	mov	ecx, OFFSET __BC13D883_xmlreader@c
	call	@__CheckForDebuggerJustMyCode@4
	mov	esi, DWORD PTR _reader$[ebp]
	test	esi, esi
	je	SHORT $LN6@xmlTextRea

; 4458 :     if (reader == NULL)
; 4459 :         return(-1);
; 4460 : 
; 4461 :     if ((xsd != NULL) && (ctxt != NULL))

	mov	ebx, DWORD PTR _xsd$[ebp]
	mov	edi, DWORD PTR _ctxt$[ebp]
	test	ebx, ebx
	je	SHORT $LN24@xmlTextRea
	test	edi, edi
	je	SHORT $LN5@xmlTextRea
$LN6@xmlTextRea:
	pop	edi

; 4555 :     return(0);
; 4556 : }

	pop	esi
	or	eax, -1
	pop	ebx
	pop	ebp
	ret	0
$LN24@xmlTextRea:

; 4462 : 	return(-1);
; 4463 : 
; 4464 :     if (((xsd != NULL) || (ctxt != NULL)) &&

	test	edi, edi
	je	SHORT $LN25@xmlTextRea
$LN5@xmlTextRea:
	cmp	DWORD PTR [esi], 0
	jne	SHORT $LN6@xmlTextRea
	cmp	DWORD PTR [esi+20], 0
	je	SHORT $LN6@xmlTextRea
$LN25@xmlTextRea:

; 4465 : 	((reader->mode != XML_TEXTREADER_MODE_INITIAL) ||
; 4466 :         (reader->ctxt == NULL)))
; 4467 : 	return(-1);
; 4468 : 
; 4469 :     /* Cleanup previous validation stuff. */
; 4470 :     if (reader->xsdPlug != NULL) {

	mov	eax, DWORD PTR [esi+152]
	test	eax, eax
	je	SHORT $LN7@xmlTextRea

; 4471 : 	xmlSchemaSAXUnplug(reader->xsdPlug);

	push	eax
	call	_xmlSchemaSAXUnplug
	add	esp, 4

; 4472 : 	reader->xsdPlug = NULL;

	mov	DWORD PTR [esi+152], 0
$LN7@xmlTextRea:

; 4473 :     }
; 4474 :     if (reader->xsdValidCtxt != NULL) {

	mov	eax, DWORD PTR [esi+140]
	test	eax, eax
	je	SHORT $LN8@xmlTextRea

; 4475 : 	if (! reader->xsdPreserveCtxt)

	cmp	DWORD PTR [esi+144], 0
	jne	SHORT $LN9@xmlTextRea

; 4476 : 	    xmlSchemaFreeValidCtxt(reader->xsdValidCtxt);

	push	eax
	call	_xmlSchemaFreeValidCtxt
	add	esp, 4
$LN9@xmlTextRea:

; 4477 : 	reader->xsdValidCtxt = NULL;

	mov	DWORD PTR [esi+140], 0
$LN8@xmlTextRea:

; 4478 :     }
; 4479 :     reader->xsdPreserveCtxt = 0;
; 4480 :     if (reader->xsdSchemas != NULL) {

	mov	eax, DWORD PTR [esi+136]
	mov	DWORD PTR [esi+144], 0
	test	eax, eax
	je	SHORT $LN10@xmlTextRea

; 4481 : 	xmlSchemaFree(reader->xsdSchemas);

	push	eax
	call	_xmlSchemaFree
	add	esp, 4

; 4482 : 	reader->xsdSchemas = NULL;

	mov	DWORD PTR [esi+136], 0
$LN10@xmlTextRea:

; 4483 :     }
; 4484 : 
; 4485 :     if ((xsd == NULL) && (ctxt == NULL)) {

	test	ebx, ebx
	jne	SHORT $LN23@xmlTextRea
	test	edi, edi
	je	$LN26@xmlTextRea

; 4518 : 	    return(-1);
; 4519 : 	}
; 4520 :     } else {
; 4521 : 	/* Use the given validation context. */
; 4522 : 	reader->xsdValidCtxt = ctxt;
; 4523 : 	reader->xsdPreserveCtxt = 1;
; 4524 : 	reader->xsdPlug = xmlSchemaSAXPlug(reader->xsdValidCtxt,

	mov	ecx, DWORD PTR [esi+20]
	mov	DWORD PTR [esi+140], edi
	mov	DWORD PTR [esi+144], 1
	lea	eax, DWORD PTR [ecx+4]
	push	eax
	push	ecx
	push	edi
	call	_xmlSchemaSAXPlug
	add	esp, 12					; 0000000cH
	mov	DWORD PTR [esi+152], eax

; 4525 : 	    &(reader->ctxt->sax),
; 4526 : 	    &(reader->ctxt->userData));
; 4527 : 	if (reader->xsdPlug == NULL) {

	test	eax, eax
	jne	$LN18@xmlTextRea

; 4528 : 	    reader->xsdValidCtxt = NULL;

	pop	edi
	mov	DWORD PTR [esi+140], eax

; 4529 : 	    reader->xsdPreserveCtxt = 0;

	mov	DWORD PTR [esi+144], eax

; 4555 :     return(0);
; 4556 : }

	or	eax, -1
	pop	esi
	pop	ebx
	pop	ebp
	ret	0
$LN23@xmlTextRea:

; 4486 : 	/* We just want to deactivate the validation, so get out. */
; 4487 : 	return(0);
; 4488 :     }
; 4489 : 
; 4490 :     if (xsd != NULL) {
; 4491 : 	xmlSchemaParserCtxtPtr pctxt;
; 4492 : 	/* Parse the schema and create validation environment. */
; 4493 : 	pctxt = xmlSchemaNewParserCtxt(xsd);

	push	ebx
	call	_xmlSchemaNewParserCtxt
	add	esp, 4
	mov	edi, eax

; 4494 : 	if (reader->errorFunc != NULL) {

	cmp	DWORD PTR [esi+108], 0
	je	SHORT $LN14@xmlTextRea

; 4495 : 	    xmlSchemaSetParserErrors(pctxt,

	push	esi
	push	OFFSET _xmlTextReaderValidityWarningRelay
	push	OFFSET _xmlTextReaderValidityErrorRelay
	push	edi
	call	_xmlSchemaSetParserErrors
	add	esp, 16					; 00000010H
$LN14@xmlTextRea:

; 4496 : 		xmlTextReaderValidityErrorRelay,
; 4497 : 		xmlTextReaderValidityWarningRelay,
; 4498 : 		reader);
; 4499 : 	}
; 4500 : 	reader->xsdSchemas = xmlSchemaParse(pctxt);

	push	edi
	call	_xmlSchemaParse

; 4501 : 	xmlSchemaFreeParserCtxt(pctxt);

	push	edi
	mov	DWORD PTR [esi+136], eax
	call	_xmlSchemaFreeParserCtxt

; 4502 : 	if (reader->xsdSchemas == NULL)

	mov	eax, DWORD PTR [esi+136]
	add	esp, 8
	test	eax, eax
	je	$LN6@xmlTextRea

; 4503 : 	    return(-1);
; 4504 : 	reader->xsdValidCtxt = xmlSchemaNewValidCtxt(reader->xsdSchemas);

	push	eax
	call	_xmlSchemaNewValidCtxt
	mov	edx, eax
	add	esp, 4
	mov	DWORD PTR [esi+140], edx

; 4505 : 	if (reader->xsdValidCtxt == NULL) {

	test	edx, edx
	jne	SHORT $LN16@xmlTextRea

; 4506 : 	    xmlSchemaFree(reader->xsdSchemas);

	push	DWORD PTR [esi+136]
	call	_xmlSchemaFree
	add	esp, 4

; 4507 : 	    reader->xsdSchemas = NULL;

	mov	DWORD PTR [esi+136], 0

; 4555 :     return(0);
; 4556 : }

	or	eax, -1
	pop	edi
	pop	esi
	pop	ebx
	pop	ebp
	ret	0
$LN16@xmlTextRea:

; 4508 : 	    return(-1);
; 4509 : 	}
; 4510 : 	reader->xsdPlug = xmlSchemaSAXPlug(reader->xsdValidCtxt,

	mov	ecx, DWORD PTR [esi+20]
	lea	eax, DWORD PTR [ecx+4]
	push	eax
	push	ecx
	push	edx
	call	_xmlSchemaSAXPlug
	add	esp, 12					; 0000000cH
	mov	DWORD PTR [esi+152], eax

; 4511 : 	    &(reader->ctxt->sax),
; 4512 : 	    &(reader->ctxt->userData));
; 4513 : 	if (reader->xsdPlug == NULL) {

	test	eax, eax
	jne	SHORT $LN18@xmlTextRea

; 4514 : 	    xmlSchemaFree(reader->xsdSchemas);

	push	DWORD PTR [esi+136]
	call	_xmlSchemaFree

; 4515 : 	    reader->xsdSchemas = NULL;
; 4516 : 	    xmlSchemaFreeValidCtxt(reader->xsdValidCtxt);

	push	DWORD PTR [esi+140]
	mov	DWORD PTR [esi+136], 0
	call	_xmlSchemaFreeValidCtxt
	add	esp, 8

; 4517 : 	    reader->xsdValidCtxt = NULL;

	mov	DWORD PTR [esi+140], 0

; 4555 :     return(0);
; 4556 : }

	or	eax, -1
	pop	edi
	pop	esi
	pop	ebx
	pop	ebp
	ret	0
$LN18@xmlTextRea:

; 4530 : 	    return(-1);
; 4531 : 	}
; 4532 :     }
; 4533 :     xmlSchemaValidateSetLocator(reader->xsdValidCtxt,

	push	esi
	push	OFFSET _xmlTextReaderLocator
	push	DWORD PTR [esi+140]
	call	_xmlSchemaValidateSetLocator
	add	esp, 12					; 0000000cH

; 4534 :                                 xmlTextReaderLocator,
; 4535 : 				(void *) reader);
; 4536 :     /*
; 4537 :     * Redirect the validation context's error channels to use
; 4538 :     * the reader channels.
; 4539 :     * TODO: In case the user provides the validation context we
; 4540 :     *   could make this redirection optional.
; 4541 :     */
; 4542 :     if (reader->errorFunc != NULL) {

	cmp	DWORD PTR [esi+108], 0
	je	SHORT $LN19@xmlTextRea

; 4543 : 	xmlSchemaSetValidErrors(reader->xsdValidCtxt,

	push	esi
	push	OFFSET _xmlTextReaderValidityWarningRelay
	push	OFFSET _xmlTextReaderValidityErrorRelay
	push	DWORD PTR [esi+140]
	call	_xmlSchemaSetValidErrors
	add	esp, 16					; 00000010H
$LN19@xmlTextRea:

; 4544 : 			 xmlTextReaderValidityErrorRelay,
; 4545 : 			 xmlTextReaderValidityWarningRelay,
; 4546 : 			 reader);
; 4547 :     }
; 4548 : 	if (reader->sErrorFunc != NULL) {

	cmp	DWORD PTR [esi+192], 0
	je	SHORT $LN20@xmlTextRea

; 4549 : 		xmlSchemaSetValidStructuredErrors(reader->xsdValidCtxt,

	push	esi
	push	OFFSET _xmlTextReaderValidityStructuredRelay
	push	DWORD PTR [esi+140]
	call	_xmlSchemaSetValidStructuredErrors
	add	esp, 12					; 0000000cH
$LN20@xmlTextRea:

; 4550 : 			xmlTextReaderValidityStructuredRelay,
; 4551 : 			reader);
; 4552 :     }
; 4553 :     reader->xsdValidErrors = 0;

	mov	DWORD PTR [esi+148], 0

; 4554 :     reader->validate = XML_TEXTREADER_VALIDATE_XSD;

	mov	DWORD PTR [esi+8], 4
$LN26@xmlTextRea:

; 4555 :     return(0);
; 4556 : }

	pop	edi
	pop	esi
	xor	eax, eax
	pop	ebx
	pop	ebp
	ret	0
_xmlTextReaderSchemaValidateInternal ENDP
_TEXT	ENDS
; Function compile flags: /Ogtp
; File c:\users\dag\documents\_clients\codeproject authors group\windows on arm\libxml2\libxml2-2.9.9\xmlreader.c
;	COMDAT _xmlTextReaderRelaxNGValidateInternal
_TEXT	SEGMENT
_reader$ = 8						; size = 4
_rng$ = 12						; size = 4
_ctxt$ = 16						; size = 4
_options$ = 20						; size = 4
_xmlTextReaderRelaxNGValidateInternal PROC		; COMDAT

; 4354 : {

	push	ebp
	mov	ebp, esp
	push	ebx
	push	esi
	push	edi
	mov	ecx, OFFSET __BC13D883_xmlreader@c
	call	@__CheckForDebuggerJustMyCode@4
	mov	esi, DWORD PTR _reader$[ebp]
	test	esi, esi
	je	SHORT $LN6@xmlTextRea

; 4355 :     if (reader == NULL)
; 4356 : 	return(-1);
; 4357 : 
; 4358 :     if ((rng != NULL) && (ctxt != NULL))

	mov	ebx, DWORD PTR _rng$[ebp]
	mov	edi, DWORD PTR _ctxt$[ebp]
	test	ebx, ebx
	je	SHORT $LN21@xmlTextRea
	test	edi, edi
	je	SHORT $LN5@xmlTextRea
$LN6@xmlTextRea:
	pop	edi

; 4435 :     return(0);
; 4436 : }

	pop	esi
	or	eax, -1
	pop	ebx
	pop	ebp
	ret	0
$LN21@xmlTextRea:

; 4359 : 	return (-1);
; 4360 : 
; 4361 :     if (((rng != NULL) || (ctxt != NULL)) &&

	test	edi, edi
	je	SHORT $LN4@xmlTextRea
$LN5@xmlTextRea:
	cmp	DWORD PTR [esi], 0
	jne	SHORT $LN6@xmlTextRea
	cmp	DWORD PTR [esi+20], 0
	je	SHORT $LN6@xmlTextRea
$LN4@xmlTextRea:

; 4362 : 	((reader->mode != XML_TEXTREADER_MODE_INITIAL) ||
; 4363 : 	 (reader->ctxt == NULL)))
; 4364 : 	return(-1);
; 4365 : 
; 4366 :     /* Cleanup previous validation stuff. */
; 4367 :     if (reader->rngValidCtxt != NULL) {

	mov	eax, DWORD PTR [esi+120]
	test	eax, eax
	je	SHORT $LN7@xmlTextRea

; 4368 : 	if ( !reader->rngPreserveCtxt)

	cmp	DWORD PTR [esi+124], 0
	jne	SHORT $LN8@xmlTextRea

; 4369 : 	    xmlRelaxNGFreeValidCtxt(reader->rngValidCtxt);

	push	eax
	call	_xmlRelaxNGFreeValidCtxt
	add	esp, 4
$LN8@xmlTextRea:

; 4370 : 	reader->rngValidCtxt = NULL;

	mov	DWORD PTR [esi+120], 0
$LN7@xmlTextRea:

; 4371 :     }
; 4372 :     reader->rngPreserveCtxt = 0;
; 4373 :     if (reader->rngSchemas != NULL) {

	mov	eax, DWORD PTR [esi+116]
	mov	DWORD PTR [esi+124], 0
	test	eax, eax
	je	SHORT $LN9@xmlTextRea

; 4374 : 	xmlRelaxNGFree(reader->rngSchemas);

	push	eax
	call	_xmlRelaxNGFree
	add	esp, 4

; 4375 : 	reader->rngSchemas = NULL;

	mov	DWORD PTR [esi+116], 0
$LN9@xmlTextRea:

; 4376 :     }
; 4377 : 
; 4378 :     if ((rng == NULL) && (ctxt == NULL)) {

	test	ebx, ebx
	jne	SHORT $LN20@xmlTextRea
	test	edi, edi
	je	SHORT $LN22@xmlTextRea

; 4408 : 	    return(-1);
; 4409 : 	}
; 4410 :     } else {
; 4411 : 	/* Use the given validation context. */
; 4412 : 	reader->rngValidCtxt = ctxt;

	mov	DWORD PTR [esi+120], edi

; 4413 : 	reader->rngPreserveCtxt = 1;

	mov	DWORD PTR [esi+124], 1
$LN16@xmlTextRea:

; 4414 :     }
; 4415 :     /*
; 4416 :     * Redirect the validation context's error channels to use
; 4417 :     * the reader channels.
; 4418 :     * TODO: In case the user provides the validation context we
; 4419 :     *	could make this redirection optional.
; 4420 :     */
; 4421 :     if (reader->errorFunc != NULL) {

	cmp	DWORD PTR [esi+108], 0
	je	SHORT $LN17@xmlTextRea

; 4422 : 	xmlRelaxNGSetValidErrors(reader->rngValidCtxt,

	push	esi
	push	OFFSET _xmlTextReaderValidityWarningRelay
	push	OFFSET _xmlTextReaderValidityErrorRelay
	push	edi
	call	_xmlRelaxNGSetValidErrors
	add	esp, 16					; 00000010H
$LN17@xmlTextRea:

; 4423 : 			 xmlTextReaderValidityErrorRelay,
; 4424 : 			 xmlTextReaderValidityWarningRelay,
; 4425 : 			 reader);
; 4426 :     }
; 4427 : 	if (reader->sErrorFunc != NULL) {

	cmp	DWORD PTR [esi+192], 0
	je	SHORT $LN18@xmlTextRea

; 4428 : 		xmlRelaxNGSetValidStructuredErrors(reader->rngValidCtxt,

	push	esi
	push	OFFSET _xmlTextReaderValidityStructuredRelay
	push	DWORD PTR [esi+120]
	call	_xmlRelaxNGSetValidStructuredErrors
	add	esp, 12					; 0000000cH
$LN18@xmlTextRea:

; 4429 : 			xmlTextReaderValidityStructuredRelay,
; 4430 : 			reader);
; 4431 :     }
; 4432 :     reader->rngValidErrors = 0;

	mov	DWORD PTR [esi+128], 0

; 4433 :     reader->rngFullNode = NULL;

	mov	DWORD PTR [esi+132], 0

; 4434 :     reader->validate = XML_TEXTREADER_VALIDATE_RNG;

	mov	DWORD PTR [esi+8], 2
$LN22@xmlTextRea:

; 4435 :     return(0);
; 4436 : }

	pop	edi
	pop	esi
	xor	eax, eax
	pop	ebx
	pop	ebp
	ret	0
$LN20@xmlTextRea:

; 4379 : 	/* We just want to deactivate the validation, so get out. */
; 4380 : 	return(0);
; 4381 :     }
; 4382 : 
; 4383 : 
; 4384 :     if (rng != NULL) {
; 4385 : 	xmlRelaxNGParserCtxtPtr pctxt;
; 4386 : 	/* Parse the schema and create validation environment. */
; 4387 : 
; 4388 : 	pctxt = xmlRelaxNGNewParserCtxt(rng);

	push	ebx
	call	_xmlRelaxNGNewParserCtxt
	add	esp, 4
	mov	edi, eax

; 4389 : 	if (reader->errorFunc != NULL) {

	cmp	DWORD PTR [esi+108], 0
	je	SHORT $LN13@xmlTextRea

; 4390 : 	    xmlRelaxNGSetParserErrors(pctxt,

	push	esi
	push	OFFSET _xmlTextReaderValidityWarningRelay
	push	OFFSET _xmlTextReaderValidityErrorRelay
	push	edi
	call	_xmlRelaxNGSetParserErrors
	add	esp, 16					; 00000010H
$LN13@xmlTextRea:

; 4391 : 		xmlTextReaderValidityErrorRelay,
; 4392 : 		xmlTextReaderValidityWarningRelay,
; 4393 : 		reader);
; 4394 : 	}
; 4395 : 	if (reader->sErrorFunc != NULL) {

	cmp	DWORD PTR [esi+192], 0
	je	SHORT $LN14@xmlTextRea

; 4396 : 	    xmlRelaxNGSetValidStructuredErrors(reader->rngValidCtxt,

	push	esi
	push	OFFSET _xmlTextReaderValidityStructuredRelay
	push	DWORD PTR [esi+120]
	call	_xmlRelaxNGSetValidStructuredErrors
	add	esp, 12					; 0000000cH
$LN14@xmlTextRea:

; 4397 : 		xmlTextReaderValidityStructuredRelay,
; 4398 : 		reader);
; 4399 : 	}
; 4400 : 	reader->rngSchemas = xmlRelaxNGParse(pctxt);

	push	edi
	call	_xmlRelaxNGParse

; 4401 : 	xmlRelaxNGFreeParserCtxt(pctxt);

	push	edi
	mov	DWORD PTR [esi+116], eax
	call	_xmlRelaxNGFreeParserCtxt

; 4402 : 	if (reader->rngSchemas == NULL)

	mov	eax, DWORD PTR [esi+116]
	add	esp, 8
	test	eax, eax
	je	$LN6@xmlTextRea

; 4403 : 	    return(-1);
; 4404 : 	reader->rngValidCtxt = xmlRelaxNGNewValidCtxt(reader->rngSchemas);

	push	eax
	call	_xmlRelaxNGNewValidCtxt
	mov	edi, eax
	add	esp, 4
	mov	DWORD PTR [esi+120], edi

; 4405 : 	if (reader->rngValidCtxt == NULL) {

	test	edi, edi
	jne	$LN16@xmlTextRea

; 4406 : 	    xmlRelaxNGFree(reader->rngSchemas);

	push	DWORD PTR [esi+116]
	call	_xmlRelaxNGFree
	add	esp, 4

; 4407 : 	    reader->rngSchemas = NULL;

	mov	DWORD PTR [esi+116], edi

; 4435 :     return(0);
; 4436 : }

	or	eax, -1
	pop	edi
	pop	esi
	pop	ebx
	pop	ebp
	ret	0
_xmlTextReaderRelaxNGValidateInternal ENDP
_TEXT	ENDS
; Function compile flags: /Ogtp
; File c:\users\dag\documents\_clients\codeproject authors group\windows on arm\libxml2\libxml2-2.9.9\xmlreader.c
;	COMDAT _xmlTextReaderLocator
_TEXT	SEGMENT
_ctx$ = 8						; size = 4
_file$ = 12						; size = 4
_line$ = 16						; size = 4
_xmlTextReaderLocator PROC				; COMDAT

; 4206 : xmlTextReaderLocator(void *ctx, const char **file, unsigned long *line) {

	push	ebp
	mov	ebp, esp
	push	ebx
	push	esi
	push	edi
	mov	ecx, OFFSET __BC13D883_xmlreader@c
	call	@__CheckForDebuggerJustMyCode@4
	mov	ebx, DWORD PTR _ctx$[ebp]
	test	ebx, ebx
	je	SHORT $LN3@xmlTextRea

; 4207 :     xmlTextReaderPtr reader;
; 4208 : 
; 4209 :     if ((ctx == NULL) || ((file == NULL) && (line == NULL)))

	mov	edi, DWORD PTR _file$[ebp]
	mov	esi, DWORD PTR _line$[ebp]
	test	edi, edi
	jne	SHORT $LN17@xmlTextRea
	test	esi, esi
	jne	SHORT $LN18@xmlTextRea
$LN3@xmlTextRea:
	pop	edi

; 4244 :     }
; 4245 :     return(-1);
; 4246 : }

	pop	esi
	or	eax, -1
	pop	ebx
	pop	ebp
	ret	0
$LN17@xmlTextRea:

; 4210 :         return(-1);
; 4211 : 
; 4212 :     if (file != NULL)
; 4213 :         *file = NULL;

	mov	DWORD PTR [edi], 0

; 4214 :     if (line != NULL)

	test	esi, esi
	je	SHORT $LN5@xmlTextRea
$LN18@xmlTextRea:

; 4215 :         *line = 0;

	mov	DWORD PTR [esi], 0
$LN5@xmlTextRea:

; 4216 : 
; 4217 :     reader = (xmlTextReaderPtr) ctx;
; 4218 :     if ((reader->ctxt != NULL) && (reader->ctxt->input != NULL)) {

	mov	eax, DWORD PTR [ebx+20]
	test	eax, eax
	je	SHORT $LN6@xmlTextRea
	mov	eax, DWORD PTR [eax+36]
	test	eax, eax
	je	SHORT $LN6@xmlTextRea

; 4219 : 	if (file != NULL)

	test	edi, edi
	je	SHORT $LN7@xmlTextRea

; 4220 : 	    *file = reader->ctxt->input->filename;

	mov	eax, DWORD PTR [eax+4]
	mov	DWORD PTR [edi], eax
$LN7@xmlTextRea:

; 4221 : 	if (line != NULL)

	test	esi, esi
	je	SHORT $LN8@xmlTextRea

; 4222 : 	    *line = reader->ctxt->input->line;

	mov	eax, DWORD PTR [ebx+20]
	mov	eax, DWORD PTR [eax+36]
	mov	eax, DWORD PTR [eax+28]
	mov	DWORD PTR [esi], eax
$LN8@xmlTextRea:

; 4244 :     }
; 4245 :     return(-1);
; 4246 : }

	pop	edi
	pop	esi
	xor	eax, eax
	pop	ebx
	pop	ebp
	ret	0
$LN6@xmlTextRea:

; 4223 : 	return(0);
; 4224 :     }
; 4225 :     if (reader->node != NULL) {

	mov	eax, DWORD PTR [ebx+64]
	test	eax, eax
	je	SHORT $LN3@xmlTextRea

; 4226 :         long res;
; 4227 : 	int ret = 0;

	xor	ecx, ecx

; 4228 : 
; 4229 : 	if (line != NULL) {

	test	esi, esi
	je	SHORT $LN12@xmlTextRea

; 4230 : 	    res = xmlGetLineNo(reader->node);

	push	eax
	call	_xmlGetLineNo
	add	esp, 4

; 4231 : 	    if (res > 0)

	test	eax, eax
	jle	SHORT $LN11@xmlTextRea

; 4232 : 	        *line = (unsigned long) res;

	mov	DWORD PTR [esi], eax
	xor	ecx, ecx
	jmp	SHORT $LN12@xmlTextRea
$LN11@xmlTextRea:

; 4233 : 	    else
; 4234 :                 ret = -1;

	or	ecx, -1
$LN12@xmlTextRea:

; 4235 : 	}
; 4236 :         if (file != NULL) {

	test	edi, edi
	je	SHORT $LN15@xmlTextRea

; 4237 : 	    xmlDocPtr doc = reader->node->doc;

	mov	eax, DWORD PTR [ebx+64]
	mov	eax, DWORD PTR [eax+32]

; 4238 : 	    if ((doc != NULL) && (doc->URL != NULL))

	test	eax, eax
	je	SHORT $LN14@xmlTextRea
	mov	eax, DWORD PTR [eax+72]
	test	eax, eax
	je	SHORT $LN14@xmlTextRea

; 4239 : 	        *file = (const char *) doc->URL;

	mov	DWORD PTR [edi], eax

; 4242 : 	}
; 4243 : 	return(ret);

	mov	eax, ecx
	pop	edi

; 4244 :     }
; 4245 :     return(-1);
; 4246 : }

	pop	esi
	pop	ebx
	pop	ebp
	ret	0
$LN14@xmlTextRea:

; 4240 : 	    else
; 4241 :                 ret = -1;

	or	ecx, -1
$LN15@xmlTextRea:
	pop	edi

; 4244 :     }
; 4245 :     return(-1);
; 4246 : }

	pop	esi
	mov	eax, ecx
	pop	ebx
	pop	ebp
	ret	0
_xmlTextReaderLocator ENDP
_TEXT	ENDS
; Function compile flags: /Ogtp
; File c:\users\dag\documents\_clients\codeproject authors group\windows on arm\libxml2\libxml2-2.9.9\xmlreader.c
;	COMDAT _xmlTextReaderValidityStructuredRelay
_TEXT	SEGMENT
_userData$ = 8						; size = 4
_error$ = 12						; size = 4
_xmlTextReaderValidityStructuredRelay PROC		; COMDAT

; 4122 : {

	push	ebp
	mov	ebp, esp
	mov	ecx, OFFSET __BC13D883_xmlreader@c
	call	@__CheckForDebuggerJustMyCode@4
	mov	eax, DWORD PTR _userData$[ebp]
	mov	ecx, DWORD PTR [eax+192]
	test	ecx, ecx
	je	SHORT $LN2@xmlTextRea

; 4123 :     xmlTextReaderPtr reader = (xmlTextReaderPtr) userData;
; 4124 : 
; 4125 :     if (reader->sErrorFunc) {
; 4126 :         reader->sErrorFunc(reader->errorFuncArg, error);

	push	DWORD PTR _error$[ebp]
	push	DWORD PTR [eax+112]
	call	ecx

; 4127 :     } else {
; 4128 :         xmlTextReaderStructuredError(reader, error);
; 4129 :     }
; 4130 : }

	add	esp, 8
	pop	ebp
	ret	0
$LN2@xmlTextRea:

; 4858 :     if (error && reader->sErrorFunc) {

	mov	ecx, DWORD PTR _error$[ebp]
	test	ecx, ecx
	je	SHORT $LN6@xmlTextRea
	mov	eax, DWORD PTR [eax+272]
	mov	edx, DWORD PTR [eax+192]
	test	edx, edx
	je	SHORT $LN6@xmlTextRea

; 4859 :         reader->sErrorFunc(reader->errorFuncArg, (xmlErrorPtr) error);

	push	ecx
	push	DWORD PTR [eax+112]
	call	edx

; 4127 :     } else {
; 4128 :         xmlTextReaderStructuredError(reader, error);
; 4129 :     }
; 4130 : }

	add	esp, 8
$LN6@xmlTextRea:
	pop	ebp
	ret	0
_xmlTextReaderValidityStructuredRelay ENDP
_TEXT	ENDS
; Function compile flags: /Ogtp
; File c:\users\dag\documents\_clients\codeproject authors group\windows on arm\libxml2\libxml2-2.9.9\xmlreader.c
;	COMDAT _xmlTextReaderStructuredError
_TEXT	SEGMENT
_ctxt$ = 8						; size = 4
_error$ = 12						; size = 4
_xmlTextReaderStructuredError PROC			; COMDAT

; 4853 : {

	push	ebp
	mov	ebp, esp
	mov	ecx, OFFSET __BC13D883_xmlreader@c
	call	@__CheckForDebuggerJustMyCode@4
	mov	ecx, DWORD PTR _error$[ebp]
	test	ecx, ecx
	je	SHORT $LN2@xmlTextRea

; 4854 :     xmlParserCtxtPtr ctx = (xmlParserCtxtPtr) ctxt;
; 4855 : 
; 4856 :     xmlTextReaderPtr reader = (xmlTextReaderPtr) ctx->_private;

	mov	eax, DWORD PTR _ctxt$[ebp]
	mov	eax, DWORD PTR [eax+272]

; 4857 : 
; 4858 :     if (error && reader->sErrorFunc) {

	mov	edx, DWORD PTR [eax+192]
	test	edx, edx
	je	SHORT $LN2@xmlTextRea

; 4859 :         reader->sErrorFunc(reader->errorFuncArg, (xmlErrorPtr) error);

	push	ecx
	push	DWORD PTR [eax+112]
	call	edx
	add	esp, 8
$LN2@xmlTextRea:

; 4860 :     }
; 4861 : }

	pop	ebp
	ret	0
_xmlTextReaderStructuredError ENDP
_TEXT	ENDS
; Function compile flags: /Ogtp
; File c:\users\dag\documents\_clients\codeproject authors group\windows on arm\libxml2\libxml2-2.9.9\xmlreader.c
;	COMDAT _xmlTextReaderValidityWarningRelay
_TEXT	SEGMENT
_ctx$ = 8						; size = 4
_msg$ = 12						; size = 4
_xmlTextReaderValidityWarningRelay PROC			; COMDAT

; 4096 : {

	push	ebp
	mov	ebp, esp
	push	esi
	mov	ecx, OFFSET __BC13D883_xmlreader@c
	call	@__CheckForDebuggerJustMyCode@4
	lea	eax, DWORD PTR _msg$[ebp+4]
	push	eax
	push	DWORD PTR _msg$[ebp]
	call	_xmlTextReaderBuildMessage
	mov	esi, eax
	add	esp, 8
	mov	eax, DWORD PTR _ctx$[ebp]
	mov	ecx, DWORD PTR [eax+108]
	test	ecx, ecx
	jne	SHORT $LN2@xmlTextRea

; 4097 :     xmlTextReaderPtr reader = (xmlTextReaderPtr) ctx;
; 4098 : 
; 4099 :     char *str;
; 4100 : 
; 4101 :     va_list ap;
; 4102 : 
; 4103 :     va_start(ap, msg);
; 4104 :     str = xmlTextReaderBuildMessage(msg, ap);
; 4105 :     if (!reader->errorFunc) {
; 4106 :         xmlTextReaderValidityWarning(ctx, "%s", str);

	push	esi
	push	OFFSET ??_C@_02DKCKIIND@?$CFs@
	push	eax
	call	_xmlTextReaderValidityWarning
	add	esp, 12					; 0000000cH

; 4107 :     } else {

	jmp	SHORT $LN3@xmlTextRea
$LN2@xmlTextRea:

; 4108 :         reader->errorFunc(reader->errorFuncArg, str,

	push	0
	push	1
	push	esi
	push	DWORD PTR [eax+112]
	call	ecx
	add	esp, 16					; 00000010H
$LN3@xmlTextRea:

; 4109 :                           XML_PARSER_SEVERITY_VALIDITY_WARNING,
; 4110 :                           NULL /* locator */ );
; 4111 :     }
; 4112 :     if (str != NULL)

	test	esi, esi
	je	SHORT $LN4@xmlTextRea

; 4113 :         xmlFree(str);

	push	esi
	call	DWORD PTR _xmlFree
	add	esp, 4
$LN4@xmlTextRea:
	pop	esi

; 4114 :     va_end(ap);
; 4115 : }

	pop	ebp
	ret	0
_xmlTextReaderValidityWarningRelay ENDP
_TEXT	ENDS
; Function compile flags: /Ogtp
; File c:\users\dag\documents\_clients\codeproject authors group\windows on arm\libxml2\libxml2-2.9.9\xmlreader.c
;	COMDAT _xmlTextReaderValidityErrorRelay
_TEXT	SEGMENT
_ctx$ = 8						; size = 4
_msg$ = 12						; size = 4
_xmlTextReaderValidityErrorRelay PROC			; COMDAT

; 4073 : {

	push	ebp
	mov	ebp, esp
	push	esi
	mov	ecx, OFFSET __BC13D883_xmlreader@c
	call	@__CheckForDebuggerJustMyCode@4
	lea	eax, DWORD PTR _msg$[ebp+4]
	push	eax
	push	DWORD PTR _msg$[ebp]
	call	_xmlTextReaderBuildMessage
	mov	esi, eax
	add	esp, 8
	mov	eax, DWORD PTR _ctx$[ebp]
	mov	ecx, DWORD PTR [eax+108]
	test	ecx, ecx
	jne	SHORT $LN2@xmlTextRea

; 4074 :     xmlTextReaderPtr reader = (xmlTextReaderPtr) ctx;
; 4075 : 
; 4076 :     char *str;
; 4077 : 
; 4078 :     va_list ap;
; 4079 : 
; 4080 :     va_start(ap, msg);
; 4081 :     str = xmlTextReaderBuildMessage(msg, ap);
; 4082 :     if (!reader->errorFunc) {
; 4083 :         xmlTextReaderValidityError(ctx, "%s", str);

	push	esi
	push	OFFSET ??_C@_02DKCKIIND@?$CFs@
	push	eax
	call	_xmlTextReaderValidityError
	add	esp, 12					; 0000000cH

; 4084 :     } else {

	jmp	SHORT $LN3@xmlTextRea
$LN2@xmlTextRea:

; 4085 :         reader->errorFunc(reader->errorFuncArg, str,

	push	0
	push	2
	push	esi
	push	DWORD PTR [eax+112]
	call	ecx
	add	esp, 16					; 00000010H
$LN3@xmlTextRea:

; 4086 :                           XML_PARSER_SEVERITY_VALIDITY_ERROR,
; 4087 :                           NULL /* locator */ );
; 4088 :     }
; 4089 :     if (str != NULL)

	test	esi, esi
	je	SHORT $LN4@xmlTextRea

; 4090 :         xmlFree(str);

	push	esi
	call	DWORD PTR _xmlFree
	add	esp, 4
$LN4@xmlTextRea:
	pop	esi

; 4091 :     va_end(ap);
; 4092 : }

	pop	ebp
	ret	0
_xmlTextReaderValidityErrorRelay ENDP
_TEXT	ENDS
; Function compile flags: /Ogtp
; File c:\users\dag\documents\_clients\codeproject authors group\windows on arm\libxml2\libxml2-2.9.9\xmlreader.c
;	COMDAT _xmlTextReaderValidityWarning
_TEXT	SEGMENT
_ctxt$ = 8						; size = 4
_msg$ = 12						; size = 4
_xmlTextReaderValidityWarning PROC			; COMDAT

; 4910 : {

	push	ebp
	mov	ebp, esp
	mov	ecx, OFFSET __BC13D883_xmlreader@c
	call	@__CheckForDebuggerJustMyCode@4
	push	DWORD PTR _msg$[ebp]
	call	_xmlStrlen
	add	esp, 4
	test	eax, eax
	je	SHORT $LN5@xmlTextRea

; 4911 :     va_list ap;
; 4912 : 
; 4913 :     int len = xmlStrlen((const xmlChar *) msg);
; 4914 : 
; 4915 :     if ((len != 0) && (msg[len - 1] != ':')) {

	mov	ecx, DWORD PTR _msg$[ebp]
	cmp	BYTE PTR [eax+ecx-1], 58		; 0000003aH
	je	SHORT $LN5@xmlTextRea

; 4916 :         /*
; 4917 :          * some callbacks only report locator information:
; 4918 :          * skip them (mimicking behaviour in error.c)
; 4919 :          */
; 4920 :         va_start(ap, msg);
; 4921 :         xmlTextReaderGenericError(ctxt,

	push	esi
	lea	eax, DWORD PTR _msg$[ebp+4]
	push	eax
	push	ecx
	call	_xmlTextReaderBuildMessage
	mov	esi, eax
	add	esp, 8

; 4843 :     if (str != NULL) {

	test	esi, esi
	je	SHORT $LN8@xmlTextRea

; 4841 :     xmlTextReaderPtr reader = (xmlTextReaderPtr) ctx->_private;

	mov	eax, DWORD PTR _ctxt$[ebp]
	mov	ecx, DWORD PTR [eax+272]

; 4844 :         if (reader->errorFunc)

	mov	edx, DWORD PTR [ecx+108]
	test	edx, edx
	je	SHORT $LN6@xmlTextRea

; 4845 :             reader->errorFunc(reader->errorFuncArg, str, severity,

	push	eax
	push	1
	push	esi
	push	DWORD PTR [ecx+112]
	call	edx
	add	esp, 16					; 00000010H
$LN6@xmlTextRea:

; 4846 :                               (xmlTextReaderLocatorPtr) ctx);
; 4847 :         xmlFree(str);

	push	esi
	call	DWORD PTR _xmlFree
	add	esp, 4
$LN8@xmlTextRea:
	pop	esi
$LN5@xmlTextRea:

; 4922 :                                   XML_PARSER_SEVERITY_VALIDITY_WARNING,
; 4923 :                                   xmlTextReaderBuildMessage(msg, ap));
; 4924 :         va_end(ap);
; 4925 :     }
; 4926 : }

	pop	ebp
	ret	0
_xmlTextReaderValidityWarning ENDP
_TEXT	ENDS
; Function compile flags: /Ogtp
; File c:\users\dag\documents\_clients\codeproject authors group\windows on arm\libxml2\libxml2-2.9.9\xmlreader.c
;	COMDAT _xmlTextReaderValidityError
_TEXT	SEGMENT
_ctxt$ = 8						; size = 4
_msg$ = 12						; size = 4
_xmlTextReaderValidityError PROC			; COMDAT

; 4890 : {

	push	ebp
	mov	ebp, esp
	mov	ecx, OFFSET __BC13D883_xmlreader@c
	call	@__CheckForDebuggerJustMyCode@4
	push	DWORD PTR _msg$[ebp]
	call	_xmlStrlen
	add	esp, 4
	cmp	eax, 1
	jle	SHORT $LN5@xmlTextRea

; 4891 :     va_list ap;
; 4892 : 
; 4893 :     int len = xmlStrlen((const xmlChar *) msg);
; 4894 : 
; 4895 :     if ((len > 1) && (msg[len - 2] != ':')) {

	mov	ecx, DWORD PTR _msg$[ebp]
	cmp	BYTE PTR [eax+ecx-2], 58		; 0000003aH
	je	SHORT $LN5@xmlTextRea

; 4896 :         /*
; 4897 :          * some callbacks only report locator information:
; 4898 :          * skip them (mimicking behaviour in error.c)
; 4899 :          */
; 4900 :         va_start(ap, msg);
; 4901 :         xmlTextReaderGenericError(ctxt,

	push	esi
	lea	eax, DWORD PTR _msg$[ebp+4]
	push	eax
	push	ecx
	call	_xmlTextReaderBuildMessage
	mov	esi, eax
	add	esp, 8

; 4843 :     if (str != NULL) {

	test	esi, esi
	je	SHORT $LN8@xmlTextRea

; 4841 :     xmlTextReaderPtr reader = (xmlTextReaderPtr) ctx->_private;

	mov	eax, DWORD PTR _ctxt$[ebp]
	mov	ecx, DWORD PTR [eax+272]

; 4844 :         if (reader->errorFunc)

	mov	edx, DWORD PTR [ecx+108]
	test	edx, edx
	je	SHORT $LN6@xmlTextRea

; 4845 :             reader->errorFunc(reader->errorFuncArg, str, severity,

	push	eax
	push	2
	push	esi
	push	DWORD PTR [ecx+112]
	call	edx
	add	esp, 16					; 00000010H
$LN6@xmlTextRea:

; 4846 :                               (xmlTextReaderLocatorPtr) ctx);
; 4847 :         xmlFree(str);

	push	esi
	call	DWORD PTR _xmlFree
	add	esp, 4
$LN8@xmlTextRea:
	pop	esi
$LN5@xmlTextRea:

; 4902 :                                   XML_PARSER_SEVERITY_VALIDITY_ERROR,
; 4903 :                                   xmlTextReaderBuildMessage(msg, ap));
; 4904 :         va_end(ap);
; 4905 :     }
; 4906 : }

	pop	ebp
	ret	0
_xmlTextReaderValidityError ENDP
_TEXT	ENDS
; Function compile flags: /Ogtp
; File c:\users\dag\documents\_clients\codeproject authors group\windows on arm\libxml2\libxml2-2.9.9\xmlreader.c
; File c:\program files (x86)\windows kits\10\include\10.0.17763.0\ucrt\stdio.h
; File c:\users\dag\documents\_clients\codeproject authors group\windows on arm\libxml2\libxml2-2.9.9\xmlreader.c
; File c:\program files (x86)\windows kits\10\include\10.0.17763.0\ucrt\stdio.h
; File c:\users\dag\documents\_clients\codeproject authors group\windows on arm\libxml2\libxml2-2.9.9\xmlreader.c
;	COMDAT _xmlTextReaderBuildMessage
_TEXT	SEGMENT
_msg$ = 8						; size = 4
_ap$ = 12						; size = 4
_xmlTextReaderBuildMessage PROC				; COMDAT

; 4727 : xmlTextReaderBuildMessage(const char *msg, va_list ap) {

	push	ebp
	mov	ebp, esp
	push	ebx
	push	esi
	push	edi
	mov	ecx, OFFSET __BC13D883_xmlreader@c
	call	@__CheckForDebuggerJustMyCode@4
	xor	esi, esi
	xor	edi, edi
; File c:\program files (x86)\windows kits\10\include\10.0.17763.0\ucrt\stdio.h

; 1440 :         int const _Result = __stdio_common_vsprintf(

	call	___local_stdio_printf_options
	push	DWORD PTR _ap$[ebp]
	mov	ecx, eax
	push	edi
	push	DWORD PTR _msg$[ebp]
	mov	eax, DWORD PTR [ecx]
	push	edi
	push	edi
	push	DWORD PTR [ecx+4]
	or	eax, 2
	push	eax
	call	DWORD PTR __imp____stdio_common_vsprintf

; 1441 :             _CRT_INTERNAL_LOCAL_PRINTF_OPTIONS | _CRT_INTERNAL_PRINTF_STANDARD_SNPRINTF_BEHAVIOR,
; 1442 :             _Buffer, _BufferCount, _Format, NULL, _ArgList);
; 1443 : 
; 1444 :         return _Result < 0 ? -1 : _Result;

	or	ecx, -1
	add	esp, 28					; 0000001cH
	test	eax, eax
	cmovs	eax, ecx
; File c:\users\dag\documents\_clients\codeproject authors group\windows on arm\libxml2\libxml2-2.9.9\xmlreader.c

; 4738 :         if (chars < 0) {

	test	eax, eax
	js	SHORT $LN16@xmlTextRea
$LL2@xmlTextRea:

; 4740 : 	    if (str)
; 4741 : 		xmlFree(str);
; 4742 : 	    return NULL;
; 4743 : 	}
; 4744 : 	if ((chars < size) || (size == MAX_ERR_MSG_SIZE))

	cmp	eax, esi
	jl	$LN7@xmlTextRea
	cmp	esi, 64000				; 0000fa00H
	je	$LN7@xmlTextRea

; 4745 :             break;
; 4746 :         if (chars < MAX_ERR_MSG_SIZE)
; 4747 : 	size = chars + 1;

	lea	esi, DWORD PTR [eax+1]
	cmp	eax, 64000				; 0000fa00H
	jl	SHORT $LN9@xmlTextRea

; 4748 : 	else
; 4749 : 		size = MAX_ERR_MSG_SIZE;

	mov	esi, 64000				; 0000fa00H
$LN9@xmlTextRea:

; 4750 :         if ((larger = (char *) xmlRealloc(str, size)) == NULL) {

	push	esi
	push	edi
	call	DWORD PTR _xmlRealloc
	mov	ebx, eax
	add	esp, 8
	test	ebx, ebx
	je	SHORT $LN18@xmlTextRea

; 4755 :         }
; 4756 :         str = larger;

	mov	edi, ebx
; File c:\program files (x86)\windows kits\10\include\10.0.17763.0\ucrt\stdio.h

; 1440 :         int const _Result = __stdio_common_vsprintf(

	call	___local_stdio_printf_options
	push	DWORD PTR _ap$[ebp]
	mov	ecx, eax
	push	0
	push	DWORD PTR _msg$[ebp]
	mov	eax, DWORD PTR [ecx]
	push	esi
	push	ebx
	push	DWORD PTR [ecx+4]
	or	eax, 2
	push	eax
	call	DWORD PTR __imp____stdio_common_vsprintf
	add	esp, 28					; 0000001cH

; 1441 :             _CRT_INTERNAL_LOCAL_PRINTF_OPTIONS | _CRT_INTERNAL_PRINTF_STANDARD_SNPRINTF_BEHAVIOR,
; 1442 :             _Buffer, _BufferCount, _Format, NULL, _ArgList);
; 1443 : 
; 1444 :         return _Result < 0 ? -1 : _Result;

	mov	ecx, -1
	test	eax, eax
	cmovs	eax, ecx
; File c:\users\dag\documents\_clients\codeproject authors group\windows on arm\libxml2\libxml2-2.9.9\xmlreader.c

; 4738 :         if (chars < 0) {

	test	eax, eax
	jns	SHORT $LL2@xmlTextRea
$LN16@xmlTextRea:

; 4739 : 	    xmlGenericError(xmlGenericErrorContext, "vsnprintf failed !\n");

	call	___xmlGenericError
	mov	esi, eax
	call	___xmlGenericErrorContext
	push	OFFSET ??_C@_0BE@KJPJIHAO@vsnprintf?5failed?5?$CB?6@
$LN23@xmlTextRea:

; 4754 :             return NULL;

	push	DWORD PTR [eax]
	mov	eax, DWORD PTR [esi]
	call	eax
	add	esp, 8
	test	edi, edi
	je	SHORT $LN11@xmlTextRea
	push	edi
	call	DWORD PTR _xmlFree
	add	esp, 4
$LN11@xmlTextRea:

; 4760 : }

	pop	edi
	pop	esi
	xor	eax, eax
	pop	ebx
	pop	ebp
	ret	0
$LN18@xmlTextRea:

; 4751 : 	    xmlGenericError(xmlGenericErrorContext, "xmlRealloc failed !\n");

	call	___xmlGenericError
	mov	esi, eax
	call	___xmlGenericErrorContext
	push	OFFSET ??_C@_0BF@DCPGEBNC@xmlRealloc?5failed?5?$CB?6@

; 4752 : 	    if (str)
; 4753 :                 xmlFree(str);

	jmp	SHORT $LN23@xmlTextRea
$LN7@xmlTextRea:

; 4757 :     }
; 4758 : 
; 4759 :     return str;

	mov	eax, edi
	pop	edi

; 4760 : }

	pop	esi
	pop	ebx
	pop	ebp
	ret	0
_xmlTextReaderBuildMessage ENDP
_TEXT	ENDS
; Function compile flags: /Ogtp
; File c:\users\dag\documents\_clients\codeproject authors group\windows on arm\libxml2\libxml2-2.9.9\xmlreader.c
;	COMDAT _xmlTextReaderCollectSiblings
_TEXT	SEGMENT
_node$ = 8						; size = 4
_xmlTextReaderCollectSiblings PROC			; COMDAT

; 1245 : {

	push	ebp
	mov	ebp, esp
	push	ebx
	push	esi
	mov	ecx, OFFSET __BC13D883_xmlreader@c
	call	@__CheckForDebuggerJustMyCode@4
	mov	esi, DWORD PTR _node$[ebp]
	test	esi, esi
	je	SHORT $LN8@xmlTextRea

; 1246 :     xmlBufferPtr buffer;
; 1247 :     xmlChar *ret;
; 1248 : 
; 1249 :     if ((node == NULL) || (node->type == XML_NAMESPACE_DECL))

	cmp	DWORD PTR [esi+4], 18			; 00000012H
	je	SHORT $LN8@xmlTextRea

; 1251 : 
; 1252 :     buffer = xmlBufferCreate();

	call	_xmlBufferCreate
	mov	ebx, eax

; 1253 :     if (buffer == NULL)

	test	ebx, ebx
	je	SHORT $LN8@xmlTextRea
	push	edi
$LL18@xmlTextRea:

; 1257 :        switch (node->type) {

	mov	eax, DWORD PTR [esi+4]
	cmp	eax, 1
	je	SHORT $LN11@xmlTextRea
	add	eax, -3					; fffffffdH
	cmp	eax, 1
	ja	SHORT $LN2@xmlTextRea

; 1258 :        case XML_TEXT_NODE:
; 1259 :        case XML_CDATA_SECTION_NODE:
; 1260 :            xmlBufferCat(buffer, node->content);

	push	DWORD PTR [esi+40]
	push	ebx
	call	_xmlBufferCat
	add	esp, 8

; 1261 :            break;

	jmp	SHORT $LN2@xmlTextRea
$LN11@xmlTextRea:

; 1262 :        case XML_ELEMENT_NODE: {
; 1263 :            xmlChar *tmp;
; 1264 : 
; 1265 : 	   tmp = xmlTextReaderCollectSiblings(node->children);

	push	DWORD PTR [esi+12]
	call	_xmlTextReaderCollectSiblings
	mov	edi, eax

; 1266 :            xmlBufferCat(buffer, tmp);

	push	edi
	push	ebx
	call	_xmlBufferCat

; 1267 : 	   xmlFree(tmp);

	push	edi
	call	DWORD PTR _xmlFree
	add	esp, 16					; 00000010H
$LN2@xmlTextRea:

; 1254 :        return NULL;
; 1255 : 
; 1256 :     for ( ; node != NULL; node = node->next) {

	mov	esi, DWORD PTR [esi+24]
	test	esi, esi
	jne	SHORT $LL18@xmlTextRea

; 1268 : 	   break;
; 1269 :        }
; 1270 :        default:
; 1271 :            break;
; 1272 :        }
; 1273 :     }
; 1274 :     ret = buffer->content;

	mov	esi, DWORD PTR [ebx]

; 1275 :     buffer->content = NULL;
; 1276 :     xmlBufferFree(buffer);

	push	ebx
	mov	DWORD PTR [ebx], 0
	call	_xmlBufferFree
	add	esp, 4

; 1277 :     return(ret);

	mov	eax, esi
	pop	edi
	pop	esi

; 1278 : }

	pop	ebx
	pop	ebp
	ret	0
$LN8@xmlTextRea:
	pop	esi

; 1250 :         return(NULL);

	xor	eax, eax

; 1278 : }

	pop	ebx
	pop	ebp
	ret	0
_xmlTextReaderCollectSiblings ENDP
_TEXT	ENDS
; Function compile flags: /Ogtp
; File c:\users\dag\documents\_clients\codeproject authors group\windows on arm\libxml2\libxml2-2.9.9\xmlreader.c
;	COMDAT _xmlTextReaderDoExpand
_TEXT	SEGMENT
_reader$ = 8						; size = 4
_xmlTextReaderDoExpand PROC				; COMDAT

; 1210 : xmlTextReaderDoExpand(xmlTextReaderPtr reader) {

	push	ebp
	mov	ebp, esp
	push	esi
	mov	ecx, OFFSET __BC13D883_xmlreader@c
	call	@__CheckForDebuggerJustMyCode@4
	mov	esi, DWORD PTR _reader$[ebp]
	test	esi, esi
	je	SHORT $LN6@xmlTextRea

; 1211 :     int val;
; 1212 : 
; 1213 :     if ((reader == NULL) || (reader->node == NULL) || (reader->ctxt == NULL))

	cmp	DWORD PTR [esi+64], 0
	je	SHORT $LN6@xmlTextRea
	cmp	DWORD PTR [esi+20], 0
	je	SHORT $LN6@xmlTextRea
$LL4@xmlTextRea:

; 1214 :         return(-1);
; 1215 :     do {
; 1216 : 	if (reader->ctxt->instate == XML_PARSER_EOF) return(1);

	mov	ecx, DWORD PTR [esi+20]
	cmp	DWORD PTR [ecx+172], -1
	je	SHORT $LN30@xmlTextRea

; 1217 : 
; 1218 :         if (xmlTextReaderGetSuccessor(reader->node) != NULL)

	mov	eax, DWORD PTR [esi+64]

; 1188 :     if (cur == NULL) return(NULL) ; /* ERROR */

	test	eax, eax
	je	SHORT $LN15@xmlTextRea

; 1189 :     if (cur->next != NULL) return(cur->next) ;

	cmp	DWORD PTR [eax+24], 0
	jne	SHORT $LN30@xmlTextRea
	npad	6
$LL16@xmlTextRea:

; 1190 :     do {
; 1191 :         cur = cur->parent;

	mov	eax, DWORD PTR [eax+20]

; 1192 :         if (cur == NULL) break;

	test	eax, eax
	je	SHORT $LN15@xmlTextRea

; 1193 :         if (cur->next != NULL) return(cur->next);

	cmp	DWORD PTR [eax+24], 0
	je	SHORT $LL16@xmlTextRea

; 1230 :     return(1);
; 1231 : }

	mov	eax, 1
	pop	esi
	pop	ebp
	ret	0
$LN15@xmlTextRea:

; 1219 : 	    return(1);
; 1220 : 	if (reader->ctxt->nodeNr < reader->depth)

	mov	eax, DWORD PTR [ecx+56]
	cmp	eax, DWORD PTR [esi+72]
	jl	SHORT $LN30@xmlTextRea

; 1221 : 	    return(1);
; 1222 : 	if (reader->mode == XML_TEXTREADER_MODE_EOF)

	cmp	DWORD PTR [esi], 3
	je	SHORT $LN30@xmlTextRea

; 1223 : 	    return(1);
; 1224 : 	val = xmlTextReaderPushData(reader);

	push	esi
	call	_xmlTextReaderPushData
	add	esp, 4

; 1225 : 	if (val < 0){

	test	eax, eax
	js	SHORT $LN31@xmlTextRea

; 1227 : 	    return(-1);
; 1228 : 	}
; 1229 :     } while(reader->mode != XML_TEXTREADER_MODE_EOF);

	cmp	DWORD PTR [esi], 3
	jne	SHORT $LL4@xmlTextRea
$LN30@xmlTextRea:

; 1230 :     return(1);
; 1231 : }

	mov	eax, 1
	pop	esi
	pop	ebp
	ret	0
$LN31@xmlTextRea:

; 1226 : 	    reader->mode = XML_TEXTREADER_MODE_ERROR;

	mov	DWORD PTR [esi], 2
$LN6@xmlTextRea:

; 1230 :     return(1);
; 1231 : }

	or	eax, -1
	pop	esi
	pop	ebp
	ret	0
_xmlTextReaderDoExpand ENDP
_TEXT	ENDS
; Function compile flags: /Ogtp
; File c:\users\dag\documents\_clients\codeproject authors group\windows on arm\libxml2\libxml2-2.9.9\xmlreader.c
;	COMDAT _xmlTextReaderGetSuccessor
_TEXT	SEGMENT
_cur$ = 8						; size = 4
_xmlTextReaderGetSuccessor PROC				; COMDAT

; 1187 : xmlTextReaderGetSuccessor(xmlNodePtr cur) {

	push	ebp
	mov	ebp, esp
	mov	ecx, OFFSET __BC13D883_xmlreader@c
	call	@__CheckForDebuggerJustMyCode@4
	mov	ecx, DWORD PTR _cur$[ebp]
	test	ecx, ecx
	je	SHORT $LN3@xmlTextRea

; 1188 :     if (cur == NULL) return(NULL) ; /* ERROR */
; 1189 :     if (cur->next != NULL) return(cur->next) ;

	mov	eax, DWORD PTR [ecx+24]
	test	eax, eax
	jne	SHORT $LN1@xmlTextRea
	npad	5
$LL4@xmlTextRea:

; 1190 :     do {
; 1191 :         cur = cur->parent;

	mov	ecx, DWORD PTR [ecx+20]

; 1192 :         if (cur == NULL) break;

	test	ecx, ecx
	je	SHORT $LN3@xmlTextRea

; 1193 :         if (cur->next != NULL) return(cur->next);

	mov	eax, DWORD PTR [ecx+24]
	test	eax, eax
	je	SHORT $LL4@xmlTextRea

; 1196 : }

	pop	ebp
	ret	0
$LN3@xmlTextRea:

; 1194 :     } while (cur != NULL);
; 1195 :     return(cur);

	xor	eax, eax
$LN1@xmlTextRea:

; 1196 : }

	pop	ebp
	ret	0
_xmlTextReaderGetSuccessor ENDP
_TEXT	ENDS
; Function compile flags: /Ogtp
; File c:\users\dag\documents\_clients\codeproject authors group\windows on arm\libxml2\libxml2-2.9.9\xmlreader.c
;	COMDAT _xmlTextReaderValidateEntity
_TEXT	SEGMENT
_ctxt$1$ = -4						; size = 4
_oldnode$1$ = 8						; size = 4
_reader$ = 8						; size = 4
_xmlTextReaderValidateEntity PROC			; COMDAT

; 1090 : xmlTextReaderValidateEntity(xmlTextReaderPtr reader) {

	push	ebp
	mov	ebp, esp
	push	ecx
	push	ebx
	mov	ebx, DWORD PTR _reader$[ebp]
	mov	ecx, OFFSET __BC13D883_xmlreader@c
	push	esi
	push	edi
	call	@__CheckForDebuggerJustMyCode@4
	mov	edi, DWORD PTR [ebx+64]
	mov	esi, edi
	mov	ecx, DWORD PTR [ebx+20]
	mov	DWORD PTR _oldnode$1$[ebp], edi
	mov	DWORD PTR _ctxt$1$[ebp], ecx
$LL4@xmlTextRea:

; 1091 :     xmlNodePtr oldnode = reader->node;
; 1092 :     xmlNodePtr node = reader->node;
; 1093 :     xmlParserCtxtPtr ctxt = reader->ctxt;
; 1094 : 
; 1095 :     do {
; 1096 : 	if (node->type == XML_ENTITY_REF_NODE) {

	mov	eax, DWORD PTR [esi+4]
	cmp	eax, 5
	jne	SHORT $LN10@xmlTextRea

; 1097 : 	    /*
; 1098 : 	     * Case where the underlying tree is not availble, lookup the entity
; 1099 : 	     * and walk it.
; 1100 : 	     */
; 1101 : 	    if ((node->children == NULL) && (ctxt->sax != NULL) &&

	mov	eax, DWORD PTR [esi+12]
	test	eax, eax
	jne	SHORT $LN76@xmlTextRea
	mov	eax, DWORD PTR [ecx]
	test	eax, eax
	je	SHORT $LN13@xmlTextRea
	mov	eax, DWORD PTR [eax+20]
	test	eax, eax
	je	SHORT $LN13@xmlTextRea

; 1102 : 		(ctxt->sax->getEntity != NULL)) {
; 1103 : 		node->children = (xmlNodePtr)

	push	DWORD PTR [esi+8]
	push	ecx
	call	eax
	add	esp, 8
	mov	DWORD PTR [esi+12], eax

; 1104 : 		    ctxt->sax->getEntity(ctxt, node->name);
; 1105 : 	    }
; 1106 : 
; 1107 : 	    if ((node->children != NULL) &&
; 1108 : 		(node->children->type == XML_ENTITY_DECL) &&

	test	eax, eax
	je	SHORT $LN13@xmlTextRea
$LN76@xmlTextRea:
	cmp	DWORD PTR [eax+4], 17			; 00000011H
	jne	SHORT $LN13@xmlTextRea
	cmp	DWORD PTR [eax+12], 0
	je	SHORT $LN13@xmlTextRea

; 1109 : 		(node->children->children != NULL)) {
; 1110 : 		xmlTextReaderEntPush(reader, node);

	push	esi
	push	ebx
	call	_xmlTextReaderEntPush

; 1111 : 		node = node->children->children;

	mov	eax, DWORD PTR [esi+12]
	add	esp, 8
	mov	esi, DWORD PTR [eax+12]

; 1112 : 		continue;

	jmp	$LN2@xmlTextRea
$LN13@xmlTextRea:

; 1113 : 	    } else {
; 1114 : 		/*
; 1115 : 		 * The error has probably be raised already.
; 1116 : 		 */
; 1117 : 		if (node == oldnode)

	cmp	esi, edi
	je	$LN32@xmlTextRea

; 1118 : 		    break;
; 1119 : 		node = node->next;

	mov	esi, DWORD PTR [esi+24]

; 1120 : 	    }

	jmp	SHORT $LN18@xmlTextRea
$LN10@xmlTextRea:

; 1121 : #ifdef LIBXML_REGEXP_ENABLED
; 1122 : 	} else if (node->type == XML_ELEMENT_NODE) {

	cmp	eax, 1
	jne	SHORT $LN16@xmlTextRea

; 1123 : 	    reader->node = node;
; 1124 : 	    xmlTextReaderValidatePush(reader);

	push	ebx
	mov	DWORD PTR [ebx+64], esi
	call	_xmlTextReaderValidatePush
	add	esp, 4
	jmp	SHORT $LN18@xmlTextRea
$LN16@xmlTextRea:

; 1125 : 	} else if ((node->type == XML_TEXT_NODE) ||

	cmp	eax, 3
	je	SHORT $LN19@xmlTextRea
	cmp	eax, 4
	jne	SHORT $LN18@xmlTextRea
$LN19@xmlTextRea:

; 1126 : 		   (node->type == XML_CDATA_SECTION_NODE)) {
; 1127 :             xmlTextReaderValidateCData(reader, node->content,

	push	DWORD PTR [esi+40]
	call	_xmlStrlen
	push	eax
	push	DWORD PTR [esi+40]
	push	ebx
	call	_xmlTextReaderValidateCData
	add	esp, 16					; 00000010H
$LN18@xmlTextRea:

; 1128 : 	                               xmlStrlen(node->content));
; 1129 : #endif
; 1130 : 	}
; 1131 : 
; 1132 : 	/*
; 1133 : 	 * go to next node
; 1134 : 	 */
; 1135 : 	if (node->children != NULL) {

	mov	eax, DWORD PTR [esi+12]
	test	eax, eax
	jne	$LN77@xmlTextRea

; 1136 : 	    node = node->children;
; 1137 : 	    continue;
; 1138 : 	} else if (node->type == XML_ELEMENT_NODE) {

	cmp	DWORD PTR [esi+4], 1
	jne	$LN22@xmlTextRea

; 1139 : 	    xmlTextReaderValidatePop(reader);

	push	ebx
	call	_xmlTextReaderValidatePop
	add	esp, 4

; 1140 : 	}
; 1141 : 	if (node->next != NULL) {
; 1142 : 	    node = node->next;
; 1143 : 	    continue;

	jmp	$LN22@xmlTextRea
$LL7@xmlTextRea:

; 1144 : 	}
; 1145 : 	do {
; 1146 : 	    node = node->parent;

	mov	esi, DWORD PTR [esi+20]

; 1147 : 	    if (node->type == XML_ELEMENT_NODE) {

	mov	eax, DWORD PTR [esi+4]
	cmp	eax, 1
	jne	SHORT $LN59@xmlTextRea

; 1148 : 	        xmlNodePtr tmp;
; 1149 : 		if (reader->entNr == 0) {

	cmp	DWORD PTR [ebx+96], 0
	jne	SHORT $LN26@xmlTextRea

; 1150 : 		    while ((tmp = node->last) != NULL) {

	mov	edi, DWORD PTR [esi+16]
	test	edi, edi
	je	SHORT $LN72@xmlTextRea
	npad	7
$LL8@xmlTextRea:

; 1151 : 			if ((tmp->extra & NODE_IS_PRESERVED) == 0) {

	test	BYTE PTR [edi+58], 2
	jne	SHORT $LN72@xmlTextRea

; 1152 : 			    xmlUnlinkNode(tmp);

	push	edi
	call	_xmlUnlinkNode

; 1153 : 			    xmlTextReaderFreeNode(reader, tmp);

	push	edi
	push	ebx
	call	_xmlTextReaderFreeNode
	mov	edi, DWORD PTR [esi+16]
	add	esp, 12					; 0000000cH
	test	edi, edi
	jne	SHORT $LL8@xmlTextRea
$LN72@xmlTextRea:

; 1154 : 			} else
; 1155 : 			    break;
; 1156 : 		    }
; 1157 : 		}
; 1158 : 		reader->node = node;

	mov	edi, DWORD PTR _oldnode$1$[ebp]
$LN26@xmlTextRea:

; 1159 : 		xmlTextReaderValidatePop(reader);

	push	ebx
	mov	DWORD PTR [ebx+64], esi
	call	_xmlTextReaderValidatePop
	mov	eax, DWORD PTR [esi+4]
	add	esp, 4
$LN59@xmlTextRea:

; 1160 : 	    }
; 1161 : 	    if ((node->type == XML_ENTITY_DECL) &&
; 1162 : 		(reader->ent != NULL) && (reader->ent->children == node)) {

	cmp	eax, 17					; 00000011H
	jne	SHORT $LN34@xmlTextRea
	mov	eax, DWORD PTR [ebx+92]
	test	eax, eax
	je	SHORT $LN34@xmlTextRea
	cmp	DWORD PTR [eax+12], esi
	jne	SHORT $LN34@xmlTextRea

; 643  :     if (reader->entNr <= 0)

	mov	eax, DWORD PTR [ebx+96]
	test	eax, eax
	jg	SHORT $LN35@xmlTextRea

; 644  :         return (NULL);

	xor	esi, esi
	jmp	SHORT $LN34@xmlTextRea
$LN35@xmlTextRea:

; 645  :     reader->entNr--;
; 646  :     if (reader->entNr > 0)

	mov	ecx, DWORD PTR [ebx+104]
	dec	eax
	mov	DWORD PTR [ebx+96], eax
	test	eax, eax
	jle	SHORT $LN36@xmlTextRea

; 647  :         reader->ent = reader->entTab[reader->entNr - 1];

	mov	edx, DWORD PTR [ecx+eax*4-4]
	jmp	SHORT $LN37@xmlTextRea
$LN36@xmlTextRea:

; 648  :     else
; 649  :         reader->ent = NULL;

	xor	edx, edx
$LN37@xmlTextRea:

; 650  :     ret = reader->entTab[reader->entNr];

	mov	DWORD PTR [ebx+92], edx
	mov	esi, DWORD PTR [ecx+eax*4]

; 651  :     reader->entTab[reader->entNr] = NULL;

	mov	DWORD PTR [ecx+eax*4], 0
$LN34@xmlTextRea:

; 1163 : 		node = xmlTextReaderEntPop(reader);
; 1164 : 	    }
; 1165 : 	    if (node == oldnode)

	cmp	esi, edi
	je	SHORT $LN2@xmlTextRea
$LN22@xmlTextRea:

; 1166 : 		break;
; 1167 : 	    if (node->next != NULL) {
; 1168 : 		node = node->next;
; 1169 : 		break;
; 1170 : 	    }
; 1171 : 	} while ((node != NULL) && (node != oldnode));
; 1172 :     } while ((node != NULL) && (node != oldnode));

	mov	eax, DWORD PTR [esi+24]
	test	eax, eax
	je	$LL7@xmlTextRea
$LN77@xmlTextRea:
	mov	esi, eax
$LN2@xmlTextRea:
	test	esi, esi
	je	SHORT $LN32@xmlTextRea
	cmp	esi, edi
	je	SHORT $LN32@xmlTextRea
	mov	ecx, DWORD PTR _ctxt$1$[ebp]
	jmp	$LL4@xmlTextRea
$LN32@xmlTextRea:

; 1173 :     reader->node = oldnode;
; 1174 : }

	mov	DWORD PTR [ebx+64], edi
	pop	edi
	pop	esi
	pop	ebx
	mov	esp, ebp
	pop	ebp
	ret	0
_xmlTextReaderValidateEntity ENDP
_TEXT	ENDS
; Function compile flags: /Ogtp
; File c:\users\dag\documents\_clients\codeproject authors group\windows on arm\libxml2\libxml2-2.9.9\xmlreader.c
;	COMDAT _xmlTextReaderValidatePop
_TEXT	SEGMENT
_qname$3$ = 8						; size = 4
_reader$ = 8						; size = 4
_xmlTextReaderValidatePop PROC				; COMDAT

; 1039 : xmlTextReaderValidatePop(xmlTextReaderPtr reader) {

	push	ebp
	mov	ebp, esp
	push	ebx
	push	edi
	mov	ecx, OFFSET __BC13D883_xmlreader@c
	call	@__CheckForDebuggerJustMyCode@4
	mov	edi, DWORD PTR _reader$[ebp]
	cmp	DWORD PTR [edi+8], 1
	mov	ebx, DWORD PTR [edi+64]
	jne	SHORT $LN6@xmlTextRea

; 1040 :     xmlNodePtr node = reader->node;
; 1041 : 
; 1042 : #ifdef LIBXML_VALID_ENABLED
; 1043 :     if ((reader->validate == XML_TEXTREADER_VALIDATE_DTD) &&
; 1044 :         (reader->ctxt != NULL) && (reader->ctxt->validate == 1)) {

	mov	eax, DWORD PTR [edi+20]
	test	eax, eax
	je	SHORT $LN6@xmlTextRea
	cmp	DWORD PTR [eax+104], 1
	jne	SHORT $LN6@xmlTextRea

; 1045 : 	if ((node->ns == NULL) || (node->ns->prefix == NULL)) {

	mov	ecx, DWORD PTR [ebx+36]
	push	esi
	test	ecx, ecx
	je	SHORT $LN5@xmlTextRea
	mov	ecx, DWORD PTR [ecx+12]
	test	ecx, ecx
	je	SHORT $LN5@xmlTextRea

; 1047 : 				    reader->ctxt->myDoc, node, node->name);
; 1048 : 	} else {
; 1049 : 	    /* TODO use the BuildQName interface */
; 1050 : 	    xmlChar *qname;
; 1051 : 
; 1052 : 	    qname = xmlStrdup(node->ns->prefix);

	push	ecx
	call	_xmlStrdup

; 1053 : 	    qname = xmlStrcat(qname, BAD_CAST ":");

	push	OFFSET ??_C@_01JLIPDDHJ@?3@
	push	eax
	call	_xmlStrcat

; 1054 : 	    qname = xmlStrcat(qname, node->name);

	push	DWORD PTR [ebx+8]
	push	eax
	call	_xmlStrcat

; 1055 : 	    reader->ctxt->valid &= xmlValidatePopElement(&reader->ctxt->vctxt,

	mov	ecx, DWORD PTR [edi+20]
	mov	esi, ecx
	push	eax
	push	ebx
	mov	DWORD PTR _qname$3$[ebp], eax
	push	DWORD PTR [ecx+8]
	add	ecx, 108				; 0000006cH
	push	ecx
	call	_xmlValidatePopElement
	and	DWORD PTR [esi+100], eax
	add	esp, 36					; 00000024H

; 1056 : 				    reader->ctxt->myDoc, node, qname);
; 1057 : 	    if (qname != NULL)

	mov	eax, DWORD PTR _qname$3$[ebp]
	test	eax, eax
	je	SHORT $LN12@xmlTextRea

; 1058 : 		xmlFree(qname);

	push	eax
	call	DWORD PTR _xmlFree
	add	esp, 4
	jmp	SHORT $LN12@xmlTextRea
$LN5@xmlTextRea:

; 1046 : 	    reader->ctxt->valid &= xmlValidatePopElement(&reader->ctxt->vctxt,

	push	DWORD PTR [ebx+8]
	mov	esi, eax
	push	ebx
	push	DWORD PTR [eax+8]
	add	eax, 108				; 0000006cH
	push	eax
	call	_xmlValidatePopElement
	add	esp, 16					; 00000010H
	and	DWORD PTR [esi+100], eax
$LN12@xmlTextRea:
	pop	esi
$LN6@xmlTextRea:

; 1059 : 	}
; 1060 :     }
; 1061 : #endif /* LIBXML_VALID_ENABLED */
; 1062 : #ifdef LIBXML_SCHEMAS_ENABLED
; 1063 :     if ((reader->validate == XML_TEXTREADER_VALIDATE_RNG) &&

	cmp	DWORD PTR [edi+8], 2
	jne	SHORT $LN10@xmlTextRea
	mov	ecx, DWORD PTR [edi+120]
	test	ecx, ecx
	je	SHORT $LN10@xmlTextRea

; 1064 :                (reader->rngValidCtxt != NULL)) {
; 1065 : 	int ret;
; 1066 : 
; 1067 : 	if (reader->rngFullNode != NULL) {

	mov	eax, DWORD PTR [edi+132]
	test	eax, eax
	je	SHORT $LN8@xmlTextRea

; 1068 : 	    if (node == reader->rngFullNode)

	cmp	ebx, eax
	jne	SHORT $LN10@xmlTextRea

; 1069 : 	        reader->rngFullNode = NULL;

	mov	DWORD PTR [edi+132], 0
	pop	edi

; 1077 :     }
; 1078 : #endif
; 1079 : }

	pop	ebx
	pop	ebp
	ret	0
$LN8@xmlTextRea:

; 1070 : 	    return;
; 1071 : 	}
; 1072 : 	ret = xmlRelaxNGValidatePopElement(reader->rngValidCtxt,

	mov	eax, DWORD PTR [edi+20]
	push	ebx
	push	DWORD PTR [eax+8]
	push	ecx
	call	_xmlRelaxNGValidatePopElement
	add	esp, 12					; 0000000cH

; 1073 : 	                                   reader->ctxt->myDoc,
; 1074 : 					   node);
; 1075 : 	if (ret != 1)

	cmp	eax, 1
	je	SHORT $LN10@xmlTextRea

; 1076 : 	    reader->rngValidErrors++;

	inc	DWORD PTR [edi+128]
$LN10@xmlTextRea:
	pop	edi

; 1077 :     }
; 1078 : #endif
; 1079 : }

	pop	ebx
	pop	ebp
	ret	0
_xmlTextReaderValidatePop ENDP
_TEXT	ENDS
; Function compile flags: /Ogtp
; File c:\users\dag\documents\_clients\codeproject authors group\windows on arm\libxml2\libxml2-2.9.9\xmlreader.c
;	COMDAT _xmlTextReaderValidateCData
_TEXT	SEGMENT
_reader$ = 8						; size = 4
_data$ = 12						; size = 4
_len$ = 16						; size = 4
_xmlTextReaderValidateCData PROC			; COMDAT

; 1011 :                            const xmlChar *data, int len) {

	push	ebp
	mov	ebp, esp
	push	esi
	push	edi
	mov	ecx, OFFSET __BC13D883_xmlreader@c
	call	@__CheckForDebuggerJustMyCode@4
	mov	esi, DWORD PTR _reader$[ebp]
	mov	ecx, DWORD PTR _data$[ebp]
	mov	eax, DWORD PTR [esi+8]
	cmp	eax, 1
	jne	SHORT $LN2@xmlTextRea

; 1012 : #ifdef LIBXML_VALID_ENABLED
; 1013 :     if ((reader->validate == XML_TEXTREADER_VALIDATE_DTD) &&
; 1014 :         (reader->ctxt != NULL) && (reader->ctxt->validate == 1)) {

	mov	edi, DWORD PTR [esi+20]
	test	edi, edi
	je	SHORT $LN5@xmlTextRea
	cmp	DWORD PTR [edi+104], 1
	jne	SHORT $LN5@xmlTextRea

; 1015 : 	reader->ctxt->valid &= xmlValidatePushCData(&reader->ctxt->vctxt,

	push	DWORD PTR _len$[ebp]
	lea	eax, DWORD PTR [edi+108]
	push	ecx
	push	eax
	call	_xmlValidatePushCData
	mov	ecx, DWORD PTR _data$[ebp]
	add	esp, 12					; 0000000cH
	and	DWORD PTR [edi+100], eax
	mov	eax, DWORD PTR [esi+8]
$LN2@xmlTextRea:

; 1016 : 	                                            data, len);
; 1017 :     }
; 1018 : #endif /* LIBXML_VALID_ENABLED */
; 1019 : #ifdef LIBXML_SCHEMAS_ENABLED
; 1020 :     if ((reader->validate == XML_TEXTREADER_VALIDATE_RNG) &&

	cmp	eax, 2
	jne	SHORT $LN5@xmlTextRea
	mov	eax, DWORD PTR [esi+120]
	test	eax, eax
	je	SHORT $LN5@xmlTextRea

; 1021 :                (reader->rngValidCtxt != NULL)) {
; 1022 : 	int ret;
; 1023 : 
; 1024 : 	if (reader->rngFullNode != NULL) return;

	cmp	DWORD PTR [esi+132], 0
	jne	SHORT $LN5@xmlTextRea

; 1025 : 	ret = xmlRelaxNGValidatePushCData(reader->rngValidCtxt, data, len);

	push	DWORD PTR _len$[ebp]
	push	ecx
	push	eax
	call	_xmlRelaxNGValidatePushCData
	add	esp, 12					; 0000000cH

; 1026 : 	if (ret != 1)

	cmp	eax, 1
	je	SHORT $LN5@xmlTextRea

; 1027 : 	    reader->rngValidErrors++;

	inc	DWORD PTR [esi+128]
$LN5@xmlTextRea:
	pop	edi

; 1028 :     }
; 1029 : #endif
; 1030 : }

	pop	esi
	pop	ebp
	ret	0
_xmlTextReaderValidateCData ENDP
_TEXT	ENDS
; Function compile flags: /Ogtp
; File c:\users\dag\documents\_clients\codeproject authors group\windows on arm\libxml2\libxml2-2.9.9\xmlreader.c
;	COMDAT _xmlTextReaderValidatePush
_TEXT	SEGMENT
_qname$3$ = 8						; size = 4
_reader$ = 8						; size = 4
_xmlTextReaderValidatePush PROC				; COMDAT

; 948  : xmlTextReaderValidatePush(xmlTextReaderPtr reader ATTRIBUTE_UNUSED) {

	push	ebp
	mov	ebp, esp
	push	ebx
	push	esi
	push	edi
	mov	ecx, OFFSET __BC13D883_xmlreader@c
	call	@__CheckForDebuggerJustMyCode@4
	mov	edi, DWORD PTR _reader$[ebp]
	cmp	DWORD PTR [edi+8], 1
	mov	ebx, DWORD PTR [edi+64]
	jne	SHORT $LN6@xmlTextRea

; 949  :     xmlNodePtr node = reader->node;
; 950  : 
; 951  : #ifdef LIBXML_VALID_ENABLED
; 952  :     if ((reader->validate == XML_TEXTREADER_VALIDATE_DTD) &&
; 953  :         (reader->ctxt != NULL) && (reader->ctxt->validate == 1)) {

	mov	eax, DWORD PTR [edi+20]
	test	eax, eax
	je	SHORT $LN6@xmlTextRea
	cmp	DWORD PTR [eax+104], 1
	jne	SHORT $LN6@xmlTextRea

; 954  : 	if ((node->ns == NULL) || (node->ns->prefix == NULL)) {

	mov	ecx, DWORD PTR [ebx+36]
	test	ecx, ecx
	je	SHORT $LN5@xmlTextRea
	mov	ecx, DWORD PTR [ecx+12]
	test	ecx, ecx
	je	SHORT $LN5@xmlTextRea

; 956  : 				    reader->ctxt->myDoc, node, node->name);
; 957  : 	} else {
; 958  : 	    /* TODO use the BuildQName interface */
; 959  : 	    xmlChar *qname;
; 960  : 
; 961  : 	    qname = xmlStrdup(node->ns->prefix);

	push	ecx
	call	_xmlStrdup

; 962  : 	    qname = xmlStrcat(qname, BAD_CAST ":");

	push	OFFSET ??_C@_01JLIPDDHJ@?3@
	push	eax
	call	_xmlStrcat

; 963  : 	    qname = xmlStrcat(qname, node->name);

	push	DWORD PTR [ebx+8]
	push	eax
	call	_xmlStrcat

; 964  : 	    reader->ctxt->valid &= xmlValidatePushElement(&reader->ctxt->vctxt,

	mov	ecx, DWORD PTR [edi+20]
	mov	esi, ecx
	push	eax
	push	ebx
	mov	DWORD PTR _qname$3$[ebp], eax
	push	DWORD PTR [ecx+8]
	add	ecx, 108				; 0000006cH
	push	ecx
	call	_xmlValidatePushElement
	and	DWORD PTR [esi+100], eax
	add	esp, 36					; 00000024H

; 965  : 				    reader->ctxt->myDoc, node, qname);
; 966  : 	    if (qname != NULL)

	mov	eax, DWORD PTR _qname$3$[ebp]
	test	eax, eax
	je	SHORT $LN6@xmlTextRea

; 967  : 		xmlFree(qname);

	push	eax
	call	DWORD PTR _xmlFree
	add	esp, 4
	jmp	SHORT $LN6@xmlTextRea
$LN5@xmlTextRea:

; 955  : 	    reader->ctxt->valid &= xmlValidatePushElement(&reader->ctxt->vctxt,

	push	DWORD PTR [ebx+8]
	mov	esi, eax
	push	ebx
	push	DWORD PTR [eax+8]
	add	eax, 108				; 0000006cH
	push	eax
	call	_xmlValidatePushElement
	add	esp, 16					; 00000010H
	and	DWORD PTR [esi+100], eax
$LN6@xmlTextRea:

; 968  : 	}
; 969  :     }
; 970  : #endif /* LIBXML_VALID_ENABLED */
; 971  : #ifdef LIBXML_SCHEMAS_ENABLED
; 972  :     if ((reader->validate == XML_TEXTREADER_VALIDATE_RNG) &&

	cmp	DWORD PTR [edi+8], 2
	jne	SHORT $LN12@xmlTextRea
	mov	ecx, DWORD PTR [edi+120]
	test	ecx, ecx
	je	SHORT $LN12@xmlTextRea

; 973  :                (reader->rngValidCtxt != NULL)) {
; 974  : 	int ret;
; 975  : 
; 976  : 	if (reader->rngFullNode != NULL) return;

	cmp	DWORD PTR [edi+132], 0
	jne	SHORT $LN12@xmlTextRea

; 977  : 	ret = xmlRelaxNGValidatePushElement(reader->rngValidCtxt,

	mov	eax, DWORD PTR [edi+20]
	push	ebx
	push	DWORD PTR [eax+8]
	push	ecx
	call	_xmlRelaxNGValidatePushElement
	add	esp, 12					; 0000000cH

; 978  : 	                                    reader->ctxt->myDoc,
; 979  : 					    node);
; 980  : 	if (ret == 0) {

	test	eax, eax
	jne	SHORT $LN11@xmlTextRea

; 981  : 	    /*
; 982  : 	     * this element requires a full tree
; 983  : 	     */
; 984  : 	    node = xmlTextReaderExpand(reader);

	push	edi
	call	_xmlTextReaderExpand
	mov	esi, eax
	add	esp, 4

; 985  : 	    if (node == NULL) {

	test	esi, esi
	jne	SHORT $LN10@xmlTextRea

; 986  : printf("Expand failed !\n");

	push	OFFSET ??_C@_0BB@DOFEEJAH@Expand?5failed?5?$CB?6@
	call	_printf
	add	esp, 4

; 996  : 	    reader->rngValidErrors++;

	inc	DWORD PTR [edi+128]
	pop	edi

; 997  :     }
; 998  : #endif
; 999  : }

	pop	esi
	pop	ebx
	pop	ebp
	ret	0
$LN10@xmlTextRea:

; 987  : 	        ret = -1;
; 988  : 	    } else {
; 989  : 		ret = xmlRelaxNGValidateFullElement(reader->rngValidCtxt,

	mov	eax, DWORD PTR [edi+20]
	push	esi
	push	DWORD PTR [eax+8]
	push	DWORD PTR [edi+120]
	call	_xmlRelaxNGValidateFullElement
	add	esp, 12					; 0000000cH

; 990  : 						    reader->ctxt->myDoc,
; 991  : 						    node);
; 992  : 		reader->rngFullNode = node;

	mov	DWORD PTR [edi+132], esi
$LN11@xmlTextRea:

; 993  : 	    }
; 994  : 	}
; 995  : 	if (ret != 1)

	cmp	eax, 1
	je	SHORT $LN12@xmlTextRea

; 996  : 	    reader->rngValidErrors++;

	inc	DWORD PTR [edi+128]
$LN12@xmlTextRea:
	pop	edi

; 997  :     }
; 998  : #endif
; 999  : }

	pop	esi
	pop	ebx
	pop	ebp
	ret	0
_xmlTextReaderValidatePush ENDP
_TEXT	ENDS
; Function compile flags: /Ogtp
; File c:\users\dag\documents\_clients\codeproject authors group\windows on arm\libxml2\libxml2-2.9.9\xmlreader.c
;	COMDAT _xmlTextReaderPushData
_TEXT	SEGMENT
_oldstate$1$ = -4					; size = 4
_alloc$1$ = 8						; size = 4
_reader$ = 8						; size = 4
_xmlTextReaderPushData PROC				; COMDAT

; 829  : xmlTextReaderPushData(xmlTextReaderPtr reader) {

	push	ebp
	mov	ebp, esp
	push	ecx
	push	ebx
	push	esi
	push	edi
	mov	ecx, OFFSET __BC13D883_xmlreader@c
	call	@__CheckForDebuggerJustMyCode@4
	mov	esi, DWORD PTR _reader$[ebp]
	mov	ebx, DWORD PTR [esi+28]
	test	ebx, ebx
	je	$LN5@xmlTextRea

; 830  :     xmlBufPtr inbuf;
; 831  :     int val, s;
; 832  :     xmlTextReaderState oldstate;
; 833  :     int alloc;
; 834  : 
; 835  :     if ((reader->input == NULL) || (reader->input->buffer == NULL))

	cmp	DWORD PTR [ebx+16], 0
	je	$LN5@xmlTextRea

; 836  : 	return(-1);
; 837  : 
; 838  :     oldstate = reader->state;

	mov	edi, DWORD PTR [esi+16]

; 839  :     reader->state = XML_TEXTREADER_NONE;

	mov	DWORD PTR [esi+16], -1

; 840  :     inbuf = reader->input->buffer;

	mov	ebx, DWORD PTR [ebx+16]

; 841  :     alloc = xmlBufGetAllocationScheme(inbuf);

	push	ebx
	mov	DWORD PTR _oldstate$1$[ebp], edi
	call	_xmlBufGetAllocationScheme
	add	esp, 4
	mov	ecx, eax

; 842  : 
; 843  :     while (reader->state == XML_TEXTREADER_NONE) {

	cmp	DWORD PTR [esi+16], -1
	mov	DWORD PTR _alloc$1$[ebp], ecx
	jne	$LN21@xmlTextRea
$LL2@xmlTextRea:

; 844  : 	if (xmlBufUse(inbuf) < reader->cur + CHUNK_SIZE) {

	push	ebx
	call	_xmlBufUse
	mov	ecx, DWORD PTR [esi+60]
	add	esp, 4
	add	ecx, 512				; 00000200H
	cmp	eax, ecx
	jae	SHORT $LN12@xmlTextRea

; 845  : 	    /*
; 846  : 	     * Refill the buffer unless we are at the end of the stream
; 847  : 	     */
; 848  : 	    if (reader->mode != XML_TEXTREADER_MODE_EOF) {

	cmp	DWORD PTR [esi], 3
	je	$LN45@xmlTextRea

; 849  : 		val = xmlParserInputBufferRead(reader->input, 4096);

	push	4096					; 00001000H
	push	DWORD PTR [esi+28]
	call	_xmlParserInputBufferRead
	mov	ecx, eax
	add	esp, 8

; 850  : 		if ((val == 0) &&

	test	ecx, ecx
	jne	SHORT $LN46@xmlTextRea
	cmp	DWORD PTR _alloc$1$[ebp], 2
	jne	$LN36@xmlTextRea

; 851  : 		    (alloc == XML_BUFFER_ALLOC_IMMUTABLE)) {
; 852  : 		    if (xmlBufUse(inbuf) == reader->cur) {

	push	ebx
	call	_xmlBufUse
	add	esp, 4
	cmp	eax, DWORD PTR [esi+60]
	jne	SHORT $LN12@xmlTextRea

; 853  : 			reader->mode = XML_TEXTREADER_MODE_EOF;

	mov	DWORD PTR [esi], 3

; 854  : 			reader->state = oldstate;

	mov	DWORD PTR [esi+16], edi
	jmp	SHORT $LN12@xmlTextRea
$LN46@xmlTextRea:

; 855  : 		    }
; 856  : 		} else if (val < 0) {

	jns	SHORT $LN12@xmlTextRea

; 857  : 		    reader->mode = XML_TEXTREADER_MODE_EOF;

	mov	DWORD PTR [esi], 3

; 858  : 		    reader->state = oldstate;

	mov	DWORD PTR [esi+16], edi

; 859  : 		    if ((oldstate != XML_TEXTREADER_START) ||

	test	edi, edi
	jne	$LN35@xmlTextRea
	mov	eax, DWORD PTR [esi+20]
	cmp	DWORD PTR [eax+8], edi
	jne	$LN35@xmlTextRea
$LN12@xmlTextRea:

; 865  : 		    break;
; 866  : 		}
; 867  : 
; 868  : 	    } else
; 869  : 		break;
; 870  : 	}
; 871  : 	/*
; 872  : 	 * parse by block of CHUNK_SIZE bytes, various tests show that
; 873  : 	 * it's the best tradeoff at least on a 1.2GH Duron
; 874  : 	 */
; 875  : 	if (xmlBufUse(inbuf) >= reader->cur + CHUNK_SIZE) {

	push	ebx
	call	_xmlBufUse
	mov	ecx, DWORD PTR [esi+60]
	add	esp, 4
	add	ecx, 512				; 00000200H
	cmp	eax, ecx
	jb	$LN17@xmlTextRea

; 876  : 	    val = xmlParseChunk(reader->ctxt,

	push	0
	push	512					; 00000200H
	push	ebx
	call	_xmlBufContent
	add	eax, DWORD PTR [esi+60]
	add	esp, 4
	push	eax
	push	DWORD PTR [esi+20]
	call	_xmlParseChunk

; 877  :                  (const char *) xmlBufContent(inbuf) + reader->cur,
; 878  :                                 CHUNK_SIZE, 0);
; 879  : 	    reader->cur += CHUNK_SIZE;

	add	DWORD PTR [esi+60], 512			; 00000200H
	add	esp, 16					; 00000010H

; 880  : 	    if (val != 0)

	test	eax, eax
	je	SHORT $LN19@xmlTextRea

; 881  : 		reader->ctxt->wellFormed = 0;

	mov	eax, DWORD PTR [esi+20]
	mov	DWORD PTR [eax+12], 0
$LN19@xmlTextRea:

; 882  : 	    if (reader->ctxt->wellFormed == 0)

	mov	eax, DWORD PTR [esi+20]
	cmp	DWORD PTR [eax+12], 0
	je	$LN45@xmlTextRea

; 842  : 
; 843  :     while (reader->state == XML_TEXTREADER_NONE) {

	cmp	DWORD PTR [esi+16], -1
	je	$LL2@xmlTextRea
	jmp	$LN45@xmlTextRea
$LN36@xmlTextRea:

; 860  : 			(reader->ctxt->myDoc != NULL))
; 861  : 			return(val);
; 862  : 		} else if (val == 0) {
; 863  : 		    /* mark the end of the stream and process the remains */
; 864  : 		    reader->mode = XML_TEXTREADER_MODE_EOF;

	mov	DWORD PTR [esi], 3

; 892  : 	    break;
; 893  : 	}
; 894  :     }
; 895  : 
; 896  :     /*
; 897  :      * Discard the consumed input when needed and possible
; 898  :      */
; 899  :     if (reader->mode == XML_TEXTREADER_MODE_INTERACTIVE) {

	mov	eax, 3
$LN22@xmlTextRea:

; 910  : 
; 911  :     /*
; 912  :      * At the end of the stream signal that the work is done to the Push
; 913  :      * parser.
; 914  :      */
; 915  :     else if (reader->mode == XML_TEXTREADER_MODE_EOF) {

	cmp	eax, 3
	jne	SHORT $LN31@xmlTextRea

; 916  : 	if (reader->state != XML_TEXTREADER_DONE) {

	cmp	DWORD PTR [esi+16], 5
	je	SHORT $LN31@xmlTextRea

; 917  : 	    s = xmlBufUse(inbuf) - reader->cur;

	push	ebx
	call	_xmlBufUse
	sub	eax, DWORD PTR [esi+60]
	add	esp, 4

; 918  : 	    val = xmlParseChunk(reader->ctxt,

	push	1
	push	eax
	push	ebx
	call	_xmlBufContent
	add	eax, DWORD PTR [esi+60]
	add	esp, 4
	push	eax
	push	DWORD PTR [esi+20]
	call	_xmlParseChunk

; 919  : 		 (const char *) xmlBufContent(inbuf) + reader->cur,
; 920  : 			        s, 1);
; 921  : 	    reader->cur = xmlBufUse(inbuf);

	push	ebx
	mov	edi, eax
	call	_xmlBufUse
	add	esp, 20					; 00000014H
	mov	DWORD PTR [esi+60], eax

; 922  : 	    reader->state  = XML_TEXTREADER_DONE;

	mov	DWORD PTR [esi+16], 5

; 923  : 	    if (val != 0) {

	test	edi, edi
	je	SHORT $LN31@xmlTextRea

; 924  : 	        if (reader->ctxt->wellFormed)

	mov	eax, DWORD PTR [esi+20]
	cmp	DWORD PTR [eax+12], 0
	je	SHORT $LN5@xmlTextRea

; 925  : 		    reader->ctxt->wellFormed = 0;

	mov	DWORD PTR [eax+12], 0
$LN31@xmlTextRea:

; 926  : 		else
; 927  : 		    return(-1);
; 928  : 	    }
; 929  : 	}
; 930  :     }
; 931  :     reader->state = oldstate;

	mov	eax, DWORD PTR _oldstate$1$[ebp]
	mov	DWORD PTR [esi+16], eax

; 932  :     if (reader->ctxt->wellFormed == 0) {

	mov	eax, DWORD PTR [esi+20]
	cmp	DWORD PTR [eax+12], 0
	jne	$LN32@xmlTextRea

; 933  : 	reader->mode = XML_TEXTREADER_MODE_EOF;

	mov	DWORD PTR [esi], 3
$LN5@xmlTextRea:
	pop	edi

; 934  :         return(-1);
; 935  :     }
; 936  : 
; 937  :     return(0);
; 938  : }

	pop	esi
	or	eax, -1
	pop	ebx
	mov	esp, ebp
	pop	ebp
	ret	0
$LN35@xmlTextRea:
	pop	edi
	pop	esi
	mov	eax, ecx
	pop	ebx
	mov	esp, ebp
	pop	ebp
	ret	0
$LN17@xmlTextRea:

; 883  : 		break;
; 884  : 	} else {
; 885  : 	    s = xmlBufUse(inbuf) - reader->cur;

	push	ebx
	call	_xmlBufUse
	add	esp, 4
	mov	edi, eax
	sub	edi, DWORD PTR [esi+60]

; 886  : 	    val = xmlParseChunk(reader->ctxt,

	push	0
	push	edi
	push	ebx
	call	_xmlBufContent
	add	eax, DWORD PTR [esi+60]
	add	esp, 4
	push	eax
	push	DWORD PTR [esi+20]
	call	_xmlParseChunk

; 887  : 		 (const char *) xmlBufContent(inbuf) + reader->cur,
; 888  : 			        s, 0);
; 889  : 	    reader->cur += s;

	add	DWORD PTR [esi+60], edi
	add	esp, 16					; 00000010H

; 890  : 	    if (val != 0)

	test	eax, eax
	je	SHORT $LN45@xmlTextRea

; 891  : 		reader->ctxt->wellFormed = 0;

	mov	eax, DWORD PTR [esi+20]
	mov	DWORD PTR [eax+12], 0
$LN45@xmlTextRea:

; 892  : 	    break;
; 893  : 	}
; 894  :     }
; 895  : 
; 896  :     /*
; 897  :      * Discard the consumed input when needed and possible
; 898  :      */
; 899  :     if (reader->mode == XML_TEXTREADER_MODE_INTERACTIVE) {

	mov	ecx, DWORD PTR _alloc$1$[ebp]
$LN21@xmlTextRea:
	mov	eax, DWORD PTR [esi]
	cmp	eax, 1
	jne	$LN22@xmlTextRea

; 900  :         if (alloc != XML_BUFFER_ALLOC_IMMUTABLE) {

	cmp	ecx, 2
	je	SHORT $LN31@xmlTextRea

; 901  : 	    if ((reader->cur >= 4096) &&

	cmp	DWORD PTR [esi+60], 4096		; 00001000H
	jb	$LN31@xmlTextRea
	mov	edi, DWORD PTR [esi+60]
	push	ebx
	call	_xmlBufUse
	sub	eax, edi
	add	esp, 4
	cmp	eax, 512				; 00000200H
	ja	$LN31@xmlTextRea

; 902  : 		(xmlBufUse(inbuf) - reader->cur <= CHUNK_SIZE)) {
; 903  : 		val = xmlBufShrink(inbuf, reader->cur);

	push	edi
	push	ebx
	call	_xmlBufShrink
	add	esp, 8

; 904  : 		if (val >= 0) {

	test	eax, eax
	js	$LN31@xmlTextRea

; 905  : 		    reader->cur -= val;

	sub	DWORD PTR [esi+60], eax

; 906  : 		}
; 907  : 	    }
; 908  : 	}
; 909  :     }

	jmp	$LN31@xmlTextRea
$LN32@xmlTextRea:
	pop	edi

; 934  :         return(-1);
; 935  :     }
; 936  : 
; 937  :     return(0);
; 938  : }

	pop	esi
	xor	eax, eax
	pop	ebx
	mov	esp, ebp
	pop	ebp
	ret	0
_xmlTextReaderPushData ENDP
_TEXT	ENDS
; Function compile flags: /Ogtp
; File c:\users\dag\documents\_clients\codeproject authors group\windows on arm\libxml2\libxml2-2.9.9\xmlreader.c
;	COMDAT _xmlTextReaderCDataBlock
_TEXT	SEGMENT
_ctx$ = 8						; size = 4
_ch$ = 12						; size = 4
_len$ = 16						; size = 4
_xmlTextReaderCDataBlock PROC				; COMDAT

; 807  : {

	push	ebp
	mov	ebp, esp
	mov	ecx, OFFSET __BC13D883_xmlreader@c
	call	@__CheckForDebuggerJustMyCode@4
	mov	ecx, DWORD PTR _ctx$[ebp]
	mov	eax, DWORD PTR [ecx+272]
	test	eax, eax
	je	SHORT $LN2@xmlTextRea

; 808  :     xmlParserCtxtPtr ctxt = (xmlParserCtxtPtr) ctx;
; 809  :     xmlTextReaderPtr reader = ctxt->_private;
; 810  : 
; 811  : #ifdef DEBUG_CALLBACKS
; 812  :     printf("xmlTextReaderCDataBlock()\n");
; 813  : #endif
; 814  :     if ((reader != NULL) && (reader->cdataBlock != NULL)) {

	mov	eax, DWORD PTR [eax+52]
	test	eax, eax
	je	SHORT $LN2@xmlTextRea

; 815  : 	reader->cdataBlock(ctx, ch, len);

	mov	DWORD PTR _ctx$[ebp], ecx

; 816  :     }
; 817  : }

	pop	ebp

; 815  : 	reader->cdataBlock(ctx, ch, len);

	jmp	eax
$LN2@xmlTextRea:

; 816  :     }
; 817  : }

	pop	ebp
	ret	0
_xmlTextReaderCDataBlock ENDP
_TEXT	ENDS
; Function compile flags: /Ogtp
; File c:\users\dag\documents\_clients\codeproject authors group\windows on arm\libxml2\libxml2-2.9.9\xmlreader.c
;	COMDAT _xmlTextReaderCharacters
_TEXT	SEGMENT
_ctx$ = 8						; size = 4
_ch$ = 12						; size = 4
_len$ = 16						; size = 4
_xmlTextReaderCharacters PROC				; COMDAT

; 785  : {

	push	ebp
	mov	ebp, esp
	mov	ecx, OFFSET __BC13D883_xmlreader@c
	call	@__CheckForDebuggerJustMyCode@4
	mov	ecx, DWORD PTR _ctx$[ebp]
	mov	eax, DWORD PTR [ecx+272]
	test	eax, eax
	je	SHORT $LN2@xmlTextRea

; 786  :     xmlParserCtxtPtr ctxt = (xmlParserCtxtPtr) ctx;
; 787  :     xmlTextReaderPtr reader = ctxt->_private;
; 788  : 
; 789  : #ifdef DEBUG_CALLBACKS
; 790  :     printf("xmlTextReaderCharacters()\n");
; 791  : #endif
; 792  :     if ((reader != NULL) && (reader->characters != NULL)) {

	mov	eax, DWORD PTR [eax+48]
	test	eax, eax
	je	SHORT $LN2@xmlTextRea

; 793  : 	reader->characters(ctx, ch, len);

	mov	DWORD PTR _ctx$[ebp], ecx

; 794  :     }
; 795  : }

	pop	ebp

; 793  : 	reader->characters(ctx, ch, len);

	jmp	eax
$LN2@xmlTextRea:

; 794  :     }
; 795  : }

	pop	ebp
	ret	0
_xmlTextReaderCharacters ENDP
_TEXT	ENDS
; Function compile flags: /Ogtp
; File c:\users\dag\documents\_clients\codeproject authors group\windows on arm\libxml2\libxml2-2.9.9\xmlreader.c
;	COMDAT _xmlTextReaderEndElementNs
_TEXT	SEGMENT
_ctx$ = 8						; size = 4
_localname$ = 12					; size = 4
_prefix$ = 16						; size = 4
_URI$ = 20						; size = 4
_xmlTextReaderEndElementNs PROC				; COMDAT

; 762  : {

	push	ebp
	mov	ebp, esp
	mov	ecx, OFFSET __BC13D883_xmlreader@c
	call	@__CheckForDebuggerJustMyCode@4
	mov	ecx, DWORD PTR _ctx$[ebp]
	mov	eax, DWORD PTR [ecx+272]
	test	eax, eax
	je	SHORT $LN2@xmlTextRea

; 763  :     xmlParserCtxtPtr ctxt = (xmlParserCtxtPtr) ctx;
; 764  :     xmlTextReaderPtr reader = ctxt->_private;
; 765  : 
; 766  : #ifdef DEBUG_CALLBACKS
; 767  :     printf("xmlTextReaderEndElementNs(%s)\n", localname);
; 768  : #endif
; 769  :     if ((reader != NULL) && (reader->endElementNs != NULL)) {

	mov	eax, DWORD PTR [eax+44]
	test	eax, eax
	je	SHORT $LN2@xmlTextRea

; 770  : 	reader->endElementNs(ctx, localname, prefix, URI);

	mov	DWORD PTR _ctx$[ebp], ecx

; 771  :     }
; 772  : }

	pop	ebp

; 770  : 	reader->endElementNs(ctx, localname, prefix, URI);

	jmp	eax
$LN2@xmlTextRea:

; 771  :     }
; 772  : }

	pop	ebp
	ret	0
_xmlTextReaderEndElementNs ENDP
_TEXT	ENDS
; Function compile flags: /Ogtp
; File c:\users\dag\documents\_clients\codeproject authors group\windows on arm\libxml2\libxml2-2.9.9\xmlreader.c
;	COMDAT _xmlTextReaderStartElementNs
_TEXT	SEGMENT
_ctx$ = 8						; size = 4
_localname$ = 12					; size = 4
_prefix$ = 16						; size = 4
_URI$ = 20						; size = 4
_nb_namespaces$ = 24					; size = 4
_namespaces$ = 28					; size = 4
_nb_attributes$ = 32					; size = 4
_nb_defaulted$ = 36					; size = 4
_attributes$ = 40					; size = 4
_xmlTextReaderStartElementNs PROC			; COMDAT

; 728  : {

	push	ebp
	mov	ebp, esp
	push	esi
	push	edi
	mov	ecx, OFFSET __BC13D883_xmlreader@c
	call	@__CheckForDebuggerJustMyCode@4
	mov	edi, DWORD PTR _ctx$[ebp]
	mov	esi, DWORD PTR [edi+272]
	test	esi, esi
	je	SHORT $LN4@xmlTextRea

; 729  :     xmlParserCtxtPtr ctxt = (xmlParserCtxtPtr) ctx;
; 730  :     xmlTextReaderPtr reader = ctxt->_private;
; 731  : 
; 732  : #ifdef DEBUG_CALLBACKS
; 733  :     printf("xmlTextReaderStartElementNs(%s)\n", localname);
; 734  : #endif
; 735  :     if ((reader != NULL) && (reader->startElementNs != NULL)) {

	mov	eax, DWORD PTR [esi+40]
	test	eax, eax
	je	SHORT $LN3@xmlTextRea

; 736  : 	reader->startElementNs(ctx, localname, prefix, URI, nb_namespaces,

	push	DWORD PTR _attributes$[ebp]
	push	DWORD PTR _nb_defaulted$[ebp]
	push	DWORD PTR _nb_attributes$[ebp]
	push	DWORD PTR _namespaces$[ebp]
	push	DWORD PTR _nb_namespaces$[ebp]
	push	DWORD PTR _URI$[ebp]
	push	DWORD PTR _prefix$[ebp]
	push	DWORD PTR _localname$[ebp]
	push	edi
	call	eax

; 737  : 	                       namespaces, nb_attributes, nb_defaulted,
; 738  : 			       attributes);
; 739  : 	if ((ctxt->node != NULL) && (ctxt->input != NULL) &&
; 740  : 	    (ctxt->input->cur != NULL) && (ctxt->input->cur[0] == '/') &&

	mov	ecx, DWORD PTR [edi+52]
	add	esp, 36					; 00000024H
	test	ecx, ecx
	je	SHORT $LN3@xmlTextRea
	mov	eax, DWORD PTR [edi+36]
	test	eax, eax
	je	SHORT $LN3@xmlTextRea
	mov	eax, DWORD PTR [eax+16]
	test	eax, eax
	je	SHORT $LN3@xmlTextRea
	cmp	BYTE PTR [eax], 47			; 0000002fH
	jne	SHORT $LN3@xmlTextRea
	cmp	BYTE PTR [eax+1], 62			; 0000003eH
	jne	SHORT $LN3@xmlTextRea

; 741  : 	    (ctxt->input->cur[1] == '>'))
; 742  : 	    ctxt->node->extra = NODE_IS_EMPTY;

	mov	eax, 1
	mov	WORD PTR [ecx+58], ax
$LN3@xmlTextRea:

; 743  :     }
; 744  :     if (reader != NULL)
; 745  : 	reader->state = XML_TEXTREADER_ELEMENT;

	mov	DWORD PTR [esi+16], 1
$LN4@xmlTextRea:
	pop	edi

; 746  : }

	pop	esi
	pop	ebp
	ret	0
_xmlTextReaderStartElementNs ENDP
_TEXT	ENDS
; Function compile flags: /Ogtp
; File c:\users\dag\documents\_clients\codeproject authors group\windows on arm\libxml2\libxml2-2.9.9\xmlreader.c
;	COMDAT _xmlTextReaderEndElement
_TEXT	SEGMENT
_ctx$ = 8						; size = 4
_fullname$ = 12						; size = 4
_xmlTextReaderEndElement PROC				; COMDAT

; 691  : xmlTextReaderEndElement(void *ctx, const xmlChar *fullname) {

	push	ebp
	mov	ebp, esp
	mov	ecx, OFFSET __BC13D883_xmlreader@c
	call	@__CheckForDebuggerJustMyCode@4
	mov	ecx, DWORD PTR _ctx$[ebp]
	mov	eax, DWORD PTR [ecx+272]
	test	eax, eax
	je	SHORT $LN2@xmlTextRea

; 692  :     xmlParserCtxtPtr ctxt = (xmlParserCtxtPtr) ctx;
; 693  :     xmlTextReaderPtr reader = ctxt->_private;
; 694  : 
; 695  : #ifdef DEBUG_CALLBACKS
; 696  :     printf("xmlTextReaderEndElement(%s)\n", fullname);
; 697  : #endif
; 698  :     if ((reader != NULL) && (reader->endElement != NULL)) {

	mov	eax, DWORD PTR [eax+36]
	test	eax, eax
	je	SHORT $LN2@xmlTextRea

; 699  : 	reader->endElement(ctx, fullname);

	mov	DWORD PTR _ctx$[ebp], ecx

; 700  :     }
; 701  : }

	pop	ebp

; 699  : 	reader->endElement(ctx, fullname);

	jmp	eax
$LN2@xmlTextRea:

; 700  :     }
; 701  : }

	pop	ebp
	ret	0
_xmlTextReaderEndElement ENDP
_TEXT	ENDS
; Function compile flags: /Ogtp
; File c:\users\dag\documents\_clients\codeproject authors group\windows on arm\libxml2\libxml2-2.9.9\xmlreader.c
;	COMDAT _xmlTextReaderStartElement
_TEXT	SEGMENT
_ctx$ = 8						; size = 4
_fullname$ = 12						; size = 4
_atts$ = 16						; size = 4
_xmlTextReaderStartElement PROC				; COMDAT

; 665  : 	                  const xmlChar **atts) {

	push	ebp
	mov	ebp, esp
	push	esi
	push	edi
	mov	ecx, OFFSET __BC13D883_xmlreader@c
	call	@__CheckForDebuggerJustMyCode@4
	mov	esi, DWORD PTR _ctx$[ebp]
	mov	edi, DWORD PTR [esi+272]
	test	edi, edi
	je	SHORT $LN4@xmlTextRea

; 666  :     xmlParserCtxtPtr ctxt = (xmlParserCtxtPtr) ctx;
; 667  :     xmlTextReaderPtr reader = ctxt->_private;
; 668  : 
; 669  : #ifdef DEBUG_CALLBACKS
; 670  :     printf("xmlTextReaderStartElement(%s)\n", fullname);
; 671  : #endif
; 672  :     if ((reader != NULL) && (reader->startElement != NULL)) {

	mov	eax, DWORD PTR [edi+32]
	test	eax, eax
	je	SHORT $LN3@xmlTextRea

; 673  : 	reader->startElement(ctx, fullname, atts);

	push	DWORD PTR _atts$[ebp]
	push	DWORD PTR _fullname$[ebp]
	push	esi
	call	eax

; 674  : 	if ((ctxt->node != NULL) && (ctxt->input != NULL) &&
; 675  : 	    (ctxt->input->cur != NULL) && (ctxt->input->cur[0] == '/') &&

	mov	ecx, DWORD PTR [esi+52]
	add	esp, 12					; 0000000cH
	test	ecx, ecx
	je	SHORT $LN3@xmlTextRea
	mov	eax, DWORD PTR [esi+36]
	test	eax, eax
	je	SHORT $LN3@xmlTextRea
	mov	eax, DWORD PTR [eax+16]
	test	eax, eax
	je	SHORT $LN3@xmlTextRea
	cmp	BYTE PTR [eax], 47			; 0000002fH
	jne	SHORT $LN3@xmlTextRea
	cmp	BYTE PTR [eax+1], 62			; 0000003eH
	jne	SHORT $LN3@xmlTextRea

; 676  : 	    (ctxt->input->cur[1] == '>'))
; 677  : 	    ctxt->node->extra = NODE_IS_EMPTY;

	mov	eax, 1
	mov	WORD PTR [ecx+58], ax
$LN3@xmlTextRea:

; 678  :     }
; 679  :     if (reader != NULL)
; 680  : 	reader->state = XML_TEXTREADER_ELEMENT;

	mov	DWORD PTR [edi+16], 1
$LN4@xmlTextRea:
	pop	edi

; 681  : }

	pop	esi
	pop	ebp
	ret	0
_xmlTextReaderStartElement ENDP
_TEXT	ENDS
; Function compile flags: /Ogtp
; File c:\users\dag\documents\_clients\codeproject authors group\windows on arm\libxml2\libxml2-2.9.9\xmlreader.c
;	COMDAT _xmlTextReaderEntPop
_TEXT	SEGMENT
_reader$ = 8						; size = 4
_xmlTextReaderEntPop PROC				; COMDAT

; 640  : {

	push	ebp
	mov	ebp, esp
	mov	ecx, OFFSET __BC13D883_xmlreader@c
	call	@__CheckForDebuggerJustMyCode@4
	mov	edx, DWORD PTR _reader$[ebp]
	mov	ecx, DWORD PTR [edx+96]
	test	ecx, ecx
	jg	SHORT $LN2@xmlTextRea

; 641  :     xmlNodePtr ret;
; 642  : 
; 643  :     if (reader->entNr <= 0)
; 644  :         return (NULL);

	xor	eax, eax

; 653  : }

	pop	ebp
	ret	0
$LN2@xmlTextRea:

; 645  :     reader->entNr--;

	dec	ecx
	mov	DWORD PTR [edx+96], ecx

; 646  :     if (reader->entNr > 0)

	test	ecx, ecx
	jle	SHORT $LN3@xmlTextRea

; 647  :         reader->ent = reader->entTab[reader->entNr - 1];

	mov	eax, DWORD PTR [edx+104]
	mov	eax, DWORD PTR [eax+ecx*4-4]

; 650  :     ret = reader->entTab[reader->entNr];

	mov	DWORD PTR [edx+92], eax
	mov	eax, DWORD PTR [edx+104]
	mov	edx, DWORD PTR [eax+ecx*4]

; 651  :     reader->entTab[reader->entNr] = NULL;

	mov	DWORD PTR [eax+ecx*4], 0

; 652  :     return (ret);

	mov	eax, edx

; 653  : }

	pop	ebp
	ret	0
$LN3@xmlTextRea:

; 648  :     else
; 649  :         reader->ent = NULL;

	xor	eax, eax

; 650  :     ret = reader->entTab[reader->entNr];

	mov	DWORD PTR [edx+92], eax
	mov	eax, DWORD PTR [edx+104]
	mov	edx, DWORD PTR [eax+ecx*4]

; 651  :     reader->entTab[reader->entNr] = NULL;

	mov	DWORD PTR [eax+ecx*4], 0

; 652  :     return (ret);

	mov	eax, edx

; 653  : }

	pop	ebp
	ret	0
_xmlTextReaderEntPop ENDP
_TEXT	ENDS
; Function compile flags: /Ogtp
; File c:\users\dag\documents\_clients\codeproject authors group\windows on arm\libxml2\libxml2-2.9.9\xmlreader.c
;	COMDAT _xmlTextReaderEntPush
_TEXT	SEGMENT
_reader$ = 8						; size = 4
_value$ = 12						; size = 4
_xmlTextReaderEntPush PROC				; COMDAT

; 604  : {

	push	ebp
	mov	ebp, esp
	push	esi
	mov	ecx, OFFSET __BC13D883_xmlreader@c
	call	@__CheckForDebuggerJustMyCode@4
	mov	esi, DWORD PTR _reader$[ebp]
	cmp	DWORD PTR [esi+100], 0
	jg	SHORT $LN11@xmlTextRea

; 605  :     if (reader->entMax <= 0) {
; 606  : 	reader->entMax = 10;

	push	40					; 00000028H
	mov	DWORD PTR [esi+100], 10			; 0000000aH

; 607  : 	reader->entTab = (xmlNodePtr *) xmlMalloc(reader->entMax *

	call	DWORD PTR _xmlMalloc
	add	esp, 4
	mov	DWORD PTR [esi+104], eax

; 608  : 		                                  sizeof(reader->entTab[0]));
; 609  :         if (reader->entTab == NULL) {

	test	eax, eax
	jne	SHORT $LN11@xmlTextRea

; 610  :             xmlGenericError(xmlGenericErrorContext, "xmlMalloc failed !\n");

	call	___xmlGenericError
	mov	esi, eax
	call	___xmlGenericErrorContext
	push	OFFSET ??_C@_0BE@MPMNBMMA@xmlMalloc?5failed?5?$CB?6@
	push	DWORD PTR [eax]
	mov	eax, DWORD PTR [esi]
	call	eax
	add	esp, 8

; 611  :             return (0);

	xor	eax, eax
	pop	esi

; 628  : }

	pop	ebp
	ret	0
$LN11@xmlTextRea:

; 612  :         }
; 613  :     }
; 614  :     if (reader->entNr >= reader->entMax) {

	mov	eax, DWORD PTR [esi+100]
	cmp	DWORD PTR [esi+96], eax
	jl	SHORT $LN12@xmlTextRea

; 615  :         reader->entMax *= 2;

	add	eax, eax
	mov	DWORD PTR [esi+100], eax

; 616  :         reader->entTab =

	shl	eax, 2
	push	eax
	push	DWORD PTR [esi+104]
	call	DWORD PTR _xmlRealloc
	add	esp, 8
	mov	DWORD PTR [esi+104], eax

; 617  :             (xmlNodePtr *) xmlRealloc(reader->entTab,
; 618  :                                       reader->entMax *
; 619  :                                       sizeof(reader->entTab[0]));
; 620  :         if (reader->entTab == NULL) {

	test	eax, eax
	jne	SHORT $LN12@xmlTextRea

; 621  :             xmlGenericError(xmlGenericErrorContext, "xmlRealloc failed !\n");

	call	___xmlGenericError
	mov	esi, eax
	call	___xmlGenericErrorContext
	push	OFFSET ??_C@_0BF@DCPGEBNC@xmlRealloc?5failed?5?$CB?6@
	push	DWORD PTR [eax]
	mov	eax, DWORD PTR [esi]
	call	eax
	add	esp, 8

; 622  :             return (0);

	xor	eax, eax
	pop	esi

; 628  : }

	pop	ebp
	ret	0
$LN12@xmlTextRea:

; 623  :         }
; 624  :     }
; 625  :     reader->entTab[reader->entNr] = value;

	mov	edx, DWORD PTR [esi+96]
	mov	eax, DWORD PTR [esi+104]
	mov	ecx, DWORD PTR _value$[ebp]
	mov	DWORD PTR [eax+edx*4], ecx

; 626  :     reader->ent = value;
; 627  :     return (reader->entNr++);

	mov	eax, DWORD PTR [esi+96]
	mov	DWORD PTR [esi+92], ecx
	lea	ecx, DWORD PTR [eax+1]
	mov	DWORD PTR [esi+96], ecx
	pop	esi

; 628  : }

	pop	ebp
	ret	0
_xmlTextReaderEntPush ENDP
_TEXT	ENDS
; Function compile flags: /Ogtp
; File c:\users\dag\documents\_clients\codeproject authors group\windows on arm\libxml2\libxml2-2.9.9\xmlreader.c
;	COMDAT _xmlTextReaderFreeDoc
_TEXT	SEGMENT
_reader$ = 8						; size = 4
_cur$ = 12						; size = 4
_xmlTextReaderFreeDoc PROC				; COMDAT

; 518  : xmlTextReaderFreeDoc(xmlTextReaderPtr reader, xmlDocPtr cur) {

	push	ebp
	mov	ebp, esp
	push	esi
	mov	ecx, OFFSET __BC13D883_xmlreader@c
	call	@__CheckForDebuggerJustMyCode@4
	mov	esi, DWORD PTR _cur$[ebp]
	test	esi, esi
	je	$LN1@xmlTextRea

; 519  :     xmlDtdPtr extSubset, intSubset;
; 520  : 
; 521  :     if (cur == NULL) return;
; 522  : 
; 523  :     if ((__xmlRegisterCallbacks) && (xmlDeregisterNodeDefaultValue))

	cmp	DWORD PTR ___xmlRegisterCallbacks, 0
	je	SHORT $LN3@xmlTextRea
	call	___xmlDeregisterNodeDefaultValue
	cmp	DWORD PTR [eax], 0
	je	SHORT $LN3@xmlTextRea

; 524  : 	xmlDeregisterNodeDefaultValue((xmlNodePtr) cur);

	call	___xmlDeregisterNodeDefaultValue
	push	esi
	mov	eax, DWORD PTR [eax]
	call	eax
	add	esp, 4
$LN3@xmlTextRea:

; 525  : 
; 526  :     /*
; 527  :      * Do this before freeing the children list to avoid ID lookups
; 528  :      */
; 529  :     if (cur->ids != NULL) xmlTextReaderFreeIDTable((xmlIDTablePtr) cur->ids);

	mov	eax, DWORD PTR [esi+64]
	test	eax, eax
	je	SHORT $LN17@xmlTextRea

; 507  :     xmlHashFree(table, xmlTextReaderFreeIDTableEntry);

	push	OFFSET _xmlTextReaderFreeIDTableEntry
	push	eax
	call	_xmlHashFree
	add	esp, 8
$LN17@xmlTextRea:

; 530  :     cur->ids = NULL;
; 531  :     if (cur->refs != NULL) xmlFreeRefTable((xmlRefTablePtr) cur->refs);

	mov	eax, DWORD PTR [esi+68]
	mov	DWORD PTR [esi+64], 0
	test	eax, eax
	je	SHORT $LN5@xmlTextRea
	push	eax
	call	_xmlFreeRefTable
	add	esp, 4
$LN5@xmlTextRea:

; 532  :     cur->refs = NULL;
; 533  :     extSubset = cur->extSubset;

	mov	eax, DWORD PTR [esi+48]
	push	ebx

; 534  :     intSubset = cur->intSubset;
; 535  :     if (intSubset == extSubset)
; 536  : 	extSubset = NULL;
; 537  :     if (extSubset != NULL) {

	xor	ebx, ebx
	mov	DWORD PTR [esi+68], 0
	push	edi
	mov	edi, DWORD PTR [esi+44]
	cmp	edi, eax
	cmovne	ebx, eax
	test	ebx, ebx
	je	SHORT $LN7@xmlTextRea

; 538  : 	xmlUnlinkNode((xmlNodePtr) cur->extSubset);

	push	eax
	call	_xmlUnlinkNode

; 539  : 	cur->extSubset = NULL;
; 540  : 	xmlFreeDtd(extSubset);

	push	ebx
	mov	DWORD PTR [esi+48], 0
	call	_xmlFreeDtd
	add	esp, 8
$LN7@xmlTextRea:

; 541  :     }
; 542  :     if (intSubset != NULL) {

	test	edi, edi
	je	SHORT $LN8@xmlTextRea

; 543  : 	xmlUnlinkNode((xmlNodePtr) cur->intSubset);

	push	DWORD PTR [esi+44]
	call	_xmlUnlinkNode

; 544  : 	cur->intSubset = NULL;
; 545  : 	xmlFreeDtd(intSubset);

	push	edi
	mov	DWORD PTR [esi+44], 0
	call	_xmlFreeDtd
	add	esp, 8
$LN8@xmlTextRea:

; 546  :     }
; 547  : 
; 548  :     if (cur->children != NULL) xmlTextReaderFreeNodeList(reader, cur->children);

	mov	eax, DWORD PTR [esi+12]
	pop	edi
	pop	ebx
	test	eax, eax
	je	SHORT $LN9@xmlTextRea
	push	eax
	push	DWORD PTR _reader$[ebp]
	call	_xmlTextReaderFreeNodeList
	add	esp, 8
$LN9@xmlTextRea:

; 549  : 
; 550  :     if (cur->version != NULL) xmlFree((char *) cur->version);

	mov	eax, DWORD PTR [esi+56]
	test	eax, eax
	je	SHORT $LN10@xmlTextRea
	push	eax
	call	DWORD PTR _xmlFree
	add	esp, 4
$LN10@xmlTextRea:

; 551  :     if (cur->name != NULL) xmlFree((char *) cur->name);

	mov	eax, DWORD PTR [esi+8]
	test	eax, eax
	je	SHORT $LN11@xmlTextRea
	push	eax
	call	DWORD PTR _xmlFree
	add	esp, 4
$LN11@xmlTextRea:

; 552  :     if (cur->encoding != NULL) xmlFree((char *) cur->encoding);

	mov	eax, DWORD PTR [esi+60]
	test	eax, eax
	je	SHORT $LN12@xmlTextRea
	push	eax
	call	DWORD PTR _xmlFree
	add	esp, 4
$LN12@xmlTextRea:

; 553  :     if (cur->oldNs != NULL) xmlFreeNsList(cur->oldNs);

	mov	eax, DWORD PTR [esi+52]
	test	eax, eax
	je	SHORT $LN13@xmlTextRea
	push	eax
	call	_xmlFreeNsList
	add	esp, 4
$LN13@xmlTextRea:

; 554  :     if (cur->URL != NULL) xmlFree((char *) cur->URL);

	mov	eax, DWORD PTR [esi+72]
	test	eax, eax
	je	SHORT $LN14@xmlTextRea
	push	eax
	call	DWORD PTR _xmlFree
	add	esp, 4
$LN14@xmlTextRea:

; 555  :     if (cur->dict != NULL) xmlDictFree(cur->dict);

	mov	eax, DWORD PTR [esi+80]
	test	eax, eax
	je	SHORT $LN15@xmlTextRea
	push	eax
	call	_xmlDictFree
	add	esp, 4
$LN15@xmlTextRea:

; 556  : 
; 557  :     xmlFree(cur);

	push	esi
	call	DWORD PTR _xmlFree
	add	esp, 4
$LN1@xmlTextRea:
	pop	esi

; 558  : }

	pop	ebp
	ret	0
_xmlTextReaderFreeDoc ENDP
_TEXT	ENDS
; Function compile flags: /Ogtp
; File c:\users\dag\documents\_clients\codeproject authors group\windows on arm\libxml2\libxml2-2.9.9\xmlreader.c
;	COMDAT _xmlTextReaderFreeIDTable
_TEXT	SEGMENT
_table$ = 8						; size = 4
_xmlTextReaderFreeIDTable PROC				; COMDAT

; 506  : xmlTextReaderFreeIDTable(xmlIDTablePtr table) {

	push	ebp
	mov	ebp, esp
	mov	ecx, OFFSET __BC13D883_xmlreader@c
	call	@__CheckForDebuggerJustMyCode@4
	push	OFFSET _xmlTextReaderFreeIDTableEntry
	push	DWORD PTR _table$[ebp]
	call	_xmlHashFree
	add	esp, 8

; 507  :     xmlHashFree(table, xmlTextReaderFreeIDTableEntry);
; 508  : }

	pop	ebp
	ret	0
_xmlTextReaderFreeIDTable ENDP
_TEXT	ENDS
; Function compile flags: /Ogtp
; File c:\users\dag\documents\_clients\codeproject authors group\windows on arm\libxml2\libxml2-2.9.9\xmlreader.c
;	COMDAT _xmlTextReaderFreeIDTableEntry
_TEXT	SEGMENT
_id$ = 8						; size = 4
_name$ = 12						; size = 4
_xmlTextReaderFreeIDTableEntry PROC			; COMDAT

; 495  : xmlTextReaderFreeIDTableEntry(void *id, const xmlChar *name ATTRIBUTE_UNUSED) {

	push	ebp
	mov	ebp, esp
	push	esi
	mov	ecx, OFFSET __BC13D883_xmlreader@c
	call	@__CheckForDebuggerJustMyCode@4

; 234  :     if (id == NULL) return;

	mov	esi, DWORD PTR _id$[ebp]
	xor	eax, eax
	test	esi, esi
	je	SHORT $LN3@xmlTextRea

; 235  : 
; 236  :     if (id->doc != NULL)

	mov	ecx, DWORD PTR [esi+20]
	test	ecx, ecx
	je	SHORT $LN5@xmlTextRea

; 237  :         dict = id->doc->dict;

	mov	eax, DWORD PTR [ecx+80]
$LN5@xmlTextRea:

; 238  : 
; 239  :     if (id->value != NULL)

	mov	ecx, DWORD PTR [esi+4]
	test	ecx, ecx
	je	SHORT $LN7@xmlTextRea

; 240  : 	DICT_FREE(id->value)

	test	eax, eax
	je	SHORT $LN8@xmlTextRea
	push	ecx
	push	eax
	call	_xmlDictOwns
	add	esp, 8
	test	eax, eax
	jne	SHORT $LN7@xmlTextRea
$LN8@xmlTextRea:
	push	DWORD PTR [esi+4]
	call	DWORD PTR _xmlFree
	add	esp, 4
$LN7@xmlTextRea:

; 241  :     xmlFree(id);

	push	esi
	call	DWORD PTR _xmlFree
	add	esp, 4
$LN3@xmlTextRea:
	pop	esi

; 496  :     xmlFreeID((xmlIDPtr) id);
; 497  : }

	pop	ebp
	ret	0
_xmlTextReaderFreeIDTableEntry ENDP
_TEXT	ENDS
; Function compile flags: /Ogtp
; File c:\users\dag\documents\_clients\codeproject authors group\windows on arm\libxml2\libxml2-2.9.9\xmlreader.c
;	COMDAT _xmlTextReaderFreePropList
_TEXT	SEGMENT
_ID$1$ = -8						; size = 4
_dict$1$ = -4						; size = 4
_reader$ = 8						; size = 4
_next$1$ = 12						; size = 4
_cur$ = 12						; size = 4
_xmlTextReaderFreePropList PROC				; COMDAT

; 327  : xmlTextReaderFreePropList(xmlTextReaderPtr reader, xmlAttrPtr cur) {

	push	ebp
	mov	ebp, esp
	sub	esp, 8
	mov	ecx, OFFSET __BC13D883_xmlreader@c
	push	esi
	call	@__CheckForDebuggerJustMyCode@4
	mov	esi, DWORD PTR _cur$[ebp]
	test	esi, esi
	je	$LN3@xmlTextRea
	push	ebx
	push	edi
	mov	edi, DWORD PTR _reader$[ebp]
$LL2@xmlTextRea:

; 328  :     xmlAttrPtr next;
; 329  : 
; 330  :     while (cur != NULL) {
; 331  :         next = cur->next;

	mov	ebx, DWORD PTR [esi+24]
	mov	DWORD PTR _next$1$[ebp], ebx

; 289  :     if ((reader != NULL) && (reader->ctxt != NULL))

	test	edi, edi
	je	SHORT $LN6@xmlTextRea
	mov	eax, DWORD PTR [edi+20]
	test	eax, eax
	je	SHORT $LN6@xmlTextRea

; 290  : 	dict = reader->ctxt->dict;

	mov	eax, DWORD PTR [eax+296]
	mov	DWORD PTR _dict$1$[ebp], eax
	jmp	SHORT $LN7@xmlTextRea
$LN6@xmlTextRea:

; 291  :     else
; 292  :         dict = NULL;

	mov	DWORD PTR _dict$1$[ebp], 0
$LN7@xmlTextRea:

; 293  :     if (cur == NULL) return;
; 294  : 
; 295  :     if ((__xmlRegisterCallbacks) && (xmlDeregisterNodeDefaultValue))

	cmp	DWORD PTR ___xmlRegisterCallbacks, 0
	je	SHORT $LN9@xmlTextRea
	call	___xmlDeregisterNodeDefaultValue
	cmp	DWORD PTR [eax], 0
	je	SHORT $LN9@xmlTextRea

; 296  : 	xmlDeregisterNodeDefaultValue((xmlNodePtr) cur);

	call	___xmlDeregisterNodeDefaultValue
	push	esi
	mov	eax, DWORD PTR [eax]
	call	eax
	add	esp, 4
$LN9@xmlTextRea:

; 297  : 
; 298  :     /* Check for ID removal -> leading to invalid references ! */
; 299  :     if ((cur->parent != NULL) && (cur->parent->doc != NULL) &&

	mov	ecx, DWORD PTR [esi+20]
	test	ecx, ecx
	je	SHORT $LN25@xmlTextRea
	mov	eax, DWORD PTR [ecx+32]
	test	eax, eax
	je	SHORT $LN25@xmlTextRea
	cmp	DWORD PTR [eax+44], 0
	jne	SHORT $LN11@xmlTextRea
	cmp	DWORD PTR [eax+48], 0
	je	SHORT $LN25@xmlTextRea
$LN11@xmlTextRea:

; 300  : 	((cur->parent->doc->intSubset != NULL) ||
; 301  : 	 (cur->parent->doc->extSubset != NULL))) {
; 302  :         if (xmlIsID(cur->parent->doc, cur->parent, cur))

	push	esi
	push	ecx
	push	eax
	call	_xmlIsID
	add	esp, 12					; 0000000cH
	test	eax, eax
	je	SHORT $LN25@xmlTextRea

; 303  : 	    xmlTextReaderRemoveID(cur->parent->doc, cur);

	mov	eax, DWORD PTR [esi+20]
	mov	eax, DWORD PTR [eax+32]

; 259  :     if (doc == NULL) return(-1);

	test	eax, eax
	je	SHORT $LN25@xmlTextRea

; 260  :     if (attr == NULL) return(-1);
; 261  :     table = (xmlIDTablePtr) doc->ids;

	mov	ebx, DWORD PTR [eax+64]

; 262  :     if (table == NULL)

	test	ebx, ebx
	je	SHORT $LN61@xmlTextRea

; 263  :         return(-1);
; 264  : 
; 265  :     ID = xmlNodeListGetString(doc, attr->children, 1);

	push	1
	push	DWORD PTR [esi+12]
	push	eax
	call	_xmlNodeListGetString
	add	esp, 12					; 0000000cH
	mov	DWORD PTR _ID$1$[ebp], eax

; 266  :     if (ID == NULL)

	test	eax, eax
	je	SHORT $LN61@xmlTextRea

; 267  : 	return(-1);
; 268  :     id = xmlHashLookup(table, ID);

	push	eax
	push	ebx
	call	_xmlHashLookup

; 269  :     xmlFree(ID);

	push	DWORD PTR _ID$1$[ebp]
	mov	ebx, eax
	call	DWORD PTR _xmlFree
	add	esp, 12					; 0000000cH

; 270  :     if (id == NULL || id->attr != attr) {

	test	ebx, ebx
	je	SHORT $LN61@xmlTextRea
	cmp	DWORD PTR [ebx+8], esi
	jne	SHORT $LN61@xmlTextRea

; 271  : 	return(-1);
; 272  :     }
; 273  :     id->name = attr->name;

	mov	eax, DWORD PTR [esi+8]
	mov	DWORD PTR [ebx+12], eax

; 274  :     id->attr = NULL;

	mov	DWORD PTR [ebx+8], 0
$LN61@xmlTextRea:

; 305  :     if (cur->children != NULL)

	mov	ebx, DWORD PTR _next$1$[ebp]
$LN25@xmlTextRea:
	mov	eax, DWORD PTR [esi+12]
	test	eax, eax
	je	SHORT $LN13@xmlTextRea

; 306  :         xmlTextReaderFreeNodeList(reader, cur->children);

	push	eax
	push	edi
	call	_xmlTextReaderFreeNodeList
	add	esp, 8
$LN13@xmlTextRea:

; 307  : 
; 308  :     DICT_FREE(cur->name);

	mov	eax, DWORD PTR [esi+8]
	test	eax, eax
	je	SHORT $LN14@xmlTextRea
	mov	ecx, DWORD PTR _dict$1$[ebp]
	test	ecx, ecx
	je	SHORT $LN15@xmlTextRea
	push	eax
	push	ecx
	call	_xmlDictOwns
	add	esp, 8
	test	eax, eax
	jne	SHORT $LN14@xmlTextRea
$LN15@xmlTextRea:
	push	DWORD PTR [esi+8]
	call	DWORD PTR _xmlFree
	add	esp, 4
$LN14@xmlTextRea:

; 309  :     if ((reader != NULL) && (reader->ctxt != NULL) &&

	test	edi, edi
	je	SHORT $LN16@xmlTextRea
	mov	eax, DWORD PTR [edi+20]
	test	eax, eax
	je	SHORT $LN16@xmlTextRea
	cmp	DWORD PTR [eax+376], 100		; 00000064H
	jge	SHORT $LN16@xmlTextRea

; 310  :         (reader->ctxt->freeAttrsNr < 100)) {
; 311  :         cur->next = reader->ctxt->freeAttrs;

	mov	eax, DWORD PTR [eax+380]
	mov	DWORD PTR [esi+24], eax

; 312  : 	reader->ctxt->freeAttrs = cur;

	mov	eax, DWORD PTR [edi+20]
	mov	DWORD PTR [eax+380], esi

; 313  : 	reader->ctxt->freeAttrsNr++;

	mov	eax, DWORD PTR [edi+20]
	inc	DWORD PTR [eax+376]

; 314  :     } else {

	jmp	SHORT $LN17@xmlTextRea
$LN16@xmlTextRea:

; 315  : 	xmlFree(cur);

	push	esi
	call	DWORD PTR _xmlFree
	add	esp, 4
$LN17@xmlTextRea:

; 332  :         xmlTextReaderFreeProp(reader, cur);
; 333  : 	cur = next;

	mov	esi, ebx
	test	ebx, ebx
	jne	$LL2@xmlTextRea
	pop	edi
	pop	ebx
$LN3@xmlTextRea:
	pop	esi

; 334  :     }
; 335  : }

	mov	esp, ebp
	pop	ebp
	ret	0
_xmlTextReaderFreePropList ENDP
_TEXT	ENDS
; Function compile flags: /Ogtp
; File c:\users\dag\documents\_clients\codeproject authors group\windows on arm\libxml2\libxml2-2.9.9\xmlreader.c
;	COMDAT _xmlTextReaderFreeProp
_TEXT	SEGMENT
_dict$1$ = 8						; size = 4
_reader$ = 8						; size = 4
_ID$1$ = 12						; size = 4
_cur$ = 12						; size = 4
_xmlTextReaderFreeProp PROC				; COMDAT

; 286  : xmlTextReaderFreeProp(xmlTextReaderPtr reader, xmlAttrPtr cur) {

	push	ebp
	mov	ebp, esp
	push	esi
	push	edi
	mov	ecx, OFFSET __BC13D883_xmlreader@c
	call	@__CheckForDebuggerJustMyCode@4
	mov	edi, DWORD PTR _reader$[ebp]
	test	edi, edi
	je	SHORT $LN2@xmlTextRea

; 287  :     xmlDictPtr dict;
; 288  : 
; 289  :     if ((reader != NULL) && (reader->ctxt != NULL))

	mov	eax, DWORD PTR [edi+20]
	test	eax, eax
	je	SHORT $LN2@xmlTextRea

; 290  : 	dict = reader->ctxt->dict;

	mov	eax, DWORD PTR [eax+296]
	mov	DWORD PTR _dict$1$[ebp], eax
	jmp	SHORT $LN3@xmlTextRea
$LN2@xmlTextRea:

; 291  :     else
; 292  :         dict = NULL;

	mov	DWORD PTR _dict$1$[ebp], 0
$LN3@xmlTextRea:

; 293  :     if (cur == NULL) return;

	mov	esi, DWORD PTR _cur$[ebp]
	test	esi, esi
	je	$LN13@xmlTextRea

; 294  : 
; 295  :     if ((__xmlRegisterCallbacks) && (xmlDeregisterNodeDefaultValue))

	cmp	DWORD PTR ___xmlRegisterCallbacks, 0
	je	SHORT $LN5@xmlTextRea
	call	___xmlDeregisterNodeDefaultValue
	cmp	DWORD PTR [eax], 0
	je	SHORT $LN5@xmlTextRea

; 296  : 	xmlDeregisterNodeDefaultValue((xmlNodePtr) cur);

	call	___xmlDeregisterNodeDefaultValue
	push	esi
	mov	eax, DWORD PTR [eax]
	call	eax
	add	esp, 4
$LN5@xmlTextRea:

; 297  : 
; 298  :     /* Check for ID removal -> leading to invalid references ! */
; 299  :     if ((cur->parent != NULL) && (cur->parent->doc != NULL) &&

	mov	ecx, DWORD PTR [esi+20]
	test	ecx, ecx
	je	SHORT $LN21@xmlTextRea
	mov	eax, DWORD PTR [ecx+32]
	test	eax, eax
	je	SHORT $LN21@xmlTextRea
	cmp	DWORD PTR [eax+44], 0
	jne	SHORT $LN7@xmlTextRea
	cmp	DWORD PTR [eax+48], 0
	je	SHORT $LN21@xmlTextRea
$LN7@xmlTextRea:

; 300  : 	((cur->parent->doc->intSubset != NULL) ||
; 301  : 	 (cur->parent->doc->extSubset != NULL))) {
; 302  :         if (xmlIsID(cur->parent->doc, cur->parent, cur))

	push	esi
	push	ecx
	push	eax
	call	_xmlIsID
	add	esp, 12					; 0000000cH
	test	eax, eax
	je	SHORT $LN21@xmlTextRea

; 303  : 	    xmlTextReaderRemoveID(cur->parent->doc, cur);

	mov	eax, DWORD PTR [esi+20]
	mov	eax, DWORD PTR [eax+32]

; 259  :     if (doc == NULL) return(-1);

	test	eax, eax
	je	SHORT $LN21@xmlTextRea

; 260  :     if (attr == NULL) return(-1);
; 261  :     table = (xmlIDTablePtr) doc->ids;

	push	ebx
	mov	ebx, DWORD PTR [eax+64]

; 262  :     if (table == NULL)

	test	ebx, ebx
	je	SHORT $LN54@xmlTextRea

; 263  :         return(-1);
; 264  : 
; 265  :     ID = xmlNodeListGetString(doc, attr->children, 1);

	push	1
	push	DWORD PTR [esi+12]
	push	eax
	call	_xmlNodeListGetString
	add	esp, 12					; 0000000cH
	mov	DWORD PTR _ID$1$[ebp], eax

; 266  :     if (ID == NULL)

	test	eax, eax
	je	SHORT $LN54@xmlTextRea

; 267  : 	return(-1);
; 268  :     id = xmlHashLookup(table, ID);

	push	eax
	push	ebx
	call	_xmlHashLookup

; 269  :     xmlFree(ID);

	push	DWORD PTR _ID$1$[ebp]
	mov	ebx, eax
	call	DWORD PTR _xmlFree
	add	esp, 12					; 0000000cH

; 270  :     if (id == NULL || id->attr != attr) {

	test	ebx, ebx
	je	SHORT $LN54@xmlTextRea
	cmp	DWORD PTR [ebx+8], esi
	jne	SHORT $LN54@xmlTextRea

; 271  : 	return(-1);
; 272  :     }
; 273  :     id->name = attr->name;

	mov	eax, DWORD PTR [esi+8]
	mov	DWORD PTR [ebx+12], eax

; 274  :     id->attr = NULL;

	mov	DWORD PTR [ebx+8], 0
$LN54@xmlTextRea:
	pop	ebx
$LN21@xmlTextRea:

; 304  :     }
; 305  :     if (cur->children != NULL)

	mov	eax, DWORD PTR [esi+12]
	test	eax, eax
	je	SHORT $LN9@xmlTextRea

; 306  :         xmlTextReaderFreeNodeList(reader, cur->children);

	push	eax
	push	edi
	call	_xmlTextReaderFreeNodeList
	add	esp, 8
$LN9@xmlTextRea:

; 307  : 
; 308  :     DICT_FREE(cur->name);

	mov	ecx, DWORD PTR [esi+8]
	test	ecx, ecx
	je	SHORT $LN10@xmlTextRea
	mov	eax, DWORD PTR _dict$1$[ebp]
	test	eax, eax
	je	SHORT $LN11@xmlTextRea
	push	ecx
	push	eax
	call	_xmlDictOwns
	add	esp, 8
	test	eax, eax
	jne	SHORT $LN10@xmlTextRea
$LN11@xmlTextRea:
	push	DWORD PTR [esi+8]
	call	DWORD PTR _xmlFree
	add	esp, 4
$LN10@xmlTextRea:

; 309  :     if ((reader != NULL) && (reader->ctxt != NULL) &&

	test	edi, edi
	je	SHORT $LN12@xmlTextRea
	mov	eax, DWORD PTR [edi+20]
	test	eax, eax
	je	SHORT $LN12@xmlTextRea
	cmp	DWORD PTR [eax+376], 100		; 00000064H
	jge	SHORT $LN12@xmlTextRea

; 310  :         (reader->ctxt->freeAttrsNr < 100)) {
; 311  :         cur->next = reader->ctxt->freeAttrs;

	mov	eax, DWORD PTR [eax+380]
	mov	DWORD PTR [esi+24], eax

; 312  : 	reader->ctxt->freeAttrs = cur;

	mov	eax, DWORD PTR [edi+20]
	mov	DWORD PTR [eax+380], esi

; 313  : 	reader->ctxt->freeAttrsNr++;

	mov	eax, DWORD PTR [edi+20]
	pop	edi

; 316  :     }
; 317  : }

	pop	esi
	inc	DWORD PTR [eax+376]
	pop	ebp
	ret	0
$LN12@xmlTextRea:

; 314  :     } else {
; 315  : 	xmlFree(cur);

	push	esi
	call	DWORD PTR _xmlFree
	add	esp, 4
$LN13@xmlTextRea:

; 316  :     }
; 317  : }

	pop	edi
	pop	esi
	pop	ebp
	ret	0
_xmlTextReaderFreeProp ENDP
_TEXT	ENDS
; Function compile flags: /Ogtp
; File c:\users\dag\documents\_clients\codeproject authors group\windows on arm\libxml2\libxml2-2.9.9\xmlreader.c
;	COMDAT _xmlTextReaderRemoveID
_TEXT	SEGMENT
_doc$ = 8						; size = 4
_attr$ = 12						; size = 4
_xmlTextReaderRemoveID PROC				; COMDAT

; 254  : xmlTextReaderRemoveID(xmlDocPtr doc, xmlAttrPtr attr) {

	push	ebp
	mov	ebp, esp
	push	ebx
	push	esi
	push	edi
	mov	ecx, OFFSET __BC13D883_xmlreader@c
	call	@__CheckForDebuggerJustMyCode@4
	mov	eax, DWORD PTR _doc$[ebp]
	test	eax, eax
	je	SHORT $LN7@xmlTextRea

; 255  :     xmlIDTablePtr table;
; 256  :     xmlIDPtr id;
; 257  :     xmlChar *ID;
; 258  : 
; 259  :     if (doc == NULL) return(-1);
; 260  :     if (attr == NULL) return(-1);

	mov	esi, DWORD PTR _attr$[ebp]
	test	esi, esi
	je	SHORT $LN7@xmlTextRea

; 261  :     table = (xmlIDTablePtr) doc->ids;

	mov	edi, DWORD PTR [eax+64]

; 262  :     if (table == NULL)

	test	edi, edi
	je	SHORT $LN7@xmlTextRea

; 263  :         return(-1);
; 264  : 
; 265  :     ID = xmlNodeListGetString(doc, attr->children, 1);

	push	1
	push	DWORD PTR [esi+12]
	push	eax
	call	_xmlNodeListGetString
	mov	ebx, eax
	add	esp, 12					; 0000000cH

; 266  :     if (ID == NULL)

	test	ebx, ebx
	je	SHORT $LN7@xmlTextRea

; 267  : 	return(-1);
; 268  :     id = xmlHashLookup(table, ID);

	push	ebx
	push	edi
	call	_xmlHashLookup

; 269  :     xmlFree(ID);

	push	ebx
	mov	edi, eax
	call	DWORD PTR _xmlFree
	add	esp, 12					; 0000000cH

; 270  :     if (id == NULL || id->attr != attr) {

	test	edi, edi
	je	SHORT $LN7@xmlTextRea
	cmp	DWORD PTR [edi+8], esi
	jne	SHORT $LN7@xmlTextRea

; 271  : 	return(-1);
; 272  :     }
; 273  :     id->name = attr->name;

	mov	eax, DWORD PTR [esi+8]
	mov	DWORD PTR [edi+12], eax

; 274  :     id->attr = NULL;
; 275  :     return(0);

	xor	eax, eax
	mov	DWORD PTR [edi+8], 0
	pop	edi

; 276  : }

	pop	esi
	pop	ebx
	pop	ebp
	ret	0
$LN7@xmlTextRea:
	pop	edi
	pop	esi
	or	eax, -1
	pop	ebx
	pop	ebp
	ret	0
_xmlTextReaderRemoveID ENDP
_TEXT	ENDS
; Function compile flags: /Ogtp
; File c:\users\dag\documents\_clients\codeproject authors group\windows on arm\libxml2\libxml2-2.9.9\xmlreader.c
;	COMDAT _xmlFreeID
_TEXT	SEGMENT
_id$ = 8						; size = 4
_xmlFreeID PROC						; COMDAT

; 231  : xmlFreeID(xmlIDPtr id) {

	push	ebp
	mov	ebp, esp
	push	esi
	mov	ecx, OFFSET __BC13D883_xmlreader@c
	call	@__CheckForDebuggerJustMyCode@4
	mov	esi, DWORD PTR _id$[ebp]
	xor	eax, eax
	test	esi, esi
	je	SHORT $LN1@xmlFreeID

; 232  :     xmlDictPtr dict = NULL;
; 233  : 
; 234  :     if (id == NULL) return;
; 235  : 
; 236  :     if (id->doc != NULL)

	mov	ecx, DWORD PTR [esi+20]
	test	ecx, ecx
	je	SHORT $LN3@xmlFreeID

; 237  :         dict = id->doc->dict;

	mov	eax, DWORD PTR [ecx+80]
$LN3@xmlFreeID:

; 238  : 
; 239  :     if (id->value != NULL)

	mov	ecx, DWORD PTR [esi+4]
	test	ecx, ecx
	je	SHORT $LN5@xmlFreeID

; 240  : 	DICT_FREE(id->value)

	test	eax, eax
	je	SHORT $LN6@xmlFreeID
	push	ecx
	push	eax
	call	_xmlDictOwns
	add	esp, 8
	test	eax, eax
	jne	SHORT $LN5@xmlFreeID
$LN6@xmlFreeID:
	push	DWORD PTR [esi+4]
	call	DWORD PTR _xmlFree
	add	esp, 4
$LN5@xmlFreeID:

; 241  :     xmlFree(id);

	push	esi
	call	DWORD PTR _xmlFree
	add	esp, 4
$LN1@xmlFreeID:
	pop	esi

; 242  : }

	pop	ebp
	ret	0
_xmlFreeID ENDP
_TEXT	ENDS
; Function compile flags: /Ogtp
; File c:\users\dag\documents\_clients\codeproject authors group\windows on arm\libxml2\libxml2-2.9.9\xmlreader.c
;	COMDAT _xmlTextReaderFreeNodeList
_TEXT	SEGMENT
_next$1$ = 8						; size = 4
_reader$ = 8						; size = 4
_cur$ = 12						; size = 4
_xmlTextReaderFreeNodeList PROC				; COMDAT

; 346  : xmlTextReaderFreeNodeList(xmlTextReaderPtr reader, xmlNodePtr cur) {

	push	ebp
	mov	ebp, esp
	push	ebx
	push	esi
	push	edi
	mov	ecx, OFFSET __BC13D883_xmlreader@c
	call	@__CheckForDebuggerJustMyCode@4
	mov	edi, DWORD PTR _reader$[ebp]
	test	edi, edi
	je	SHORT $LN4@xmlTextRea

; 347  :     xmlNodePtr next;
; 348  :     xmlDictPtr dict;
; 349  : 
; 350  :     if ((reader != NULL) && (reader->ctxt != NULL))

	mov	eax, DWORD PTR [edi+20]
	test	eax, eax
	je	SHORT $LN4@xmlTextRea

; 351  : 	dict = reader->ctxt->dict;

	mov	ebx, DWORD PTR [eax+296]
	jmp	SHORT $LN5@xmlTextRea
$LN4@xmlTextRea:

; 352  :     else
; 353  :         dict = NULL;

	xor	ebx, ebx
$LN5@xmlTextRea:

; 354  :     if (cur == NULL) return;

	mov	esi, DWORD PTR _cur$[ebp]
	test	esi, esi
	je	$LN3@xmlTextRea

; 355  :     if (cur->type == XML_NAMESPACE_DECL) {

	mov	eax, DWORD PTR [esi+4]
	cmp	eax, 18					; 00000012H
	jne	SHORT $LN7@xmlTextRea

; 356  : 	xmlFreeNsList((xmlNsPtr) cur);

	push	esi
	call	_xmlFreeNsList

; 415  :     }
; 416  : }

	add	esp, 4
	pop	edi
	pop	esi
	pop	ebx
	pop	ebp
	ret	0
$LN7@xmlTextRea:

; 357  : 	return;
; 358  :     }
; 359  :     if ((cur->type == XML_DOCUMENT_NODE) ||

	cmp	eax, 9
	je	$LN9@xmlTextRea
	cmp	eax, 13					; 0000000dH
	je	$LN9@xmlTextRea
	npad	5
$LL2@xmlTextRea:

; 362  : 	return;
; 363  :     }
; 364  :     while (cur != NULL) {
; 365  :         next = cur->next;
; 366  : 	/* unroll to speed up freeing the document */
; 367  : 	if (cur->type != XML_DTD_NODE) {

	mov	ecx, DWORD PTR [esi+4]
	mov	eax, DWORD PTR [esi+24]
	mov	DWORD PTR _next$1$[ebp], eax
	cmp	ecx, 14					; 0000000eH
	je	$LN25@xmlTextRea

; 368  : 
; 369  : 	    if ((cur->children != NULL) &&

	mov	eax, DWORD PTR [esi+12]
	test	eax, eax
	je	SHORT $LN11@xmlTextRea
	cmp	ecx, 5
	je	SHORT $LN11@xmlTextRea

; 370  : 		(cur->type != XML_ENTITY_REF_NODE)) {
; 371  : 		if (cur->children->parent == cur)

	cmp	DWORD PTR [eax+20], esi
	jne	SHORT $LN12@xmlTextRea

; 372  : 		    xmlTextReaderFreeNodeList(reader, cur->children);

	push	eax
	push	edi
	call	_xmlTextReaderFreeNodeList
	add	esp, 8
$LN12@xmlTextRea:

; 373  : 		cur->children = NULL;

	mov	DWORD PTR [esi+12], 0
$LN11@xmlTextRea:

; 374  : 	    }
; 375  : 
; 376  : 	    if ((__xmlRegisterCallbacks) && (xmlDeregisterNodeDefaultValue))

	cmp	DWORD PTR ___xmlRegisterCallbacks, 0
	je	SHORT $LN13@xmlTextRea
	call	___xmlDeregisterNodeDefaultValue
	cmp	DWORD PTR [eax], 0
	je	SHORT $LN13@xmlTextRea

; 377  : 		xmlDeregisterNodeDefaultValue(cur);

	call	___xmlDeregisterNodeDefaultValue
	push	esi
	mov	eax, DWORD PTR [eax]
	call	eax
	add	esp, 4
$LN13@xmlTextRea:

; 378  : 
; 379  : 	    if (((cur->type == XML_ELEMENT_NODE) ||
; 380  : 		 (cur->type == XML_XINCLUDE_START) ||
; 381  : 		 (cur->type == XML_XINCLUDE_END)) &&

	mov	ecx, DWORD PTR [esi+4]
	cmp	ecx, 1
	je	SHORT $LN15@xmlTextRea
	cmp	ecx, 19					; 00000013H
	je	SHORT $LN15@xmlTextRea
	cmp	ecx, 20					; 00000014H
	jne	SHORT $LN14@xmlTextRea
$LN15@xmlTextRea:
	mov	eax, DWORD PTR [esi+44]
	test	eax, eax
	je	SHORT $LN14@xmlTextRea

; 382  : 		(cur->properties != NULL))
; 383  : 		xmlTextReaderFreePropList(reader, cur->properties);

	push	eax
	push	edi
	call	_xmlTextReaderFreePropList
	mov	ecx, DWORD PTR [esi+4]
	add	esp, 8
$LN14@xmlTextRea:

; 384  : 	    if ((cur->content != (xmlChar *) &(cur->properties)) &&
; 385  : 	        (cur->type != XML_ELEMENT_NODE) &&
; 386  : 		(cur->type != XML_XINCLUDE_START) &&
; 387  : 		(cur->type != XML_XINCLUDE_END) &&

	mov	edx, DWORD PTR [esi+40]
	lea	eax, DWORD PTR [esi+44]
	cmp	edx, eax
	je	SHORT $LN17@xmlTextRea
	cmp	ecx, 1
	je	SHORT $LN17@xmlTextRea
	cmp	ecx, 19					; 00000013H
	je	SHORT $LN17@xmlTextRea
	cmp	ecx, 20					; 00000014H
	je	SHORT $LN17@xmlTextRea
	cmp	ecx, 5
	je	SHORT $LN17@xmlTextRea

; 388  : 		(cur->type != XML_ENTITY_REF_NODE)) {
; 389  : 		DICT_FREE(cur->content);

	test	edx, edx
	je	SHORT $LN17@xmlTextRea
	test	ebx, ebx
	je	SHORT $LN18@xmlTextRea
	push	edx
	push	ebx
	call	_xmlDictOwns
	add	esp, 8
	test	eax, eax
	jne	SHORT $LN17@xmlTextRea
$LN18@xmlTextRea:
	push	DWORD PTR [esi+40]
	call	DWORD PTR _xmlFree
	add	esp, 4
$LN17@xmlTextRea:

; 390  : 	    }
; 391  : 	    if (((cur->type == XML_ELEMENT_NODE) ||
; 392  : 	         (cur->type == XML_XINCLUDE_START) ||
; 393  : 		 (cur->type == XML_XINCLUDE_END)) &&

	mov	eax, DWORD PTR [esi+4]
	cmp	eax, 1
	je	SHORT $LN20@xmlTextRea
	cmp	eax, 19					; 00000013H
	je	SHORT $LN20@xmlTextRea
	cmp	eax, 20					; 00000014H
	jne	SHORT $LN19@xmlTextRea
$LN20@xmlTextRea:
	mov	ecx, DWORD PTR [esi+48]
	test	ecx, ecx
	je	SHORT $LN19@xmlTextRea

; 394  : 		(cur->nsDef != NULL))
; 395  : 		xmlFreeNsList(cur->nsDef);

	push	ecx
	call	_xmlFreeNsList
	mov	eax, DWORD PTR [esi+4]
	add	esp, 4
$LN19@xmlTextRea:

; 396  : 
; 397  : 	    /*
; 398  : 	     * we don't free element names here they are interned now
; 399  : 	     */
; 400  : 	    if ((cur->type != XML_TEXT_NODE) &&

	cmp	eax, 3
	je	SHORT $LN22@xmlTextRea
	cmp	eax, 8
	je	SHORT $LN22@xmlTextRea

; 401  : 		(cur->type != XML_COMMENT_NODE))
; 402  : 		DICT_FREE(cur->name);

	mov	eax, DWORD PTR [esi+8]
	test	eax, eax
	je	SHORT $LN22@xmlTextRea
	test	ebx, ebx
	je	SHORT $LN23@xmlTextRea
	push	eax
	push	ebx
	call	_xmlDictOwns
	add	esp, 8
	test	eax, eax
	jne	SHORT $LN22@xmlTextRea
$LN23@xmlTextRea:
	push	DWORD PTR [esi+8]
	call	DWORD PTR _xmlFree
	add	esp, 4
$LN22@xmlTextRea:

; 403  : 	    if (((cur->type == XML_ELEMENT_NODE) ||
; 404  : 		 (cur->type == XML_TEXT_NODE)) &&
; 405  : 	        (reader != NULL) && (reader->ctxt != NULL) &&

	mov	eax, DWORD PTR [esi+4]
	cmp	eax, 1
	je	SHORT $LN26@xmlTextRea
	cmp	eax, 3
	jne	SHORT $LN24@xmlTextRea
$LN26@xmlTextRea:
	test	edi, edi
	je	SHORT $LN24@xmlTextRea
	mov	eax, DWORD PTR [edi+20]
	test	eax, eax
	je	SHORT $LN24@xmlTextRea
	cmp	DWORD PTR [eax+368], 100		; 00000064H
	jge	SHORT $LN24@xmlTextRea

; 406  : 		(reader->ctxt->freeElemsNr < 100)) {
; 407  : 	        cur->next = reader->ctxt->freeElems;

	mov	eax, DWORD PTR [eax+372]
	mov	DWORD PTR [esi+24], eax

; 408  : 		reader->ctxt->freeElems = cur;

	mov	eax, DWORD PTR [edi+20]
	mov	DWORD PTR [eax+372], esi

; 409  : 		reader->ctxt->freeElemsNr++;

	mov	eax, DWORD PTR [edi+20]
	inc	DWORD PTR [eax+368]

; 410  : 	    } else {

	jmp	SHORT $LN33@xmlTextRea
$LN24@xmlTextRea:

; 411  : 		xmlFree(cur);

	push	esi
	call	DWORD PTR _xmlFree
	add	esp, 4
$LN33@xmlTextRea:

; 412  : 	    }
; 413  : 	}
; 414  : 	cur = next;

	mov	eax, DWORD PTR _next$1$[ebp]
$LN25@xmlTextRea:
	mov	esi, eax
	test	eax, eax
	jne	$LL2@xmlTextRea

; 415  :     }
; 416  : }

	pop	edi
	pop	esi
	pop	ebx
	pop	ebp
	ret	0
$LN9@xmlTextRea:

; 360  : 	(cur->type == XML_HTML_DOCUMENT_NODE)) {
; 361  : 	xmlFreeDoc((xmlDocPtr) cur);

	push	esi
	call	_xmlFreeDoc

; 415  :     }
; 416  : }

	add	esp, 4
$LN3@xmlTextRea:
	pop	edi
	pop	esi
	pop	ebx
	pop	ebp
	ret	0
_xmlTextReaderFreeNodeList ENDP
_TEXT	ENDS
; Function compile flags: /Ogtp
; File c:\users\dag\documents\_clients\codeproject authors group\windows on arm\libxml2\libxml2-2.9.9\xmlreader.c
;	COMDAT _xmlTextReaderFreeNode
_TEXT	SEGMENT
_reader$ = 8						; size = 4
_cur$ = 12						; size = 4
_xmlTextReaderFreeNode PROC				; COMDAT

; 427  : xmlTextReaderFreeNode(xmlTextReaderPtr reader, xmlNodePtr cur) {

	push	ebp
	mov	ebp, esp
	push	ebx
	push	esi
	push	edi
	mov	ecx, OFFSET __BC13D883_xmlreader@c
	call	@__CheckForDebuggerJustMyCode@4
	mov	edi, DWORD PTR _reader$[ebp]
	test	edi, edi
	je	SHORT $LN2@xmlTextRea

; 428  :     xmlDictPtr dict;
; 429  : 
; 430  :     if ((reader != NULL) && (reader->ctxt != NULL))

	mov	eax, DWORD PTR [edi+20]
	test	eax, eax
	je	SHORT $LN2@xmlTextRea

; 431  : 	dict = reader->ctxt->dict;

	mov	ebx, DWORD PTR [eax+296]
	jmp	SHORT $LN3@xmlTextRea
$LN2@xmlTextRea:

; 432  :     else
; 433  :         dict = NULL;

	xor	ebx, ebx
$LN3@xmlTextRea:

; 434  :     if (cur->type == XML_DTD_NODE) {

	mov	esi, DWORD PTR _cur$[ebp]
	mov	eax, DWORD PTR [esi+4]
	cmp	eax, 14					; 0000000eH
	jne	SHORT $LN4@xmlTextRea

; 435  : 	xmlFreeDtd((xmlDtdPtr) cur);

	push	esi
	call	_xmlFreeDtd

; 491  :     }
; 492  : }

	add	esp, 4
	pop	edi
	pop	esi
	pop	ebx
	pop	ebp
	ret	0
$LN4@xmlTextRea:

; 436  : 	return;
; 437  :     }
; 438  :     if (cur->type == XML_NAMESPACE_DECL) {

	cmp	eax, 18					; 00000012H
	jne	SHORT $LN5@xmlTextRea

; 439  : 	xmlFreeNs((xmlNsPtr) cur);

	push	esi
	call	_xmlFreeNs

; 491  :     }
; 492  : }

	add	esp, 4
	pop	edi
	pop	esi
	pop	ebx
	pop	ebp
	ret	0
$LN5@xmlTextRea:

; 440  :         return;
; 441  :     }
; 442  :     if (cur->type == XML_ATTRIBUTE_NODE) {

	cmp	eax, 2
	jne	SHORT $LN6@xmlTextRea

; 443  : 	xmlTextReaderFreeProp(reader, (xmlAttrPtr) cur);

	push	esi
	push	edi
	call	_xmlTextReaderFreeProp
	add	esp, 8
	pop	edi

; 491  :     }
; 492  : }

	pop	esi
	pop	ebx
	pop	ebp
	ret	0
$LN6@xmlTextRea:

; 444  : 	return;
; 445  :     }
; 446  : 
; 447  :     if ((cur->children != NULL) &&

	mov	ecx, DWORD PTR [esi+12]
	test	ecx, ecx
	je	SHORT $LN7@xmlTextRea
	cmp	eax, 5
	je	SHORT $LN7@xmlTextRea

; 448  : 	(cur->type != XML_ENTITY_REF_NODE)) {
; 449  : 	if (cur->children->parent == cur)

	cmp	DWORD PTR [ecx+20], esi
	jne	SHORT $LN8@xmlTextRea

; 450  : 	    xmlTextReaderFreeNodeList(reader, cur->children);

	push	ecx
	push	edi
	call	_xmlTextReaderFreeNodeList
	add	esp, 8
$LN8@xmlTextRea:

; 451  : 	cur->children = NULL;

	mov	DWORD PTR [esi+12], 0
$LN7@xmlTextRea:

; 452  :     }
; 453  : 
; 454  :     if ((__xmlRegisterCallbacks) && (xmlDeregisterNodeDefaultValue))

	cmp	DWORD PTR ___xmlRegisterCallbacks, 0
	je	SHORT $LN9@xmlTextRea
	call	___xmlDeregisterNodeDefaultValue
	cmp	DWORD PTR [eax], 0
	je	SHORT $LN9@xmlTextRea

; 455  : 	xmlDeregisterNodeDefaultValue(cur);

	call	___xmlDeregisterNodeDefaultValue
	push	esi
	mov	eax, DWORD PTR [eax]
	call	eax
	add	esp, 4
$LN9@xmlTextRea:

; 456  : 
; 457  :     if (((cur->type == XML_ELEMENT_NODE) ||
; 458  : 	 (cur->type == XML_XINCLUDE_START) ||
; 459  : 	 (cur->type == XML_XINCLUDE_END)) &&

	mov	eax, DWORD PTR [esi+4]
	cmp	eax, 1
	je	SHORT $LN11@xmlTextRea
	cmp	eax, 19					; 00000013H
	je	SHORT $LN11@xmlTextRea
	cmp	eax, 20					; 00000014H
	jne	SHORT $LN10@xmlTextRea
$LN11@xmlTextRea:
	mov	eax, DWORD PTR [esi+44]
	test	eax, eax
	je	SHORT $LN10@xmlTextRea

; 460  : 	(cur->properties != NULL))
; 461  : 	xmlTextReaderFreePropList(reader, cur->properties);

	push	eax
	push	edi
	call	_xmlTextReaderFreePropList
	add	esp, 8
$LN10@xmlTextRea:

; 462  :     if ((cur->content != (xmlChar *) &(cur->properties)) &&
; 463  :         (cur->type != XML_ELEMENT_NODE) &&
; 464  : 	(cur->type != XML_XINCLUDE_START) &&
; 465  : 	(cur->type != XML_XINCLUDE_END) &&

	mov	ecx, DWORD PTR [esi+40]
	lea	eax, DWORD PTR [esi+44]
	cmp	ecx, eax
	je	SHORT $LN13@xmlTextRea
	mov	eax, DWORD PTR [esi+4]
	cmp	eax, 1
	je	SHORT $LN13@xmlTextRea
	cmp	eax, 19					; 00000013H
	je	SHORT $LN13@xmlTextRea
	cmp	eax, 20					; 00000014H
	je	SHORT $LN13@xmlTextRea
	cmp	eax, 5
	je	SHORT $LN13@xmlTextRea

; 466  : 	(cur->type != XML_ENTITY_REF_NODE)) {
; 467  : 	DICT_FREE(cur->content);

	test	ecx, ecx
	je	SHORT $LN13@xmlTextRea
	test	ebx, ebx
	je	SHORT $LN14@xmlTextRea
	push	ecx
	push	ebx
	call	_xmlDictOwns
	add	esp, 8
	test	eax, eax
	jne	SHORT $LN13@xmlTextRea
$LN14@xmlTextRea:
	push	DWORD PTR [esi+40]
	call	DWORD PTR _xmlFree
	add	esp, 4
$LN13@xmlTextRea:

; 468  :     }
; 469  :     if (((cur->type == XML_ELEMENT_NODE) ||
; 470  : 	 (cur->type == XML_XINCLUDE_START) ||
; 471  : 	 (cur->type == XML_XINCLUDE_END)) &&

	mov	eax, DWORD PTR [esi+4]
	cmp	eax, 1
	je	SHORT $LN16@xmlTextRea
	cmp	eax, 19					; 00000013H
	je	SHORT $LN16@xmlTextRea
	cmp	eax, 20					; 00000014H
	jne	SHORT $LN15@xmlTextRea
$LN16@xmlTextRea:
	mov	ecx, DWORD PTR [esi+48]
	test	ecx, ecx
	je	SHORT $LN15@xmlTextRea

; 472  : 	(cur->nsDef != NULL))
; 473  : 	xmlFreeNsList(cur->nsDef);

	push	ecx
	call	_xmlFreeNsList
	mov	eax, DWORD PTR [esi+4]
	add	esp, 4
$LN15@xmlTextRea:

; 474  : 
; 475  :     /*
; 476  :      * we don't free names here they are interned now
; 477  :      */
; 478  :     if ((cur->type != XML_TEXT_NODE) &&

	cmp	eax, 3
	je	SHORT $LN18@xmlTextRea
	cmp	eax, 8
	je	SHORT $LN18@xmlTextRea

; 479  :         (cur->type != XML_COMMENT_NODE))
; 480  : 	DICT_FREE(cur->name);

	mov	eax, DWORD PTR [esi+8]
	test	eax, eax
	je	SHORT $LN18@xmlTextRea
	test	ebx, ebx
	je	SHORT $LN19@xmlTextRea
	push	eax
	push	ebx
	call	_xmlDictOwns
	add	esp, 8
	test	eax, eax
	jne	SHORT $LN18@xmlTextRea
$LN19@xmlTextRea:
	push	DWORD PTR [esi+8]
	call	DWORD PTR _xmlFree
	add	esp, 4
$LN18@xmlTextRea:

; 481  : 
; 482  :     if (((cur->type == XML_ELEMENT_NODE) ||
; 483  : 	 (cur->type == XML_TEXT_NODE)) &&
; 484  : 	(reader != NULL) && (reader->ctxt != NULL) &&

	mov	eax, DWORD PTR [esi+4]
	cmp	eax, 1
	je	SHORT $LN22@xmlTextRea
	cmp	eax, 3
	jne	SHORT $LN20@xmlTextRea
$LN22@xmlTextRea:
	test	edi, edi
	je	SHORT $LN20@xmlTextRea
	mov	eax, DWORD PTR [edi+20]
	test	eax, eax
	je	SHORT $LN20@xmlTextRea
	cmp	DWORD PTR [eax+368], 100		; 00000064H
	jge	SHORT $LN20@xmlTextRea

; 485  : 	(reader->ctxt->freeElemsNr < 100)) {
; 486  : 	cur->next = reader->ctxt->freeElems;

	mov	eax, DWORD PTR [eax+372]
	mov	DWORD PTR [esi+24], eax

; 487  : 	reader->ctxt->freeElems = cur;

	mov	eax, DWORD PTR [edi+20]
	mov	DWORD PTR [eax+372], esi

; 488  : 	reader->ctxt->freeElemsNr++;

	mov	eax, DWORD PTR [edi+20]
	pop	edi

; 491  :     }
; 492  : }

	pop	esi
	pop	ebx
	inc	DWORD PTR [eax+368]
	pop	ebp
	ret	0
$LN20@xmlTextRea:

; 489  :     } else {
; 490  : 	xmlFree(cur);

	push	esi
	call	DWORD PTR _xmlFree

; 491  :     }
; 492  : }

	add	esp, 4
	pop	edi
	pop	esi
	pop	ebx
	pop	ebp
	ret	0
_xmlTextReaderFreeNode ENDP
_TEXT	ENDS
; Function compile flags: /Ogtp
; File c:\users\dag\documents\_clients\codeproject authors group\windows on arm\libxml2\libxml2-2.9.9\xmlreader.c
;	COMDAT _xmlTextReaderNextTree
_TEXT	SEGMENT
_reader$ = 8						; size = 4
_xmlTextReaderNextTree PROC				; COMDAT

; 1892 : {

	push	ebp
	mov	ebp, esp
	push	esi
	mov	ecx, OFFSET __BC13D883_xmlreader@c
	call	@__CheckForDebuggerJustMyCode@4
	mov	esi, DWORD PTR _reader$[ebp]
	test	esi, esi
	jne	SHORT $LN2@xmlTextRea

; 1893 :     if (reader == NULL)
; 1894 :         return(-1);

	or	eax, -1
	pop	esi

; 1947 : 
; 1948 :     return(1);
; 1949 : }

	pop	ebp
	ret	0
$LN2@xmlTextRea:

; 1895 : 
; 1896 :     if (reader->state == XML_TEXTREADER_END)

	mov	ecx, DWORD PTR [esi+16]
	cmp	ecx, 2
	je	SHORT $LN15@xmlTextRea

; 1897 :         return(0);
; 1898 : 
; 1899 :     if (reader->node == NULL) {

	mov	eax, DWORD PTR [esi+64]
	test	eax, eax
	jne	SHORT $LN4@xmlTextRea

; 1900 :         if (reader->doc->children == NULL) {

	mov	eax, DWORD PTR [esi+4]
	mov	eax, DWORD PTR [eax+12]
	test	eax, eax
	je	SHORT $LN12@xmlTextRea
$LN14@xmlTextRea:

; 1947 : 
; 1948 :     return(1);
; 1949 : }

	mov	DWORD PTR [esi+64], eax
	mov	eax, 1
	mov	DWORD PTR [esi+16], 0
	pop	esi
	pop	ebp
	ret	0
$LN4@xmlTextRea:

; 1901 :             reader->state = XML_TEXTREADER_END;
; 1902 :             return(0);
; 1903 :         }
; 1904 : 
; 1905 :         reader->node = reader->doc->children;
; 1906 :         reader->state = XML_TEXTREADER_START;
; 1907 :         return(1);
; 1908 :     }
; 1909 : 
; 1910 :     if (reader->state != XML_TEXTREADER_BACKTRACK) {

	cmp	ecx, 4
	je	SHORT $LN6@xmlTextRea

; 1911 : 	/* Here removed traversal to child, because we want to skip the subtree,
; 1912 : 	replace with traversal to sibling to skip subtree */
; 1913 :         if (reader->node->next != 0) {

	mov	eax, DWORD PTR [eax+24]
	test	eax, eax
	jne	SHORT $LN14@xmlTextRea

; 1914 : 	    /* Move to sibling if present,skipping sub-tree */
; 1915 :             reader->node = reader->node->next;
; 1916 :             reader->state = XML_TEXTREADER_START;
; 1917 :             return(1);
; 1918 :         }
; 1919 : 
; 1920 : 	/* if reader->node->next is NULL mean no subtree for current node,
; 1921 : 	so need to move to sibling of parent node if present */
; 1922 : 	reader->state = XML_TEXTREADER_BACKTRACK;
; 1923 : 	/* This will move to parent if present */
; 1924 : 	xmlTextReaderRead(reader);

	push	esi
	mov	DWORD PTR [esi+16], 4
	call	_xmlTextReaderRead
	mov	eax, DWORD PTR [esi+64]
	add	esp, 4
$LN6@xmlTextRea:

; 1925 :     }
; 1926 : 
; 1927 :     if (reader->node->next != 0) {

	mov	ecx, DWORD PTR [eax+24]
	test	ecx, ecx
	je	SHORT $LN8@xmlTextRea

; 1928 :         reader->node = reader->node->next;

	mov	DWORD PTR [esi+64], ecx

; 1947 : 
; 1948 :     return(1);
; 1949 : }

	mov	eax, 1
	mov	DWORD PTR [esi+16], 0
	pop	esi
	pop	ebp
	ret	0
$LN8@xmlTextRea:

; 1929 :         reader->state = XML_TEXTREADER_START;
; 1930 :         return(1);
; 1931 :     }
; 1932 : 
; 1933 :     if (reader->node->parent != 0) {

	mov	eax, DWORD PTR [eax+20]
	test	eax, eax
	je	SHORT $LN9@xmlTextRea

; 1934 :         if (reader->node->parent->type == XML_DOCUMENT_NODE) {

	cmp	DWORD PTR [eax+4], 9
	jne	SHORT $LN10@xmlTextRea
$LN12@xmlTextRea:

; 1935 :             reader->state = XML_TEXTREADER_END;

	mov	DWORD PTR [esi+16], 2
$LN15@xmlTextRea:

; 1947 : 
; 1948 :     return(1);
; 1949 : }

	xor	eax, eax
	pop	esi
	pop	ebp
	ret	0
$LN10@xmlTextRea:

; 1936 :             return(0);
; 1937 :         }
; 1938 : 
; 1939 :         reader->node = reader->node->parent;
; 1940 :         reader->depth--;

	dec	DWORD PTR [esi+72]

; 1941 :         reader->state = XML_TEXTREADER_BACKTRACK;
; 1942 : 	/* Repeat process to move to sibling of parent node if present */
; 1943 :         xmlTextReaderNextTree(reader);

	push	esi
	mov	DWORD PTR [esi+64], eax
	mov	DWORD PTR [esi+16], 4
	call	_xmlTextReaderNextTree
	add	esp, 4
$LN9@xmlTextRea:

; 1944 :     }
; 1945 : 
; 1946 :     reader->state = XML_TEXTREADER_END;

	mov	DWORD PTR [esi+16], 2

; 1947 : 
; 1948 :     return(1);
; 1949 : }

	mov	eax, 1
	pop	esi
	pop	ebp
	ret	0
_xmlTextReaderNextTree ENDP
_TEXT	ENDS
; Function compile flags: /Ogtp
; File c:\users\dag\documents\_clients\codeproject authors group\windows on arm\libxml2\libxml2-2.9.9\xmlreader.c
;	COMDAT _xmlTextReaderReadTree
_TEXT	SEGMENT
_reader$ = 8						; size = 4
_xmlTextReaderReadTree PROC				; COMDAT

; 1962 : xmlTextReaderReadTree(xmlTextReaderPtr reader) {

	push	ebp
	mov	ebp, esp
	mov	ecx, OFFSET __BC13D883_xmlreader@c
	call	@__CheckForDebuggerJustMyCode@4
	mov	ecx, DWORD PTR _reader$[ebp]
	mov	edx, DWORD PTR [ecx+16]
	cmp	edx, 2
	jne	SHORT $LN19@xmlTextRea

; 1963 :     if (reader->state == XML_TEXTREADER_END)
; 1964 :         return(0);

	xor	eax, eax

; 2022 : }

	pop	ebp
	ret	0
$LN19@xmlTextRea:

; 1968 :         if (reader->doc->children == NULL) {

	mov	eax, DWORD PTR [ecx+64]
	push	esi
$next_node$27:

; 1965 : 
; 1966 : next_node:
; 1967 :     if (reader->node == NULL) {

	test	eax, eax
	jne	SHORT $LN3@xmlTextRea

; 1968 :         if (reader->doc->children == NULL) {

	mov	eax, DWORD PTR [ecx+4]
	mov	eax, DWORD PTR [eax+12]
	test	eax, eax
	je	$LN18@xmlTextRea

; 1969 :             reader->state = XML_TEXTREADER_END;
; 1970 :             return(0);
; 1971 :         }
; 1972 : 
; 1973 :         reader->node = reader->doc->children;

	mov	DWORD PTR [ecx+64], eax

; 1974 :         reader->state = XML_TEXTREADER_START;

	xor	edx, edx
	mov	DWORD PTR [ecx+16], 0

; 1975 :         goto found_node;

	jmp	$found_node$28
$LN3@xmlTextRea:

; 1976 :     }
; 1977 : 
; 1978 :     if ((reader->state != XML_TEXTREADER_BACKTRACK) &&
; 1979 :         (reader->node->type != XML_DTD_NODE) &&
; 1980 :         (reader->node->type != XML_XINCLUDE_START) &&

	cmp	edx, 4
	je	SHORT $LN7@xmlTextRea
	mov	edx, DWORD PTR [eax+4]
	cmp	edx, 14					; 0000000eH
	je	SHORT $LN7@xmlTextRea
	cmp	edx, 19					; 00000013H
	je	SHORT $LN7@xmlTextRea
	cmp	edx, 5
	je	SHORT $LN7@xmlTextRea

; 1981 : 	(reader->node->type != XML_ENTITY_REF_NODE)) {
; 1982 :         if (reader->node->children != NULL) {

	mov	esi, DWORD PTR [eax+12]
	test	esi, esi
	je	SHORT $LN6@xmlTextRea

; 1983 :             reader->node = reader->node->children;
; 1984 :             reader->depth++;

	inc	DWORD PTR [ecx+72]

; 1985 :             reader->state = XML_TEXTREADER_START;

	mov	eax, esi
	mov	DWORD PTR [ecx+64], esi
	xor	edx, edx
	mov	DWORD PTR [ecx+16], 0

; 1986 :             goto found_node;

	jmp	SHORT $found_node$28
$LN6@xmlTextRea:

; 1987 :         }
; 1988 : 
; 1989 :         if (reader->node->type == XML_ATTRIBUTE_NODE) {

	cmp	edx, 2
	jne	SHORT $LN7@xmlTextRea

; 1990 :             reader->state = XML_TEXTREADER_BACKTRACK;

	mov	DWORD PTR [ecx+16], 4
	mov	edx, 4

; 1991 :             goto found_node;

	jmp	SHORT $found_node$28
$LN7@xmlTextRea:

; 1992 :         }
; 1993 :     }
; 1994 : 
; 1995 :     if (reader->node->next != NULL) {

	mov	esi, DWORD PTR [eax+24]
	test	esi, esi
	je	SHORT $LN8@xmlTextRea

; 1996 :         reader->node = reader->node->next;

	mov	DWORD PTR [ecx+64], esi

; 1997 :         reader->state = XML_TEXTREADER_START;

	xor	edx, edx
	mov	DWORD PTR [ecx+16], 0
	mov	eax, esi

; 1998 :         goto found_node;

	jmp	SHORT $found_node$28
$LN8@xmlTextRea:

; 1999 :     }
; 2000 : 
; 2001 :     if (reader->node->parent != NULL) {

	mov	edx, DWORD PTR [eax+20]
	test	edx, edx
	je	SHORT $LN9@xmlTextRea

; 2002 :         if ((reader->node->parent->type == XML_DOCUMENT_NODE) ||

	mov	esi, DWORD PTR [edx+4]
	mov	eax, edx
	cmp	esi, 9
	je	SHORT $LN18@xmlTextRea
	cmp	esi, 13					; 0000000dH
	je	SHORT $LN18@xmlTextRea

; 2006 :         }
; 2007 : 
; 2008 :         reader->node = reader->node->parent;
; 2009 :         reader->depth--;

	dec	DWORD PTR [ecx+72]
	mov	DWORD PTR [ecx+64], edx

; 2010 :         reader->state = XML_TEXTREADER_BACKTRACK;

	mov	edx, 4
	mov	DWORD PTR [ecx+16], 4

; 2011 :         goto found_node;

	jmp	SHORT $found_node$28
$LN9@xmlTextRea:

; 2012 :     }
; 2013 : 
; 2014 :     reader->state = XML_TEXTREADER_END;

	mov	DWORD PTR [ecx+16], 2
	mov	edx, 2
$found_node$28:

; 2015 : 
; 2016 : found_node:
; 2017 :     if ((reader->node->type == XML_XINCLUDE_START) ||

	mov	esi, DWORD PTR [eax+4]
	cmp	esi, 19					; 00000013H
	je	$next_node$27
	cmp	esi, 20					; 00000014H
	je	$next_node$27

; 2018 :         (reader->node->type == XML_XINCLUDE_END))
; 2019 : 	goto next_node;
; 2020 : 
; 2021 :     return(1);

	mov	eax, 1
	pop	esi

; 2022 : }

	pop	ebp
	ret	0
$LN18@xmlTextRea:

; 2003 : 	    (reader->node->parent->type == XML_HTML_DOCUMENT_NODE)) {
; 2004 :             reader->state = XML_TEXTREADER_END;

	mov	DWORD PTR [ecx+16], 2

; 2005 :             return(0);

	xor	eax, eax
	pop	esi

; 2022 : }

	pop	ebp
	ret	0
_xmlTextReaderReadTree ENDP
_TEXT	ENDS
; Function compile flags: /Ogtp
; File c:\users\dag\documents\_clients\codeproject authors group\windows on arm\libxml2\libxml2-2.9.9\xmlreader.c
;	COMDAT _xmlTextReaderGetErrorHandler
_TEXT	SEGMENT
_reader$ = 8						; size = 4
_f$ = 12						; size = 4
_arg$ = 16						; size = 4
_xmlTextReaderGetErrorHandler PROC			; COMDAT

; 5096 : {

	push	ebp
	mov	ebp, esp
	mov	ecx, OFFSET __BC13D883_xmlreader@c
	call	@__CheckForDebuggerJustMyCode@4
	mov	ecx, DWORD PTR _f$[ebp]
	mov	edx, DWORD PTR _reader$[ebp]
	test	ecx, ecx
	je	SHORT $LN2@xmlTextRea

; 5097 :     if (f != NULL)
; 5098 :         *f = reader->errorFunc;

	mov	eax, DWORD PTR [edx+108]
	mov	DWORD PTR [ecx], eax
$LN2@xmlTextRea:

; 5099 :     if (arg != NULL)

	mov	ecx, DWORD PTR _arg$[ebp]
	test	ecx, ecx
	je	SHORT $LN3@xmlTextRea

; 5100 :         *arg = reader->errorFuncArg;

	mov	eax, DWORD PTR [edx+112]
	mov	DWORD PTR [ecx], eax
$LN3@xmlTextRea:

; 5101 : }

	pop	ebp
	ret	0
_xmlTextReaderGetErrorHandler ENDP
_TEXT	ENDS
; Function compile flags: /Ogtp
; File c:\users\dag\documents\_clients\codeproject authors group\windows on arm\libxml2\libxml2-2.9.9\xmlreader.c
;	COMDAT _xmlTextReaderSetStructuredErrorHandler
_TEXT	SEGMENT
_reader$ = 8						; size = 4
_f$ = 12						; size = 4
_arg$ = 16						; size = 4
_xmlTextReaderSetStructuredErrorHandler PROC		; COMDAT

; 5008 : {

	push	ebp
	mov	ebp, esp
	push	esi
	mov	ecx, OFFSET __BC13D883_xmlreader@c
	call	@__CheckForDebuggerJustMyCode@4
	mov	esi, DWORD PTR _reader$[ebp]
	mov	ecx, DWORD PTR _f$[ebp]
	mov	eax, DWORD PTR [esi+20]
	mov	eax, DWORD PTR [eax]
	test	ecx, ecx
	je	$LN2@xmlTextRea

; 5009 :     if (f != NULL) {
; 5010 :         reader->ctxt->sax->error = NULL;
; 5011 :         reader->ctxt->sax->serror = xmlTextReaderStructuredError;

	mov	DWORD PTR [eax+88], 0
	mov	eax, DWORD PTR [esi+20]
	mov	eax, DWORD PTR [eax]
	mov	DWORD PTR [eax+124], OFFSET _xmlTextReaderStructuredError

; 5012 :         reader->ctxt->vctxt.error = xmlTextReaderValidityError;

	mov	eax, DWORD PTR [esi+20]
	mov	DWORD PTR [eax+112], OFFSET _xmlTextReaderValidityError

; 5013 :         reader->ctxt->sax->warning = xmlTextReaderWarning;

	mov	eax, DWORD PTR [esi+20]
	mov	eax, DWORD PTR [eax]
	mov	DWORD PTR [eax+84], OFFSET _xmlTextReaderWarning

; 5014 :         reader->ctxt->vctxt.warning = xmlTextReaderValidityWarning;

	mov	eax, DWORD PTR [esi+20]
	mov	DWORD PTR [eax+116], OFFSET _xmlTextReaderValidityWarning

; 5015 :         reader->sErrorFunc = f;
; 5016 :         reader->errorFunc = NULL;
; 5017 :         reader->errorFuncArg = arg;

	mov	eax, DWORD PTR _arg$[ebp]
	mov	DWORD PTR [esi+112], eax

; 5018 : #ifdef LIBXML_SCHEMAS_ENABLED
; 5019 :         if (reader->rngValidCtxt) {

	mov	eax, DWORD PTR [esi+120]
	mov	DWORD PTR [esi+192], ecx
	mov	DWORD PTR [esi+108], 0
	test	eax, eax
	je	SHORT $LN4@xmlTextRea

; 5020 :             xmlRelaxNGSetValidErrors(reader->rngValidCtxt, NULL, NULL,

	push	esi
	push	0
	push	0
	push	eax
	call	_xmlRelaxNGSetValidErrors

; 5021 :                                      reader);
; 5022 :             xmlRelaxNGSetValidStructuredErrors(reader->rngValidCtxt,

	push	esi
	push	OFFSET _xmlTextReaderValidityStructuredRelay
	push	DWORD PTR [esi+120]
	call	_xmlRelaxNGSetValidStructuredErrors
	add	esp, 28					; 0000001cH
$LN4@xmlTextRea:

; 5023 :                                         xmlTextReaderValidityStructuredRelay,
; 5024 :                                                reader);
; 5025 :         }
; 5026 :         if (reader->xsdValidCtxt) {

	mov	eax, DWORD PTR [esi+140]
	test	eax, eax
	je	$LN7@xmlTextRea

; 5027 :             xmlSchemaSetValidErrors(reader->xsdValidCtxt, NULL, NULL,

	push	esi
	push	0
	push	0
	push	eax
	call	_xmlSchemaSetValidErrors

; 5028 :                                     reader);
; 5029 :             xmlSchemaSetValidStructuredErrors(reader->xsdValidCtxt,

	push	esi
	push	OFFSET _xmlTextReaderValidityStructuredRelay

; 5055 :                                               reader);
; 5056 :         }
; 5057 : #endif
; 5058 :     }
; 5059 : }

	push	DWORD PTR [esi+140]
	call	_xmlSchemaSetValidStructuredErrors
	add	esp, 28					; 0000001cH
	pop	esi
	pop	ebp
	ret	0
$LN2@xmlTextRea:

; 5030 :                                        xmlTextReaderValidityStructuredRelay,
; 5031 :                                               reader);
; 5032 :         }
; 5033 : #endif
; 5034 :     } else {
; 5035 :         /* restore defaults */
; 5036 :         reader->ctxt->sax->error = xmlParserError;

	mov	DWORD PTR [eax+88], OFFSET _xmlParserError

; 5037 :         reader->ctxt->sax->serror = NULL;

	mov	eax, DWORD PTR [esi+20]
	mov	eax, DWORD PTR [eax]
	mov	DWORD PTR [eax+124], 0

; 5038 :         reader->ctxt->vctxt.error = xmlParserValidityError;

	mov	eax, DWORD PTR [esi+20]
	mov	DWORD PTR [eax+112], OFFSET _xmlParserValidityError

; 5039 :         reader->ctxt->sax->warning = xmlParserWarning;

	mov	eax, DWORD PTR [esi+20]
	mov	eax, DWORD PTR [eax]
	mov	DWORD PTR [eax+84], OFFSET _xmlParserWarning

; 5040 :         reader->ctxt->vctxt.warning = xmlParserValidityWarning;

	mov	eax, DWORD PTR [esi+20]
	mov	DWORD PTR [eax+116], OFFSET _xmlParserValidityWarning

; 5041 :         reader->errorFunc = NULL;
; 5042 :         reader->sErrorFunc = NULL;
; 5043 :         reader->errorFuncArg = NULL;
; 5044 : #ifdef LIBXML_SCHEMAS_ENABLED
; 5045 :         if (reader->rngValidCtxt) {

	mov	eax, DWORD PTR [esi+120]
	mov	DWORD PTR [esi+108], 0
	mov	DWORD PTR [esi+192], 0
	mov	DWORD PTR [esi+112], 0
	test	eax, eax
	je	SHORT $LN6@xmlTextRea

; 5046 :             xmlRelaxNGSetValidErrors(reader->rngValidCtxt, NULL, NULL,

	push	esi
	push	0
	push	0
	push	eax
	call	_xmlRelaxNGSetValidErrors

; 5047 :                                      reader);
; 5048 :             xmlRelaxNGSetValidStructuredErrors(reader->rngValidCtxt, NULL,

	push	esi
	push	0
	push	DWORD PTR [esi+120]
	call	_xmlRelaxNGSetValidStructuredErrors
	add	esp, 28					; 0000001cH
$LN6@xmlTextRea:

; 5049 :                                                reader);
; 5050 :         }
; 5051 :         if (reader->xsdValidCtxt) {

	mov	eax, DWORD PTR [esi+140]
	test	eax, eax
	je	SHORT $LN7@xmlTextRea

; 5052 :             xmlSchemaSetValidErrors(reader->xsdValidCtxt, NULL, NULL,

	push	esi
	push	0
	push	0
	push	eax
	call	_xmlSchemaSetValidErrors

; 5053 :                                     reader);
; 5054 :             xmlSchemaSetValidStructuredErrors(reader->xsdValidCtxt, NULL,

	push	esi
	push	0

; 5055 :                                               reader);
; 5056 :         }
; 5057 : #endif
; 5058 :     }
; 5059 : }

	push	DWORD PTR [esi+140]
	call	_xmlSchemaSetValidStructuredErrors
	add	esp, 28					; 0000001cH
$LN7@xmlTextRea:
	pop	esi
	pop	ebp
	ret	0
_xmlTextReaderSetStructuredErrorHandler ENDP
_TEXT	ENDS
; Function compile flags: /Ogtp
; File c:\users\dag\documents\_clients\codeproject authors group\windows on arm\libxml2\libxml2-2.9.9\xmlreader.c
;	COMDAT _xmlTextReaderSetErrorHandler
_TEXT	SEGMENT
_reader$ = 8						; size = 4
_f$ = 12						; size = 4
_arg$ = 16						; size = 4
_xmlTextReaderSetErrorHandler PROC			; COMDAT

; 4941 : {

	push	ebp
	mov	ebp, esp
	push	esi
	mov	ecx, OFFSET __BC13D883_xmlreader@c
	call	@__CheckForDebuggerJustMyCode@4
	mov	esi, DWORD PTR _reader$[ebp]
	mov	ecx, DWORD PTR _f$[ebp]
	mov	eax, DWORD PTR [esi+20]
	mov	eax, DWORD PTR [eax]
	test	ecx, ecx
	je	$LN2@xmlTextRea

; 4942 :     if (f != NULL) {
; 4943 :         reader->ctxt->sax->error = xmlTextReaderError;
; 4944 :         reader->ctxt->sax->serror = NULL;

	mov	DWORD PTR [eax+88], OFFSET _xmlTextReaderError
	mov	eax, DWORD PTR [esi+20]
	mov	eax, DWORD PTR [eax]
	mov	DWORD PTR [eax+124], 0

; 4945 :         reader->ctxt->vctxt.error = xmlTextReaderValidityError;

	mov	eax, DWORD PTR [esi+20]
	mov	DWORD PTR [eax+112], OFFSET _xmlTextReaderValidityError

; 4946 :         reader->ctxt->sax->warning = xmlTextReaderWarning;

	mov	eax, DWORD PTR [esi+20]
	mov	eax, DWORD PTR [eax]
	mov	DWORD PTR [eax+84], OFFSET _xmlTextReaderWarning

; 4947 :         reader->ctxt->vctxt.warning = xmlTextReaderValidityWarning;

	mov	eax, DWORD PTR [esi+20]
	mov	DWORD PTR [eax+116], OFFSET _xmlTextReaderValidityWarning

; 4948 :         reader->errorFunc = f;
; 4949 :         reader->sErrorFunc = NULL;
; 4950 :         reader->errorFuncArg = arg;

	mov	eax, DWORD PTR _arg$[ebp]
	mov	DWORD PTR [esi+112], eax

; 4951 : #ifdef LIBXML_SCHEMAS_ENABLED
; 4952 :         if (reader->rngValidCtxt) {

	mov	eax, DWORD PTR [esi+120]
	mov	DWORD PTR [esi+108], ecx
	mov	DWORD PTR [esi+192], 0
	test	eax, eax
	je	SHORT $LN4@xmlTextRea

; 4953 :             xmlRelaxNGSetValidErrors(reader->rngValidCtxt,

	push	esi
	push	OFFSET _xmlTextReaderValidityWarningRelay
	push	OFFSET _xmlTextReaderValidityErrorRelay
	push	eax
	call	_xmlRelaxNGSetValidErrors

; 4954 :                                      xmlTextReaderValidityErrorRelay,
; 4955 :                                      xmlTextReaderValidityWarningRelay,
; 4956 :                                      reader);
; 4957 :             xmlRelaxNGSetValidStructuredErrors(reader->rngValidCtxt, NULL,

	push	esi
	push	0
	push	DWORD PTR [esi+120]
	call	_xmlRelaxNGSetValidStructuredErrors
	add	esp, 28					; 0000001cH
$LN4@xmlTextRea:

; 4958 :                                                reader);
; 4959 :         }
; 4960 :         if (reader->xsdValidCtxt) {

	mov	eax, DWORD PTR [esi+140]
	test	eax, eax
	je	$LN7@xmlTextRea

; 4961 :             xmlSchemaSetValidErrors(reader->xsdValidCtxt,

	push	esi
	push	OFFSET _xmlTextReaderValidityWarningRelay
	push	OFFSET _xmlTextReaderValidityErrorRelay

; 4962 :                                     xmlTextReaderValidityErrorRelay,
; 4963 :                                     xmlTextReaderValidityWarningRelay,
; 4964 :                                     reader);
; 4965 :             xmlSchemaSetValidStructuredErrors(reader->xsdValidCtxt, NULL,
; 4966 :                                               reader);
; 4967 :         }
; 4968 : #endif
; 4969 :     } else {

	jmp	SHORT $LN9@xmlTextRea
$LN2@xmlTextRea:

; 4970 :         /* restore defaults */
; 4971 :         reader->ctxt->sax->error = xmlParserError;

	mov	DWORD PTR [eax+88], OFFSET _xmlParserError

; 4972 :         reader->ctxt->vctxt.error = xmlParserValidityError;

	mov	eax, DWORD PTR [esi+20]
	mov	DWORD PTR [eax+112], OFFSET _xmlParserValidityError

; 4973 :         reader->ctxt->sax->warning = xmlParserWarning;

	mov	eax, DWORD PTR [esi+20]
	mov	eax, DWORD PTR [eax]
	mov	DWORD PTR [eax+84], OFFSET _xmlParserWarning

; 4974 :         reader->ctxt->vctxt.warning = xmlParserValidityWarning;

	mov	eax, DWORD PTR [esi+20]
	mov	DWORD PTR [eax+116], OFFSET _xmlParserValidityWarning

; 4975 :         reader->errorFunc = NULL;
; 4976 :         reader->sErrorFunc = NULL;
; 4977 :         reader->errorFuncArg = NULL;
; 4978 : #ifdef LIBXML_SCHEMAS_ENABLED
; 4979 :         if (reader->rngValidCtxt) {

	mov	eax, DWORD PTR [esi+120]
	mov	DWORD PTR [esi+108], 0
	mov	DWORD PTR [esi+192], 0
	mov	DWORD PTR [esi+112], 0
	test	eax, eax
	je	SHORT $LN6@xmlTextRea

; 4980 :             xmlRelaxNGSetValidErrors(reader->rngValidCtxt, NULL, NULL,

	push	esi
	push	0
	push	0
	push	eax
	call	_xmlRelaxNGSetValidErrors

; 4981 :                                      reader);
; 4982 :             xmlRelaxNGSetValidStructuredErrors(reader->rngValidCtxt, NULL,

	push	esi
	push	0
	push	DWORD PTR [esi+120]
	call	_xmlRelaxNGSetValidStructuredErrors
	add	esp, 28					; 0000001cH
$LN6@xmlTextRea:

; 4983 :                                                reader);
; 4984 :         }
; 4985 :         if (reader->xsdValidCtxt) {

	mov	eax, DWORD PTR [esi+140]
	test	eax, eax
	je	SHORT $LN7@xmlTextRea

; 4986 :             xmlSchemaSetValidErrors(reader->xsdValidCtxt, NULL, NULL,

	push	esi
	push	0
	push	0
$LN9@xmlTextRea:

; 4987 :                                     reader);
; 4988 :             xmlSchemaSetValidStructuredErrors(reader->xsdValidCtxt, NULL,
; 4989 :                                               reader);
; 4990 :         }
; 4991 : #endif
; 4992 :     }
; 4993 : }

	push	eax
	call	_xmlSchemaSetValidErrors
	push	esi
	push	0
	push	DWORD PTR [esi+140]
	call	_xmlSchemaSetValidStructuredErrors
	add	esp, 28					; 0000001cH
$LN7@xmlTextRea:
	pop	esi
	pop	ebp
	ret	0
_xmlTextReaderSetErrorHandler ENDP
_TEXT	ENDS
; Function compile flags: /Ogtp
; File c:\users\dag\documents\_clients\codeproject authors group\windows on arm\libxml2\libxml2-2.9.9\xmlreader.c
;	COMDAT _xmlTextReaderLocatorBaseURI
_TEXT	SEGMENT
_locator$ = 8						; size = 4
_xmlTextReaderLocatorBaseURI PROC			; COMDAT

; 4808 : xmlTextReaderLocatorBaseURI(xmlTextReaderLocatorPtr locator) {

	push	ebp
	mov	ebp, esp
	mov	ecx, OFFSET __BC13D883_xmlreader@c
	call	@__CheckForDebuggerJustMyCode@4
	mov	eax, DWORD PTR _locator$[ebp]
	test	eax, eax
	je	SHORT $LN6@xmlTextRea

; 4809 :     /* we know that locator is a xmlParserCtxtPtr */
; 4810 :     xmlParserCtxtPtr ctx = (xmlParserCtxtPtr)locator;
; 4811 :     xmlChar *ret = NULL;
; 4812 : 
; 4813 :     if (locator == NULL)
; 4814 :         return(NULL);
; 4815 :     if (ctx->node != NULL) {

	mov	ecx, DWORD PTR [eax+52]
	test	ecx, ecx
	je	SHORT $LN3@xmlTextRea

; 4816 : 	ret = xmlNodeGetBase(NULL,ctx->node);

	push	ecx
	push	0
	call	_xmlNodeGetBase
	add	esp, 8

; 4826 : 	}
; 4827 : 	else {
; 4828 : 	    ret = NULL;
; 4829 : 	}
; 4830 :     }
; 4831 : 
; 4832 :     return ret;
; 4833 : }

	pop	ebp
	ret	0
$LN3@xmlTextRea:

; 4817 :     }
; 4818 :     else {
; 4819 : 	/* inspired from error.c */
; 4820 : 	xmlParserInputPtr input;
; 4821 : 	input = ctx->input;

	mov	ecx, DWORD PTR [eax+36]

; 4822 : 	if ((input->filename == NULL) && (ctx->inputNr > 1))

	cmp	DWORD PTR [ecx+4], 0
	jne	SHORT $LN5@xmlTextRea
	mov	edx, DWORD PTR [eax+40]
	cmp	edx, 1
	jle	SHORT $LN5@xmlTextRea

; 4823 : 	    input = ctx->inputTab[ctx->inputNr - 2];

	mov	eax, DWORD PTR [eax+48]
	mov	ecx, DWORD PTR [eax+edx*4-8]
$LN5@xmlTextRea:

; 4824 : 	if (input != NULL) {

	test	ecx, ecx
	je	SHORT $LN6@xmlTextRea

; 4825 : 	    ret = xmlStrdup(BAD_CAST input->filename);

	push	DWORD PTR [ecx+4]
	call	_xmlStrdup
	add	esp, 4

; 4826 : 	}
; 4827 : 	else {
; 4828 : 	    ret = NULL;
; 4829 : 	}
; 4830 :     }
; 4831 : 
; 4832 :     return ret;
; 4833 : }

	pop	ebp
	ret	0
$LN6@xmlTextRea:
	xor	eax, eax
	pop	ebp
	ret	0
_xmlTextReaderLocatorBaseURI ENDP
_TEXT	ENDS
; Function compile flags: /Ogtp
; File c:\users\dag\documents\_clients\codeproject authors group\windows on arm\libxml2\libxml2-2.9.9\xmlreader.c
;	COMDAT _xmlTextReaderLocatorLineNumber
_TEXT	SEGMENT
_locator$ = 8						; size = 4
_xmlTextReaderLocatorLineNumber PROC			; COMDAT

; 4771 : xmlTextReaderLocatorLineNumber(xmlTextReaderLocatorPtr locator) {

	push	ebp
	mov	ebp, esp
	mov	ecx, OFFSET __BC13D883_xmlreader@c
	call	@__CheckForDebuggerJustMyCode@4
	mov	eax, DWORD PTR _locator$[ebp]
	test	eax, eax
	je	SHORT $LN6@xmlTextRea

; 4772 :     /* we know that locator is a xmlParserCtxtPtr */
; 4773 :     xmlParserCtxtPtr ctx = (xmlParserCtxtPtr)locator;
; 4774 :     int ret = -1;
; 4775 : 
; 4776 :     if (locator == NULL)
; 4777 :         return(-1);
; 4778 :     if (ctx->node != NULL) {

	mov	ecx, DWORD PTR [eax+52]
	test	ecx, ecx
	je	SHORT $LN3@xmlTextRea

; 4779 : 	ret = xmlGetLineNo(ctx->node);

	mov	DWORD PTR _locator$[ebp], ecx

; 4789 : 	}
; 4790 : 	else {
; 4791 : 	    ret = -1;
; 4792 : 	}
; 4793 :     }
; 4794 : 
; 4795 :     return ret;
; 4796 : }

	pop	ebp

; 4779 : 	ret = xmlGetLineNo(ctx->node);

	jmp	_xmlGetLineNo
$LN3@xmlTextRea:

; 4780 :     }
; 4781 :     else {
; 4782 : 	/* inspired from error.c */
; 4783 : 	xmlParserInputPtr input;
; 4784 : 	input = ctx->input;

	mov	ecx, DWORD PTR [eax+36]

; 4785 : 	if ((input->filename == NULL) && (ctx->inputNr > 1))

	cmp	DWORD PTR [ecx+4], 0
	jne	SHORT $LN5@xmlTextRea
	mov	edx, DWORD PTR [eax+40]
	cmp	edx, 1
	jle	SHORT $LN5@xmlTextRea

; 4786 : 	    input = ctx->inputTab[ctx->inputNr - 2];

	mov	eax, DWORD PTR [eax+48]
	mov	ecx, DWORD PTR [eax+edx*4-8]
$LN5@xmlTextRea:

; 4787 : 	if (input != NULL) {

	test	ecx, ecx
	je	SHORT $LN6@xmlTextRea

; 4788 : 	    ret = input->line;

	mov	eax, DWORD PTR [ecx+28]

; 4789 : 	}
; 4790 : 	else {
; 4791 : 	    ret = -1;
; 4792 : 	}
; 4793 :     }
; 4794 : 
; 4795 :     return ret;
; 4796 : }

	pop	ebp
	ret	0
$LN6@xmlTextRea:
	or	eax, -1
	pop	ebp
	ret	0
_xmlTextReaderLocatorLineNumber ENDP
_TEXT	ENDS
; Function compile flags: /Ogtp
; File c:\users\dag\documents\_clients\codeproject authors group\windows on arm\libxml2\libxml2-2.9.9\xmlreader.c
;	COMDAT _xmlReaderNewIO
_TEXT	SEGMENT
_reader$ = 8						; size = 4
_ioread$ = 12						; size = 4
_ioclose$ = 16						; size = 4
_ioctx$ = 20						; size = 4
_URL$ = 24						; size = 4
_encoding$ = 28						; size = 4
_options$ = 32						; size = 4
_xmlReaderNewIO PROC					; COMDAT

; 5732 : {

	push	ebp
	mov	ebp, esp
	push	esi
	mov	ecx, OFFSET __BC13D883_xmlreader@c
	call	@__CheckForDebuggerJustMyCode@4
	mov	eax, DWORD PTR _ioread$[ebp]
	test	eax, eax
	je	SHORT $LN5@xmlReaderN

; 5733 :     xmlParserInputBufferPtr input;
; 5734 : 
; 5735 :     if (ioread == NULL)
; 5736 :         return (-1);
; 5737 :     if (reader == NULL)

	cmp	DWORD PTR _reader$[ebp], 0
	je	SHORT $LN5@xmlReaderN

; 5738 :         return (-1);
; 5739 : 
; 5740 :     input = xmlParserInputBufferCreateIO(ioread, ioclose, ioctx,

	mov	esi, DWORD PTR _ioclose$[ebp]
	push	0
	push	DWORD PTR _ioctx$[ebp]
	push	esi
	push	eax
	call	_xmlParserInputBufferCreateIO
	add	esp, 16					; 00000010H

; 5741 :                                          XML_CHAR_ENCODING_NONE);
; 5742 :     if (input == NULL) {

	test	eax, eax
	jne	SHORT $LN4@xmlReaderN

; 5743 :         if (ioclose != NULL)

	test	esi, esi
	je	SHORT $LN5@xmlReaderN

; 5744 :             ioclose(ioctx);

	push	DWORD PTR _ioctx$[ebp]
	call	esi
	add	esp, 4
$LN5@xmlReaderN:

; 5745 :         return (-1);

	or	eax, -1
	pop	esi

; 5748 : }

	pop	ebp
	ret	0
$LN4@xmlReaderN:

; 5746 :     }
; 5747 :     return (xmlTextReaderSetup(reader, input, URL, encoding, options));

	push	DWORD PTR _options$[ebp]
	push	DWORD PTR _encoding$[ebp]
	push	DWORD PTR _URL$[ebp]
	push	eax
	push	DWORD PTR _reader$[ebp]
	call	_xmlTextReaderSetup
	add	esp, 20					; 00000014H
	pop	esi

; 5748 : }

	pop	ebp
	ret	0
_xmlReaderNewIO ENDP
_TEXT	ENDS
; Function compile flags: /Ogtp
; File c:\users\dag\documents\_clients\codeproject authors group\windows on arm\libxml2\libxml2-2.9.9\xmlreader.c
;	COMDAT _xmlReaderNewFd
_TEXT	SEGMENT
_reader$ = 8						; size = 4
_fd$ = 12						; size = 4
_URL$ = 16						; size = 4
_encoding$ = 20						; size = 4
_options$ = 24						; size = 4
_xmlReaderNewFd PROC					; COMDAT

; 5696 : {

	push	ebp
	mov	ebp, esp
	mov	ecx, OFFSET __BC13D883_xmlreader@c
	call	@__CheckForDebuggerJustMyCode@4
	mov	eax, DWORD PTR _fd$[ebp]
	test	eax, eax
	js	SHORT $LN6@xmlReaderN

; 5697 :     xmlParserInputBufferPtr input;
; 5698 : 
; 5699 :     if (fd < 0)
; 5700 :         return (-1);
; 5701 :     if (reader == NULL)

	cmp	DWORD PTR _reader$[ebp], 0
	je	SHORT $LN6@xmlReaderN

; 5702 :         return (-1);
; 5703 : 
; 5704 :     input = xmlParserInputBufferCreateFd(fd, XML_CHAR_ENCODING_NONE);

	push	0
	push	eax
	call	_xmlParserInputBufferCreateFd
	add	esp, 8

; 5705 :     if (input == NULL)

	test	eax, eax
	je	SHORT $LN6@xmlReaderN

; 5707 :     input->closecallback = NULL;

	mov	DWORD PTR [eax+8], 0

; 5708 :     return (xmlTextReaderSetup(reader, input, URL, encoding, options));

	mov	DWORD PTR _fd$[ebp], eax

; 5709 : }

	pop	ebp

; 5708 :     return (xmlTextReaderSetup(reader, input, URL, encoding, options));

	jmp	_xmlTextReaderSetup
$LN6@xmlReaderN:

; 5706 :         return (-1);

	or	eax, -1

; 5709 : }

	pop	ebp
	ret	0
_xmlReaderNewFd ENDP
_TEXT	ENDS
; Function compile flags: /Ogtp
; File c:\users\dag\documents\_clients\codeproject authors group\windows on arm\libxml2\libxml2-2.9.9\xmlreader.c
;	COMDAT _xmlReaderNewMemory
_TEXT	SEGMENT
_reader$ = 8						; size = 4
_buffer$ = 12						; size = 4
_size$ = 16						; size = 4
_URL$ = 20						; size = 4
_encoding$ = 24						; size = 4
_options$ = 28						; size = 4
_xmlReaderNewMemory PROC				; COMDAT

; 5661 : {

	push	ebp
	mov	ebp, esp
	mov	ecx, OFFSET __BC13D883_xmlreader@c
	call	@__CheckForDebuggerJustMyCode@4
	cmp	DWORD PTR _reader$[ebp], 0
	je	SHORT $LN6@xmlReaderN

; 5662 :     xmlParserInputBufferPtr input;
; 5663 : 
; 5664 :     if (reader == NULL)
; 5665 :         return (-1);
; 5666 :     if (buffer == NULL)

	mov	eax, DWORD PTR _buffer$[ebp]
	test	eax, eax
	je	SHORT $LN6@xmlReaderN

; 5667 :         return (-1);
; 5668 : 
; 5669 :     input = xmlParserInputBufferCreateStatic(buffer, size,

	push	0
	push	DWORD PTR _size$[ebp]
	push	eax
	call	_xmlParserInputBufferCreateStatic
	add	esp, 12					; 0000000cH

; 5670 :                                       XML_CHAR_ENCODING_NONE);
; 5671 :     if (input == NULL) {

	test	eax, eax
	je	SHORT $LN6@xmlReaderN

; 5673 :     }
; 5674 :     return (xmlTextReaderSetup(reader, input, URL, encoding, options));

	push	DWORD PTR _options$[ebp]
	push	DWORD PTR _encoding$[ebp]
	push	DWORD PTR _URL$[ebp]
	push	eax
	push	DWORD PTR _reader$[ebp]
	call	_xmlTextReaderSetup
	add	esp, 20					; 00000014H

; 5675 : }

	pop	ebp
	ret	0
$LN6@xmlReaderN:

; 5672 :         return (-1);

	or	eax, -1

; 5675 : }

	pop	ebp
	ret	0
_xmlReaderNewMemory ENDP
_TEXT	ENDS
; Function compile flags: /Ogtp
; File c:\users\dag\documents\_clients\codeproject authors group\windows on arm\libxml2\libxml2-2.9.9\xmlreader.c
;	COMDAT _xmlReaderNewFile
_TEXT	SEGMENT
_reader$ = 8						; size = 4
_filename$ = 12						; size = 4
_encoding$ = 16						; size = 4
_options$ = 20						; size = 4
_xmlReaderNewFile PROC					; COMDAT

; 5627 : {

	push	ebp
	mov	ebp, esp
	push	esi
	mov	ecx, OFFSET __BC13D883_xmlreader@c
	call	@__CheckForDebuggerJustMyCode@4
	mov	esi, DWORD PTR _filename$[ebp]
	test	esi, esi
	je	SHORT $LN6@xmlReaderN

; 5628 :     xmlParserInputBufferPtr input;
; 5629 : 
; 5630 :     if (filename == NULL)
; 5631 :         return (-1);
; 5632 :     if (reader == NULL)

	cmp	DWORD PTR _reader$[ebp], 0
	je	SHORT $LN6@xmlReaderN

; 5633 :         return (-1);
; 5634 : 
; 5635 :     input =

	push	0
	push	esi
	call	_xmlParserInputBufferCreateFilename
	add	esp, 8

; 5636 :         xmlParserInputBufferCreateFilename(filename,
; 5637 :                                            XML_CHAR_ENCODING_NONE);
; 5638 :     if (input == NULL)

	test	eax, eax
	je	SHORT $LN6@xmlReaderN

; 5640 :     return (xmlTextReaderSetup(reader, input, filename, encoding, options));

	push	DWORD PTR _options$[ebp]
	push	DWORD PTR _encoding$[ebp]
	push	esi
	push	eax
	push	DWORD PTR _reader$[ebp]
	call	_xmlTextReaderSetup
	add	esp, 20					; 00000014H
	pop	esi

; 5641 : }

	pop	ebp
	ret	0
$LN6@xmlReaderN:

; 5639 :         return (-1);

	or	eax, -1
	pop	esi

; 5641 : }

	pop	ebp
	ret	0
_xmlReaderNewFile ENDP
_TEXT	ENDS
; Function compile flags: /Ogtp
; File c:\users\dag\documents\_clients\codeproject authors group\windows on arm\libxml2\libxml2-2.9.9\xmlreader.c
;	COMDAT _xmlReaderNewDoc
_TEXT	SEGMENT
_reader$ = 8						; size = 4
_cur$ = 12						; size = 4
_URL$ = 16						; size = 4
_encoding$ = 20						; size = 4
_options$ = 24						; size = 4
_xmlReaderNewDoc PROC					; COMDAT

; 5597 : {

	push	ebp
	mov	ebp, esp
	push	esi
	mov	ecx, OFFSET __BC13D883_xmlreader@c
	call	@__CheckForDebuggerJustMyCode@4
	mov	esi, DWORD PTR _cur$[ebp]
	test	esi, esi
	je	SHORT $LN10@xmlReaderN

; 5598 : 
; 5599 :     int len;
; 5600 : 
; 5601 :     if (cur == NULL)
; 5602 :         return (-1);
; 5603 :     if (reader == NULL)

	cmp	DWORD PTR _reader$[ebp], 0
	je	SHORT $LN10@xmlReaderN

; 5604 :         return (-1);
; 5605 : 
; 5606 :     len = xmlStrlen(cur);

	push	esi
	call	_xmlStrlen

; 5669 :     input = xmlParserInputBufferCreateStatic(buffer, size,

	push	0
	push	eax
	push	esi
	call	_xmlParserInputBufferCreateStatic
	add	esp, 16					; 00000010H

; 5670 :                                       XML_CHAR_ENCODING_NONE);
; 5671 :     if (input == NULL) {

	test	eax, eax
	je	SHORT $LN10@xmlReaderN
	pop	esi

; 5672 :         return (-1);
; 5673 :     }
; 5674 :     return (xmlTextReaderSetup(reader, input, URL, encoding, options));

	mov	DWORD PTR _cur$[ebp], eax

; 5607 :     return (xmlReaderNewMemory(reader, (const char *)cur, len,
; 5608 :                                URL, encoding, options));
; 5609 : }

	pop	ebp

; 5674 :     return (xmlTextReaderSetup(reader, input, URL, encoding, options));

	jmp	_xmlTextReaderSetup
$LN10@xmlReaderN:

; 5607 :     return (xmlReaderNewMemory(reader, (const char *)cur, len,
; 5608 :                                URL, encoding, options));
; 5609 : }

	or	eax, -1
	pop	esi
	pop	ebp
	ret	0
_xmlReaderNewDoc ENDP
_TEXT	ENDS
; Function compile flags: /Ogtp
; File c:\users\dag\documents\_clients\codeproject authors group\windows on arm\libxml2\libxml2-2.9.9\xmlreader.c
;	COMDAT _xmlReaderNewWalker
_TEXT	SEGMENT
_reader$ = 8						; size = 4
_doc$ = 12						; size = 4
_xmlReaderNewWalker PROC				; COMDAT

; 5548 : {

	push	ebp
	mov	ebp, esp
	push	esi
	push	edi
	mov	ecx, OFFSET __BC13D883_xmlreader@c
	call	@__CheckForDebuggerJustMyCode@4
	mov	edi, DWORD PTR _doc$[ebp]
	test	edi, edi
	je	$LN10@xmlReaderN

; 5549 :     if (doc == NULL)
; 5550 :         return (-1);
; 5551 :     if (reader == NULL)

	mov	esi, DWORD PTR _reader$[ebp]
	test	esi, esi
	je	$LN10@xmlReaderN

; 5553 : 
; 5554 :     if (reader->input != NULL) {

	mov	eax, DWORD PTR [esi+28]
	test	eax, eax
	je	SHORT $LN4@xmlReaderN

; 5555 :         xmlFreeParserInputBuffer(reader->input);

	push	eax
	call	_xmlFreeParserInputBuffer
	add	esp, 4
$LN4@xmlReaderN:

; 5556 :     }
; 5557 :     if (reader->ctxt != NULL) {

	mov	eax, DWORD PTR [esi+20]
	test	eax, eax
	je	SHORT $LN5@xmlReaderN

; 5558 : 	xmlCtxtReset(reader->ctxt);

	push	eax
	call	_xmlCtxtReset
	add	esp, 4
$LN5@xmlReaderN:

; 5559 :     }
; 5560 : 
; 5561 :     reader->entNr = 0;
; 5562 :     reader->input = NULL;
; 5563 :     reader->mode = XML_TEXTREADER_MODE_INITIAL;
; 5564 :     reader->node = NULL;
; 5565 :     reader->curnode = NULL;
; 5566 :     reader->base = 0;
; 5567 :     reader->cur = 0;
; 5568 :     reader->allocs = XML_TEXTREADER_CTXT;
; 5569 :     reader->doc = doc;
; 5570 :     reader->state = XML_TEXTREADER_START;
; 5571 :     if (reader->dict == NULL) {

	cmp	DWORD PTR [esi+88], 0
	mov	DWORD PTR [esi+96], 0
	mov	DWORD PTR [esi+28], 0
	mov	DWORD PTR [esi], 0
	mov	DWORD PTR [esi+64], 0
	mov	DWORD PTR [esi+68], 0
	mov	DWORD PTR [esi+56], 0
	mov	DWORD PTR [esi+60], 0
	mov	DWORD PTR [esi+12], 2
	mov	DWORD PTR [esi+4], edi
	mov	DWORD PTR [esi+16], 0
	jne	SHORT $LN8@xmlReaderN

; 5572 :         if ((reader->ctxt != NULL) && (reader->ctxt->dict != NULL))

	mov	eax, DWORD PTR [esi+20]
	test	eax, eax
	je	SHORT $LN7@xmlReaderN
	mov	eax, DWORD PTR [eax+296]
	test	eax, eax
	jne	SHORT $LN11@xmlReaderN
$LN7@xmlReaderN:

; 5573 : 	    reader->dict = reader->ctxt->dict;
; 5574 : 	else
; 5575 : 	    reader->dict = xmlDictCreate();

	call	_xmlDictCreate
$LN11@xmlReaderN:

; 5576 :     }
; 5577 :     return(0);

	mov	DWORD PTR [esi+88], eax
$LN8@xmlReaderN:
	pop	edi
	xor	eax, eax

; 5578 : }

	pop	esi
	pop	ebp
	ret	0
$LN10@xmlReaderN:
	pop	edi

; 5552 :         return (-1);

	or	eax, -1

; 5578 : }

	pop	esi
	pop	ebp
	ret	0
_xmlReaderNewWalker ENDP
_TEXT	ENDS
; Function compile flags: /Ogtp
; File c:\users\dag\documents\_clients\codeproject authors group\windows on arm\libxml2\libxml2-2.9.9\xmlreader.c
;	COMDAT _xmlReaderForIO
_TEXT	SEGMENT
_ioread$ = 8						; size = 4
_ioclose$ = 12						; size = 4
_ioctx$ = 16						; size = 4
_URL$ = 20						; size = 4
_encoding$ = 24						; size = 4
_options$ = 28						; size = 4
_xmlReaderForIO PROC					; COMDAT

; 5512 : {

	push	ebp
	mov	ebp, esp
	push	ebx
	push	esi
	push	edi
	mov	ecx, OFFSET __BC13D883_xmlreader@c
	call	@__CheckForDebuggerJustMyCode@4
	mov	eax, DWORD PTR _ioread$[ebp]
	test	eax, eax
	je	SHORT $LN4@xmlReaderF

; 5513 :     xmlTextReaderPtr reader;
; 5514 :     xmlParserInputBufferPtr input;
; 5515 : 
; 5516 :     if (ioread == NULL)
; 5517 :         return (NULL);
; 5518 : 
; 5519 :     input = xmlParserInputBufferCreateIO(ioread, ioclose, ioctx,

	mov	ebx, DWORD PTR _ioctx$[ebp]
	mov	esi, DWORD PTR _ioclose$[ebp]
	push	0
	push	ebx
	push	esi
	push	eax
	call	_xmlParserInputBufferCreateIO
	mov	edi, eax
	add	esp, 16					; 00000010H

; 5520 :                                          XML_CHAR_ENCODING_NONE);
; 5521 :     if (input == NULL) {

	test	edi, edi
	jne	SHORT $LN3@xmlReaderF

; 5522 :         if (ioclose != NULL)

	test	esi, esi
	je	SHORT $LN4@xmlReaderF

; 5523 :             ioclose(ioctx);

	push	ebx
	call	esi

; 5534 : }

	add	esp, 4
$LN4@xmlReaderF:
	pop	edi
	pop	esi
	xor	eax, eax
	pop	ebx
	pop	ebp
	ret	0
$LN3@xmlReaderF:

; 5524 :         return (NULL);
; 5525 :     }
; 5526 :     reader = xmlNewTextReader(input, URL);

	mov	ebx, DWORD PTR _URL$[ebp]
	push	ebx
	push	edi
	call	_xmlNewTextReader
	mov	esi, eax
	add	esp, 8

; 5527 :     if (reader == NULL) {

	test	esi, esi
	jne	SHORT $LN5@xmlReaderF

; 5528 :         xmlFreeParserInputBuffer(input);

	push	edi
	call	_xmlFreeParserInputBuffer

; 5534 : }

	add	esp, 4
	xor	eax, eax
	pop	edi
	pop	esi
	pop	ebx
	pop	ebp
	ret	0
$LN5@xmlReaderF:

; 5529 :         return (NULL);
; 5530 :     }
; 5531 :     reader->allocs |= XML_TEXTREADER_INPUT;
; 5532 :     xmlTextReaderSetup(reader, NULL, URL, encoding, options);

	push	DWORD PTR _options$[ebp]
	or	DWORD PTR [esi+12], 1
	push	DWORD PTR _encoding$[ebp]
	push	ebx
	push	0
	push	esi
	call	_xmlTextReaderSetup
	add	esp, 20					; 00000014H

; 5533 :     return (reader);

	mov	eax, esi
	pop	edi

; 5534 : }

	pop	esi
	pop	ebx
	pop	ebp
	ret	0
_xmlReaderForIO ENDP
_TEXT	ENDS
; Function compile flags: /Ogtp
; File c:\users\dag\documents\_clients\codeproject authors group\windows on arm\libxml2\libxml2-2.9.9\xmlreader.c
;	COMDAT _xmlReaderForFd
_TEXT	SEGMENT
_fd$ = 8						; size = 4
_URL$ = 12						; size = 4
_encoding$ = 16						; size = 4
_options$ = 20						; size = 4
_xmlReaderForFd PROC					; COMDAT

; 5473 : {

	push	ebp
	mov	ebp, esp
	push	esi
	mov	ecx, OFFSET __BC13D883_xmlreader@c
	call	@__CheckForDebuggerJustMyCode@4
	mov	eax, DWORD PTR _fd$[ebp]
	test	eax, eax
	js	SHORT $LN6@xmlReaderF

; 5474 :     xmlTextReaderPtr reader;
; 5475 :     xmlParserInputBufferPtr input;
; 5476 : 
; 5477 :     if (fd < 0)
; 5478 :         return (NULL);
; 5479 : 
; 5480 :     input = xmlParserInputBufferCreateFd(fd, XML_CHAR_ENCODING_NONE);

	push	0
	push	eax
	call	_xmlParserInputBufferCreateFd
	mov	esi, eax
	add	esp, 8

; 5481 :     if (input == NULL)

	test	esi, esi
	je	SHORT $LN6@xmlReaderF

; 5483 :     input->closecallback = NULL;

	push	edi

; 5484 :     reader = xmlNewTextReader(input, URL);

	push	DWORD PTR _URL$[ebp]
	mov	DWORD PTR [esi+8], 0
	push	esi
	call	_xmlNewTextReader
	mov	edi, eax
	add	esp, 8

; 5485 :     if (reader == NULL) {

	test	edi, edi
	jne	SHORT $LN4@xmlReaderF

; 5486 :         xmlFreeParserInputBuffer(input);

	push	esi
	call	_xmlFreeParserInputBuffer
	add	esp, 4

; 5487 :         return (NULL);

	xor	eax, eax
	pop	edi
	pop	esi

; 5492 : }

	pop	ebp
	ret	0
$LN4@xmlReaderF:

; 5488 :     }
; 5489 :     reader->allocs |= XML_TEXTREADER_INPUT;
; 5490 :     xmlTextReaderSetup(reader, NULL, URL, encoding, options);

	push	DWORD PTR _options$[ebp]
	or	DWORD PTR [edi+12], 1
	push	DWORD PTR _encoding$[ebp]
	push	DWORD PTR _URL$[ebp]
	push	0
	push	edi
	call	_xmlTextReaderSetup
	add	esp, 20					; 00000014H

; 5491 :     return (reader);

	mov	eax, edi
	pop	edi
	pop	esi

; 5492 : }

	pop	ebp
	ret	0
$LN6@xmlReaderF:

; 5482 :         return (NULL);

	xor	eax, eax
	pop	esi

; 5492 : }

	pop	ebp
	ret	0
_xmlReaderForFd ENDP
_TEXT	ENDS
; Function compile flags: /Ogtp
; File c:\users\dag\documents\_clients\codeproject authors group\windows on arm\libxml2\libxml2-2.9.9\xmlreader.c
;	COMDAT _xmlReaderForMemory
_TEXT	SEGMENT
_buffer$ = 8						; size = 4
_size$ = 12						; size = 4
_URL$ = 16						; size = 4
_encoding$ = 20						; size = 4
_options$ = 24						; size = 4
_xmlReaderForMemory PROC				; COMDAT

; 5438 : {

	push	ebp
	mov	ebp, esp
	push	edi
	mov	ecx, OFFSET __BC13D883_xmlreader@c
	call	@__CheckForDebuggerJustMyCode@4
	push	0
	push	DWORD PTR _size$[ebp]
	push	DWORD PTR _buffer$[ebp]
	call	_xmlParserInputBufferCreateStatic
	mov	edi, eax
	add	esp, 12					; 0000000cH
	test	edi, edi
	jne	SHORT $LN2@xmlReaderF
	pop	edi

; 5455 : }

	pop	ebp
	ret	0
$LN2@xmlReaderF:
	push	esi

; 5439 :     xmlTextReaderPtr reader;
; 5440 :     xmlParserInputBufferPtr buf;
; 5441 : 
; 5442 :     buf = xmlParserInputBufferCreateStatic(buffer, size,
; 5443 :                                       XML_CHAR_ENCODING_NONE);
; 5444 :     if (buf == NULL) {
; 5445 :         return (NULL);
; 5446 :     }
; 5447 :     reader = xmlNewTextReader(buf, URL);

	push	DWORD PTR _URL$[ebp]
	push	edi
	call	_xmlNewTextReader
	mov	esi, eax
	add	esp, 8

; 5448 :     if (reader == NULL) {

	test	esi, esi
	jne	SHORT $LN3@xmlReaderF

; 5449 :         xmlFreeParserInputBuffer(buf);

	push	edi
	call	_xmlFreeParserInputBuffer
	add	esp, 4

; 5450 :         return (NULL);

	xor	eax, eax
	pop	esi
	pop	edi

; 5455 : }

	pop	ebp
	ret	0
$LN3@xmlReaderF:

; 5451 :     }
; 5452 :     reader->allocs |= XML_TEXTREADER_INPUT;
; 5453 :     xmlTextReaderSetup(reader, NULL, URL, encoding, options);

	push	DWORD PTR _options$[ebp]
	or	DWORD PTR [esi+12], 1
	push	DWORD PTR _encoding$[ebp]
	push	DWORD PTR _URL$[ebp]
	push	0
	push	esi
	call	_xmlTextReaderSetup
	add	esp, 20					; 00000014H

; 5454 :     return (reader);

	mov	eax, esi
	pop	esi
	pop	edi

; 5455 : }

	pop	ebp
	ret	0
_xmlReaderForMemory ENDP
_TEXT	ENDS
; Function compile flags: /Ogtp
; File c:\users\dag\documents\_clients\codeproject authors group\windows on arm\libxml2\libxml2-2.9.9\xmlreader.c
;	COMDAT _xmlReaderForFile
_TEXT	SEGMENT
_filename$ = 8						; size = 4
_encoding$ = 12						; size = 4
_options$ = 16						; size = 4
_xmlReaderForFile PROC					; COMDAT

; 5412 : {

	push	ebp
	mov	ebp, esp
	push	esi
	mov	ecx, OFFSET __BC13D883_xmlreader@c
	call	@__CheckForDebuggerJustMyCode@4
	push	DWORD PTR _filename$[ebp]
	call	_xmlNewTextReaderFilename
	mov	esi, eax
	add	esp, 4
	test	esi, esi
	jne	SHORT $LN2@xmlReaderF
	pop	esi

; 5420 : }

	pop	ebp
	ret	0
$LN2@xmlReaderF:

; 5413 :     xmlTextReaderPtr reader;
; 5414 : 
; 5415 :     reader = xmlNewTextReaderFilename(filename);
; 5416 :     if (reader == NULL)
; 5417 :         return (NULL);
; 5418 :     xmlTextReaderSetup(reader, NULL, NULL, encoding, options);

	push	DWORD PTR _options$[ebp]
	push	DWORD PTR _encoding$[ebp]
	push	0
	push	0
	push	esi
	call	_xmlTextReaderSetup
	add	esp, 20					; 00000014H

; 5419 :     return (reader);

	mov	eax, esi
	pop	esi

; 5420 : }

	pop	ebp
	ret	0
_xmlReaderForFile ENDP
_TEXT	ENDS
; Function compile flags: /Ogtp
; File c:\users\dag\documents\_clients\codeproject authors group\windows on arm\libxml2\libxml2-2.9.9\xmlreader.c
;	COMDAT _xmlReaderForDoc
_TEXT	SEGMENT
_cur$ = 8						; size = 4
_URL$ = 12						; size = 4
_encoding$ = 16						; size = 4
_options$ = 20						; size = 4
_xmlReaderForDoc PROC					; COMDAT

; 5388 : {

	push	ebp
	mov	ebp, esp
	push	esi
	mov	ecx, OFFSET __BC13D883_xmlreader@c
	call	@__CheckForDebuggerJustMyCode@4
	mov	esi, DWORD PTR _cur$[ebp]
	test	esi, esi
	jne	SHORT $LN2@xmlReaderF

; 5389 :     int len;
; 5390 : 
; 5391 :     if (cur == NULL)
; 5392 :         return (NULL);

	xor	eax, eax
	pop	esi

; 5396 :             ((const char *) cur, len, URL, encoding, options));
; 5397 : }

	pop	ebp
	ret	0
$LN2@xmlReaderF:

; 5393 :     len = xmlStrlen(cur);

	push	esi
	call	_xmlStrlen

; 5394 : 
; 5395 :     return (xmlReaderForMemory

	push	DWORD PTR _options$[ebp]
	push	DWORD PTR _encoding$[ebp]
	push	DWORD PTR _URL$[ebp]
	push	eax
	push	esi
	call	_xmlReaderForMemory
	add	esp, 24					; 00000018H
	pop	esi

; 5396 :             ((const char *) cur, len, URL, encoding, options));
; 5397 : }

	pop	ebp
	ret	0
_xmlReaderForDoc ENDP
_TEXT	ENDS
; Function compile flags: /Ogtp
; File c:\users\dag\documents\_clients\codeproject authors group\windows on arm\libxml2\libxml2-2.9.9\xmlreader.c
;	COMDAT _xmlReaderWalker
_TEXT	SEGMENT
_doc$ = 8						; size = 4
_xmlReaderWalker PROC					; COMDAT

; 5346 : {

	push	ebp
	mov	ebp, esp
	push	edi
	mov	ecx, OFFSET __BC13D883_xmlreader@c
	call	@__CheckForDebuggerJustMyCode@4
	mov	edi, DWORD PTR _doc$[ebp]
	test	edi, edi
	jne	SHORT $LN2@xmlReaderW

; 5347 :     xmlTextReaderPtr ret;
; 5348 : 
; 5349 :     if (doc == NULL)
; 5350 :         return(NULL);

	xor	eax, eax
	pop	edi

; 5371 : }

	pop	ebp
	ret	0
$LN2@xmlReaderW:
	push	esi

; 5351 : 
; 5352 :     ret = xmlMalloc(sizeof(xmlTextReader));

	push	196					; 000000c4H
	call	DWORD PTR _xmlMalloc
	mov	esi, eax
	add	esp, 4

; 5353 :     if (ret == NULL) {

	test	esi, esi
	jne	SHORT $LN3@xmlReaderW

; 5354 :         xmlGenericError(xmlGenericErrorContext,

	call	___xmlGenericError
	mov	esi, eax
	call	___xmlGenericErrorContext
	push	OFFSET ??_C@_0CC@HCDAIILG@xmlNewTextReader?5?3?5malloc?5faile@
	push	DWORD PTR [eax]
	mov	eax, DWORD PTR [esi]
	call	eax
	add	esp, 8

; 5355 : 		"xmlNewTextReader : malloc failed\n");
; 5356 : 	return(NULL);

	xor	eax, eax
	pop	esi
	pop	edi

; 5371 : }

	pop	ebp
	ret	0
$LN3@xmlReaderW:

; 5357 :     }
; 5358 :     memset(ret, 0, sizeof(xmlTextReader));

	push	196					; 000000c4H
	push	0
	push	esi
	call	_memset
	add	esp, 12					; 0000000cH

; 5359 :     ret->entNr = 0;
; 5360 :     ret->input = NULL;
; 5361 :     ret->mode = XML_TEXTREADER_MODE_INITIAL;
; 5362 :     ret->node = NULL;
; 5363 :     ret->curnode = NULL;
; 5364 :     ret->base = 0;
; 5365 :     ret->cur = 0;
; 5366 :     ret->allocs = XML_TEXTREADER_CTXT;

	mov	DWORD PTR [esi+12], 2

; 5367 :     ret->doc = doc;

	mov	DWORD PTR [esi+4], edi

; 5368 :     ret->state = XML_TEXTREADER_START;

	mov	DWORD PTR [esi+16], 0

; 5369 :     ret->dict = xmlDictCreate();

	call	_xmlDictCreate
	mov	DWORD PTR [esi+88], eax

; 5370 :     return(ret);

	mov	eax, esi
	pop	esi
	pop	edi

; 5371 : }

	pop	ebp
	ret	0
_xmlReaderWalker ENDP
_TEXT	ENDS
; Function compile flags: /Ogtp
; File c:\users\dag\documents\_clients\codeproject authors group\windows on arm\libxml2\libxml2-2.9.9\xmlreader.c
;	COMDAT _xmlTextReaderByteConsumed
_TEXT	SEGMENT
_reader$ = 8						; size = 4
_xmlTextReaderByteConsumed PROC				; COMDAT

; 5329 : xmlTextReaderByteConsumed(xmlTextReaderPtr reader) {

	push	ebp
	mov	ebp, esp
	mov	ecx, OFFSET __BC13D883_xmlreader@c
	call	@__CheckForDebuggerJustMyCode@4
	mov	eax, DWORD PTR _reader$[ebp]
	test	eax, eax
	je	SHORT $LN3@xmlTextRea

; 5330 :     if ((reader == NULL) || (reader->ctxt == NULL))

	mov	eax, DWORD PTR [eax+20]
	test	eax, eax
	je	SHORT $LN3@xmlTextRea

; 5332 :     return(xmlByteConsumed(reader->ctxt));

	mov	DWORD PTR _reader$[ebp], eax

; 5333 : }

	pop	ebp

; 5332 :     return(xmlByteConsumed(reader->ctxt));

	jmp	_xmlByteConsumed
$LN3@xmlTextRea:

; 5331 :         return(-1);

	or	eax, -1

; 5333 : }

	pop	ebp
	ret	0
_xmlTextReaderByteConsumed ENDP
_TEXT	ENDS
; Function compile flags: /Ogtp
; File c:\users\dag\documents\_clients\codeproject authors group\windows on arm\libxml2\libxml2-2.9.9\xmlreader.c
;	COMDAT _xmlTextReaderStandalone
_TEXT	SEGMENT
_reader$ = 8						; size = 4
_xmlTextReaderStandalone PROC				; COMDAT

; 4705 : xmlTextReaderStandalone(xmlTextReaderPtr reader) {

	push	ebp
	mov	ebp, esp
	mov	ecx, OFFSET __BC13D883_xmlreader@c
	call	@__CheckForDebuggerJustMyCode@4
	mov	ecx, DWORD PTR _reader$[ebp]
	test	ecx, ecx
	je	SHORT $LN8@xmlTextRea

; 4706 :     xmlDocPtr doc = NULL;
; 4707 :     if (reader == NULL)
; 4708 : 	return(-1);
; 4709 :     if (reader->doc != NULL)

	mov	eax, DWORD PTR [ecx+4]
	test	eax, eax
	jne	SHORT $LN10@xmlTextRea

; 4710 :         doc = reader->doc;
; 4711 :     else if (reader->ctxt != NULL)

	mov	eax, DWORD PTR [ecx+20]
	test	eax, eax
	je	SHORT $LN8@xmlTextRea

; 4712 : 	doc = reader->ctxt->myDoc;

	mov	eax, DWORD PTR [eax+8]

; 4713 :     if (doc == NULL)

	test	eax, eax
	je	SHORT $LN8@xmlTextRea
$LN10@xmlTextRea:

; 4715 : 
; 4716 :     return(doc->standalone);

	mov	eax, DWORD PTR [eax+40]

; 4717 : }

	pop	ebp
	ret	0
$LN8@xmlTextRea:

; 4714 : 	return(-1);

	or	eax, -1

; 4717 : }

	pop	ebp
	ret	0
_xmlTextReaderStandalone ENDP
_TEXT	ENDS
; Function compile flags: /Ogtp
; File c:\users\dag\documents\_clients\codeproject authors group\windows on arm\libxml2\libxml2-2.9.9\xmlreader.c
;	COMDAT _xmlTextReaderConstXmlVersion
_TEXT	SEGMENT
_reader$ = 8						; size = 4
_xmlTextReaderConstXmlVersion PROC			; COMDAT

; 4677 : xmlTextReaderConstXmlVersion(xmlTextReaderPtr reader) {

	push	ebp
	mov	ebp, esp
	mov	ecx, OFFSET __BC13D883_xmlreader@c
	call	@__CheckForDebuggerJustMyCode@4
	mov	ecx, DWORD PTR _reader$[ebp]
	test	ecx, ecx
	je	SHORT $LN11@xmlTextRea

; 4678 :     xmlDocPtr doc = NULL;
; 4679 :     if (reader == NULL)
; 4680 : 	return(NULL);
; 4681 :     if (reader->doc != NULL)

	mov	eax, DWORD PTR [ecx+4]
	test	eax, eax
	jne	SHORT $LN13@xmlTextRea

; 4682 :         doc = reader->doc;
; 4683 :     else if (reader->ctxt != NULL)

	mov	eax, DWORD PTR [ecx+20]
	test	eax, eax
	je	SHORT $LN11@xmlTextRea

; 4684 : 	doc = reader->ctxt->myDoc;

	mov	eax, DWORD PTR [eax+8]

; 4685 :     if (doc == NULL)

	test	eax, eax
	je	SHORT $LN11@xmlTextRea
$LN13@xmlTextRea:

; 4686 : 	return(NULL);
; 4687 : 
; 4688 :     if (doc->version == NULL)

	mov	eax, DWORD PTR [eax+56]
	test	eax, eax
	je	SHORT $LN11@xmlTextRea

; 4690 :     else
; 4691 :       return(CONSTSTR(doc->version));

	push	-1
	push	eax
	push	DWORD PTR [ecx+88]
	call	_xmlDictLookup
	add	esp, 12					; 0000000cH

; 4692 : }

	pop	ebp
	ret	0
$LN11@xmlTextRea:

; 4689 : 	return(NULL);

	xor	eax, eax

; 4692 : }

	pop	ebp
	ret	0
_xmlTextReaderConstXmlVersion ENDP
_TEXT	ENDS
; Function compile flags: /Ogtp
; File c:\users\dag\documents\_clients\codeproject authors group\windows on arm\libxml2\libxml2-2.9.9\xmlreader.c
;	COMDAT _xmlTextReaderSetSchema
_TEXT	SEGMENT
_reader$ = 8						; size = 4
_schema$ = 12						; size = 4
_xmlTextReaderSetSchema PROC				; COMDAT

; 4263 : xmlTextReaderSetSchema(xmlTextReaderPtr reader, xmlSchemaPtr schema) {

	push	ebp
	mov	ebp, esp
	push	esi
	mov	ecx, OFFSET __BC13D883_xmlreader@c
	call	@__CheckForDebuggerJustMyCode@4
	mov	esi, DWORD PTR _reader$[ebp]
	test	esi, esi
	je	$LN18@xmlTextRea

; 4264 :     if (reader == NULL)
; 4265 :         return(-1);
; 4266 :     if (schema == NULL) {

	cmp	DWORD PTR _schema$[ebp], 0
	jne	SHORT $LN3@xmlTextRea

; 4267 : 	if (reader->xsdPlug != NULL) {

	mov	eax, DWORD PTR [esi+152]
	test	eax, eax
	je	SHORT $LN4@xmlTextRea

; 4268 : 	    xmlSchemaSAXUnplug(reader->xsdPlug);

	push	eax
	call	_xmlSchemaSAXUnplug
	add	esp, 4

; 4269 : 	    reader->xsdPlug = NULL;

	mov	DWORD PTR [esi+152], 0
$LN4@xmlTextRea:

; 4270 : 	}
; 4271 :         if (reader->xsdValidCtxt != NULL) {

	mov	eax, DWORD PTR [esi+140]
	test	eax, eax
	je	SHORT $LN5@xmlTextRea

; 4272 : 	    if (! reader->xsdPreserveCtxt)

	cmp	DWORD PTR [esi+144], 0
	jne	SHORT $LN6@xmlTextRea

; 4273 : 		xmlSchemaFreeValidCtxt(reader->xsdValidCtxt);

	push	eax
	call	_xmlSchemaFreeValidCtxt
	add	esp, 4
$LN6@xmlTextRea:

; 4274 : 	    reader->xsdValidCtxt = NULL;

	mov	DWORD PTR [esi+140], 0
$LN5@xmlTextRea:

; 4275 :         }
; 4276 : 	reader->xsdPreserveCtxt = 0;
; 4277 :         if (reader->xsdSchemas != NULL) {

	mov	eax, DWORD PTR [esi+136]
	mov	DWORD PTR [esi+144], 0
	test	eax, eax
	je	SHORT $LN7@xmlTextRea

; 4278 : 	    xmlSchemaFree(reader->xsdSchemas);

	push	eax
	call	_xmlSchemaFree
	add	esp, 4

; 4279 : 	    reader->xsdSchemas = NULL;

	mov	DWORD PTR [esi+136], 0
$LN7@xmlTextRea:

; 4280 : 	}
; 4281 : 	return(0);

	xor	eax, eax
	pop	esi

; 4333 : }

	pop	ebp
	ret	0
$LN3@xmlTextRea:

; 4282 :     }
; 4283 :     if (reader->mode != XML_TEXTREADER_MODE_INITIAL)

	cmp	DWORD PTR [esi], 0
	jne	$LN18@xmlTextRea

; 4284 : 	return(-1);
; 4285 :     if (reader->xsdPlug != NULL) {

	mov	eax, DWORD PTR [esi+152]
	test	eax, eax
	je	SHORT $LN9@xmlTextRea

; 4286 : 	xmlSchemaSAXUnplug(reader->xsdPlug);

	push	eax
	call	_xmlSchemaSAXUnplug
	add	esp, 4

; 4287 : 	reader->xsdPlug = NULL;

	mov	DWORD PTR [esi+152], 0
$LN9@xmlTextRea:

; 4288 :     }
; 4289 :     if (reader->xsdValidCtxt != NULL) {

	mov	eax, DWORD PTR [esi+140]
	test	eax, eax
	je	SHORT $LN10@xmlTextRea

; 4290 : 	if (! reader->xsdPreserveCtxt)

	cmp	DWORD PTR [esi+144], 0
	jne	SHORT $LN11@xmlTextRea

; 4291 : 	    xmlSchemaFreeValidCtxt(reader->xsdValidCtxt);

	push	eax
	call	_xmlSchemaFreeValidCtxt
	add	esp, 4
$LN11@xmlTextRea:

; 4292 : 	reader->xsdValidCtxt = NULL;

	mov	DWORD PTR [esi+140], 0
$LN10@xmlTextRea:

; 4293 :     }
; 4294 :     reader->xsdPreserveCtxt = 0;
; 4295 :     if (reader->xsdSchemas != NULL) {

	mov	eax, DWORD PTR [esi+136]
	mov	DWORD PTR [esi+144], 0
	test	eax, eax
	je	SHORT $LN12@xmlTextRea

; 4296 : 	xmlSchemaFree(reader->xsdSchemas);

	push	eax
	call	_xmlSchemaFree
	add	esp, 4

; 4297 : 	reader->xsdSchemas = NULL;

	mov	DWORD PTR [esi+136], 0
$LN12@xmlTextRea:

; 4298 :     }
; 4299 :     reader->xsdValidCtxt = xmlSchemaNewValidCtxt(schema);

	push	DWORD PTR _schema$[ebp]
	call	_xmlSchemaNewValidCtxt
	mov	edx, eax
	add	esp, 4
	mov	DWORD PTR [esi+140], edx

; 4300 :     if (reader->xsdValidCtxt == NULL) {

	test	edx, edx
	jne	SHORT $LN13@xmlTextRea

; 4301 : 	xmlSchemaFree(reader->xsdSchemas);

	push	DWORD PTR [esi+136]
	call	_xmlSchemaFree
	add	esp, 4

; 4302 : 	reader->xsdSchemas = NULL;

	mov	DWORD PTR [esi+136], 0
$LN18@xmlTextRea:

; 4333 : }

	or	eax, -1
	pop	esi
	pop	ebp
	ret	0
$LN13@xmlTextRea:

; 4303 :         return(-1);
; 4304 :     }
; 4305 :     reader->xsdPlug = xmlSchemaSAXPlug(reader->xsdValidCtxt,

	mov	ecx, DWORD PTR [esi+20]
	lea	eax, DWORD PTR [ecx+4]
	push	eax
	push	ecx
	push	edx
	call	_xmlSchemaSAXPlug
	add	esp, 12					; 0000000cH
	mov	DWORD PTR [esi+152], eax

; 4306 :                                        &(reader->ctxt->sax),
; 4307 : 				       &(reader->ctxt->userData));
; 4308 :     if (reader->xsdPlug == NULL) {

	test	eax, eax
	jne	SHORT $LN14@xmlTextRea

; 4309 : 	xmlSchemaFree(reader->xsdSchemas);

	push	DWORD PTR [esi+136]
	call	_xmlSchemaFree

; 4310 : 	reader->xsdSchemas = NULL;
; 4311 : 	xmlSchemaFreeValidCtxt(reader->xsdValidCtxt);

	push	DWORD PTR [esi+140]
	mov	DWORD PTR [esi+136], 0
	call	_xmlSchemaFreeValidCtxt
	add	esp, 8

; 4312 : 	reader->xsdValidCtxt = NULL;

	mov	DWORD PTR [esi+140], 0

; 4333 : }

	or	eax, -1
	pop	esi
	pop	ebp
	ret	0
$LN14@xmlTextRea:

; 4313 : 	return(-1);
; 4314 :     }
; 4315 :     xmlSchemaValidateSetLocator(reader->xsdValidCtxt,

	push	esi
	push	OFFSET _xmlTextReaderLocator
	push	DWORD PTR [esi+140]
	call	_xmlSchemaValidateSetLocator
	add	esp, 12					; 0000000cH

; 4316 :                                 xmlTextReaderLocator,
; 4317 : 				(void *) reader);
; 4318 : 
; 4319 :     if (reader->errorFunc != NULL) {

	cmp	DWORD PTR [esi+108], 0
	je	SHORT $LN15@xmlTextRea

; 4320 : 	xmlSchemaSetValidErrors(reader->xsdValidCtxt,

	push	esi
	push	OFFSET _xmlTextReaderValidityWarningRelay
	push	OFFSET _xmlTextReaderValidityErrorRelay
	push	DWORD PTR [esi+140]
	call	_xmlSchemaSetValidErrors
	add	esp, 16					; 00000010H
$LN15@xmlTextRea:

; 4321 : 			xmlTextReaderValidityErrorRelay,
; 4322 : 			xmlTextReaderValidityWarningRelay,
; 4323 : 			reader);
; 4324 :     }
; 4325 : 	if (reader->sErrorFunc != NULL) {

	cmp	DWORD PTR [esi+192], 0
	je	SHORT $LN16@xmlTextRea

; 4326 : 		xmlSchemaSetValidStructuredErrors(reader->xsdValidCtxt,

	push	esi
	push	OFFSET _xmlTextReaderValidityStructuredRelay
	push	DWORD PTR [esi+140]
	call	_xmlSchemaSetValidStructuredErrors
	add	esp, 12					; 0000000cH
$LN16@xmlTextRea:

; 4327 : 			xmlTextReaderValidityStructuredRelay,
; 4328 : 			reader);
; 4329 :     }
; 4330 :     reader->xsdValidErrors = 0;

	mov	DWORD PTR [esi+148], 0

; 4331 :     reader->validate = XML_TEXTREADER_VALIDATE_XSD;
; 4332 :     return(0);

	xor	eax, eax
	mov	DWORD PTR [esi+8], 4
	pop	esi

; 4333 : }

	pop	ebp
	ret	0
_xmlTextReaderSetSchema ENDP
_TEXT	ENDS
; Function compile flags: /Ogtp
; File c:\users\dag\documents\_clients\codeproject authors group\windows on arm\libxml2\libxml2-2.9.9\xmlreader.c
;	COMDAT _xmlTextReaderSchemaValidateCtxt
_TEXT	SEGMENT
_reader$ = 8						; size = 4
_ctxt$ = 12						; size = 4
_options$ = 16						; size = 4
_xmlTextReaderSchemaValidateCtxt PROC			; COMDAT

; 4575 : {

	push	ebp
	mov	ebp, esp
	mov	ecx, OFFSET __BC13D883_xmlreader@c
	call	@__CheckForDebuggerJustMyCode@4
	push	DWORD PTR _options$[ebp]
	push	DWORD PTR _ctxt$[ebp]
	push	0
	push	DWORD PTR _reader$[ebp]
	call	_xmlTextReaderSchemaValidateInternal
	add	esp, 16					; 00000010H

; 4576 :     return(xmlTextReaderSchemaValidateInternal(reader, NULL, ctxt, options));
; 4577 : }

	pop	ebp
	ret	0
_xmlTextReaderSchemaValidateCtxt ENDP
_TEXT	ENDS
; Function compile flags: /Ogtp
; File c:\users\dag\documents\_clients\codeproject authors group\windows on arm\libxml2\libxml2-2.9.9\xmlreader.c
;	COMDAT _xmlTextReaderSchemaValidate
_TEXT	SEGMENT
_reader$ = 8						; size = 4
_xsd$ = 12						; size = 4
_xmlTextReaderSchemaValidate PROC			; COMDAT

; 4593 : {

	push	ebp
	mov	ebp, esp
	mov	ecx, OFFSET __BC13D883_xmlreader@c
	call	@__CheckForDebuggerJustMyCode@4
	push	0
	push	0
	push	DWORD PTR _xsd$[ebp]
	push	DWORD PTR _reader$[ebp]
	call	_xmlTextReaderSchemaValidateInternal
	add	esp, 16					; 00000010H

; 4594 :     return(xmlTextReaderSchemaValidateInternal(reader, xsd, NULL, 0));
; 4595 : }

	pop	ebp
	ret	0
_xmlTextReaderSchemaValidate ENDP
_TEXT	ENDS
; Function compile flags: /Ogtp
; File c:\users\dag\documents\_clients\codeproject authors group\windows on arm\libxml2\libxml2-2.9.9\xmlreader.c
;	COMDAT _xmlTextReaderRelaxNGSetSchema
_TEXT	SEGMENT
_reader$ = 8						; size = 4
_schema$ = 12						; size = 4
_xmlTextReaderRelaxNGSetSchema PROC			; COMDAT

; 4146 : xmlTextReaderRelaxNGSetSchema(xmlTextReaderPtr reader, xmlRelaxNGPtr schema) {

	push	ebp
	mov	ebp, esp
	push	esi
	mov	ecx, OFFSET __BC13D883_xmlreader@c
	call	@__CheckForDebuggerJustMyCode@4
	mov	esi, DWORD PTR _reader$[ebp]
	test	esi, esi
	je	$LN15@xmlTextRea

; 4147 :     if (reader == NULL)
; 4148 :         return(-1);
; 4149 :     if (schema == NULL) {

	cmp	DWORD PTR _schema$[ebp], 0
	jne	SHORT $LN3@xmlTextRea

; 4150 :         if (reader->rngSchemas != NULL) {

	mov	eax, DWORD PTR [esi+116]
	test	eax, eax
	je	SHORT $LN4@xmlTextRea

; 4151 : 	    xmlRelaxNGFree(reader->rngSchemas);

	push	eax
	call	_xmlRelaxNGFree
	add	esp, 4

; 4152 : 	    reader->rngSchemas = NULL;

	mov	DWORD PTR [esi+116], 0
$LN4@xmlTextRea:

; 4153 : 	}
; 4154 :         if (reader->rngValidCtxt != NULL) {

	mov	eax, DWORD PTR [esi+120]
	test	eax, eax
	je	SHORT $LN5@xmlTextRea

; 4155 : 	    if (! reader->rngPreserveCtxt)

	cmp	DWORD PTR [esi+124], 0
	jne	SHORT $LN6@xmlTextRea

; 4156 : 		xmlRelaxNGFreeValidCtxt(reader->rngValidCtxt);

	push	eax
	call	_xmlRelaxNGFreeValidCtxt
	add	esp, 4
$LN6@xmlTextRea:

; 4157 : 	    reader->rngValidCtxt = NULL;

	mov	DWORD PTR [esi+120], 0
$LN5@xmlTextRea:

; 4158 :         }
; 4159 : 	reader->rngPreserveCtxt = 0;

	mov	DWORD PTR [esi+124], 0

; 4160 : 	return(0);

	xor	eax, eax
	pop	esi

; 4192 : }

	pop	ebp
	ret	0
$LN3@xmlTextRea:

; 4161 :     }
; 4162 :     if (reader->mode != XML_TEXTREADER_MODE_INITIAL)

	cmp	DWORD PTR [esi], 0
	jne	$LN15@xmlTextRea

; 4163 : 	return(-1);
; 4164 :     if (reader->rngSchemas != NULL) {

	mov	eax, DWORD PTR [esi+116]
	test	eax, eax
	je	SHORT $LN8@xmlTextRea

; 4165 : 	xmlRelaxNGFree(reader->rngSchemas);

	push	eax
	call	_xmlRelaxNGFree
	add	esp, 4

; 4166 : 	reader->rngSchemas = NULL;

	mov	DWORD PTR [esi+116], 0
$LN8@xmlTextRea:

; 4167 :     }
; 4168 :     if (reader->rngValidCtxt != NULL) {

	mov	eax, DWORD PTR [esi+120]
	test	eax, eax
	je	SHORT $LN9@xmlTextRea

; 4169 : 	if (! reader->rngPreserveCtxt)

	cmp	DWORD PTR [esi+124], 0
	jne	SHORT $LN10@xmlTextRea

; 4170 : 	    xmlRelaxNGFreeValidCtxt(reader->rngValidCtxt);

	push	eax
	call	_xmlRelaxNGFreeValidCtxt
	add	esp, 4
$LN10@xmlTextRea:

; 4171 : 	reader->rngValidCtxt = NULL;

	mov	DWORD PTR [esi+120], 0
$LN9@xmlTextRea:

; 4172 :     }
; 4173 :     reader->rngPreserveCtxt = 0;
; 4174 :     reader->rngValidCtxt = xmlRelaxNGNewValidCtxt(schema);

	push	DWORD PTR _schema$[ebp]
	mov	DWORD PTR [esi+124], 0
	call	_xmlRelaxNGNewValidCtxt
	add	esp, 4
	mov	DWORD PTR [esi+120], eax

; 4175 :     if (reader->rngValidCtxt == NULL)

	test	eax, eax
	je	SHORT $LN15@xmlTextRea

; 4177 :     if (reader->errorFunc != NULL) {

	cmp	DWORD PTR [esi+108], 0
	je	SHORT $LN12@xmlTextRea

; 4178 : 	xmlRelaxNGSetValidErrors(reader->rngValidCtxt,

	push	esi
	push	OFFSET _xmlTextReaderValidityWarningRelay
	push	OFFSET _xmlTextReaderValidityErrorRelay
	push	eax
	call	_xmlRelaxNGSetValidErrors
	add	esp, 16					; 00000010H
$LN12@xmlTextRea:

; 4179 : 			xmlTextReaderValidityErrorRelay,
; 4180 : 			xmlTextReaderValidityWarningRelay,
; 4181 : 			reader);
; 4182 :     }
; 4183 : 	if (reader->sErrorFunc != NULL) {

	cmp	DWORD PTR [esi+192], 0
	je	SHORT $LN13@xmlTextRea

; 4184 : 		xmlRelaxNGSetValidStructuredErrors(reader->rngValidCtxt,

	push	esi
	push	OFFSET _xmlTextReaderValidityStructuredRelay
	push	DWORD PTR [esi+120]
	call	_xmlRelaxNGSetValidStructuredErrors
	add	esp, 12					; 0000000cH
$LN13@xmlTextRea:

; 4185 : 			xmlTextReaderValidityStructuredRelay,
; 4186 : 			reader);
; 4187 :     }
; 4188 :     reader->rngValidErrors = 0;

	mov	DWORD PTR [esi+128], 0

; 4189 :     reader->rngFullNode = NULL;
; 4190 :     reader->validate = XML_TEXTREADER_VALIDATE_RNG;
; 4191 :     return(0);

	xor	eax, eax
	mov	DWORD PTR [esi+132], 0
	mov	DWORD PTR [esi+8], 2
	pop	esi

; 4192 : }

	pop	ebp
	ret	0
$LN15@xmlTextRea:

; 4176 :         return(-1);

	or	eax, -1
	pop	esi

; 4192 : }

	pop	ebp
	ret	0
_xmlTextReaderRelaxNGSetSchema ENDP
_TEXT	ENDS
; Function compile flags: /Ogtp
; File c:\users\dag\documents\_clients\codeproject authors group\windows on arm\libxml2\libxml2-2.9.9\xmlreader.c
;	COMDAT _xmlTextReaderRelaxNGValidateCtxt
_TEXT	SEGMENT
_reader$ = 8						; size = 4
_ctxt$ = 12						; size = 4
_options$ = 16						; size = 4
_xmlTextReaderRelaxNGValidateCtxt PROC			; COMDAT

; 4614 : {

	push	ebp
	mov	ebp, esp
	mov	ecx, OFFSET __BC13D883_xmlreader@c
	call	@__CheckForDebuggerJustMyCode@4
	push	DWORD PTR _options$[ebp]
	push	DWORD PTR _ctxt$[ebp]
	push	0
	push	DWORD PTR _reader$[ebp]
	call	_xmlTextReaderRelaxNGValidateInternal
	add	esp, 16					; 00000010H

; 4615 :     return(xmlTextReaderRelaxNGValidateInternal(reader, NULL, ctxt, options));
; 4616 : }

	pop	ebp
	ret	0
_xmlTextReaderRelaxNGValidateCtxt ENDP
_TEXT	ENDS
; Function compile flags: /Ogtp
; File c:\users\dag\documents\_clients\codeproject authors group\windows on arm\libxml2\libxml2-2.9.9\xmlreader.c
;	COMDAT _xmlTextReaderRelaxNGValidate
_TEXT	SEGMENT
_reader$ = 8						; size = 4
_rng$ = 12						; size = 4
_xmlTextReaderRelaxNGValidate PROC			; COMDAT

; 4632 : {

	push	ebp
	mov	ebp, esp
	mov	ecx, OFFSET __BC13D883_xmlreader@c
	call	@__CheckForDebuggerJustMyCode@4
	push	0
	push	0
	push	DWORD PTR _rng$[ebp]
	push	DWORD PTR _reader$[ebp]
	call	_xmlTextReaderRelaxNGValidateInternal
	add	esp, 16					; 00000010H

; 4633 :     return(xmlTextReaderRelaxNGValidateInternal(reader, rng, NULL, 0));
; 4634 : }

	pop	ebp
	ret	0
_xmlTextReaderRelaxNGValidate ENDP
_TEXT	ENDS
; Function compile flags: /Ogtp
; File c:\users\dag\documents\_clients\codeproject authors group\windows on arm\libxml2\libxml2-2.9.9\xmlreader.c
;	COMDAT _xmlTextReaderIsValid
_TEXT	SEGMENT
_reader$ = 8						; size = 4
_xmlTextReaderIsValid PROC				; COMDAT

; 5071 : {

	push	ebp
	mov	ebp, esp
	mov	ecx, OFFSET __BC13D883_xmlreader@c
	call	@__CheckForDebuggerJustMyCode@4
	mov	ecx, DWORD PTR _reader$[ebp]
	test	ecx, ecx
	jne	SHORT $LN2@xmlTextRea

; 5072 :     if (reader == NULL)
; 5073 :         return (-1);

	or	eax, -1

; 5083 : }

	pop	ebp
	ret	0
$LN2@xmlTextRea:

; 5074 : #ifdef LIBXML_SCHEMAS_ENABLED
; 5075 :     if (reader->validate == XML_TEXTREADER_VALIDATE_RNG)

	mov	eax, DWORD PTR [ecx+8]
	cmp	eax, 2
	jne	SHORT $LN3@xmlTextRea

; 5076 :         return (reader->rngValidErrors == 0);

	xor	eax, eax
	cmp	DWORD PTR [ecx+128], eax
	sete	al

; 5083 : }

	pop	ebp
	ret	0
$LN3@xmlTextRea:

; 5077 :     if (reader->validate == XML_TEXTREADER_VALIDATE_XSD)

	cmp	eax, 4
	jne	SHORT $LN4@xmlTextRea

; 5078 :         return (reader->xsdValidErrors == 0);

	xor	eax, eax
	cmp	DWORD PTR [ecx+148], eax
	sete	al

; 5083 : }

	pop	ebp
	ret	0
$LN4@xmlTextRea:

; 5079 : #endif
; 5080 :     if ((reader->ctxt != NULL) && (reader->ctxt->validate == 1))

	mov	eax, DWORD PTR [ecx+20]
	test	eax, eax
	je	SHORT $LN5@xmlTextRea
	cmp	DWORD PTR [eax+104], 1
	jne	SHORT $LN5@xmlTextRea

; 5081 :         return (reader->ctxt->valid);

	mov	eax, DWORD PTR [eax+100]

; 5083 : }

	pop	ebp
	ret	0
$LN5@xmlTextRea:

; 5082 :     return (0);

	xor	eax, eax

; 5083 : }

	pop	ebp
	ret	0
_xmlTextReaderIsValid ENDP
_TEXT	ENDS
; Function compile flags: /Ogtp
; File c:\users\dag\documents\_clients\codeproject authors group\windows on arm\libxml2\libxml2-2.9.9\xmlreader.c
;	COMDAT _xmlTextReaderNextSibling
_TEXT	SEGMENT
_reader$ = 8						; size = 4
_xmlTextReaderNextSibling PROC				; COMDAT

; 2036 : xmlTextReaderNextSibling(xmlTextReaderPtr reader) {

	push	ebp
	mov	ebp, esp
	mov	ecx, OFFSET __BC13D883_xmlreader@c
	call	@__CheckForDebuggerJustMyCode@4
	mov	eax, DWORD PTR _reader$[ebp]
	test	eax, eax
	je	SHORT $LN8@xmlTextRea

; 2037 :     if (reader == NULL)
; 2038 :         return(-1);
; 2039 :     if (reader->doc == NULL) {

	cmp	DWORD PTR [eax+4], 0
	je	SHORT $LN8@xmlTextRea

; 2042 :     }
; 2043 : 
; 2044 :     if (reader->state == XML_TEXTREADER_END)

	cmp	DWORD PTR [eax+16], 2
	je	SHORT $LN6@xmlTextRea

; 2045 :         return(0);
; 2046 : 
; 2047 :     if (reader->node == NULL)

	mov	ecx, DWORD PTR [eax+64]
	test	ecx, ecx
	jne	SHORT $LN5@xmlTextRea

; 2048 :         return(xmlTextReaderNextTree(reader));

	mov	DWORD PTR _reader$[ebp], eax

; 2057 : }

	pop	ebp

; 2048 :         return(xmlTextReaderNextTree(reader));

	jmp	_xmlTextReaderNextTree
$LN5@xmlTextRea:

; 2049 : 
; 2050 :     if (reader->node->next != NULL) {

	mov	ecx, DWORD PTR [ecx+24]
	test	ecx, ecx
	je	SHORT $LN6@xmlTextRea

; 2051 :         reader->node = reader->node->next;

	mov	DWORD PTR [eax+64], ecx

; 2052 :         reader->state = XML_TEXTREADER_START;

	mov	DWORD PTR [eax+16], 0

; 2053 :         return(1);

	mov	eax, 1

; 2057 : }

	pop	ebp
	ret	0
$LN6@xmlTextRea:

; 2054 :     }
; 2055 : 
; 2056 :     return(0);

	xor	eax, eax

; 2057 : }

	pop	ebp
	ret	0
$LN8@xmlTextRea:

; 2040 :         /* TODO */
; 2041 : 	return(-1);

	or	eax, -1

; 2057 : }

	pop	ebp
	ret	0
_xmlTextReaderNextSibling ENDP
_TEXT	ENDS
; Function compile flags: /Ogtp
; File c:\users\dag\documents\_clients\codeproject authors group\windows on arm\libxml2\libxml2-2.9.9\xmlreader.c
;	COMDAT _xmlTextReaderNext
_TEXT	SEGMENT
_reader$ = 8						; size = 4
_xmlTextReaderNext PROC					; COMDAT

; 1669 : xmlTextReaderNext(xmlTextReaderPtr reader) {

	push	ebp
	mov	ebp, esp
	push	esi
	mov	ecx, OFFSET __BC13D883_xmlreader@c
	call	@__CheckForDebuggerJustMyCode@4
	mov	esi, DWORD PTR _reader$[ebp]
	test	esi, esi
	jne	SHORT $LN5@xmlTextRea

; 1670 :     int ret;
; 1671 :     xmlNodePtr cur;
; 1672 : 
; 1673 :     if (reader == NULL)
; 1674 : 	return(-1);

	or	eax, -1
	pop	esi

; 1689 :     return(xmlTextReaderRead(reader));
; 1690 : }

	pop	ebp
	ret	0
$LN5@xmlTextRea:

; 1675 :     if (reader->doc != NULL)

	cmp	DWORD PTR [esi+4], 0
	je	SHORT $LN6@xmlTextRea

; 1676 :         return(xmlTextReaderNextTree(reader));

	push	esi
	call	_xmlTextReaderNextTree
	add	esp, 4
	pop	esi

; 1689 :     return(xmlTextReaderRead(reader));
; 1690 : }

	pop	ebp
	ret	0
$LN6@xmlTextRea:
	push	edi

; 1677 :     cur = reader->node;

	mov	edi, DWORD PTR [esi+64]

; 1678 :     if ((cur == NULL) || (cur->type != XML_ELEMENT_NODE))

	test	edi, edi
	je	SHORT $LN8@xmlTextRea
	cmp	DWORD PTR [edi+4], 1
	jne	SHORT $LN8@xmlTextRea

; 1680 :     if (reader->state == XML_TEXTREADER_END || reader->state == XML_TEXTREADER_BACKTRACK)

	mov	eax, DWORD PTR [esi+16]
	cmp	eax, 2
	je	SHORT $LN8@xmlTextRea
	cmp	eax, 4
	je	SHORT $LN8@xmlTextRea

; 1681 :         return(xmlTextReaderRead(reader));
; 1682 :     if (cur->extra & NODE_IS_EMPTY)

	test	BYTE PTR [edi+58], 1
	jne	SHORT $LN8@xmlTextRea
	npad	2
$LL4@xmlTextRea:

; 1683 :         return(xmlTextReaderRead(reader));
; 1684 :     do {
; 1685 :         ret = xmlTextReaderRead(reader);

	push	esi
	call	_xmlTextReaderRead
	add	esp, 4

; 1686 : 	if (ret != 1)

	cmp	eax, 1
	jne	SHORT $LN27@xmlTextRea

; 1687 : 	    return(ret);
; 1688 :     } while (reader->node != cur);

	cmp	DWORD PTR [esi+64], edi
	jne	SHORT $LL4@xmlTextRea
$LN8@xmlTextRea:

; 1679 :         return(xmlTextReaderRead(reader));

	push	esi
	call	_xmlTextReaderRead
	add	esp, 4
$LN27@xmlTextRea:
	pop	edi
	pop	esi

; 1689 :     return(xmlTextReaderRead(reader));
; 1690 : }

	pop	ebp
	ret	0
_xmlTextReaderNext ENDP
_TEXT	ENDS
; Function compile flags: /Ogtp
; File c:\users\dag\documents\_clients\codeproject authors group\windows on arm\libxml2\libxml2-2.9.9\xmlreader.c
;	COMDAT _xmlTextReaderExpand
_TEXT	SEGMENT
_reader$ = 8						; size = 4
_xmlTextReaderExpand PROC				; COMDAT

; 1646 : xmlTextReaderExpand(xmlTextReaderPtr reader) {

	push	ebp
	mov	ebp, esp
	push	esi
	mov	ecx, OFFSET __BC13D883_xmlreader@c
	call	@__CheckForDebuggerJustMyCode@4
	mov	esi, DWORD PTR _reader$[ebp]
	test	esi, esi
	je	SHORT $LN3@xmlTextRea

; 1647 :     if ((reader == NULL) || (reader->node == NULL))

	mov	eax, DWORD PTR [esi+64]
	test	eax, eax
	je	SHORT $LN3@xmlTextRea

; 1649 :     if (reader->doc != NULL)

	cmp	DWORD PTR [esi+4], 0
	jne	SHORT $LN1@xmlTextRea

; 1650 :         return(reader->node);
; 1651 :     if (reader->ctxt == NULL)

	cmp	DWORD PTR [esi+20], 0
	je	SHORT $LN3@xmlTextRea

; 1652 :         return(NULL);
; 1653 :     if (xmlTextReaderDoExpand(reader) < 0)

	push	esi
	call	_xmlTextReaderDoExpand
	add	esp, 4
	test	eax, eax
	js	SHORT $LN3@xmlTextRea

; 1654 :         return(NULL);
; 1655 :     return(reader->node);

	mov	eax, DWORD PTR [esi+64]
	pop	esi

; 1656 : }

	pop	ebp
	ret	0
$LN3@xmlTextRea:

; 1648 :         return(NULL);

	xor	eax, eax
$LN1@xmlTextRea:
	pop	esi

; 1656 : }

	pop	ebp
	ret	0
_xmlTextReaderExpand ENDP
_TEXT	ENDS
; Function compile flags: /Ogtp
; File c:\users\dag\documents\_clients\codeproject authors group\windows on arm\libxml2\libxml2-2.9.9\xmlreader.c
;	COMDAT _xmlTextReaderCurrentDoc
_TEXT	SEGMENT
_reader$ = 8						; size = 4
_xmlTextReaderCurrentDoc PROC				; COMDAT

; 4044 : xmlTextReaderCurrentDoc(xmlTextReaderPtr reader) {

	push	ebp
	mov	ebp, esp
	mov	ecx, OFFSET __BC13D883_xmlreader@c
	call	@__CheckForDebuggerJustMyCode@4
	mov	ecx, DWORD PTR _reader$[ebp]
	test	ecx, ecx
	je	SHORT $LN5@xmlTextRea

; 4045 :     if (reader == NULL)
; 4046 : 	return(NULL);
; 4047 :     if (reader->doc != NULL)

	mov	eax, DWORD PTR [ecx+4]
	test	eax, eax
	jne	SHORT $LN1@xmlTextRea

; 4048 :         return(reader->doc);
; 4049 :     if ((reader->ctxt == NULL) || (reader->ctxt->myDoc == NULL))

	mov	eax, DWORD PTR [ecx+20]
	test	eax, eax
	je	SHORT $LN5@xmlTextRea
	cmp	DWORD PTR [eax+8], 0
	je	SHORT $LN5@xmlTextRea

; 4051 : 
; 4052 :     reader->preserve = 1;

	mov	DWORD PTR [ecx+80], 1

; 4053 :     return(reader->ctxt->myDoc);

	mov	eax, DWORD PTR [eax+8]

; 4054 : }

	pop	ebp
	ret	0
$LN5@xmlTextRea:

; 4050 : 	return(NULL);

	xor	eax, eax
$LN1@xmlTextRea:

; 4054 : }

	pop	ebp
	ret	0
_xmlTextReaderCurrentDoc ENDP
_TEXT	ENDS
; Function compile flags: /Ogtp
; File c:\users\dag\documents\_clients\codeproject authors group\windows on arm\libxml2\libxml2-2.9.9\xmlreader.c
;	COMDAT _xmlTextReaderPreservePattern
_TEXT	SEGMENT
_reader$ = 8						; size = 4
_pattern$ = 12						; size = 4
_namespaces$ = 16					; size = 4
_xmlTextReaderPreservePattern PROC			; COMDAT

; 3994 : {

	push	ebp
	mov	ebp, esp
	push	esi
	push	edi
	mov	ecx, OFFSET __BC13D883_xmlreader@c
	call	@__CheckForDebuggerJustMyCode@4
	mov	edi, DWORD PTR _reader$[ebp]
	test	edi, edi
	je	SHORT $LN3@xmlTextRea

; 3995 :     xmlPatternPtr comp;
; 3996 : 
; 3997 :     if ((reader == NULL) || (pattern == NULL))

	mov	eax, DWORD PTR _pattern$[ebp]
	test	eax, eax
	je	SHORT $LN3@xmlTextRea

; 3998 : 	return(-1);
; 3999 : 
; 4000 :     comp = xmlPatterncompile(pattern, reader->dict, 0, namespaces);

	push	DWORD PTR _namespaces$[ebp]
	push	0
	push	DWORD PTR [edi+88]
	push	eax
	call	_xmlPatterncompile
	mov	esi, eax
	add	esp, 16					; 00000010H

; 4001 :     if (comp == NULL)

	test	esi, esi
	je	SHORT $LN3@xmlTextRea

; 4002 :         return(-1);
; 4003 : 
; 4004 :     if (reader->patternMax <= 0) {

	cmp	DWORD PTR [edi+176], 0
	jg	SHORT $LN13@xmlTextRea

; 4005 : 	reader->patternMax = 4;
; 4006 : 	reader->patternTab = (xmlPatternPtr *) xmlMalloc(reader->patternMax *

	push	16					; 00000010H
	mov	DWORD PTR [edi+176], 4
	call	DWORD PTR _xmlMalloc
	add	esp, 4
	mov	DWORD PTR [edi+180], eax

; 4007 : 					      sizeof(reader->patternTab[0]));
; 4008 :         if (reader->patternTab == NULL) {

	test	eax, eax
	jne	SHORT $LN13@xmlTextRea

; 4009 :             xmlGenericError(xmlGenericErrorContext, "xmlMalloc failed !\n");

	call	___xmlGenericError
	mov	esi, eax
	call	___xmlGenericErrorContext
	push	OFFSET ??_C@_0BE@MPMNBMMA@xmlMalloc?5failed?5?$CB?6@
	push	DWORD PTR [eax]
	mov	eax, DWORD PTR [esi]
	call	eax
	add	esp, 8
$LN3@xmlTextRea:

; 4028 : }

	pop	edi
	or	eax, -1
	pop	esi
	pop	ebp
	ret	0
$LN13@xmlTextRea:

; 4010 :             return (-1);
; 4011 :         }
; 4012 :     }
; 4013 :     if (reader->patternNr >= reader->patternMax) {

	mov	ecx, DWORD PTR [edi+172]
	mov	eax, DWORD PTR [edi+176]
	cmp	ecx, eax
	jl	SHORT $LN14@xmlTextRea

; 4014 :         xmlPatternPtr *tmp;
; 4015 :         reader->patternMax *= 2;

	add	eax, eax
	mov	DWORD PTR [edi+176], eax

; 4016 : 	tmp = (xmlPatternPtr *) xmlRealloc(reader->patternTab,

	shl	eax, 2
	push	eax
	push	DWORD PTR [edi+180]
	call	DWORD PTR _xmlRealloc
	add	esp, 8

; 4017 :                                       reader->patternMax *
; 4018 :                                       sizeof(reader->patternTab[0]));
; 4019 :         if (tmp == NULL) {

	test	eax, eax
	jne	SHORT $LN8@xmlTextRea

; 4020 :             xmlGenericError(xmlGenericErrorContext, "xmlRealloc failed !\n");

	call	___xmlGenericError
	mov	esi, eax
	call	___xmlGenericErrorContext
	push	OFFSET ??_C@_0BF@DCPGEBNC@xmlRealloc?5failed?5?$CB?6@
	push	DWORD PTR [eax]
	mov	eax, DWORD PTR [esi]
	call	eax

; 4021 : 	    reader->patternMax /= 2;

	mov	eax, DWORD PTR [edi+176]
	add	esp, 8
	cdq
	sub	eax, edx
	sar	eax, 1
	mov	DWORD PTR [edi+176], eax

; 4028 : }

	or	eax, -1
	pop	edi
	pop	esi
	pop	ebp
	ret	0
$LN8@xmlTextRea:

; 4022 :             return (-1);
; 4023 :         }
; 4024 : 	reader->patternTab = tmp;

	mov	ecx, DWORD PTR [edi+172]
	mov	DWORD PTR [edi+180], eax
$LN14@xmlTextRea:

; 4025 :     }
; 4026 :     reader->patternTab[reader->patternNr] = comp;

	mov	eax, DWORD PTR [edi+180]
	mov	DWORD PTR [eax+ecx*4], esi

; 4027 :     return(reader->patternNr++);

	mov	eax, DWORD PTR [edi+172]
	lea	ecx, DWORD PTR [eax+1]
	mov	DWORD PTR [edi+172], ecx
	pop	edi

; 4028 : }

	pop	esi
	pop	ebp
	ret	0
_xmlTextReaderPreservePattern ENDP
_TEXT	ENDS
; Function compile flags: /Ogtp
; File c:\users\dag\documents\_clients\codeproject authors group\windows on arm\libxml2\libxml2-2.9.9\xmlreader.c
;	COMDAT _xmlTextReaderPreserve
_TEXT	SEGMENT
_reader$ = 8						; size = 4
_xmlTextReaderPreserve PROC				; COMDAT

; 3950 : xmlTextReaderPreserve(xmlTextReaderPtr reader) {

	push	ebp
	mov	ebp, esp
	mov	ecx, OFFSET __BC13D883_xmlreader@c
	call	@__CheckForDebuggerJustMyCode@4
	mov	ecx, DWORD PTR _reader$[ebp]
	test	ecx, ecx
	je	SHORT $LN15@xmlTextRea

; 3951 :     xmlNodePtr cur, parent;
; 3952 : 
; 3953 :     if (reader == NULL)
; 3954 : 	return(NULL);
; 3955 : 
; 3956 :     if (reader->curnode != NULL)

	mov	eax, DWORD PTR [ecx+68]
	test	eax, eax
	jne	SHORT $LN17@xmlTextRea

; 3957 :         cur = reader->curnode;
; 3958 :     else
; 3959 :         cur = reader->node;

	mov	eax, DWORD PTR [ecx+64]

; 3960 :     if (cur == NULL)

	test	eax, eax
	je	SHORT $LN15@xmlTextRea
$LN17@xmlTextRea:

; 3962 : 
; 3963 :     if ((cur->type != XML_DOCUMENT_NODE) && (cur->type != XML_DTD_NODE)) {

	mov	edx, DWORD PTR [eax+4]
	cmp	edx, 9
	je	SHORT $LN8@xmlTextRea
	cmp	edx, 14					; 0000000eH
	je	SHORT $LN8@xmlTextRea

; 3964 : 	cur->extra |= NODE_IS_PRESERVED;
; 3965 : 	cur->extra |= NODE_IS_SPRESERVED;

	or	WORD PTR [eax+58], 6
$LN8@xmlTextRea:

; 3966 :     }
; 3967 :     reader->preserves++;

	inc	DWORD PTR [ecx+184]

; 3968 : 
; 3969 :     parent = cur->parent;;

	mov	ecx, DWORD PTR [eax+20]

; 3970 :     while (parent != NULL) {

	test	ecx, ecx
	je	SHORT $LN1@xmlTextRea
$LL2@xmlTextRea:

; 3971 :         if (parent->type == XML_ELEMENT_NODE)

	cmp	DWORD PTR [ecx+4], 1
	jne	SHORT $LN9@xmlTextRea

; 3972 : 	    parent->extra |= NODE_IS_PRESERVED;

	or	WORD PTR [ecx+58], 2
$LN9@xmlTextRea:

; 3973 : 	parent = parent->parent;

	mov	ecx, DWORD PTR [ecx+20]
	test	ecx, ecx
	jne	SHORT $LL2@xmlTextRea

; 3974 :     }
; 3975 :     return(cur);
; 3976 : }

	pop	ebp
	ret	0
$LN15@xmlTextRea:

; 3961 :         return(NULL);

	xor	eax, eax
$LN1@xmlTextRea:

; 3974 :     }
; 3975 :     return(cur);
; 3976 : }

	pop	ebp
	ret	0
_xmlTextReaderPreserve ENDP
_TEXT	ENDS
; Function compile flags: /Ogtp
; File c:\users\dag\documents\_clients\codeproject authors group\windows on arm\libxml2\libxml2-2.9.9\xmlreader.c
;	COMDAT _xmlTextReaderGetParserColumnNumber
_TEXT	SEGMENT
_reader$ = 8						; size = 4
_xmlTextReaderGetParserColumnNumber PROC		; COMDAT

; 3911 : {

	push	ebp
	mov	ebp, esp
	mov	ecx, OFFSET __BC13D883_xmlreader@c
	call	@__CheckForDebuggerJustMyCode@4
	mov	eax, DWORD PTR _reader$[ebp]
	test	eax, eax
	je	SHORT $LN3@xmlTextRea

; 3912 :     if ((reader == NULL) || (reader->ctxt == NULL) ||

	mov	eax, DWORD PTR [eax+20]
	test	eax, eax
	je	SHORT $LN3@xmlTextRea
	mov	eax, DWORD PTR [eax+36]
	test	eax, eax
	je	SHORT $LN3@xmlTextRea

; 3915 :     }
; 3916 :     return (reader->ctxt->input->col);

	mov	eax, DWORD PTR [eax+32]

; 3917 : }

	pop	ebp
	ret	0
$LN3@xmlTextRea:

; 3913 :         (reader->ctxt->input == NULL)) {
; 3914 :         return (0);

	xor	eax, eax

; 3917 : }

	pop	ebp
	ret	0
_xmlTextReaderGetParserColumnNumber ENDP
_TEXT	ENDS
; Function compile flags: /Ogtp
; File c:\users\dag\documents\_clients\codeproject authors group\windows on arm\libxml2\libxml2-2.9.9\xmlreader.c
;	COMDAT _xmlTextReaderGetParserLineNumber
_TEXT	SEGMENT
_reader$ = 8						; size = 4
_xmlTextReaderGetParserLineNumber PROC			; COMDAT

; 3893 : {

	push	ebp
	mov	ebp, esp
	mov	ecx, OFFSET __BC13D883_xmlreader@c
	call	@__CheckForDebuggerJustMyCode@4
	mov	eax, DWORD PTR _reader$[ebp]
	test	eax, eax
	je	SHORT $LN3@xmlTextRea

; 3894 :     if ((reader == NULL) || (reader->ctxt == NULL) ||

	mov	eax, DWORD PTR [eax+20]
	test	eax, eax
	je	SHORT $LN3@xmlTextRea
	mov	eax, DWORD PTR [eax+36]
	test	eax, eax
	je	SHORT $LN3@xmlTextRea

; 3897 :     }
; 3898 :     return (reader->ctxt->input->line);

	mov	eax, DWORD PTR [eax+28]

; 3899 : }

	pop	ebp
	ret	0
$LN3@xmlTextRea:

; 3895 :         (reader->ctxt->input == NULL)) {
; 3896 :         return (0);

	xor	eax, eax

; 3899 : }

	pop	ebp
	ret	0
_xmlTextReaderGetParserLineNumber ENDP
_TEXT	ENDS
; Function compile flags: /Ogtp
; File c:\users\dag\documents\_clients\codeproject authors group\windows on arm\libxml2\libxml2-2.9.9\xmlreader.c
;	COMDAT _xmlTextReaderCurrentNode
_TEXT	SEGMENT
_reader$ = 8						; size = 4
_xmlTextReaderCurrentNode PROC				; COMDAT

; 3930 : xmlTextReaderCurrentNode(xmlTextReaderPtr reader) {

	push	ebp
	mov	ebp, esp
	mov	ecx, OFFSET __BC13D883_xmlreader@c
	call	@__CheckForDebuggerJustMyCode@4
	mov	eax, DWORD PTR _reader$[ebp]
	test	eax, eax
	jne	SHORT $LN2@xmlTextRea

; 3937 : }

	pop	ebp
	ret	0
$LN2@xmlTextRea:

; 3931 :     if (reader == NULL)
; 3932 : 	return(NULL);
; 3933 : 
; 3934 :     if (reader->curnode != NULL)

	mov	ecx, DWORD PTR [eax+68]
	test	ecx, ecx
	je	SHORT $LN3@xmlTextRea

; 3935 : 	return(reader->curnode);

	mov	eax, ecx

; 3937 : }

	pop	ebp
	ret	0
$LN3@xmlTextRea:

; 3936 :     return(reader->node);

	mov	eax, DWORD PTR [eax+64]

; 3937 : }

	pop	ebp
	ret	0
_xmlTextReaderCurrentNode ENDP
_TEXT	ENDS
; Function compile flags: /Ogtp
; File c:\users\dag\documents\_clients\codeproject authors group\windows on arm\libxml2\libxml2-2.9.9\xmlreader.c
;	COMDAT _xmlTextReaderGetParserProp
_TEXT	SEGMENT
_reader$ = 8						; size = 4
_prop$ = 12						; size = 4
_xmlTextReaderGetParserProp PROC			; COMDAT

; 3857 : xmlTextReaderGetParserProp(xmlTextReaderPtr reader, int prop) {

	push	ebp
	mov	ebp, esp
	mov	ecx, OFFSET __BC13D883_xmlreader@c
	call	@__CheckForDebuggerJustMyCode@4
	mov	edx, DWORD PTR _reader$[ebp]
	test	edx, edx
	je	SHORT $LN5@xmlTextRea

; 3858 :     xmlParserProperties p = (xmlParserProperties) prop;
; 3859 :     xmlParserCtxtPtr ctxt;
; 3860 : 
; 3861 :     if ((reader == NULL) || (reader->ctxt == NULL))

	mov	ecx, DWORD PTR [edx+20]
	test	ecx, ecx
	je	SHORT $LN5@xmlTextRea

; 3863 :     ctxt = reader->ctxt;
; 3864 : 
; 3865 :     switch (p) {

	mov	eax, DWORD PTR _prop$[ebp]
	dec	eax
	cmp	eax, 3
	ja	SHORT $LN5@xmlTextRea
	jmp	DWORD PTR $LN16@xmlTextRea[eax*4]
$LN6@xmlTextRea:

; 3866 :         case XML_PARSER_LOADDTD:
; 3867 : 	    if ((ctxt->loadsubset != 0) || (ctxt->validate != 0))

	cmp	DWORD PTR [ecx+276], 0
	jne	SHORT $LN14@xmlTextRea
	cmp	DWORD PTR [ecx+104], 0
	jne	SHORT $LN14@xmlTextRea
$LN10@xmlTextRea:

; 3873 : 	    return(0);

	xor	eax, eax

; 3878 :     }
; 3879 :     return(-1);
; 3880 : }

	pop	ebp
	ret	0
$LN9@xmlTextRea:

; 3868 : 		return(1);
; 3869 : 	    return(0);
; 3870 :         case XML_PARSER_DEFAULTATTRS:
; 3871 : 	    if (ctxt->loadsubset & XML_COMPLETE_ATTRS)

	test	BYTE PTR [ecx+276], 4
	je	SHORT $LN10@xmlTextRea
$LN14@xmlTextRea:

; 3872 : 		return(1);

	mov	eax, 1

; 3878 :     }
; 3879 :     return(-1);
; 3880 : }

	pop	ebp
	ret	0
$LN11@xmlTextRea:

; 3874 :         case XML_PARSER_VALIDATE:
; 3875 : 	    return(reader->validate);

	mov	eax, DWORD PTR [edx+8]

; 3878 :     }
; 3879 :     return(-1);
; 3880 : }

	pop	ebp
	ret	0
$LN12@xmlTextRea:

; 3876 : 	case XML_PARSER_SUBST_ENTITIES:
; 3877 : 	    return(ctxt->replaceEntities);

	mov	eax, DWORD PTR [ecx+16]

; 3878 :     }
; 3879 :     return(-1);
; 3880 : }

	pop	ebp
	ret	0
$LN5@xmlTextRea:

; 3862 : 	return(-1);

	or	eax, -1

; 3878 :     }
; 3879 :     return(-1);
; 3880 : }

	pop	ebp
	ret	0
	npad	3
$LN16@xmlTextRea:
	DD	$LN6@xmlTextRea
	DD	$LN9@xmlTextRea
	DD	$LN11@xmlTextRea
	DD	$LN12@xmlTextRea
_xmlTextReaderGetParserProp ENDP
_TEXT	ENDS
; Function compile flags: /Ogtp
; File c:\users\dag\documents\_clients\codeproject authors group\windows on arm\libxml2\libxml2-2.9.9\xmlreader.c
;	COMDAT _xmlTextReaderSetParserProp
_TEXT	SEGMENT
_reader$ = 8						; size = 4
_prop$ = 12						; size = 4
_value$ = 16						; size = 4
_xmlTextReaderSetParserProp PROC			; COMDAT

; 3800 : xmlTextReaderSetParserProp(xmlTextReaderPtr reader, int prop, int value) {

	push	ebp
	mov	ebp, esp
	mov	ecx, OFFSET __BC13D883_xmlreader@c
	call	@__CheckForDebuggerJustMyCode@4
	mov	edx, DWORD PTR _reader$[ebp]
	test	edx, edx
	je	$LN5@xmlTextRea

; 3801 :     xmlParserProperties p = (xmlParserProperties) prop;
; 3802 :     xmlParserCtxtPtr ctxt;
; 3803 : 
; 3804 :     if ((reader == NULL) || (reader->ctxt == NULL))

	mov	ecx, DWORD PTR [edx+20]
	test	ecx, ecx
	je	$LN5@xmlTextRea

; 3806 :     ctxt = reader->ctxt;
; 3807 : 
; 3808 :     switch (p) {

	mov	eax, DWORD PTR _prop$[ebp]
	dec	eax
	cmp	eax, 3
	ja	$LN5@xmlTextRea
	jmp	DWORD PTR $LN23@xmlTextRea[eax*4]
$LN6@xmlTextRea:

; 3809 :         case XML_PARSER_LOADDTD:
; 3810 : 	    if (value != 0) {

	cmp	DWORD PTR _value$[ebp], 0
	je	SHORT $LN7@xmlTextRea

; 3811 : 		if (ctxt->loadsubset == 0) {

	cmp	DWORD PTR [ecx+276], 0
	jne	SHORT $LN17@xmlTextRea

; 3812 : 		    if (reader->mode != XML_TEXTREADER_MODE_INITIAL)

	cmp	DWORD PTR [edx], 0
	jne	SHORT $LN5@xmlTextRea

; 3813 : 			return(-1);
; 3814 : 		    ctxt->loadsubset = XML_DETECT_IDS;

	mov	DWORD PTR [ecx+276], 2

; 3834 : 	    }
; 3835 : 	    return(0);

	xor	eax, eax

; 3843 :     }
; 3844 :     return(-1);
; 3845 : }

	pop	ebp
	ret	0
$LN7@xmlTextRea:

; 3815 : 		}
; 3816 : 	    } else {
; 3817 : 		ctxt->loadsubset = 0;

	mov	DWORD PTR [ecx+276], 0

; 3834 : 	    }
; 3835 : 	    return(0);

	xor	eax, eax

; 3843 :     }
; 3844 :     return(-1);
; 3845 : }

	pop	ebp
	ret	0
$LN11@xmlTextRea:

; 3818 : 	    }
; 3819 : 	    return(0);
; 3820 :         case XML_PARSER_DEFAULTATTRS:
; 3821 : 	    if (value != 0) {

	cmp	DWORD PTR _value$[ebp], 0
	mov	eax, DWORD PTR [ecx+276]
	je	SHORT $LN12@xmlTextRea

; 3822 : 		ctxt->loadsubset |= XML_COMPLETE_ATTRS;

	or	eax, 4
	mov	DWORD PTR [ecx+276], eax

; 3834 : 	    }
; 3835 : 	    return(0);

	xor	eax, eax

; 3843 :     }
; 3844 :     return(-1);
; 3845 : }

	pop	ebp
	ret	0
$LN12@xmlTextRea:

; 3823 : 	    } else {
; 3824 : 		if (ctxt->loadsubset & XML_COMPLETE_ATTRS)

	test	al, 4
	je	SHORT $LN17@xmlTextRea

; 3825 : 		    ctxt->loadsubset -= XML_COMPLETE_ATTRS;

	add	eax, -4					; fffffffcH
	mov	DWORD PTR [ecx+276], eax

; 3834 : 	    }
; 3835 : 	    return(0);

	xor	eax, eax

; 3843 :     }
; 3844 :     return(-1);
; 3845 : }

	pop	ebp
	ret	0
$LN15@xmlTextRea:

; 3826 : 	    }
; 3827 : 	    return(0);
; 3828 :         case XML_PARSER_VALIDATE:
; 3829 : 	    if (value != 0) {

	cmp	DWORD PTR _value$[ebp], 0
	je	SHORT $LN16@xmlTextRea

; 3830 : 		ctxt->validate = 1;

	mov	DWORD PTR [ecx+104], 1

; 3834 : 	    }
; 3835 : 	    return(0);

	xor	eax, eax
	mov	DWORD PTR [edx+8], 1

; 3843 :     }
; 3844 :     return(-1);
; 3845 : }

	pop	ebp
	ret	0
$LN16@xmlTextRea:

; 3831 : 		reader->validate = XML_TEXTREADER_VALIDATE_DTD;
; 3832 : 	    } else {
; 3833 : 		ctxt->validate = 0;

	mov	DWORD PTR [ecx+104], 0
$LN17@xmlTextRea:

; 3834 : 	    }
; 3835 : 	    return(0);

	xor	eax, eax

; 3843 :     }
; 3844 :     return(-1);
; 3845 : }

	pop	ebp
	ret	0
$LN18@xmlTextRea:

; 3836 :         case XML_PARSER_SUBST_ENTITIES:
; 3837 : 	    if (value != 0) {
; 3838 : 		ctxt->replaceEntities = 1;
; 3839 : 	    } else {
; 3840 : 		ctxt->replaceEntities = 0;
; 3841 : 	    }
; 3842 : 	    return(0);

	xor	eax, eax
	cmp	DWORD PTR _value$[ebp], eax
	setne	al
	mov	DWORD PTR [ecx+16], eax
	xor	eax, eax

; 3843 :     }
; 3844 :     return(-1);
; 3845 : }

	pop	ebp
	ret	0
$LN5@xmlTextRea:

; 3805 : 	return(-1);

	or	eax, -1

; 3843 :     }
; 3844 :     return(-1);
; 3845 : }

	pop	ebp
	ret	0
$LN23@xmlTextRea:
	DD	$LN6@xmlTextRea
	DD	$LN11@xmlTextRea
	DD	$LN15@xmlTextRea
	DD	$LN18@xmlTextRea
_xmlTextReaderSetParserProp ENDP
_TEXT	ENDS
; Function compile flags: /Ogtp
; File c:\users\dag\documents\_clients\codeproject authors group\windows on arm\libxml2\libxml2-2.9.9\xmlreader.c
;	COMDAT _xmlTextReaderConstEncoding
_TEXT	SEGMENT
_reader$ = 8						; size = 4
_xmlTextReaderConstEncoding PROC			; COMDAT

; 2933 : xmlTextReaderConstEncoding(xmlTextReaderPtr reader) {

	push	ebp
	mov	ebp, esp
	mov	ecx, OFFSET __BC13D883_xmlreader@c
	call	@__CheckForDebuggerJustMyCode@4
	mov	ecx, DWORD PTR _reader$[ebp]
	test	ecx, ecx
	je	SHORT $LN11@xmlTextRea

; 2934 :     xmlDocPtr doc = NULL;
; 2935 :     if (reader == NULL)
; 2936 : 	return(NULL);
; 2937 :     if (reader->doc != NULL)

	mov	eax, DWORD PTR [ecx+4]
	test	eax, eax
	jne	SHORT $LN13@xmlTextRea

; 2938 :         doc = reader->doc;
; 2939 :     else if (reader->ctxt != NULL)

	mov	eax, DWORD PTR [ecx+20]
	test	eax, eax
	je	SHORT $LN11@xmlTextRea

; 2940 : 	doc = reader->ctxt->myDoc;

	mov	eax, DWORD PTR [eax+8]

; 2941 :     if (doc == NULL)

	test	eax, eax
	je	SHORT $LN11@xmlTextRea
$LN13@xmlTextRea:

; 2942 : 	return(NULL);
; 2943 : 
; 2944 :     if (doc->encoding == NULL)

	mov	eax, DWORD PTR [eax+60]
	test	eax, eax
	je	SHORT $LN11@xmlTextRea

; 2946 :     else
; 2947 :       return(CONSTSTR(doc->encoding));

	push	-1
	push	eax
	push	DWORD PTR [ecx+88]
	call	_xmlDictLookup
	add	esp, 12					; 0000000cH

; 2948 : }

	pop	ebp
	ret	0
$LN11@xmlTextRea:

; 2945 : 	return(NULL);

	xor	eax, eax

; 2948 : }

	pop	ebp
	ret	0
_xmlTextReaderConstEncoding ENDP
_TEXT	ENDS
; Function compile flags: /Ogtp
; File c:\users\dag\documents\_clients\codeproject authors group\windows on arm\libxml2\libxml2-2.9.9\xmlreader.c
;	COMDAT _xmlTextReaderNormalization
_TEXT	SEGMENT
_reader$ = 8						; size = 4
_xmlTextReaderNormalization PROC			; COMDAT

; 3775 : xmlTextReaderNormalization(xmlTextReaderPtr reader) {

	push	ebp
	mov	ebp, esp
	mov	ecx, OFFSET __BC13D883_xmlreader@c
	call	@__CheckForDebuggerJustMyCode@4
	xor	eax, eax
	cmp	DWORD PTR _reader$[ebp], eax
	setne	al
	lea	eax, DWORD PTR [eax*2-1]

; 3776 :     if (reader == NULL)
; 3777 : 	return(-1);
; 3778 :     return(1);
; 3779 : }

	pop	ebp
	ret	0
_xmlTextReaderNormalization ENDP
_TEXT	ENDS
; Function compile flags: /Ogtp
; File c:\users\dag\documents\_clients\codeproject authors group\windows on arm\libxml2\libxml2-2.9.9\xmlreader.c
;	COMDAT _xmlTextReaderMoveToElement
_TEXT	SEGMENT
_reader$ = 8						; size = 4
_xmlTextReaderMoveToElement PROC			; COMDAT

; 2865 : xmlTextReaderMoveToElement(xmlTextReaderPtr reader) {

	push	ebp
	mov	ebp, esp
	mov	ecx, OFFSET __BC13D883_xmlreader@c
	call	@__CheckForDebuggerJustMyCode@4
	mov	eax, DWORD PTR _reader$[ebp]
	test	eax, eax
	je	SHORT $LN7@xmlTextRea

; 2866 :     if (reader == NULL)
; 2867 : 	return(-1);
; 2868 :     if (reader->node == NULL)

	mov	ecx, DWORD PTR [eax+64]
	test	ecx, ecx
	je	SHORT $LN7@xmlTextRea

; 2870 :     if (reader->node->type != XML_ELEMENT_NODE)

	cmp	DWORD PTR [ecx+4], 1
	jne	SHORT $LN5@xmlTextRea

; 2871 : 	return(0);
; 2872 :     if (reader->curnode != NULL) {

	cmp	DWORD PTR [eax+68], 0
	je	SHORT $LN5@xmlTextRea

; 2873 : 	reader->curnode = NULL;

	mov	DWORD PTR [eax+68], 0

; 2874 : 	return(1);

	mov	eax, 1

; 2877 : }

	pop	ebp
	ret	0
$LN5@xmlTextRea:

; 2875 :     }
; 2876 :     return(0);

	xor	eax, eax

; 2877 : }

	pop	ebp
	ret	0
$LN7@xmlTextRea:

; 2869 : 	return(-1);

	or	eax, -1

; 2877 : }

	pop	ebp
	ret	0
_xmlTextReaderMoveToElement ENDP
_TEXT	ENDS
; Function compile flags: /Ogtp
; File c:\users\dag\documents\_clients\codeproject authors group\windows on arm\libxml2\libxml2-2.9.9\xmlreader.c
;	COMDAT _xmlTextReaderMoveToNextAttribute
_TEXT	SEGMENT
_reader$ = 8						; size = 4
_xmlTextReaderMoveToNextAttribute PROC			; COMDAT

; 2826 : xmlTextReaderMoveToNextAttribute(xmlTextReaderPtr reader) {

	push	ebp
	mov	ebp, esp
	mov	ecx, OFFSET __BC13D883_xmlreader@c
	call	@__CheckForDebuggerJustMyCode@4
	mov	eax, DWORD PTR _reader$[ebp]
	test	eax, eax
	je	SHORT $LN12@xmlTextRea

; 2827 :     if (reader == NULL)
; 2828 : 	return(-1);
; 2829 :     if (reader->node == NULL)

	mov	ecx, DWORD PTR [eax+64]
	test	ecx, ecx
	je	SHORT $LN12@xmlTextRea

; 2831 :     if (reader->node->type != XML_ELEMENT_NODE)

	cmp	DWORD PTR [ecx+4], 1
	jne	SHORT $LN10@xmlTextRea

; 2832 : 	return(0);
; 2833 :     if (reader->curnode == NULL)

	mov	edx, DWORD PTR [eax+68]
	test	edx, edx
	jne	SHORT $LN5@xmlTextRea

; 2834 : 	return(xmlTextReaderMoveToFirstAttribute(reader));

	mov	DWORD PTR _reader$[ebp], eax

; 2853 : }

	pop	ebp

; 2834 : 	return(xmlTextReaderMoveToFirstAttribute(reader));

	jmp	_xmlTextReaderMoveToFirstAttribute
$LN5@xmlTextRea:

; 2835 : 
; 2836 :     if (reader->curnode->type == XML_NAMESPACE_DECL) {

	cmp	DWORD PTR [edx+4], 18			; 00000012H
	jne	SHORT $LN6@xmlTextRea

; 2837 : 	xmlNsPtr ns = (xmlNsPtr) reader->curnode;
; 2838 : 	if (ns->next != NULL) {

	mov	edx, DWORD PTR [edx]
	test	edx, edx
	je	SHORT $LN8@xmlTextRea

; 2839 : 	    reader->curnode = (xmlNodePtr) ns->next;

	mov	DWORD PTR [eax+68], edx

; 2840 : 	    return(1);

	mov	eax, 1

; 2853 : }

	pop	ebp
	ret	0
$LN8@xmlTextRea:

; 2841 : 	}
; 2842 : 	if (reader->node->properties != NULL) {

	mov	ecx, DWORD PTR [ecx+44]
$LN15@xmlTextRea:

; 2853 : }

	test	ecx, ecx
	je	SHORT $LN10@xmlTextRea
	mov	DWORD PTR [eax+68], ecx
	mov	eax, 1
	pop	ebp
	ret	0
$LN6@xmlTextRea:

; 2843 : 	    reader->curnode = (xmlNodePtr) reader->node->properties;
; 2844 : 	    return(1);
; 2845 : 	}
; 2846 : 	return(0);
; 2847 :     } else if ((reader->curnode->type == XML_ATTRIBUTE_NODE) &&

	cmp	DWORD PTR [edx+4], 2
	jne	SHORT $LN10@xmlTextRea
	mov	ecx, DWORD PTR [edx+24]

; 2848 : 	       (reader->curnode->next != NULL)) {
; 2849 : 	reader->curnode = reader->curnode->next;
; 2850 : 	return(1);

	jmp	SHORT $LN15@xmlTextRea
$LN10@xmlTextRea:

; 2851 :     }
; 2852 :     return(0);

	xor	eax, eax

; 2853 : }

	pop	ebp
	ret	0
$LN12@xmlTextRea:

; 2830 : 	return(-1);

	or	eax, -1

; 2853 : }

	pop	ebp
	ret	0
_xmlTextReaderMoveToNextAttribute ENDP
_TEXT	ENDS
; Function compile flags: /Ogtp
; File c:\users\dag\documents\_clients\codeproject authors group\windows on arm\libxml2\libxml2-2.9.9\xmlreader.c
;	COMDAT _xmlTextReaderMoveToFirstAttribute
_TEXT	SEGMENT
_reader$ = 8						; size = 4
_xmlTextReaderMoveToFirstAttribute PROC			; COMDAT

; 2797 : xmlTextReaderMoveToFirstAttribute(xmlTextReaderPtr reader) {

	push	ebp
	mov	ebp, esp
	mov	ecx, OFFSET __BC13D883_xmlreader@c
	call	@__CheckForDebuggerJustMyCode@4
	mov	ecx, DWORD PTR _reader$[ebp]
	test	ecx, ecx
	je	SHORT $LN8@xmlTextRea

; 2798 :     if (reader == NULL)
; 2799 : 	return(-1);
; 2800 :     if (reader->node == NULL)

	mov	eax, DWORD PTR [ecx+64]
	test	eax, eax
	je	SHORT $LN8@xmlTextRea

; 2802 :     if (reader->node->type != XML_ELEMENT_NODE)

	cmp	DWORD PTR [eax+4], 1
	jne	SHORT $LN6@xmlTextRea

; 2803 : 	return(0);
; 2804 : 
; 2805 :     if (reader->node->nsDef != NULL) {

	mov	edx, DWORD PTR [eax+48]
	test	edx, edx
	je	SHORT $LN5@xmlTextRea

; 2806 : 	reader->curnode = (xmlNodePtr) reader->node->nsDef;

	mov	DWORD PTR [ecx+68], edx

; 2807 : 	return(1);

	mov	eax, 1

; 2814 : }

	pop	ebp
	ret	0
$LN5@xmlTextRea:

; 2808 :     }
; 2809 :     if (reader->node->properties != NULL) {

	mov	eax, DWORD PTR [eax+44]
	test	eax, eax
	je	SHORT $LN6@xmlTextRea

; 2810 : 	reader->curnode = (xmlNodePtr) reader->node->properties;

	mov	DWORD PTR [ecx+68], eax

; 2811 : 	return(1);

	mov	eax, 1

; 2814 : }

	pop	ebp
	ret	0
$LN6@xmlTextRea:

; 2812 :     }
; 2813 :     return(0);

	xor	eax, eax

; 2814 : }

	pop	ebp
	ret	0
$LN8@xmlTextRea:

; 2801 : 	return(-1);

	or	eax, -1

; 2814 : }

	pop	ebp
	ret	0
_xmlTextReaderMoveToFirstAttribute ENDP
_TEXT	ENDS
; Function compile flags: /Ogtp
; File c:\users\dag\documents\_clients\codeproject authors group\windows on arm\libxml2\libxml2-2.9.9\xmlreader.c
;	COMDAT _xmlTextReaderMoveToAttributeNs
_TEXT	SEGMENT
_reader$ = 8						; size = 4
_localName$ = 12					; size = 4
_namespaceURI$ = 16					; size = 4
_xmlTextReaderMoveToAttributeNs PROC			; COMDAT

; 2739 : 	const xmlChar *localName, const xmlChar *namespaceURI) {

	push	ebp
	mov	ebp, esp
	push	ebx
	push	esi
	push	edi
	mov	ecx, OFFSET __BC13D883_xmlreader@c
	call	@__CheckForDebuggerJustMyCode@4
	mov	ecx, DWORD PTR _reader$[ebp]
	xor	ebx, ebx
	test	ecx, ecx
	je	$LN7@xmlTextRea

; 2740 :     xmlAttrPtr prop;
; 2741 :     xmlNodePtr node;
; 2742 :     xmlNsPtr ns;
; 2743 :     xmlChar *prefix = NULL;
; 2744 : 
; 2745 :     if ((reader == NULL) || (localName == NULL) || (namespaceURI == NULL))

	mov	edi, DWORD PTR _localName$[ebp]
	test	edi, edi
	je	$LN7@xmlTextRea
	mov	eax, DWORD PTR _namespaceURI$[ebp]
	test	eax, eax
	je	$LN7@xmlTextRea

; 2746 : 	return(-1);
; 2747 :     if (reader->node == NULL)

	mov	esi, DWORD PTR [ecx+64]
	test	esi, esi
	je	$LN7@xmlTextRea

; 2748 : 	return(-1);
; 2749 :     if (reader->node->type != XML_ELEMENT_NODE)

	cmp	DWORD PTR [esi+4], 1
	jne	$LN3@xmlTextRea

; 2750 : 	return(0);
; 2751 :     node = reader->node;
; 2752 : 
; 2753 :     if (xmlStrEqual(namespaceURI, BAD_CAST "http://www.w3.org/2000/xmlns/")) {

	push	OFFSET ??_C@_0BO@GBJIDPIB@http?3?1?1www?4w3?4org?12000?1xmlns?1@
	push	eax
	call	_xmlStrEqual
	add	esp, 8
	test	eax, eax
	je	SHORT $LN10@xmlTextRea

; 2754 : 		if (! xmlStrEqual(localName, BAD_CAST "xmlns")) {

	push	OFFSET ??_C@_05PPEFOGKI@xmlns@
	push	edi
	call	_xmlStrEqual
	add	esp, 8
	test	eax, eax

; 2755 : 			prefix = BAD_CAST localName;
; 2756 : 		}
; 2757 : 		ns = reader->node->nsDef;

	mov	eax, DWORD PTR _reader$[ebp]
	cmove	ebx, edi
	mov	eax, DWORD PTR [eax+64]
	mov	esi, DWORD PTR [eax+48]

; 2758 : 		while (ns != NULL) {

	test	esi, esi
	je	SHORT $LN3@xmlTextRea
	npad	6
$LL2@xmlTextRea:

; 2759 : 			if ((prefix == NULL && ns->prefix == NULL) ||

	test	ebx, ebx
	jne	SHORT $LN27@xmlTextRea
	cmp	DWORD PTR [esi+12], ebx
	je	SHORT $LN13@xmlTextRea
$LN27@xmlTextRea:
	mov	eax, DWORD PTR [esi+12]
	test	eax, eax
	je	SHORT $LN12@xmlTextRea
	push	edi
	push	eax
	call	_xmlStrEqual
	add	esp, 8
	test	eax, eax
	jne	SHORT $LN13@xmlTextRea
$LN12@xmlTextRea:

; 2760 : 				((ns->prefix != NULL) && (xmlStrEqual(ns->prefix, localName)))) {
; 2761 : 				reader->curnode = (xmlNodePtr) ns;
; 2762 : 				return(1);
; 2763 : 			}
; 2764 : 			ns = ns->next;

	mov	esi, DWORD PTR [esi]
	test	esi, esi
	jne	SHORT $LL2@xmlTextRea

; 2783 :     }
; 2784 :     return(0);
; 2785 : }

	pop	edi
	pop	esi
	xor	eax, eax
	pop	ebx
	pop	ebp
	ret	0
$LN13@xmlTextRea:
	mov	eax, DWORD PTR _reader$[ebp]
	pop	edi
	mov	DWORD PTR [eax+68], esi
	mov	eax, 1
	pop	esi
	pop	ebx
	pop	ebp
	ret	0
$LN10@xmlTextRea:

; 2765 : 		}
; 2766 : 		return(0);
; 2767 :     }
; 2768 : 
; 2769 :     prop = node->properties;

	mov	esi, DWORD PTR [esi+44]

; 2770 :     while (prop != NULL) {

	test	esi, esi
	je	SHORT $LN3@xmlTextRea
	mov	ebx, DWORD PTR _namespaceURI$[ebp]
$LL4@xmlTextRea:

; 2771 : 	/*
; 2772 : 	 * One need to have
; 2773 : 	 *   - same attribute names
; 2774 : 	 *   - and the attribute carrying that namespace
; 2775 : 	 */
; 2776 :         if (xmlStrEqual(prop->name, localName) &&

	push	edi
	push	DWORD PTR [esi+8]
	call	_xmlStrEqual
	add	esp, 8
	test	eax, eax
	je	SHORT $LN15@xmlTextRea
	mov	eax, DWORD PTR [esi+36]
	test	eax, eax
	je	SHORT $LN15@xmlTextRea
	push	ebx
	push	DWORD PTR [eax+8]
	call	_xmlStrEqual
	add	esp, 8
	test	eax, eax
	jne	SHORT $LN13@xmlTextRea
$LN15@xmlTextRea:

; 2777 : 	    ((prop->ns != NULL) &&
; 2778 : 	     (xmlStrEqual(prop->ns->href, namespaceURI)))) {
; 2779 : 	    reader->curnode = (xmlNodePtr) prop;
; 2780 : 	    return(1);
; 2781 :         }
; 2782 : 	prop = prop->next;

	mov	esi, DWORD PTR [esi+24]
	test	esi, esi
	jne	SHORT $LL4@xmlTextRea
$LN3@xmlTextRea:
	pop	edi

; 2783 :     }
; 2784 :     return(0);
; 2785 : }

	pop	esi
	xor	eax, eax
	pop	ebx
	pop	ebp
	ret	0
$LN7@xmlTextRea:
	pop	edi
	pop	esi
	or	eax, -1
	pop	ebx
	pop	ebp
	ret	0
_xmlTextReaderMoveToAttributeNs ENDP
_TEXT	ENDS
; Function compile flags: /Ogtp
; File c:\users\dag\documents\_clients\codeproject authors group\windows on arm\libxml2\libxml2-2.9.9\xmlreader.c
;	COMDAT _xmlTextReaderMoveToAttribute
_TEXT	SEGMENT
_prefix$ = -4						; size = 4
_reader$ = 8						; size = 4
_name$ = 12						; size = 4
_xmlTextReaderMoveToAttribute PROC			; COMDAT

; 2634 : xmlTextReaderMoveToAttribute(xmlTextReaderPtr reader, const xmlChar *name) {

	push	ebp
	mov	ebp, esp
	push	ecx
	push	ebx
	push	esi
	mov	ecx, OFFSET __BC13D883_xmlreader@c
	call	@__CheckForDebuggerJustMyCode@4
	mov	esi, DWORD PTR _reader$[ebp]
	mov	DWORD PTR _prefix$[ebp], 0
	test	esi, esi
	je	$LN11@xmlTextRea

; 2635 :     xmlChar *prefix = NULL;
; 2636 :     xmlChar *localname;
; 2637 :     xmlNsPtr ns;
; 2638 :     xmlAttrPtr prop;
; 2639 : 
; 2640 :     if ((reader == NULL) || (name == NULL))

	mov	ebx, DWORD PTR _name$[ebp]
	test	ebx, ebx
	je	$LN11@xmlTextRea

; 2642 :     if (reader->node == NULL)

	mov	eax, DWORD PTR [esi+64]
	test	eax, eax
	je	$LN11@xmlTextRea

; 2643 : 	return(-1);
; 2644 : 
; 2645 :     /* TODO: handle the xmlDecl */
; 2646 :     if (reader->node->type != XML_ELEMENT_NODE)

	cmp	DWORD PTR [eax+4], 1
	push	edi
	jne	$LN23@xmlTextRea

; 2647 : 	return(0);
; 2648 : 
; 2649 :     localname = xmlSplitQName2(name, &prefix);

	lea	eax, DWORD PTR _prefix$[ebp]
	push	eax
	push	ebx
	call	_xmlSplitQName2
	add	esp, 8
	mov	edi, eax

; 2650 :     if (localname == NULL) {

	push	OFFSET ??_C@_05PPEFOGKI@xmlns@
	test	edi, edi
	jne	$LN14@xmlTextRea

; 2651 : 	/*
; 2652 : 	 * Namespace default decl
; 2653 : 	 */
; 2654 : 	if (xmlStrEqual(name, BAD_CAST "xmlns")) {

	push	ebx
	call	_xmlStrEqual
	mov	ecx, DWORD PTR [esi+64]
	add	esp, 8
	test	eax, eax
	je	SHORT $LN15@xmlTextRea

; 2655 : 	    ns = reader->node->nsDef;

	mov	eax, DWORD PTR [ecx+48]

; 2656 : 	    while (ns != NULL) {

	test	eax, eax
	je	$LN23@xmlTextRea
	npad	6
$LL2@xmlTextRea:

; 2657 : 		if (ns->prefix == NULL) {

	cmp	DWORD PTR [eax+12], 0
	je	SHORT $LN31@xmlTextRea

; 2659 : 		    return(1);
; 2660 : 		}
; 2661 : 		ns = ns->next;

	mov	eax, DWORD PTR [eax]
	test	eax, eax
	jne	SHORT $LL2@xmlTextRea

; 2723 :     return(1);
; 2724 : }

	pop	edi
	pop	esi
	pop	ebx
	mov	esp, ebp
	pop	ebp
	ret	0
$LN31@xmlTextRea:

; 2658 : 		    reader->curnode = (xmlNodePtr) ns;

	mov	DWORD PTR [esi+68], eax
$LN25@xmlTextRea:
	pop	edi
	pop	esi

; 2676 : 		return(1);

	mov	eax, 1

; 2723 :     return(1);
; 2724 : }

	pop	ebx
	mov	esp, ebp
	pop	ebp
	ret	0
$LN15@xmlTextRea:

; 2662 : 	    }
; 2663 : 	    return(0);
; 2664 : 	}
; 2665 : 
; 2666 : 	prop = reader->node->properties;

	mov	esi, DWORD PTR [ecx+44]

; 2667 : 	while (prop != NULL) {

	test	esi, esi
	je	$LN23@xmlTextRea
	npad	3
$LL4@xmlTextRea:

; 2668 : 	    /*
; 2669 : 	     * One need to have
; 2670 : 	     *   - same attribute names
; 2671 : 	     *   - and the attribute carrying that namespace
; 2672 : 	     */
; 2673 : 	    if ((xmlStrEqual(prop->name, name)) &&

	push	ebx
	push	DWORD PTR [esi+8]
	call	_xmlStrEqual
	add	esp, 8
	test	eax, eax
	je	SHORT $LN17@xmlTextRea
	mov	eax, DWORD PTR [esi+36]
	test	eax, eax
	je	SHORT $LN18@xmlTextRea
	cmp	DWORD PTR [eax+12], 0
	je	SHORT $LN18@xmlTextRea
$LN17@xmlTextRea:

; 2677 : 	    }
; 2678 : 	    prop = prop->next;

	mov	esi, DWORD PTR [esi+24]
	test	esi, esi
	jne	SHORT $LL4@xmlTextRea

; 2716 :     return(0);

	pop	edi
	pop	esi
	xor	eax, eax

; 2723 :     return(1);
; 2724 : }

	pop	ebx
	mov	esp, ebp
	pop	ebp
	ret	0
$LN18@xmlTextRea:

; 2674 : 		((prop->ns == NULL) || (prop->ns->prefix == NULL))) {
; 2675 : 		reader->curnode = (xmlNodePtr) prop;

	mov	eax, DWORD PTR _reader$[ebp]
	pop	edi
	mov	DWORD PTR [eax+68], esi

; 2676 : 		return(1);

	mov	eax, 1
	pop	esi

; 2723 :     return(1);
; 2724 : }

	pop	ebx
	mov	esp, ebp
	pop	ebp
	ret	0
$LN14@xmlTextRea:

; 2679 : 	}
; 2680 : 	return(0);
; 2681 :     }
; 2682 : 
; 2683 :     /*
; 2684 :      * Namespace default decl
; 2685 :      */
; 2686 :     if (xmlStrEqual(prefix, BAD_CAST "xmlns")) {

	push	DWORD PTR _prefix$[ebp]
	call	_xmlStrEqual
	mov	esi, DWORD PTR [esi+64]
	add	esp, 8
	test	eax, eax
	je	SHORT $LN19@xmlTextRea

; 2687 : 	ns = reader->node->nsDef;

	mov	esi, DWORD PTR [esi+48]

; 2688 : 	while (ns != NULL) {

	test	esi, esi
	je	SHORT $not_found$51
$LL6@xmlTextRea:

; 2689 : 	    if ((ns->prefix != NULL) && (xmlStrEqual(ns->prefix, localname))) {

	mov	eax, DWORD PTR [esi+12]
	test	eax, eax
	je	SHORT $LN20@xmlTextRea
	push	edi
	push	eax
	call	_xmlStrEqual
	add	esp, 8
	test	eax, eax
	jne	SHORT $found$52
$LN20@xmlTextRea:

; 2690 : 		reader->curnode = (xmlNodePtr) ns;
; 2691 : 		goto found;
; 2692 : 	    }
; 2693 : 	    ns = ns->next;

	mov	esi, DWORD PTR [esi]
	test	esi, esi
	jne	SHORT $LL6@xmlTextRea
$not_found$51:

; 2710 :     }
; 2711 : not_found:
; 2712 :     if (localname != NULL)
; 2713 :         xmlFree(localname);

	push	edi
	call	DWORD PTR _xmlFree

; 2714 :     if (prefix != NULL)

	mov	eax, DWORD PTR _prefix$[ebp]
	add	esp, 4
	test	eax, eax
	je	SHORT $LN23@xmlTextRea

; 2715 :         xmlFree(prefix);

	push	eax
	call	DWORD PTR _xmlFree
	add	esp, 4
$LN23@xmlTextRea:

; 2716 :     return(0);

	pop	edi
	pop	esi
	xor	eax, eax

; 2723 :     return(1);
; 2724 : }

	pop	ebx
	mov	esp, ebp
	pop	ebp
	ret	0
$LN19@xmlTextRea:

; 2694 : 	}
; 2695 : 	goto not_found;
; 2696 :     }
; 2697 :     prop = reader->node->properties;

	mov	esi, DWORD PTR [esi+44]

; 2698 :     while (prop != NULL) {

	test	esi, esi
	je	SHORT $not_found$51
	npad	2
$LL8@xmlTextRea:

; 2699 : 	/*
; 2700 : 	 * One need to have
; 2701 : 	 *   - same attribute names
; 2702 : 	 *   - and the attribute carrying that namespace
; 2703 : 	 */
; 2704 : 	if ((xmlStrEqual(prop->name, localname)) &&
; 2705 : 	    (prop->ns != NULL) && (xmlStrEqual(prop->ns->prefix, prefix))) {

	push	edi
	push	DWORD PTR [esi+8]
	call	_xmlStrEqual
	add	esp, 8
	test	eax, eax
	je	SHORT $LN21@xmlTextRea
	mov	eax, DWORD PTR [esi+36]
	test	eax, eax
	je	SHORT $LN21@xmlTextRea
	push	DWORD PTR _prefix$[ebp]
	push	DWORD PTR [eax+12]
	call	_xmlStrEqual
	add	esp, 8
	test	eax, eax
	jne	SHORT $found$52
$LN21@xmlTextRea:

; 2706 : 	    reader->curnode = (xmlNodePtr) prop;
; 2707 : 	    goto found;
; 2708 : 	}
; 2709 : 	prop = prop->next;

	mov	esi, DWORD PTR [esi+24]
	test	esi, esi
	jne	SHORT $LL8@xmlTextRea

; 2698 :     while (prop != NULL) {

	jmp	SHORT $not_found$51
$found$52:

; 2717 : 
; 2718 : found:
; 2719 :     if (localname != NULL)

	mov	eax, DWORD PTR _reader$[ebp]

; 2720 :         xmlFree(localname);

	push	edi
	mov	DWORD PTR [eax+68], esi
	call	DWORD PTR _xmlFree

; 2721 :     if (prefix != NULL)

	mov	eax, DWORD PTR _prefix$[ebp]
	add	esp, 4
	test	eax, eax
	je	$LN25@xmlTextRea

; 2722 :         xmlFree(prefix);

	push	eax
	call	DWORD PTR _xmlFree
	add	esp, 4
	mov	eax, 1
	pop	edi
	pop	esi

; 2723 :     return(1);
; 2724 : }

	pop	ebx
	mov	esp, ebp
	pop	ebp
	ret	0
$LN11@xmlTextRea:
	pop	esi

; 2641 : 	return(-1);

	or	eax, -1

; 2723 :     return(1);
; 2724 : }

	pop	ebx
	mov	esp, ebp
	pop	ebp
	ret	0
_xmlTextReaderMoveToAttribute ENDP
_TEXT	ENDS
; Function compile flags: /Ogtp
; File c:\users\dag\documents\_clients\codeproject authors group\windows on arm\libxml2\libxml2-2.9.9\xmlreader.c
;	COMDAT _xmlTextReaderMoveToAttributeNo
_TEXT	SEGMENT
_reader$ = 8						; size = 4
_no$ = 12						; size = 4
_xmlTextReaderMoveToAttributeNo PROC			; COMDAT

; 2585 : xmlTextReaderMoveToAttributeNo(xmlTextReaderPtr reader, int no) {

	push	ebp
	mov	ebp, esp
	push	esi
	push	edi
	mov	ecx, OFFSET __BC13D883_xmlreader@c
	call	@__CheckForDebuggerJustMyCode@4
	mov	esi, DWORD PTR _reader$[ebp]
	test	esi, esi
	je	SHORT $LN24@xmlTextRea

; 2586 :     int i;
; 2587 :     xmlAttrPtr cur;
; 2588 :     xmlNsPtr ns;
; 2589 : 
; 2590 :     if (reader == NULL)
; 2591 : 	return(-1);
; 2592 :     if (reader->node == NULL)

	mov	edi, DWORD PTR [esi+64]
	test	edi, edi
	je	SHORT $LN24@xmlTextRea

; 2593 : 	return(-1);
; 2594 :     /* TODO: handle the xmlDecl */
; 2595 :     if (reader->node->type != XML_ELEMENT_NODE)

	cmp	DWORD PTR [edi+4], 1
	jne	SHORT $LN24@xmlTextRea

; 2597 : 
; 2598 :     reader->curnode = NULL;
; 2599 : 
; 2600 :     ns = reader->node->nsDef;
; 2601 :     for (i = 0;(i < no) && (ns != NULL);i++) {

	mov	edx, DWORD PTR _no$[ebp]
	xor	eax, eax
	mov	DWORD PTR [esi+68], 0
	mov	ecx, DWORD PTR [edi+48]
	test	edx, edx
	jle	SHORT $LN3@xmlTextRea
$LL4@xmlTextRea:
	test	ecx, ecx
	je	SHORT $LN11@xmlTextRea

; 2602 : 	ns = ns->next;

	mov	ecx, DWORD PTR [ecx]
	inc	eax
	cmp	eax, edx
	jl	SHORT $LL4@xmlTextRea
$LN3@xmlTextRea:

; 2603 :     }
; 2604 :     if (ns != NULL) {

	test	ecx, ecx
	jne	SHORT $LN6@xmlTextRea
$LN11@xmlTextRea:

; 2605 : 	reader->curnode = (xmlNodePtr) ns;
; 2606 : 	return(1);
; 2607 :     }
; 2608 : 
; 2609 :     cur = reader->node->properties;

	mov	ecx, DWORD PTR [edi+44]

; 2610 :     if (cur == NULL)

	test	ecx, ecx
	je	SHORT $LN17@xmlTextRea

; 2611 : 	return(0);
; 2612 :     for (;i < no;i++) {

	cmp	eax, edx
	jge	SHORT $LN6@xmlTextRea
$LL7@xmlTextRea:

; 2613 : 	cur = cur->next;

	mov	ecx, DWORD PTR [ecx+24]

; 2614 : 	if (cur == NULL)

	test	ecx, ecx
	je	SHORT $LN17@xmlTextRea

; 2611 : 	return(0);
; 2612 :     for (;i < no;i++) {

	inc	eax
	cmp	eax, edx
	jl	SHORT $LL7@xmlTextRea
$LN6@xmlTextRea:
	pop	edi

; 2616 :     }
; 2617 :     /* TODO walk the DTD if present */
; 2618 : 
; 2619 :     reader->curnode = (xmlNodePtr) cur;
; 2620 :     return(1);
; 2621 : }

	mov	DWORD PTR [esi+68], ecx
	mov	eax, 1
	pop	esi
	pop	ebp
	ret	0
$LN17@xmlTextRea:
	pop	edi

; 2615 : 	    return(0);

	xor	eax, eax

; 2616 :     }
; 2617 :     /* TODO walk the DTD if present */
; 2618 : 
; 2619 :     reader->curnode = (xmlNodePtr) cur;
; 2620 :     return(1);
; 2621 : }

	pop	esi
	pop	ebp
	ret	0
$LN24@xmlTextRea:
	pop	edi

; 2596 : 	return(-1);

	or	eax, -1

; 2616 :     }
; 2617 :     /* TODO walk the DTD if present */
; 2618 : 
; 2619 :     reader->curnode = (xmlNodePtr) cur;
; 2620 :     return(1);
; 2621 : }

	pop	esi
	pop	ebp
	ret	0
_xmlTextReaderMoveToAttributeNo ENDP
_TEXT	ENDS
; Function compile flags: /Ogtp
; File c:\users\dag\documents\_clients\codeproject authors group\windows on arm\libxml2\libxml2-2.9.9\xmlreader.c
;	COMDAT _xmlTextReaderLookupNamespace
_TEXT	SEGMENT
_reader$ = 8						; size = 4
_prefix$ = 12						; size = 4
_xmlTextReaderLookupNamespace PROC			; COMDAT

; 2559 : xmlTextReaderLookupNamespace(xmlTextReaderPtr reader, const xmlChar *prefix) {

	push	ebp
	mov	ebp, esp
	mov	ecx, OFFSET __BC13D883_xmlreader@c
	call	@__CheckForDebuggerJustMyCode@4
	mov	eax, DWORD PTR _reader$[ebp]
	test	eax, eax
	je	SHORT $LN6@xmlTextRea

; 2560 :     xmlNsPtr ns;
; 2561 : 
; 2562 :     if (reader == NULL)
; 2563 : 	return(NULL);
; 2564 :     if (reader->node == NULL)

	mov	eax, DWORD PTR [eax+64]
	test	eax, eax
	je	SHORT $LN6@xmlTextRea

; 2565 : 	return(NULL);
; 2566 : 
; 2567 :     ns = xmlSearchNs(reader->node->doc, reader->node, prefix);

	push	DWORD PTR _prefix$[ebp]
	push	eax
	push	DWORD PTR [eax+32]
	call	_xmlSearchNs
	add	esp, 12					; 0000000cH

; 2568 :     if (ns == NULL)

	test	eax, eax
	je	SHORT $LN6@xmlTextRea

; 2570 :     return(xmlStrdup(ns->href));

	push	DWORD PTR [eax+8]
	call	_xmlStrdup
	add	esp, 4

; 2571 : }

	pop	ebp
	ret	0
$LN6@xmlTextRea:

; 2569 : 	return(NULL);

	xor	eax, eax

; 2571 : }

	pop	ebp
	ret	0
_xmlTextReaderLookupNamespace ENDP
_TEXT	ENDS
; Function compile flags: /Ogtp
; File c:\users\dag\documents\_clients\codeproject authors group\windows on arm\libxml2\libxml2-2.9.9\xmlreader.c
;	COMDAT _xmlTextReaderGetRemainder
_TEXT	SEGMENT
_reader$ = 8						; size = 4
_xmlTextReaderGetRemainder PROC				; COMDAT

; 2511 : xmlTextReaderGetRemainder(xmlTextReaderPtr reader) {

	push	ebp
	mov	ebp, esp
	push	esi
	mov	ecx, OFFSET __BC13D883_xmlreader@c
	call	@__CheckForDebuggerJustMyCode@4
	mov	esi, DWORD PTR _reader$[ebp]
	test	esi, esi
	je	$LN10@xmlTextRea

; 2512 :     xmlParserInputBufferPtr ret = NULL;
; 2513 : 
; 2514 :     if (reader == NULL)
; 2515 : 	return(NULL);
; 2516 :     if (reader->node == NULL)

	cmp	DWORD PTR [esi+64], 0
	je	$LN10@xmlTextRea

; 2517 : 	return(NULL);
; 2518 : 
; 2519 :     reader->node = NULL;
; 2520 :     reader->curnode = NULL;
; 2521 :     reader->mode = XML_TEXTREADER_MODE_EOF;
; 2522 :     if (reader->ctxt != NULL) {

	mov	eax, DWORD PTR [esi+20]
	mov	DWORD PTR [esi+64], 0
	mov	DWORD PTR [esi+68], 0
	mov	DWORD PTR [esi], 3
	test	eax, eax
	je	SHORT $LN5@xmlTextRea

; 2523 : 	xmlStopParser(reader->ctxt);

	push	eax
	call	_xmlStopParser

; 2524 : 	if (reader->ctxt->myDoc != NULL) {

	mov	eax, DWORD PTR [esi+20]
	add	esp, 4
	mov	ecx, DWORD PTR [eax+8]
	test	ecx, ecx
	je	SHORT $LN5@xmlTextRea

; 2525 : 	    if (reader->preserve == 0)

	cmp	DWORD PTR [esi+80], 0
	jne	SHORT $LN6@xmlTextRea

; 2526 : 		xmlTextReaderFreeDoc(reader, reader->ctxt->myDoc);

	push	ecx
	push	esi
	call	_xmlTextReaderFreeDoc
	mov	eax, DWORD PTR [esi+20]
	add	esp, 8
$LN6@xmlTextRea:

; 2527 : 	    reader->ctxt->myDoc = NULL;

	mov	DWORD PTR [eax+8], 0
$LN5@xmlTextRea:

; 2528 : 	}
; 2529 :     }
; 2530 :     if (reader->allocs & XML_TEXTREADER_INPUT) {

	mov	ecx, DWORD PTR [esi+12]
	test	cl, 1
	je	SHORT $LN7@xmlTextRea

; 2531 : 	ret = reader->input;

	mov	eax, DWORD PTR [esi+28]

; 2532 : 	reader->input = NULL;
; 2533 : 	reader->allocs -= XML_TEXTREADER_INPUT;

	dec	ecx
	mov	DWORD PTR [esi+28], 0
	mov	DWORD PTR [esi+12], ecx
	pop	esi

; 2542 : 	return(NULL);
; 2543 :     }
; 2544 :     return(ret);
; 2545 : }

	pop	ebp
	ret	0
$LN7@xmlTextRea:

; 2534 :     } else {
; 2535 : 	/*
; 2536 : 	 * Hum, one may need to duplicate the data structure because
; 2537 : 	 * without reference counting the input may be freed twice:
; 2538 : 	 *   - by the layer which allocated it.
; 2539 : 	 *   - by the layer to which would have been returned to.
; 2540 : 	 */
; 2541 : 	TODO

	call	___xmlGenericError
	mov	esi, eax
	call	___xmlGenericErrorContext
	push	2541					; 000009edH
	push	OFFSET ??_C@_0GL@PIJMIJNC@c?3?2users?2dag?2documents?2_clients@
	push	OFFSET ??_C@_0BO@MDEMDPPE@Unimplemented?5block?5at?5?$CFs?3?$CFd?6@
	push	DWORD PTR [eax]
	mov	eax, DWORD PTR [esi]
	call	eax
	add	esp, 16					; 00000010H
$LN10@xmlTextRea:

; 2542 : 	return(NULL);
; 2543 :     }
; 2544 :     return(ret);
; 2545 : }

	xor	eax, eax
	pop	esi
	pop	ebp
	ret	0
_xmlTextReaderGetRemainder ENDP
_TEXT	ENDS
; Function compile flags: /Ogtp
; File c:\users\dag\documents\_clients\codeproject authors group\windows on arm\libxml2\libxml2-2.9.9\xmlreader.c
;	COMDAT _xmlTextReaderGetAttributeNs
_TEXT	SEGMENT
_reader$ = 8						; size = 4
_localName$ = 12					; size = 4
_namespaceURI$ = 16					; size = 4
_xmlTextReaderGetAttributeNs PROC			; COMDAT

; 2462 : 			    const xmlChar *namespaceURI) {

	push	ebp
	mov	ebp, esp
	push	ebx
	push	esi
	push	edi
	mov	ecx, OFFSET __BC13D883_xmlreader@c
	call	@__CheckForDebuggerJustMyCode@4
	mov	esi, DWORD PTR _reader$[ebp]
	xor	ebx, ebx
	test	esi, esi
	je	SHORT $LN5@xmlTextRea

; 2463 :     xmlChar *prefix = NULL;
; 2464 :     xmlNsPtr ns;
; 2465 : 
; 2466 :     if ((reader == NULL) || (localName == NULL))

	mov	edi, DWORD PTR _localName$[ebp]
	test	edi, edi
	je	SHORT $LN5@xmlTextRea

; 2467 : 	return(NULL);
; 2468 :     if (reader->node == NULL)

	mov	eax, DWORD PTR [esi+64]
	test	eax, eax
	je	SHORT $LN5@xmlTextRea

; 2469 : 	return(NULL);
; 2470 :     if (reader->curnode != NULL)

	cmp	DWORD PTR [esi+68], ebx
	jne	SHORT $LN5@xmlTextRea

; 2471 : 	return(NULL);
; 2472 : 
; 2473 :     /* TODO: handle the xmlDecl */
; 2474 :     if (reader->node->type != XML_ELEMENT_NODE)

	cmp	DWORD PTR [eax+4], 1
	jne	SHORT $LN5@xmlTextRea

; 2475 : 	return(NULL);
; 2476 : 
; 2477 :     if (xmlStrEqual(namespaceURI, BAD_CAST "http://www.w3.org/2000/xmlns/")) {

	push	OFFSET ??_C@_0BO@GBJIDPIB@http?3?1?1www?4w3?4org?12000?1xmlns?1@
	push	DWORD PTR _namespaceURI$[ebp]
	call	_xmlStrEqual
	add	esp, 8
	test	eax, eax
	je	SHORT $LN9@xmlTextRea

; 2478 : 		if (! xmlStrEqual(localName, BAD_CAST "xmlns")) {

	push	OFFSET ??_C@_05PPEFOGKI@xmlns@
	push	edi
	call	_xmlStrEqual
	add	esp, 8
	test	eax, eax

; 2479 : 			prefix = BAD_CAST localName;
; 2480 : 		}
; 2481 : 		ns = reader->node->nsDef;

	mov	eax, DWORD PTR [esi+64]
	cmove	ebx, edi
	mov	esi, DWORD PTR [eax+48]

; 2482 : 		while (ns != NULL) {

	test	esi, esi
	je	SHORT $LN5@xmlTextRea
$LL2@xmlTextRea:

; 2483 : 			if ((prefix == NULL && ns->prefix == NULL) ||

	test	ebx, ebx
	jne	SHORT $LN20@xmlTextRea
	cmp	DWORD PTR [esi+12], ebx
	je	SHORT $LN12@xmlTextRea
$LN20@xmlTextRea:
	mov	eax, DWORD PTR [esi+12]
	test	eax, eax
	je	SHORT $LN11@xmlTextRea
	push	edi
	push	eax
	call	_xmlStrEqual
	add	esp, 8
	test	eax, eax
	jne	SHORT $LN12@xmlTextRea
$LN11@xmlTextRea:

; 2486 : 			}
; 2487 : 			ns = ns->next;

	mov	esi, DWORD PTR [esi]
	test	esi, esi
	jne	SHORT $LL2@xmlTextRea
$LN5@xmlTextRea:
	pop	edi

; 2493 : }

	pop	esi
	xor	eax, eax
	pop	ebx
	pop	ebp
	ret	0
$LN12@xmlTextRea:

; 2484 : 				((ns->prefix != NULL) && (xmlStrEqual(ns->prefix, localName)))) {
; 2485 : 				return xmlStrdup(ns->href);

	push	DWORD PTR [esi+8]
	call	_xmlStrdup
	add	esp, 4
	pop	edi

; 2493 : }

	pop	esi
	pop	ebx
	pop	ebp
	ret	0
$LN9@xmlTextRea:

; 2488 : 		}
; 2489 : 		return NULL;
; 2490 :     }
; 2491 : 
; 2492 :     return(xmlGetNsProp(reader->node, localName, namespaceURI));

	push	DWORD PTR _namespaceURI$[ebp]
	push	edi
	push	DWORD PTR [esi+64]
	call	_xmlGetNsProp
	add	esp, 12					; 0000000cH
	pop	edi

; 2493 : }

	pop	esi
	pop	ebx
	pop	ebp
	ret	0
_xmlTextReaderGetAttributeNs ENDP
_TEXT	ENDS
; Function compile flags: /Ogtp
