; Listing generated by Microsoft (R) Optimizing Compiler Version 19.16.27027.1 

	TITLE	C:\Users\DAG\Documents\_Clients\CodeProject Authors Group\Windows on ARM\libxml2\libxml2-2.9.9\xmlschemastypes.c
	.686P
	.XMM
	include listing.inc
	.model	flat

INCLUDELIB MSVCRT
INCLUDELIB OLDNAMES

_DATA	SEGMENT
COMM	_xmlMalloc:DWORD
COMM	_xmlMallocAtomic:DWORD
COMM	_xmlRealloc:DWORD
COMM	_xmlFree:DWORD
COMM	_xmlMemStrdup:DWORD
COMM	_xmlIsBaseCharGroup:BYTE:010H
COMM	_xmlIsCharGroup:BYTE:010H
COMM	_xmlIsCombiningGroup:BYTE:010H
COMM	_xmlIsDigitGroup:BYTE:010H
COMM	_xmlIsExtenderGroup:BYTE:010H
COMM	_xmlIsIdeographicGroup:BYTE:010H
COMM	_xmlIsPubidChar_tab:BYTE:0100H
COMM	_xmlParserMaxDepth:DWORD
COMM	_xmlXPathNAN:QWORD
COMM	_xmlXPathPINF:QWORD
COMM	_xmlXPathNINF:QWORD
COMM	_forbiddenExp:DWORD
COMM	_emptyExp:DWORD
_DATA	ENDS
msvcjmc	SEGMENT
__188180DA_corecrt_math@h DB 01H
__2CC6E67D_corecrt_stdio_config@h DB 01H
__05476D76_corecrt_wstdio@h DB 01H
__A452D4A0_stdio@h DB 01H
__4384A2D9_corecrt_memcpy_s@h DB 01H
__4E51A221_corecrt_wstring@h DB 01H
__2140C079_string@h DB 01H
__74485836_xmlschemastypes@c DB 01H
msvcjmc	ENDS
PUBLIC	___local_stdio_printf_options
PUBLIC	___local_stdio_scanf_options
PUBLIC	_snprintf
PUBLIC	_sscanf
PUBLIC	_xmlSchemaInitTypes
PUBLIC	_xmlSchemaCleanupTypes
PUBLIC	_xmlSchemaGetPredefinedType
PUBLIC	_xmlSchemaValidatePredefinedType
PUBLIC	_xmlSchemaValPredefTypeNode
PUBLIC	_xmlSchemaValidateFacet
PUBLIC	_xmlSchemaValidateFacetWhtsp
PUBLIC	_xmlSchemaFreeValue
PUBLIC	_xmlSchemaCompareValues
PUBLIC	_xmlSchemaGetBuiltInListSimpleTypeItemType
PUBLIC	_xmlSchemaValidateListSimpleTypeFacet
PUBLIC	_xmlSchemaGetBuiltInType
PUBLIC	_xmlSchemaIsBuiltInTypeFacet
PUBLIC	_xmlSchemaCollapseString
PUBLIC	_xmlSchemaWhiteSpaceReplace
PUBLIC	_xmlSchemaGetFacetValueAsULong
PUBLIC	_xmlSchemaValidateLengthFacet
PUBLIC	_xmlSchemaValidateLengthFacetWhtsp
PUBLIC	_xmlSchemaValPredefTypeNodeNoNorm
PUBLIC	_xmlSchemaGetCanonValue
PUBLIC	_xmlSchemaGetCanonValueWhtsp
PUBLIC	_xmlSchemaValueAppend
PUBLIC	_xmlSchemaValueGetNext
PUBLIC	_xmlSchemaValueGetAsString
PUBLIC	_xmlSchemaValueGetAsBoolean
PUBLIC	_xmlSchemaNewStringValue
PUBLIC	_xmlSchemaNewNOTATIONValue
PUBLIC	_xmlSchemaNewQNameValue
PUBLIC	_xmlSchemaCompareValuesWhtsp
PUBLIC	_xmlSchemaCopyValue
PUBLIC	_xmlSchemaGetValType
PUBLIC	__JustMyCode_Default
PUBLIC	??_C@_0CB@OFGABCMP@could?5not?5initialize?5basic?5type@ ; `string'
PUBLIC	??_C@_0CB@PJCCKICC@http?3?1?1www?4w3?4org?12001?1XMLSchem@ ; `string'
PUBLIC	??_C@_0BO@IIFFCFND@allocating?5particle?5component@ ; `string'
PUBLIC	??_C@_07OGOHJKKN@anyType@			; `string'
PUBLIC	??_C@_0CB@MIJFJDPK@allocating?5model?5group?5componen@ ; `string'
PUBLIC	??_C@_0BO@DGENAAFP@allocating?5wildcard?5component@ ; `string'
PUBLIC	??_C@_0DC@HFHHKPAL@could?5not?5create?5an?5attribute?5w@ ; `string'
PUBLIC	??_C@_0O@DMECCPMH@anySimpleType@		; `string'
PUBLIC	??_C@_06ICGJLFIM@string@			; `string'
PUBLIC	??_C@_07EEKBCPDP@decimal@			; `string'
PUBLIC	??_C@_04JNIHBGGH@date@				; `string'
PUBLIC	??_C@_08JHBOOHBO@dateTime@			; `string'
PUBLIC	??_C@_04CLCEDBPF@time@				; `string'
PUBLIC	??_C@_05DGCLHBFG@gYear@				; `string'
PUBLIC	??_C@_0L@FEFFJNNL@gYearMonth@			; `string'
PUBLIC	??_C@_06KBADAKNH@gMonth@			; `string'
PUBLIC	??_C@_09EILODGOG@gMonthDay@			; `string'
PUBLIC	??_C@_04LBFBAPHN@gDay@				; `string'
PUBLIC	??_C@_08LGBPINEC@duration@			; `string'
PUBLIC	??_C@_05KNFBNCOH@float@				; `string'
PUBLIC	??_C@_06BNJCAIGJ@double@			; `string'
PUBLIC	??_C@_07GOBOHMJA@boolean@			; `string'
PUBLIC	??_C@_06DLDOHKEG@anyURI@			; `string'
PUBLIC	??_C@_09EHHLIAMK@hexBinary@			; `string'
PUBLIC	??_C@_0N@NBAOPEBP@base64Binary@			; `string'
PUBLIC	??_C@_08NCDGCBCC@NOTATION@			; `string'
PUBLIC	??_C@_05LFDDDENB@QName@				; `string'
PUBLIC	??_C@_07LKHFMGFB@integer@			; `string'
PUBLIC	??_C@_0BD@FMNGDL@nonPositiveInteger@		; `string'
PUBLIC	??_C@_0BA@HJODLFEP@negativeInteger@		; `string'
PUBLIC	??_C@_04GOKPGOLB@long@				; `string'
PUBLIC	??_C@_03JBIPMCLC@int@				; `string'
PUBLIC	??_C@_05BFKKPKCG@short@				; `string'
PUBLIC	??_C@_04IHGKJMLH@byte@				; `string'
PUBLIC	??_C@_0BD@IEOLADAC@nonNegativeInteger@		; `string'
PUBLIC	??_C@_0N@PNDKOLAJ@unsignedLong@			; `string'
PUBLIC	??_C@_0M@NPFOHDP@unsignedInt@			; `string'
PUBLIC	??_C@_0O@NAIDFEBN@unsignedShort@		; `string'
PUBLIC	??_C@_0N@BEPPBJAP@unsignedByte@			; `string'
PUBLIC	??_C@_0BA@PNFEGAHG@positiveInteger@		; `string'
PUBLIC	??_C@_0BB@HPFKIGKN@normalizedString@		; `string'
PUBLIC	??_C@_05JMKJMOPH@token@				; `string'
PUBLIC	??_C@_08JGCCIMAA@language@			; `string'
PUBLIC	??_C@_04FABLJDN@Name@				; `string'
PUBLIC	??_C@_07JKBEJDBF@NMTOKEN@			; `string'
PUBLIC	??_C@_06MDLHOHLI@NCName@			; `string'
PUBLIC	??_C@_02OLOABKKD@ID@				; `string'
PUBLIC	??_C@_05HKGPJLPA@IDREF@				; `string'
PUBLIC	??_C@_06GKLBAPIO@ENTITY@			; `string'
PUBLIC	??_C@_08ICGBNEMG@ENTITIES@			; `string'
PUBLIC	??_C@_06CMFBJDBA@IDREFS@			; `string'
PUBLIC	??_C@_08PMNBPOOP@NMTOKENS@			; `string'
PUBLIC	??_C@_00CNPNBAHC@@				; `string'
PUBLIC	??_C@_02NJPGOMH@?$CFf@				; `string'
PUBLIC	??_C@_03DLDNIBIK@?$CFlf@			; `string'
PUBLIC	??_C@_0HB@FHPILMCP@c?3?2users?2dag?2documents?2_clients@ ; `string'
PUBLIC	??_C@_0BO@MDEMDPPE@Unimplemented?5block?5at?5?$CFs?3?$CFd?6@ ; `string'
PUBLIC	??_C@_0BH@DMAOOAAN@allocating?5hexbin?5data@	; `string'
PUBLIC	??_C@_0BH@PBMCLKED@allocating?5base64?5data@	; `string'
PUBLIC	??_C@_01HCONENDN@?$HL@				; `string'
PUBLIC	??_C@_01CELHOKLL@?$HN@				; `string'
PUBLIC	??_C@_03MDAFIFFL@0?40@				; `string'
PUBLIC	??_C@_09LMAOOEAH@?$CFlu?$CFlu?$CFlu@		; `string'
PUBLIC	??_C@_06DFHLHGNP@?$CFlu?$CFlu@			; `string'
PUBLIC	??_C@_03FKNCMABI@?$CFlu@			; `string'
PUBLIC	??_C@_01GBGANLPD@0@				; `string'
PUBLIC	??_C@_0L@HJALPPEN@?9?$CFlu?$CFlu?$CFlu@		; `string'
PUBLIC	??_C@_07KPEGABEP@?9?$CFlu?$CFlu@		; `string'
PUBLIC	??_C@_04IEOFADKM@?9?$CFlu@			; `string'
PUBLIC	??_C@_04LOAJBDKD@true@				; `string'
PUBLIC	??_C@_05LAPONLG@false@				; `string'
PUBLIC	??_C@_0BN@KBIIDNPF@P?$CFluY?$CFluM?$CFluDT?$CFluH?$CFluM?$CF?414gS@ ; `string'
PUBLIC	??_C@_0BO@LOJFMPEL@?9P?$CFluY?$CFluM?$CFluDT?$CFluH?$CFluM?$CF?414gS@ ; `string'
PUBLIC	??_C@_05IHGIIBEO@?$CF04ld@			; `string'
PUBLIC	??_C@_06PLGGIKKN@?9?9?$CF02u@			; `string'
PUBLIC	??_C@_07GBFLPNDN@?9?9?9?$CF02u@			; `string'
PUBLIC	??_C@_0M@IGNOHAOM@?9?9?$CF02u?9?$CF02u@		; `string'
PUBLIC	??_C@_0M@CBHDPMIH@?9?$CF04ld?9?$CF02u@		; `string'
PUBLIC	??_C@_0L@LHLPFBBC@?$CF04ld?9?$CF02u@		; `string'
PUBLIC	??_C@_0BD@EKHIMNMI@?$CF02u?3?$CF02u?3?$CF02?414gZ@ ; `string'
PUBLIC	??_C@_0BC@CMNGDBIO@?$CF02u?3?$CF02u?3?$CF02?414g@ ; `string'
PUBLIC	??_C@_0BB@EPCAOJB@?$CF04ld?3?$CF02u?3?$CF02uZ@	; `string'
PUBLIC	??_C@_0BA@KCJGDMGM@?$CF04ld?3?$CF02u?3?$CF02u@	; `string'
PUBLIC	??_C@_0CD@NGIOFKDM@?$CF04ld?3?$CF02u?3?$CF02uT?$CF02u?3?$CF02u?3?$CF02?41@ ; `string'
PUBLIC	??_C@_0CC@NDEHGMEK@?$CF04ld?3?$CF02u?3?$CF02uT?$CF02u?3?$CF02u?3?$CF02?41@ ; `string'
PUBLIC	??_C@_07EBIAOBPB@?$CF01?414e@			; `string'
PUBLIC	??_C@_03BBKEAIF@?$DP?$DP?$DP@			; `string'
PUBLIC	__real@0000000000000000
PUBLIC	__real@3ff0000000000000
PUBLIC	__real@4024000000000000
PUBLIC	__real@4028000000000000
PUBLIC	__real@4038000000000000
PUBLIC	__real@404e000000000000
PUBLIC	__real@40ac200000000000
PUBLIC	__real@40e89c0000000000
PUBLIC	__real@40f5180000000000
PUBLIC	__real@c0e89c0000000000
PUBLIC	__xmm@3ff0000000000000404e000000000000
PUBLIC	__xmm@40ac20000000000040f5180000000000
PUBLIC	__xmm@41f00000000000000000000000000000
PUBLIC	__xmm@7fffffffffffffff7fffffffffffffff
PUBLIC	__xmm@80000000000000008000000000000000
EXTRN	_xmlStrdup:PROC
EXTRN	_xmlStrndup:PROC
EXTRN	_xmlStrcmp:PROC
EXTRN	_xmlStrEqual:PROC
EXTRN	_xmlStrcat:PROC
EXTRN	_xmlUTF8Strlen:PROC
EXTRN	__imp____stdio_common_vsprintf:PROC
EXTRN	__imp____stdio_common_vsscanf:PROC
EXTRN	_xmlRegexpExec:PROC
EXTRN	_xmlValidateNCName:PROC
EXTRN	_xmlValidateQName:PROC
EXTRN	_xmlValidateName:PROC
EXTRN	_xmlValidateNMToken:PROC
EXTRN	_xmlSplitQName2:PROC
EXTRN	_xmlSearchNs:PROC
EXTRN	_xmlHashCreate:PROC
EXTRN	_xmlHashFree:PROC
EXTRN	_xmlHashAddEntry2:PROC
EXTRN	_xmlHashLookup2:PROC
EXTRN	___xmlSimpleError:PROC
EXTRN	_xmlAddID:PROC
EXTRN	_xmlAddRef:PROC
EXTRN	_xmlValidateNotationUse:PROC
EXTRN	_xmlGetDocEntity:PROC
EXTRN	___xmlGenericError:PROC
EXTRN	___xmlGenericErrorContext:PROC
EXTRN	_xmlCheckLanguageID:PROC
EXTRN	_xmlXPathIsNaN:PROC
EXTRN	_xmlParseURI:PROC
EXTRN	_xmlFreeURI:PROC
EXTRN	_xmlSchemaFreeType:PROC
EXTRN	_xmlSchemaFreeWildcard:PROC
EXTRN	_xmlSchemaNewFacet:PROC
EXTRN	@__CheckForDebuggerJustMyCode@4:PROC
EXTRN	__dtoui3:PROC
EXTRN	_floor:PROC
EXTRN	_memmove:PROC
EXTRN	_memset:PROC
EXTRN	__fltused:DWORD
_DATA	SEGMENT
COMM	?_OptionsStorage@?1??__local_stdio_printf_options@@9@9:QWORD							; `__local_stdio_printf_options'::`2'::_OptionsStorage
COMM	?_OptionsStorage@?1??__local_stdio_scanf_options@@9@9:QWORD							; `__local_stdio_scanf_options'::`2'::_OptionsStorage
_DATA	ENDS
_BSS	SEGMENT
_xmlSchemaTypesInitialized DD 01H DUP (?)
_xmlSchemaTypesBank DD 01H DUP (?)
_xmlSchemaTypeStringDef DD 01H DUP (?)
_xmlSchemaTypeAnyTypeDef DD 01H DUP (?)
_xmlSchemaTypeAnySimpleTypeDef DD 01H DUP (?)
_xmlSchemaTypeDecimalDef DD 01H DUP (?)
_xmlSchemaTypeDatetimeDef DD 01H DUP (?)
_xmlSchemaTypeDateDef DD 01H DUP (?)
_xmlSchemaTypeTimeDef DD 01H DUP (?)
_xmlSchemaTypeGYearDef DD 01H DUP (?)
_xmlSchemaTypeGYearMonthDef DD 01H DUP (?)
_xmlSchemaTypeGDayDef DD 01H DUP (?)
_xmlSchemaTypeGMonthDayDef DD 01H DUP (?)
_xmlSchemaTypeGMonthDef DD 01H DUP (?)
_xmlSchemaTypeDurationDef DD 01H DUP (?)
_xmlSchemaTypeFloatDef DD 01H DUP (?)
_xmlSchemaTypeBooleanDef DD 01H DUP (?)
_xmlSchemaTypeDoubleDef DD 01H DUP (?)
_xmlSchemaTypeHexBinaryDef DD 01H DUP (?)
_xmlSchemaTypeBase64BinaryDef DD 01H DUP (?)
_xmlSchemaTypeAnyURIDef DD 01H DUP (?)
_xmlSchemaTypePositiveIntegerDef DD 01H DUP (?)
_xmlSchemaTypeNonPositiveIntegerDef DD 01H DUP (?)
_xmlSchemaTypeNegativeIntegerDef DD 01H DUP (?)
_xmlSchemaTypeNonNegativeIntegerDef DD 01H DUP (?)
_xmlSchemaTypeIntegerDef DD 01H DUP (?)
_xmlSchemaTypeLongDef DD 01H DUP (?)
_xmlSchemaTypeIntDef DD 01H DUP (?)
_xmlSchemaTypeShortDef DD 01H DUP (?)
_xmlSchemaTypeByteDef DD 01H DUP (?)
_xmlSchemaTypeUnsignedLongDef DD 01H DUP (?)
_xmlSchemaTypeUnsignedIntDef DD 01H DUP (?)
_xmlSchemaTypeUnsignedShortDef DD 01H DUP (?)
_xmlSchemaTypeUnsignedByteDef DD 01H DUP (?)
_xmlSchemaTypeNormStringDef DD 01H DUP (?)
_xmlSchemaTypeTokenDef DD 01H DUP (?)
_xmlSchemaTypeLanguageDef DD 01H DUP (?)
_xmlSchemaTypeNameDef DD 01H DUP (?)
_xmlSchemaTypeQNameDef DD 01H DUP (?)
_xmlSchemaTypeNCNameDef DD 01H DUP (?)
_xmlSchemaTypeIdDef DD 01H DUP (?)
_xmlSchemaTypeIdrefDef DD 01H DUP (?)
_xmlSchemaTypeIdrefsDef DD 01H DUP (?)
_xmlSchemaTypeEntityDef DD 01H DUP (?)
_xmlSchemaTypeEntitiesDef DD 01H DUP (?)
_xmlSchemaTypeNotationDef DD 01H DUP (?)
_xmlSchemaTypeNmtokenDef DD 01H DUP (?)
_xmlSchemaTypeNmtokensDef DD 01H DUP (?)
_BSS	ENDS
;	COMDAT __xmm@80000000000000008000000000000000
CONST	SEGMENT
__xmm@80000000000000008000000000000000 DB 00H, 00H, 00H, 00H, 00H, 00H, 00H
	DB	080H, 00H, 00H, 00H, 00H, 00H, 00H, 00H, 080H
CONST	ENDS
;	COMDAT __xmm@7fffffffffffffff7fffffffffffffff
CONST	SEGMENT
__xmm@7fffffffffffffff7fffffffffffffff DB 0ffH, 0ffH, 0ffH, 0ffH, 0ffH, 0ffH
	DB	0ffH, 07fH, 0ffH, 0ffH, 0ffH, 0ffH, 0ffH, 0ffH, 0ffH, 07fH
CONST	ENDS
;	COMDAT __xmm@41f00000000000000000000000000000
CONST	SEGMENT
__xmm@41f00000000000000000000000000000 DB 00H, 00H, 00H, 00H, 00H, 00H, 00H
	DB	00H, 00H, 00H, 00H, 00H, 00H, 00H, 0f0H, 'A'
CONST	ENDS
;	COMDAT __xmm@40ac20000000000040f5180000000000
CONST	SEGMENT
__xmm@40ac20000000000040f5180000000000 DB 00H, 00H, 00H, 00H, 00H, 018H, 0f5H
	DB	'@', 00H, 00H, 00H, 00H, 00H, ' ', 0acH, '@'
CONST	ENDS
;	COMDAT __xmm@3ff0000000000000404e000000000000
CONST	SEGMENT
__xmm@3ff0000000000000404e000000000000 DB 00H, 00H, 00H, 00H, 00H, 00H, 'N'
	DB	'@', 00H, 00H, 00H, 00H, 00H, 00H, 0f0H, '?'
CONST	ENDS
;	COMDAT __real@c0e89c0000000000
CONST	SEGMENT
__real@c0e89c0000000000 DQ 0c0e89c0000000000r	; -50400
CONST	ENDS
;	COMDAT __real@40f5180000000000
CONST	SEGMENT
__real@40f5180000000000 DQ 040f5180000000000r	; 86400
CONST	ENDS
;	COMDAT __real@40e89c0000000000
CONST	SEGMENT
__real@40e89c0000000000 DQ 040e89c0000000000r	; 50400
CONST	ENDS
;	COMDAT __real@40ac200000000000
CONST	SEGMENT
__real@40ac200000000000 DQ 040ac200000000000r	; 3600
CONST	ENDS
;	COMDAT __real@404e000000000000
CONST	SEGMENT
__real@404e000000000000 DQ 0404e000000000000r	; 60
CONST	ENDS
;	COMDAT __real@4038000000000000
CONST	SEGMENT
__real@4038000000000000 DQ 04038000000000000r	; 24
CONST	ENDS
;	COMDAT __real@4028000000000000
CONST	SEGMENT
__real@4028000000000000 DQ 04028000000000000r	; 12
CONST	ENDS
;	COMDAT __real@4024000000000000
CONST	SEGMENT
__real@4024000000000000 DQ 04024000000000000r	; 10
CONST	ENDS
;	COMDAT __real@3ff0000000000000
CONST	SEGMENT
__real@3ff0000000000000 DQ 03ff0000000000000r	; 1
CONST	ENDS
;	COMDAT __real@0000000000000000
CONST	SEGMENT
__real@0000000000000000 DQ 00000000000000000r	; 0
CONST	ENDS
;	COMDAT ??_C@_03BBKEAIF@?$DP?$DP?$DP@
CONST	SEGMENT
??_C@_03BBKEAIF@?$DP?$DP?$DP@ DB '???', 00H		; `string'
CONST	ENDS
;	COMDAT ??_C@_07EBIAOBPB@?$CF01?414e@
CONST	SEGMENT
??_C@_07EBIAOBPB@?$CF01?414e@ DB '%01.14e', 00H		; `string'
CONST	ENDS
;	COMDAT ??_C@_0CC@NDEHGMEK@?$CF04ld?3?$CF02u?3?$CF02uT?$CF02u?3?$CF02u?3?$CF02?41@
CONST	SEGMENT
??_C@_0CC@NDEHGMEK@?$CF04ld?3?$CF02u?3?$CF02uT?$CF02u?3?$CF02u?3?$CF02?41@ DB '%'
	DB	'04ld:%02u:%02uT%02u:%02u:%02.14g', 00H	; `string'
CONST	ENDS
;	COMDAT ??_C@_0CD@NGIOFKDM@?$CF04ld?3?$CF02u?3?$CF02uT?$CF02u?3?$CF02u?3?$CF02?41@
CONST	SEGMENT
??_C@_0CD@NGIOFKDM@?$CF04ld?3?$CF02u?3?$CF02uT?$CF02u?3?$CF02u?3?$CF02?41@ DB '%'
	DB	'04ld:%02u:%02uT%02u:%02u:%02.14gZ', 00H	; `string'
CONST	ENDS
;	COMDAT ??_C@_0BA@KCJGDMGM@?$CF04ld?3?$CF02u?3?$CF02u@
CONST	SEGMENT
??_C@_0BA@KCJGDMGM@?$CF04ld?3?$CF02u?3?$CF02u@ DB '%04ld:%02u:%02u', 00H ; `string'
CONST	ENDS
;	COMDAT ??_C@_0BB@EPCAOJB@?$CF04ld?3?$CF02u?3?$CF02uZ@
CONST	SEGMENT
??_C@_0BB@EPCAOJB@?$CF04ld?3?$CF02u?3?$CF02uZ@ DB '%04ld:%02u:%02uZ', 00H ; `string'
CONST	ENDS
;	COMDAT ??_C@_0BC@CMNGDBIO@?$CF02u?3?$CF02u?3?$CF02?414g@
CONST	SEGMENT
??_C@_0BC@CMNGDBIO@?$CF02u?3?$CF02u?3?$CF02?414g@ DB '%02u:%02u:%02.14g', 00H ; `string'
CONST	ENDS
;	COMDAT ??_C@_0BD@EKHIMNMI@?$CF02u?3?$CF02u?3?$CF02?414gZ@
CONST	SEGMENT
??_C@_0BD@EKHIMNMI@?$CF02u?3?$CF02u?3?$CF02?414gZ@ DB '%02u:%02u:%02.14gZ'
	DB	00H						; `string'
CONST	ENDS
;	COMDAT ??_C@_0L@LHLPFBBC@?$CF04ld?9?$CF02u@
CONST	SEGMENT
??_C@_0L@LHLPFBBC@?$CF04ld?9?$CF02u@ DB '%04ld-%02u', 00H ; `string'
CONST	ENDS
;	COMDAT ??_C@_0M@CBHDPMIH@?9?$CF04ld?9?$CF02u@
CONST	SEGMENT
??_C@_0M@CBHDPMIH@?9?$CF04ld?9?$CF02u@ DB '-%04ld-%02u', 00H ; `string'
CONST	ENDS
;	COMDAT ??_C@_0M@IGNOHAOM@?9?9?$CF02u?9?$CF02u@
CONST	SEGMENT
??_C@_0M@IGNOHAOM@?9?9?$CF02u?9?$CF02u@ DB '--%02u-%02u', 00H ; `string'
CONST	ENDS
;	COMDAT ??_C@_07GBFLPNDN@?9?9?9?$CF02u@
CONST	SEGMENT
??_C@_07GBFLPNDN@?9?9?9?$CF02u@ DB '---%02u', 00H	; `string'
CONST	ENDS
;	COMDAT ??_C@_06PLGGIKKN@?9?9?$CF02u@
CONST	SEGMENT
??_C@_06PLGGIKKN@?9?9?$CF02u@ DB '--%02u', 00H		; `string'
CONST	ENDS
;	COMDAT ??_C@_05IHGIIBEO@?$CF04ld@
CONST	SEGMENT
??_C@_05IHGIIBEO@?$CF04ld@ DB '%04ld', 00H		; `string'
CONST	ENDS
;	COMDAT ??_C@_0BO@LOJFMPEL@?9P?$CFluY?$CFluM?$CFluDT?$CFluH?$CFluM?$CF?414gS@
CONST	SEGMENT
??_C@_0BO@LOJFMPEL@?9P?$CFluY?$CFluM?$CFluDT?$CFluH?$CFluM?$CF?414gS@ DB '-'
	DB	'P%luY%luM%luDT%luH%luM%.14gS', 00H		; `string'
CONST	ENDS
;	COMDAT ??_C@_0BN@KBIIDNPF@P?$CFluY?$CFluM?$CFluDT?$CFluH?$CFluM?$CF?414gS@
CONST	SEGMENT
??_C@_0BN@KBIIDNPF@P?$CFluY?$CFluM?$CFluDT?$CFluH?$CFluM?$CF?414gS@ DB 'P'
	DB	'%luY%luM%luDT%luH%luM%.14gS', 00H		; `string'
CONST	ENDS
;	COMDAT ??_C@_05LAPONLG@false@
CONST	SEGMENT
??_C@_05LAPONLG@false@ DB 'false', 00H			; `string'
CONST	ENDS
;	COMDAT ??_C@_04LOAJBDKD@true@
CONST	SEGMENT
??_C@_04LOAJBDKD@true@ DB 'true', 00H			; `string'
CONST	ENDS
;	COMDAT ??_C@_04IEOFADKM@?9?$CFlu@
CONST	SEGMENT
??_C@_04IEOFADKM@?9?$CFlu@ DB '-%lu', 00H		; `string'
CONST	ENDS
;	COMDAT ??_C@_07KPEGABEP@?9?$CFlu?$CFlu@
CONST	SEGMENT
??_C@_07KPEGABEP@?9?$CFlu?$CFlu@ DB '-%lu%lu', 00H	; `string'
CONST	ENDS
;	COMDAT ??_C@_0L@HJALPPEN@?9?$CFlu?$CFlu?$CFlu@
CONST	SEGMENT
??_C@_0L@HJALPPEN@?9?$CFlu?$CFlu?$CFlu@ DB '-%lu%lu%lu', 00H ; `string'
CONST	ENDS
;	COMDAT ??_C@_01GBGANLPD@0@
CONST	SEGMENT
??_C@_01GBGANLPD@0@ DB '0', 00H				; `string'
CONST	ENDS
;	COMDAT ??_C@_03FKNCMABI@?$CFlu@
CONST	SEGMENT
??_C@_03FKNCMABI@?$CFlu@ DB '%lu', 00H			; `string'
CONST	ENDS
;	COMDAT ??_C@_06DFHLHGNP@?$CFlu?$CFlu@
CONST	SEGMENT
??_C@_06DFHLHGNP@?$CFlu?$CFlu@ DB '%lu%lu', 00H		; `string'
CONST	ENDS
;	COMDAT ??_C@_09LMAOOEAH@?$CFlu?$CFlu?$CFlu@
CONST	SEGMENT
??_C@_09LMAOOEAH@?$CFlu?$CFlu?$CFlu@ DB '%lu%lu%lu', 00H ; `string'
CONST	ENDS
;	COMDAT ??_C@_03MDAFIFFL@0?40@
CONST	SEGMENT
??_C@_03MDAFIFFL@0?40@ DB '0.0', 00H			; `string'
CONST	ENDS
;	COMDAT ??_C@_01CELHOKLL@?$HN@
CONST	SEGMENT
??_C@_01CELHOKLL@?$HN@ DB '}', 00H			; `string'
CONST	ENDS
;	COMDAT ??_C@_01HCONENDN@?$HL@
CONST	SEGMENT
??_C@_01HCONENDN@?$HL@ DB '{', 00H			; `string'
CONST	ENDS
;	COMDAT ??_C@_0BH@PBMCLKED@allocating?5base64?5data@
CONST	SEGMENT
??_C@_0BH@PBMCLKED@allocating?5base64?5data@ DB 'allocating base64 data', 00H ; `string'
CONST	ENDS
;	COMDAT ??_C@_0BH@DMAOOAAN@allocating?5hexbin?5data@
CONST	SEGMENT
??_C@_0BH@DMAOOAAN@allocating?5hexbin?5data@ DB 'allocating hexbin data', 00H ; `string'
CONST	ENDS
;	COMDAT ??_C@_0BO@MDEMDPPE@Unimplemented?5block?5at?5?$CFs?3?$CFd?6@
CONST	SEGMENT
??_C@_0BO@MDEMDPPE@Unimplemented?5block?5at?5?$CFs?3?$CFd?6@ DB 'Unimplem'
	DB	'ented block at %s:%d', 0aH, 00H		; `string'
CONST	ENDS
;	COMDAT ??_C@_0HB@FHPILMCP@c?3?2users?2dag?2documents?2_clients@
CONST	SEGMENT
??_C@_0HB@FHPILMCP@c?3?2users?2dag?2documents?2_clients@ DB 'c:\users\dag'
	DB	'\documents\_clients\codeproject authors group\windows on arm\'
	DB	'libxml2\libxml2-2.9.9\xmlschemastypes.c', 00H ; `string'
CONST	ENDS
;	COMDAT ??_C@_03DLDNIBIK@?$CFlf@
CONST	SEGMENT
??_C@_03DLDNIBIK@?$CFlf@ DB '%lf', 00H			; `string'
CONST	ENDS
;	COMDAT ??_C@_02NJPGOMH@?$CFf@
CONST	SEGMENT
??_C@_02NJPGOMH@?$CFf@ DB '%f', 00H			; `string'
CONST	ENDS
;	COMDAT ??_C@_00CNPNBAHC@@
CONST	SEGMENT
??_C@_00CNPNBAHC@@ DB 00H				; `string'
CONST	ENDS
CONST	SEGMENT
_daysInMonth DD	01fH
	DD	01cH
	DD	01fH
	DD	01eH
	DD	01fH
	DD	01eH
	DD	01fH
	DD	01fH
	DD	01eH
	DD	01fH
	DD	01eH
	DD	01fH
_daysInMonthLeap DD 01fH
	DD	01dH
	DD	01fH
	DD	01eH
	DD	01fH
	DD	01eH
	DD	01fH
	DD	01fH
	DD	01eH
	DD	01fH
	DD	01eH
	DD	01fH
_dayInYearByMonth DD 00H
	DD	01fH
	DD	03bH
	DD	05aH
	DD	078H
	DD	097H
	DD	0b5H
	DD	0d4H
	DD	0f3H
	DD	0111H
	DD	0130H
	DD	014eH
_dayInLeapYearByMonth DD 00H
	DD	01fH
	DD	03cH
	DD	05bH
	DD	079H
	DD	098H
	DD	0b6H
	DD	0d5H
	DD	0f4H
	DD	0112H
	DD	0131H
	DD	014fH
?dayRange@?1??xmlSchemaCompareDurations@@9@9 DD 00H	; `xmlSchemaCompareDurations'::`2'::dayRange
	DD	01cH
	DD	03bH
	DD	059H
	DD	078H
	DD	096H
	DD	0b5H
	DD	0d4H
	DD	0f2H
	DD	0111H
	DD	012fH
	DD	014eH
	DD	00H
	DD	01fH
	DD	03eH
	DD	05cH
	DD	07bH
	DD	099H
	DD	0b8H
	DD	0d7H
	DD	0f5H
	DD	0114H
	DD	0132H
	DD	0151H
CONST	ENDS
;	COMDAT ??_C@_08PMNBPOOP@NMTOKENS@
CONST	SEGMENT
??_C@_08PMNBPOOP@NMTOKENS@ DB 'NMTOKENS', 00H		; `string'
CONST	ENDS
;	COMDAT ??_C@_06CMFBJDBA@IDREFS@
CONST	SEGMENT
??_C@_06CMFBJDBA@IDREFS@ DB 'IDREFS', 00H		; `string'
CONST	ENDS
;	COMDAT ??_C@_08ICGBNEMG@ENTITIES@
CONST	SEGMENT
??_C@_08ICGBNEMG@ENTITIES@ DB 'ENTITIES', 00H		; `string'
CONST	ENDS
;	COMDAT ??_C@_06GKLBAPIO@ENTITY@
CONST	SEGMENT
??_C@_06GKLBAPIO@ENTITY@ DB 'ENTITY', 00H		; `string'
CONST	ENDS
;	COMDAT ??_C@_05HKGPJLPA@IDREF@
CONST	SEGMENT
??_C@_05HKGPJLPA@IDREF@ DB 'IDREF', 00H			; `string'
CONST	ENDS
;	COMDAT ??_C@_02OLOABKKD@ID@
CONST	SEGMENT
??_C@_02OLOABKKD@ID@ DB 'ID', 00H			; `string'
CONST	ENDS
;	COMDAT ??_C@_06MDLHOHLI@NCName@
CONST	SEGMENT
??_C@_06MDLHOHLI@NCName@ DB 'NCName', 00H		; `string'
CONST	ENDS
;	COMDAT ??_C@_07JKBEJDBF@NMTOKEN@
CONST	SEGMENT
??_C@_07JKBEJDBF@NMTOKEN@ DB 'NMTOKEN', 00H		; `string'
CONST	ENDS
;	COMDAT ??_C@_04FABLJDN@Name@
CONST	SEGMENT
??_C@_04FABLJDN@Name@ DB 'Name', 00H			; `string'
CONST	ENDS
;	COMDAT ??_C@_08JGCCIMAA@language@
CONST	SEGMENT
??_C@_08JGCCIMAA@language@ DB 'language', 00H		; `string'
CONST	ENDS
;	COMDAT ??_C@_05JMKJMOPH@token@
CONST	SEGMENT
??_C@_05JMKJMOPH@token@ DB 'token', 00H			; `string'
CONST	ENDS
;	COMDAT ??_C@_0BB@HPFKIGKN@normalizedString@
CONST	SEGMENT
??_C@_0BB@HPFKIGKN@normalizedString@ DB 'normalizedString', 00H ; `string'
CONST	ENDS
;	COMDAT ??_C@_0BA@PNFEGAHG@positiveInteger@
CONST	SEGMENT
??_C@_0BA@PNFEGAHG@positiveInteger@ DB 'positiveInteger', 00H ; `string'
CONST	ENDS
;	COMDAT ??_C@_0N@BEPPBJAP@unsignedByte@
CONST	SEGMENT
??_C@_0N@BEPPBJAP@unsignedByte@ DB 'unsignedByte', 00H	; `string'
CONST	ENDS
;	COMDAT ??_C@_0O@NAIDFEBN@unsignedShort@
CONST	SEGMENT
??_C@_0O@NAIDFEBN@unsignedShort@ DB 'unsignedShort', 00H ; `string'
CONST	ENDS
;	COMDAT ??_C@_0M@NPFOHDP@unsignedInt@
CONST	SEGMENT
??_C@_0M@NPFOHDP@unsignedInt@ DB 'unsignedInt', 00H	; `string'
CONST	ENDS
;	COMDAT ??_C@_0N@PNDKOLAJ@unsignedLong@
CONST	SEGMENT
??_C@_0N@PNDKOLAJ@unsignedLong@ DB 'unsignedLong', 00H	; `string'
CONST	ENDS
;	COMDAT ??_C@_0BD@IEOLADAC@nonNegativeInteger@
CONST	SEGMENT
??_C@_0BD@IEOLADAC@nonNegativeInteger@ DB 'nonNegativeInteger', 00H ; `string'
CONST	ENDS
;	COMDAT ??_C@_04IHGKJMLH@byte@
CONST	SEGMENT
??_C@_04IHGKJMLH@byte@ DB 'byte', 00H			; `string'
CONST	ENDS
;	COMDAT ??_C@_05BFKKPKCG@short@
CONST	SEGMENT
??_C@_05BFKKPKCG@short@ DB 'short', 00H			; `string'
CONST	ENDS
;	COMDAT ??_C@_03JBIPMCLC@int@
CONST	SEGMENT
??_C@_03JBIPMCLC@int@ DB 'int', 00H			; `string'
CONST	ENDS
;	COMDAT ??_C@_04GOKPGOLB@long@
CONST	SEGMENT
??_C@_04GOKPGOLB@long@ DB 'long', 00H			; `string'
CONST	ENDS
;	COMDAT ??_C@_0BA@HJODLFEP@negativeInteger@
CONST	SEGMENT
??_C@_0BA@HJODLFEP@negativeInteger@ DB 'negativeInteger', 00H ; `string'
CONST	ENDS
;	COMDAT ??_C@_0BD@FMNGDL@nonPositiveInteger@
CONST	SEGMENT
??_C@_0BD@FMNGDL@nonPositiveInteger@ DB 'nonPositiveInteger', 00H ; `string'
CONST	ENDS
;	COMDAT ??_C@_07LKHFMGFB@integer@
CONST	SEGMENT
??_C@_07LKHFMGFB@integer@ DB 'integer', 00H		; `string'
CONST	ENDS
;	COMDAT ??_C@_05LFDDDENB@QName@
CONST	SEGMENT
??_C@_05LFDDDENB@QName@ DB 'QName', 00H			; `string'
CONST	ENDS
;	COMDAT ??_C@_08NCDGCBCC@NOTATION@
CONST	SEGMENT
??_C@_08NCDGCBCC@NOTATION@ DB 'NOTATION', 00H		; `string'
CONST	ENDS
;	COMDAT ??_C@_0N@NBAOPEBP@base64Binary@
CONST	SEGMENT
??_C@_0N@NBAOPEBP@base64Binary@ DB 'base64Binary', 00H	; `string'
CONST	ENDS
;	COMDAT ??_C@_09EHHLIAMK@hexBinary@
CONST	SEGMENT
??_C@_09EHHLIAMK@hexBinary@ DB 'hexBinary', 00H		; `string'
CONST	ENDS
;	COMDAT ??_C@_06DLDOHKEG@anyURI@
CONST	SEGMENT
??_C@_06DLDOHKEG@anyURI@ DB 'anyURI', 00H		; `string'
CONST	ENDS
;	COMDAT ??_C@_07GOBOHMJA@boolean@
CONST	SEGMENT
??_C@_07GOBOHMJA@boolean@ DB 'boolean', 00H		; `string'
CONST	ENDS
;	COMDAT ??_C@_06BNJCAIGJ@double@
CONST	SEGMENT
??_C@_06BNJCAIGJ@double@ DB 'double', 00H		; `string'
CONST	ENDS
;	COMDAT ??_C@_05KNFBNCOH@float@
CONST	SEGMENT
??_C@_05KNFBNCOH@float@ DB 'float', 00H			; `string'
CONST	ENDS
;	COMDAT ??_C@_08LGBPINEC@duration@
CONST	SEGMENT
??_C@_08LGBPINEC@duration@ DB 'duration', 00H		; `string'
CONST	ENDS
;	COMDAT ??_C@_04LBFBAPHN@gDay@
CONST	SEGMENT
??_C@_04LBFBAPHN@gDay@ DB 'gDay', 00H			; `string'
CONST	ENDS
;	COMDAT ??_C@_09EILODGOG@gMonthDay@
CONST	SEGMENT
??_C@_09EILODGOG@gMonthDay@ DB 'gMonthDay', 00H		; `string'
CONST	ENDS
;	COMDAT ??_C@_06KBADAKNH@gMonth@
CONST	SEGMENT
??_C@_06KBADAKNH@gMonth@ DB 'gMonth', 00H		; `string'
CONST	ENDS
;	COMDAT ??_C@_0L@FEFFJNNL@gYearMonth@
CONST	SEGMENT
??_C@_0L@FEFFJNNL@gYearMonth@ DB 'gYearMonth', 00H	; `string'
CONST	ENDS
;	COMDAT ??_C@_05DGCLHBFG@gYear@
CONST	SEGMENT
??_C@_05DGCLHBFG@gYear@ DB 'gYear', 00H			; `string'
CONST	ENDS
;	COMDAT ??_C@_04CLCEDBPF@time@
CONST	SEGMENT
??_C@_04CLCEDBPF@time@ DB 'time', 00H			; `string'
CONST	ENDS
;	COMDAT ??_C@_08JHBOOHBO@dateTime@
CONST	SEGMENT
??_C@_08JHBOOHBO@dateTime@ DB 'dateTime', 00H		; `string'
CONST	ENDS
;	COMDAT ??_C@_04JNIHBGGH@date@
CONST	SEGMENT
??_C@_04JNIHBGGH@date@ DB 'date', 00H			; `string'
CONST	ENDS
;	COMDAT ??_C@_07EEKBCPDP@decimal@
CONST	SEGMENT
??_C@_07EEKBCPDP@decimal@ DB 'decimal', 00H		; `string'
CONST	ENDS
;	COMDAT ??_C@_06ICGJLFIM@string@
CONST	SEGMENT
??_C@_06ICGJLFIM@string@ DB 'string', 00H		; `string'
CONST	ENDS
;	COMDAT ??_C@_0O@DMECCPMH@anySimpleType@
CONST	SEGMENT
??_C@_0O@DMECCPMH@anySimpleType@ DB 'anySimpleType', 00H ; `string'
CONST	ENDS
;	COMDAT ??_C@_0DC@HFHHKPAL@could?5not?5create?5an?5attribute?5w@
CONST	SEGMENT
??_C@_0DC@HFHHKPAL@could?5not?5create?5an?5attribute?5w@ DB 'could not cr'
	DB	'eate an attribute wildcard on anyType', 00H	; `string'
CONST	ENDS
;	COMDAT ??_C@_0BO@DGENAAFP@allocating?5wildcard?5component@
CONST	SEGMENT
??_C@_0BO@DGENAAFP@allocating?5wildcard?5component@ DB 'allocating wildca'
	DB	'rd component', 00H				; `string'
CONST	ENDS
;	COMDAT ??_C@_0CB@MIJFJDPK@allocating?5model?5group?5componen@
CONST	SEGMENT
??_C@_0CB@MIJFJDPK@allocating?5model?5group?5componen@ DB 'allocating mod'
	DB	'el group component', 00H			; `string'
CONST	ENDS
;	COMDAT ??_C@_07OGOHJKKN@anyType@
CONST	SEGMENT
??_C@_07OGOHJKKN@anyType@ DB 'anyType', 00H		; `string'
CONST	ENDS
;	COMDAT ??_C@_0BO@IIFFCFND@allocating?5particle?5component@
CONST	SEGMENT
??_C@_0BO@IIFFCFND@allocating?5particle?5component@ DB 'allocating partic'
	DB	'le component', 00H				; `string'
CONST	ENDS
;	COMDAT ??_C@_0CB@PJCCKICC@http?3?1?1www?4w3?4org?12001?1XMLSchem@
CONST	SEGMENT
??_C@_0CB@PJCCKICC@http?3?1?1www?4w3?4org?12001?1XMLSchem@ DB 'http://www'
	DB	'.w3.org/2001/XMLSchema', 00H		; `string'
CONST	ENDS
;	COMDAT ??_C@_0CB@OFGABCMP@could?5not?5initialize?5basic?5type@
CONST	SEGMENT
??_C@_0CB@OFGABCMP@could?5not?5initialize?5basic?5type@ DB 'could not ini'
	DB	'tialize basic types', 00H			; `string'
CONST	ENDS
; Function compile flags: /Odt
;	COMDAT __JustMyCode_Default
_TEXT	SEGMENT
__JustMyCode_Default PROC				; COMDAT
	push	ebp
	mov	ebp, esp
	pop	ebp
	ret	0
__JustMyCode_Default ENDP
_TEXT	ENDS
; Function compile flags: /Ogtp
; File c:\users\dag\documents\_clients\codeproject authors group\windows on arm\libxml2\libxml2-2.9.9\xmlschemastypes.c
;	COMDAT _xmlSchemaValidateFacetInternal
_TEXT	SEGMENT
_facet$ = 8						; size = 4
_fws$ = 12						; size = 4
_valType$ = 16						; size = 4
_value$ = 20						; size = 4
_val$ = 24						; size = 4
_ws$ = 28						; size = 4
_xmlSchemaValidateFacetInternal PROC			; COMDAT

; 5318 : {

	push	ebp
	mov	ebp, esp
	push	ebx
	push	esi
	push	edi
	mov	ecx, OFFSET __74485836_xmlschemastypes@c
	call	@__CheckForDebuggerJustMyCode@4
	mov	edi, DWORD PTR _facet$[ebp]
	test	edi, edi
	je	$LN65@xmlSchemaV

; 5319 :     int ret;
; 5320 :     int stringType;
; 5321 : 
; 5322 :     if (facet == NULL)
; 5323 : 	return(-1);
; 5324 : 
; 5325 :     switch (facet->type) {

	mov	esi, DWORD PTR [edi]
	lea	eax, DWORD PTR [esi-1000]
	cmp	eax, 11					; 0000000bH
	ja	$LN74@xmlSchemaV
	mov	ecx, DWORD PTR _valType$[ebp]
	jmp	DWORD PTR $LN90@xmlSchemaV[eax*4]
$LN7@xmlSchemaV:

; 5326 : 	case XML_SCHEMA_FACET_PATTERN:
; 5327 : 	    /*
; 5328 : 	    * NOTE that for patterns, the @value needs to be the normalized
; 5329 : 	    * value, *not* the lexical initial value or the canonical value.
; 5330 : 	    */
; 5331 : 	    if (value == NULL)

	mov	edx, DWORD PTR _value$[ebp]
	test	edx, edx
	je	$LN65@xmlSchemaV

; 5332 : 		return(-1);
; 5333 : 	    /*
; 5334 : 	    * If string-derived type, regexp must be tested on the value space of
; 5335 : 	    * the datatype.
; 5336 : 	    * See https://www.w3.org/TR/xmlschema-2/#rf-pattern
; 5337 : 	    */
; 5338 : 	    stringType = val && ((val->type >= XML_SCHEMAS_STRING && val->type <= XML_SCHEMAS_NORMSTRING)

	mov	ecx, DWORD PTR _val$[ebp]
	test	ecx, ecx
	je	SHORT $LN81@xmlSchemaV
	mov	eax, DWORD PTR [ecx]
	cmp	eax, 1
	jl	SHORT $LN76@xmlSchemaV
	cmp	eax, 2
	jle	SHORT $LN86@xmlSchemaV
$LN76@xmlSchemaV:
	add	eax, -16				; fffffff0H
	cmp	eax, 6
	ja	SHORT $LN81@xmlSchemaV
$LN86@xmlSchemaV:

; 5339 : 			      || (val->type >= XML_SCHEMAS_TOKEN && val->type <= XML_SCHEMAS_NCNAME));
; 5340 : 	    ret = xmlRegexpExec(facet->regexp,

	mov	eax, DWORD PTR [ecx+8]
	test	eax, eax
	jne	SHORT $LN82@xmlSchemaV
$LN81@xmlSchemaV:
	mov	eax, edx
$LN82@xmlSchemaV:
	push	eax
	push	DWORD PTR [edi+36]
	call	_xmlRegexpExec
	add	esp, 8

; 5341 : 	                        (stringType && val->value.str) ? val->value.str : value);
; 5342 : 	    if (ret == 1)

	cmp	eax, 1
	je	$LN2@xmlSchemaV

; 5343 : 		return(0);
; 5344 : 	    if (ret == 0)

	pop	edi
	test	eax, eax
	mov	ecx, 1839				; 0000072fH

; 5522 :     }
; 5523 :     return(0);
; 5524 : 
; 5525 : }

	pop	esi
	cmove	eax, ecx
	pop	ebx
	pop	ebp
	ret	0
$LN11@xmlSchemaV:

; 5345 : 		return(XML_SCHEMAV_CVC_PATTERN_VALID);
; 5346 : 	    return(ret);
; 5347 : 	case XML_SCHEMA_FACET_MAXEXCLUSIVE:
; 5348 : 	    ret = xmlSchemaCompareValues(val, facet->val);

	push	DWORD PTR [edi+32]
	push	DWORD PTR _val$[ebp]
	call	_xmlSchemaCompareValues
	add	esp, 8

; 5349 : 	    if (ret == -2)

	cmp	eax, -2					; fffffffeH
	je	$LN65@xmlSchemaV

; 5350 : 		return(-1);
; 5351 : 	    if (ret == -1)

	cmp	eax, -1
	je	$LN2@xmlSchemaV

; 5522 :     }
; 5523 :     return(0);
; 5524 : 
; 5525 : }

	pop	edi
	pop	esi
	mov	eax, 1836				; 0000072cH
	pop	ebx
	pop	ebp
	ret	0
$LN14@xmlSchemaV:

; 5352 : 		return(0);
; 5353 : 	    return(XML_SCHEMAV_CVC_MAXEXCLUSIVE_VALID);
; 5354 : 	case XML_SCHEMA_FACET_MAXINCLUSIVE:
; 5355 : 	    ret = xmlSchemaCompareValues(val, facet->val);

	push	DWORD PTR [edi+32]
	push	DWORD PTR _val$[ebp]
	call	_xmlSchemaCompareValues
	add	esp, 8

; 5356 : 	    if (ret == -2)

	cmp	eax, -2					; fffffffeH
	je	$LN65@xmlSchemaV

; 5357 : 		return(-1);
; 5358 : 	    if ((ret == -1) || (ret == 0))

	cmp	eax, -1
	je	$LN2@xmlSchemaV
	test	eax, eax
	je	$LN2@xmlSchemaV

; 5522 :     }
; 5523 :     return(0);
; 5524 : 
; 5525 : }

	pop	edi
	pop	esi
	mov	eax, 1834				; 0000072aH
	pop	ebx
	pop	ebp
	ret	0
$LN18@xmlSchemaV:

; 5359 : 		return(0);
; 5360 : 	    return(XML_SCHEMAV_CVC_MAXINCLUSIVE_VALID);
; 5361 : 	case XML_SCHEMA_FACET_MINEXCLUSIVE:
; 5362 : 	    ret = xmlSchemaCompareValues(val, facet->val);

	push	DWORD PTR [edi+32]
	push	DWORD PTR _val$[ebp]
	call	_xmlSchemaCompareValues
	add	esp, 8

; 5363 : 	    if (ret == -2)

	cmp	eax, -2					; fffffffeH
	je	$LN65@xmlSchemaV

; 5364 : 		return(-1);
; 5365 : 	    if (ret == 1)

	cmp	eax, 1
	je	$LN2@xmlSchemaV

; 5522 :     }
; 5523 :     return(0);
; 5524 : 
; 5525 : }

	pop	edi
	pop	esi
	mov	eax, 1835				; 0000072bH
	pop	ebx
	pop	ebp
	ret	0
$LN21@xmlSchemaV:

; 5366 : 		return(0);
; 5367 : 	    return(XML_SCHEMAV_CVC_MINEXCLUSIVE_VALID);
; 5368 : 	case XML_SCHEMA_FACET_MININCLUSIVE:
; 5369 : 	    ret = xmlSchemaCompareValues(val, facet->val);

	push	DWORD PTR [edi+32]
	push	DWORD PTR _val$[ebp]
	call	_xmlSchemaCompareValues
	add	esp, 8

; 5370 : 	    if (ret == -2)

	cmp	eax, -2					; fffffffeH
	je	$LN65@xmlSchemaV

; 5371 : 		return(-1);
; 5372 : 	    if ((ret == 1) || (ret == 0))

	cmp	eax, 1
	je	$LN2@xmlSchemaV
	test	eax, eax
	je	$LN2@xmlSchemaV

; 5522 :     }
; 5523 :     return(0);
; 5524 : 
; 5525 : }

	pop	edi
	pop	esi
	mov	eax, 1833				; 00000729H
	pop	ebx
	pop	ebp
	ret	0
$LN26@xmlSchemaV:

; 5373 : 		return(0);
; 5374 : 	    return(XML_SCHEMAV_CVC_MININCLUSIVE_VALID);
; 5375 : 	case XML_SCHEMA_FACET_WHITESPACE:
; 5376 : 	    /* TODO whitespaces */
; 5377 : 	    /*
; 5378 : 	    * NOTE: Whitespace should be handled to normalize
; 5379 : 	    * the value to be validated against a the facets;
; 5380 : 	    * not to normalize the value in-between.
; 5381 : 	    */
; 5382 : 	    return(0);
; 5383 : 	case  XML_SCHEMA_FACET_ENUMERATION:
; 5384 : 	    if (ws == XML_SCHEMA_WHITESPACE_UNKNOWN) {

	mov	ecx, DWORD PTR _ws$[ebp]
	test	ecx, ecx
	jne	SHORT $LN27@xmlSchemaV

; 5385 : 		/*
; 5386 : 		* This is to ensure API compatibility with the old
; 5387 : 		* xmlSchemaValidateFacet().
; 5388 : 		* TODO: Get rid of this case.
; 5389 : 		*/
; 5390 : 		if ((facet->value != NULL) &&

	mov	eax, DWORD PTR [edi+8]
	test	eax, eax
	je	SHORT $LN31@xmlSchemaV
	push	DWORD PTR _value$[ebp]
	push	eax
	call	_xmlStrEqual
	add	esp, 8
	test	eax, eax
	je	SHORT $LN31@xmlSchemaV

; 5522 :     }
; 5523 :     return(0);
; 5524 : 
; 5525 : }

	pop	edi
	pop	esi
	xor	eax, eax
	pop	ebx
	pop	ebp
	ret	0
$LN27@xmlSchemaV:

; 5391 : 		    (xmlStrEqual(facet->value, value)))
; 5392 : 		    return(0);
; 5393 : 	    } else {
; 5394 : 		ret = xmlSchemaCompareValuesWhtspExt(facet->val->type,

	mov	eax, DWORD PTR [edi+32]

; 5006 :     return(xmlSchemaCompareValuesInternal(xtype, x, xvalue, xws, ytype, y,

	push	ecx
	push	DWORD PTR _value$[ebp]
	push	DWORD PTR _val$[ebp]
	push	DWORD PTR _valType$[ebp]
	push	DWORD PTR _fws$[ebp]
	push	DWORD PTR [edi+8]
	push	eax
	push	DWORD PTR [eax]
	call	_xmlSchemaCompareValuesInternal
	add	esp, 32					; 00000020H

; 5395 : 		    facet->val, facet->value, fws, valType, val,
; 5396 : 		    value, ws);
; 5397 : 		if (ret == -2)

	cmp	eax, -2					; fffffffeH
	je	$LN65@xmlSchemaV

; 5398 : 		    return(-1);
; 5399 : 		if (ret == 0)

	test	eax, eax
	je	$LN2@xmlSchemaV
$LN31@xmlSchemaV:
	pop	edi

; 5522 :     }
; 5523 :     return(0);
; 5524 : 
; 5525 : }

	pop	esi
	mov	eax, 1840				; 00000730H
	pop	ebx
	pop	ebp
	ret	0
$LN32@xmlSchemaV:

; 5400 : 		    return(0);
; 5401 : 	    }
; 5402 : 	    return(XML_SCHEMAV_CVC_ENUMERATION_VALID);
; 5403 : 	case XML_SCHEMA_FACET_LENGTH:
; 5404 : 	    /*
; 5405 : 	    * SPEC (1.3) "if {primitive type definition} is QName or NOTATION,
; 5406 : 	    * then any {value} is facet-valid."
; 5407 : 	    */
; 5408 : 	    if ((valType == XML_SCHEMAS_QNAME) ||

	cmp	ecx, 21					; 00000015H
	je	$LN2@xmlSchemaV
	cmp	ecx, 28					; 0000001cH
	je	$LN2@xmlSchemaV
$LN33@xmlSchemaV:

; 5409 : 		(valType == XML_SCHEMAS_NOTATION))
; 5410 : 		return (0);
; 5411 :             /* Falls through. */
; 5412 : 	case XML_SCHEMA_FACET_MAXLENGTH:
; 5413 : 	case XML_SCHEMA_FACET_MINLENGTH: {
; 5414 : 	    unsigned int len = 0;

	xor	ebx, ebx

; 5415 : 
; 5416 : 	    if ((valType == XML_SCHEMAS_QNAME) ||

	cmp	ecx, 21					; 00000015H
	je	$LN2@xmlSchemaV
	cmp	ecx, 28					; 0000001cH
	je	$LN2@xmlSchemaV

; 5417 : 		(valType == XML_SCHEMAS_NOTATION))
; 5418 : 		return (0);
; 5419 : 	    /*
; 5420 : 	    * TODO: length, maxLength and minLength must be of type
; 5421 : 	    * nonNegativeInteger only. Check if decimal is used somehow.
; 5422 : 	    */
; 5423 : 	    if ((facet->val == NULL) ||
; 5424 : 		((facet->val->type != XML_SCHEMAS_DECIMAL) &&
; 5425 : 		 (facet->val->type != XML_SCHEMAS_NNINTEGER)) ||

	mov	eax, DWORD PTR [edi+32]
	test	eax, eax
	je	$LN65@xmlSchemaV
	mov	edx, DWORD PTR [eax]
	cmp	edx, 3
	je	SHORT $LN40@xmlSchemaV
	cmp	edx, 33					; 00000021H
	jne	$LN65@xmlSchemaV
$LN40@xmlSchemaV:
	test	BYTE PTR [eax+24], 254			; 000000feH
	jne	$LN65@xmlSchemaV

; 5426 : 		(facet->val->value.decimal.frac != 0)) {
; 5427 : 		return(-1);
; 5428 : 	    }
; 5429 : 	    if ((val != NULL) && (val->type == XML_SCHEMAS_HEXBINARY))

	mov	eax, DWORD PTR _val$[ebp]
	test	eax, eax
	je	SHORT $LN87@xmlSchemaV
	mov	edx, DWORD PTR [eax]
	cmp	edx, 43					; 0000002bH
	jne	SHORT $LN85@xmlSchemaV

; 5430 : 		len = val->value.hex.total;

	mov	ebx, DWORD PTR [eax+12]
	jmp	$LN4@xmlSchemaV
$LN85@xmlSchemaV:

; 5431 : 	    else if ((val != NULL) && (val->type == XML_SCHEMAS_BASE64BINARY))

	cmp	edx, 44					; 0000002cH
	jne	SHORT $LN87@xmlSchemaV

; 5432 : 		len = val->value.base64.total;

	mov	ebx, DWORD PTR [eax+12]
	jmp	$LN4@xmlSchemaV
$LN87@xmlSchemaV:

; 5433 : 	    else {
; 5434 : 		switch (valType) {

	lea	eax, DWORD PTR [ecx-1]
	cmp	eax, 28					; 0000001cH
	ja	SHORT $LN55@xmlSchemaV
	movzx	eax, BYTE PTR $LN88@xmlSchemaV[eax]
	jmp	DWORD PTR $LN91@xmlSchemaV[eax*4]
$LN45@xmlSchemaV:

; 5435 : 		    case XML_SCHEMAS_STRING:
; 5436 : 		    case XML_SCHEMAS_NORMSTRING:
; 5437 : 			if (ws == XML_SCHEMA_WHITESPACE_UNKNOWN) {

	mov	edx, DWORD PTR _ws$[ebp]
	test	edx, edx
	jne	SHORT $LN46@xmlSchemaV

; 5438 : 			    /*
; 5439 : 			    * This is to ensure API compatibility with the old
; 5440 : 			    * xmlSchemaValidateFacet(). Anyway, this was and
; 5441 : 			    * is not the correct handling.
; 5442 : 			    * TODO: Get rid of this case somehow.
; 5443 : 			    */
; 5444 : 			    if (valType == XML_SCHEMAS_STRING)

	push	DWORD PTR _value$[ebp]
	cmp	ecx, 1
	jne	SHORT $LN48@xmlSchemaV
$LN51@xmlSchemaV:

; 5471 : 		}
; 5472 : 	    }
; 5473 : 	    if (facet->type == XML_SCHEMA_FACET_LENGTH) {

	call	_xmlUTF8Strlen
	add	esp, 4
	mov	ebx, eax
	jmp	SHORT $LN4@xmlSchemaV
$LN46@xmlSchemaV:

; 5445 : 				len = xmlUTF8Strlen(value);
; 5446 : 			    else
; 5447 : 				len = xmlSchemaNormLen(value);
; 5448 : 			} else if (value != NULL) {

	mov	eax, DWORD PTR _value$[ebp]
	test	eax, eax
	je	SHORT $LN4@xmlSchemaV

; 5449 : 			    if (ws == XML_SCHEMA_WHITESPACE_COLLAPSE)

	push	eax
	cmp	edx, 3
	jne	SHORT $LN51@xmlSchemaV

; 5450 : 				len = xmlSchemaNormLen(value);

	call	_xmlSchemaNormLen
	add	esp, 4
	mov	ebx, eax
	jmp	SHORT $LN4@xmlSchemaV
$LN53@xmlSchemaV:

; 5451 : 			    else
; 5452 : 				/*
; 5453 : 				* Should be OK for "preserve" as well.
; 5454 : 				*/
; 5455 : 				len = xmlUTF8Strlen(value);
; 5456 : 			}
; 5457 : 			break;
; 5458 : 		    case XML_SCHEMAS_IDREF:
; 5459 : 		    case XML_SCHEMAS_TOKEN:
; 5460 : 		    case XML_SCHEMAS_LANGUAGE:
; 5461 : 		    case XML_SCHEMAS_NMTOKEN:
; 5462 : 		    case XML_SCHEMAS_NAME:
; 5463 : 		    case XML_SCHEMAS_NCNAME:
; 5464 : 		    case XML_SCHEMAS_ID:
; 5465 : 		    case XML_SCHEMAS_ANYURI:
; 5466 : 			if (value != NULL)

	mov	eax, DWORD PTR _value$[ebp]
	test	eax, eax
	je	SHORT $LN4@xmlSchemaV

; 5467 : 			    len = xmlSchemaNormLen(value);

	push	eax
$LN48@xmlSchemaV:

; 5471 : 		}
; 5472 : 	    }
; 5473 : 	    if (facet->type == XML_SCHEMA_FACET_LENGTH) {

	call	_xmlSchemaNormLen
	add	esp, 4
	mov	ebx, eax
	jmp	SHORT $LN4@xmlSchemaV
$LN55@xmlSchemaV:

; 5468 : 			break;
; 5469 : 		    default:
; 5470 : 		        TODO

	call	___xmlGenericError
	mov	esi, eax
	call	___xmlGenericErrorContext
	push	5470					; 0000155eH
	push	OFFSET ??_C@_0HB@FHPILMCP@c?3?2users?2dag?2documents?2_clients@
	push	OFFSET ??_C@_0BO@MDEMDPPE@Unimplemented?5block?5at?5?$CFs?3?$CFd?6@
	push	DWORD PTR [eax]
	mov	eax, DWORD PTR [esi]
	call	eax
	add	esp, 16					; 00000010H
$LN4@xmlSchemaV:

; 5471 : 		}
; 5472 : 	    }
; 5473 : 	    if (facet->type == XML_SCHEMA_FACET_LENGTH) {

	mov	ecx, DWORD PTR [edi]
	mov	eax, DWORD PTR [edi+32]
	cmp	ecx, 1009				; 000003f1H
	jne	SHORT $LN56@xmlSchemaV

; 5474 : 		if (len != facet->val->value.decimal.lo)

	cmp	ebx, DWORD PTR [eax+8]
	je	$LN2@xmlSchemaV

; 5522 :     }
; 5523 :     return(0);
; 5524 : 
; 5525 : }

	pop	edi
	pop	esi
	mov	eax, 1830				; 00000726H
	pop	ebx
	pop	ebp
	ret	0
$LN56@xmlSchemaV:

; 5475 : 		    return(XML_SCHEMAV_CVC_LENGTH_VALID);
; 5476 : 	    } else if (facet->type == XML_SCHEMA_FACET_MINLENGTH) {

	mov	eax, DWORD PTR [eax+8]
	cmp	ecx, 1011				; 000003f3H
	jne	SHORT $LN59@xmlSchemaV

; 5477 : 		if (len < facet->val->value.decimal.lo)

	cmp	ebx, eax
	jae	$LN2@xmlSchemaV

; 5522 :     }
; 5523 :     return(0);
; 5524 : 
; 5525 : }

	pop	edi
	pop	esi
	mov	eax, 1831				; 00000727H
	pop	ebx
	pop	ebp
	ret	0
$LN59@xmlSchemaV:

; 5478 : 		    return(XML_SCHEMAV_CVC_MINLENGTH_VALID);
; 5479 : 	    } else {
; 5480 : 		if (len > facet->val->value.decimal.lo)

	cmp	ebx, eax
	jbe	$LN2@xmlSchemaV

; 5522 :     }
; 5523 :     return(0);
; 5524 : 
; 5525 : }

	pop	edi
	pop	esi
	mov	eax, 1832				; 00000728H
	pop	ebx
	pop	ebp
	ret	0
$LN63@xmlSchemaV:

; 5481 : 		    return(XML_SCHEMAV_CVC_MAXLENGTH_VALID);
; 5482 : 	    }
; 5483 : 	    break;
; 5484 : 	}
; 5485 : 	case XML_SCHEMA_FACET_TOTALDIGITS:
; 5486 : 	case XML_SCHEMA_FACET_FRACTIONDIGITS:
; 5487 : 
; 5488 : 	    if ((facet->val == NULL) ||
; 5489 : 		((facet->val->type != XML_SCHEMAS_PINTEGER) &&
; 5490 : 		 (facet->val->type != XML_SCHEMAS_NNINTEGER)) ||

	mov	ecx, DWORD PTR [edi+32]
	test	ecx, ecx
	je	$LN65@xmlSchemaV
	mov	eax, DWORD PTR [ecx]
	cmp	eax, 34					; 00000022H
	je	SHORT $LN66@xmlSchemaV
	cmp	eax, 33					; 00000021H
	jne	$LN65@xmlSchemaV
$LN66@xmlSchemaV:
	test	BYTE PTR [ecx+24], 254			; 000000feH
	jne	$LN65@xmlSchemaV

; 5491 : 		(facet->val->value.decimal.frac != 0)) {
; 5492 : 		return(-1);
; 5493 : 	    }
; 5494 : 	    if ((val == NULL) ||

	mov	edx, DWORD PTR _val$[ebp]
	test	edx, edx
	je	$LN65@xmlSchemaV
	mov	eax, DWORD PTR [edx]
	cmp	eax, 3
	je	SHORT $LN67@xmlSchemaV
	cmp	eax, 30					; 0000001eH
	je	SHORT $LN67@xmlSchemaV
	cmp	eax, 31					; 0000001fH
	je	SHORT $LN67@xmlSchemaV
	cmp	eax, 32					; 00000020H
	je	SHORT $LN67@xmlSchemaV
	cmp	eax, 33					; 00000021H
	je	SHORT $LN67@xmlSchemaV
	cmp	eax, 34					; 00000022H
	je	SHORT $LN67@xmlSchemaV
	cmp	eax, 35					; 00000023H
	je	SHORT $LN67@xmlSchemaV
	cmp	eax, 36					; 00000024H
	je	SHORT $LN67@xmlSchemaV
	cmp	eax, 37					; 00000025H
	je	SHORT $LN67@xmlSchemaV
	cmp	eax, 38					; 00000026H
	je	SHORT $LN67@xmlSchemaV
	cmp	eax, 39					; 00000027H
	je	SHORT $LN67@xmlSchemaV
	cmp	eax, 40					; 00000028H
	je	SHORT $LN67@xmlSchemaV
	cmp	eax, 41					; 00000029H
	je	SHORT $LN67@xmlSchemaV
	cmp	eax, 42					; 0000002aH
	jne	SHORT $LN65@xmlSchemaV
$LN67@xmlSchemaV:

; 5495 : 		((val->type != XML_SCHEMAS_DECIMAL) &&
; 5496 : 		 (val->type != XML_SCHEMAS_INTEGER) &&
; 5497 : 		 (val->type != XML_SCHEMAS_NPINTEGER) &&
; 5498 : 		 (val->type != XML_SCHEMAS_NINTEGER) &&
; 5499 : 		 (val->type != XML_SCHEMAS_NNINTEGER) &&
; 5500 : 		 (val->type != XML_SCHEMAS_PINTEGER) &&
; 5501 : 		 (val->type != XML_SCHEMAS_INT) &&
; 5502 : 		 (val->type != XML_SCHEMAS_UINT) &&
; 5503 : 		 (val->type != XML_SCHEMAS_LONG) &&
; 5504 : 		 (val->type != XML_SCHEMAS_ULONG) &&
; 5505 : 		 (val->type != XML_SCHEMAS_SHORT) &&
; 5506 : 		 (val->type != XML_SCHEMAS_USHORT) &&
; 5507 : 		 (val->type != XML_SCHEMAS_BYTE) &&
; 5508 : 		 (val->type != XML_SCHEMAS_UBYTE))) {
; 5509 : 		return(-1);
; 5510 : 	    }
; 5511 : 	    if (facet->type == XML_SCHEMA_FACET_TOTALDIGITS) {

	cmp	esi, 1004				; 000003ecH
	jne	SHORT $LN69@xmlSchemaV

; 5512 : 	        if (val->value.decimal.total > facet->val->value.decimal.lo)

	movzx	eax, BYTE PTR [edx+25]
	cmp	eax, DWORD PTR [ecx+8]
	jbe	SHORT $LN2@xmlSchemaV

; 5522 :     }
; 5523 :     return(0);
; 5524 : 
; 5525 : }

	pop	edi
	pop	esi
	mov	eax, 1837				; 0000072dH
	pop	ebx
	pop	ebp
	ret	0
$LN69@xmlSchemaV:

; 5513 : 	            return(XML_SCHEMAV_CVC_TOTALDIGITS_VALID);
; 5514 : 
; 5515 : 	    } else if (facet->type == XML_SCHEMA_FACET_FRACTIONDIGITS) {

	cmp	esi, 1005				; 000003edH
	jne	SHORT $LN2@xmlSchemaV

; 5516 : 	        if (val->value.decimal.frac > facet->val->value.decimal.lo)

	mov	eax, DWORD PTR [edx+24]
	shr	eax, 1
	and	eax, 127				; 0000007fH
	cmp	eax, DWORD PTR [ecx+8]
	jbe	SHORT $LN2@xmlSchemaV

; 5522 :     }
; 5523 :     return(0);
; 5524 : 
; 5525 : }

	pop	edi
	pop	esi
	mov	eax, 1838				; 0000072eH
	pop	ebx
	pop	ebp
	ret	0
$LN74@xmlSchemaV:

; 5517 : 		    return(XML_SCHEMAV_CVC_FRACTIONDIGITS_VALID);
; 5518 : 	    }
; 5519 : 	    break;
; 5520 : 	default:
; 5521 : 	    TODO

	call	___xmlGenericError
	mov	esi, eax
	call	___xmlGenericErrorContext
	push	5521					; 00001591H
	push	OFFSET ??_C@_0HB@FHPILMCP@c?3?2users?2dag?2documents?2_clients@
	push	OFFSET ??_C@_0BO@MDEMDPPE@Unimplemented?5block?5at?5?$CFs?3?$CFd?6@
	push	DWORD PTR [eax]
	mov	eax, DWORD PTR [esi]
	call	eax
	add	esp, 16					; 00000010H
$LN2@xmlSchemaV:

; 5522 :     }
; 5523 :     return(0);
; 5524 : 
; 5525 : }

	pop	edi
	pop	esi
	xor	eax, eax
	pop	ebx
	pop	ebp
	ret	0
$LN65@xmlSchemaV:
	pop	edi
	pop	esi
	or	eax, -1
	pop	ebx
	pop	ebp
	ret	0
	npad	1
$LN90@xmlSchemaV:
	DD	$LN21@xmlSchemaV
	DD	$LN18@xmlSchemaV
	DD	$LN14@xmlSchemaV
	DD	$LN11@xmlSchemaV
	DD	$LN63@xmlSchemaV
	DD	$LN63@xmlSchemaV
	DD	$LN7@xmlSchemaV
	DD	$LN26@xmlSchemaV
	DD	$LN2@xmlSchemaV
	DD	$LN32@xmlSchemaV
	DD	$LN33@xmlSchemaV
	DD	$LN33@xmlSchemaV
$LN91@xmlSchemaV:
	DD	$LN45@xmlSchemaV
	DD	$LN53@xmlSchemaV
	DD	$LN55@xmlSchemaV
$LN88@xmlSchemaV:
	DB	0
	DB	0
	DB	2
	DB	2
	DB	2
	DB	2
	DB	2
	DB	2
	DB	2
	DB	2
	DB	2
	DB	2
	DB	2
	DB	2
	DB	2
	DB	1
	DB	1
	DB	1
	DB	2
	DB	1
	DB	2
	DB	1
	DB	1
	DB	1
	DB	2
	DB	2
	DB	2
	DB	2
	DB	1
_xmlSchemaValidateFacetInternal ENDP
_TEXT	ENDS
; Function compile flags: /Ogtp
; File c:\users\dag\documents\_clients\codeproject authors group\windows on arm\libxml2\libxml2-2.9.9\xmlschemastypes.c
;	COMDAT _xmlSchemaValidateLengthFacetInternal
_TEXT	SEGMENT
_facet$ = 8						; size = 4
_valType$ = 12						; size = 4
_value$ = 16						; size = 4
_val$ = 20						; size = 4
_length$ = 24						; size = 4
_ws$ = 28						; size = 4
_xmlSchemaValidateLengthFacetInternal PROC		; COMDAT

; 5149 : {

	push	ebp
	mov	ebp, esp
	push	ebx
	push	edi
	mov	ecx, OFFSET __74485836_xmlschemastypes@c
	call	@__CheckForDebuggerJustMyCode@4
	mov	eax, DWORD PTR _length$[ebp]
	xor	edi, edi
	test	eax, eax
	je	$LN5@xmlSchemaV

; 5150 :     unsigned int len = 0;
; 5151 : 
; 5152 :     if ((length == NULL) || (facet == NULL))

	mov	ebx, DWORD PTR _facet$[ebp]
	test	ebx, ebx
	je	$LN5@xmlSchemaV

; 5154 :     *length = 0;

	mov	DWORD PTR [eax], edi

; 5155 :     if ((facet->type != XML_SCHEMA_FACET_LENGTH) &&
; 5156 : 	(facet->type != XML_SCHEMA_FACET_MAXLENGTH) &&

	mov	eax, DWORD PTR [ebx]
	cmp	eax, 1009				; 000003f1H
	je	SHORT $LN6@xmlSchemaV
	cmp	eax, 1010				; 000003f2H
	je	SHORT $LN6@xmlSchemaV
	cmp	eax, 1011				; 000003f3H
	jne	$LN5@xmlSchemaV
$LN6@xmlSchemaV:

; 5157 : 	(facet->type != XML_SCHEMA_FACET_MINLENGTH))
; 5158 : 	return (-1);
; 5159 : 
; 5160 :     /*
; 5161 :     * TODO: length, maxLength and minLength must be of type
; 5162 :     * nonNegativeInteger only. Check if decimal is used somehow.
; 5163 :     */
; 5164 :     if ((facet->val == NULL) ||
; 5165 : 	((facet->val->type != XML_SCHEMAS_DECIMAL) &&
; 5166 : 	 (facet->val->type != XML_SCHEMAS_NNINTEGER)) ||

	mov	eax, DWORD PTR [ebx+32]
	test	eax, eax
	je	$LN5@xmlSchemaV
	mov	ecx, DWORD PTR [eax]
	cmp	ecx, 3
	je	SHORT $LN9@xmlSchemaV
	cmp	ecx, 33					; 00000021H
	jne	$LN5@xmlSchemaV
$LN9@xmlSchemaV:
	test	BYTE PTR [eax+24], 254			; 000000feH
	jne	$LN5@xmlSchemaV

; 5167 : 	(facet->val->value.decimal.frac != 0)) {
; 5168 : 	return(-1);
; 5169 :     }
; 5170 :     if ((val != NULL) && (val->type == XML_SCHEMAS_HEXBINARY))

	mov	eax, DWORD PTR _val$[ebp]
	test	eax, eax
	je	SHORT $LN35@xmlSchemaV
	mov	ecx, DWORD PTR [eax]
	cmp	ecx, 43					; 0000002bH
	jne	SHORT $LN34@xmlSchemaV

; 5171 : 	len = val->value.hex.total;

	mov	edi, DWORD PTR [eax+12]
	jmp	$LN2@xmlSchemaV
$LN34@xmlSchemaV:

; 5172 :     else if ((val != NULL) && (val->type == XML_SCHEMAS_BASE64BINARY))

	cmp	ecx, 44					; 0000002cH
	jne	SHORT $LN35@xmlSchemaV

; 5173 : 	len = val->value.base64.total;

	mov	edi, DWORD PTR [eax+12]
	jmp	$LN2@xmlSchemaV
$LN35@xmlSchemaV:

; 5174 :     else {
; 5175 : 	switch (valType) {

	mov	ecx, DWORD PTR _valType$[ebp]
	lea	eax, DWORD PTR [ecx-1]
	cmp	eax, 28					; 0000001cH
	ja	SHORT $LN25@xmlSchemaV
	movzx	eax, BYTE PTR $LN36@xmlSchemaV[eax]
	jmp	DWORD PTR $LN38@xmlSchemaV[eax*4]
$LN14@xmlSchemaV:

; 5176 : 	    case XML_SCHEMAS_STRING:
; 5177 : 	    case XML_SCHEMAS_NORMSTRING:
; 5178 : 		if (ws == XML_SCHEMA_WHITESPACE_UNKNOWN) {

	mov	edx, DWORD PTR _ws$[ebp]
	test	edx, edx
	jne	SHORT $LN15@xmlSchemaV

; 5179 : 		    /*
; 5180 : 		    * This is to ensure API compatibility with the old
; 5181 : 		    * xmlSchemaValidateLengthFacet(). Anyway, this was and
; 5182 : 		    * is not the correct handling.
; 5183 : 		    * TODO: Get rid of this case somehow.
; 5184 : 		    */
; 5185 : 		    if (valType == XML_SCHEMAS_STRING)

	push	DWORD PTR _value$[ebp]
	cmp	ecx, 1
	jne	SHORT $LN17@xmlSchemaV
$LN20@xmlSchemaV:

; 5222 : 	}
; 5223 :     }
; 5224 :     *length = (unsigned long) len;

	call	_xmlUTF8Strlen
	add	esp, 4
	mov	edi, eax
	jmp	SHORT $LN2@xmlSchemaV
$LN15@xmlSchemaV:

; 5186 : 			len = xmlUTF8Strlen(value);
; 5187 : 		    else
; 5188 : 			len = xmlSchemaNormLen(value);
; 5189 : 		} else if (value != NULL) {

	mov	eax, DWORD PTR _value$[ebp]
	test	eax, eax
	je	SHORT $LN2@xmlSchemaV

; 5190 : 		    if (ws == XML_SCHEMA_WHITESPACE_COLLAPSE)

	push	eax
	cmp	edx, 3
	jne	SHORT $LN20@xmlSchemaV

; 5191 : 			len = xmlSchemaNormLen(value);

	call	_xmlSchemaNormLen
	add	esp, 4
	mov	edi, eax
	jmp	SHORT $LN2@xmlSchemaV
$LN22@xmlSchemaV:

; 5192 : 		    else
; 5193 : 		    /*
; 5194 : 		    * Should be OK for "preserve" as well.
; 5195 : 		    */
; 5196 : 		    len = xmlUTF8Strlen(value);
; 5197 : 		}
; 5198 : 		break;
; 5199 : 	    case XML_SCHEMAS_IDREF:
; 5200 : 	    case XML_SCHEMAS_TOKEN:
; 5201 : 	    case XML_SCHEMAS_LANGUAGE:
; 5202 : 	    case XML_SCHEMAS_NMTOKEN:
; 5203 : 	    case XML_SCHEMAS_NAME:
; 5204 : 	    case XML_SCHEMAS_NCNAME:
; 5205 : 	    case XML_SCHEMAS_ID:
; 5206 : 		/*
; 5207 : 		* FIXME: What exactly to do with anyURI?
; 5208 : 		*/
; 5209 : 	    case XML_SCHEMAS_ANYURI:
; 5210 : 		if (value != NULL)

	mov	eax, DWORD PTR _value$[ebp]
	test	eax, eax
	je	SHORT $LN2@xmlSchemaV

; 5211 : 		    len = xmlSchemaNormLen(value);

	push	eax
$LN17@xmlSchemaV:

; 5222 : 	}
; 5223 :     }
; 5224 :     *length = (unsigned long) len;

	call	_xmlSchemaNormLen
	add	esp, 4
	mov	edi, eax
	jmp	SHORT $LN2@xmlSchemaV
$LN24@xmlSchemaV:
	pop	edi

; 5237 :     }
; 5238 : 
; 5239 :     return (0);
; 5240 : }

	xor	eax, eax
	pop	ebx
	pop	ebp
	ret	0
$LN25@xmlSchemaV:
	push	esi

; 5212 : 		break;
; 5213 : 	    case XML_SCHEMAS_QNAME:
; 5214 : 	    case XML_SCHEMAS_NOTATION:
; 5215 : 		/*
; 5216 : 		* For QName and NOTATION, those facets are
; 5217 : 		* deprecated and should be ignored.
; 5218 : 		*/
; 5219 : 		return (0);
; 5220 : 	    default:
; 5221 : 		TODO

	call	___xmlGenericError
	mov	esi, eax
	call	___xmlGenericErrorContext
	push	5221					; 00001465H
	push	OFFSET ??_C@_0HB@FHPILMCP@c?3?2users?2dag?2documents?2_clients@
	push	OFFSET ??_C@_0BO@MDEMDPPE@Unimplemented?5block?5at?5?$CFs?3?$CFd?6@
	push	DWORD PTR [eax]
	mov	eax, DWORD PTR [esi]
	call	eax
	add	esp, 16					; 00000010H
	pop	esi
$LN2@xmlSchemaV:

; 5222 : 	}
; 5223 :     }
; 5224 :     *length = (unsigned long) len;

	mov	eax, DWORD PTR _length$[ebp]
	mov	DWORD PTR [eax], edi

; 5225 :     /*
; 5226 :     * TODO: Return the whole expected value, i.e. "lo", "mi" and "hi".
; 5227 :     */
; 5228 :     if (facet->type == XML_SCHEMA_FACET_LENGTH) {

	mov	ecx, DWORD PTR [ebx]
	mov	eax, DWORD PTR [ebx+32]
	cmp	ecx, 1009				; 000003f1H
	jne	SHORT $LN26@xmlSchemaV

; 5229 : 	if (len != facet->val->value.decimal.lo)

	cmp	edi, DWORD PTR [eax+8]
	je	SHORT $LN24@xmlSchemaV

; 5230 : 	    return(XML_SCHEMAV_CVC_LENGTH_VALID);

	pop	edi
	mov	eax, 1830				; 00000726H

; 5237 :     }
; 5238 : 
; 5239 :     return (0);
; 5240 : }

	pop	ebx
	pop	ebp
	ret	0
$LN26@xmlSchemaV:

; 5231 :     } else if (facet->type == XML_SCHEMA_FACET_MINLENGTH) {

	mov	eax, DWORD PTR [eax+8]
	cmp	ecx, 1011				; 000003f3H
	jne	SHORT $LN29@xmlSchemaV

; 5232 : 	if (len < facet->val->value.decimal.lo)

	cmp	edi, eax
	jae	SHORT $LN24@xmlSchemaV

; 5233 : 	    return(XML_SCHEMAV_CVC_MINLENGTH_VALID);

	pop	edi
	mov	eax, 1831				; 00000727H

; 5237 :     }
; 5238 : 
; 5239 :     return (0);
; 5240 : }

	pop	ebx
	pop	ebp
	ret	0
$LN29@xmlSchemaV:

; 5234 :     } else {
; 5235 : 	if (len > facet->val->value.decimal.lo)

	cmp	edi, eax
	jbe	SHORT $LN24@xmlSchemaV

; 5236 : 	    return(XML_SCHEMAV_CVC_MAXLENGTH_VALID);

	pop	edi
	mov	eax, 1832				; 00000728H

; 5237 :     }
; 5238 : 
; 5239 :     return (0);
; 5240 : }

	pop	ebx
	pop	ebp
	ret	0
$LN5@xmlSchemaV:
	pop	edi

; 5153 :         return (-1);

	or	eax, -1

; 5237 :     }
; 5238 : 
; 5239 :     return (0);
; 5240 : }

	pop	ebx
	pop	ebp
	ret	0
	npad	3
$LN38@xmlSchemaV:
	DD	$LN14@xmlSchemaV
	DD	$LN22@xmlSchemaV
	DD	$LN24@xmlSchemaV
	DD	$LN25@xmlSchemaV
$LN36@xmlSchemaV:
	DB	0
	DB	0
	DB	3
	DB	3
	DB	3
	DB	3
	DB	3
	DB	3
	DB	3
	DB	3
	DB	3
	DB	3
	DB	3
	DB	3
	DB	3
	DB	1
	DB	1
	DB	1
	DB	3
	DB	1
	DB	2
	DB	1
	DB	1
	DB	1
	DB	3
	DB	3
	DB	3
	DB	2
	DB	1
_xmlSchemaValidateLengthFacetInternal ENDP
_TEXT	ENDS
; Function compile flags: /Ogtp
; File c:\users\dag\documents\_clients\codeproject authors group\windows on arm\libxml2\libxml2-2.9.9\xmlschemastypes.c
;	COMDAT _xmlSchemaNormLen
_TEXT	SEGMENT
_value$ = 8						; size = 4
_xmlSchemaNormLen PROC					; COMDAT

; 5019 : xmlSchemaNormLen(const xmlChar *value) {

	push	ebp
	mov	ebp, esp
	push	esi
	push	edi
	mov	ecx, OFFSET __74485836_xmlschemastypes@c
	call	@__CheckForDebuggerJustMyCode@4
	mov	edx, DWORD PTR _value$[ebp]
	xor	edi, edi
	test	edx, edx
	je	$LN36@xmlSchemaN
	npad	4
$LL2@xmlSchemaN:

; 5020 :     const xmlChar *utf;
; 5021 :     int ret = 0;
; 5022 : 
; 5023 :     if (value == NULL)
; 5024 : 	return(-1);
; 5025 :     utf = value;
; 5026 :     while (IS_BLANK_CH(*utf)) utf++;

	mov	al, BYTE PTR [edx]
	cmp	al, 32					; 00000020H
	je	SHORT $LN9@xmlSchemaN
	cmp	al, 9
	jb	SHORT $LN10@xmlSchemaN
	cmp	al, 10					; 0000000aH
	jbe	SHORT $LN9@xmlSchemaN
$LN10@xmlSchemaN:
	cmp	al, 13					; 0000000dH
	jne	SHORT $LN31@xmlSchemaN
$LN9@xmlSchemaN:
	inc	edx
	jmp	SHORT $LL2@xmlSchemaN
$LN31@xmlSchemaN:

; 5027 :     while (*utf != 0) {

	test	al, al
	je	$LN51@xmlSchemaN
$LN53@xmlSchemaN:

; 5028 : 	if (utf[0] & 0x80) {

	jns	SHORT $LN11@xmlSchemaN

; 5029 : 	    if ((utf[1] & 0xc0) != 0x80)

	mov	cl, BYTE PTR [edx+1]
	and	cl, 192					; 000000c0H
	cmp	cl, 128					; 00000080H
	jne	$LN36@xmlSchemaN

; 5030 : 		return(-1);
; 5031 : 	    if ((utf[0] & 0xe0) == 0xe0) {

	mov	cl, al
	and	cl, 224					; 000000e0H
	cmp	cl, 224					; 000000e0H
	jne	SHORT $LN14@xmlSchemaN

; 5032 : 		if ((utf[2] & 0xc0) != 0x80)

	mov	cl, BYTE PTR [edx+2]
	and	cl, 192					; 000000c0H
	cmp	cl, 128					; 00000080H
	jne	SHORT $LN36@xmlSchemaN

; 5033 : 		    return(-1);
; 5034 : 		if ((utf[0] & 0xf0) == 0xf0) {

	mov	cl, al
	and	cl, 240					; 000000f0H
	cmp	cl, 240					; 000000f0H
	jne	SHORT $LN17@xmlSchemaN

; 5035 : 		    if ((utf[0] & 0xf8) != 0xf0 || (utf[3] & 0xc0) != 0x80)

	and	al, 248					; 000000f8H
	cmp	al, cl
	jne	SHORT $LN36@xmlSchemaN
	mov	al, BYTE PTR [edx+3]
	and	al, 192					; 000000c0H
	cmp	al, 128					; 00000080H
	jne	SHORT $LN36@xmlSchemaN

; 5037 : 		    utf += 4;

	mov	eax, 4

; 5040 : 		}
; 5041 : 	    } else {

	add	edx, eax

; 5042 : 		utf += 2;
; 5043 : 	    }

	mov	al, BYTE PTR [edx]
	jmp	SHORT $LN27@xmlSchemaN
$LN17@xmlSchemaN:

; 5038 : 		} else {
; 5039 : 		    utf += 3;

	mov	eax, 3

; 5040 : 		}
; 5041 : 	    } else {

	add	edx, eax

; 5042 : 		utf += 2;
; 5043 : 	    }

	mov	al, BYTE PTR [edx]
	jmp	SHORT $LN27@xmlSchemaN
$LN14@xmlSchemaN:
	mov	al, BYTE PTR [edx+2]
	add	edx, 2
	jmp	SHORT $LN27@xmlSchemaN
$LN11@xmlSchemaN:

; 5044 : 	} else if (IS_BLANK_CH(*utf)) {

	cmp	al, 32					; 00000020H
	je	SHORT $LN25@xmlSchemaN
	cmp	al, 9
	jb	SHORT $LN24@xmlSchemaN
	cmp	al, 10					; 0000000aH
	jbe	SHORT $LL39@xmlSchemaN
$LN24@xmlSchemaN:
	cmp	al, 13					; 0000000dH
	je	SHORT $LL39@xmlSchemaN

; 5047 : 		break;
; 5048 : 	} else {
; 5049 : 	    utf++;

	mov	al, BYTE PTR [edx+1]
	inc	edx
	jmp	SHORT $LN27@xmlSchemaN
$LL39@xmlSchemaN:

; 5045 : 	    while (IS_BLANK_CH(*utf)) utf++;

	cmp	al, 32					; 00000020H
	je	SHORT $LN25@xmlSchemaN
	cmp	al, 9
	jb	SHORT $LN26@xmlSchemaN
	cmp	al, 10					; 0000000aH
	jbe	SHORT $LN25@xmlSchemaN
$LN26@xmlSchemaN:
	cmp	al, 13					; 0000000dH
	jne	SHORT $LN7@xmlSchemaN
$LN25@xmlSchemaN:
	mov	al, BYTE PTR [edx+1]
	inc	edx
	jmp	SHORT $LL39@xmlSchemaN
$LN7@xmlSchemaN:

; 5046 : 	    if (*utf == 0)

	test	al, al
	je	SHORT $LN51@xmlSchemaN
$LN27@xmlSchemaN:

; 5050 : 	}
; 5051 : 	ret++;

	inc	edi
	test	al, al
	jne	$LN53@xmlSchemaN
$LN51@xmlSchemaN:

; 5052 :     }
; 5053 :     return(ret);

	mov	eax, edi
	pop	edi

; 5054 : }

	pop	esi
	pop	ebp
	ret	0
$LN36@xmlSchemaN:
	pop	edi

; 5036 : 			return(-1);

	or	eax, -1

; 5054 : }

	pop	esi
	pop	ebp
	ret	0
_xmlSchemaNormLen ENDP
_TEXT	ENDS
; Function compile flags: /Ogtp
; File c:\users\dag\documents\_clients\codeproject authors group\windows on arm\libxml2\libxml2-2.9.9\xmlschemastypes.c
;	COMDAT _xmlSchemaCompareValuesWhtspExt
_TEXT	SEGMENT
_xtype$ = 8						; size = 4
_x$ = 12						; size = 4
_xvalue$ = 16						; size = 4
_xws$ = 20						; size = 4
_ytype$ = 24						; size = 4
_y$ = 28						; size = 4
_yvalue$ = 32						; size = 4
_yws$ = 36						; size = 4
_xmlSchemaCompareValuesWhtspExt PROC			; COMDAT

; 5005 : {

	push	ebp
	mov	ebp, esp
	mov	ecx, OFFSET __74485836_xmlschemastypes@c
	call	@__CheckForDebuggerJustMyCode@4

; 5007 : 	yvalue, yws));
; 5008 : }

	pop	ebp

; 5006 :     return(xmlSchemaCompareValuesInternal(xtype, x, xvalue, xws, ytype, y,

	jmp	_xmlSchemaCompareValuesInternal
_xmlSchemaCompareValuesWhtspExt ENDP
_TEXT	ENDS
; Function compile flags: /Ogtp
; File c:\users\dag\documents\_clients\codeproject authors group\windows on arm\libxml2\libxml2-2.9.9\xmlschemastypes.c
;	COMDAT _xmlSchemaCompareValuesInternal
_TEXT	SEGMENT
_d1$1$ = -16						; size = 8
_d2$1$ = -8						; size = 8
_minday$1$ = 8						; size = 4
_xtype$ = 8						; size = 4
_x$ = 12						; size = 4
_xvalue$ = 16						; size = 4
_xws$ = 20						; size = 4
_ytype$ = 24						; size = 4
_y$ = 28						; size = 4
_yvalue$ = 32						; size = 4
_yws$ = 36						; size = 4
_xmlSchemaCompareValuesInternal PROC			; COMDAT

; 4699 : {

	push	ebp
	mov	ebp, esp
	sub	esp, 16					; 00000010H
	mov	ecx, OFFSET __74485836_xmlschemastypes@c
	push	ebx
	push	esi
	push	edi
	call	@__CheckForDebuggerJustMyCode@4
	mov	ecx, DWORD PTR _xtype$[ebp]
	cmp	ecx, 46					; 0000002eH
	ja	$LN2@xmlSchemaC

; 4700 :     switch (xtype) {

	movzx	eax, BYTE PTR $LN358@xmlSchemaC[ecx]
	jmp	DWORD PTR $LN386@xmlSchemaC[eax*4]
$LN5@xmlSchemaC:

; 4701 : 	case XML_SCHEMAS_UNKNOWN:
; 4702 : 	case XML_SCHEMAS_ANYTYPE:
; 4703 : 	    return(-2);
; 4704 :         case XML_SCHEMAS_INTEGER:
; 4705 :         case XML_SCHEMAS_NPINTEGER:
; 4706 :         case XML_SCHEMAS_NINTEGER:
; 4707 :         case XML_SCHEMAS_NNINTEGER:
; 4708 :         case XML_SCHEMAS_PINTEGER:
; 4709 :         case XML_SCHEMAS_INT:
; 4710 :         case XML_SCHEMAS_UINT:
; 4711 :         case XML_SCHEMAS_LONG:
; 4712 :         case XML_SCHEMAS_ULONG:
; 4713 :         case XML_SCHEMAS_SHORT:
; 4714 :         case XML_SCHEMAS_USHORT:
; 4715 :         case XML_SCHEMAS_BYTE:
; 4716 :         case XML_SCHEMAS_UBYTE:
; 4717 : 	case XML_SCHEMAS_DECIMAL:
; 4718 : 	    if ((x == NULL) || (y == NULL))

	mov	edx, DWORD PTR _x$[ebp]
	test	edx, edx
	je	$LN2@xmlSchemaC
	mov	esi, DWORD PTR _y$[ebp]
	test	esi, esi
	je	$LN2@xmlSchemaC

; 4719 : 		return(-2);
; 4720 : 	    if (ytype == xtype)

	mov	eax, DWORD PTR _ytype$[ebp]
	cmp	eax, ecx
	je	SHORT $LN10@xmlSchemaC

; 4721 : 		return(xmlSchemaCompareDecimals(x, y));
; 4722 : 	    if ((ytype == XML_SCHEMAS_DECIMAL) ||
; 4723 : 		(ytype == XML_SCHEMAS_INTEGER) ||
; 4724 : 		(ytype == XML_SCHEMAS_NPINTEGER) ||
; 4725 : 		(ytype == XML_SCHEMAS_NINTEGER) ||
; 4726 : 		(ytype == XML_SCHEMAS_NNINTEGER) ||
; 4727 : 		(ytype == XML_SCHEMAS_PINTEGER) ||
; 4728 : 		(ytype == XML_SCHEMAS_INT) ||
; 4729 : 		(ytype == XML_SCHEMAS_UINT) ||
; 4730 : 		(ytype == XML_SCHEMAS_LONG) ||
; 4731 : 		(ytype == XML_SCHEMAS_ULONG) ||
; 4732 : 		(ytype == XML_SCHEMAS_SHORT) ||
; 4733 : 		(ytype == XML_SCHEMAS_USHORT) ||
; 4734 : 		(ytype == XML_SCHEMAS_BYTE) ||

	cmp	eax, 3
	je	SHORT $LN10@xmlSchemaC
	cmp	eax, 30					; 0000001eH
	je	SHORT $LN10@xmlSchemaC
	cmp	eax, 31					; 0000001fH
	je	SHORT $LN10@xmlSchemaC
	cmp	eax, 32					; 00000020H
	je	SHORT $LN10@xmlSchemaC
	cmp	eax, 33					; 00000021H
	je	SHORT $LN10@xmlSchemaC
	cmp	eax, 34					; 00000022H
	je	SHORT $LN10@xmlSchemaC
	cmp	eax, 35					; 00000023H
	je	SHORT $LN10@xmlSchemaC
	cmp	eax, 36					; 00000024H
	je	SHORT $LN10@xmlSchemaC
	cmp	eax, 37					; 00000025H
	je	SHORT $LN10@xmlSchemaC
	cmp	eax, 38					; 00000026H
	je	SHORT $LN10@xmlSchemaC
	cmp	eax, 39					; 00000027H
	je	SHORT $LN10@xmlSchemaC
	cmp	eax, 40					; 00000028H
	je	SHORT $LN10@xmlSchemaC
	cmp	eax, 41					; 00000029H
	je	SHORT $LN10@xmlSchemaC
	cmp	eax, 42					; 0000002aH
	jne	$LN2@xmlSchemaC
$LN10@xmlSchemaC:

; 4924 : }

	push	esi
	push	edx
	call	_xmlSchemaCompareDecimals
	add	esp, 8
	pop	edi
	pop	esi
	pop	ebx
	mov	esp, ebp
	pop	ebp
	ret	0
$LN11@xmlSchemaC:

; 4735 : 		(ytype == XML_SCHEMAS_UBYTE))
; 4736 : 		return(xmlSchemaCompareDecimals(x, y));
; 4737 : 	    return(-2);
; 4738 :         case XML_SCHEMAS_DURATION:
; 4739 : 	    if ((x == NULL) || (y == NULL))

	mov	esi, DWORD PTR _x$[ebp]
	test	esi, esi
	je	$LN2@xmlSchemaC
	mov	edx, DWORD PTR _y$[ebp]
	test	edx, edx
	je	$LN2@xmlSchemaC

; 4740 : 		return(-2);
; 4741 : 	    if (ytype == XML_SCHEMAS_DURATION)

	cmp	DWORD PTR _ytype$[ebp], 12		; 0000000cH
	jne	$LN2@xmlSchemaC

; 3589 :     sec = x->value.dur.sec - y->value.dur.sec;

	movsd	xmm2, QWORD PTR [esi+16]
	mov	ebx, 1
	subsd	xmm2, QWORD PTR [edx+16]
	mov	ecx, DWORD PTR [esi+8]

; 3592 : 
; 3593 :     /* days */
; 3594 :     day = x->value.dur.day - y->value.dur.day + carry;

	mov	esi, DWORD PTR [esi+12]
	sub	esi, DWORD PTR [edx+12]
	sub	ecx, DWORD PTR [edx+8]
	movaps	xmm0, xmm2
	divsd	xmm0, QWORD PTR __real@40f5180000000000
	cvttsd2si eax, xmm0
	add	esi, eax
	movd	xmm0, eax

; 3590 :     carry = (long)(sec / SECS_PER_DAY);
; 3591 :     sec -= ((double)carry) * SECS_PER_DAY;

	cvtdq2pd xmm0, xmm0
	mulsd	xmm0, QWORD PTR __real@40f5180000000000
	subsd	xmm2, xmm0

; 3595 : 
; 3596 :     /* easy test */
; 3597 :     if (mon == 0) {

	test	ecx, ecx
	jne	SHORT $LN366@xmlSchemaC

; 3598 :         if (day == 0)

	test	esi, esi
	jne	SHORT $LN93@xmlSchemaC
	xorps	xmm0, xmm0

; 3599 :             if (sec == 0.0)

	ucomisd	xmm2, xmm0
	lahf
	xor	ebx, ebx
	test	ah, 68					; 00000044H
	jnp	$LN111@xmlSchemaC

; 3600 :                 return 0;
; 3601 :             else if (sec < 0.0)

	comisd	xmm0, xmm2
	pop	edi

; 4924 : }

	pop	esi

; 3601 :             else if (sec < 0.0)

	setbe	bl
	lea	ebx, DWORD PTR [ebx*2-1]

; 4742 :                 return(xmlSchemaCompareDurations(x, y));

	mov	eax, ebx

; 4924 : }

	pop	ebx
	mov	esp, ebp
	pop	ebp
	ret	0
$LN93@xmlSchemaC:

; 3605 :         else if (day < 0)

	xor	ebx, ebx
	test	esi, esi
	pop	edi
	setns	bl

; 4924 : }

	pop	esi

; 3605 :         else if (day < 0)

	lea	ebx, DWORD PTR [ebx*2-1]

; 4742 :                 return(xmlSchemaCompareDurations(x, y));

	mov	eax, ebx

; 4924 : }

	pop	ebx
	mov	esp, ebp
	pop	ebp
	ret	0
$LN366@xmlSchemaC:

; 3611 :     if (mon > 0) {

	jle	SHORT $LN101@xmlSchemaC

; 3612 :         if ((day >= 0) && (sec >= 0.0))

	test	esi, esi
	js	SHORT $LN103@xmlSchemaC
	comisd	xmm2, QWORD PTR __real@0000000000000000
	jae	$LN111@xmlSchemaC
$LN103@xmlSchemaC:

; 3613 :             return 1;
; 3614 :         else {
; 3615 :             xmon = mon;
; 3616 :             xday = -day;

	neg	esi

; 3617 :         }
; 3618 :     } else if ((day <= 0) && (sec <= 0.0)) {

	jmp	SHORT $LN106@xmlSchemaC
$LN101@xmlSchemaC:
	test	esi, esi
	jg	SHORT $LN105@xmlSchemaC
	xorps	xmm0, xmm0
	comisd	xmm0, xmm2
	jb	SHORT $LN105@xmlSchemaC
	pop	edi

; 3619 :         return -1;

	or	ebx, -1

; 4924 : }

	pop	esi
	mov	eax, ebx
	pop	ebx
	mov	esp, ebp
	pop	ebp
	ret	0
$LN105@xmlSchemaC:

; 3621 : 	invert = -1;

	or	ebx, -1

; 3622 :         xmon = -mon;

	neg	ecx
$LN106@xmlSchemaC:

; 3623 :         xday = day;
; 3624 :     }
; 3625 : 
; 3626 :     myear = xmon / 12;

	mov	eax, 715827883				; 2aaaaaabH
	imul	ecx
	sar	edx, 1
	mov	edi, edx
	shr	edi, 31					; 0000001fH
	add	edi, edx

; 3627 :     if (myear == 0) {

	jne	SHORT $LN107@xmlSchemaC

; 3628 : 	minday = 0;

	xor	eax, eax

; 3629 : 	maxday = 0;

	xor	edx, edx

; 3630 :     } else {

	jmp	SHORT $LN367@xmlSchemaC
$LN107@xmlSchemaC:

; 3631 : 	maxday = 366 * ((myear + 3) / 4) +

	lea	eax, DWORD PTR [edi+3]
	cdq
	and	edx, 3
	add	eax, edx
	sar	eax, 2
	imul	edx, eax, 366
	lea	eax, DWORD PTR [edi-1]
	and	eax, -2147483645			; 80000003H
	jns	SHORT $LN365@xmlSchemaC
	dec	eax
	or	eax, -4					; fffffffcH
	inc	eax
$LN365@xmlSchemaC:
	imul	eax, eax, 365
	add	edx, eax

; 3632 : 	         365 * ((myear - 1) % 4);
; 3633 : 	minday = maxday - 1;

	lea	eax, DWORD PTR [edx-1]
$LN367@xmlSchemaC:

; 3634 :     }
; 3635 : 
; 3636 :     xmon = xmon % 12;

	mov	DWORD PTR _minday$1$[ebp], eax
	lea	eax, DWORD PTR [edi*4]
	sub	eax, edi

; 3637 :     minday += dayRange[0][xmon];

	mov	edi, DWORD PTR _minday$1$[ebp]
	neg	eax
	lea	eax, DWORD PTR [ecx+eax*4]
	add	edi, DWORD PTR ?dayRange@?1??xmlSchemaCompareDurations@@9@9[eax*4]

; 3638 :     maxday += dayRange[1][xmon];

	add	edx, DWORD PTR ?dayRange@?1??xmlSchemaCompareDurations@@9@9[eax*4+48]

; 3639 : 
; 3640 :     if ((maxday == minday) && (maxday == xday))

	cmp	edx, edi
	jne	SHORT $LN109@xmlSchemaC
	cmp	edx, esi
	jne	SHORT $LN368@xmlSchemaC
	pop	edi

; 3641 : 	return(0); /* can this really happen ? */

	xor	ebx, ebx

; 4924 : }

	pop	esi
	mov	eax, ebx
	pop	ebx
	mov	esp, ebp
	pop	ebp
	ret	0
$LN109@xmlSchemaC:

; 3642 :     if (maxday < xday)

	cmp	edx, esi
$LN368@xmlSchemaC:
	jge	SHORT $LN110@xmlSchemaC
	pop	edi

; 3643 :         return(-invert);

	neg	ebx

; 4924 : }

	pop	esi
	mov	eax, ebx
	pop	ebx
	mov	esp, ebp
	pop	ebp
	ret	0
$LN110@xmlSchemaC:

; 3644 :     if (minday > xday)

	cmp	edi, esi
	mov	ecx, 2
	cmovg	ecx, ebx
	mov	ebx, ecx
$LN111@xmlSchemaC:
	pop	edi

; 4924 : }

	pop	esi
	mov	eax, ebx
	pop	ebx
	mov	esp, ebp
	pop	ebp
	ret	0
$LN15@xmlSchemaC:

; 4743 :             return(-2);
; 4744 :         case XML_SCHEMAS_TIME:
; 4745 :         case XML_SCHEMAS_GDAY:
; 4746 :         case XML_SCHEMAS_GMONTH:
; 4747 :         case XML_SCHEMAS_GMONTHDAY:
; 4748 :         case XML_SCHEMAS_GYEAR:
; 4749 :         case XML_SCHEMAS_GYEARMONTH:
; 4750 :         case XML_SCHEMAS_DATE:
; 4751 :         case XML_SCHEMAS_DATETIME:
; 4752 : 	    if ((x == NULL) || (y == NULL))

	mov	ecx, DWORD PTR _x$[ebp]
	test	ecx, ecx
	je	$LN2@xmlSchemaC
	mov	edx, DWORD PTR _y$[ebp]
	test	edx, edx
	je	$LN2@xmlSchemaC

; 4753 : 		return(-2);
; 4754 :             if ((ytype == XML_SCHEMAS_DATETIME)  ||
; 4755 :                 (ytype == XML_SCHEMAS_TIME)      ||
; 4756 :                 (ytype == XML_SCHEMAS_GDAY)      ||
; 4757 :                 (ytype == XML_SCHEMAS_GMONTH)    ||
; 4758 :                 (ytype == XML_SCHEMAS_GMONTHDAY) ||
; 4759 :                 (ytype == XML_SCHEMAS_GYEAR)     ||
; 4760 :                 (ytype == XML_SCHEMAS_DATE)      ||

	mov	eax, DWORD PTR _ytype$[ebp]
	cmp	eax, 11					; 0000000bH
	je	SHORT $LN19@xmlSchemaC
	cmp	eax, 4
	je	SHORT $LN19@xmlSchemaC
	cmp	eax, 5
	je	SHORT $LN19@xmlSchemaC
	cmp	eax, 6
	je	SHORT $LN19@xmlSchemaC
	cmp	eax, 7
	je	SHORT $LN19@xmlSchemaC
	cmp	eax, 8
	je	SHORT $LN19@xmlSchemaC
	cmp	eax, 10					; 0000000aH
	je	SHORT $LN19@xmlSchemaC
	cmp	eax, 9
	jne	$LN2@xmlSchemaC
$LN19@xmlSchemaC:

; 4761 :                 (ytype == XML_SCHEMAS_GYEARMONTH))
; 4762 :                 return (xmlSchemaCompareDates(x, y));

	push	edx
	push	ecx
	call	_xmlSchemaCompareDates
	add	esp, 8
	pop	edi

; 4924 : }

	pop	esi
	pop	ebx
	mov	esp, ebp
	pop	ebp
	ret	0
$LN20@xmlSchemaC:

; 4763 :             return (-2);
; 4764 : 	/*
; 4765 : 	* Note that we will support comparison of string types against
; 4766 : 	* anySimpleType as well.
; 4767 : 	*/
; 4768 : 	case XML_SCHEMAS_ANYSIMPLETYPE:
; 4769 : 	case XML_SCHEMAS_STRING:
; 4770 :         case XML_SCHEMAS_NORMSTRING:
; 4771 :         case XML_SCHEMAS_TOKEN:
; 4772 :         case XML_SCHEMAS_LANGUAGE:
; 4773 :         case XML_SCHEMAS_NMTOKEN:
; 4774 :         case XML_SCHEMAS_NAME:
; 4775 :         case XML_SCHEMAS_NCNAME:
; 4776 :         case XML_SCHEMAS_ID:
; 4777 :         case XML_SCHEMAS_IDREF:
; 4778 :         case XML_SCHEMAS_ENTITY:
; 4779 :         case XML_SCHEMAS_ANYURI:
; 4780 : 	{
; 4781 : 	    const xmlChar *xv, *yv;
; 4782 : 
; 4783 : 	    if (x == NULL)

	mov	ecx, DWORD PTR _x$[ebp]
	test	ecx, ecx
	jne	SHORT $LN21@xmlSchemaC

; 4784 : 		xv = xvalue;

	mov	ecx, DWORD PTR _xvalue$[ebp]
	jmp	SHORT $LN22@xmlSchemaC
$LN21@xmlSchemaC:

; 4785 : 	    else
; 4786 : 		xv = x->value.str;

	mov	ecx, DWORD PTR [ecx+8]
$LN22@xmlSchemaC:

; 4787 : 	    if (y == NULL)

	mov	edx, DWORD PTR _y$[ebp]
	test	edx, edx
	jne	SHORT $LN23@xmlSchemaC

; 4788 : 		yv = yvalue;

	mov	edx, DWORD PTR _yvalue$[ebp]
	jmp	SHORT $LN24@xmlSchemaC
$LN23@xmlSchemaC:

; 4789 : 	    else
; 4790 : 		yv = y->value.str;

	mov	edx, DWORD PTR [edx+8]
$LN24@xmlSchemaC:

; 4791 : 	    /*
; 4792 : 	    * TODO: Compare those against QName.
; 4793 : 	    */
; 4794 : 	    if (ytype == XML_SCHEMAS_QNAME) {

	mov	eax, DWORD PTR _ytype$[ebp]
	cmp	eax, 21					; 00000015H
	jne	SHORT $LN25@xmlSchemaC

; 4795 : 		TODO

	call	___xmlGenericError
	mov	esi, eax
	call	___xmlGenericErrorContext
	push	4795					; 000012bbH

; 4277 : 	    if (! IS_WSP_SPACE_CH(*x)) {

	jmp	$LN369@xmlSchemaC
$LN25@xmlSchemaC:

; 4796 : 		if (y == NULL)
; 4797 : 		    return(-2);
; 4798 : 		return (-2);
; 4799 : 	    }
; 4800 :             if ((ytype == XML_SCHEMAS_ANYSIMPLETYPE) ||
; 4801 : 		(ytype == XML_SCHEMAS_STRING) ||
; 4802 : 		(ytype == XML_SCHEMAS_NORMSTRING) ||
; 4803 :                 (ytype == XML_SCHEMAS_TOKEN) ||
; 4804 :                 (ytype == XML_SCHEMAS_LANGUAGE) ||
; 4805 :                 (ytype == XML_SCHEMAS_NMTOKEN) ||
; 4806 :                 (ytype == XML_SCHEMAS_NAME) ||
; 4807 :                 (ytype == XML_SCHEMAS_NCNAME) ||
; 4808 :                 (ytype == XML_SCHEMAS_ID) ||
; 4809 :                 (ytype == XML_SCHEMAS_IDREF) ||
; 4810 :                 (ytype == XML_SCHEMAS_ENTITY) ||

	cmp	eax, 46					; 0000002eH
	je	SHORT $LN28@xmlSchemaC
	cmp	eax, 1
	je	SHORT $LN28@xmlSchemaC
	cmp	eax, 2
	je	SHORT $LN28@xmlSchemaC
	cmp	eax, 16					; 00000010H
	je	SHORT $LN28@xmlSchemaC
	cmp	eax, 17					; 00000011H
	je	SHORT $LN28@xmlSchemaC
	cmp	eax, 18					; 00000012H
	je	SHORT $LN28@xmlSchemaC
	cmp	eax, 20					; 00000014H
	je	SHORT $LN28@xmlSchemaC
	cmp	eax, 22					; 00000016H
	je	SHORT $LN28@xmlSchemaC
	cmp	eax, 23					; 00000017H
	je	SHORT $LN28@xmlSchemaC
	cmp	eax, 24					; 00000018H
	je	SHORT $LN28@xmlSchemaC
	cmp	eax, 26					; 0000001aH
	je	SHORT $LN28@xmlSchemaC
	cmp	eax, 29					; 0000001dH
	jne	$LN2@xmlSchemaC
$LN28@xmlSchemaC:

; 4811 :                 (ytype == XML_SCHEMAS_ANYURI)) {
; 4812 : 
; 4813 : 		if (xws == XML_SCHEMA_WHITESPACE_PRESERVE) {

	mov	eax, DWORD PTR _xws$[ebp]
	cmp	eax, 1
	jne	$LN29@xmlSchemaC

; 4814 : 
; 4815 : 		    if (yws == XML_SCHEMA_WHITESPACE_PRESERVE) {

	mov	eax, DWORD PTR _yws$[ebp]
	cmp	eax, 1
	jne	SHORT $LN31@xmlSchemaC

; 4816 : 			/* TODO: What about x < y or x > y. */
; 4817 : 			if (xmlStrEqual(xv, yv))

	push	edx
	push	ecx
	call	_xmlStrEqual
	add	esp, 8
	test	eax, eax
	je	$LN53@xmlSchemaC

; 4924 : }

	pop	edi
	pop	esi
	xor	eax, eax
	pop	ebx
	mov	esp, ebp
	pop	ebp
	ret	0
$LN31@xmlSchemaC:

; 4818 : 			    return (0);
; 4819 : 			else
; 4820 : 			    return (2);
; 4821 : 		    } else if (yws == XML_SCHEMA_WHITESPACE_REPLACE)

	cmp	eax, 2
	jne	SHORT $LN35@xmlSchemaC

; 4275 :     while ((*x != 0) && (*y != 0)) {

	cmp	BYTE PTR [ecx], 0
	je	SHORT $LN134@xmlSchemaC
	npad	4
$LL114@xmlSchemaC:
	mov	al, BYTE PTR [edx]
	test	al, al
	je	SHORT $LN115@xmlSchemaC

; 4276 : 	if (IS_WSP_REPLACE_CH(*y)) {

	cmp	al, 9
	je	SHORT $LN118@xmlSchemaC
	cmp	al, 10					; 0000000aH
	je	SHORT $LN118@xmlSchemaC
	cmp	al, 13					; 0000000dH
	je	SHORT $LN118@xmlSchemaC

; 4278 : 		if ((*x - 0x20) < 0) {
; 4279 : 		    if (invert)
; 4280 : 			return(1);
; 4281 : 		    else
; 4282 : 			return(-1);
; 4283 : 		} else {
; 4284 : 		    if (invert)
; 4285 : 			return(-1);
; 4286 : 		    else
; 4287 : 			return(1);
; 4288 : 		}
; 4289 : 	    }
; 4290 : 	} else {
; 4291 : 	    tmp = *x - *y;

	movzx	esi, BYTE PTR [ecx]
	movzx	eax, al
	sub	esi, eax

; 4292 : 	    if (tmp < 0) {

	js	$LN85@xmlSchemaC

; 4293 : 		if (invert)
; 4294 : 		    return(1);
; 4295 : 		else
; 4296 : 		    return(-1);
; 4297 : 	    }
; 4298 : 	    if (tmp > 0) {

	test	esi, esi
	jg	$LN349@xmlSchemaC
	jmp	SHORT $LN125@xmlSchemaC
$LN118@xmlSchemaC:

; 4277 : 	    if (! IS_WSP_SPACE_CH(*x)) {

	mov	al, BYTE PTR [ecx]
	cmp	al, 32					; 00000020H
	jne	$LN371@xmlSchemaC
$LN125@xmlSchemaC:

; 4299 : 		if (invert)
; 4300 : 		    return(-1);
; 4301 : 		else
; 4302 : 		    return(1);
; 4303 : 	    }
; 4304 : 	}
; 4305 : 	x++;

	inc	ecx

; 4306 : 	y++;

	inc	edx
	cmp	BYTE PTR [ecx], 0
	jne	SHORT $LL114@xmlSchemaC

; 4924 : }

	movzx	eax, BYTE PTR [edx]
	pop	edi
	neg	eax
	pop	esi
	sbb	eax, eax
	pop	ebx
	mov	esp, ebp
	pop	ebp
	ret	0
$LN115@xmlSchemaC:

; 4308 :     if (*x != 0) {

	cmp	BYTE PTR [ecx], 0
	jne	$LN349@xmlSchemaC
$LN134@xmlSchemaC:

; 4924 : }

	movzx	eax, BYTE PTR [edx]
	pop	edi
	neg	eax
	pop	esi
	sbb	eax, eax
	pop	ebx
	mov	esp, ebp
	pop	ebp
	ret	0
$LN35@xmlSchemaC:

; 4822 : 			return (xmlSchemaComparePreserveReplaceStrings(xv, yv, 0));
; 4823 : 		    else if (yws == XML_SCHEMA_WHITESPACE_COLLAPSE)

	cmp	eax, 3
	jne	$LN2@xmlSchemaC
	npad	7
$LL140@xmlSchemaC:

; 4346 :     while IS_WSP_BLANK_CH(*y)

	mov	al, BYTE PTR [edx]
	cmp	al, 32					; 00000020H
	je	SHORT $LN148@xmlSchemaC
	cmp	al, 9
	jb	SHORT $LN149@xmlSchemaC
	cmp	al, 10					; 0000000aH
	jbe	SHORT $LN148@xmlSchemaC
$LN149@xmlSchemaC:
	cmp	al, 13					; 0000000dH
	jne	SHORT $LN292@xmlSchemaC
$LN148@xmlSchemaC:

; 4347 : 	y++;

	inc	edx
	jmp	SHORT $LL140@xmlSchemaC
$LN292@xmlSchemaC:

; 4348 : 
; 4349 :     while ((*x != 0) && (*y != 0)) {

	cmp	BYTE PTR [ecx], 0
	je	SHORT $LN171@xmlSchemaC
	npad	6
$LL142@xmlSchemaC:
	mov	al, BYTE PTR [edx]
	test	al, al
	je	SHORT $LN143@xmlSchemaC

; 4350 : 	if IS_WSP_BLANK_CH(*y) {

	cmp	al, 32					; 00000020H
	je	SHORT $LN152@xmlSchemaC
	cmp	al, 9
	jb	SHORT $LN153@xmlSchemaC
	cmp	al, 10					; 0000000aH
	jbe	SHORT $LN152@xmlSchemaC
$LN153@xmlSchemaC:
	cmp	al, 13					; 0000000dH
	je	SHORT $LN152@xmlSchemaC

; 4373 : 		y++;
; 4374 : 	} else {
; 4375 : 	    tmp = *x++ - *y++;

	movzx	esi, BYTE PTR [ecx]
	inc	edx
	movzx	eax, al
	sub	esi, eax

; 4376 : 	    if (tmp < 0) {

	js	SHORT $LN85@xmlSchemaC

; 4377 : 		if (invert)
; 4378 : 		    return(1);
; 4379 : 		else
; 4380 : 		    return(-1);
; 4381 : 	    }
; 4382 : 	    if (tmp > 0) {

	test	esi, esi
	jg	$LN349@xmlSchemaC
	jmp	SHORT $LN363@xmlSchemaC
$LN152@xmlSchemaC:

; 4351 : 	    if (! IS_WSP_SPACE_CH(*x)) {

	mov	al, BYTE PTR [ecx]
	cmp	al, 32					; 00000020H
	jne	$LN371@xmlSchemaC
$LN161@xmlSchemaC:

; 4352 : 		/*
; 4353 : 		* The yv character would have been replaced to 0x20.
; 4354 : 		*/
; 4355 : 		if ((*x - 0x20) < 0) {
; 4356 : 		    if (invert)
; 4357 : 			return(1);
; 4358 : 		    else
; 4359 : 			return(-1);
; 4360 : 		} else {
; 4361 : 		    if (invert)
; 4362 : 			return(-1);
; 4363 : 		    else
; 4364 : 			return(1);
; 4365 : 		}
; 4366 : 	    }
; 4367 : 	    x++;
; 4368 : 	    y++;
; 4369 : 	    /*
; 4370 : 	    * Skip contiguous blank chars of the collapsed string.
; 4371 : 	    */
; 4372 : 	    while IS_WSP_BLANK_CH(*y)

	mov	al, BYTE PTR [edx+1]
	inc	edx
	cmp	al, 32					; 00000020H
	je	SHORT $LN161@xmlSchemaC
	cmp	al, 9
	jb	SHORT $LN162@xmlSchemaC
	cmp	al, 10					; 0000000aH
	jbe	SHORT $LN161@xmlSchemaC
$LN162@xmlSchemaC:
	cmp	al, 13					; 0000000dH
	je	SHORT $LN161@xmlSchemaC
$LN363@xmlSchemaC:

; 4348 : 
; 4349 :     while ((*x != 0) && (*y != 0)) {

	inc	ecx
	cmp	BYTE PTR [ecx], 0
	jne	SHORT $LL142@xmlSchemaC
$LN143@xmlSchemaC:

; 4383 : 		if (invert)
; 4384 : 		    return(-1);
; 4385 : 		else
; 4386 : 		    return(1);
; 4387 : 	    }
; 4388 : 	}
; 4389 :     }
; 4390 :     if (*x != 0) {

	cmp	BYTE PTR [ecx], 0
	jne	$LN349@xmlSchemaC
$LN171@xmlSchemaC:

; 4391 : 	 if (invert)
; 4392 : 	     return(-1);
; 4393 : 	 else
; 4394 : 	     return(1);
; 4395 :     }
; 4396 :     if (*y != 0) {

	mov	al, BYTE PTR [edx]
	test	al, al
	je	$LN177@xmlSchemaC
$LL146@xmlSchemaC:

; 4397 : 	/*
; 4398 : 	* Skip trailing blank chars of the collapsed string.
; 4399 : 	*/
; 4400 : 	while IS_WSP_BLANK_CH(*y)

	cmp	al, 32					; 00000020H
	je	SHORT $LN173@xmlSchemaC
	cmp	al, 9
	jb	SHORT $LN174@xmlSchemaC
	cmp	al, 10					; 0000000aH
	jbe	SHORT $LN173@xmlSchemaC
$LN174@xmlSchemaC:
	cmp	al, 13					; 0000000dH
	jne	SHORT $LN147@xmlSchemaC
$LN173@xmlSchemaC:

; 4401 : 	    y++;

	mov	al, BYTE PTR [edx+1]
	inc	edx
	jmp	SHORT $LL146@xmlSchemaC
$LN147@xmlSchemaC:

; 4402 : 	if (*y != 0) {

	test	al, al
	je	$LN177@xmlSchemaC
$LN85@xmlSchemaC:
	pop	edi

; 4924 : }

	pop	esi
	or	eax, -1
	pop	ebx
	mov	esp, ebp
	pop	ebp
	ret	0
$LN29@xmlSchemaC:

; 4824 : 			return (xmlSchemaComparePreserveCollapseStrings(xv, yv, 0));
; 4825 : 
; 4826 : 		} else if (xws == XML_SCHEMA_WHITESPACE_REPLACE) {

	cmp	eax, 2
	jne	$LN38@xmlSchemaC

; 4827 : 
; 4828 : 		    if (yws == XML_SCHEMA_WHITESPACE_PRESERVE)

	mov	eax, DWORD PTR _yws$[ebp]
	cmp	eax, 1
	jne	SHORT $LN40@xmlSchemaC

; 4275 :     while ((*x != 0) && (*y != 0)) {

	cmp	BYTE PTR [edx], 0
	je	SHORT $LN200@xmlSchemaC
$LL180@xmlSchemaC:
	mov	al, BYTE PTR [ecx]
	test	al, al
	je	SHORT $LN181@xmlSchemaC

; 4276 : 	if (IS_WSP_REPLACE_CH(*y)) {

	cmp	al, 9
	je	SHORT $LN184@xmlSchemaC
	cmp	al, 10					; 0000000aH
	je	SHORT $LN184@xmlSchemaC
	cmp	al, 13					; 0000000dH
	je	SHORT $LN184@xmlSchemaC

; 4278 : 		if ((*x - 0x20) < 0) {
; 4279 : 		    if (invert)
; 4280 : 			return(1);
; 4281 : 		    else
; 4282 : 			return(-1);
; 4283 : 		} else {
; 4284 : 		    if (invert)
; 4285 : 			return(-1);
; 4286 : 		    else
; 4287 : 			return(1);
; 4288 : 		}
; 4289 : 	    }
; 4290 : 	} else {
; 4291 : 	    tmp = *x - *y;

	movzx	esi, BYTE PTR [edx]
	movzx	eax, al
	sub	esi, eax

; 4292 : 	    if (tmp < 0) {

	js	$LN349@xmlSchemaC

; 4293 : 		if (invert)
; 4294 : 		    return(1);
; 4295 : 		else
; 4296 : 		    return(-1);
; 4297 : 	    }
; 4298 : 	    if (tmp > 0) {

	test	esi, esi
	jg	SHORT $LN85@xmlSchemaC
	jmp	SHORT $LN191@xmlSchemaC
$LN184@xmlSchemaC:

; 4277 : 	    if (! IS_WSP_SPACE_CH(*x)) {

	mov	al, BYTE PTR [edx]
	cmp	al, 32					; 00000020H
	jne	SHORT $LN375@xmlSchemaC
$LN191@xmlSchemaC:

; 4299 : 		if (invert)
; 4300 : 		    return(-1);
; 4301 : 		else
; 4302 : 		    return(1);
; 4303 : 	    }
; 4304 : 	}
; 4305 : 	x++;

	inc	edx

; 4306 : 	y++;

	inc	ecx
	cmp	BYTE PTR [edx], 0
	jne	SHORT $LL180@xmlSchemaC

; 4309 : 	if (invert)
; 4310 : 	    return(-1);
; 4311 : 	else
; 4312 : 	    return(1);
; 4313 :     }
; 4314 :     if (*y != 0) {

	xor	eax, eax
	cmp	BYTE PTR [ecx], al
	pop	edi

; 4924 : }

	pop	esi

; 4314 :     if (*y != 0) {

	setne	al

; 4924 : }

	pop	ebx
	mov	esp, ebp
	pop	ebp
	ret	0
$LN375@xmlSchemaC:
	sbb	eax, eax
	pop	edi
	and	eax, 2
	pop	esi
	dec	eax
	pop	ebx
	mov	esp, ebp
	pop	ebp
	ret	0
$LN181@xmlSchemaC:

; 4308 :     if (*x != 0) {

	cmp	BYTE PTR [edx], 0
	jne	SHORT $LN85@xmlSchemaC
$LN200@xmlSchemaC:

; 4309 : 	if (invert)
; 4310 : 	    return(-1);
; 4311 : 	else
; 4312 : 	    return(1);
; 4313 :     }
; 4314 :     if (*y != 0) {

	xor	eax, eax
	cmp	BYTE PTR [ecx], al
	pop	edi

; 4924 : }

	pop	esi

; 4314 :     if (*y != 0) {

	setne	al

; 4924 : }

	pop	ebx
	mov	esp, ebp
	pop	ebp
	ret	0
$LN40@xmlSchemaC:

; 4829 : 			return (xmlSchemaComparePreserveReplaceStrings(yv, xv, 1));
; 4830 : 		    if (yws == XML_SCHEMA_WHITESPACE_REPLACE)

	cmp	eax, 2
	jne	$LN41@xmlSchemaC

; 4526 :     while ((*x != 0) && (*y != 0)) {

	cmp	BYTE PTR [ecx], 0
	je	$LN134@xmlSchemaC
$LL206@xmlSchemaC:
	mov	al, BYTE PTR [edx]
	test	al, al
	je	$LN207@xmlSchemaC

; 4527 : 	if IS_WSP_BLANK_CH(*y) {

	cmp	al, 32					; 00000020H
	je	SHORT $LN210@xmlSchemaC
	cmp	al, 9
	jb	SHORT $LN211@xmlSchemaC
	cmp	al, 10					; 0000000aH
	jbe	SHORT $LN210@xmlSchemaC
$LN211@xmlSchemaC:
	cmp	al, 13					; 0000000dH
	je	SHORT $LN210@xmlSchemaC

; 4530 : 		    return(-1);
; 4531 : 		else
; 4532 : 		    return(1);
; 4533 : 	    }
; 4534 : 	} else {
; 4535 : 	    if IS_WSP_BLANK_CH(*x) {

	mov	bl, BYTE PTR [ecx]
	cmp	bl, 32					; 00000020H
	je	SHORT $LN217@xmlSchemaC
	cmp	bl, 9
	jb	SHORT $LN218@xmlSchemaC
	cmp	bl, 10					; 0000000aH
	jbe	SHORT $LN217@xmlSchemaC
$LN218@xmlSchemaC:
	cmp	bl, 13					; 0000000dH
	je	SHORT $LN217@xmlSchemaC

; 4537 : 		    return(-1);
; 4538 : 		else
; 4539 : 		    return(1);
; 4540 : 	    }
; 4541 : 	    tmp = *x - *y;

	movzx	eax, al
	movzx	esi, bl
	sub	esi, eax

; 4542 : 	    if (tmp < 0)

	js	$LN85@xmlSchemaC

; 4543 : 		return(-1);
; 4544 : 	    if (tmp > 0)

	test	esi, esi
	jg	SHORT $LN349@xmlSchemaC
	jmp	SHORT $LN215@xmlSchemaC
$LN210@xmlSchemaC:

; 4528 : 	    if (! IS_WSP_BLANK_CH(*x)) {

	mov	al, BYTE PTR [ecx]
	cmp	al, 32					; 00000020H
	je	SHORT $LN215@xmlSchemaC
	cmp	al, 9
	jb	SHORT $LN213@xmlSchemaC
	cmp	al, 10					; 0000000aH
	jbe	SHORT $LN215@xmlSchemaC
$LN213@xmlSchemaC:
	cmp	al, 13					; 0000000dH
	jne	SHORT $LN315@xmlSchemaC
$LN215@xmlSchemaC:

; 4545 : 		return(1);
; 4546 : 	}
; 4547 : 	x++;

	inc	ecx

; 4548 : 	y++;

	inc	edx
	cmp	BYTE PTR [ecx], 0
	jne	SHORT $LL206@xmlSchemaC

; 4924 : }

	movzx	eax, BYTE PTR [edx]
	pop	edi
	neg	eax
	pop	esi
	sbb	eax, eax
	pop	ebx
	mov	esp, ebp
	pop	ebp
	ret	0
$LN217@xmlSchemaC:

; 4536 : 		if ((0x20 - *y) < 0)

	movzx	eax, al
	mov	ecx, 32					; 00000020H
	sub	ecx, eax
	mov	eax, 0
	pop	edi
	setns	al

; 4924 : }

	pop	esi
	pop	ebx

; 4536 : 		if ((0x20 - *y) < 0)

	lea	eax, DWORD PTR [eax*2-1]

; 4924 : }

	mov	esp, ebp
	pop	ebp
	ret	0
$LN315@xmlSchemaC:

; 4529 : 		if ((*x - 0x20) < 0)

	cmp	al, 32					; 00000020H
$LN371@xmlSchemaC:

; 4924 : }

	sbb	eax, eax
	pop	edi
	and	eax, -2					; fffffffeH
	pop	esi
	inc	eax
	pop	ebx
	mov	esp, ebp
	pop	ebp
	ret	0
$LN207@xmlSchemaC:

; 4550 :     if (*x != 0)

	cmp	BYTE PTR [ecx], 0
	je	$LN134@xmlSchemaC
$LN349@xmlSchemaC:
	pop	edi

; 4924 : }

	pop	esi
	mov	eax, 1
	pop	ebx
	mov	esp, ebp
	pop	ebp
	ret	0
$LN41@xmlSchemaC:

; 4831 : 			return (xmlSchemaCompareReplacedStrings(xv, yv));
; 4832 : 		    if (yws == XML_SCHEMA_WHITESPACE_COLLAPSE)

	cmp	eax, 3
	jne	$LN2@xmlSchemaC

; 4833 : 			return (xmlSchemaCompareReplaceCollapseStrings(xv, yv, 0));

	push	0
	push	edx
	push	ecx
	call	_xmlSchemaCompareReplaceCollapseStrings
	add	esp, 12					; 0000000cH
	pop	edi

; 4924 : }

	pop	esi
	pop	ebx
	mov	esp, ebp
	pop	ebp
	ret	0
$LN38@xmlSchemaC:

; 4834 : 
; 4835 : 		} else if (xws == XML_SCHEMA_WHITESPACE_COLLAPSE) {

	cmp	eax, 3
	jne	$LN2@xmlSchemaC

; 4836 : 
; 4837 : 		    if (yws == XML_SCHEMA_WHITESPACE_PRESERVE)

	mov	eax, DWORD PTR _yws$[ebp]
	cmp	eax, 1
	jne	$LN45@xmlSchemaC
$LL227@xmlSchemaC:

; 4346 :     while IS_WSP_BLANK_CH(*y)

	mov	al, BYTE PTR [ecx]
	cmp	al, 32					; 00000020H
	je	SHORT $LN235@xmlSchemaC
	cmp	al, 9
	jb	SHORT $LN236@xmlSchemaC
	cmp	al, 10					; 0000000aH
	jbe	SHORT $LN235@xmlSchemaC
$LN236@xmlSchemaC:
	cmp	al, 13					; 0000000dH
	jne	SHORT $LN298@xmlSchemaC
$LN235@xmlSchemaC:

; 4347 : 	y++;

	inc	ecx
	jmp	SHORT $LL227@xmlSchemaC
$LN298@xmlSchemaC:

; 4348 : 
; 4349 :     while ((*x != 0) && (*y != 0)) {

	cmp	BYTE PTR [edx], 0
	je	SHORT $LN258@xmlSchemaC
	npad	3
$LL229@xmlSchemaC:
	mov	al, BYTE PTR [ecx]
	test	al, al
	je	SHORT $LN230@xmlSchemaC

; 4350 : 	if IS_WSP_BLANK_CH(*y) {

	cmp	al, 32					; 00000020H
	je	SHORT $LN239@xmlSchemaC
	cmp	al, 9
	jb	SHORT $LN240@xmlSchemaC
	cmp	al, 10					; 0000000aH
	jbe	SHORT $LN239@xmlSchemaC
$LN240@xmlSchemaC:
	cmp	al, 13					; 0000000dH
	je	SHORT $LN239@xmlSchemaC

; 4373 : 		y++;
; 4374 : 	} else {
; 4375 : 	    tmp = *x++ - *y++;

	movzx	esi, BYTE PTR [edx]
	inc	ecx
	movzx	eax, al
	sub	esi, eax

; 4376 : 	    if (tmp < 0) {

	js	SHORT $LN349@xmlSchemaC

; 4377 : 		if (invert)
; 4378 : 		    return(1);
; 4379 : 		else
; 4380 : 		    return(-1);
; 4381 : 	    }
; 4382 : 	    if (tmp > 0) {

	test	esi, esi
	jg	$LN85@xmlSchemaC
	jmp	SHORT $LN364@xmlSchemaC
$LN239@xmlSchemaC:

; 4351 : 	    if (! IS_WSP_SPACE_CH(*x)) {

	mov	al, BYTE PTR [edx]
	cmp	al, 32					; 00000020H
	jne	$LN375@xmlSchemaC
$LN248@xmlSchemaC:

; 4352 : 		/*
; 4353 : 		* The yv character would have been replaced to 0x20.
; 4354 : 		*/
; 4355 : 		if ((*x - 0x20) < 0) {
; 4356 : 		    if (invert)
; 4357 : 			return(1);
; 4358 : 		    else
; 4359 : 			return(-1);
; 4360 : 		} else {
; 4361 : 		    if (invert)
; 4362 : 			return(-1);
; 4363 : 		    else
; 4364 : 			return(1);
; 4365 : 		}
; 4366 : 	    }
; 4367 : 	    x++;
; 4368 : 	    y++;
; 4369 : 	    /*
; 4370 : 	    * Skip contiguous blank chars of the collapsed string.
; 4371 : 	    */
; 4372 : 	    while IS_WSP_BLANK_CH(*y)

	mov	al, BYTE PTR [ecx+1]
	inc	ecx
	cmp	al, 32					; 00000020H
	je	SHORT $LN248@xmlSchemaC
	cmp	al, 9
	jb	SHORT $LN249@xmlSchemaC
	cmp	al, 10					; 0000000aH
	jbe	SHORT $LN248@xmlSchemaC
$LN249@xmlSchemaC:
	cmp	al, 13					; 0000000dH
	je	SHORT $LN248@xmlSchemaC
$LN364@xmlSchemaC:

; 4348 : 
; 4349 :     while ((*x != 0) && (*y != 0)) {

	inc	edx
	cmp	BYTE PTR [edx], 0
	jne	SHORT $LL229@xmlSchemaC
$LN230@xmlSchemaC:

; 4383 : 		if (invert)
; 4384 : 		    return(-1);
; 4385 : 		else
; 4386 : 		    return(1);
; 4387 : 	    }
; 4388 : 	}
; 4389 :     }
; 4390 :     if (*x != 0) {

	cmp	BYTE PTR [edx], 0
	jne	$LN85@xmlSchemaC
$LN258@xmlSchemaC:

; 4391 : 	 if (invert)
; 4392 : 	     return(-1);
; 4393 : 	 else
; 4394 : 	     return(1);
; 4395 :     }
; 4396 :     if (*y != 0) {

	mov	al, BYTE PTR [ecx]
	test	al, al
	je	$LN177@xmlSchemaC
$LL233@xmlSchemaC:

; 4397 : 	/*
; 4398 : 	* Skip trailing blank chars of the collapsed string.
; 4399 : 	*/
; 4400 : 	while IS_WSP_BLANK_CH(*y)

	cmp	al, 32					; 00000020H
	je	SHORT $LN260@xmlSchemaC
	cmp	al, 9
	jb	SHORT $LN261@xmlSchemaC
	cmp	al, 10					; 0000000aH
	jbe	SHORT $LN260@xmlSchemaC
$LN261@xmlSchemaC:
	cmp	al, 13					; 0000000dH
	jne	SHORT $LN234@xmlSchemaC
$LN260@xmlSchemaC:

; 4401 : 	    y++;

	mov	al, BYTE PTR [ecx+1]
	inc	ecx
	jmp	SHORT $LL233@xmlSchemaC
$LN234@xmlSchemaC:

; 4402 : 	if (*y != 0) {

	test	al, al
	je	$LN177@xmlSchemaC

; 4924 : }

	pop	edi
	pop	esi

; 4404 : 		return(1);

	mov	eax, 1

; 4924 : }

	pop	ebx
	mov	esp, ebp
	pop	ebp
	ret	0
$LN45@xmlSchemaC:

; 4838 : 			return (xmlSchemaComparePreserveCollapseStrings(yv, xv, 1));
; 4839 : 		    if (yws == XML_SCHEMA_WHITESPACE_REPLACE)

	cmp	eax, 2
	jne	SHORT $LN46@xmlSchemaC

; 4840 : 			return (xmlSchemaCompareReplaceCollapseStrings(yv, xv, 1));

	push	1
	push	ecx
	push	edx
	call	_xmlSchemaCompareReplaceCollapseStrings
	add	esp, 12					; 0000000cH
	pop	edi

; 4924 : }

	pop	esi
	pop	ebx
	mov	esp, ebp
	pop	ebp
	ret	0
$LN46@xmlSchemaC:

; 4841 : 		    if (yws == XML_SCHEMA_WHITESPACE_COLLAPSE)

	cmp	eax, 3
	jne	$LN2@xmlSchemaC

; 4842 : 			return (xmlSchemaCompareNormStrings(xv, yv));

	push	edx
	push	ecx
	call	_xmlSchemaCompareNormStrings
	add	esp, 8
	pop	edi

; 4924 : }

	pop	esi
	pop	ebx
	mov	esp, ebp
	pop	ebp
	ret	0
$LN48@xmlSchemaC:

; 4843 : 		} else
; 4844 : 		    return (-2);
; 4845 : 
; 4846 : 	    }
; 4847 :             return (-2);
; 4848 : 	}
; 4849 :         case XML_SCHEMAS_QNAME:
; 4850 : 	case XML_SCHEMAS_NOTATION:
; 4851 : 	    if ((x == NULL) || (y == NULL))

	mov	esi, DWORD PTR _x$[ebp]
	test	esi, esi
	je	$LN2@xmlSchemaC
	mov	edi, DWORD PTR _y$[ebp]
	test	edi, edi
	je	$LN2@xmlSchemaC

; 4852 : 		return(-2);
; 4853 :             if ((ytype == XML_SCHEMAS_QNAME) ||

	mov	eax, DWORD PTR _ytype$[ebp]
	cmp	eax, 21					; 00000015H
	je	SHORT $LN52@xmlSchemaC
	cmp	eax, 28					; 0000001cH
	jne	$LN2@xmlSchemaC
$LN52@xmlSchemaC:

; 4854 : 		(ytype == XML_SCHEMAS_NOTATION)) {
; 4855 : 		if ((xmlStrEqual(x->value.qname.name, y->value.qname.name)) &&

	push	DWORD PTR [edi+8]
	push	DWORD PTR [esi+8]
	call	_xmlStrEqual
	add	esp, 8
	test	eax, eax
	je	SHORT $LN53@xmlSchemaC
	push	DWORD PTR [edi+12]
	push	DWORD PTR [esi+12]
	call	_xmlStrEqual
	add	esp, 8
	test	eax, eax
	jne	$LN177@xmlSchemaC
$LN53@xmlSchemaC:
	pop	edi

; 4924 : }

	pop	esi
	mov	eax, 2
	pop	ebx
	mov	esp, ebp
	pop	ebp
	ret	0
$LN54@xmlSchemaC:

; 4856 : 		    (xmlStrEqual(x->value.qname.uri, y->value.qname.uri)))
; 4857 : 		    return(0);
; 4858 : 		return(2);
; 4859 : 	    }
; 4860 : 	    return (-2);
; 4861 :         case XML_SCHEMAS_FLOAT:
; 4862 :         case XML_SCHEMAS_DOUBLE:
; 4863 : 	    if ((x == NULL) || (y == NULL))

	mov	eax, DWORD PTR _x$[ebp]
	test	eax, eax
	je	$LN2@xmlSchemaC
	mov	ecx, DWORD PTR _y$[ebp]
	test	ecx, ecx
	je	$LN2@xmlSchemaC

; 4864 : 		return(-2);
; 4865 :             if ((ytype == XML_SCHEMAS_FLOAT) ||

	mov	edx, DWORD PTR _ytype$[ebp]
	cmp	edx, 13					; 0000000dH
	je	SHORT $LN58@xmlSchemaC
	cmp	edx, 14					; 0000000eH
	jne	$LN2@xmlSchemaC
$LN58@xmlSchemaC:

; 4623 :     if (x->type == XML_SCHEMAS_DOUBLE)

	mov	edx, DWORD PTR [eax]
	cmp	edx, 14					; 0000000eH
	jne	SHORT $LN269@xmlSchemaC

; 4624 : 	d1 = x->value.d;

	movsd	xmm1, QWORD PTR [eax+8]
	jmp	SHORT $LN379@xmlSchemaC
$LN269@xmlSchemaC:

; 4625 :     else if (x->type == XML_SCHEMAS_FLOAT)

	cmp	edx, 13					; 0000000dH
	jne	$LN2@xmlSchemaC
	movss	xmm1, DWORD PTR [eax+8]

; 4626 : 	d1 = x->value.f;

	cvtps2pd xmm1, xmm1
$LN379@xmlSchemaC:

; 4627 :     else
; 4628 : 	return(-2);
; 4629 : 
; 4630 :     if (y->type == XML_SCHEMAS_DOUBLE)

	mov	eax, DWORD PTR [ecx]
	movsd	QWORD PTR _d1$1$[ebp], xmm1
	cmp	eax, 14					; 0000000eH
	jne	SHORT $LN273@xmlSchemaC

; 4631 : 	d2 = y->value.d;

	movsd	xmm0, QWORD PTR [ecx+8]
	jmp	SHORT $LN380@xmlSchemaC
$LN273@xmlSchemaC:

; 4632 :     else if (y->type == XML_SCHEMAS_FLOAT)

	cmp	eax, 13					; 0000000dH
	jne	$LN2@xmlSchemaC
	movss	xmm0, DWORD PTR [ecx+8]

; 4633 : 	d2 = y->value.f;

	cvtps2pd xmm0, xmm0
$LN380@xmlSchemaC:

; 4634 :     else
; 4635 : 	return(-2);
; 4636 : 
; 4637 :     /*
; 4638 :      * Check for special cases.
; 4639 :      */
; 4640 :     if (xmlXPathIsNaN(d1)) {

	sub	esp, 8
	movsd	QWORD PTR _d2$1$[ebp], xmm0
	movsd	QWORD PTR [esp], xmm1
	call	_xmlXPathIsNaN
	movsd	xmm0, QWORD PTR _d2$1$[ebp]
	mov	esi, eax
	movsd	QWORD PTR [esp], xmm0
	call	_xmlXPathIsNaN
	add	esp, 8
	mov	ecx, eax
	test	esi, esi
	je	SHORT $LN277@xmlSchemaC

; 4641 : 	if (xmlXPathIsNaN(d2))

	xor	eax, eax
	test	ecx, ecx
	pop	edi

; 4924 : }

	pop	esi

; 4641 : 	if (xmlXPathIsNaN(d2))

	sete	al

; 4924 : }

	pop	ebx
	mov	esp, ebp
	pop	ebp
	ret	0
$LN277@xmlSchemaC:

; 4645 :     if (xmlXPathIsNaN(d2))

	test	ecx, ecx
	jne	$LN85@xmlSchemaC

; 4646 : 	return(-1);
; 4647 :     if (d1 == xmlXPathPINF) {

	movsd	xmm2, QWORD PTR _xmlXPathPINF
	movsd	xmm1, QWORD PTR _d1$1$[ebp]
	movsd	xmm0, QWORD PTR _d2$1$[ebp]
	ucomisd	xmm1, xmm2
	lahf
	test	ah, 68					; 00000044H
	jp	SHORT $LN280@xmlSchemaC

; 4648 : 	if (d2 == xmlXPathPINF)

	ucomisd	xmm0, xmm2
	lahf
	test	ah, 68					; 00000044H
	jp	$LN349@xmlSchemaC

; 4924 : }

	pop	edi
	pop	esi
	xor	eax, eax
	pop	ebx
	mov	esp, ebp
	pop	ebp
	ret	0
$LN280@xmlSchemaC:

; 4652 :     if (d2 == xmlXPathPINF)

	ucomisd	xmm0, xmm2
	lahf
	test	ah, 68					; 00000044H
	jp	SHORT $LN282@xmlSchemaC

; 4924 : }

	pop	edi
	pop	esi

; 4653 :         return(-1);

	mov	eax, -1

; 4924 : }

	pop	ebx
	mov	esp, ebp
	pop	ebp
	ret	0
$LN282@xmlSchemaC:

; 4654 :     if (d1 == xmlXPathNINF) {

	movsd	xmm2, QWORD PTR _xmlXPathNINF
	ucomisd	xmm1, xmm2
	lahf
	test	ah, 68					; 00000044H
	jp	SHORT $LN283@xmlSchemaC

; 4655 : 	if (d2 == xmlXPathNINF)

	ucomisd	xmm0, xmm2
	lahf
	test	ah, 68					; 00000044H
	jp	$LN85@xmlSchemaC

; 4924 : }

	pop	edi
	pop	esi
	xor	eax, eax
	pop	ebx
	mov	esp, ebp
	pop	ebp
	ret	0
$LN283@xmlSchemaC:

; 4659 :     if (d2 == xmlXPathNINF)

	ucomisd	xmm0, xmm2
	lahf
	test	ah, 68					; 00000044H
	jnp	$LN349@xmlSchemaC

; 4660 :         return(1);
; 4661 : 
; 4662 :     /*
; 4663 :      * basic tests, the last one we should have equality, but
; 4664 :      * portability is more important than speed and handling
; 4665 :      * NaN or Inf in a portable way is always a challenge, so ...
; 4666 :      */
; 4667 :     if (d1 < d2)

	comisd	xmm0, xmm1
	ja	$LN85@xmlSchemaC

; 4668 : 	return(-1);
; 4669 :     if (d1 > d2)

	comisd	xmm1, xmm0
	ja	$LN349@xmlSchemaC

; 4670 : 	return(1);
; 4671 :     if (d1 == d2)

	ucomisd	xmm1, xmm0
	lahf
	test	ah, 68					; 00000044H
	jp	$LN53@xmlSchemaC

; 4924 : }

	pop	edi
	pop	esi

; 4672 : 	return(0);

	xor	eax, eax

; 4924 : }

	pop	ebx
	mov	esp, ebp
	pop	ebp
	ret	0
$LN59@xmlSchemaC:

; 4866 :                 (ytype == XML_SCHEMAS_DOUBLE))
; 4867 :                 return (xmlSchemaCompareFloats(x, y));
; 4868 :             return (-2);
; 4869 :         case XML_SCHEMAS_BOOLEAN:
; 4870 : 	    if ((x == NULL) || (y == NULL))

	mov	eax, DWORD PTR _x$[ebp]
	test	eax, eax
	je	$LN2@xmlSchemaC
	mov	ecx, DWORD PTR _y$[ebp]
	test	ecx, ecx
	je	$LN2@xmlSchemaC

; 4871 : 		return(-2);
; 4872 :             if (ytype == XML_SCHEMAS_BOOLEAN) {

	cmp	DWORD PTR _ytype$[ebp], 15		; 0000000fH
	jne	$LN2@xmlSchemaC

; 4873 : 		if (x->value.b == y->value.b)

	mov	eax, DWORD PTR [eax+8]
	cmp	eax, DWORD PTR [ecx+8]
	je	SHORT $LN177@xmlSchemaC

; 4874 : 		    return(0);
; 4875 : 		if (x->value.b == 0)

	test	eax, eax
	jne	$LN349@xmlSchemaC

; 4924 : }

	pop	edi
	pop	esi
	or	eax, -1
	pop	ebx
	mov	esp, ebp
	pop	ebp
	ret	0
$LN65@xmlSchemaC:

; 4876 : 		    return(-1);
; 4877 : 		return(1);
; 4878 : 	    }
; 4879 : 	    return (-2);
; 4880 :         case XML_SCHEMAS_HEXBINARY:
; 4881 : 	    if ((x == NULL) || (y == NULL))

	mov	eax, DWORD PTR _x$[ebp]
	test	eax, eax
	je	$LN2@xmlSchemaC
	mov	ecx, DWORD PTR _y$[ebp]
	test	ecx, ecx
	je	SHORT $LN2@xmlSchemaC

; 4882 : 		return(-2);
; 4883 :             if (ytype == XML_SCHEMAS_HEXBINARY) {

	cmp	DWORD PTR _ytype$[ebp], 43		; 0000002bH

; 4277 : 	    if (! IS_WSP_SPACE_CH(*x)) {

	jmp	SHORT $LN384@xmlSchemaC
$LN75@xmlSchemaC:

; 4884 : 	        if (x->value.hex.total == y->value.hex.total) {
; 4885 : 		    int ret = xmlStrcmp(x->value.hex.str, y->value.hex.str);
; 4886 : 		    if (ret > 0)
; 4887 : 			return(1);
; 4888 : 		    else if (ret == 0)
; 4889 : 			return(0);
; 4890 : 		}
; 4891 : 		else if (x->value.hex.total > y->value.hex.total)
; 4892 : 		    return(1);
; 4893 : 
; 4894 : 		return(-1);
; 4895 :             }
; 4896 :             return (-2);
; 4897 :         case XML_SCHEMAS_BASE64BINARY:
; 4898 : 	    if ((x == NULL) || (y == NULL))

	mov	eax, DWORD PTR _x$[ebp]
	test	eax, eax
	je	SHORT $LN2@xmlSchemaC
	mov	ecx, DWORD PTR _y$[ebp]
	test	ecx, ecx
	je	SHORT $LN2@xmlSchemaC

; 4899 : 		return(-2);
; 4900 :             if (ytype == XML_SCHEMAS_BASE64BINARY) {

	cmp	DWORD PTR _ytype$[ebp], 44		; 0000002cH
$LN384@xmlSchemaC:

; 4901 :                 if (x->value.base64.total == y->value.base64.total) {
; 4902 :                     int ret = xmlStrcmp(x->value.base64.str,
; 4903 : 		                        y->value.base64.str);
; 4904 :                     if (ret > 0)
; 4905 :                         return(1);
; 4906 :                     else if (ret == 0)
; 4907 :                         return(0);

	jne	SHORT $LN2@xmlSchemaC
	mov	edx, DWORD PTR [eax+12]
	cmp	edx, DWORD PTR [ecx+12]
	jne	SHORT $LN79@xmlSchemaC
	push	DWORD PTR [ecx+8]
	push	DWORD PTR [eax+8]
	call	_xmlStrcmp
	add	esp, 8
	test	eax, eax
	jg	$LN349@xmlSchemaC
	jne	$LN85@xmlSchemaC
$LN177@xmlSchemaC:
	pop	edi

; 4924 : }

	pop	esi
	xor	eax, eax
	pop	ebx
	mov	esp, ebp
	pop	ebp
	ret	0
$LN79@xmlSchemaC:

; 4908 : 		    else
; 4909 : 		        return(-1);
; 4910 :                 }
; 4911 :                 else if (x->value.base64.total > y->value.base64.total)
; 4912 :                     return(1);

	jbe	$LN85@xmlSchemaC

; 4924 : }

	pop	edi
	pop	esi
	mov	eax, 1
	pop	ebx
	mov	esp, ebp
	pop	ebp
	ret	0
$LN87@xmlSchemaC:

; 4913 :                 else
; 4914 :                     return(-1);
; 4915 :             }
; 4916 :             return (-2);
; 4917 :         case XML_SCHEMAS_IDREFS:
; 4918 :         case XML_SCHEMAS_ENTITIES:
; 4919 :         case XML_SCHEMAS_NMTOKENS:
; 4920 : 	    TODO

	call	___xmlGenericError
	mov	esi, eax
	call	___xmlGenericErrorContext
	push	4920					; 00001338H
$LN369@xmlSchemaC:

; 4921 : 	    break;
; 4922 :     }
; 4923 :     return -2;

	push	OFFSET ??_C@_0HB@FHPILMCP@c?3?2users?2dag?2documents?2_clients@
	push	OFFSET ??_C@_0BO@MDEMDPPE@Unimplemented?5block?5at?5?$CFs?3?$CFd?6@
	push	DWORD PTR [eax]
	mov	eax, DWORD PTR [esi]
	call	eax
	add	esp, 16					; 00000010H
$LN2@xmlSchemaC:

; 4924 : }

	pop	edi
	pop	esi
	mov	eax, -2					; fffffffeH
	pop	ebx
	mov	esp, ebp
	pop	ebp
	ret	0
	npad	3
$LN386@xmlSchemaC:
	DD	$LN2@xmlSchemaC
	DD	$LN20@xmlSchemaC
	DD	$LN5@xmlSchemaC
	DD	$LN15@xmlSchemaC
	DD	$LN11@xmlSchemaC
	DD	$LN54@xmlSchemaC
	DD	$LN59@xmlSchemaC
	DD	$LN87@xmlSchemaC
	DD	$LN48@xmlSchemaC
	DD	$LN65@xmlSchemaC
	DD	$LN75@xmlSchemaC
$LN358@xmlSchemaC:
	DB	0
	DB	1
	DB	1
	DB	2
	DB	3
	DB	3
	DB	3
	DB	3
	DB	3
	DB	3
	DB	3
	DB	3
	DB	4
	DB	5
	DB	5
	DB	6
	DB	1
	DB	1
	DB	1
	DB	7
	DB	1
	DB	8
	DB	1
	DB	1
	DB	1
	DB	7
	DB	1
	DB	7
	DB	8
	DB	1
	DB	2
	DB	2
	DB	2
	DB	2
	DB	2
	DB	2
	DB	2
	DB	2
	DB	2
	DB	2
	DB	2
	DB	2
	DB	2
	DB	9
	DB	10					; 0000000aH
	DB	0
	DB	1
_xmlSchemaCompareValuesInternal ENDP
_TEXT	ENDS
; Function compile flags: /Ogtp
; File c:\users\dag\documents\_clients\codeproject authors group\windows on arm\libxml2\libxml2-2.9.9\xmlschemastypes.c
;	COMDAT _xmlSchemaCompareFloats
_TEXT	SEGMENT
_d1$1$ = -16						; size = 8
_d2$1$ = -8						; size = 8
_x$ = 8							; size = 4
_y$ = 12						; size = 4
_xmlSchemaCompareFloats PROC				; COMDAT

; 4614 : xmlSchemaCompareFloats(xmlSchemaValPtr x, xmlSchemaValPtr y) {

	push	ebp
	mov	ebp, esp
	sub	esp, 16					; 00000010H
	mov	ecx, OFFSET __74485836_xmlschemastypes@c
	call	@__CheckForDebuggerJustMyCode@4
	mov	eax, DWORD PTR _x$[ebp]
	test	eax, eax
	je	$LN3@xmlSchemaC

; 4615 :     double d1, d2;
; 4616 : 
; 4617 :     if ((x == NULL) || (y == NULL))

	mov	ecx, DWORD PTR _y$[ebp]
	test	ecx, ecx
	je	$LN3@xmlSchemaC

; 4619 : 
; 4620 :     /*
; 4621 :      * Cast everything to doubles.
; 4622 :      */
; 4623 :     if (x->type == XML_SCHEMAS_DOUBLE)

	mov	edx, DWORD PTR [eax]
	cmp	edx, 14					; 0000000eH
	jne	SHORT $LN4@xmlSchemaC

; 4624 : 	d1 = x->value.d;

	movsd	xmm1, QWORD PTR [eax+8]
	jmp	SHORT $LN28@xmlSchemaC
$LN4@xmlSchemaC:

; 4625 :     else if (x->type == XML_SCHEMAS_FLOAT)

	cmp	edx, 13					; 0000000dH
	jne	$LN3@xmlSchemaC

; 4626 : 	d1 = x->value.f;

	movss	xmm1, DWORD PTR [eax+8]
	cvtps2pd xmm1, xmm1
$LN28@xmlSchemaC:

; 4627 :     else
; 4628 : 	return(-2);
; 4629 : 
; 4630 :     if (y->type == XML_SCHEMAS_DOUBLE)

	mov	eax, DWORD PTR [ecx]
	movsd	QWORD PTR _d1$1$[ebp], xmm1
	cmp	eax, 14					; 0000000eH
	jne	SHORT $LN8@xmlSchemaC

; 4631 : 	d2 = y->value.d;

	movsd	xmm0, QWORD PTR [ecx+8]
	jmp	SHORT $LN29@xmlSchemaC
$LN8@xmlSchemaC:

; 4632 :     else if (y->type == XML_SCHEMAS_FLOAT)

	cmp	eax, 13					; 0000000dH
	jne	$LN3@xmlSchemaC

; 4633 : 	d2 = y->value.f;

	movss	xmm0, DWORD PTR [ecx+8]
	cvtps2pd xmm0, xmm0
$LN29@xmlSchemaC:

; 4634 :     else
; 4635 : 	return(-2);
; 4636 : 
; 4637 :     /*
; 4638 :      * Check for special cases.
; 4639 :      */
; 4640 :     if (xmlXPathIsNaN(d1)) {

	push	esi
	sub	esp, 8
	movsd	QWORD PTR _d2$1$[ebp], xmm0
	movsd	QWORD PTR [esp], xmm1
	call	_xmlXPathIsNaN
	movsd	xmm0, QWORD PTR _d2$1$[ebp]
	mov	esi, eax
	movsd	QWORD PTR [esp], xmm0
	call	_xmlXPathIsNaN
	add	esp, 8
	test	esi, esi
	pop	esi
	je	SHORT $LN12@xmlSchemaC

; 4641 : 	if (xmlXPathIsNaN(d2))

	test	eax, eax
	jne	$LN27@xmlSchemaC
$LN25@xmlSchemaC:

; 4670 : 	return(1);

	mov	eax, 1

; 4674 : }

	mov	esp, ebp
	pop	ebp
	ret	0
$LN12@xmlSchemaC:

; 4642 : 	    return(0);
; 4643 : 	return(1);
; 4644 :     }
; 4645 :     if (xmlXPathIsNaN(d2))

	test	eax, eax
	jne	SHORT $LN26@xmlSchemaC

; 4646 : 	return(-1);
; 4647 :     if (d1 == xmlXPathPINF) {

	movsd	xmm2, QWORD PTR _xmlXPathPINF
	movsd	xmm1, QWORD PTR _d1$1$[ebp]
	movsd	xmm0, QWORD PTR _d2$1$[ebp]
	ucomisd	xmm1, xmm2
	lahf
	test	ah, 68					; 00000044H
	jp	SHORT $LN15@xmlSchemaC

; 4648 : 	if (d2 == xmlXPathPINF)

	ucomisd	xmm0, xmm2
	lahf
	test	ah, 68					; 00000044H
	jp	SHORT $LN25@xmlSchemaC

; 4672 : 	return(0);

	xor	eax, eax

; 4674 : }

	mov	esp, ebp
	pop	ebp
	ret	0
$LN15@xmlSchemaC:

; 4649 : 	    return(0);
; 4650 :         return(1);
; 4651 :     }
; 4652 :     if (d2 == xmlXPathPINF)

	ucomisd	xmm0, xmm2
	lahf
	test	ah, 68					; 00000044H
	jnp	SHORT $LN26@xmlSchemaC

; 4653 :         return(-1);
; 4654 :     if (d1 == xmlXPathNINF) {

	movsd	xmm2, QWORD PTR _xmlXPathNINF
	ucomisd	xmm1, xmm2
	lahf
	test	ah, 68					; 00000044H
	jp	SHORT $LN18@xmlSchemaC

; 4655 : 	if (d2 == xmlXPathNINF)

	ucomisd	xmm0, xmm2
	lahf
	test	ah, 68					; 00000044H
	jnp	SHORT $LN27@xmlSchemaC
$LN26@xmlSchemaC:

; 4668 : 	return(-1);

	or	eax, -1

; 4674 : }

	mov	esp, ebp
	pop	ebp
	ret	0
$LN18@xmlSchemaC:

; 4656 : 	    return(0);
; 4657 :         return(-1);
; 4658 :     }
; 4659 :     if (d2 == xmlXPathNINF)

	ucomisd	xmm0, xmm2
	lahf
	test	ah, 68					; 00000044H
	jnp	SHORT $LN25@xmlSchemaC

; 4660 :         return(1);
; 4661 : 
; 4662 :     /*
; 4663 :      * basic tests, the last one we should have equality, but
; 4664 :      * portability is more important than speed and handling
; 4665 :      * NaN or Inf in a portable way is always a challenge, so ...
; 4666 :      */
; 4667 :     if (d1 < d2)

	comisd	xmm0, xmm1
	ja	SHORT $LN26@xmlSchemaC

; 4669 :     if (d1 > d2)

	comisd	xmm1, xmm0
	ja	SHORT $LN25@xmlSchemaC

; 4671 :     if (d1 == d2)

	ucomisd	xmm1, xmm0
	lahf
	test	ah, 68					; 00000044H
	jp	SHORT $LN23@xmlSchemaC
$LN27@xmlSchemaC:

; 4672 : 	return(0);

	xor	eax, eax

; 4674 : }

	mov	esp, ebp
	pop	ebp
	ret	0
$LN23@xmlSchemaC:

; 4673 :     return(2);

	mov	eax, 2

; 4674 : }

	mov	esp, ebp
	pop	ebp
	ret	0
$LN3@xmlSchemaC:

; 4618 : 	return(-2);

	mov	eax, -2					; fffffffeH

; 4674 : }

	mov	esp, ebp
	pop	ebp
	ret	0
_xmlSchemaCompareFloats ENDP
_TEXT	ENDS
; Function compile flags: /Ogtp
; File c:\users\dag\documents\_clients\codeproject authors group\windows on arm\libxml2\libxml2-2.9.9\xmlschemastypes.c
;	COMDAT _xmlSchemaCompareNormStrings
_TEXT	SEGMENT
_x$ = 8							; size = 4
_y$ = 12						; size = 4
_xmlSchemaCompareNormStrings PROC			; COMDAT

; 4569 : 			    const xmlChar *y) {

	push	ebp
	mov	ebp, esp
	mov	ecx, OFFSET __74485836_xmlschemastypes@c
	call	@__CheckForDebuggerJustMyCode@4
	mov	edx, DWORD PTR _x$[ebp]
$LL2@xmlSchemaC:

; 4570 :     int tmp;
; 4571 : 
; 4572 :     while (IS_BLANK_CH(*x)) x++;

	mov	al, BYTE PTR [edx]
	cmp	al, 32					; 00000020H
	je	SHORT $LN16@xmlSchemaC
	cmp	al, 9
	jb	SHORT $LN17@xmlSchemaC
	cmp	al, 10					; 0000000aH
	jbe	SHORT $LN16@xmlSchemaC
$LN17@xmlSchemaC:
	cmp	al, 13					; 0000000dH
	jne	SHORT $LN104@xmlSchemaC
$LN16@xmlSchemaC:
	inc	edx
	jmp	SHORT $LL2@xmlSchemaC
$LN104@xmlSchemaC:
	mov	ecx, DWORD PTR _y$[ebp]
	push	ebx
	push	esi
	npad	6
$LL4@xmlSchemaC:

; 4573 :     while (IS_BLANK_CH(*y)) y++;

	mov	bl, BYTE PTR [ecx]
	cmp	bl, 32					; 00000020H
	je	SHORT $LN18@xmlSchemaC
	cmp	bl, 9
	jb	SHORT $LN19@xmlSchemaC
	cmp	bl, 10					; 0000000aH
	jbe	SHORT $LN18@xmlSchemaC
$LN19@xmlSchemaC:
	cmp	bl, 13					; 0000000dH
	jne	SHORT $LN44@xmlSchemaC
$LN18@xmlSchemaC:
	inc	ecx
	jmp	SHORT $LL4@xmlSchemaC
$LN44@xmlSchemaC:

; 4574 :     while ((*x != 0) && (*y != 0)) {

	test	al, al
	je	SHORT $LN35@xmlSchemaC
	npad	3
$LL6@xmlSchemaC:
	mov	bl, BYTE PTR [ecx]
	mov	al, BYTE PTR [edx]
	test	bl, bl
	je	$LN7@xmlSchemaC

; 4575 : 	if (IS_BLANK_CH(*x)) {

	cmp	al, 32					; 00000020H
	je	SHORT $LN22@xmlSchemaC
	cmp	al, 9
	jb	SHORT $LN23@xmlSchemaC
	cmp	al, 10					; 0000000aH
	jbe	SHORT $LN22@xmlSchemaC
$LN23@xmlSchemaC:
	cmp	al, 13					; 0000000dH
	je	SHORT $LN22@xmlSchemaC

; 4582 : 	} else {
; 4583 : 	    tmp = *x++ - *y++;

	movzx	esi, al
	inc	ecx
	movzx	eax, bl
	inc	edx
	sub	esi, eax

; 4584 : 	    if (tmp < 0)

	js	$LN81@xmlSchemaC

; 4585 : 		return(-1);
; 4586 : 	    if (tmp > 0)

	test	esi, esi
	jg	$LN80@xmlSchemaC
$LN115@xmlSchemaC:

; 4574 :     while ((*x != 0) && (*y != 0)) {

	cmp	BYTE PTR [edx], 0
	jne	SHORT $LL6@xmlSchemaC
$LN35@xmlSchemaC:

; 4594 :     }
; 4595 :     if (*y != 0) {

	mov	al, BYTE PTR [ecx]
	test	al, al
	je	$LN39@xmlSchemaC
$LL14@xmlSchemaC:

; 4596 : 	while (IS_BLANK_CH(*y)) y++;

	cmp	al, 32					; 00000020H
	je	SHORT $LN37@xmlSchemaC
	cmp	al, 9
	jb	SHORT $LN38@xmlSchemaC
	cmp	al, 10					; 0000000aH
	jbe	SHORT $LN37@xmlSchemaC
$LN38@xmlSchemaC:
	cmp	al, 13					; 0000000dH
	jne	$LN15@xmlSchemaC
$LN37@xmlSchemaC:
	mov	al, BYTE PTR [ecx+1]
	inc	ecx
	jmp	SHORT $LL14@xmlSchemaC
$LN22@xmlSchemaC:

; 4576 : 	    if (!IS_BLANK_CH(*y)) {

	cmp	bl, 32					; 00000020H
	je	SHORT $LL8@xmlSchemaC
	cmp	bl, 9
	jb	SHORT $LN25@xmlSchemaC
	cmp	bl, 10					; 0000000aH
	jbe	SHORT $LL8@xmlSchemaC
$LN25@xmlSchemaC:
	cmp	bl, 13					; 0000000dH
	jne	SHORT $LN52@xmlSchemaC
$LL8@xmlSchemaC:

; 4578 : 		return(tmp);
; 4579 : 	    }
; 4580 : 	    while (IS_BLANK_CH(*x)) x++;

	cmp	al, 32					; 00000020H
	je	SHORT $LN26@xmlSchemaC
	cmp	al, 9
	jb	SHORT $LN27@xmlSchemaC
	cmp	al, 10					; 0000000aH
	jbe	SHORT $LN26@xmlSchemaC
$LN27@xmlSchemaC:
	cmp	al, 13					; 0000000dH
	jne	SHORT $LL10@xmlSchemaC
$LN26@xmlSchemaC:
	mov	al, BYTE PTR [edx+1]
	inc	edx
	jmp	SHORT $LL8@xmlSchemaC
$LL10@xmlSchemaC:

; 4581 : 	    while (IS_BLANK_CH(*y)) y++;

	mov	al, BYTE PTR [ecx]
	cmp	al, 32					; 00000020H
	je	SHORT $LN28@xmlSchemaC
	cmp	al, 9
	jb	SHORT $LN29@xmlSchemaC
	cmp	al, 10					; 0000000aH
	jbe	SHORT $LN28@xmlSchemaC
$LN29@xmlSchemaC:
	cmp	al, 13					; 0000000dH
	jne	SHORT $LN115@xmlSchemaC
$LN28@xmlSchemaC:
	inc	ecx
	jmp	SHORT $LL10@xmlSchemaC
$LN52@xmlSchemaC:

; 4577 : 		tmp = *x - *y;

	movzx	ecx, bl
	movzx	eax, al
	pop	esi
	sub	eax, ecx

; 4601 : }

	pop	ebx
	pop	ebp
	ret	0
$LN7@xmlSchemaC:

; 4587 : 		return(1);
; 4588 : 	}
; 4589 :     }
; 4590 :     if (*x != 0) {

	test	al, al
	je	SHORT $LN35@xmlSchemaC
	npad	4
$LL12@xmlSchemaC:

; 4591 : 	while (IS_BLANK_CH(*x)) x++;

	cmp	al, 32					; 00000020H
	je	SHORT $LN33@xmlSchemaC
	cmp	al, 9
	jb	SHORT $LN34@xmlSchemaC
	cmp	al, 10					; 0000000aH
	jbe	SHORT $LN33@xmlSchemaC
$LN34@xmlSchemaC:
	cmp	al, 13					; 0000000dH
	jne	SHORT $LN13@xmlSchemaC
$LN33@xmlSchemaC:
	mov	al, BYTE PTR [edx+1]
	inc	edx
	jmp	SHORT $LL12@xmlSchemaC
$LN13@xmlSchemaC:

; 4592 : 	if (*x != 0)

	test	al, al
	je	$LN35@xmlSchemaC
$LN80@xmlSchemaC:
	pop	esi

; 4593 : 	    return(1);

	mov	eax, 1

; 4601 : }

	pop	ebx
	pop	ebp
	ret	0
$LN15@xmlSchemaC:

; 4597 : 	if (*y != 0)

	test	al, al
	je	SHORT $LN39@xmlSchemaC
$LN81@xmlSchemaC:
	pop	esi

; 4598 : 	    return(-1);

	or	eax, -1

; 4601 : }

	pop	ebx
	pop	ebp
	ret	0
$LN39@xmlSchemaC:
	pop	esi

; 4599 :     }
; 4600 :     return(0);

	xor	eax, eax

; 4601 : }

	pop	ebx
	pop	ebp
	ret	0
_xmlSchemaCompareNormStrings ENDP
_TEXT	ENDS
; Function compile flags: /Ogtp
; File c:\users\dag\documents\_clients\codeproject authors group\windows on arm\libxml2\libxml2-2.9.9\xmlschemastypes.c
;	COMDAT _xmlSchemaCompareReplacedStrings
_TEXT	SEGMENT
_x$ = 8							; size = 4
_y$ = 12						; size = 4
_xmlSchemaCompareReplacedStrings PROC			; COMDAT

; 4523 : {

	push	ebp
	mov	ebp, esp
	push	esi
	mov	ecx, OFFSET __74485836_xmlschemastypes@c
	call	@__CheckForDebuggerJustMyCode@4
	mov	esi, DWORD PTR _x$[ebp]
	mov	edx, DWORD PTR _y$[ebp]
	mov	al, BYTE PTR [esi]
	test	al, al
	je	SHORT $LN19@xmlSchemaC
	npad	6
$LL2@xmlSchemaC:

; 4524 :     int tmp;
; 4525 : 
; 4526 :     while ((*x != 0) && (*y != 0)) {

	mov	cl, BYTE PTR [edx]
	test	cl, cl
	je	SHORT $LN3@xmlSchemaC

; 4527 : 	if IS_WSP_BLANK_CH(*y) {

	cmp	cl, 32					; 00000020H
	je	SHORT $LN6@xmlSchemaC
	cmp	cl, 9
	jb	SHORT $LN7@xmlSchemaC
	cmp	cl, 10					; 0000000aH
	jbe	SHORT $LN6@xmlSchemaC
$LN7@xmlSchemaC:
	cmp	cl, 13					; 0000000dH
	je	SHORT $LN6@xmlSchemaC

; 4530 : 		    return(-1);
; 4531 : 		else
; 4532 : 		    return(1);
; 4533 : 	    }
; 4534 : 	} else {
; 4535 : 	    if IS_WSP_BLANK_CH(*x) {

	cmp	al, 32					; 00000020H
	je	SHORT $LN13@xmlSchemaC
	cmp	al, 9
	jb	SHORT $LN14@xmlSchemaC
	cmp	al, 10					; 0000000aH
	jbe	SHORT $LN13@xmlSchemaC
$LN14@xmlSchemaC:
	cmp	al, 13					; 0000000dH
	je	SHORT $LN13@xmlSchemaC

; 4537 : 		    return(-1);
; 4538 : 		else
; 4539 : 		    return(1);
; 4540 : 	    }
; 4541 : 	    tmp = *x - *y;

	movzx	ecx, cl
	movzx	eax, al
	sub	eax, ecx

; 4542 : 	    if (tmp < 0)

	js	SHORT $LN31@xmlSchemaC

; 4543 : 		return(-1);
; 4544 : 	    if (tmp > 0)

	test	eax, eax
	jg	SHORT $LN30@xmlSchemaC
	jmp	SHORT $LN11@xmlSchemaC
$LN6@xmlSchemaC:

; 4528 : 	    if (! IS_WSP_BLANK_CH(*x)) {

	cmp	al, 32					; 00000020H
	je	SHORT $LN11@xmlSchemaC
	cmp	al, 9
	jb	SHORT $LN9@xmlSchemaC
	cmp	al, 10					; 0000000aH
	jbe	SHORT $LN11@xmlSchemaC
$LN9@xmlSchemaC:
	cmp	al, 13					; 0000000dH
	jne	SHORT $LN26@xmlSchemaC
$LN11@xmlSchemaC:

; 4524 :     int tmp;
; 4525 : 
; 4526 :     while ((*x != 0) && (*y != 0)) {

	mov	al, BYTE PTR [esi+1]

; 4545 : 		return(1);
; 4546 : 	}
; 4547 : 	x++;

	inc	esi

; 4548 : 	y++;

	inc	edx
	test	al, al
	jne	SHORT $LL2@xmlSchemaC
$LN19@xmlSchemaC:

; 4552 :     if (*y != 0)

	cmp	BYTE PTR [edx], 0
	je	SHORT $LN20@xmlSchemaC
$LN31@xmlSchemaC:

; 4553 :         return(-1);

	or	eax, -1
	pop	esi

; 4555 : }

	pop	ebp
	ret	0
$LN13@xmlSchemaC:

; 4536 : 		if ((0x20 - *y) < 0)

	movzx	eax, cl
	mov	ecx, 32					; 00000020H
	sub	ecx, eax
	jns	SHORT $LN30@xmlSchemaC

; 4553 :         return(-1);

	or	eax, -1
	pop	esi

; 4555 : }

	pop	ebp
	ret	0
$LN26@xmlSchemaC:

; 4529 : 		if ((*x - 0x20) < 0)

	cmp	al, 32					; 00000020H
	jae	SHORT $LN30@xmlSchemaC

; 4553 :         return(-1);

	or	eax, -1
	pop	esi

; 4555 : }

	pop	ebp
	ret	0
$LN3@xmlSchemaC:

; 4549 :     }
; 4550 :     if (*x != 0)

	cmp	BYTE PTR [esi], 0
	je	SHORT $LN19@xmlSchemaC
$LN30@xmlSchemaC:

; 4551 :         return(1);

	mov	eax, 1
	pop	esi

; 4555 : }

	pop	ebp
	ret	0
$LN20@xmlSchemaC:

; 4554 :     return(0);

	xor	eax, eax
	pop	esi

; 4555 : }

	pop	ebp
	ret	0
_xmlSchemaCompareReplacedStrings ENDP
_TEXT	ENDS
; Function compile flags: /Ogtp
; File c:\users\dag\documents\_clients\codeproject authors group\windows on arm\libxml2\libxml2-2.9.9\xmlschemastypes.c
;	COMDAT _xmlSchemaCompareReplaceCollapseStrings
_TEXT	SEGMENT
_x$ = 8							; size = 4
_y$ = 12						; size = 4
_invert$ = 16						; size = 4
_xmlSchemaCompareReplaceCollapseStrings PROC		; COMDAT

; 4429 : {

	push	ebp
	mov	ebp, esp
	mov	ecx, OFFSET __74485836_xmlschemastypes@c
	call	@__CheckForDebuggerJustMyCode@4
	mov	eax, DWORD PTR _y$[ebp]
$LL2@xmlSchemaC:

; 4430 :     int tmp;
; 4431 : 
; 4432 :     /*
; 4433 :     * Skip leading blank chars of the collapsed string.
; 4434 :     */
; 4435 :     while IS_WSP_BLANK_CH(*y)

	mov	cl, BYTE PTR [eax]
	cmp	cl, 32					; 00000020H
	je	SHORT $LN10@xmlSchemaC
	cmp	cl, 9
	jb	SHORT $LN11@xmlSchemaC
	cmp	cl, 10					; 0000000aH
	jbe	SHORT $LN10@xmlSchemaC
$LN11@xmlSchemaC:
	cmp	cl, 13					; 0000000dH
	jne	SHORT $LN49@xmlSchemaC
$LN10@xmlSchemaC:

; 4436 : 	y++;

	inc	eax
	jmp	SHORT $LL2@xmlSchemaC
$LN49@xmlSchemaC:
	push	esi

; 4437 : 
; 4438 :     while ((*x != 0) && (*y != 0)) {

	mov	esi, DWORD PTR _x$[ebp]
	cmp	BYTE PTR [esi], 0
	je	SHORT $LN39@xmlSchemaC
$LL4@xmlSchemaC:
	mov	cl, BYTE PTR [eax]
	test	cl, cl
	je	SHORT $LN70@xmlSchemaC

; 4439 : 	if IS_WSP_BLANK_CH(*y) {

	cmp	cl, 32					; 00000020H
	je	SHORT $LN14@xmlSchemaC
	cmp	cl, 9
	jb	SHORT $LN15@xmlSchemaC
	cmp	cl, 10					; 0000000aH
	jbe	SHORT $LN14@xmlSchemaC
$LN15@xmlSchemaC:
	cmp	cl, 13					; 0000000dH
	je	SHORT $LN14@xmlSchemaC

; 4462 : 		y++;
; 4463 : 	} else {
; 4464 : 	    if IS_WSP_BLANK_CH(*x) {

	mov	dl, BYTE PTR [esi]
	cmp	dl, 32					; 00000020H
	je	SHORT $LN27@xmlSchemaC
	cmp	dl, 9
	jb	SHORT $LN28@xmlSchemaC
	cmp	dl, 10					; 0000000aH
	jbe	SHORT $LN27@xmlSchemaC
$LN28@xmlSchemaC:
	cmp	dl, 13					; 0000000dH
	je	SHORT $LN27@xmlSchemaC

; 4469 : 		    if (invert)
; 4470 : 			return(1);
; 4471 : 		    else
; 4472 : 			return(-1);
; 4473 : 		} else {
; 4474 : 		    if (invert)
; 4475 : 			return(-1);
; 4476 : 		    else
; 4477 : 			return(1);
; 4478 : 		}
; 4479 : 	    }
; 4480 : 	    tmp = *x++ - *y++;

	movzx	edx, dl
	inc	eax
	movzx	ecx, cl
	sub	edx, ecx

; 4481 : 	    if (tmp < 0)

	js	SHORT $LN44@xmlSchemaC

; 4482 : 		return(-1);
; 4483 : 	    if (tmp > 0)

	test	edx, edx
	jg	$LN67@xmlSchemaC
	jmp	SHORT $LN74@xmlSchemaC
$LN14@xmlSchemaC:

; 4440 : 	    if (! IS_WSP_BLANK_CH(*x)) {

	mov	cl, BYTE PTR [esi]
	cmp	cl, 32					; 00000020H
	je	SHORT $LN23@xmlSchemaC
	cmp	cl, 9
	jb	SHORT $LN17@xmlSchemaC
	cmp	cl, 10					; 0000000aH
	jbe	SHORT $LN23@xmlSchemaC
$LN17@xmlSchemaC:
	cmp	cl, 13					; 0000000dH
	jne	SHORT $LN56@xmlSchemaC
$LN23@xmlSchemaC:

; 4445 : 		    if (invert)
; 4446 : 			return(1);
; 4447 : 		    else
; 4448 : 			return(-1);
; 4449 : 		} else {
; 4450 : 		    if (invert)
; 4451 : 			return(-1);
; 4452 : 		    else
; 4453 : 			return(1);
; 4454 : 		}
; 4455 : 	    }
; 4456 : 	    x++;
; 4457 : 	    y++;
; 4458 : 	    /*
; 4459 : 	    * Skip contiguous blank chars of the collapsed string.
; 4460 : 	    */
; 4461 : 	    while IS_WSP_BLANK_CH(*y)

	mov	cl, BYTE PTR [eax+1]
	inc	eax
	cmp	cl, 32					; 00000020H
	je	SHORT $LN23@xmlSchemaC
	cmp	cl, 9
	jb	SHORT $LN25@xmlSchemaC
	cmp	cl, 10					; 0000000aH
	jbe	SHORT $LN23@xmlSchemaC
$LN25@xmlSchemaC:
	cmp	cl, 13					; 0000000dH
	je	SHORT $LN23@xmlSchemaC
$LN74@xmlSchemaC:

; 4437 : 
; 4438 :     while ((*x != 0) && (*y != 0)) {

	inc	esi
	cmp	BYTE PTR [esi], 0
	jne	SHORT $LL4@xmlSchemaC
$LN70@xmlSchemaC:

; 4484 : 		return(1);
; 4485 : 	}
; 4486 :     }
; 4487 :     if (*x != 0) {

	cmp	BYTE PTR [esi], 0
	jne	SHORT $LN77@xmlSchemaC
$LN39@xmlSchemaC:

; 4488 : 	 if (invert)
; 4489 : 	     return(-1);
; 4490 : 	 else
; 4491 : 	     return(1);
; 4492 :     }
; 4493 :     if (*y != 0) {

	mov	cl, BYTE PTR [eax]
	test	cl, cl
	je	SHORT $LN45@xmlSchemaC
$LL8@xmlSchemaC:

; 4494 : 	/*
; 4495 : 	* Skip trailing blank chars of the collapsed string.
; 4496 : 	*/
; 4497 : 	while IS_WSP_BLANK_CH(*y)

	cmp	cl, 32					; 00000020H
	je	SHORT $LN41@xmlSchemaC
	cmp	cl, 9
	jb	SHORT $LN42@xmlSchemaC
	cmp	cl, 10					; 0000000aH
	jbe	SHORT $LN41@xmlSchemaC
$LN42@xmlSchemaC:
	cmp	cl, 13					; 0000000dH
	jne	SHORT $LN9@xmlSchemaC
$LN41@xmlSchemaC:

; 4498 : 	    y++;

	mov	cl, BYTE PTR [eax+1]
	inc	eax
	jmp	SHORT $LL8@xmlSchemaC
$LN27@xmlSchemaC:

; 4465 : 		/*
; 4466 : 		* The xv character would have been replaced to 0x20.
; 4467 : 		*/
; 4468 : 		if ((0x20 - *y) < 0) {

	movzx	eax, cl
	mov	ecx, 32					; 00000020H
	sub	ecx, eax
	js	SHORT $LN76@xmlSchemaC
$LN77@xmlSchemaC:

; 4502 : 	    else
; 4503 : 		return(-1);

	cmp	DWORD PTR _invert$[ebp], 0
	je	SHORT $LN67@xmlSchemaC
$LN44@xmlSchemaC:
	or	eax, -1
	pop	esi

; 4507 : }

	pop	ebp
	ret	0
$LN56@xmlSchemaC:

; 4441 : 		/*
; 4442 : 		* The yv character would have been replaced to 0x20.
; 4443 : 		*/
; 4444 : 		if ((*x - 0x20) < 0) {

	cmp	cl, 32					; 00000020H
	jb	SHORT $LN76@xmlSchemaC

; 4502 : 	    else
; 4503 : 		return(-1);

	jmp	SHORT $LN77@xmlSchemaC
$LN9@xmlSchemaC:

; 4499 : 	if (*y != 0) {

	test	cl, cl
	je	SHORT $LN45@xmlSchemaC
$LN76@xmlSchemaC:

; 4500 : 	    if (invert)
; 4501 : 		return(1);

	cmp	DWORD PTR _invert$[ebp], 0
	je	SHORT $LN44@xmlSchemaC
$LN67@xmlSchemaC:
	mov	eax, 1
	pop	esi

; 4507 : }

	pop	ebp
	ret	0
$LN45@xmlSchemaC:

; 4504 : 	}
; 4505 :     }
; 4506 :     return(0);

	xor	eax, eax
	pop	esi

; 4507 : }

	pop	ebp
	ret	0
_xmlSchemaCompareReplaceCollapseStrings ENDP
_TEXT	ENDS
; Function compile flags: /Ogtp
; File c:\users\dag\documents\_clients\codeproject authors group\windows on arm\libxml2\libxml2-2.9.9\xmlschemastypes.c
;	COMDAT _xmlSchemaComparePreserveCollapseStrings
_TEXT	SEGMENT
_x$ = 8							; size = 4
_y$ = 12						; size = 4
_invert$ = 16						; size = 4
_xmlSchemaComparePreserveCollapseStrings PROC		; COMDAT

; 4340 : {

	push	ebp
	mov	ebp, esp
	mov	ecx, OFFSET __74485836_xmlschemastypes@c
	call	@__CheckForDebuggerJustMyCode@4
	mov	eax, DWORD PTR _y$[ebp]
$LL2@xmlSchemaC:

; 4341 :     int tmp;
; 4342 : 
; 4343 :     /*
; 4344 :     * Skip leading blank chars of the collapsed string.
; 4345 :     */
; 4346 :     while IS_WSP_BLANK_CH(*y)

	mov	cl, BYTE PTR [eax]
	cmp	cl, 32					; 00000020H
	je	SHORT $LN10@xmlSchemaC
	cmp	cl, 9
	jb	SHORT $LN11@xmlSchemaC
	cmp	cl, 10					; 0000000aH
	jbe	SHORT $LN10@xmlSchemaC
$LN11@xmlSchemaC:
	cmp	cl, 13					; 0000000dH
	jne	SHORT $LN43@xmlSchemaC
$LN10@xmlSchemaC:

; 4347 : 	y++;

	inc	eax
	jmp	SHORT $LL2@xmlSchemaC
$LN43@xmlSchemaC:

; 4348 : 
; 4349 :     while ((*x != 0) && (*y != 0)) {

	mov	edx, DWORD PTR _x$[ebp]
	push	esi
	cmp	BYTE PTR [edx], 0
	je	SHORT $LN33@xmlSchemaC
$LL4@xmlSchemaC:
	mov	cl, BYTE PTR [eax]
	test	cl, cl
	je	SHORT $LN5@xmlSchemaC

; 4350 : 	if IS_WSP_BLANK_CH(*y) {

	cmp	cl, 32					; 00000020H
	je	SHORT $LN14@xmlSchemaC
	cmp	cl, 9
	jb	SHORT $LN15@xmlSchemaC
	cmp	cl, 10					; 0000000aH
	jbe	SHORT $LN14@xmlSchemaC
$LN15@xmlSchemaC:
	cmp	cl, 13					; 0000000dH
	je	SHORT $LN14@xmlSchemaC

; 4373 : 		y++;
; 4374 : 	} else {
; 4375 : 	    tmp = *x++ - *y++;

	movzx	esi, BYTE PTR [edx]
	inc	eax
	movzx	ecx, cl
	sub	esi, ecx

; 4376 : 	    if (tmp < 0) {

	js	SHORT $LN47@xmlSchemaC

; 4377 : 		if (invert)
; 4378 : 		    return(1);
; 4379 : 		else
; 4380 : 		    return(-1);
; 4381 : 	    }
; 4382 : 	    if (tmp > 0) {

	test	esi, esi
	jg	SHORT $LN70@xmlSchemaC
	jmp	SHORT $LN67@xmlSchemaC
$LN14@xmlSchemaC:

; 4351 : 	    if (! IS_WSP_SPACE_CH(*x)) {

	mov	cl, BYTE PTR [edx]
	cmp	cl, 32					; 00000020H
	jne	SHORT $LN68@xmlSchemaC
$LN23@xmlSchemaC:

; 4356 : 		    if (invert)
; 4357 : 			return(1);
; 4358 : 		    else
; 4359 : 			return(-1);
; 4360 : 		} else {
; 4361 : 		    if (invert)
; 4362 : 			return(-1);
; 4363 : 		    else
; 4364 : 			return(1);
; 4365 : 		}
; 4366 : 	    }
; 4367 : 	    x++;
; 4368 : 	    y++;
; 4369 : 	    /*
; 4370 : 	    * Skip contiguous blank chars of the collapsed string.
; 4371 : 	    */
; 4372 : 	    while IS_WSP_BLANK_CH(*y)

	mov	cl, BYTE PTR [eax+1]
	inc	eax
	cmp	cl, 32					; 00000020H
	je	SHORT $LN23@xmlSchemaC
	cmp	cl, 9
	jb	SHORT $LN24@xmlSchemaC
	cmp	cl, 10					; 0000000aH
	jbe	SHORT $LN23@xmlSchemaC
$LN24@xmlSchemaC:
	cmp	cl, 13					; 0000000dH
	je	SHORT $LN23@xmlSchemaC
$LN67@xmlSchemaC:

; 4348 : 
; 4349 :     while ((*x != 0) && (*y != 0)) {

	inc	edx
	cmp	BYTE PTR [edx], 0
	jne	SHORT $LL4@xmlSchemaC
$LN5@xmlSchemaC:

; 4383 : 		if (invert)
; 4384 : 		    return(-1);
; 4385 : 		else
; 4386 : 		    return(1);
; 4387 : 	    }
; 4388 : 	}
; 4389 :     }
; 4390 :     if (*x != 0) {

	cmp	BYTE PTR [edx], 0
	jne	SHORT $LN70@xmlSchemaC
$LN33@xmlSchemaC:

; 4391 : 	 if (invert)
; 4392 : 	     return(-1);
; 4393 : 	 else
; 4394 : 	     return(1);
; 4395 :     }
; 4396 :     if (*y != 0) {

	mov	cl, BYTE PTR [eax]
	test	cl, cl
	je	SHORT $LN39@xmlSchemaC
	npad	3
$LL8@xmlSchemaC:

; 4397 : 	/*
; 4398 : 	* Skip trailing blank chars of the collapsed string.
; 4399 : 	*/
; 4400 : 	while IS_WSP_BLANK_CH(*y)

	cmp	cl, 32					; 00000020H
	je	SHORT $LN35@xmlSchemaC
	cmp	cl, 9
	jb	SHORT $LN36@xmlSchemaC
	cmp	cl, 10					; 0000000aH
	jbe	SHORT $LN35@xmlSchemaC
$LN36@xmlSchemaC:
	cmp	cl, 13					; 0000000dH
	jne	SHORT $LN9@xmlSchemaC
$LN35@xmlSchemaC:

; 4401 : 	    y++;

	mov	cl, BYTE PTR [eax+1]
	inc	eax
	jmp	SHORT $LL8@xmlSchemaC
$LN68@xmlSchemaC:

; 4352 : 		/*
; 4353 : 		* The yv character would have been replaced to 0x20.
; 4354 : 		*/
; 4355 : 		if ((*x - 0x20) < 0) {

	jb	SHORT $LN47@xmlSchemaC
$LN70@xmlSchemaC:

; 4405 : 	    else
; 4406 : 		return(-1);

	cmp	DWORD PTR _invert$[ebp], 0
	je	SHORT $LN60@xmlSchemaC
$LN38@xmlSchemaC:
	or	eax, -1
	pop	esi

; 4410 : }

	pop	ebp
	ret	0
$LN9@xmlSchemaC:

; 4402 : 	if (*y != 0) {

	test	cl, cl
	je	SHORT $LN39@xmlSchemaC
$LN47@xmlSchemaC:

; 4403 : 	    if (invert)
; 4404 : 		return(1);

	cmp	DWORD PTR _invert$[ebp], 0
	je	SHORT $LN38@xmlSchemaC
$LN60@xmlSchemaC:
	mov	eax, 1
	pop	esi

; 4410 : }

	pop	ebp
	ret	0
$LN39@xmlSchemaC:

; 4407 : 	}
; 4408 :     }
; 4409 :     return(0);

	xor	eax, eax
	pop	esi

; 4410 : }

	pop	ebp
	ret	0
_xmlSchemaComparePreserveCollapseStrings ENDP
_TEXT	ENDS
; Function compile flags: /Ogtp
; File c:\users\dag\documents\_clients\codeproject authors group\windows on arm\libxml2\libxml2-2.9.9\xmlschemastypes.c
;	COMDAT _xmlSchemaComparePreserveReplaceStrings
_TEXT	SEGMENT
_x$ = 8							; size = 4
_y$ = 12						; size = 4
_invert$ = 16						; size = 4
_xmlSchemaComparePreserveReplaceStrings PROC		; COMDAT

; 4272 : {

	push	ebp
	mov	ebp, esp
	push	esi
	mov	ecx, OFFSET __74485836_xmlschemastypes@c
	call	@__CheckForDebuggerJustMyCode@4
	mov	esi, DWORD PTR _x$[ebp]
	mov	edx, DWORD PTR _y$[ebp]
	mov	cl, BYTE PTR [esi]
	test	cl, cl
	je	SHORT $LN22@xmlSchemaC
	npad	6
$LL2@xmlSchemaC:

; 4273 :     int tmp;
; 4274 : 
; 4275 :     while ((*x != 0) && (*y != 0)) {

	mov	al, BYTE PTR [edx]
	test	al, al
	je	SHORT $LN3@xmlSchemaC

; 4276 : 	if (IS_WSP_REPLACE_CH(*y)) {

	cmp	al, 9
	je	SHORT $LN6@xmlSchemaC
	cmp	al, 10					; 0000000aH
	je	SHORT $LN6@xmlSchemaC
	cmp	al, 13					; 0000000dH
	je	SHORT $LN6@xmlSchemaC

; 4279 : 		    if (invert)
; 4280 : 			return(1);
; 4281 : 		    else
; 4282 : 			return(-1);
; 4283 : 		} else {
; 4284 : 		    if (invert)
; 4285 : 			return(-1);
; 4286 : 		    else
; 4287 : 			return(1);
; 4288 : 		}
; 4289 : 	    }
; 4290 : 	} else {
; 4291 : 	    tmp = *x - *y;

	movzx	eax, al
	movzx	ecx, cl
	sub	ecx, eax

; 4292 : 	    if (tmp < 0) {

	js	SHORT $LN28@xmlSchemaC

; 4293 : 		if (invert)
; 4294 : 		    return(1);
; 4295 : 		else
; 4296 : 		    return(-1);
; 4297 : 	    }
; 4298 : 	    if (tmp > 0) {

	test	ecx, ecx
	jg	SHORT $LN38@xmlSchemaC
	jmp	SHORT $LN13@xmlSchemaC
$LN6@xmlSchemaC:

; 4277 : 	    if (! IS_WSP_SPACE_CH(*x)) {

	cmp	cl, 32					; 00000020H
	jne	SHORT $LN30@xmlSchemaC
$LN13@xmlSchemaC:

; 4273 :     int tmp;
; 4274 : 
; 4275 :     while ((*x != 0) && (*y != 0)) {

	mov	cl, BYTE PTR [esi+1]

; 4299 : 		if (invert)
; 4300 : 		    return(-1);
; 4301 : 		else
; 4302 : 		    return(1);
; 4303 : 	    }
; 4304 : 	}
; 4305 : 	x++;

	inc	esi

; 4306 : 	y++;

	inc	edx
	test	cl, cl
	jne	SHORT $LL2@xmlSchemaC

; 4273 :     int tmp;
; 4274 : 
; 4275 :     while ((*x != 0) && (*y != 0)) {

	jmp	SHORT $LN22@xmlSchemaC
$LN30@xmlSchemaC:

; 4278 : 		if ((*x - 0x20) < 0) {

	jb	SHORT $LN28@xmlSchemaC
$LN38@xmlSchemaC:

; 4317 : 	else
; 4318 : 	    return(-1);

	cmp	DWORD PTR _invert$[ebp], 0
	je	SHORT $LN34@xmlSchemaC
$LN24@xmlSchemaC:
	or	eax, -1
	pop	esi

; 4321 : }

	pop	ebp
	ret	0
$LN3@xmlSchemaC:

; 4307 :     }
; 4308 :     if (*x != 0) {

	cmp	BYTE PTR [esi], 0
	jne	SHORT $LN38@xmlSchemaC
$LN22@xmlSchemaC:

; 4309 : 	if (invert)
; 4310 : 	    return(-1);
; 4311 : 	else
; 4312 : 	    return(1);
; 4313 :     }
; 4314 :     if (*y != 0) {

	cmp	BYTE PTR [edx], 0
	je	SHORT $LN25@xmlSchemaC
$LN28@xmlSchemaC:

; 4315 : 	if (invert)
; 4316 : 	    return(1);

	cmp	DWORD PTR _invert$[ebp], 0
	je	SHORT $LN24@xmlSchemaC
$LN34@xmlSchemaC:
	mov	eax, 1
	pop	esi

; 4321 : }

	pop	ebp
	ret	0
$LN25@xmlSchemaC:

; 4319 :     }
; 4320 :     return(0);

	xor	eax, eax
	pop	esi

; 4321 : }

	pop	ebp
	ret	0
_xmlSchemaComparePreserveReplaceStrings ENDP
_TEXT	ENDS
; Function compile flags: /Ogtp
; File c:\users\dag\documents\_clients\codeproject authors group\windows on arm\libxml2\libxml2-2.9.9\xmlschemastypes.c
;	COMDAT _xmlSchemaCompareDates
_TEXT	SEGMENT
_q1d$2$ = -24						; size = 4
_q1$3$ = -24						; size = 4
_p1$1$ = -24						; size = 4
_ret$1$ = -20						; size = 4
_p1d$1$ = -20						; size = 4
_p2$1$ = -16						; size = 4
_ret$1$ = -12						; size = 4
tv845 = -12						; size = 4
tv823 = -12						; size = 4
tv787 = -8						; size = 4
tv750 = -8						; size = 4
_q1$2$ = -8						; size = 4
_q2$1$ = -4						; size = 4
_p1$3$ = -4						; size = 4
tv871 = 8						; size = 4
_q1$1$ = 8						; size = 4
_x$ = 8							; size = 4
_y$ = 12						; size = 4
_xmlSchemaCompareDates PROC				; COMDAT

; 4009 : {

	push	ebp
	mov	ebp, esp
	sub	esp, 24					; 00000018H
	mov	ecx, OFFSET __74485836_xmlschemastypes@c
	push	ebx
	push	edi
	call	@__CheckForDebuggerJustMyCode@4
	mov	edi, DWORD PTR _x$[ebp]
	test	edi, edi
	je	$LN7@xmlSchemaC

; 4010 :     unsigned char xmask, ymask, xor_mask, and_mask;
; 4011 :     xmlSchemaValPtr p1, p2, q1, q2;
; 4012 :     long p1d, p2d, q1d, q2d;
; 4013 : 
; 4014 :     if ((x == NULL) || (y == NULL))

	mov	ebx, DWORD PTR _y$[ebp]
	test	ebx, ebx
	je	$LN7@xmlSchemaC

; 4016 : 
; 4017 :     if (x->value.date.tz_flag) {

	mov	eax, DWORD PTR [ebx+24]
	and	eax, 1
	test	BYTE PTR [edi+24], 1
	push	esi
	je	$LN8@xmlSchemaC

; 4018 : 
; 4019 :         if (!y->value.date.tz_flag) {

	test	eax, eax
	jne	$LN27@xmlSchemaC

; 4020 :             p1 = xmlSchemaDateNormalize(x, 0);

	sub	esp, 8
	xorps	xmm0, xmm0
	movsd	QWORD PTR [esp], xmm0
	push	edi
	call	_xmlSchemaDateNormalize
	mov	esi, eax

; 4021 :             p1d = _xmlSchemaDateCastYMToDays(p1) + p1->value.date.day;

	push	esi
	mov	DWORD PTR _p1$1$[ebp], esi
	call	__xmlSchemaDateCastYMToDays
	mov	ecx, DWORD PTR [esi+12]

; 4022 :             /* normalize y + 14:00 */
; 4023 :             q1 = xmlSchemaDateNormalize(y, (14 * SECS_PER_HOUR));

	add	esp, 8
	movsd	xmm0, QWORD PTR __real@40e89c0000000000
	shr	ecx, 4
	and	ecx, 31					; 0000001fH
	add	eax, ecx
	movsd	QWORD PTR [esp], xmm0
	push	ebx
	mov	DWORD PTR _p1d$1$[ebp], eax
	call	_xmlSchemaDateNormalize

; 4024 : 
; 4025 :             q1d = _xmlSchemaDateCastYMToDays(q1) + q1->value.date.day;

	push	eax
	mov	DWORD PTR _q1$1$[ebp], eax
	mov	ecx, DWORD PTR [eax+12]
	mov	DWORD PTR tv750[ebp], ecx
	call	__xmlSchemaDateCastYMToDays
	mov	ecx, DWORD PTR tv750[ebp]
	add	esp, 16					; 00000010H
	shr	ecx, 4
	and	ecx, 31					; 0000001fH
	lea	edx, DWORD PTR [ecx+eax]

; 4026 :             if (p1d < q1d) {

	cmp	DWORD PTR _p1d$1$[ebp], edx
	jl	$LN103@xmlSchemaC

; 4027 : 		xmlSchemaFreeValue(p1);
; 4028 : 		xmlSchemaFreeValue(q1);
; 4029 :                 return -1;
; 4030 : 	    } else if (p1d == q1d) {

	jne	$LN13@xmlSchemaC

; 4031 :                 double sec;
; 4032 : 
; 4033 :                 sec = TIME_TO_NUMBER(p1) - TIME_TO_NUMBER(q1);

	mov	edx, DWORD PTR [esi+12]
	mov	eax, edx
	shr	eax, 9
	and	eax, 31					; 0000001fH
	shr	edx, 14					; 0000000eH
	mov	ecx, eax
	and	edx, 63					; 0000003fH
	shl	ecx, 4
	sub	ecx, eax
	mov	eax, DWORD PTR [esi+24]
	shl	eax, 19					; 00000013H
	sar	eax, 20					; 00000014H
	lea	eax, DWORD PTR [eax+ecx*4]
	add	eax, edx
	mov	edx, DWORD PTR _q1$1$[ebp]
	mov	ecx, eax
	shl	ecx, 4
	sub	ecx, eax
	shl	ecx, 2
	mov	edx, DWORD PTR [edx+24]
	shl	edx, 19					; 00000013H
	sar	edx, 20					; 00000014H
	movd	xmm1, ecx
	shr	ecx, 31					; 0000001fH
	cvtdq2pd xmm1, xmm1
	addsd	xmm1, QWORD PTR __xmm@41f00000000000000000000000000000[ecx*8]
	mov	ecx, DWORD PTR tv750[ebp]
	shr	ecx, 9
	and	ecx, 31					; 0000001fH
	mov	eax, ecx
	shl	eax, 4
	sub	eax, ecx
	mov	ecx, DWORD PTR tv750[ebp]
	shr	ecx, 14					; 0000000eH
	and	ecx, 63					; 0000003fH
	addsd	xmm1, QWORD PTR [esi+16]
	lea	eax, DWORD PTR [edx+eax*4]
	add	eax, ecx
	mov	ecx, eax
	shl	ecx, 4
	sub	ecx, eax
	mov	eax, DWORD PTR _q1$1$[ebp]
	shl	ecx, 2
	movd	xmm0, ecx
	cvtdq2pd xmm0, xmm0
	shr	ecx, 31					; 0000001fH
	addsd	xmm0, QWORD PTR __xmm@41f00000000000000000000000000000[ecx*8]
	addsd	xmm0, QWORD PTR [eax+16]
	subsd	xmm1, xmm0
	xorps	xmm0, xmm0

; 4034 :                 if (sec < 0.0) {

	comisd	xmm0, xmm1
	ja	$LN103@xmlSchemaC

; 4038 : 		} else {
; 4039 : 		    int ret = 0;
; 4040 :                     /* normalize y - 14:00 */
; 4041 :                     q2 = xmlSchemaDateNormalize(y, -(14 * SECS_PER_HOUR));

	movsd	xmm0, QWORD PTR __real@c0e89c0000000000
	sub	esp, 8
	xor	eax, eax
	mov	DWORD PTR _ret$1$[ebp], eax
	movsd	QWORD PTR [esp], xmm0
	push	ebx
	call	_xmlSchemaDateNormalize

; 4042 :                     q2d = _xmlSchemaDateCastYMToDays(q2) + q2->value.date.day;

	push	eax
	mov	DWORD PTR _q2$1$[ebp], eax
	mov	ecx, DWORD PTR [eax+12]
	mov	DWORD PTR tv787[ebp], ecx
	call	__xmlSchemaDateCastYMToDays
	mov	ecx, DWORD PTR tv787[ebp]
	add	esp, 16					; 00000010H
	shr	ecx, 4
	and	ecx, 31					; 0000001fH
	lea	edx, DWORD PTR [ecx+eax]

; 4043 :                     if (p1d > q2d)

	cmp	DWORD PTR _p1d$1$[ebp], edx
	jle	SHORT $LN17@xmlSchemaC

; 4044 :                         ret = 1;

	mov	eax, 1
	jmp	$LN105@xmlSchemaC
$LN17@xmlSchemaC:

; 4045 :                     else if (p1d == q2d) {

	jne	$LN20@xmlSchemaC

; 4046 :                         sec = TIME_TO_NUMBER(p1) - TIME_TO_NUMBER(q2);

	mov	edx, DWORD PTR [esi+12]
	mov	eax, edx
	shr	eax, 9
	and	eax, 31					; 0000001fH
	shr	edx, 14					; 0000000eH
	mov	ecx, eax
	and	edx, 63					; 0000003fH
	shl	ecx, 4
	sub	ecx, eax
	mov	eax, DWORD PTR [esi+24]
	shl	eax, 19					; 00000013H
	sar	eax, 20					; 00000014H
	lea	esi, DWORD PTR [eax+ecx*4]
	mov	ecx, DWORD PTR tv787[ebp]
	add	esi, edx
	shr	ecx, 9
	mov	edx, DWORD PTR _q2$1$[ebp]
	and	ecx, 31					; 0000001fH
	mov	eax, ecx
	shl	eax, 4
	sub	eax, ecx
	mov	edx, DWORD PTR [edx+24]
	shl	edx, 19					; 00000013H
	sar	edx, 20					; 00000014H
	lea	ecx, DWORD PTR [edx+eax*4]
	mov	eax, DWORD PTR tv787[ebp]
	shr	eax, 14					; 0000000eH
	and	eax, 63					; 0000003fH
	add	ecx, eax
	imul	eax, esi, 15
	mov	esi, DWORD PTR _p1$1$[ebp]
	shl	eax, 2
	movd	xmm1, eax
	shr	eax, 31					; 0000001fH
	cvtdq2pd xmm1, xmm1
	addsd	xmm1, QWORD PTR __xmm@41f00000000000000000000000000000[eax*8]
	imul	eax, ecx, 15
	addsd	xmm1, QWORD PTR [esi+16]
	shl	eax, 2
	movd	xmm0, eax
	shr	eax, 31					; 0000001fH
	cvtdq2pd xmm0, xmm0
	addsd	xmm0, QWORD PTR __xmm@41f00000000000000000000000000000[eax*8]
	mov	eax, DWORD PTR _q2$1$[ebp]
	addsd	xmm0, QWORD PTR [eax+16]

; 4047 :                         if (sec > 0.0)

	xor	eax, eax
	subsd	xmm1, xmm0
	comisd	xmm1, QWORD PTR __real@0000000000000000
	setbe	al
	inc	eax
$LN105@xmlSchemaC:

; 4048 :                             ret = 1;
; 4049 :                         else
; 4050 :                             ret = 2; /* indeterminate */
; 4051 :                     }
; 4052 : 		    xmlSchemaFreeValue(p1);

	mov	DWORD PTR _ret$1$[ebp], eax
$LN20@xmlSchemaC:
	push	esi
	call	_xmlSchemaFreeValue

; 4053 : 		    xmlSchemaFreeValue(q1);

	push	DWORD PTR _q1$1$[ebp]
	call	_xmlSchemaFreeValue

; 4054 : 		    xmlSchemaFreeValue(q2);

	push	DWORD PTR _q2$1$[ebp]
	call	_xmlSchemaFreeValue

; 4055 : 		    if (ret != 0)

	mov	eax, DWORD PTR _ret$1$[ebp]
	add	esp, 12					; 0000000cH
	test	eax, eax
	je	SHORT $LN27@xmlSchemaC

; 4252 : }

	pop	esi
	pop	edi
	pop	ebx
	mov	esp, ebp
	pop	ebp
	ret	0
$LN13@xmlSchemaC:

; 4056 : 		        return(ret);
; 4057 :                 }
; 4058 :             } else {
; 4059 : 		xmlSchemaFreeValue(p1);

	push	esi
	call	_xmlSchemaFreeValue

; 4060 : 		xmlSchemaFreeValue(q1);

	push	DWORD PTR _q1$1$[ebp]
$LN107@xmlSchemaC:

; 4107 :         }
; 4108 :     }
; 4109 : 
; 4110 :     /*
; 4111 :      * if the same type then calculate the difference
; 4112 :      */
; 4113 :     if (x->type == y->type) {

	call	_xmlSchemaFreeValue
	add	esp, 8
$LN27@xmlSchemaC:
	mov	eax, DWORD PTR [edi]
	mov	edx, DWORD PTR [ebx]
	cmp	eax, edx
	jne	$LN36@xmlSchemaC

; 4114 :         int ret = 0;
; 4115 :         q1 = xmlSchemaDateNormalize(y, 0);

	sub	esp, 8
	xorps	xmm0, xmm0
	movsd	QWORD PTR [esp], xmm0
	push	ebx
	call	_xmlSchemaDateNormalize
	mov	ebx, eax

; 4116 :         q1d = _xmlSchemaDateCastYMToDays(q1) + q1->value.date.day;

	push	ebx
	mov	DWORD PTR _q1$3$[ebp], ebx
	call	__xmlSchemaDateCastYMToDays
	mov	esi, DWORD PTR [ebx+12]

; 4117 : 
; 4118 :         p1 = xmlSchemaDateNormalize(x, 0);

	add	esp, 8
	shr	esi, 4
	xorps	xmm0, xmm0
	and	esi, 31					; 0000001fH
	add	esi, eax
	movsd	QWORD PTR [esp], xmm0
	push	edi
	call	_xmlSchemaDateNormalize
	mov	edi, eax

; 4119 :         p1d = _xmlSchemaDateCastYMToDays(p1) + p1->value.date.day;

	push	edi
	mov	eax, DWORD PTR [edi+12]
	mov	DWORD PTR tv871[ebp], eax
	call	__xmlSchemaDateCastYMToDays
	mov	ecx, DWORD PTR tv871[ebp]
	add	esp, 16					; 00000010H
	shr	ecx, 4
	and	ecx, 31					; 0000001fH
	add	eax, ecx

; 4120 : 
; 4121 :         if (p1d < q1d) {

	cmp	eax, esi
	jl	$LN108@xmlSchemaC

; 4122 :             ret = -1;
; 4123 : 	} else if (p1d > q1d) {

	jle	$LN39@xmlSchemaC

; 4124 :             ret = 1;

	mov	ebx, 1

; 4125 : 	} else {

	jmp	$LN43@xmlSchemaC
$LN103@xmlSchemaC:

; 4035 : 		    xmlSchemaFreeValue(p1);

	push	esi
	call	_xmlSchemaFreeValue

; 4036 : 		    xmlSchemaFreeValue(q1);

	push	DWORD PTR _q1$1$[ebp]
	call	_xmlSchemaFreeValue
	add	esp, 8
$LN100@xmlSchemaC:

; 4037 :                     return -1;

	pop	esi
	pop	edi
	or	eax, -1

; 4252 : }

	pop	ebx
	mov	esp, ebp
	pop	ebp
	ret	0
$LN8@xmlSchemaC:

; 4061 : 	    }
; 4062 :         }
; 4063 :     } else if (y->value.date.tz_flag) {

	test	eax, eax
	je	$LN27@xmlSchemaC

; 4064 :         q1 = xmlSchemaDateNormalize(y, 0);

	sub	esp, 8
	xorps	xmm0, xmm0
	movsd	QWORD PTR [esp], xmm0
	push	ebx
	call	_xmlSchemaDateNormalize
	mov	esi, eax

; 4065 :         q1d = _xmlSchemaDateCastYMToDays(q1) + q1->value.date.day;

	push	esi
	mov	DWORD PTR _q1$2$[ebp], esi
	call	__xmlSchemaDateCastYMToDays
	mov	ecx, DWORD PTR [esi+12]

; 4066 : 
; 4067 :         /* normalize x - 14:00 */
; 4068 :         p1 = xmlSchemaDateNormalize(x, -(14 * SECS_PER_HOUR));

	add	esp, 8
	movsd	xmm0, QWORD PTR __real@c0e89c0000000000
	shr	ecx, 4
	and	ecx, 31					; 0000001fH
	add	eax, ecx
	movsd	QWORD PTR [esp], xmm0
	push	edi
	mov	DWORD PTR _q1d$2$[ebp], eax
	call	_xmlSchemaDateNormalize

; 4069 :         p1d = _xmlSchemaDateCastYMToDays(p1) + p1->value.date.day;

	push	eax
	mov	DWORD PTR _p1$3$[ebp], eax
	mov	ecx, DWORD PTR [eax+12]
	mov	DWORD PTR tv823[ebp], ecx
	call	__xmlSchemaDateCastYMToDays
	mov	ecx, DWORD PTR tv823[ebp]
	add	esp, 16					; 00000010H
	shr	ecx, 4
	and	ecx, 31					; 0000001fH
	lea	edx, DWORD PTR [ecx+eax]

; 4070 : 
; 4071 :         if (p1d < q1d) {

	cmp	edx, DWORD PTR _q1d$2$[ebp]
	jl	$LN102@xmlSchemaC

; 4072 : 	    xmlSchemaFreeValue(p1);
; 4073 : 	    xmlSchemaFreeValue(q1);
; 4074 :             return -1;
; 4075 : 	} else if (p1d == q1d) {

	jne	$LN26@xmlSchemaC

; 4076 :             double sec;
; 4077 : 
; 4078 :             sec = TIME_TO_NUMBER(p1) - TIME_TO_NUMBER(q1);

	mov	ecx, DWORD PTR tv823[ebp]
	mov	edx, DWORD PTR _p1$3$[ebp]
	shr	ecx, 9
	and	ecx, 31					; 0000001fH
	mov	esi, DWORD PTR [esi+12]
	mov	eax, ecx
	mov	edx, DWORD PTR [edx+24]
	shl	eax, 4
	sub	eax, ecx
	shl	edx, 19					; 00000013H
	mov	ecx, DWORD PTR tv823[ebp]
	shr	ecx, 14					; 0000000eH
	and	ecx, 63					; 0000003fH
	sar	edx, 20					; 00000014H
	lea	eax, DWORD PTR [edx+eax*4]
	mov	edx, DWORD PTR _q1$2$[ebp]
	add	eax, ecx
	mov	ecx, eax
	shl	ecx, 4
	sub	ecx, eax
	mov	edx, DWORD PTR [edx+24]
	mov	eax, DWORD PTR _p1$3$[ebp]
	shl	ecx, 2
	shl	edx, 19					; 00000013H
	sar	edx, 20					; 00000014H
	movd	xmm1, ecx
	shr	ecx, 31					; 0000001fH
	cvtdq2pd xmm1, xmm1
	addsd	xmm1, QWORD PTR __xmm@41f00000000000000000000000000000[ecx*8]
	mov	ecx, esi
	shr	esi, 14					; 0000000eH
	shr	ecx, 9
	and	esi, 63					; 0000003fH
	and	ecx, 31					; 0000001fH
	addsd	xmm1, QWORD PTR [eax+16]
	mov	eax, ecx
	shl	eax, 4
	sub	eax, ecx
	lea	eax, DWORD PTR [edx+eax*4]
	add	eax, esi
	mov	esi, DWORD PTR _q1$2$[ebp]
	mov	ecx, eax
	shl	ecx, 4
	sub	ecx, eax
	shl	ecx, 2
	movd	xmm0, ecx
	cvtdq2pd xmm0, xmm0
	shr	ecx, 31					; 0000001fH
	addsd	xmm0, QWORD PTR __xmm@41f00000000000000000000000000000[ecx*8]
	addsd	xmm0, QWORD PTR [esi+16]
	subsd	xmm1, xmm0
	xorps	xmm0, xmm0

; 4079 :             if (sec < 0.0) {

	comisd	xmm0, xmm1
	ja	$LN102@xmlSchemaC

; 4082 :                 return -1;
; 4083 : 	    } else {
; 4084 : 	        int ret = 0;
; 4085 :                 /* normalize x + 14:00 */
; 4086 :                 p2 = xmlSchemaDateNormalize(x, (14 * SECS_PER_HOUR));

	movsd	xmm0, QWORD PTR __real@40e89c0000000000
	sub	esp, 8
	xor	eax, eax
	mov	DWORD PTR _ret$1$[ebp], eax
	movsd	QWORD PTR [esp], xmm0
	push	edi
	call	_xmlSchemaDateNormalize

; 4087 :                 p2d = _xmlSchemaDateCastYMToDays(p2) + p2->value.date.day;

	push	eax
	mov	DWORD PTR _p2$1$[ebp], eax
	mov	ecx, DWORD PTR [eax+12]
	mov	DWORD PTR tv845[ebp], ecx
	call	__xmlSchemaDateCastYMToDays
	mov	ecx, DWORD PTR tv845[ebp]
	add	esp, 16					; 00000010H
	shr	ecx, 4
	and	ecx, 31					; 0000001fH
	lea	edx, DWORD PTR [ecx+eax]

; 4088 : 
; 4089 :                 if (p2d > q1d) {

	cmp	edx, DWORD PTR _q1d$2$[ebp]
	jle	SHORT $LN30@xmlSchemaC

; 4090 :                     ret = 1;

	mov	eax, 1
	jmp	$LN106@xmlSchemaC
$LN30@xmlSchemaC:

; 4091 : 		} else if (p2d == q1d) {

	jne	$LN33@xmlSchemaC

; 4092 :                     sec = TIME_TO_NUMBER(p2) - TIME_TO_NUMBER(q1);

	mov	ecx, DWORD PTR tv845[ebp]
	mov	edx, DWORD PTR _p2$1$[ebp]
	mov	edi, DWORD PTR [esi+12]
	shr	ecx, 9
	and	ecx, 31					; 0000001fH
	mov	edx, DWORD PTR [edx+24]
	mov	eax, ecx
	shl	eax, 4
	sub	eax, ecx
	shl	edx, 19					; 00000013H
	sar	edx, 20					; 00000014H
	mov	ecx, edi
	shr	ecx, 9
	and	ecx, 31					; 0000001fH
	shr	edi, 14					; 0000000eH
	and	edi, 63					; 0000003fH
	lea	esi, DWORD PTR [edx+eax*4]
	mov	eax, DWORD PTR tv845[ebp]
	mov	edx, DWORD PTR _q1$2$[ebp]
	shr	eax, 14					; 0000000eH
	and	eax, 63					; 0000003fH
	add	esi, eax
	mov	eax, ecx
	mov	edx, DWORD PTR [edx+24]
	shl	eax, 4
	sub	eax, ecx
	shl	edx, 19					; 00000013H
	sar	edx, 20					; 00000014H
	lea	ecx, DWORD PTR [edx+eax*4]
	imul	eax, esi, 15
	mov	esi, DWORD PTR _q1$2$[ebp]
	add	ecx, edi
	mov	edi, DWORD PTR _x$[ebp]
	shl	eax, 2
	movd	xmm1, eax
	shr	eax, 31					; 0000001fH
	cvtdq2pd xmm1, xmm1
	addsd	xmm1, QWORD PTR __xmm@41f00000000000000000000000000000[eax*8]
	mov	eax, DWORD PTR _p2$1$[ebp]
	addsd	xmm1, QWORD PTR [eax+16]
	imul	eax, ecx, 15
	shl	eax, 2
	movd	xmm0, eax
	cvtdq2pd xmm0, xmm0
	shr	eax, 31					; 0000001fH
	addsd	xmm0, QWORD PTR __xmm@41f00000000000000000000000000000[eax*8]

; 4093 :                     if (sec > 0.0)

	xor	eax, eax
	addsd	xmm0, QWORD PTR [esi+16]
	subsd	xmm1, xmm0
	comisd	xmm1, QWORD PTR __real@0000000000000000
	setbe	al
	inc	eax
$LN106@xmlSchemaC:

; 4094 :                         ret = 1;
; 4095 :                     else
; 4096 :                         ret = 2; /* indeterminate */
; 4097 :                 }
; 4098 : 		xmlSchemaFreeValue(p1);

	mov	DWORD PTR _ret$1$[ebp], eax
$LN33@xmlSchemaC:
	push	DWORD PTR _p1$3$[ebp]
	call	_xmlSchemaFreeValue

; 4099 : 		xmlSchemaFreeValue(q1);

	push	esi
	call	_xmlSchemaFreeValue

; 4100 : 		xmlSchemaFreeValue(p2);

	push	DWORD PTR _p2$1$[ebp]
	call	_xmlSchemaFreeValue

; 4101 : 		if (ret != 0)

	mov	eax, DWORD PTR _ret$1$[ebp]
	add	esp, 12					; 0000000cH
	test	eax, eax
	je	$LN27@xmlSchemaC

; 4252 : }

	pop	esi
	pop	edi
	pop	ebx
	mov	esp, ebp
	pop	ebp
	ret	0
$LN26@xmlSchemaC:

; 4102 : 		    return(ret);
; 4103 :             }
; 4104 : 	} else {
; 4105 : 	    xmlSchemaFreeValue(p1);

	push	DWORD PTR _p1$3$[ebp]
	call	_xmlSchemaFreeValue

; 4106 : 	    xmlSchemaFreeValue(q1);

	push	esi
	jmp	$LN107@xmlSchemaC
$LN102@xmlSchemaC:

; 4080 : 		xmlSchemaFreeValue(p1);

	push	DWORD PTR _p1$3$[ebp]
	call	_xmlSchemaFreeValue

; 4081 : 		xmlSchemaFreeValue(q1);

	push	esi
	call	_xmlSchemaFreeValue
	add	esp, 8
	or	eax, -1
	pop	esi
	pop	edi

; 4252 : }

	pop	ebx
	mov	esp, ebp
	pop	ebp
	ret	0
$LN39@xmlSchemaC:

; 4126 :             double sec;
; 4127 : 
; 4128 :             sec = TIME_TO_NUMBER(p1) - TIME_TO_NUMBER(q1);

	mov	ecx, DWORD PTR tv871[ebp]
	mov	edx, DWORD PTR [edi+24]
	shr	ecx, 9
	and	ecx, 31					; 0000001fH
	shl	edx, 19					; 00000013H
	mov	eax, ecx
	sar	edx, 20					; 00000014H
	shl	eax, 4
	sub	eax, ecx
	mov	esi, DWORD PTR [ebx+12]
	mov	ecx, DWORD PTR tv871[ebp]
	shr	ecx, 14					; 0000000eH
	and	ecx, 63					; 0000003fH
	lea	eax, DWORD PTR [edx+eax*4]
	mov	edx, DWORD PTR [ebx+24]
	add	eax, ecx
	shl	edx, 19					; 00000013H
	mov	ecx, eax
	sar	edx, 20					; 00000014H
	shl	ecx, 4
	sub	ecx, eax
	shl	ecx, 2
	movd	xmm1, ecx
	shr	ecx, 31					; 0000001fH
	cvtdq2pd xmm1, xmm1
	addsd	xmm1, QWORD PTR __xmm@41f00000000000000000000000000000[ecx*8]
	mov	ecx, esi
	shr	esi, 14					; 0000000eH
	shr	ecx, 9
	and	esi, 63					; 0000003fH
	and	ecx, 31					; 0000001fH
	mov	eax, ecx
	shl	eax, 4
	sub	eax, ecx
	addsd	xmm1, QWORD PTR [edi+16]
	lea	eax, DWORD PTR [edx+eax*4]
	add	eax, esi
	mov	ecx, eax
	shl	ecx, 4
	sub	ecx, eax
	shl	ecx, 2
	movd	xmm0, ecx
	cvtdq2pd xmm0, xmm0
	shr	ecx, 31					; 0000001fH
	addsd	xmm0, QWORD PTR __xmm@41f00000000000000000000000000000[ecx*8]
	addsd	xmm0, QWORD PTR [ebx+16]
	subsd	xmm1, xmm0
	xorps	xmm0, xmm0

; 4129 :             if (sec < 0.0)

	comisd	xmm0, xmm1
	jbe	SHORT $LN41@xmlSchemaC
$LN108@xmlSchemaC:

; 4132 :                 ret = 1;
; 4133 : 
; 4134 :         }
; 4135 : 	xmlSchemaFreeValue(p1);

	or	ebx, -1
	jmp	SHORT $LN43@xmlSchemaC
$LN41@xmlSchemaC:

; 4130 :                 ret = -1;
; 4131 :             else if (sec > 0.0)

	comisd	xmm1, xmm0
	mov	eax, 1
	mov	ebx, 0
	cmova	ebx, eax
$LN43@xmlSchemaC:

; 4132 :                 ret = 1;
; 4133 : 
; 4134 :         }
; 4135 : 	xmlSchemaFreeValue(p1);

	push	edi
	call	_xmlSchemaFreeValue

; 4136 : 	xmlSchemaFreeValue(q1);

	push	DWORD PTR _q1$3$[ebp]
	call	_xmlSchemaFreeValue
	add	esp, 8

; 4137 :         return(ret);

	mov	eax, ebx
	pop	esi
	pop	edi

; 4252 : }

	pop	ebx
	mov	esp, ebp
	pop	ebp
	ret	0
$LN36@xmlSchemaC:

; 4138 :     }
; 4139 : 
; 4140 :     switch (x->type) {

	add	eax, -4					; fffffffcH
	cmp	eax, 7
	ja	SHORT $LN52@xmlSchemaC
	jmp	DWORD PTR $LN111@xmlSchemaC[eax*4]
$LN44@xmlSchemaC:

; 4141 :         case XML_SCHEMAS_DATETIME:
; 4142 :             xmask = 0xf;

	mov	cl, 15					; 0000000fH

; 4143 :             break;

	jmp	SHORT $LN2@xmlSchemaC
$LN45@xmlSchemaC:

; 4144 :         case XML_SCHEMAS_DATE:
; 4145 :             xmask = 0x7;

	mov	cl, 7

; 4146 :             break;

	jmp	SHORT $LN2@xmlSchemaC
$LN46@xmlSchemaC:

; 4147 :         case XML_SCHEMAS_GYEAR:
; 4148 :             xmask = 0x1;

	mov	cl, 1

; 4149 :             break;

	jmp	SHORT $LN2@xmlSchemaC
$LN47@xmlSchemaC:

; 4150 :         case XML_SCHEMAS_GMONTH:
; 4151 :             xmask = 0x2;

	mov	cl, 2

; 4152 :             break;

	jmp	SHORT $LN2@xmlSchemaC
$LN48@xmlSchemaC:

; 4167 :             break;
; 4168 :     }
; 4169 : 
; 4170 :     switch (y->type) {

	mov	cl, 3
	jmp	SHORT $LN2@xmlSchemaC
$LN50@xmlSchemaC:

; 4153 :         case XML_SCHEMAS_GDAY:
; 4154 :             xmask = 0x3;
; 4155 :             break;
; 4156 :         case XML_SCHEMAS_GYEARMONTH:
; 4157 :             xmask = 0x3;
; 4158 :             break;
; 4159 :         case XML_SCHEMAS_GMONTHDAY:
; 4160 :             xmask = 0x6;

	mov	cl, 6

; 4161 :             break;

	jmp	SHORT $LN2@xmlSchemaC
$LN51@xmlSchemaC:

; 4162 :         case XML_SCHEMAS_TIME:
; 4163 :             xmask = 0x8;

	mov	cl, 8

; 4164 :             break;

	jmp	SHORT $LN2@xmlSchemaC
$LN52@xmlSchemaC:

; 4165 :         default:
; 4166 :             xmask = 0;

	xor	cl, cl
$LN2@xmlSchemaC:

; 4167 :             break;
; 4168 :     }
; 4169 : 
; 4170 :     switch (y->type) {

	lea	eax, DWORD PTR [edx-4]
	cmp	eax, 7
	ja	SHORT $LN61@xmlSchemaC
	jmp	DWORD PTR $LN112@xmlSchemaC[eax*4]
$LN53@xmlSchemaC:

; 4171 :         case XML_SCHEMAS_DATETIME:
; 4172 :             ymask = 0xf;

	mov	al, 15					; 0000000fH

; 4173 :             break;

	jmp	SHORT $LN4@xmlSchemaC
$LN54@xmlSchemaC:

; 4174 :         case XML_SCHEMAS_DATE:
; 4175 :             ymask = 0x7;

	mov	al, 7

; 4176 :             break;

	jmp	SHORT $LN4@xmlSchemaC
$LN55@xmlSchemaC:

; 4177 :         case XML_SCHEMAS_GYEAR:
; 4178 :             ymask = 0x1;

	mov	al, 1

; 4179 :             break;

	jmp	SHORT $LN4@xmlSchemaC
$LN56@xmlSchemaC:

; 4180 :         case XML_SCHEMAS_GMONTH:
; 4181 :             ymask = 0x2;

	mov	al, 2

; 4182 :             break;

	jmp	SHORT $LN4@xmlSchemaC
$LN57@xmlSchemaC:

; 4197 :             break;
; 4198 :     }
; 4199 : 
; 4200 :     xor_mask = xmask ^ ymask;           /* mark type differences */

	mov	al, 3
	jmp	SHORT $LN4@xmlSchemaC
$LN59@xmlSchemaC:

; 4183 :         case XML_SCHEMAS_GDAY:
; 4184 :             ymask = 0x3;
; 4185 :             break;
; 4186 :         case XML_SCHEMAS_GYEARMONTH:
; 4187 :             ymask = 0x3;
; 4188 :             break;
; 4189 :         case XML_SCHEMAS_GMONTHDAY:
; 4190 :             ymask = 0x6;

	mov	al, 6

; 4191 :             break;

	jmp	SHORT $LN4@xmlSchemaC
$LN60@xmlSchemaC:

; 4192 :         case XML_SCHEMAS_TIME:
; 4193 :             ymask = 0x8;

	mov	al, 8

; 4194 :             break;

	jmp	SHORT $LN4@xmlSchemaC
$LN61@xmlSchemaC:

; 4195 :         default:
; 4196 :             ymask = 0;

	xor	al, al
$LN4@xmlSchemaC:

; 4197 :             break;
; 4198 :     }
; 4199 : 
; 4200 :     xor_mask = xmask ^ ymask;           /* mark type differences */

	mov	dl, al

; 4201 :     and_mask = xmask & ymask;           /* mark field specification */

	and	al, cl
	xor	dl, cl

; 4202 : 
; 4203 :     /* year */
; 4204 :     if (xor_mask & 1)

	test	dl, 1
	jne	$LN101@xmlSchemaC

; 4205 :         return 2; /* indeterminate */
; 4206 :     else if (and_mask & 1) {

	test	al, 1
	je	SHORT $LN67@xmlSchemaC

; 4207 :         if (x->value.date.year < y->value.date.year)

	mov	ecx, DWORD PTR [edi+8]
	cmp	ecx, DWORD PTR [ebx+8]
	jl	$LN100@xmlSchemaC

; 4208 :             return -1;
; 4209 :         else if (x->value.date.year > y->value.date.year)

	jg	$LN99@xmlSchemaC
$LN67@xmlSchemaC:

; 4210 :             return 1;
; 4211 :     }
; 4212 : 
; 4213 :     /* month */
; 4214 :     if (xor_mask & 2)

	test	dl, 2
	jne	$LN101@xmlSchemaC

; 4215 :         return 2; /* indeterminate */
; 4216 :     else if (and_mask & 2) {

	test	al, 2
	je	SHORT $LN97@xmlSchemaC

; 4217 :         if (x->value.date.mon < y->value.date.mon)

	mov	ecx, DWORD PTR [edi+12]
	mov	esi, DWORD PTR [ebx+12]
	and	ecx, 15					; 0000000fH
	and	esi, 15					; 0000000fH
	cmp	ecx, esi
	jb	$LN100@xmlSchemaC

; 4218 :             return -1;
; 4219 :         else if (x->value.date.mon > y->value.date.mon)

	ja	$LN99@xmlSchemaC
$LN97@xmlSchemaC:

; 4220 :             return 1;
; 4221 :     }
; 4222 : 
; 4223 :     /* day */
; 4224 :     if (xor_mask & 4)

	test	dl, 4
	jne	$LN101@xmlSchemaC

; 4225 :         return 2; /* indeterminate */
; 4226 :     else if (and_mask & 4) {

	test	al, 4
	je	SHORT $LN98@xmlSchemaC

; 4227 :         if (x->value.date.day < y->value.date.day)

	mov	ecx, DWORD PTR [edi+12]
	mov	esi, DWORD PTR [ebx+12]
	shr	ecx, 4
	shr	esi, 4
	and	ecx, 31					; 0000001fH
	and	esi, 31					; 0000001fH
	cmp	ecx, esi
	jb	$LN100@xmlSchemaC

; 4228 :             return -1;
; 4229 :         else if (x->value.date.day > y->value.date.day)

	ja	SHORT $LN99@xmlSchemaC
$LN98@xmlSchemaC:

; 4230 :             return 1;
; 4231 :     }
; 4232 : 
; 4233 :     /* time */
; 4234 :     if (xor_mask & 8)

	test	dl, 8
	jne	SHORT $LN101@xmlSchemaC

; 4236 :     else if (and_mask & 8) {

	test	al, 8
	je	SHORT $LN93@xmlSchemaC

; 4237 :         if (x->value.date.hour < y->value.date.hour)

	mov	eax, DWORD PTR [edi+12]
	mov	edx, eax
	mov	ecx, DWORD PTR [ebx+12]
	mov	esi, ecx
	shr	edx, 9
	shr	esi, 9
	and	edx, 31					; 0000001fH
	and	esi, 31					; 0000001fH
	cmp	edx, esi
	jb	$LN100@xmlSchemaC

; 4238 :             return -1;
; 4239 :         else if (x->value.date.hour > y->value.date.hour)

	ja	SHORT $LN99@xmlSchemaC

; 4240 :             return 1;
; 4241 :         else if (x->value.date.min < y->value.date.min)

	shr	eax, 14					; 0000000eH
	shr	ecx, 14					; 0000000eH
	and	eax, 63					; 0000003fH
	and	ecx, 63					; 0000003fH
	cmp	eax, ecx
	jb	$LN100@xmlSchemaC

; 4242 :             return -1;
; 4243 :         else if (x->value.date.min > y->value.date.min)

	ja	SHORT $LN99@xmlSchemaC

; 4244 :             return 1;
; 4245 :         else if (x->value.date.sec < y->value.date.sec)

	movsd	xmm1, QWORD PTR [edi+16]
	movsd	xmm0, QWORD PTR [ebx+16]
	comisd	xmm0, xmm1
	ja	$LN100@xmlSchemaC

; 4246 :             return -1;
; 4247 :         else if (x->value.date.sec > y->value.date.sec)

	comisd	xmm1, xmm0
	jbe	SHORT $LN93@xmlSchemaC
$LN99@xmlSchemaC:
	pop	esi
	pop	edi

; 4248 :             return 1;

	mov	eax, 1

; 4252 : }

	pop	ebx
	mov	esp, ebp
	pop	ebp
	ret	0
$LN93@xmlSchemaC:
	pop	esi
	pop	edi

; 4249 :     }
; 4250 : 
; 4251 :     return 0;

	xor	eax, eax

; 4252 : }

	pop	ebx
	mov	esp, ebp
	pop	ebp
	ret	0
$LN101@xmlSchemaC:
	pop	esi
	pop	edi

; 4235 :         return 2; /* indeterminate */

	mov	eax, 2

; 4252 : }

	pop	ebx
	mov	esp, ebp
	pop	ebp
	ret	0
$LN7@xmlSchemaC:
	pop	edi

; 4015 :         return -2;

	mov	eax, -2					; fffffffeH

; 4252 : }

	pop	ebx
	mov	esp, ebp
	pop	ebp
	ret	0
$LN111@xmlSchemaC:
	DD	$LN51@xmlSchemaC
	DD	$LN48@xmlSchemaC
	DD	$LN47@xmlSchemaC
	DD	$LN50@xmlSchemaC
	DD	$LN46@xmlSchemaC
	DD	$LN48@xmlSchemaC
	DD	$LN45@xmlSchemaC
	DD	$LN44@xmlSchemaC
$LN112@xmlSchemaC:
	DD	$LN60@xmlSchemaC
	DD	$LN57@xmlSchemaC
	DD	$LN56@xmlSchemaC
	DD	$LN59@xmlSchemaC
	DD	$LN55@xmlSchemaC
	DD	$LN57@xmlSchemaC
	DD	$LN54@xmlSchemaC
	DD	$LN53@xmlSchemaC
_xmlSchemaCompareDates ENDP
_TEXT	ENDS
; Function compile flags: /Ogtp
; File c:\users\dag\documents\_clients\codeproject authors group\windows on arm\libxml2\libxml2-2.9.9\xmlschemastypes.c
;	COMDAT __xmlSchemaDateCastYMToDays
_TEXT	SEGMENT
tv263 = 8						; size = 4
tv262 = 8						; size = 4
_dt$ = 8						; size = 4
__xmlSchemaDateCastYMToDays PROC			; COMDAT

; 3962 : {

	push	ebp
	mov	ebp, esp
	push	ebx
	push	esi
	push	edi
	mov	ecx, OFFSET __74485836_xmlschemastypes@c
	call	@__CheckForDebuggerJustMyCode@4
	mov	eax, DWORD PTR _dt$[ebp]
	mov	edx, 1
	mov	ecx, DWORD PTR [eax+12]
	mov	ebx, DWORD PTR [eax+8]
	and	ecx, 15					; 0000000fH
	mov	eax, ebx
	cmovbe	ecx, edx
	and	eax, -2147483645			; 80000003H
	jns	SHORT $LN12@xmlSchemaD

; 3963 :     long ret;
; 3964 :     int mon;
; 3965 : 
; 3966 :     mon = dt->value.date.mon;
; 3967 :     if (mon <= 0) mon = 1; /* normalization */
; 3968 : 
; 3969 :     if (dt->value.date.year <= 0)

	dec	eax
	or	eax, -4					; fffffffcH
	inc	eax
$LN12@xmlSchemaD:
	test	ebx, ebx
	jg	SHORT $LN3@xmlSchemaD

; 3970 :         ret = (dt->value.date.year * 365) +

	test	eax, eax
	jne	SHORT $LN6@xmlSchemaD
	mov	eax, ebx
	mov	esi, 100				; 00000064H
	cdq
	idiv	esi
	test	edx, edx
	jne	SHORT $LN7@xmlSchemaD
$LN6@xmlSchemaD:
	mov	eax, ebx
	mov	esi, 400				; 00000190H
	cdq
	idiv	esi
	test	edx, edx
	je	SHORT $LN7@xmlSchemaD
	mov	eax, DWORD PTR _dayInYearByMonth[ecx*4-4]
	jmp	SHORT $LN13@xmlSchemaD
$LN7@xmlSchemaD:
	mov	eax, DWORD PTR _dayInLeapYearByMonth[ecx*4-4]
$LN13@xmlSchemaD:
	mov	DWORD PTR tv263[ebp], eax
	lea	edi, DWORD PTR [ebx+1]
	mov	eax, 1374389535				; 51eb851fH
	imul	edi
	mov	eax, 1374389535				; 51eb851fH
	sar	edx, 7
	mov	esi, edx
	shr	esi, 31					; 0000001fH
	add	esi, edx
	imul	edi
	mov	eax, edi
	sar	edx, 5
	mov	ecx, edx
	shr	ecx, 31					; 0000001fH
	add	ecx, edx
	cdq
	sub	esi, ecx
	and	edx, 3
	pop	edi
	lea	ecx, DWORD PTR [edx+eax]
	imul	eax, ebx, 365
	sar	ecx, 2
	add	ecx, DWORD PTR tv263[ebp]
	add	ecx, esi

; 3976 :               (((dt->value.date.year-1)/4)-((dt->value.date.year-1)/100)+
; 3977 :                ((dt->value.date.year-1)/400)) +
; 3978 :               DAY_IN_YEAR(0, mon, dt->value.date.year);
; 3979 : 
; 3980 :     return ret;
; 3981 : }

	pop	esi
	add	eax, ecx
	pop	ebx
	pop	ebp
	ret	0
$LN3@xmlSchemaD:

; 3971 :               (((dt->value.date.year+1)/4)-((dt->value.date.year+1)/100)+
; 3972 :                ((dt->value.date.year+1)/400)) +
; 3973 :               DAY_IN_YEAR(0, mon, dt->value.date.year);
; 3974 :     else
; 3975 :         ret = ((dt->value.date.year-1) * 365) +

	test	eax, eax
	jne	SHORT $LN9@xmlSchemaD
	mov	eax, ebx
	mov	esi, 100				; 00000064H
	cdq
	idiv	esi
	test	edx, edx
	jne	SHORT $LN10@xmlSchemaD
$LN9@xmlSchemaD:
	mov	eax, ebx
	mov	esi, 400				; 00000190H
	cdq
	idiv	esi
	test	edx, edx
	je	SHORT $LN10@xmlSchemaD
	mov	eax, DWORD PTR _dayInYearByMonth[ecx*4-4]
	jmp	SHORT $LN15@xmlSchemaD
$LN10@xmlSchemaD:
	mov	eax, DWORD PTR _dayInLeapYearByMonth[ecx*4-4]
$LN15@xmlSchemaD:
	mov	DWORD PTR tv262[ebp], eax
	lea	edi, DWORD PTR [ebx-1]
	mov	eax, 1374389535				; 51eb851fH
	imul	edi
	mov	eax, 1374389535				; 51eb851fH
	sar	edx, 7
	mov	esi, edx
	shr	esi, 31					; 0000001fH
	add	esi, edx
	imul	edi
	mov	eax, edi
	sar	edx, 5
	mov	ecx, edx
	shr	ecx, 31					; 0000001fH
	add	ecx, edx
	cdq
	sub	esi, ecx
	and	edx, 3
	add	eax, edx
	imul	ecx, ebx, 365
	sar	eax, 2
	add	eax, DWORD PTR tv262[ebp]
	pop	edi
	add	eax, esi
	add	ecx, -365				; fffffe93H

; 3976 :               (((dt->value.date.year-1)/4)-((dt->value.date.year-1)/100)+
; 3977 :                ((dt->value.date.year-1)/400)) +
; 3978 :               DAY_IN_YEAR(0, mon, dt->value.date.year);
; 3979 : 
; 3980 :     return ret;
; 3981 : }

	pop	esi
	add	eax, ecx
	pop	ebx
	pop	ebp
	ret	0
__xmlSchemaDateCastYMToDays ENDP
_TEXT	ENDS
; Function compile flags: /Ogtp
; File c:\users\dag\documents\_clients\codeproject authors group\windows on arm\libxml2\libxml2-2.9.9\xmlschemastypes.c
;	COMDAT _xmlSchemaDateNormalize
_TEXT	SEGMENT
_dt$ = 8						; size = 4
_offset$ = 12						; size = 8
_xmlSchemaDateNormalize PROC				; COMDAT

; 3922 : {

	push	ebp
	mov	ebp, esp
	push	esi
	push	edi
	mov	ecx, OFFSET __74485836_xmlschemastypes@c
	call	@__CheckForDebuggerJustMyCode@4
	mov	esi, DWORD PTR _dt$[ebp]
	test	esi, esi
	je	SHORT $LN13@xmlSchemaD

; 3923 :     xmlSchemaValPtr dur, ret;
; 3924 : 
; 3925 :     if (dt == NULL)
; 3926 :         return NULL;
; 3927 : 
; 3928 :     if (((dt->type != XML_SCHEMAS_TIME) &&
; 3929 :          (dt->type != XML_SCHEMAS_DATETIME) &&
; 3930 : 	 (dt->type != XML_SCHEMAS_DATE)) || (dt->value.date.tzo == 0))

	mov	eax, DWORD PTR [esi]
	cmp	eax, 4
	je	SHORT $LN5@xmlSchemaD
	cmp	eax, 11					; 0000000bH
	je	SHORT $LN5@xmlSchemaD
	cmp	eax, 10					; 0000000aH
	jne	SHORT $LN4@xmlSchemaD
$LN5@xmlSchemaD:
	test	DWORD PTR [esi+24], 8190		; 00001ffeH
	jne	SHORT $LN3@xmlSchemaD
$LN4@xmlSchemaD:

; 3931 :         return xmlSchemaDupVal(dt);

	push	esi
	call	_xmlSchemaDupVal
	add	esp, 4
	pop	edi

; 3947 : }

	pop	esi
	pop	ebp
	ret	0
$LN3@xmlSchemaD:

; 230  :     value = (xmlSchemaValPtr) xmlMalloc(sizeof(xmlSchemaVal));

	push	32					; 00000020H
	call	DWORD PTR _xmlMalloc
	mov	edi, eax
	add	esp, 4

; 231  :     if (value == NULL) {

	test	edi, edi
	je	SHORT $LN13@xmlSchemaD
	xorps	xmm0, xmm0

; 232  : 	return(NULL);
; 233  :     }
; 234  :     memset(value, 0, sizeof(xmlSchemaVal));

	movups	XMMWORD PTR [edi], xmm0

; 3938 : 
; 3939 :     ret = _xmlSchemaDateAdd(dt, dur);

	push	edi

; 234  :     memset(value, 0, sizeof(xmlSchemaVal));

	movups	XMMWORD PTR [edi+16], xmm0

; 235  :     value->type = type;

	mov	DWORD PTR [edi], 12			; 0000000cH

; 3932 : 
; 3933 :     dur = xmlSchemaNewValue(XML_SCHEMAS_DURATION);
; 3934 :     if (dur == NULL)
; 3935 :         return NULL;
; 3936 : 
; 3937 :     dur->value.date.sec -= offset;

	movsd	xmm0, QWORD PTR [edi+16]
	subsd	xmm0, QWORD PTR _offset$[ebp]

; 3938 : 
; 3939 :     ret = _xmlSchemaDateAdd(dt, dur);

	push	esi
	movsd	QWORD PTR [edi+16], xmm0
	call	__xmlSchemaDateAdd
	mov	esi, eax
	add	esp, 8

; 3940 :     if (ret == NULL)

	test	esi, esi
	je	SHORT $LN13@xmlSchemaD

; 3942 : 
; 3943 :     xmlSchemaFreeValue(dur);

	push	edi
	call	_xmlSchemaFreeValue
	add	esp, 4

; 3944 : 
; 3945 :     /* ret->value.date.tzo = 0; */
; 3946 :     return ret;

	mov	eax, esi
	pop	edi

; 3947 : }

	pop	esi
	pop	ebp
	ret	0
$LN13@xmlSchemaD:
	pop	edi

; 3941 :         return NULL;

	xor	eax, eax

; 3947 : }

	pop	esi
	pop	ebp
	ret	0
_xmlSchemaDateNormalize ENDP
_TEXT	ENDS
; Function compile flags: /Ogtp
; File c:\users\dag\documents\_clients\codeproject authors group\windows on arm\libxml2\libxml2-2.9.9\xmlschemastypes.c
;	COMDAT __xmlSchemaDateAdd
_TEXT	SEGMENT
tv2321 = -40						; size = 8
tv2259 = -40						; size = 8
tv2246 = -40						; size = 8
tv2198 = -40						; size = 8
tv2185 = -40						; size = 8
tv2166 = -40						; size = 8
tv2152 = -40						; size = 8
tv2123 = -40						; size = 8
tv1897 = -40						; size = 8
tv1877 = -40						; size = 8
tv1794 = -40						; size = 8
tv1735 = -40						; size = 8
tv2005 = -36						; size = 4
_temp$1$ = -36						; size = 4
tv2238 = -32						; size = 8
tv2225 = -32						; size = 8
tv2218 = -32						; size = 8
tv1954 = -28						; size = 4
tv2231 = -24						; size = 8
tv1953 = -20						; size = 4
tv2030 = -16						; size = 4
tv2028 = -16						; size = 4
tv2008 = -16						; size = 4
_type$1$ = -16						; size = 4
tv2090 = -12						; size = 8
tv2068 = -12						; size = 8
$T1 = -8						; size = 4
tv2013 = -8						; size = 4
_tmon$3$ = -8						; size = 4
_tmp$1$ = -4						; size = 4
_value$1$ = 8						; size = 4
_dt$ = 8						; size = 4
_dur$ = 12						; size = 4
__xmlSchemaDateAdd PROC					; COMDAT

; 3769 : {

	push	ebp
	mov	ebp, esp
	sub	esp, 40					; 00000028H
	mov	ecx, OFFSET __74485836_xmlschemastypes@c
	push	ebx
	push	esi
	push	edi
	call	@__CheckForDebuggerJustMyCode@4
	mov	edi, DWORD PTR _dt$[ebp]
	test	edi, edi
	je	SHORT $LN5@xmlSchemaD

; 3770 :     xmlSchemaValPtr ret, tmp;
; 3771 :     long carry, tempdays, temp;
; 3772 :     xmlSchemaValDatePtr r, d;
; 3773 :     xmlSchemaValDurationPtr u;
; 3774 : 
; 3775 :     if ((dt == NULL) || (dur == NULL))

	mov	esi, DWORD PTR _dur$[ebp]
	test	esi, esi
	je	SHORT $LN5@xmlSchemaD

; 3776 :         return NULL;
; 3777 : 
; 3778 :     ret = xmlSchemaNewValue(dt->type);

	mov	eax, DWORD PTR [edi]

; 230  :     value = (xmlSchemaValPtr) xmlMalloc(sizeof(xmlSchemaVal));

	push	32					; 00000020H

; 3776 :         return NULL;
; 3777 : 
; 3778 :     ret = xmlSchemaNewValue(dt->type);

	mov	DWORD PTR _type$1$[ebp], eax

; 230  :     value = (xmlSchemaValPtr) xmlMalloc(sizeof(xmlSchemaVal));

	call	DWORD PTR _xmlMalloc
	mov	ebx, eax
	add	esp, 4
	mov	DWORD PTR _value$1$[ebp], ebx

; 231  :     if (value == NULL) {

	test	ebx, ebx
	je	SHORT $LN5@xmlSchemaD

; 235  :     value->type = type;

	mov	eax, DWORD PTR _type$1$[ebp]
	xorps	xmm0, xmm0

; 232  : 	return(NULL);
; 233  :     }
; 234  :     memset(value, 0, sizeof(xmlSchemaVal));

	movups	XMMWORD PTR [ebx], xmm0

; 3779 :     if (ret == NULL)
; 3780 :         return NULL;
; 3781 : 
; 3782 :     /* make a copy so we don't alter the original value */
; 3783 :     tmp = xmlSchemaDupVal(dt);

	push	edi

; 234  :     memset(value, 0, sizeof(xmlSchemaVal));

	movups	XMMWORD PTR [ebx+16], xmm0

; 235  :     value->type = type;

	mov	DWORD PTR [ebx], eax

; 3779 :     if (ret == NULL)
; 3780 :         return NULL;
; 3781 : 
; 3782 :     /* make a copy so we don't alter the original value */
; 3783 :     tmp = xmlSchemaDupVal(dt);

	call	_xmlSchemaDupVal
	mov	edx, eax
	add	esp, 4
	mov	DWORD PTR _tmp$1$[ebp], edx

; 3784 :     if (tmp == NULL) {

	test	edx, edx
	jne	SHORT $LN7@xmlSchemaD

; 3785 :         xmlSchemaFreeValue(ret);

	push	ebx
	call	_xmlSchemaFreeValue
	add	esp, 4
$LN5@xmlSchemaD:

; 3908 : }

	xor	eax, eax
	pop	edi
	pop	esi
	pop	ebx
	mov	esp, ebp
	pop	ebp
	ret	0
$LN7@xmlSchemaD:

; 3786 :         return NULL;
; 3787 :     }
; 3788 : 
; 3789 :     r = &(ret->value.date);
; 3790 :     d = &(tmp->value.date);
; 3791 :     u = &(dur->value.dur);
; 3792 : 
; 3793 :     /* normalization */
; 3794 :     if (d->mon == 0)

	mov	eax, DWORD PTR [edx+12]
	test	al, 15					; 0000000fH
	jne	SHORT $LN8@xmlSchemaD

; 3795 :         d->mon = 1;

	and	eax, -15				; fffffff1H
	or	eax, 1
	mov	DWORD PTR [edx+12], eax
$LN8@xmlSchemaD:

; 3796 : 
; 3797 :     /* normalize for time zone offset */
; 3798 :     u->sec -= (d->tzo * 60);

	mov	ecx, DWORD PTR [edx+24]
	movsd	xmm1, QWORD PTR [esi+16]
	shl	ecx, 19					; 00000013H
	sar	ecx, 20					; 00000014H
	mov	eax, ecx
	shl	eax, 4
	sub	eax, ecx
	shl	eax, 2
	movd	xmm0, eax
	cvtdq2pd xmm0, xmm0
	subsd	xmm1, xmm0
	movsd	QWORD PTR [esi+16], xmm1

; 3799 :     d->tzo = 0;

	and	DWORD PTR [edx+24], -8191		; ffffe001H

; 3800 : 
; 3801 :     /* normalization */
; 3802 :     if (d->day == 0)

	mov	ecx, DWORD PTR [edx+12]
	test	ecx, 496				; 000001f0H
	jne	SHORT $LN9@xmlSchemaD

; 3803 :         d->day = 1;

	and	ecx, -481				; fffffe1fH
	or	ecx, 16					; 00000010H
	mov	DWORD PTR [edx+12], ecx
$LN9@xmlSchemaD:

; 3804 : 
; 3805 :     /* month */
; 3806 :     carry  = d->mon + u->mon;

	mov	esi, DWORD PTR [esi+8]
	and	ecx, 15					; 0000000fH
	dec	esi

; 3807 :     r->mon = (unsigned int) MODULO_RANGE(carry, 1, 13);

	sub	esp, 8
	add	esi, ecx
	mov	eax, esp
	movd	xmm0, esi
	cvtdq2pd xmm0, xmm0
	divsd	xmm0, QWORD PTR __real@4028000000000000
	movsd	QWORD PTR tv1735[ebp], xmm0
	mov	ebx, DWORD PTR tv1735[ebp]
	mov	edi, DWORD PTR tv1735[ebp+4]
	mov	DWORD PTR [eax], ebx
	mov	DWORD PTR [eax+4], edi
	call	_floor
	movd	xmm0, esi
	add	esp, 8
	fstp	QWORD PTR tv2259[ebp]
	movsd	xmm1, QWORD PTR tv2259[ebp]
	mulsd	xmm1, QWORD PTR __real@4028000000000000
	cvtdq2pd xmm0, xmm0
	subsd	xmm0, xmm1
	addsd	xmm0, QWORD PTR __real@3ff0000000000000
	call	__dtoui3
	mov	ecx, eax

; 3808 :     carry  = (long) FQUOTIENT_RANGE(carry, 1, 13);

	sub	esp, 8
	mov	eax, DWORD PTR _value$1$[ebp]
	xor	ecx, DWORD PTR [eax+12]
	and	ecx, 15					; 0000000fH
	xor	ecx, DWORD PTR [eax+12]
	mov	DWORD PTR [eax+12], ecx
	mov	eax, esp
	mov	DWORD PTR tv2030[ebp], ecx
	mov	DWORD PTR [eax], ebx
	mov	DWORD PTR [eax+4], edi
	call	_floor

; 3809 : 
; 3810 :     /* year (may be modified later) */
; 3811 :     r->year = d->year + carry;

	mov	edi, DWORD PTR _tmp$1$[ebp]
	add	esp, 8
	mov	ebx, DWORD PTR _value$1$[ebp]
	fstp	QWORD PTR tv2246[ebp]
	cvttsd2si esi, QWORD PTR tv2246[ebp]
	add	esi, DWORD PTR [edi+8]
	mov	DWORD PTR $T1[ebp], esi
	mov	DWORD PTR [ebx+8], esi

; 3812 :     if (r->year == 0) {

	jne	SHORT $LN12@xmlSchemaD

; 3813 :         if (d->year > 0)

	cmp	DWORD PTR [edi+8], 0
	jle	SHORT $LN11@xmlSchemaD

; 3814 :             r->year--;

	dec	esi
	jmp	SHORT $LN74@xmlSchemaD
$LN11@xmlSchemaD:

; 3815 :         else
; 3816 :             r->year++;

	inc	esi
$LN74@xmlSchemaD:

; 3817 :     }
; 3818 : 
; 3819 :     /* time zone */
; 3820 :     r->tzo     = d->tzo;

	mov	DWORD PTR [ebx+8], esi
	mov	DWORD PTR $T1[ebp], esi
$LN12@xmlSchemaD:
	mov	eax, DWORD PTR [edi+24]

; 3821 :     r->tz_flag = d->tz_flag;
; 3822 : 
; 3823 :     /* seconds */
; 3824 :     r->sec = d->sec + u->sec;
; 3825 :     carry  = (long) FQUOTIENT((long)r->sec, 60);

	sub	esp, 8
	xor	eax, DWORD PTR [ebx+24]
	and	eax, 8190				; 00001ffeH
	xor	DWORD PTR [ebx+24], eax
	mov	ecx, DWORD PTR [edi+24]
	xor	ecx, DWORD PTR [ebx+24]
	mov	eax, DWORD PTR _dur$[ebp]
	and	ecx, 1
	xor	DWORD PTR [ebx+24], ecx
	movsd	xmm0, QWORD PTR [edi+16]
	addsd	xmm0, QWORD PTR [eax+16]
	cvttsd2si eax, xmm0
	movsd	QWORD PTR tv1877[ebp], xmm0
	movsd	QWORD PTR [ebx+16], xmm0
	movd	xmm0, eax
	cvtdq2pd xmm0, xmm0
	divsd	xmm0, QWORD PTR __real@404e000000000000
	movsd	QWORD PTR tv2238[ebp], xmm0
	fld	QWORD PTR tv2238[ebp]
	fstp	QWORD PTR [esp]
	call	_floor

; 3826 :     if (r->sec != 0.0) {

	movsd	xmm0, QWORD PTR tv1877[ebp]
	add	esp, 8
	xorps	xmm1, xmm1
	ucomisd	xmm0, xmm1
	fstp	QWORD PTR tv2231[ebp]
	lahf
	test	ah, 68					; 00000044H
	jnp	SHORT $LN13@xmlSchemaD

; 3827 :         r->sec = MODULO(r->sec, 60.0);

	divsd	xmm0, QWORD PTR __real@404e000000000000
	sub	esp, 8
	movsd	QWORD PTR tv2225[ebp], xmm0
	fld	QWORD PTR tv2225[ebp]
	fstp	QWORD PTR [esp]
	call	_floor
	movsd	xmm1, QWORD PTR tv1877[ebp]
	add	esp, 8
	fstp	QWORD PTR tv2218[ebp]
	movsd	xmm0, QWORD PTR tv2218[ebp]
	mulsd	xmm0, QWORD PTR __real@404e000000000000
	mov	DWORD PTR $T1[ebp], esi
	subsd	xmm1, xmm0
	movsd	QWORD PTR [ebx+16], xmm1
$LN13@xmlSchemaD:

; 3828 :     }
; 3829 : 
; 3830 :     /* minute */
; 3831 :     carry += d->min;

	cvttsd2si eax, QWORD PTR tv2231[ebp]
	mov	esi, DWORD PTR [edi+12]

; 3832 :     r->min = (unsigned int) MODULO(carry, 60);

	sub	esp, 8
	shr	esi, 14					; 0000000eH
	and	esi, 63					; 0000003fH
	add	esi, eax
	mov	eax, esp
	movd	xmm0, esi
	cvtdq2pd xmm0, xmm0
	divsd	xmm0, QWORD PTR __real@404e000000000000
	movsd	QWORD PTR tv1794[ebp], xmm0
	mov	ebx, DWORD PTR tv1794[ebp]
	mov	edi, DWORD PTR tv1794[ebp+4]
	mov	DWORD PTR [eax], ebx
	mov	DWORD PTR [eax+4], edi
	call	_floor
	movd	xmm0, esi
	add	esp, 8
	fstp	QWORD PTR tv2198[ebp]
	movsd	xmm1, QWORD PTR tv2198[ebp]
	mulsd	xmm1, QWORD PTR __real@404e000000000000
	cvtdq2pd xmm0, xmm0
	subsd	xmm0, xmm1
	call	__dtoui3
	mov	ecx, DWORD PTR _value$1$[ebp]

; 3833 :     carry  = (long) FQUOTIENT(carry, 60);

	sub	esp, 8
	shl	eax, 14					; 0000000eH
	xor	eax, DWORD PTR tv2030[ebp]
	and	eax, 1032192				; 000fc000H
	xor	eax, DWORD PTR tv2030[ebp]
	mov	DWORD PTR tv2008[ebp], eax
	mov	DWORD PTR [ecx+12], eax
	mov	eax, esp
	mov	DWORD PTR [eax], ebx
	mov	DWORD PTR [eax+4], edi
	call	_floor
	mov	eax, DWORD PTR _tmp$1$[ebp]
	fstp	QWORD PTR tv2185[ebp]
	cvttsd2si esi, QWORD PTR tv2185[ebp]
	mov	eax, DWORD PTR [eax+12]
	shr	eax, 9

; 3834 : 
; 3835 :     /* hours */
; 3836 :     carry  += d->hour;

	and	eax, 31					; 0000001fH
	add	esi, eax

; 3837 :     r->hour = (unsigned int) MODULO(carry, 24);

	mov	eax, esp
	movd	xmm0, esi
	cvtdq2pd xmm0, xmm0
	divsd	xmm0, QWORD PTR __real@4038000000000000
	movsd	QWORD PTR tv2321[ebp], xmm0
	mov	ebx, DWORD PTR tv2321[ebp]
	mov	edi, DWORD PTR tv2321[ebp+4]
	mov	DWORD PTR [eax], ebx
	mov	DWORD PTR [eax+4], edi
	call	_floor
	movd	xmm0, esi
	add	esp, 8
	fstp	QWORD PTR tv2166[ebp]
	movsd	xmm1, QWORD PTR tv2166[ebp]
	mulsd	xmm1, QWORD PTR __real@4038000000000000
	cvtdq2pd xmm0, xmm0
	subsd	xmm0, xmm1
	call	__dtoui3
	mov	esi, eax

; 3838 :     carry   = (long)FQUOTIENT(carry, 24);

	sub	esp, 8
	mov	eax, DWORD PTR _value$1$[ebp]
	shl	esi, 9
	xor	esi, DWORD PTR tv2008[ebp]
	and	esi, 15872				; 00003e00H
	xor	esi, DWORD PTR tv2008[ebp]
	mov	DWORD PTR [eax+12], esi
	mov	eax, esp
	mov	DWORD PTR [eax], ebx
	mov	DWORD PTR [eax+4], edi
	call	_floor

; 3839 : 
; 3840 :     /*
; 3841 :      * days
; 3842 :      * Note we use tempdays because the temporary values may need more
; 3843 :      * than 5 bits
; 3844 :      */
; 3845 :     if ((VALID_YEAR(r->year)) && (VALID_MONTH(r->mon)) &&

	mov	ebx, DWORD PTR $T1[ebp]
	add	esp, 8
	mov	DWORD PTR tv1954[ebp], 400		; 00000190H
	mov	edi, 100				; 00000064H
	mov	DWORD PTR tv1953[ebp], edi
	fstp	QWORD PTR tv2152[ebp]
	test	ebx, ebx
	je	$LN14@xmlSchemaD
	mov	eax, esi
	and	eax, 15					; 0000000fH
	cmp	eax, 1
	jb	$LN14@xmlSchemaD
	cmp	eax, 12					; 0000000cH
	ja	$LN14@xmlSchemaD
	mov	ecx, ebx
	and	ecx, -2147483645			; 80000003H
	jns	SHORT $LN71@xmlSchemaD
	dec	ecx
	or	ecx, -4					; fffffffcH
	add	ecx, 1
$LN71@xmlSchemaD:
	jne	SHORT $LN65@xmlSchemaD
	mov	eax, ebx
	cdq
	idiv	edi
	test	edx, edx
	jne	SHORT $LN67@xmlSchemaD
$LN65@xmlSchemaD:
	mov	eax, ebx
	mov	edi, 400				; 00000190H
	cdq
	idiv	edi
	test	edx, edx
	je	SHORT $LN67@xmlSchemaD
	mov	edi, esi
	and	edi, 15					; 0000000fH
	shl	edi, 2
	mov	edx, DWORD PTR _daysInMonth[edi-4]
	jmp	SHORT $LN39@xmlSchemaD
$LN67@xmlSchemaD:
	mov	edi, esi
	and	edi, 15					; 0000000fH
	shl	edi, 2
	mov	edx, DWORD PTR _daysInMonthLeap[edi-4]
$LN39@xmlSchemaD:
	mov	eax, DWORD PTR _tmp$1$[ebp]
	mov	eax, DWORD PTR [eax+12]
	shr	eax, 4
	and	eax, 31					; 0000001fH
	cmp	eax, edx
	jbe	SHORT $LN14@xmlSchemaD

; 3846 :                   (d->day > MAX_DAYINMONTH(r->year, r->mon)))
; 3847 :         tempdays = MAX_DAYINMONTH(r->year, r->mon);

	test	ecx, ecx
	jne	SHORT $LN40@xmlSchemaD
	mov	eax, ebx
	mov	ecx, 100				; 00000064H
	cdq
	idiv	ecx
	test	edx, edx
	jne	SHORT $LN41@xmlSchemaD
$LN40@xmlSchemaD:
	mov	eax, ebx
	mov	ecx, 400				; 00000190H
	cdq
	idiv	ecx
	test	edx, edx
	je	SHORT $LN41@xmlSchemaD
	mov	edi, DWORD PTR _daysInMonth[edi-4]
	jmp	SHORT $LN16@xmlSchemaD
$LN41@xmlSchemaD:
	mov	edi, DWORD PTR _daysInMonthLeap[edi-4]
	jmp	SHORT $LN16@xmlSchemaD
$LN14@xmlSchemaD:

; 3848 :     else if (d->day < 1)

	mov	eax, DWORD PTR _tmp$1$[ebp]
	mov	edi, DWORD PTR [eax+12]
	shr	edi, 4
	and	edi, 31					; 0000001fH
	cmp	edi, 1
	jae	SHORT $LN16@xmlSchemaD

; 3849 :         tempdays = 1;

	mov	edi, 1
$LN16@xmlSchemaD:

; 3850 :     else
; 3851 :         tempdays = d->day;
; 3852 : 
; 3853 :     tempdays += u->day + carry;

	cvttsd2si ecx, QWORD PTR tv2152[ebp]
	mov	eax, DWORD PTR _dur$[ebp]
	mov	eax, DWORD PTR [eax+12]
	add	eax, ecx
	mov	ecx, DWORD PTR _value$1$[ebp]
	add	edi, eax
$LL2@xmlSchemaD:

; 3854 : 
; 3855 :     while (1) {
; 3856 :         if (tempdays < 1) {

	mov	DWORD PTR tv2028[ebp], esi
	cmp	edi, 1
	jge	$LN18@xmlSchemaD

; 3857 :             long tmon = (long) MODULO_RANGE((int)r->mon-1, 1, 13);

	and	esi, 15					; 0000000fH
	sub	esp, 8
	sub	esi, 2
	movd	xmm0, esi
	cvtdq2pd xmm0, xmm0
	divsd	xmm0, QWORD PTR __real@4028000000000000
	movsd	QWORD PTR tv2123[ebp], xmm0
	fld	QWORD PTR tv2123[ebp]
	fstp	QWORD PTR [esp]
	call	_floor
	movd	xmm2, esi
	add	esp, 8
	fstp	QWORD PTR tv1897[ebp]
	movsd	xmm0, QWORD PTR tv1897[ebp]

; 3858 :             long tyr  = r->year + (long)FQUOTIENT_RANGE((int)r->mon-1, 1, 13);
; 3859 :             if (tyr == 0)
; 3860 :                 tyr--;
; 3861 : 	    /*
; 3862 : 	     * Coverity detected an overrun in daysInMonth
; 3863 : 	     * of size 12 at position 12 with index variable "((r)->mon - 1)"
; 3864 : 	     */
; 3865 : 	    if (tmon < 1)

	or	esi, -1
	mulsd	xmm0, QWORD PTR __real@4028000000000000
	cvttsd2si eax, QWORD PTR tv1897[ebp]
	cvtdq2pd xmm2, xmm2
	add	eax, ebx
	cmovne	esi, eax
	mov	eax, 1
	subsd	xmm2, xmm0
	addsd	xmm2, QWORD PTR __real@3ff0000000000000
	cvttsd2si ecx, xmm2
	cmp	ecx, 1
	cmovl	ecx, eax

; 3866 : 	        tmon = 1;
; 3867 : 	    if (tmon > 12)

	mov	eax, 12					; 0000000cH
	cmp	ecx, 12					; 0000000cH
	cmovg	ecx, eax

; 3868 : 	        tmon = 12;
; 3869 :             tempdays += MAX_DAYINMONTH(tyr, tmon);

	mov	eax, esi
	mov	DWORD PTR _tmon$3$[ebp], ecx
	and	eax, -2147483645			; 80000003H
	jns	SHORT $LN72@xmlSchemaD
	dec	eax
	or	eax, -4					; fffffffcH
	add	eax, 1
$LN72@xmlSchemaD:
	jne	SHORT $LN43@xmlSchemaD
	mov	eax, 1374389535				; 51eb851fH
	mov	ecx, esi
	imul	esi
	sar	edx, 5
	mov	eax, edx
	shr	eax, 31					; 0000001fH
	add	eax, edx
	imul	eax, eax, 100
	sub	ecx, eax
	jne	SHORT $LN44@xmlSchemaD
	mov	ecx, DWORD PTR _tmon$3$[ebp]
$LN43@xmlSchemaD:
	mov	eax, 1374389535				; 51eb851fH
	imul	esi
	sar	edx, 7
	mov	eax, edx
	shr	eax, 31					; 0000001fH
	add	eax, edx
	imul	eax, eax, 400
	sub	esi, eax
	je	SHORT $LN44@xmlSchemaD
	mov	eax, DWORD PTR _daysInMonth[ecx*4-4]
	add	edi, eax

; 3870 :             carry = -1;

	or	ecx, -1
	jmp	$LN24@xmlSchemaD
$LN44@xmlSchemaD:

; 3868 : 	        tmon = 12;
; 3869 :             tempdays += MAX_DAYINMONTH(tyr, tmon);

	mov	eax, DWORD PTR _tmon$3$[ebp]
	mov	eax, DWORD PTR _daysInMonthLeap[eax*4-4]
	add	edi, eax

; 3870 :             carry = -1;

	or	ecx, -1
	jmp	$LN24@xmlSchemaD
$LN18@xmlSchemaD:

; 3871 :         } else if (VALID_YEAR(r->year) && VALID_MONTH(r->mon) &&

	test	ebx, ebx
	je	$LN23@xmlSchemaD
	mov	eax, esi
	and	eax, 15					; 0000000fH
	mov	DWORD PTR tv2013[ebp], eax
	dec	eax
	cmp	eax, 11					; 0000000bH
	ja	$LN23@xmlSchemaD
	mov	eax, ebx
	and	eax, -2147483645			; 80000003H
	jns	SHORT $LN73@xmlSchemaD
	dec	eax
	or	eax, -4					; fffffffcH
	add	eax, 1
$LN73@xmlSchemaD:
	mov	DWORD PTR tv2005[ebp], eax
	jne	SHORT $LN68@xmlSchemaD
	mov	eax, ebx
	cdq
	idiv	DWORD PTR tv1953[ebp]
	test	edx, edx
	jne	SHORT $LN70@xmlSchemaD
$LN68@xmlSchemaD:
	mov	eax, ebx
	cdq
	idiv	DWORD PTR tv1954[ebp]
	test	edx, edx
	je	SHORT $LN70@xmlSchemaD
	mov	eax, DWORD PTR tv2013[ebp]
	mov	eax, DWORD PTR _daysInMonth[eax*4-4]
	jmp	SHORT $LN48@xmlSchemaD
$LN70@xmlSchemaD:
	mov	eax, DWORD PTR tv2013[ebp]
	mov	eax, DWORD PTR _daysInMonthLeap[eax*4-4]
$LN48@xmlSchemaD:
	cmp	edi, eax
	jle	$LN23@xmlSchemaD

; 3872 :                    tempdays > (long) MAX_DAYINMONTH(r->year, r->mon)) {
; 3873 :             tempdays = tempdays - MAX_DAYINMONTH(r->year, r->mon);

	cmp	DWORD PTR tv2005[ebp], 0
	jne	SHORT $LN49@xmlSchemaD
	mov	eax, ebx
	mov	ecx, 100				; 00000064H
	cdq
	idiv	ecx
	test	edx, edx
	jne	SHORT $LN50@xmlSchemaD
$LN49@xmlSchemaD:
	mov	eax, ebx
	mov	ecx, 400				; 00000190H
	cdq
	idiv	ecx
	test	edx, edx
	je	SHORT $LN50@xmlSchemaD
	mov	eax, DWORD PTR tv2013[ebp]
	mov	eax, DWORD PTR _daysInMonth[eax*4-4]
	jmp	SHORT $LN51@xmlSchemaD
$LN50@xmlSchemaD:
	mov	eax, DWORD PTR tv2013[ebp]
	mov	eax, DWORD PTR _daysInMonthLeap[eax*4-4]
$LN51@xmlSchemaD:
	sub	edi, eax

; 3874 :             carry = 1;

	mov	ecx, 1
$LN24@xmlSchemaD:

; 3875 :         } else
; 3876 :             break;
; 3877 : 
; 3878 :         temp = r->mon + carry;

	mov	eax, DWORD PTR tv2028[ebp]

; 3879 :         r->mon = (unsigned int) MODULO_RANGE(temp, 1, 13);

	sub	esp, 8
	and	eax, 15					; 0000000fH
	add	eax, ecx
	mov	DWORD PTR _temp$1$[ebp], eax
	lea	esi, DWORD PTR [eax-1]
	movd	xmm0, esi
	cvtdq2pd xmm0, xmm0
	divsd	xmm0, QWORD PTR __real@4028000000000000
	movsd	QWORD PTR tv2068[ebp], xmm0
	fld	QWORD PTR tv2068[ebp]
	fstp	QWORD PTR [esp]
	call	_floor
	movd	xmm0, esi
	add	esp, 8
	fstp	QWORD PTR tv2090[ebp]
	movsd	xmm1, QWORD PTR tv2090[ebp]
	mulsd	xmm1, QWORD PTR __real@4028000000000000
	cvtdq2pd xmm0, xmm0
	subsd	xmm0, xmm1
	addsd	xmm0, QWORD PTR __real@3ff0000000000000
	call	__dtoui3

; 3880 :         r->year = r->year + (unsigned int) FQUOTIENT_RANGE(temp, 1, 13);

	movsd	xmm0, QWORD PTR tv2090[ebp]
	mov	esi, eax
	xor	esi, DWORD PTR tv2028[ebp]
	mov	eax, DWORD PTR _value$1$[ebp]
	and	esi, 15					; 0000000fH
	xor	esi, DWORD PTR tv2028[ebp]
	mov	DWORD PTR [eax+12], esi
	call	__dtoui3
	mov	ecx, DWORD PTR _value$1$[ebp]
	add	ebx, eax
	mov	DWORD PTR [ecx+8], ebx

; 3881 :         if (r->year == 0) {

	jne	$LL2@xmlSchemaD

; 3882 :             if (temp < 1)

	cmp	DWORD PTR _temp$1$[ebp], 1
	jge	SHORT $LN26@xmlSchemaD

; 3883 :                 r->year--;

	mov	DWORD PTR [ecx+8], -1
	or	ebx, -1
	jmp	$LL2@xmlSchemaD
$LN26@xmlSchemaD:

; 3884 :             else
; 3885 :                 r->year++;

	mov	DWORD PTR [ecx+8], 1
	mov	ebx, 1

; 3886 : 	}
; 3887 :     }

	jmp	$LL2@xmlSchemaD
$LN23@xmlSchemaD:

; 3888 : 
; 3889 :     r->day = tempdays;

	shl	edi, 4
	xor	edi, esi
	and	edi, 496				; 000001f0H
	xor	edi, esi
	mov	DWORD PTR [ecx+12], edi

; 3890 : 
; 3891 :     /*
; 3892 :      * adjust the date/time type to the date values
; 3893 :      */
; 3894 :     if (ret->type != XML_SCHEMAS_DATETIME) {

	mov	edx, DWORD PTR [ecx]
	cmp	edx, 11					; 0000000bH
	je	SHORT $LN35@xmlSchemaD

; 3895 :         if ((r->hour) || (r->min) || (r->sec))

	test	edi, 1048064				; 000ffe00H
	jne	SHORT $LN31@xmlSchemaD
	movsd	xmm0, QWORD PTR [ecx+16]
	xorps	xmm1, xmm1
	ucomisd	xmm0, xmm1
	lahf
	test	ah, 68					; 00000044H
	jp	SHORT $LN31@xmlSchemaD

; 3897 :         else if (ret->type != XML_SCHEMAS_DATE) {

	cmp	edx, 10					; 0000000aH
	je	SHORT $LN35@xmlSchemaD

; 3898 :             if ((r->mon != 1) && (r->day != 1))

	mov	eax, edi
	and	eax, 15					; 0000000fH
	cmp	eax, 1
	je	SHORT $LN33@xmlSchemaD
	and	edi, 496				; 000001f0H
	cmp	edi, 16					; 00000010H
	je	SHORT $LN33@xmlSchemaD

; 3901 :                 ret->type = XML_SCHEMAS_GYEARMONTH;
; 3902 :         }
; 3903 :     }
; 3904 : 
; 3905 :     xmlSchemaFreeValue(tmp);

	push	DWORD PTR _tmp$1$[ebp]
	mov	DWORD PTR [ecx], 10			; 0000000aH
	call	_xmlSchemaFreeValue

; 3906 : 
; 3907 :     return ret;

	mov	eax, DWORD PTR _value$1$[ebp]
	add	esp, 4

; 3908 : }

	pop	edi
	pop	esi
	pop	ebx
	mov	esp, ebp
	pop	ebp
	ret	0
$LN33@xmlSchemaD:

; 3899 :                 ret->type = XML_SCHEMAS_DATE;
; 3900 :             else if ((ret->type != XML_SCHEMAS_GYEARMONTH) && (r->mon != 1))

	cmp	edx, 9
	je	SHORT $LN35@xmlSchemaD
	cmp	eax, 1
	je	SHORT $LN35@xmlSchemaD

; 3901 :                 ret->type = XML_SCHEMAS_GYEARMONTH;
; 3902 :         }
; 3903 :     }
; 3904 : 
; 3905 :     xmlSchemaFreeValue(tmp);

	push	DWORD PTR _tmp$1$[ebp]
	mov	DWORD PTR [ecx], 9
	call	_xmlSchemaFreeValue

; 3906 : 
; 3907 :     return ret;

	mov	eax, DWORD PTR _value$1$[ebp]
	add	esp, 4

; 3908 : }

	pop	edi
	pop	esi
	pop	ebx
	mov	esp, ebp
	pop	ebp
	ret	0
$LN31@xmlSchemaD:

; 3896 :             ret->type = XML_SCHEMAS_DATETIME;

	mov	DWORD PTR [ecx], 11			; 0000000bH
$LN35@xmlSchemaD:

; 3901 :                 ret->type = XML_SCHEMAS_GYEARMONTH;
; 3902 :         }
; 3903 :     }
; 3904 : 
; 3905 :     xmlSchemaFreeValue(tmp);

	push	DWORD PTR _tmp$1$[ebp]
	call	_xmlSchemaFreeValue

; 3906 : 
; 3907 :     return ret;

	mov	eax, DWORD PTR _value$1$[ebp]
	add	esp, 4

; 3908 : }

	pop	edi
	pop	esi
	pop	ebx
	mov	esp, ebp
	pop	ebp
	ret	0
__xmlSchemaDateAdd ENDP
_TEXT	ENDS
; Function compile flags: /Ogtp
; File c:\users\dag\documents\_clients\codeproject authors group\windows on arm\libxml2\libxml2-2.9.9\xmlschemastypes.c
;	COMDAT _xmlSchemaDupVal
_TEXT	SEGMENT
_v$ = 8							; size = 4
_xmlSchemaDupVal PROC					; COMDAT

; 3670 : {

	push	ebp
	mov	ebp, esp
	push	esi
	push	edi
	mov	ecx, OFFSET __74485836_xmlschemastypes@c
	call	@__CheckForDebuggerJustMyCode@4
	mov	esi, DWORD PTR _v$[ebp]

; 230  :     value = (xmlSchemaValPtr) xmlMalloc(sizeof(xmlSchemaVal));

	push	32					; 00000020H

; 3671 :     xmlSchemaValPtr ret = xmlSchemaNewValue(v->type);

	mov	edi, DWORD PTR [esi]

; 230  :     value = (xmlSchemaValPtr) xmlMalloc(sizeof(xmlSchemaVal));

	call	DWORD PTR _xmlMalloc
	add	esp, 4

; 231  :     if (value == NULL) {

	test	eax, eax
	je	SHORT $LN7@xmlSchemaD
	xorps	xmm0, xmm0

; 232  : 	return(NULL);
; 233  :     }
; 234  :     memset(value, 0, sizeof(xmlSchemaVal));

	movups	XMMWORD PTR [eax], xmm0
	movups	XMMWORD PTR [eax+16], xmm0

; 235  :     value->type = type;

	mov	DWORD PTR [eax], edi

; 3674 : 
; 3675 :     memcpy(ret, v, sizeof(xmlSchemaVal));

	movups	xmm0, XMMWORD PTR [esi]
	pop	edi
	movups	XMMWORD PTR [eax], xmm0
	movups	xmm0, XMMWORD PTR [esi+16]

; 3676 :     ret->next = NULL;
; 3677 :     return ret;
; 3678 : }

	pop	esi
	movups	XMMWORD PTR [eax+16], xmm0
	mov	DWORD PTR [eax+4], 0
	pop	ebp
	ret	0
$LN7@xmlSchemaD:
	pop	edi

; 3672 :     if (ret == NULL)
; 3673 :         return NULL;

	xor	eax, eax

; 3676 :     ret->next = NULL;
; 3677 :     return ret;
; 3678 : }

	pop	esi
	pop	ebp
	ret	0
_xmlSchemaDupVal ENDP
_TEXT	ENDS
; Function compile flags: /Ogtp
; File c:\users\dag\documents\_clients\codeproject authors group\windows on arm\libxml2\libxml2-2.9.9\xmlschemastypes.c
;	COMDAT _xmlSchemaCompareDurations
_TEXT	SEGMENT
_minday$1$ = 8						; size = 4
_x$ = 8							; size = 4
_y$ = 12						; size = 4
_xmlSchemaCompareDurations PROC				; COMDAT

; 3573 : {

	push	ebp
	mov	ebp, esp
	push	ebx
	mov	ecx, OFFSET __74485836_xmlschemastypes@c
	call	@__CheckForDebuggerJustMyCode@4
	mov	ecx, DWORD PTR _x$[ebp]
	mov	ebx, 1
	test	ecx, ecx
	je	$LN3@xmlSchemaC

; 3574 :     long carry, mon, day;
; 3575 :     double sec;
; 3576 :     int invert = 1;
; 3577 :     long xmon, xday, myear, minday, maxday;
; 3578 :     static const long dayRange [2][12] = {
; 3579 :         { 0, 28, 59, 89, 120, 150, 181, 212, 242, 273, 303, 334, },
; 3580 :         { 0, 31, 62, 92, 123, 153, 184, 215, 245, 276, 306, 337} };
; 3581 : 
; 3582 :     if ((x == NULL) || (y == NULL))

	mov	edx, DWORD PTR _y$[ebp]
	test	edx, edx
	je	$LN3@xmlSchemaC

; 3584 : 
; 3585 :     /* months */
; 3586 :     mon = x->value.dur.mon - y->value.dur.mon;
; 3587 : 
; 3588 :     /* seconds */
; 3589 :     sec = x->value.dur.sec - y->value.dur.sec;

	movsd	xmm2, QWORD PTR [ecx+16]
	subsd	xmm2, QWORD PTR [edx+16]
	push	esi
	mov	esi, DWORD PTR [ecx+8]

; 3590 :     carry = (long)(sec / SECS_PER_DAY);
; 3591 :     sec -= ((double)carry) * SECS_PER_DAY;
; 3592 : 
; 3593 :     /* days */
; 3594 :     day = x->value.dur.day - y->value.dur.day + carry;

	mov	ecx, DWORD PTR [ecx+12]
	sub	ecx, DWORD PTR [edx+12]
	movaps	xmm0, xmm2
	sub	esi, DWORD PTR [edx+8]
	divsd	xmm0, QWORD PTR __real@40f5180000000000
	cvttsd2si eax, xmm0
	add	ecx, eax
	movd	xmm0, eax
	cvtdq2pd xmm0, xmm0
	mulsd	xmm0, QWORD PTR __real@40f5180000000000
	subsd	xmm2, xmm0

; 3595 : 
; 3596 :     /* easy test */
; 3597 :     if (mon == 0) {

	test	esi, esi
	jne	SHORT $LN30@xmlSchemaC

; 3598 :         if (day == 0)

	test	ecx, ecx
	jne	SHORT $LN31@xmlSchemaC

; 3599 :             if (sec == 0.0)

	xorps	xmm0, xmm0
	ucomisd	xmm2, xmm0
	lahf
	test	ah, 68					; 00000044H
	jnp	$LN27@xmlSchemaC

; 3600 :                 return 0;
; 3601 :             else if (sec < 0.0)

	comisd	xmm0, xmm2
	jbe	$LN25@xmlSchemaC

; 3619 :         return -1;

	pop	esi
	or	eax, -1
	pop	ebx

; 3645 :         return(invert);
; 3646 : 
; 3647 :     /* indeterminate */
; 3648 :     return 2;
; 3649 : }

	pop	ebp
	ret	0
$LN31@xmlSchemaC:

; 3602 :                 return -1;
; 3603 :             else
; 3604 :                 return 1;
; 3605 :         else if (day < 0)

	jns	$LN25@xmlSchemaC

; 3619 :         return -1;

	pop	esi
	or	eax, -1
	pop	ebx

; 3645 :         return(invert);
; 3646 : 
; 3647 :     /* indeterminate */
; 3648 :     return 2;
; 3649 : }

	pop	ebp
	ret	0
$LN30@xmlSchemaC:

; 3606 :             return -1;
; 3607 :         else
; 3608 :             return 1;
; 3609 :     }
; 3610 : 
; 3611 :     if (mon > 0) {

	jle	SHORT $LN13@xmlSchemaC

; 3612 :         if ((day >= 0) && (sec >= 0.0))

	test	ecx, ecx
	js	SHORT $LN15@xmlSchemaC
	comisd	xmm2, QWORD PTR __real@0000000000000000
	jae	$LN25@xmlSchemaC
$LN15@xmlSchemaC:

; 3613 :             return 1;
; 3614 :         else {
; 3615 :             xmon = mon;
; 3616 :             xday = -day;

	neg	ecx

; 3617 :         }

	jmp	SHORT $LN18@xmlSchemaC
$LN13@xmlSchemaC:

; 3618 :     } else if ((day <= 0) && (sec <= 0.0)) {

	test	ecx, ecx
	jg	SHORT $LN17@xmlSchemaC
	xorps	xmm0, xmm0
	comisd	xmm0, xmm2
	jb	SHORT $LN17@xmlSchemaC

; 3619 :         return -1;

	pop	esi
	or	eax, -1
	pop	ebx

; 3645 :         return(invert);
; 3646 : 
; 3647 :     /* indeterminate */
; 3648 :     return 2;
; 3649 : }

	pop	ebp
	ret	0
$LN17@xmlSchemaC:

; 3620 :     } else {
; 3621 : 	invert = -1;

	or	ebx, -1

; 3622 :         xmon = -mon;

	neg	esi
$LN18@xmlSchemaC:

; 3623 :         xday = day;
; 3624 :     }
; 3625 : 
; 3626 :     myear = xmon / 12;

	mov	eax, 715827883				; 2aaaaaabH
	imul	esi
	push	edi
	sar	edx, 1
	mov	edi, edx
	shr	edi, 31					; 0000001fH
	add	edi, edx

; 3627 :     if (myear == 0) {

	jne	SHORT $LN19@xmlSchemaC

; 3628 : 	minday = 0;

	xor	eax, eax

; 3629 : 	maxday = 0;

	xor	edx, edx

; 3630 :     } else {

	jmp	SHORT $LN32@xmlSchemaC
$LN19@xmlSchemaC:

; 3631 : 	maxday = 366 * ((myear + 3) / 4) +

	lea	eax, DWORD PTR [edi+3]
	cdq
	and	edx, 3
	add	eax, edx
	sar	eax, 2
	imul	edx, eax, 366
	lea	eax, DWORD PTR [edi-1]
	and	eax, -2147483645			; 80000003H
	jns	SHORT $LN29@xmlSchemaC
	dec	eax
	or	eax, -4					; fffffffcH
	inc	eax
$LN29@xmlSchemaC:
	imul	eax, eax, 365
	add	edx, eax

; 3632 : 	         365 * ((myear - 1) % 4);
; 3633 : 	minday = maxday - 1;

	lea	eax, DWORD PTR [edx-1]
$LN32@xmlSchemaC:

; 3634 :     }
; 3635 : 
; 3636 :     xmon = xmon % 12;

	mov	DWORD PTR _minday$1$[ebp], eax
	lea	eax, DWORD PTR [edi*4]
	sub	eax, edi
	neg	eax

; 3637 :     minday += dayRange[0][xmon];
; 3638 :     maxday += dayRange[1][xmon];
; 3639 : 
; 3640 :     if ((maxday == minday) && (maxday == xday))

	pop	edi
	lea	eax, DWORD PTR [esi+eax*4]
	mov	esi, DWORD PTR _minday$1$[ebp]
	add	esi, DWORD PTR ?dayRange@?1??xmlSchemaCompareDurations@@9@9[eax*4]
	add	edx, DWORD PTR ?dayRange@?1??xmlSchemaCompareDurations@@9@9[eax*4+48]
	cmp	edx, esi
	jne	SHORT $LN21@xmlSchemaC
	cmp	edx, ecx
	jne	SHORT $LN33@xmlSchemaC
$LN27@xmlSchemaC:
	pop	esi

; 3641 : 	return(0); /* can this really happen ? */

	xor	eax, eax
	pop	ebx

; 3645 :         return(invert);
; 3646 : 
; 3647 :     /* indeterminate */
; 3648 :     return 2;
; 3649 : }

	pop	ebp
	ret	0
$LN21@xmlSchemaC:

; 3642 :     if (maxday < xday)

	cmp	edx, ecx
$LN33@xmlSchemaC:
	jge	SHORT $LN22@xmlSchemaC

; 3643 :         return(-invert);

	neg	ebx
$LN25@xmlSchemaC:
	pop	esi
	mov	eax, ebx
	pop	ebx

; 3645 :         return(invert);
; 3646 : 
; 3647 :     /* indeterminate */
; 3648 :     return 2;
; 3649 : }

	pop	ebp
	ret	0
$LN22@xmlSchemaC:

; 3644 :     if (minday > xday)

	cmp	esi, ecx
	mov	eax, 2
	pop	esi
	cmovg	eax, ebx
	pop	ebx

; 3645 :         return(invert);
; 3646 : 
; 3647 :     /* indeterminate */
; 3648 :     return 2;
; 3649 : }

	pop	ebp
	ret	0
$LN3@xmlSchemaC:

; 3583 :         return -2;

	mov	eax, -2					; fffffffeH
	pop	ebx

; 3645 :         return(invert);
; 3646 : 
; 3647 :     /* indeterminate */
; 3648 :     return 2;
; 3649 : }

	pop	ebp
	ret	0
_xmlSchemaCompareDurations ENDP
_TEXT	ENDS
; Function compile flags: /Ogtp
; File c:\users\dag\documents\_clients\codeproject authors group\windows on arm\libxml2\libxml2-2.9.9\xmlschemastypes.c
;	COMDAT _xmlSchemaCompareDecimals
_TEXT	SEGMENT
_swp$1$ = -24						; size = 4
_integx$1$ = -24					; size = 4
tv494 = -20						; size = 4
_dlen$1$ = -20						; size = 4
_order$1$ = -16						; size = 4
$T1 = -12						; size = 4
_hi$1$ = -12						; size = 4
_lo$1$ = -8						; size = 4
_mi$1$ = -4						; size = 4
_x$ = 8							; size = 4
_y$ = 12						; size = 4
_xmlSchemaCompareDecimals PROC				; COMDAT

; 3425 : {

	push	ebp
	mov	ebp, esp
	sub	esp, 24					; 00000018H
	push	ebx
	push	edi
	mov	ecx, OFFSET __74485836_xmlschemastypes@c
	call	@__CheckForDebuggerJustMyCode@4
	mov	edi, DWORD PTR _x$[ebp]
	mov	ecx, 1
	mov	DWORD PTR _order$1$[ebp], ecx
	mov	edx, DWORD PTR [edi+24]
	test	dl, cl
	je	$LN54@xmlSchemaC

; 3426 :     xmlSchemaValPtr swp;
; 3427 :     int order = 1, integx, integy, dlen;
; 3428 :     unsigned long hi, mi, lo;
; 3429 : 
; 3430 :     /*
; 3431 :      * First test: If x is -ve and not zero
; 3432 :      */
; 3433 :     if ((x->value.decimal.sign) &&

	cmp	DWORD PTR [edi+8], 0
	jne	SHORT $LN8@xmlSchemaC
	cmp	DWORD PTR [edi+12], 0
	jne	SHORT $LN8@xmlSchemaC
	cmp	DWORD PTR [edi+16], 0
	je	$LN54@xmlSchemaC
$LN8@xmlSchemaC:

; 3434 : 	((x->value.decimal.lo != 0) ||
; 3435 : 	 (x->value.decimal.mi != 0) ||
; 3436 : 	 (x->value.decimal.hi != 0))) {
; 3437 : 	/*
; 3438 : 	 * Then if y is -ve and not zero reverse the compare
; 3439 : 	 */
; 3440 : 	if ((y->value.decimal.sign) &&

	mov	ebx, DWORD PTR _y$[ebp]
	mov	eax, DWORD PTR [ebx+24]
	mov	DWORD PTR $T1[ebp], eax
	test	al, 1
	je	SHORT $LN9@xmlSchemaC
	cmp	DWORD PTR [ebx+8], 0
	jne	SHORT $LN11@xmlSchemaC
	cmp	DWORD PTR [ebx+12], 0
	jne	SHORT $LN11@xmlSchemaC
	cmp	DWORD PTR [ebx+16], 0
	je	SHORT $LN9@xmlSchemaC
$LN11@xmlSchemaC:

; 3441 : 	    ((y->value.decimal.lo != 0) ||
; 3442 : 	     (y->value.decimal.mi != 0) ||
; 3443 : 	     (y->value.decimal.hi != 0)))
; 3444 : 	    order = -1;

	or	ecx, -1
	mov	DWORD PTR _order$1$[ebp], ecx
$LN12@xmlSchemaC:

; 3458 :     }
; 3459 :     /*
; 3460 :      * If it's not simply determined by a difference in sign,
; 3461 :      * then we need to compare the actual values of the two nums.
; 3462 :      * To do this, we start by looking at the integral parts.
; 3463 :      * If the number of integral digits differ, then we have our
; 3464 :      * answer.
; 3465 :      */
; 3466 :     integx = x->value.decimal.total - x->value.decimal.frac;

	mov	eax, edx
	shr	eax, 8
	movzx	edx, al
	mov	eax, DWORD PTR [edi+24]
	shr	eax, 1
	and	eax, 127				; 0000007fH
	push	esi
	mov	esi, edx
	sub	esi, eax

; 3467 :     integy = y->value.decimal.total - y->value.decimal.frac;

	mov	eax, DWORD PTR $T1[ebp]
	shr	eax, 8
	mov	DWORD PTR _integx$1$[ebp], esi
	movzx	esi, al
	mov	eax, DWORD PTR $T1[ebp]
	shr	eax, 1
	and	eax, 127				; 0000007fH
	mov	DWORD PTR tv494[ebp], esi
	sub	esi, eax

; 3468 :     /*
; 3469 :     * NOTE: We changed the "total" for values like "0.1"
; 3470 :     *   (or "-0.1" or ".1") to be 1, which was 2 previously.
; 3471 :     *   Therefore the special case, when such values are
; 3472 :     *   compared with 0, needs to be handled separately;
; 3473 :     *   otherwise a zero would be recognized incorrectly as
; 3474 :     *   greater than those values. This has the nice side effect
; 3475 :     *   that we gain an overall optimized comparison with zeroes.
; 3476 :     * Note that a "0" has a "total" of 1 already.
; 3477 :     */
; 3478 :     if (integx == 1) {

	mov	eax, DWORD PTR _integx$1$[ebp]
	cmp	eax, 1
	jne	SHORT $LN55@xmlSchemaC

; 3479 : 	if (x->value.decimal.lo == 0) {

	cmp	DWORD PTR [edi+8], 0
	jne	SHORT $LN55@xmlSchemaC

; 3480 : 	    if (integy != 1)

	cmp	esi, eax
	jne	SHORT $LN59@xmlSchemaC

; 3481 : 		return -order;
; 3482 : 	    else if (y->value.decimal.lo != 0)

	cmp	DWORD PTR [ebx+8], 0
	je	$LN57@xmlSchemaC

; 3502 : 	return -order;

	pop	esi
	neg	ecx
	pop	edi
	mov	eax, ecx

; 3559 : }

	pop	ebx
	mov	esp, ebp
	pop	ebp
	ret	0
$LN9@xmlSchemaC:
	pop	edi

; 3445 : 	/*
; 3446 : 	 * Otherwise (y >= 0) we have the answer
; 3447 : 	 */
; 3448 : 	else
; 3449 : 	    return (-1);

	or	eax, -1

; 3559 : }

	pop	ebx
	mov	esp, ebp
	pop	ebp
	ret	0
$LN54@xmlSchemaC:

; 3450 :     /*
; 3451 :      * If x is not -ve and y is -ve we have the answer
; 3452 :      */
; 3453 :     } else if ((y->value.decimal.sign) &&

	mov	ebx, DWORD PTR _y$[ebp]
	mov	eax, DWORD PTR [ebx+24]
	mov	DWORD PTR $T1[ebp], eax
	test	al, 1
	je	SHORT $LN12@xmlSchemaC
	cmp	DWORD PTR [ebx+8], 0
	jne	SHORT $LN13@xmlSchemaC
	cmp	DWORD PTR [ebx+12], 0
	jne	SHORT $LN13@xmlSchemaC
	cmp	DWORD PTR [ebx+16], 0
	mov	DWORD PTR $T1[ebp], eax
	je	SHORT $LN12@xmlSchemaC
$LN13@xmlSchemaC:
	pop	edi

; 3454 : 	       ((y->value.decimal.lo != 0) ||
; 3455 : 		(y->value.decimal.mi != 0) ||
; 3456 : 		(y->value.decimal.hi != 0))) {
; 3457 :         return (1);

	mov	eax, ecx

; 3559 : }

	pop	ebx
	mov	esp, ebp
	pop	ebp
	ret	0
$LN55@xmlSchemaC:

; 3483 : 		return -order;
; 3484 : 	    else
; 3485 : 		return(0);
; 3486 : 	}
; 3487 :     }
; 3488 :     if (integy == 1) {

	cmp	esi, 1
	jne	SHORT $LN56@xmlSchemaC

; 3489 : 	if (y->value.decimal.lo == 0) {

	cmp	DWORD PTR [ebx+8], 0
	jne	SHORT $LN56@xmlSchemaC

; 3490 : 	    if (integx != 1)

	cmp	eax, esi
	jne	SHORT $LN58@xmlSchemaC

; 3491 : 		return order;
; 3492 : 	    else if (x->value.decimal.lo != 0)

	cmp	DWORD PTR [edi+8], 0
	je	$LN57@xmlSchemaC

; 3502 : 	return -order;

	pop	esi
	pop	edi
	mov	eax, ecx

; 3559 : }

	pop	ebx
	mov	esp, ebp
	pop	ebp
	ret	0
$LN56@xmlSchemaC:

; 3493 : 		return order;
; 3494 : 	    else
; 3495 : 		return(0);
; 3496 : 	}
; 3497 :     }
; 3498 : 
; 3499 :     if (integx > integy)

	cmp	eax, esi
	jg	SHORT $LN58@xmlSchemaC

; 3500 : 	return order;
; 3501 :     else if (integy > integx)

	jge	SHORT $LN28@xmlSchemaC
$LN59@xmlSchemaC:

; 3502 : 	return -order;

	neg	ecx
$LN58@xmlSchemaC:
	pop	esi
	pop	edi
	mov	eax, ecx

; 3559 : }

	pop	ebx
	mov	esp, ebp
	pop	ebp
	ret	0
$LN28@xmlSchemaC:

; 3503 : 
; 3504 :     /*
; 3505 :      * If the number of integral digits is the same for both numbers,
; 3506 :      * then things get a little more complicated.  We need to "normalize"
; 3507 :      * the numbers in order to properly compare them.  To do this, we
; 3508 :      * look at the total length of each number (length => number of
; 3509 :      * significant digits), and divide the "shorter" by 10 (decreasing
; 3510 :      * the length) until they are of equal length.
; 3511 :      */
; 3512 :     dlen = x->value.decimal.total - y->value.decimal.total;

	sub	edx, DWORD PTR tv494[ebp]
	mov	DWORD PTR _dlen$1$[ebp], edx

; 3513 :     if (dlen < 0) {	/* y has more digits than x */

	jns	SHORT $LN29@xmlSchemaC

; 3514 : 	swp = x;
; 3515 : 	hi = y->value.decimal.hi;

	mov	esi, DWORD PTR [ebx+16]

; 3516 : 	mi = y->value.decimal.mi;
; 3517 : 	lo = y->value.decimal.lo;
; 3518 : 	dlen = -dlen;

	neg	edx
	mov	eax, DWORD PTR [ebx+8]

; 3519 : 	order = -order;

	neg	ecx
	mov	DWORD PTR _swp$1$[ebp], edi
	mov	edi, DWORD PTR [ebx+12]
	mov	DWORD PTR _dlen$1$[ebp], edx
	mov	DWORD PTR _order$1$[ebp], ecx

; 3520 :     } else {		/* x has more digits than y */

	jmp	SHORT $LN63@xmlSchemaC
$LN29@xmlSchemaC:

; 3521 : 	swp = y;
; 3522 : 	hi = x->value.decimal.hi;
; 3523 : 	mi = x->value.decimal.mi;
; 3524 : 	lo = x->value.decimal.lo;

	mov	eax, DWORD PTR _x$[ebp]
	mov	esi, DWORD PTR [edi+16]
	mov	edi, DWORD PTR [edi+12]
	mov	DWORD PTR _swp$1$[ebp], ebx
	mov	eax, DWORD PTR [eax+8]
$LN63@xmlSchemaC:

; 3525 :     }
; 3526 :     while (dlen > 8) {	/* in effect, right shift by 10**8 */

	mov	DWORD PTR _lo$1$[ebp], eax
	mov	DWORD PTR _mi$1$[ebp], edi
	mov	DWORD PTR _hi$1$[ebp], esi
	cmp	edx, 8
	jle	SHORT $LN44@xmlSchemaC
	lea	ecx, DWORD PTR [edx-9]
	shr	ecx, 3
	inc	ecx
	mov	eax, ecx
	neg	eax
	lea	edx, DWORD PTR [edx+eax*8]
	mov	DWORD PTR _dlen$1$[ebp], edx
	npad	4
$LL2@xmlSchemaC:

; 3527 : 	lo = mi;

	mov	DWORD PTR _lo$1$[ebp], edi

; 3528 : 	mi = hi;

	mov	edi, esi

; 3529 : 	hi = 0;

	xor	esi, esi
	sub	ecx, 1
	jne	SHORT $LL2@xmlSchemaC
	mov	DWORD PTR _hi$1$[ebp], esi
	mov	DWORD PTR _mi$1$[ebp], edi
$LN44@xmlSchemaC:

; 3530 : 	dlen -= 8;
; 3531 :     }
; 3532 :     while (dlen > 0) {

	test	edx, edx
	jle	SHORT $LN61@xmlSchemaC
	mov	ebx, DWORD PTR _dlen$1$[ebp]
	jmp	SHORT $LN4@xmlSchemaC
	npad	5
$LL60@xmlSchemaC:
	mov	esi, DWORD PTR _hi$1$[ebp]
$LN4@xmlSchemaC:

; 3533 : 	unsigned long rem1, rem2;
; 3534 : 	rem1 = (hi % 10) * 100000000L;

	mov	eax, -858993459				; cccccccdH

; 3535 : 	hi = hi / 10;
; 3536 : 	rem2 = (mi % 10) * 100000000L;
; 3537 : 	mi = (mi + rem1) / 10;
; 3538 : 	lo = (lo + rem2) / 10;
; 3539 : 	dlen--;

	dec	ebx
	mul	esi
	shr	edx, 3
	mov	DWORD PTR _hi$1$[ebp], edx
	lea	eax, DWORD PTR [edx+edx*4]
	add	eax, eax
	sub	esi, eax
	mov	eax, -858993459				; cccccccdH
	mul	DWORD PTR _mi$1$[ebp]
	imul	edi, esi, 100000000
	shr	edx, 3
	lea	ecx, DWORD PTR [edx+edx*4]
	mov	edx, DWORD PTR _mi$1$[ebp]
	add	ecx, ecx
	mov	eax, edx
	sub	eax, ecx
	imul	esi, eax, 100000000
	mov	eax, -858993459				; cccccccdH
	lea	ecx, DWORD PTR [edi+edx]
	mul	ecx
	mov	ecx, DWORD PTR _lo$1$[ebp]
	mov	eax, -858993459				; cccccccdH
	mov	edi, edx
	shr	edi, 3
	mov	DWORD PTR _mi$1$[ebp], edi
	lea	ecx, DWORD PTR [esi+ecx]
	mul	ecx
	mov	ecx, edx
	shr	ecx, 3
	mov	DWORD PTR _lo$1$[ebp], ecx
	test	ebx, ebx
	jg	SHORT $LL60@xmlSchemaC

; 3530 : 	dlen -= 8;
; 3531 :     }
; 3532 :     while (dlen > 0) {

	mov	ebx, DWORD PTR _y$[ebp]
	jmp	SHORT $LN5@xmlSchemaC
$LN61@xmlSchemaC:
	mov	ecx, DWORD PTR _lo$1$[ebp]
$LN5@xmlSchemaC:

; 3540 :     }
; 3541 :     if (hi > swp->value.decimal.hi) {

	mov	edx, DWORD PTR _swp$1$[ebp]
	mov	esi, DWORD PTR [edx+16]
	cmp	DWORD PTR _hi$1$[ebp], esi
	ja	SHORT $LN40@xmlSchemaC

; 3542 : 	return order;
; 3543 :     } else if (hi == swp->value.decimal.hi) {

	jne	SHORT $LN41@xmlSchemaC

; 3544 : 	if (mi > swp->value.decimal.mi) {

	cmp	edi, DWORD PTR [edx+12]
	ja	SHORT $LN40@xmlSchemaC

; 3545 : 	    return order;
; 3546 : 	} else if (mi == swp->value.decimal.mi) {

	jne	SHORT $LN41@xmlSchemaC

; 3547 : 	    if (lo > swp->value.decimal.lo) {

	cmp	ecx, DWORD PTR [edx+8]
	ja	SHORT $LN40@xmlSchemaC

; 3548 : 		return order;
; 3549 : 	    } else if (lo == swp->value.decimal.lo) {

	jne	SHORT $LN41@xmlSchemaC

; 3550 : 		if (x->value.decimal.total == y->value.decimal.total) {

	mov	eax, DWORD PTR _x$[ebp]
	mov	al, BYTE PTR [eax+25]
	cmp	al, BYTE PTR [ebx+25]
	jne	SHORT $LN40@xmlSchemaC
$LN57@xmlSchemaC:
	pop	esi
	pop	edi

; 3551 : 		    return 0;

	xor	eax, eax

; 3559 : }

	pop	ebx
	mov	esp, ebp
	pop	ebp
	ret	0
$LN41@xmlSchemaC:

; 3554 : 		}
; 3555 : 	    }
; 3556 : 	}
; 3557 :     }
; 3558 :     return -order;

	mov	eax, DWORD PTR _order$1$[ebp]
	pop	esi
	pop	edi
	neg	eax

; 3559 : }

	pop	ebx
	mov	esp, ebp
	pop	ebp
	ret	0
$LN40@xmlSchemaC:

; 3552 : 		} else {
; 3553 : 		    return order;

	mov	eax, DWORD PTR _order$1$[ebp]
	pop	esi
	pop	edi

; 3559 : }

	pop	ebx
	mov	esp, ebp
	pop	ebp
	ret	0
_xmlSchemaCompareDecimals ENDP
_TEXT	ENDS
; Function compile flags: /Ogtp
; File c:\users\dag\documents\_clients\codeproject authors group\windows on arm\libxml2\libxml2-2.9.9\xmlschemastypes.c
;	COMDAT _xmlSchemaValAtomicType
_TEXT	SEGMENT
_cval$1 = -56						; size = 25
_ret$3$ = -28						; size = 4
_hi$2 = -28						; size = 4
_lo$3 = -28						; size = 4
_mi$4 = -24						; size = 4
_mi$5 = -24						; size = 4
_lo$6 = -24						; size = 4
_ret$4$ = -20						; size = 4
_lo$7 = -20						; size = 4
_mi$8 = -20						; size = 4
_ret$5$ = -16						; size = 4
_hi$9 = -16						; size = 4
_sign$1$ = -12						; size = 4
_pad$1$ = -12						; size = 4
_neg$1$ = -12						; size = 4
_neg$1$ = -12						; size = 4
_v$14$ = -12						; size = 4
$T10 = -12						; size = 1
_hi$11 = -12						; size = 4
_prefix$12 = -12					; size = 4
_uri$1$ = -8						; size = 4
_digits_before$1$ = -8					; size = 4
_v$21$ = -8						; size = 4
_v$18$ = -8						; size = 4
_cur$13 = -8						; size = 4
_cur$14 = -8						; size = 4
_cptr$15 = -8						; size = 4
_norm$1$ = -4						; size = 4
_total$1$ = 8						; size = 4
_uri$1$ = 8						; size = 4
_strip$1$ = 8						; size = 4
_strip$1$ = 8						; size = 4
_strip$1$ = 8						; size = 4
_integ$1$ = 8						; size = 4
$T16 = 8						; size = 1
$T17 = 8						; size = 1
_cur$18 = 8						; size = 4
_prefix$19 = 8						; size = 4
_type$ = 8						; size = 4
_value$ = 12						; size = 4
_val$ = 16						; size = 4
_node$ = 20						; size = 4
_flags$ = 24						; size = 4
_ws$ = 28						; size = 4
_normOnTheFly$ = 32					; size = 4
_applyNorm$ = 36					; size = 4
_createStringValue$ = 40				; size = 4
_xmlSchemaValAtomicType PROC				; COMDAT

; 2147 : {

	push	ebp
	mov	ebp, esp
	sub	esp, 56					; 00000038H
	push	ebx
	mov	ecx, OFFSET __74485836_xmlschemastypes@c
	call	@__CheckForDebuggerJustMyCode@4
	xor	ebx, ebx
	mov	DWORD PTR _norm$1$[ebp], 0
	cmp	DWORD PTR _xmlSchemaTypesInitialized, ebx
	jne	SHORT $LN74@xmlSchemaV

; 2148 :     xmlSchemaValPtr v;
; 2149 :     xmlChar *norm = NULL;
; 2150 :     int ret = 0;
; 2151 : 
; 2152 :     if (xmlSchemaTypesInitialized == 0)
; 2153 :         xmlSchemaInitTypes();

	call	_xmlSchemaInitTypes
$LN74@xmlSchemaV:

; 2154 :     if (type == NULL)

	mov	ecx, DWORD PTR _type$[ebp]
	test	ecx, ecx
	jne	SHORT $LN75@xmlSchemaV

; 2155 :         return (-1);

	or	eax, -1
	pop	ebx

; 3353 : }

	mov	esp, ebp
	pop	ebp
	ret	0
$LN75@xmlSchemaV:

; 2156 : 
; 2157 :     /*
; 2158 :      * validating a non existant text node is similar to validating
; 2159 :      * an empty one.
; 2160 :      */
; 2161 :     if (value == NULL)
; 2162 :         value = BAD_CAST "";
; 2163 : 
; 2164 :     if (val != NULL)

	mov	eax, DWORD PTR _value$[ebp]
	test	eax, eax
	mov	edx, DWORD PTR _val$[ebp]
	push	edi
	mov	edi, OFFSET ??_C@_00CNPNBAHC@@
	cmovne	edi, eax
	test	edx, edx
	je	SHORT $LN77@xmlSchemaV

; 2165 :         *val = NULL;

	mov	DWORD PTR [edx], ebx
$LN77@xmlSchemaV:
	push	esi

; 2166 :     if ((flags == 0) && (value != NULL)) {

	mov	esi, edi
	cmp	DWORD PTR _flags$[ebp], ebx
	jne	SHORT $LN82@xmlSchemaV
	test	edi, edi
	je	SHORT $LN82@xmlSchemaV

; 2167 : 
; 2168 :         if ((type->builtInType != XML_SCHEMAS_STRING) &&
; 2169 : 	  (type->builtInType != XML_SCHEMAS_ANYTYPE) &&

	mov	eax, DWORD PTR [ecx+88]
	cmp	eax, 1
	je	SHORT $LN82@xmlSchemaV
	cmp	eax, 45					; 0000002dH
	je	SHORT $LN82@xmlSchemaV
	cmp	eax, 46					; 0000002eH
	je	SHORT $LN82@xmlSchemaV

; 2170 : 	  (type->builtInType != XML_SCHEMAS_ANYSIMPLETYPE)) {
; 2171 : 	    if (type->builtInType == XML_SCHEMAS_NORMSTRING)

	push	edi
	cmp	eax, 2
	jne	SHORT $LN80@xmlSchemaV

; 2172 : 		norm = xmlSchemaWhiteSpaceReplace(value);

	call	_xmlSchemaWhiteSpaceReplace
	jmp	SHORT $LN656@xmlSchemaV
$LN80@xmlSchemaV:

; 2173 :             else
; 2174 : 		norm = xmlSchemaCollapseString(value);

	call	_xmlSchemaCollapseString
$LN656@xmlSchemaV:
	mov	edx, DWORD PTR _val$[ebp]

; 2175 :             if (norm != NULL)

	add	esp, 4
	test	eax, eax
	mov	DWORD PTR _norm$1$[ebp], eax
	cmovne	esi, eax
$LN82@xmlSchemaV:

; 2176 :                 value = norm;
; 2177 :         }
; 2178 :     }
; 2179 : 
; 2180 :     switch (type->builtInType) {

	mov	edi, DWORD PTR _type$[ebp]
	mov	ecx, DWORD PTR [edi+88]
	cmp	ecx, 46					; 0000002eH
	ja	$done$680
	movzx	eax, BYTE PTR $LN633@xmlSchemaV[ecx]
	jmp	DWORD PTR $LN679@xmlSchemaV[eax*4]
$LN84@xmlSchemaV:

; 2181 :         case XML_SCHEMAS_UNKNOWN:
; 2182 :             goto error;
; 2183 : 	case XML_SCHEMAS_ANYTYPE:
; 2184 : 	case XML_SCHEMAS_ANYSIMPLETYPE:
; 2185 : 	    if ((createStringValue) && (val != NULL)) {

	cmp	DWORD PTR _createStringValue$[ebp], ebx
	je	$return0$681
	test	edx, edx
	je	$return0$681

; 2186 : 		v = xmlSchemaNewValue(XML_SCHEMAS_ANYSIMPLETYPE);

	push	46					; 0000002eH
	call	_xmlSchemaNewValue
	mov	edi, eax
	add	esp, 4

; 2187 : 		if (v != NULL) {

	test	edi, edi
	je	$error$682

; 2188 : 		    v->value.str = xmlStrdup(value);

	push	esi
	call	_xmlStrdup

; 2189 : 		    *val = v;

	mov	ecx, DWORD PTR _val$[ebp]
	add	esp, 4
	mov	DWORD PTR [edi+8], eax
	mov	DWORD PTR [ecx], edi

; 2190 : 		} else {

	jmp	$return0$681
$LN88@xmlSchemaV:

; 2191 : 		    goto error;
; 2192 : 		}
; 2193 : 	    }
; 2194 : 	    goto return0;
; 2195 :         case XML_SCHEMAS_STRING:
; 2196 : 	    if (! normOnTheFly) {

	mov	edi, DWORD PTR _ws$[ebp]
	cmp	DWORD PTR _normOnTheFly$[ebp], ebx
	jne	SHORT $LN7@xmlSchemaV

; 2197 : 		const xmlChar *cur = value;

	mov	ecx, esi

; 2198 : 
; 2199 : 		if (ws == XML_SCHEMA_WHITESPACE_REPLACE) {

	cmp	edi, 2
	jne	SHORT $LN90@xmlSchemaV

; 2200 : 		    while (*cur != 0) {

	mov	al, BYTE PTR [esi]
	test	al, al
	je	SHORT $LN7@xmlSchemaV
$LL4@xmlSchemaV:

; 2201 : 			if ((*cur == 0xd) || (*cur == 0xa) || (*cur == 0x9)) {

	cmp	al, 13					; 0000000dH
	je	$return1$683
	cmp	al, 10					; 0000000aH
	je	$return1$683
	cmp	al, 9
	je	$return1$683

; 2202 : 			    goto return1;
; 2203 : 			} else {
; 2204 : 			    cur++;

	mov	al, BYTE PTR [ecx+1]
	inc	ecx
	test	al, al
	jne	SHORT $LL4@xmlSchemaV

; 3053 :                     else if (decc < 64)

	jmp	SHORT $LN7@xmlSchemaV
$LN90@xmlSchemaV:

; 2205 : 			}
; 2206 : 		    }
; 2207 : 		} else if (ws == XML_SCHEMA_WHITESPACE_COLLAPSE) {

	cmp	edi, 3
	jne	SHORT $LN7@xmlSchemaV

; 2208 : 		    while (*cur != 0) {

	mov	al, BYTE PTR [esi]
	test	al, al
	je	SHORT $LN7@xmlSchemaV
$LL6@xmlSchemaV:

; 2209 : 			if ((*cur == 0xd) || (*cur == 0xa) || (*cur == 0x9)) {

	cmp	al, 13					; 0000000dH
	je	$return1$683
	cmp	al, 10					; 0000000aH
	je	$return1$683
	cmp	al, 9
	je	$return1$683

; 2210 : 			    goto return1;
; 2211 : 			} else if IS_WSP_SPACE_CH(*cur) {

	mov	dl, BYTE PTR [ecx+1]
	inc	ecx
	cmp	al, 32					; 00000020H
	jne	SHORT $LN99@xmlSchemaV

; 2212 : 			    cur++;
; 2213 : 			    if IS_WSP_SPACE_CH(*cur)

	cmp	dl, al
	je	$return1$683
$LN99@xmlSchemaV:

; 2208 : 		    while (*cur != 0) {

	mov	al, dl
	test	dl, dl
	jne	SHORT $LL6@xmlSchemaV
$LN7@xmlSchemaV:

; 2214 : 				goto return1;
; 2215 : 			} else {
; 2216 : 			    cur++;
; 2217 : 			}
; 2218 : 		    }
; 2219 : 		}
; 2220 : 	    }
; 2221 : 	    if (createStringValue && (val != NULL)) {

	cmp	DWORD PTR _createStringValue$[ebp], ebx
	je	$return0$681
	mov	ebx, DWORD PTR _val$[ebp]
	test	ebx, ebx
	je	$return0$681

; 2222 : 		if (applyNorm) {

	cmp	DWORD PTR _applyNorm$[ebp], 0
	je	SHORT $LN107@xmlSchemaV

; 2223 : 		    if (ws == XML_SCHEMA_WHITESPACE_COLLAPSE)

	cmp	edi, 3
	jne	SHORT $LN104@xmlSchemaV

; 2224 : 			norm = xmlSchemaCollapseString(value);

	push	esi
	call	_xmlSchemaCollapseString
	add	esp, 4
	mov	DWORD PTR _norm$1$[ebp], eax

; 2227 : 		    if (norm != NULL)

	test	eax, eax
	cmovne	esi, eax

; 2228 : 			value = norm;
; 2229 : 		}
; 2230 : 		v = xmlSchemaNewValue(XML_SCHEMAS_STRING);

	push	1

; 2231 : 		if (v != NULL) {
; 2232 : 		    v->value.str = xmlStrdup(value);
; 2233 : 		    *val = v;
; 2234 : 		} else {

	jmp	$LN673@xmlSchemaV
$LN104@xmlSchemaV:

; 2225 : 		    else if (ws == XML_SCHEMA_WHITESPACE_REPLACE)

	cmp	edi, 2
	jne	SHORT $LN650@xmlSchemaV

; 2226 : 			norm = xmlSchemaWhiteSpaceReplace(value);

	push	esi
	call	_xmlSchemaWhiteSpaceReplace
	add	esp, 4
	mov	DWORD PTR _norm$1$[ebp], eax

; 2227 : 		    if (norm != NULL)

	test	eax, eax
	cmovne	esi, eax

; 2228 : 			value = norm;
; 2229 : 		}
; 2230 : 		v = xmlSchemaNewValue(XML_SCHEMAS_STRING);

	push	1

; 2231 : 		if (v != NULL) {
; 2232 : 		    v->value.str = xmlStrdup(value);
; 2233 : 		    *val = v;
; 2234 : 		} else {

	jmp	$LN673@xmlSchemaV
$LN650@xmlSchemaV:

; 2225 : 		    else if (ws == XML_SCHEMA_WHITESPACE_REPLACE)

	mov	eax, DWORD PTR _norm$1$[ebp]

; 2227 : 		    if (norm != NULL)

	test	eax, eax
	cmovne	esi, eax
$LN107@xmlSchemaV:

; 2228 : 			value = norm;
; 2229 : 		}
; 2230 : 		v = xmlSchemaNewValue(XML_SCHEMAS_STRING);

	push	1

; 2231 : 		if (v != NULL) {
; 2232 : 		    v->value.str = xmlStrdup(value);
; 2233 : 		    *val = v;
; 2234 : 		} else {

	jmp	$LN673@xmlSchemaV
$LN110@xmlSchemaV:

; 2235 : 		    goto error;
; 2236 : 		}
; 2237 : 	    }
; 2238 :             goto return0;
; 2239 :         case XML_SCHEMAS_NORMSTRING:{
; 2240 : 		if (normOnTheFly) {

	cmp	DWORD PTR _normOnTheFly$[ebp], ebx
	je	SHORT $LN111@xmlSchemaV

; 2241 : 		    if (applyNorm) {

	cmp	DWORD PTR _applyNorm$[ebp], ebx
	je	SHORT $LN9@xmlSchemaV

; 2242 : 			if (ws == XML_SCHEMA_WHITESPACE_COLLAPSE)

	cmp	DWORD PTR _ws$[ebp], 3
	push	esi
	jne	SHORT $LN114@xmlSchemaV

; 2243 : 			    norm = xmlSchemaCollapseString(value);

	call	_xmlSchemaCollapseString
	jmp	SHORT $LN657@xmlSchemaV
$LN114@xmlSchemaV:

; 2244 : 			else
; 2245 : 			    norm = xmlSchemaWhiteSpaceReplace(value);

	call	_xmlSchemaWhiteSpaceReplace
$LN657@xmlSchemaV:

; 2246 : 			if (norm != NULL)

	add	esp, 4
	mov	DWORD PTR _norm$1$[ebp], eax
	test	eax, eax
	je	SHORT $LN9@xmlSchemaV

; 2247 : 			    value = norm;

	mov	esi, eax

; 2248 : 		    }
; 2249 : 		} else {

	jmp	SHORT $LN9@xmlSchemaV
$LN111@xmlSchemaV:

; 2250 : 		    const xmlChar *cur = value;
; 2251 : 		    while (*cur != 0) {

	mov	al, BYTE PTR [esi]
	mov	ecx, esi
	test	al, al
	je	SHORT $LN9@xmlSchemaV
	npad	7
$LL8@xmlSchemaV:

; 2252 : 			if ((*cur == 0xd) || (*cur == 0xa) || (*cur == 0x9)) {

	cmp	al, 13					; 0000000dH
	je	$return1$683
	cmp	al, 10					; 0000000aH
	je	$return1$683
	cmp	al, 9
	je	$return1$683

; 2253 : 			    goto return1;
; 2254 : 			} else {
; 2255 : 			    cur++;

	mov	al, BYTE PTR [ecx+1]
	inc	ecx
	test	al, al
	jne	SHORT $LL8@xmlSchemaV
$LN9@xmlSchemaV:

; 2256 : 			}
; 2257 : 		    }
; 2258 : 		}
; 2259 :                 if (val != NULL) {

	mov	ebx, DWORD PTR _val$[ebp]
	test	ebx, ebx
	je	$return0$681

; 2260 :                     v = xmlSchemaNewValue(XML_SCHEMAS_NORMSTRING);

	push	2

; 2261 :                     if (v != NULL) {
; 2262 :                         v->value.str = xmlStrdup(value);
; 2263 :                         *val = v;
; 2264 :                     } else {

	jmp	$LN673@xmlSchemaV
$LN123@xmlSchemaV:

; 2265 :                         goto error;
; 2266 :                     }
; 2267 :                 }
; 2268 :                 goto return0;
; 2269 :             }
; 2270 :         case XML_SCHEMAS_DECIMAL:{
; 2271 :                 const xmlChar *cur = value;
; 2272 :                 unsigned int len, neg, integ, hasLeadingZeroes;
; 2273 : 		xmlChar cval[25];
; 2274 : 		xmlChar *cptr = cval;

	lea	edi, DWORD PTR _cval$1[ebp]

; 2275 : 
; 2276 :                 if ((cur == NULL) || (*cur == 0))

	test	esi, esi
	je	$return1$683
	mov	al, BYTE PTR [esi]
	test	al, al
	je	$return1$683

; 2277 :                     goto return1;
; 2278 : 
; 2279 : 		/*
; 2280 : 		* xs:decimal has a whitespace-facet value of 'collapse'.
; 2281 : 		*/
; 2282 : 		if (normOnTheFly)

	cmp	DWORD PTR _normOnTheFly$[ebp], ebx
	je	SHORT $LN636@xmlSchemaV
	npad	4
$LL10@xmlSchemaV:

; 2283 : 		    while IS_WSP_BLANK_CH(*cur) cur++;

	cmp	al, 32					; 00000020H
	je	SHORT $LN127@xmlSchemaV
	cmp	al, 9
	jb	SHORT $LN128@xmlSchemaV
	cmp	al, 10					; 0000000aH
	jbe	SHORT $LN127@xmlSchemaV
$LN128@xmlSchemaV:
	cmp	al, 13					; 0000000dH
	jne	SHORT $LN636@xmlSchemaV
$LN127@xmlSchemaV:
	mov	al, BYTE PTR [esi+1]
	inc	esi
	jmp	SHORT $LL10@xmlSchemaV
$LN636@xmlSchemaV:

; 2284 : 
; 2285 : 		/*
; 2286 : 		* First we handle an optional sign.
; 2287 : 		*/
; 2288 : 		neg = 0;

	mov	DWORD PTR _neg$1$[ebp], ebx

; 2289 :                 if (*cur == '-') {

	cmp	al, 45					; 0000002dH
	jne	SHORT $LN129@xmlSchemaV

; 2290 : 		    neg = 1;

	mov	DWORD PTR _neg$1$[ebp], 1

; 2291 :                     cur++;

	jmp	SHORT $LN658@xmlSchemaV
$LN129@xmlSchemaV:

; 2292 : 		} else if (*cur == '+')

	cmp	al, 43					; 0000002bH
	jne	SHORT $LN131@xmlSchemaV
$LN658@xmlSchemaV:

; 2293 :                     cur++;
; 2294 : 		/*
; 2295 : 		* Disallow: "", "-", "- "
; 2296 : 		*/
; 2297 : 		if (*cur == 0)

	mov	al, BYTE PTR [esi+1]
	inc	esi
$LN131@xmlSchemaV:
	test	al, al
	je	$return1$683

; 2298 : 		    goto return1;
; 2299 : 		/*
; 2300 : 		 * Next we "pre-parse" the number, in preparation for calling
; 2301 : 		 * the common routine xmlSchemaParseUInt.  We get rid of any
; 2302 : 		 * leading zeroes (because we have reserved only 25 chars),
; 2303 : 		 * and note the position of a decimal point.
; 2304 : 		 */
; 2305 : 		len = 0;
; 2306 : 		integ = ~0u;

	or	ecx, -1
	xor	ebx, ebx

; 2307 : 		hasLeadingZeroes = 0;

	xor	edx, edx
	mov	DWORD PTR _integ$1$[ebp], ecx

; 2308 : 		/*
; 2309 : 		* Skip leading zeroes.
; 2310 : 		*/
; 2311 : 		while (*cur == '0') {

	cmp	al, 48					; 00000030H
	jne	SHORT $LN13@xmlSchemaV

; 2313 : 		    hasLeadingZeroes = 1;

	lea	edx, DWORD PTR [ebx+1]
$LL12@xmlSchemaV:

; 2308 : 		/*
; 2309 : 		* Skip leading zeroes.
; 2310 : 		*/
; 2311 : 		while (*cur == '0') {

	mov	al, BYTE PTR [esi+1]

; 2312 : 		    cur++;

	inc	esi
	cmp	al, 48					; 00000030H
	je	SHORT $LL12@xmlSchemaV
$LN13@xmlSchemaV:

; 2314 : 		}
; 2315 : 		if (*cur != 0) {

	test	al, al
	je	SHORT $LN15@xmlSchemaV
$LL16@xmlSchemaV:

; 2316 : 		    do {
; 2317 : 			if ((*cur >= '0') && (*cur <= '9')) {

	mov	cl, BYTE PTR [esi]
	lea	eax, DWORD PTR [ecx-48]
	cmp	al, 9
	ja	SHORT $LN134@xmlSchemaV

; 2318 : 			    *cptr++ = *cur++;

	mov	BYTE PTR [edi], cl

; 2319 : 			    len++;

	inc	ebx
	inc	edi
	inc	esi

; 2334 : 				goto return1;
; 2335 : 			    break;
; 2336 : 			} else
; 2337 : 			    break;
; 2338 : 		    } while (len < 24);

	cmp	ebx, 24					; 00000018H
	jb	SHORT $LL16@xmlSchemaV
	jmp	SHORT $LN15@xmlSchemaV
$LN134@xmlSchemaV:

; 2320 : 			} else if (*cur == '.') {

	cmp	cl, 46					; 0000002eH
	jne	SHORT $LN15@xmlSchemaV

; 2321 : 			    cur++;
; 2322 : 			    integ = len;

	mov	ecx, ebx
	inc	esi
	mov	DWORD PTR _integ$1$[ebp], ecx
$LL19@xmlSchemaV:

; 2323 : 			    do {
; 2324 : 				if ((*cur >= '0') && (*cur <= '9')) {

	mov	cl, BYTE PTR [esi]
	lea	eax, DWORD PTR [ecx-48]
	cmp	al, 9
	ja	SHORT $LN18@xmlSchemaV

; 2325 : 				    *cptr++ = *cur++;

	mov	BYTE PTR [edi], cl

; 2326 : 				    len++;

	inc	ebx
	inc	edi
	inc	esi

; 2327 : 				} else
; 2328 : 				    break;
; 2329 : 			    } while (len < 24);

	cmp	ebx, 24					; 00000018H
	jb	SHORT $LL19@xmlSchemaV
$LN18@xmlSchemaV:

; 2330 : 			    /*
; 2331 : 			    * Disallow "." but allow "00."
; 2332 : 			    */
; 2333 : 			    if ((len == 0) && (!hasLeadingZeroes))

	test	ebx, ebx
	jne	SHORT $LN15@xmlSchemaV
	test	edx, edx
	je	$return1$683
$LN15@xmlSchemaV:

; 2339 : 		}
; 2340 : 		if (normOnTheFly)

	cmp	DWORD PTR _normOnTheFly$[ebp], 0
	je	SHORT $LN637@xmlSchemaV
$LL20@xmlSchemaV:

; 2341 : 		    while IS_WSP_BLANK_CH(*cur) cur++;

	mov	al, BYTE PTR [esi]
	cmp	al, 32					; 00000020H
	je	SHORT $LN142@xmlSchemaV
	cmp	al, 9
	jb	SHORT $LN143@xmlSchemaV
	cmp	al, 10					; 0000000aH
	jbe	SHORT $LN142@xmlSchemaV
$LN143@xmlSchemaV:
	cmp	al, 13					; 0000000dH
	jne	SHORT $LN637@xmlSchemaV
$LN142@xmlSchemaV:
	inc	esi
	jmp	SHORT $LL20@xmlSchemaV
$LN637@xmlSchemaV:

; 2342 : 		if (*cur != 0)

	cmp	BYTE PTR [esi], 0
	jne	$return1$683

; 2343 : 		    goto return1; /* error if any extraneous chars */
; 2344 :                 if (val != NULL) {

	cmp	DWORD PTR _val$[ebp], 0
	je	$return0$681

; 2345 :                     v = xmlSchemaNewValue(XML_SCHEMAS_DECIMAL);

	push	3
	call	_xmlSchemaNewValue
	mov	esi, eax
	add	esp, 4

; 2346 :                     if (v != NULL) {

	test	esi, esi
	je	$return0$681

; 2347 : 			/*
; 2348 : 			* Now evaluate the significant digits of the number
; 2349 : 			*/
; 2350 : 			if (len != 0) {

	mov	ecx, DWORD PTR _integ$1$[ebp]
	test	ebx, ebx
	je	SHORT $LN149@xmlSchemaV

; 2351 : 
; 2352 : 			    if (integ != ~0u) {

	cmp	ecx, -1
	je	SHORT $LN638@xmlSchemaV

; 2353 : 				/*
; 2354 : 				* Get rid of trailing zeroes in the
; 2355 : 				* fractional part.
; 2356 : 				*/
; 2357 : 				while ((len != integ) && (*(cptr-1) == '0')) {

	cmp	ebx, ecx
	je	SHORT $LN638@xmlSchemaV
$LL22@xmlSchemaV:
	cmp	BYTE PTR [edi-1], 48			; 00000030H
	jne	SHORT $LN638@xmlSchemaV

; 2358 : 				    cptr--;
; 2359 : 				    len--;

	dec	ebx
	dec	edi
	cmp	ebx, ecx
	jne	SHORT $LL22@xmlSchemaV
$LN638@xmlSchemaV:

; 2360 : 				}
; 2361 : 			    }
; 2362 : 			    /*
; 2363 : 			    * Terminate the (preparsed) string.
; 2364 : 			    */
; 2365 : 			    if (len != 0) {

	test	ebx, ebx
	je	SHORT $LN149@xmlSchemaV

; 2366 : 				*cptr = 0;
; 2367 : 				cptr = cval;

	lea	eax, DWORD PTR _cval$1[ebp]
	mov	BYTE PTR [edi], 0
	mov	DWORD PTR _cptr$15[ebp], eax

; 2368 : 
; 2369 : 				xmlSchemaParseUInt((const xmlChar **)&cptr,

	lea	eax, DWORD PTR [esi+16]
	push	eax
	lea	eax, DWORD PTR [esi+12]
	push	eax
	lea	eax, DWORD PTR [esi+8]
	push	eax
	lea	eax, DWORD PTR _cptr$15[ebp]
	push	eax
	call	_xmlSchemaParseUInt
	mov	ecx, DWORD PTR _integ$1$[ebp]
	add	esp, 16					; 00000010H
$LN149@xmlSchemaV:

; 2370 : 				    &v->value.decimal.lo,
; 2371 : 				    &v->value.decimal.mi,
; 2372 : 				    &v->value.decimal.hi);
; 2373 : 			    }
; 2374 : 			}
; 2375 : 			/*
; 2376 : 			* Set the total digits to 1 if a zero value.
; 2377 : 			*/
; 2378 :                         v->value.decimal.sign = neg;

	mov	eax, DWORD PTR [esi+24]
	and	eax, -2					; fffffffeH
	or	eax, DWORD PTR _neg$1$[ebp]
	mov	DWORD PTR [esi+24], eax

; 2379 : 			if (len == 0) {

	test	ebx, ebx
	jne	SHORT $LN150@xmlSchemaV

; 2388 : 			}
; 2389 :                         *val = v;

	mov	eax, DWORD PTR _val$[ebp]
	mov	BYTE PTR [esi+25], 1
	mov	DWORD PTR [eax], esi

; 2390 :                     }
; 2391 :                 }
; 2392 :                 goto return0;

	jmp	$return0$681
$LN150@xmlSchemaV:

; 2380 : 			    /* Speedup for zero values. */
; 2381 : 			    v->value.decimal.total = 1;
; 2382 : 			} else {
; 2383 : 			    v->value.decimal.total = len;

	mov	BYTE PTR [esi+25], bl
	mov	eax, DWORD PTR [esi+24]
	and	eax, -255				; ffffff01H

; 2384 : 			    if (integ == ~0u)

	cmp	ecx, -1
	jne	SHORT $LN152@xmlSchemaV

; 2385 : 				v->value.decimal.frac = 0;

	mov	DWORD PTR [esi+24], eax

; 2388 : 			}
; 2389 :                         *val = v;

	mov	eax, DWORD PTR _val$[ebp]
	mov	DWORD PTR [eax], esi

; 2390 :                     }
; 2391 :                 }
; 2392 :                 goto return0;

	jmp	$return0$681
$LN152@xmlSchemaV:

; 2386 : 			    else
; 2387 : 				v->value.decimal.frac = len - integ;

	sub	ebx, ecx
	add	ebx, ebx
	and	ebx, 254				; 000000feH
	or	ebx, eax

; 2388 : 			}
; 2389 :                         *val = v;

	mov	eax, DWORD PTR _val$[ebp]
	mov	DWORD PTR [esi+24], ebx
	mov	DWORD PTR [eax], esi

; 2390 :                     }
; 2391 :                 }
; 2392 :                 goto return0;

	jmp	$return0$681
$LN154@xmlSchemaV:

; 2393 :             }
; 2394 :         case XML_SCHEMAS_TIME:
; 2395 :         case XML_SCHEMAS_GDAY:
; 2396 :         case XML_SCHEMAS_GMONTH:
; 2397 :         case XML_SCHEMAS_GMONTHDAY:
; 2398 :         case XML_SCHEMAS_GYEAR:
; 2399 :         case XML_SCHEMAS_GYEARMONTH:
; 2400 :         case XML_SCHEMAS_DATE:
; 2401 :         case XML_SCHEMAS_DATETIME:
; 2402 :             ret = xmlSchemaValidateDates(type->builtInType, value, val,

	push	DWORD PTR _normOnTheFly$[ebp]
	push	edx
	push	esi
	push	ecx
	call	_xmlSchemaValidateDates
$LN676@xmlSchemaV:

; 3326 :                         *val = v;
; 3327 :                     }
; 3328 :                 }
; 3329 :                 goto return0;
; 3330 :             }
; 3331 :     }
; 3332 : 
; 3333 :   done:
; 3334 :     if (norm != NULL)

	add	esp, 16					; 00000010H
	mov	ebx, eax
$done$680:
	mov	eax, DWORD PTR _norm$1$[ebp]
	test	eax, eax
	je	SHORT $LN497@xmlSchemaV

; 3335 :         xmlFree(norm);

	push	eax
	call	DWORD PTR _xmlFree
	add	esp, 4
$LN497@xmlSchemaV:

; 3336 :     return (ret);

	pop	esi
	pop	edi
	mov	eax, ebx
	pop	ebx

; 3353 : }

	mov	esp, ebp
	pop	ebp
	ret	0
$LN155@xmlSchemaV:

; 2403 : 		normOnTheFly);
; 2404 :             break;
; 2405 :         case XML_SCHEMAS_DURATION:
; 2406 :             ret = xmlSchemaValidateDuration(type, value, val,

	push	DWORD PTR _normOnTheFly$[ebp]
	push	edx
	push	esi
	push	edi
	call	_xmlSchemaValidateDuration

; 2407 : 		normOnTheFly);
; 2408 :             break;

	jmp	SHORT $LN676@xmlSchemaV
$LN156@xmlSchemaV:

; 2409 :         case XML_SCHEMAS_FLOAT:
; 2410 :         case XML_SCHEMAS_DOUBLE: {
; 2411 :                 const xmlChar *cur = value;
; 2412 :                 int neg = 0;
; 2413 :                 int digits_before = 0;
; 2414 :                 int digits_after = 0;

	xor	edi, edi
	mov	DWORD PTR _neg$1$[ebp], ebx
	mov	ecx, esi
	mov	DWORD PTR _digits_before$1$[ebp], ebx

; 2415 : 
; 2416 : 		if (normOnTheFly)

	cmp	DWORD PTR _normOnTheFly$[ebp], ebx
	je	SHORT $LN639@xmlSchemaV
$LL24@xmlSchemaV:

; 2417 : 		    while IS_WSP_BLANK_CH(*cur) cur++;

	mov	al, BYTE PTR [ecx]
	cmp	al, 32					; 00000020H
	je	SHORT $LN158@xmlSchemaV
	cmp	al, 9
	jb	SHORT $LN159@xmlSchemaV
	cmp	al, 10					; 0000000aH
	jbe	SHORT $LN158@xmlSchemaV
$LN159@xmlSchemaV:
	cmp	al, 13					; 0000000dH
	jne	SHORT $LN639@xmlSchemaV
$LN158@xmlSchemaV:
	inc	ecx
	jmp	SHORT $LL24@xmlSchemaV
$LN639@xmlSchemaV:

; 2418 : 
; 2419 :                 if ((cur[0] == 'N') && (cur[1] == 'a') && (cur[2] == 'N')) {

	mov	al, BYTE PTR [ecx]
	cmp	al, 78					; 0000004eH
	jne	SHORT $LN160@xmlSchemaV
	cmp	BYTE PTR [ecx+1], 97			; 00000061H
	jne	SHORT $LN160@xmlSchemaV
	cmp	BYTE PTR [ecx+2], al
	jne	SHORT $LN160@xmlSchemaV

; 2420 :                     cur += 3;
; 2421 :                     if (*cur != 0)

	cmp	BYTE PTR [ecx+3], bl
	jne	$return1$683

; 2422 :                         goto return1;
; 2423 :                     if (val != NULL) {

	test	edx, edx
	je	$return0$681

; 2424 :                         if (type == xmlSchemaTypeFloatDef) {

	mov	ecx, DWORD PTR _type$[ebp]
	cmp	ecx, DWORD PTR _xmlSchemaTypeFloatDef
	jne	SHORT $LN163@xmlSchemaV

; 2425 :                             v = xmlSchemaNewValue(XML_SCHEMAS_FLOAT);

	push	13					; 0000000dH
	call	_xmlSchemaNewValue
	add	esp, 4

; 2426 :                             if (v != NULL) {

	test	eax, eax
	je	SHORT $LN165@xmlSchemaV

; 2427 :                                 v->value.f = (float) xmlXPathNAN;

	movsd	xmm0, QWORD PTR _xmlXPathNAN
	cvtpd2ps xmm0, xmm0
	movss	DWORD PTR [eax+8], xmm0

; 2428 :                             } else {
; 2429 :                                 xmlSchemaFreeValue(v);
; 2430 :                                 goto error;
; 2431 :                             }
; 2432 :                         } else {

	jmp	$LN168@xmlSchemaV
$LN165@xmlSchemaV:

; 3349 :   error:
; 3350 :     if (norm != NULL)

	push	0
	call	_xmlSchemaFreeValue
	jmp	$LN665@xmlSchemaV
$LN163@xmlSchemaV:

; 2433 :                             v = xmlSchemaNewValue(XML_SCHEMAS_DOUBLE);

	push	14					; 0000000eH
	call	_xmlSchemaNewValue
	add	esp, 4

; 2434 :                             if (v != NULL) {

	test	eax, eax
	je	SHORT $LN165@xmlSchemaV

; 2435 :                                 v->value.d = xmlXPathNAN;

	movsd	xmm0, QWORD PTR _xmlXPathNAN
	movsd	QWORD PTR [eax+8], xmm0

; 2436 :                             } else {
; 2437 :                                 xmlSchemaFreeValue(v);
; 2438 :                                 goto error;
; 2439 :                             }
; 2440 :                         }
; 2441 :                         *val = v;

	jmp	$LN168@xmlSchemaV
$LN160@xmlSchemaV:

; 2442 :                     }
; 2443 :                     goto return0;
; 2444 :                 }
; 2445 :                 if (*cur == '-') {

	mov	bl, al
	cmp	al, 45					; 0000002dH
	jne	SHORT $LN169@xmlSchemaV

; 2446 :                     neg = 1;
; 2447 :                     cur++;

	mov	bl, BYTE PTR [ecx+1]
	mov	DWORD PTR _neg$1$[ebp], 1
$LN169@xmlSchemaV:

; 2448 :                 }
; 2449 :                 if ((cur[0] == 'I') && (cur[1] == 'N') && (cur[2] == 'F')) {

	lea	edx, DWORD PTR [ecx+1]
	cmovne	edx, ecx
	cmp	bl, 73					; 00000049H
	jne	$LN170@xmlSchemaV
	cmp	BYTE PTR [edx+1], 78			; 0000004eH
	jne	$LN170@xmlSchemaV
	cmp	BYTE PTR [edx+2], 70			; 00000046H
	jne	$LN170@xmlSchemaV

; 2450 :                     cur += 3;
; 2451 :                     if (*cur != 0)

	cmp	BYTE PTR [edx+3], 0
	jne	$return1$683

; 2452 :                         goto return1;
; 2453 :                     if (val != NULL) {

	mov	ebx, DWORD PTR _val$[ebp]
	test	ebx, ebx
	je	$return0$681

; 2454 :                         if (type == xmlSchemaTypeFloatDef) {

	mov	ecx, DWORD PTR _type$[ebp]
	cmp	ecx, DWORD PTR _xmlSchemaTypeFloatDef
	jne	SHORT $LN173@xmlSchemaV

; 2455 :                             v = xmlSchemaNewValue(XML_SCHEMAS_FLOAT);

	push	13					; 0000000dH
	call	_xmlSchemaNewValue
	add	esp, 4

; 2456 :                             if (v != NULL) {

	test	eax, eax
	je	$LN165@xmlSchemaV

; 2457 :                                 if (neg)

	cmp	DWORD PTR _neg$1$[ebp], edi
	je	SHORT $LN177@xmlSchemaV

; 2458 :                                     v->value.f = (float) xmlXPathNINF;
; 2459 :                                 else
; 2460 :                                     v->value.f = (float) xmlXPathPINF;
; 2461 :                             } else {
; 2462 :                                 xmlSchemaFreeValue(v);
; 2463 :                                 goto error;
; 2464 :                             }
; 2465 :                         } else {

	movsd	xmm0, QWORD PTR _xmlXPathNINF
	cvtpd2ps xmm0, xmm0
	movss	DWORD PTR [eax+8], xmm0

; 2472 :                             } else {
; 2473 :                                 xmlSchemaFreeValue(v);
; 2474 :                                 goto error;
; 2475 :                             }
; 2476 :                         }
; 2477 :                         *val = v;

	mov	DWORD PTR [ebx], eax
	jmp	$return0$681
$LN177@xmlSchemaV:
	movsd	xmm0, QWORD PTR _xmlXPathPINF

; 2458 :                                     v->value.f = (float) xmlXPathNINF;
; 2459 :                                 else
; 2460 :                                     v->value.f = (float) xmlXPathPINF;
; 2461 :                             } else {
; 2462 :                                 xmlSchemaFreeValue(v);
; 2463 :                                 goto error;
; 2464 :                             }
; 2465 :                         } else {

	cvtpd2ps xmm0, xmm0
	movss	DWORD PTR [eax+8], xmm0

; 2472 :                             } else {
; 2473 :                                 xmlSchemaFreeValue(v);
; 2474 :                                 goto error;
; 2475 :                             }
; 2476 :                         }
; 2477 :                         *val = v;

	mov	DWORD PTR [ebx], eax
	jmp	$return0$681
$LN173@xmlSchemaV:

; 2466 :                             v = xmlSchemaNewValue(XML_SCHEMAS_DOUBLE);

	push	14					; 0000000eH
	call	_xmlSchemaNewValue
	add	esp, 4

; 2467 :                             if (v != NULL) {

	test	eax, eax
	je	$LN165@xmlSchemaV

; 2468 :                                 if (neg)

	cmp	DWORD PTR _neg$1$[ebp], edi
	je	SHORT $LN181@xmlSchemaV

; 2469 :                                     v->value.d = xmlXPathNINF;

	movsd	xmm0, QWORD PTR _xmlXPathNINF

; 2472 :                             } else {
; 2473 :                                 xmlSchemaFreeValue(v);
; 2474 :                                 goto error;
; 2475 :                             }
; 2476 :                         }
; 2477 :                         *val = v;

	movsd	QWORD PTR [eax+8], xmm0
	mov	DWORD PTR [ebx], eax
	jmp	$return0$681
$LN181@xmlSchemaV:

; 2470 :                                 else
; 2471 :                                     v->value.d = xmlXPathPINF;

	movsd	xmm0, QWORD PTR _xmlXPathPINF

; 2472 :                             } else {
; 2473 :                                 xmlSchemaFreeValue(v);
; 2474 :                                 goto error;
; 2475 :                             }
; 2476 :                         }
; 2477 :                         *val = v;

	movsd	QWORD PTR [eax+8], xmm0
	mov	DWORD PTR [ebx], eax
	jmp	$return0$681
$LN170@xmlSchemaV:

; 2478 :                     }
; 2479 :                     goto return0;
; 2480 :                 }
; 2481 :                 if ((neg == 0) && (*cur == '+'))

	mov	cl, bl
	mov	eax, edx
	cmp	DWORD PTR _neg$1$[ebp], edi
	jne	SHORT $LN183@xmlSchemaV
	cmp	bl, 43					; 0000002bH
	jne	SHORT $LN183@xmlSchemaV

; 2482 :                     cur++;

	mov	cl, BYTE PTR [edx+1]
	lea	eax, DWORD PTR [edx+1]
$LN183@xmlSchemaV:

; 2483 :                 if ((cur[0] == 0) || (cur[0] == '+') || (cur[0] == '-'))

	test	cl, cl
	je	$return1$683
	cmp	cl, 43					; 0000002bH
	je	$return1$683
	cmp	cl, 45					; 0000002dH
	je	$return1$683

; 2484 :                     goto return1;
; 2485 :                 while ((*cur >= '0') && (*cur <= '9')) {

	cmp	cl, 48					; 00000030H
	jb	SHORT $LN27@xmlSchemaV
	mov	dl, cl
	xor	edi, edi
$LL26@xmlSchemaV:
	mov	cl, dl
	cmp	dl, 57					; 00000039H
	ja	SHORT $LN640@xmlSchemaV
	mov	cl, BYTE PTR [eax+1]

; 2486 :                     cur++;

	inc	eax

; 2487 :                     digits_before++;

	inc	edi
	mov	dl, cl
	cmp	cl, 48					; 00000030H
	jae	SHORT $LL26@xmlSchemaV
$LN640@xmlSchemaV:
	mov	DWORD PTR _digits_before$1$[ebp], edi
	xor	edi, edi
$LN27@xmlSchemaV:

; 2488 :                 }
; 2489 :                 if (*cur == '.') {

	cmp	cl, 46					; 0000002eH
	jne	SHORT $LN641@xmlSchemaV

; 2490 :                     cur++;
; 2491 :                     while ((*cur >= '0') && (*cur <= '9')) {

	mov	cl, BYTE PTR [eax+1]
	inc	eax
	cmp	cl, 48					; 00000030H
	jb	SHORT $LN641@xmlSchemaV
	npad	6
$LL28@xmlSchemaV:
	cmp	cl, 57					; 00000039H
	ja	SHORT $LN641@xmlSchemaV
	mov	cl, BYTE PTR [eax+1]

; 2492 :                         cur++;

	inc	eax

; 2493 :                         digits_after++;

	inc	edi
	cmp	cl, 48					; 00000030H
	jae	SHORT $LL28@xmlSchemaV
$LN641@xmlSchemaV:

; 2494 :                     }
; 2495 :                 }
; 2496 :                 if ((digits_before == 0) && (digits_after == 0))

	cmp	DWORD PTR _digits_before$1$[ebp], 0
	jne	SHORT $LN187@xmlSchemaV
	test	edi, edi
	je	$return1$683
$LN187@xmlSchemaV:

; 2497 :                     goto return1;
; 2498 :                 if ((*cur == 'e') || (*cur == 'E')) {

	mov	cl, BYTE PTR [eax]
	cmp	cl, 101					; 00000065H
	je	SHORT $LN189@xmlSchemaV
	cmp	cl, 69					; 00000045H
	jne	SHORT $LN642@xmlSchemaV
$LN189@xmlSchemaV:

; 2499 :                     cur++;
; 2500 :                     if ((*cur == '-') || (*cur == '+'))

	mov	cl, BYTE PTR [eax+1]
	inc	eax
	cmp	cl, 45					; 0000002dH
	je	SHORT $LN191@xmlSchemaV
	cmp	cl, 43					; 0000002bH
	jne	SHORT $LN515@xmlSchemaV
$LN191@xmlSchemaV:

; 2501 :                         cur++;

	mov	cl, BYTE PTR [eax+1]
	inc	eax
$LN515@xmlSchemaV:

; 2502 :                     while ((*cur >= '0') && (*cur <= '9'))

	cmp	cl, 48					; 00000030H
	jb	SHORT $LN642@xmlSchemaV
$LL30@xmlSchemaV:
	cmp	cl, 57					; 00000039H
	ja	SHORT $LN642@xmlSchemaV
	mov	cl, BYTE PTR [eax+1]

; 2503 :                         cur++;

	inc	eax
	cmp	cl, 48					; 00000030H
	jae	SHORT $LL30@xmlSchemaV
$LN642@xmlSchemaV:

; 2504 :                 }
; 2505 : 		if (normOnTheFly)

	cmp	DWORD PTR _normOnTheFly$[ebp], 0
	je	SHORT $LN643@xmlSchemaV
$LL32@xmlSchemaV:

; 2506 : 		    while IS_WSP_BLANK_CH(*cur) cur++;

	mov	cl, BYTE PTR [eax]
	cmp	cl, 32					; 00000020H
	je	SHORT $LN193@xmlSchemaV
	cmp	cl, 9
	jb	SHORT $LN194@xmlSchemaV
	cmp	cl, 10					; 0000000aH
	jbe	SHORT $LN193@xmlSchemaV
$LN194@xmlSchemaV:
	cmp	cl, 13					; 0000000dH
	jne	SHORT $LN643@xmlSchemaV
$LN193@xmlSchemaV:
	inc	eax
	jmp	SHORT $LL32@xmlSchemaV
$LN643@xmlSchemaV:

; 2507 : 
; 2508 :                 if (*cur != 0)

	cmp	BYTE PTR [eax], 0
	jne	SHORT $return1$683

; 2509 :                     goto return1;
; 2510 :                 if (val != NULL) {

	mov	ebx, DWORD PTR _val$[ebp]
	test	ebx, ebx
	je	$return0$681

; 2511 :                     if (type == xmlSchemaTypeFloatDef) {

	mov	ecx, DWORD PTR _type$[ebp]
	cmp	ecx, DWORD PTR _xmlSchemaTypeFloatDef
	jne	SHORT $LN197@xmlSchemaV

; 2512 :                         v = xmlSchemaNewValue(XML_SCHEMAS_FLOAT);

	push	13					; 0000000dH
	call	_xmlSchemaNewValue
	mov	edi, eax
	add	esp, 4

; 2513 :                         if (v != NULL) {

	test	edi, edi
	je	$error$682

; 2514 : 			    /*
; 2515 : 			    * TODO: sscanf seems not to give the correct
; 2516 : 			    * value for extremely high/low values.
; 2517 : 			    * E.g. "1E-149" results in zero.
; 2518 : 			    */
; 2519 :                             if (sscanf((const char *) value, "%f",
; 2520 :                                  &(v->value.f)) == 1) {

	lea	ecx, DWORD PTR [edi+8]
	push	ecx
	push	OFFSET ??_C@_02NJPGOMH@?$CFf@
	push	esi
	call	_sscanf
	add	esp, 12					; 0000000cH
	cmp	eax, 1
	je	$LN674@xmlSchemaV
$LN201@xmlSchemaV:

; 3341 :   return1:
; 3342 :     if (norm != NULL)

	push	edi
	call	_xmlSchemaFreeValue
$LN675@xmlSchemaV:
	add	esp, 4
$return1$683:
	mov	eax, DWORD PTR _norm$1$[ebp]
	test	eax, eax
	je	SHORT $LN499@xmlSchemaV

; 3343 :         xmlFree(norm);

	push	eax
	call	DWORD PTR _xmlFree
	add	esp, 4
$LN499@xmlSchemaV:

; 3344 :     return (1);

	pop	esi
	pop	edi
	mov	eax, 1
	pop	ebx

; 3353 : }

	mov	esp, ebp
	pop	ebp
	ret	0
$LN197@xmlSchemaV:

; 2521 :                                 *val = v;
; 2522 :                             } else {
; 2523 :                                 xmlSchemaFreeValue(v);
; 2524 :                                 goto return1;
; 2525 :                             }
; 2526 :                         } else {
; 2527 :                             goto error;
; 2528 :                         }
; 2529 :                     } else {
; 2530 :                         v = xmlSchemaNewValue(XML_SCHEMAS_DOUBLE);

	push	14					; 0000000eH
	call	_xmlSchemaNewValue
	mov	edi, eax
	add	esp, 4

; 2531 :                         if (v != NULL) {

	test	edi, edi
	je	$error$682

; 2532 : 			    /*
; 2533 : 			    * TODO: sscanf seems not to give the correct
; 2534 : 			    * value for extremely high/low values.
; 2535 : 			    */
; 2536 :                             if (sscanf((const char *) value, "%lf",
; 2537 :                                  &(v->value.d)) == 1) {

	lea	ecx, DWORD PTR [edi+8]
	push	ecx
	push	OFFSET ??_C@_03DLDNIBIK@?$CFlf@
	push	esi
	call	_sscanf
	add	esp, 12					; 0000000cH
	cmp	eax, 1
	jne	SHORT $LN201@xmlSchemaV

; 3345 :   return0:
; 3346 :     if (norm != NULL)

	mov	DWORD PTR [ebx], edi
	jmp	$return0$681
$LN207@xmlSchemaV:

; 2538 :                                 *val = v;
; 2539 :                             } else {
; 2540 :                                 xmlSchemaFreeValue(v);
; 2541 :                                 goto return1;
; 2542 :                             }
; 2543 :                         } else {
; 2544 :                             goto error;
; 2545 :                         }
; 2546 :                     }
; 2547 :                 }
; 2548 :                 goto return0;
; 2549 :             }
; 2550 :         case XML_SCHEMAS_BOOLEAN:{
; 2551 :                 const xmlChar *cur = value;
; 2552 : 
; 2553 : 		if (normOnTheFly) {

	cmp	DWORD PTR _normOnTheFly$[ebp], ebx
	je	$LN208@xmlSchemaV
$LL34@xmlSchemaV:

; 2554 : 		    while IS_WSP_BLANK_CH(*cur) cur++;

	mov	al, BYTE PTR [esi]
	cmp	al, 32					; 00000020H
	je	SHORT $LN210@xmlSchemaV
	cmp	al, 9
	jb	SHORT $LN211@xmlSchemaV
	cmp	al, 10					; 0000000aH
	jbe	SHORT $LN210@xmlSchemaV
$LN211@xmlSchemaV:
	cmp	al, 13					; 0000000dH
	jne	SHORT $LN35@xmlSchemaV
$LN210@xmlSchemaV:
	inc	esi
	jmp	SHORT $LL34@xmlSchemaV
$LN35@xmlSchemaV:

; 2555 : 		    if (*cur == '0') {

	cmp	al, 48					; 00000030H
	je	SHORT $LN661@xmlSchemaV

; 2556 : 			ret = 0;
; 2557 : 			cur++;
; 2558 : 		    } else if (*cur == '1') {

	cmp	al, 49					; 00000031H
	jne	SHORT $LN214@xmlSchemaV

; 2559 : 			ret = 1;

	mov	edi, 1

; 2560 : 			cur++;

	jmp	SHORT $LN223@xmlSchemaV
$LN214@xmlSchemaV:

; 2561 : 		    } else if (*cur == 't') {

	cmp	al, 116					; 00000074H
	jne	SHORT $LN216@xmlSchemaV

; 2562 : 			cur++;
; 2563 : 			if ((*cur++ == 'r') && (*cur++ == 'u') &&

	mov	al, BYTE PTR [esi+1]
	cmp	al, 114					; 00000072H
	jne	$return1$683
	mov	al, BYTE PTR [esi+2]
	add	esi, 3
	cmp	al, 117					; 00000075H
	jne	$return1$683
	cmp	BYTE PTR [esi], 101			; 00000065H
	jne	$return1$683

; 2564 : 			    (*cur++ == 'e')) {
; 2565 : 			    ret = 1;

	mov	edi, 1

; 2566 : 			} else
; 2567 : 			    goto return1;
; 2568 : 		    } else if (*cur == 'f') {

	jmp	SHORT $LN223@xmlSchemaV
$LN216@xmlSchemaV:
	cmp	al, 102					; 00000066H
	jne	$return1$683

; 2569 : 			cur++;
; 2570 : 			if ((*cur++ == 'a') && (*cur++ == 'l') &&
; 2571 : 			    (*cur++ == 's') && (*cur++ == 'e')) {

	mov	al, BYTE PTR [esi+1]
	cmp	al, 97					; 00000061H
	jne	$return1$683
	mov	al, BYTE PTR [esi+2]
	cmp	al, 108					; 0000006cH
	jne	$return1$683
	mov	al, BYTE PTR [esi+3]
	add	esi, 4
	cmp	al, 115					; 00000073H
	jne	$return1$683
	cmp	BYTE PTR [esi], 101			; 00000065H
	jne	$return1$683
$LN661@xmlSchemaV:

; 2572 : 			    ret = 0;
; 2573 : 			} else
; 2574 : 			    goto return1;
; 2575 : 		    } else
; 2576 : 			goto return1;
; 2577 : 		    if (*cur != 0) {

	xor	edi, edi
$LN223@xmlSchemaV:
	mov	al, BYTE PTR [esi+1]
	inc	esi
	test	al, al
	je	$LN235@xmlSchemaV
	npad	4
$LL36@xmlSchemaV:

; 2578 : 			while IS_WSP_BLANK_CH(*cur) cur++;

	cmp	al, 32					; 00000020H
	je	SHORT $LN225@xmlSchemaV
	cmp	al, 9
	jb	SHORT $LN226@xmlSchemaV
	cmp	al, 10					; 0000000aH
	jbe	SHORT $LN225@xmlSchemaV
$LN226@xmlSchemaV:
	cmp	al, 13					; 0000000dH
	jne	SHORT $LN37@xmlSchemaV
$LN225@xmlSchemaV:
	mov	al, BYTE PTR [esi+1]
	inc	esi
	jmp	SHORT $LL36@xmlSchemaV
$LN37@xmlSchemaV:

; 2579 : 			if (*cur != 0)

	test	al, al
	jne	$return1$683

; 2580 : 			    goto return1;
; 2581 : 		    }
; 2582 : 		} else {

	jmp	$LN235@xmlSchemaV
$LN208@xmlSchemaV:

; 2583 : 		    if ((cur[0] == '0') && (cur[1] == 0))

	mov	al, BYTE PTR [esi]
	cmp	al, 48					; 00000030H
	jne	SHORT $LN586@xmlSchemaV
	cmp	BYTE PTR [esi+1], bl

; 2584 : 			ret = 0;

	jmp	SHORT $LN662@xmlSchemaV
$LN586@xmlSchemaV:

; 2585 : 		    else if ((cur[0] == '1') && (cur[1] == 0))

	cmp	al, 49					; 00000031H
	jne	SHORT $LN587@xmlSchemaV
	cmp	BYTE PTR [esi+1], bl
	jne	$return1$683

; 2586 : 			ret = 1;

	mov	edi, 1
	jmp	SHORT $LN235@xmlSchemaV
$LN587@xmlSchemaV:

; 2587 : 		    else if ((cur[0] == 't') && (cur[1] == 'r')
; 2588 : 			&& (cur[2] == 'u') && (cur[3] == 'e')
; 2589 : 			&& (cur[4] == 0))

	cmp	al, 116					; 00000074H
	jne	SHORT $LN232@xmlSchemaV
	cmp	BYTE PTR [esi+1], 114			; 00000072H
	jne	$return1$683
	cmp	BYTE PTR [esi+2], 117			; 00000075H
	jne	$return1$683
	cmp	BYTE PTR [esi+3], 101			; 00000065H
	jne	$return1$683
	cmp	BYTE PTR [esi+4], bl
	jne	$return1$683

; 2590 : 			ret = 1;

	mov	edi, 1
	jmp	SHORT $LN235@xmlSchemaV
$LN232@xmlSchemaV:

; 2591 : 		    else if ((cur[0] == 'f') && (cur[1] == 'a')
; 2592 : 			&& (cur[2] == 'l') && (cur[3] == 's')
; 2593 : 			&& (cur[4] == 'e') && (cur[5] == 0))

	cmp	al, 102					; 00000066H
	jne	$return1$683
	cmp	BYTE PTR [esi+1], 97			; 00000061H
	jne	$return1$683
	cmp	BYTE PTR [esi+2], 108			; 0000006cH
	jne	$return1$683
	cmp	BYTE PTR [esi+3], 115			; 00000073H
	jne	$return1$683
	cmp	BYTE PTR [esi+4], 101			; 00000065H
	jne	$return1$683
	cmp	BYTE PTR [esi+5], bl
$LN662@xmlSchemaV:

; 2594 : 			ret = 0;
; 2595 : 		    else
; 2596 : 			goto return1;
; 2597 : 		}
; 2598 :                 if (val != NULL) {

	jne	$return1$683
	xor	edi, edi
$LN235@xmlSchemaV:
	test	edx, edx
	je	$return0$681

; 2599 :                     v = xmlSchemaNewValue(XML_SCHEMAS_BOOLEAN);

	push	15					; 0000000fH
	call	_xmlSchemaNewValue
	add	esp, 4

; 2600 :                     if (v != NULL) {

	test	eax, eax
	je	$error$682

; 2601 :                         v->value.b = ret;

	mov	DWORD PTR [eax+8], edi

; 2602 :                         *val = v;
; 2603 :                     } else {

	jmp	$LN168@xmlSchemaV
$LN239@xmlSchemaV:

; 2604 :                         goto error;
; 2605 :                     }
; 2606 :                 }
; 2607 :                 goto return0;
; 2608 :             }
; 2609 :         case XML_SCHEMAS_TOKEN:{
; 2610 :                 const xmlChar *cur = value;

	mov	edx, esi

; 2611 : 
; 2612 : 		if (! normOnTheFly) {

	cmp	DWORD PTR _normOnTheFly$[ebp], ebx
	jne	SHORT $LN39@xmlSchemaV

; 2613 : 		    while (*cur != 0) {

	mov	al, BYTE PTR [esi]
	test	al, al
	je	SHORT $LN39@xmlSchemaV
	npad	2
$LL38@xmlSchemaV:

; 2614 : 			if ((*cur == 0xd) || (*cur == 0xa) || (*cur == 0x9)) {

	cmp	al, 13					; 0000000dH
	je	$return1$683
	cmp	al, 10					; 0000000aH
	je	$return1$683
	cmp	al, 9
	je	$return1$683

; 2615 : 			    goto return1;
; 2616 : 			} else if (*cur == ' ') {

	mov	cl, BYTE PTR [edx+1]
	inc	edx
	cmp	al, 32					; 00000020H
	jne	SHORT $LN244@xmlSchemaV

; 2617 : 			    cur++;
; 2618 : 			    if (*cur == 0)

	test	cl, cl
	je	$return1$683

; 2619 : 				goto return1;
; 2620 : 			    if (*cur == ' ')

	cmp	cl, al
	je	$return1$683
$LN244@xmlSchemaV:

; 2613 : 		    while (*cur != 0) {

	mov	al, cl
	test	cl, cl
	jne	SHORT $LL38@xmlSchemaV
$LN39@xmlSchemaV:

; 2621 : 				goto return1;
; 2622 : 			} else {
; 2623 : 			    cur++;
; 2624 : 			}
; 2625 : 		    }
; 2626 : 		}
; 2627 :                 if (val != NULL) {

	mov	ebx, DWORD PTR _val$[ebp]
	test	ebx, ebx
	je	$return0$681

; 2628 :                     v = xmlSchemaNewValue(XML_SCHEMAS_TOKEN);

	push	16					; 00000010H

; 2629 :                     if (v != NULL) {
; 2630 :                         v->value.str = xmlStrdup(value);
; 2631 :                         *val = v;
; 2632 :                     } else {

	jmp	$LN673@xmlSchemaV
$LN251@xmlSchemaV:

; 2633 :                         goto error;
; 2634 :                     }
; 2635 :                 }
; 2636 :                 goto return0;
; 2637 :             }
; 2638 :         case XML_SCHEMAS_LANGUAGE:
; 2639 : 	    if (normOnTheFly) {

	cmp	DWORD PTR _normOnTheFly$[ebp], ebx
	je	SHORT $LN253@xmlSchemaV

; 2640 : 		norm = xmlSchemaCollapseString(value);

	push	esi
	call	_xmlSchemaCollapseString
	add	esp, 4
	mov	DWORD PTR _norm$1$[ebp], eax

; 2641 : 		if (norm != NULL)

	test	eax, eax
	cmovne	esi, eax
$LN253@xmlSchemaV:

; 2642 : 		    value = norm;
; 2643 : 	    }
; 2644 :             if (xmlCheckLanguageID(value) == 1) {

	push	esi
	call	_xmlCheckLanguageID
	add	esp, 4
	cmp	eax, 1
	jne	$return1$683

; 2645 :                 if (val != NULL) {

	mov	ebx, DWORD PTR _val$[ebp]
	test	ebx, ebx
	je	$return0$681

; 2646 :                     v = xmlSchemaNewValue(XML_SCHEMAS_LANGUAGE);

	push	17					; 00000011H

; 2647 :                     if (v != NULL) {
; 2648 :                         v->value.str = xmlStrdup(value);
; 2649 :                         *val = v;
; 2650 :                     } else {

	jmp	$LN673@xmlSchemaV
$LN258@xmlSchemaV:

; 2651 :                         goto error;
; 2652 :                     }
; 2653 :                 }
; 2654 :                 goto return0;
; 2655 :             }
; 2656 :             goto return1;
; 2657 :         case XML_SCHEMAS_NMTOKEN:
; 2658 :             if (xmlValidateNMToken(value, 1) == 0) {

	push	1
	push	esi
	call	_xmlValidateNMToken
	add	esp, 8
	test	eax, eax
	jne	$return1$683

; 2659 :                 if (val != NULL) {

	mov	ebx, DWORD PTR _val$[ebp]
	test	ebx, ebx
	je	$return0$681

; 2660 :                     v = xmlSchemaNewValue(XML_SCHEMAS_NMTOKEN);

	push	18					; 00000012H

; 2661 :                     if (v != NULL) {
; 2662 :                         v->value.str = xmlStrdup(value);
; 2663 :                         *val = v;
; 2664 :                     } else {

	jmp	$LN673@xmlSchemaV
$LN263@xmlSchemaV:

; 2665 :                         goto error;
; 2666 :                     }
; 2667 :                 }
; 2668 :                 goto return0;
; 2669 :             }
; 2670 :             goto return1;
; 2671 :         case XML_SCHEMAS_NMTOKENS:
; 2672 :             ret = xmlSchemaValAtomicListNode(xmlSchemaTypeNmtokenDef,

	push	DWORD PTR _node$[ebp]
	push	edx
	push	esi
	push	DWORD PTR _xmlSchemaTypeNmtokenDef
	call	_xmlSchemaValAtomicListNode

; 2673 :                                              value, val, node);
; 2674 :             if (ret > 0)

	xor	ebx, ebx
	add	esp, 16					; 00000010H
	test	eax, eax
	setle	bl

; 2675 :                 ret = 0;
; 2676 :             else
; 2677 :                 ret = 1;
; 2678 :             goto done;

	jmp	$done$680
$LN266@xmlSchemaV:

; 2679 :         case XML_SCHEMAS_NAME:
; 2680 :             ret = xmlValidateName(value, 1);

	push	1
	push	esi
	call	_xmlValidateName
	mov	ebx, eax
	add	esp, 8

; 2681 :             if ((ret == 0) && (val != NULL) && (value != NULL)) {

	test	ebx, ebx
	jne	$done$680
	cmp	DWORD PTR _val$[ebp], eax
	je	$done$680
	test	esi, esi
	je	$done$680

; 2682 : 		v = xmlSchemaNewValue(XML_SCHEMAS_NAME);

	push	20					; 00000014H
	call	_xmlSchemaNewValue
	mov	edi, eax
	add	esp, 4

; 2683 : 		if (v != NULL) {

	test	edi, edi
	je	$error$682
$LL40@xmlSchemaV:

; 2684 : 		     const xmlChar *start = value, *end;
; 2685 : 		     while (IS_BLANK_CH(*start)) start++;

	mov	cl, BYTE PTR [esi]
	cmp	cl, 32					; 00000020H
	je	SHORT $LN270@xmlSchemaV
	cmp	cl, 9
	jb	SHORT $LN271@xmlSchemaV
	cmp	cl, 10					; 0000000aH
	jbe	SHORT $LN270@xmlSchemaV
$LN271@xmlSchemaV:
	cmp	cl, 13					; 0000000dH
	jne	SHORT $LN41@xmlSchemaV
$LN270@xmlSchemaV:
	inc	esi
	jmp	SHORT $LL40@xmlSchemaV
$LN41@xmlSchemaV:

; 2686 : 		     end = start;

	mov	eax, esi

; 2687 : 		     while ((*end != 0) && (!IS_BLANK_CH(*end))) end++;

	test	cl, cl
	je	SHORT $LN644@xmlSchemaV
	npad	1
$LL42@xmlSchemaV:
	cmp	cl, 32					; 00000020H
	je	SHORT $LN644@xmlSchemaV
	cmp	cl, 9
	jb	SHORT $LN272@xmlSchemaV
	cmp	cl, 10					; 0000000aH
	jbe	SHORT $LN644@xmlSchemaV
$LN272@xmlSchemaV:
	cmp	cl, 13					; 0000000dH
	je	SHORT $LN644@xmlSchemaV
	mov	cl, BYTE PTR [eax+1]
	inc	eax
	test	cl, cl
	jne	SHORT $LL42@xmlSchemaV
$LN644@xmlSchemaV:

; 2688 : 		     v->value.str = xmlStrndup(start, end - start);

	sub	eax, esi
	push	eax
	push	esi
	call	_xmlStrndup
	mov	DWORD PTR [edi+8], eax
	add	esp, 8

; 2689 : 		    *val = v;

	mov	eax, DWORD PTR _val$[ebp]
	mov	DWORD PTR [eax], edi

; 2690 : 		} else {

	jmp	$done$680
$LN273@xmlSchemaV:

; 2691 : 		    goto error;
; 2692 : 		}
; 2693 :             }
; 2694 :             goto done;
; 2695 :         case XML_SCHEMAS_QNAME:{
; 2696 :                 const xmlChar *uri = NULL;
; 2697 :                 xmlChar *local = NULL;
; 2698 : 
; 2699 :                 ret = xmlValidateQName(value, 1);

	push	1
	push	esi
	mov	DWORD PTR _uri$1$[ebp], ebx
	xor	edi, edi
	call	_xmlValidateQName
	mov	ebx, eax
	add	esp, 8

; 2700 : 		if (ret != 0)

	test	ebx, ebx
	jne	$done$680

; 2701 : 		    goto done;
; 2702 :                 if (node != NULL) {

	cmp	DWORD PTR _node$[ebp], edi
	je	SHORT $LN279@xmlSchemaV

; 2703 :                     xmlChar *prefix;
; 2704 : 		    xmlNsPtr ns;
; 2705 : 
; 2706 :                     local = xmlSplitQName2(value, &prefix);

	lea	eax, DWORD PTR _prefix$19[ebp]
	push	eax
	push	esi
	call	_xmlSplitQName2

; 2707 : 		    ns = xmlSearchNs(node->doc, node, prefix);

	push	DWORD PTR _prefix$19[ebp]
	mov	edi, eax
	mov	eax, DWORD PTR _node$[ebp]
	push	eax
	push	DWORD PTR [eax+32]
	call	_xmlSearchNs
	add	esp, 20					; 00000014H

; 2708 : 		    if ((ns == NULL) && (prefix != NULL)) {

	test	eax, eax
	jne	SHORT $LN622@xmlSchemaV
	mov	eax, DWORD PTR _prefix$19[ebp]
	test	eax, eax
	je	SHORT $LN279@xmlSchemaV

; 2709 : 			xmlFree(prefix);

	push	eax
	call	DWORD PTR _xmlFree
	add	esp, 4

; 2710 : 			if (local != NULL)

	test	edi, edi
	je	$return1$683

; 2711 : 			    xmlFree(local);

	push	edi
	call	DWORD PTR _xmlFree

; 2712 : 			goto return1;

	jmp	$LN675@xmlSchemaV
$LN622@xmlSchemaV:

; 2713 : 		    }
; 2714 : 		    if (ns != NULL)
; 2715 : 			uri = ns->href;

	mov	eax, DWORD PTR [eax+8]
	mov	DWORD PTR _uri$1$[ebp], eax

; 2716 :                     if (prefix != NULL)

	mov	eax, DWORD PTR _prefix$19[ebp]
	test	eax, eax
	je	SHORT $LN279@xmlSchemaV

; 2717 :                         xmlFree(prefix);

	push	eax
	call	DWORD PTR _xmlFree
	add	esp, 4
$LN279@xmlSchemaV:

; 2718 :                 }
; 2719 :                 if (val != NULL) {

	cmp	DWORD PTR _val$[ebp], 0
	je	SHORT $LN280@xmlSchemaV

; 2720 :                     v = xmlSchemaNewValue(XML_SCHEMAS_QNAME);

	push	21					; 00000015H
	call	_xmlSchemaNewValue
	add	esp, 4
	mov	DWORD PTR _v$14$[ebp], eax

; 2721 :                     if (v == NULL) {

	test	eax, eax
	jne	SHORT $LN282@xmlSchemaV

; 2722 : 			if (local != NULL)

	test	edi, edi
	je	SHORT $error$682

; 2723 : 			    xmlFree(local);

	push	edi
$LN677@xmlSchemaV:

; 3349 :   error:
; 3350 :     if (norm != NULL)

	call	DWORD PTR _xmlFree
$LN665@xmlSchemaV:
	add	esp, 4
$error$682:
	mov	eax, DWORD PTR _norm$1$[ebp]
	test	eax, eax
	je	SHORT $LN501@xmlSchemaV

; 3351 :         xmlFree(norm);

	push	eax
	call	DWORD PTR _xmlFree
	add	esp, 4
$LN501@xmlSchemaV:

; 3352 :     return (-1);

	pop	esi
	pop	edi
	or	eax, -1
	pop	ebx

; 3353 : }

	mov	esp, ebp
	pop	ebp
	ret	0
$LN282@xmlSchemaV:

; 2724 : 			goto error;
; 2725 : 		    }
; 2726 : 		    if (local != NULL)

	test	edi, edi
	jne	SHORT $LN285@xmlSchemaV

; 2727 : 			v->value.qname.name = local;
; 2728 : 		    else
; 2729 : 			v->value.qname.name = xmlStrdup(value);

	push	esi
	call	_xmlStrdup
	mov	edi, eax
	add	esp, 4
	mov	eax, DWORD PTR _v$14$[ebp]
$LN285@xmlSchemaV:

; 2730 : 		    if (uri != NULL)

	mov	DWORD PTR [eax+8], edi
	mov	ecx, DWORD PTR _uri$1$[ebp]
	test	ecx, ecx
	je	SHORT $LN286@xmlSchemaV

; 2731 : 			v->value.qname.uri = xmlStrdup(uri);

	push	ecx
	call	_xmlStrdup
	mov	ecx, DWORD PTR _v$14$[ebp]
	add	esp, 4
	mov	DWORD PTR [ecx+12], eax
	mov	eax, ecx
$LN286@xmlSchemaV:

; 2732 : 		    *val = v;

	mov	ecx, DWORD PTR _val$[ebp]
	mov	DWORD PTR [ecx], eax

; 2733 :                 } else

	jmp	$done$680
$LN280@xmlSchemaV:

; 2734 : 		    if (local != NULL)

	test	edi, edi
	je	$done$680

; 2735 : 			xmlFree(local);

	push	edi
	call	DWORD PTR _xmlFree
	add	esp, 4

; 2736 :                 goto done;

	jmp	$done$680
$LN288@xmlSchemaV:

; 2737 :             }
; 2738 :         case XML_SCHEMAS_NCNAME:
; 2739 :             ret = xmlValidateNCName(value, 1);

	push	1
	push	esi
	call	_xmlValidateNCName
	mov	ebx, eax
	add	esp, 8

; 2740 :             if ((ret == 0) && (val != NULL)) {

	test	ebx, ebx
	jne	$done$680
	cmp	DWORD PTR _val$[ebp], eax
	je	$done$680

; 2741 :                 v = xmlSchemaNewValue(XML_SCHEMAS_NCNAME);

	push	22					; 00000016H
	call	_xmlSchemaNewValue
	mov	edi, eax
	add	esp, 4

; 2742 :                 if (v != NULL) {

	test	edi, edi
	je	$error$682

; 2743 :                     v->value.str = xmlStrdup(value);

	push	esi
	call	_xmlStrdup
	mov	DWORD PTR [edi+8], eax
	add	esp, 4

; 2744 :                     *val = v;

	mov	eax, DWORD PTR _val$[ebp]
	mov	DWORD PTR [eax], edi

; 2745 :                 } else {

	jmp	$done$680
$LN292@xmlSchemaV:

; 2746 :                     goto error;
; 2747 :                 }
; 2748 :             }
; 2749 :             goto done;
; 2750 :         case XML_SCHEMAS_ID:
; 2751 :             ret = xmlValidateNCName(value, 1);

	push	1
	push	esi
	call	_xmlValidateNCName
	mov	ebx, eax
	add	esp, 8

; 2752 :             if ((ret == 0) && (val != NULL)) {

	test	ebx, ebx
	jne	$done$680
	cmp	DWORD PTR _val$[ebp], eax
	je	SHORT $LN623@xmlSchemaV

; 2753 :                 v = xmlSchemaNewValue(XML_SCHEMAS_ID);

	push	23					; 00000017H
	call	_xmlSchemaNewValue
	mov	edi, eax
	add	esp, 4

; 2754 :                 if (v != NULL) {

	test	edi, edi
	je	$error$682

; 2755 :                     v->value.str = xmlStrdup(value);

	push	esi
	call	_xmlStrdup
	mov	DWORD PTR [edi+8], eax
	add	esp, 4

; 2756 :                     *val = v;

	mov	eax, DWORD PTR _val$[ebp]
	mov	DWORD PTR [eax], edi
$LN623@xmlSchemaV:

; 2757 :                 } else {
; 2758 :                     goto error;
; 2759 :                 }
; 2760 :             }
; 2761 :             if ((ret == 0) && (node != NULL) &&

	mov	edi, DWORD PTR _node$[ebp]
	test	edi, edi
	je	$done$680
	cmp	DWORD PTR [edi+4], 2
	jne	$done$680

; 2762 :                 (node->type == XML_ATTRIBUTE_NODE)) {
; 2763 :                 xmlAttrPtr attr = (xmlAttrPtr) node;
; 2764 : 
; 2765 :                 /*
; 2766 :                  * NOTE: the IDness might have already be declared in the DTD
; 2767 :                  */
; 2768 :                 if (attr->atype != XML_ATTRIBUTE_ID) {

	cmp	DWORD PTR [edi+40], 2
	je	$done$680

; 2769 :                     xmlIDPtr res;
; 2770 :                     xmlChar *strip;
; 2771 : 
; 2772 :                     strip = xmlSchemaStrip(value);

	push	esi
	call	_xmlSchemaStrip
	mov	ecx, DWORD PTR [edi+32]
	add	esp, 4
	mov	DWORD PTR _strip$1$[ebp], eax

; 2773 :                     if (strip != NULL) {

	push	edi
	test	eax, eax
	je	SHORT $LN298@xmlSchemaV

; 2774 :                         res = xmlAddID(NULL, node->doc, strip, attr);

	push	eax
	push	ecx
	push	0
	call	_xmlAddID

; 2775 :                         xmlFree(strip);

	push	DWORD PTR _strip$1$[ebp]
	mov	esi, eax
	call	DWORD PTR _xmlFree
	add	esp, 20					; 00000014H

; 2776 :                     } else

	jmp	SHORT $LN299@xmlSchemaV
$LN298@xmlSchemaV:

; 2777 :                         res = xmlAddID(NULL, node->doc, value, attr);

	push	esi
	push	ecx
	push	0
	call	_xmlAddID
	add	esp, 16					; 00000010H
	mov	esi, eax
$LN299@xmlSchemaV:

; 2778 :                     if (res == NULL) {

	test	esi, esi
	jne	SHORT $LN300@xmlSchemaV

; 2779 :                         ret = 2;

	lea	ebx, DWORD PTR [esi+2]

; 2780 :                     } else {

	jmp	$done$680
$LN300@xmlSchemaV:

; 2781 :                         attr->atype = XML_ATTRIBUTE_ID;

	mov	DWORD PTR [edi+40], 2

; 2782 :                     }
; 2783 :                 }
; 2784 :             }
; 2785 :             goto done;

	jmp	$done$680
$LN302@xmlSchemaV:

; 2786 :         case XML_SCHEMAS_IDREF:
; 2787 :             ret = xmlValidateNCName(value, 1);

	push	1
	push	esi
	call	_xmlValidateNCName
	mov	ebx, eax
	add	esp, 8

; 2788 :             if ((ret == 0) && (val != NULL)) {

	test	ebx, ebx
	jne	$done$680
	cmp	DWORD PTR _val$[ebp], eax
	je	SHORT $LN624@xmlSchemaV

; 2789 : 		v = xmlSchemaNewValue(XML_SCHEMAS_IDREF);

	push	24					; 00000018H
	call	_xmlSchemaNewValue
	mov	edi, eax
	add	esp, 4

; 2790 : 		if (v == NULL)

	test	edi, edi
	je	$error$682

; 2791 : 		    goto error;
; 2792 : 		v->value.str = xmlStrdup(value);

	push	esi
	call	_xmlStrdup
	mov	DWORD PTR [edi+8], eax
	add	esp, 4

; 2793 : 		*val = v;

	mov	eax, DWORD PTR _val$[ebp]
	mov	DWORD PTR [eax], edi
$LN624@xmlSchemaV:

; 2794 :             }
; 2795 :             if ((ret == 0) && (node != NULL) &&

	mov	edi, DWORD PTR _node$[ebp]
	test	edi, edi
	je	$done$680
	cmp	DWORD PTR [edi+4], 2
	jne	$done$680

