; Listing generated by Microsoft (R) Optimizing Compiler Version 19.16.27027.1 

	TITLE	C:\Users\DAG\Documents\_Clients\CodeProject Authors Group\Windows on ARM\libxml2\libxml2-2.9.9\xpath.c
	.686P
	.XMM
	include listing.inc
	.model	flat

INCLUDELIB MSVCRT
INCLUDELIB OLDNAMES

PUBLIC	??_C@_0CF@GLDAAHFK@http?3?1?1www?4w3?4org?1XML?11998?1name@ ; `string'
PUBLIC	??_C@_03PJHHNEEI@xml@				; `string'
PUBLIC	??_C@_03KDKBKEMD@Ok?6@				; `string'
PUBLIC	??_C@_0BB@OKMDJLIM@Number?5encoding?6@		; `string'
PUBLIC	??_C@_0BE@HEBMIFHL@Unfinished?5literal?6@	; `string'
PUBLIC	??_C@_0BC@KLADNOLA@Start?5of?5literal?6@	; `string'
PUBLIC	??_C@_0CD@PCDALDFN@Expected?5$?5for?5variable?5referen@ ; `string'
PUBLIC	??_C@_0BE@JIMEOEEA@Undefined?5variable?6@	; `string'
PUBLIC	??_C@_0BD@MFLBJOMG@Invalid?5predicate?6@	; `string'
PUBLIC	??_C@_0BE@CGBIHHBE@Invalid?5expression?6@	; `string'
PUBLIC	??_C@_0BN@DKJEIEAC@Missing?5closing?5curly?5brace?6@ ; `string'
PUBLIC	??_C@_0BH@FDADKKDC@Unregistered?5function?6@	; `string'
PUBLIC	??_C@_0BB@NCMBGCMG@Invalid?5operand?6@		; `string'
PUBLIC	??_C@_0O@HECJPNOD@Invalid?5type?6@		; `string'
PUBLIC	??_C@_0BN@CGCHLLOB@Invalid?5number?5of?5arguments?6@ ; `string'
PUBLIC	??_C@_0BG@JMBOPCAE@Invalid?5context?5size?6@	; `string'
PUBLIC	??_C@_0BK@CKPBPDPH@Invalid?5context?5position?6@ ; `string'
PUBLIC	??_C@_0BJ@OGCHFJAK@Memory?5allocation?5error?6@	; `string'
PUBLIC	??_C@_0O@JJFGCDGG@Syntax?5error?6@		; `string'
PUBLIC	??_C@_0BA@IPNFPAOO@Resource?5error?6@		; `string'
PUBLIC	??_C@_0BE@ILOLKABH@Sub?5resource?5error?6@	; `string'
PUBLIC	??_C@_0BM@FJPIKKBA@Undefined?5namespace?5prefix?6@ ; `string'
PUBLIC	??_C@_0BA@ONCPONLN@Encoding?5error?6@		; `string'
PUBLIC	??_C@_0BH@FAHNGONI@Char?5out?5of?5XML?5range?6@	; `string'
PUBLIC	??_C@_0BP@HNOPDOE@Invalid?5or?5incomplete?5context?6@ ; `string'
PUBLIC	??_C@_0BD@MEAKLJLB@Stack?5usage?5error?6@	; `string'
PUBLIC	??_C@_0BE@EKOADJON@Forbidden?5variable?6@	; `string'
PUBLIC	??_C@_0BF@NKLLLIIE@?$DP?$DP?5Unknown?5error?5?$DP?$DP?6@ ; `string'
_DATA	SEGMENT
COMM	_xmlMalloc:DWORD
COMM	_xmlMallocAtomic:DWORD
COMM	_xmlRealloc:DWORD
COMM	_xmlFree:DWORD
COMM	_xmlMemStrdup:DWORD
COMM	_xmlXPathNAN:QWORD
COMM	_xmlXPathPINF:QWORD
COMM	_xmlXPathNINF:QWORD
COMM	_xmlIsBaseCharGroup:BYTE:010H
COMM	_xmlIsCharGroup:BYTE:010H
COMM	_xmlIsCombiningGroup:BYTE:010H
COMM	_xmlIsDigitGroup:BYTE:010H
COMM	_xmlIsExtenderGroup:BYTE:010H
COMM	_xmlIsIdeographicGroup:BYTE:010H
COMM	_xmlIsPubidChar_tab:BYTE:0100H
COMM	_xmlParserMaxDepth:DWORD
COMM	_forbiddenExp:DWORD
COMM	_emptyExp:DWORD
_DATA	ENDS
;	COMDAT ??_C@_0BF@NKLLLIIE@?$DP?$DP?5Unknown?5error?5?$DP?$DP?6@
CONST	SEGMENT
??_C@_0BF@NKLLLIIE@?$DP?$DP?5Unknown?5error?5?$DP?$DP?6@ DB '?? Unknown e'
	DB	'rror ??', 0aH, 00H				; `string'
CONST	ENDS
;	COMDAT ??_C@_0BE@EKOADJON@Forbidden?5variable?6@
CONST	SEGMENT
??_C@_0BE@EKOADJON@Forbidden?5variable?6@ DB 'Forbidden variable', 0aH, 00H ; `string'
CONST	ENDS
;	COMDAT ??_C@_0BD@MEAKLJLB@Stack?5usage?5error?6@
CONST	SEGMENT
??_C@_0BD@MEAKLJLB@Stack?5usage?5error?6@ DB 'Stack usage error', 0aH, 00H ; `string'
CONST	ENDS
;	COMDAT ??_C@_0BP@HNOPDOE@Invalid?5or?5incomplete?5context?6@
CONST	SEGMENT
??_C@_0BP@HNOPDOE@Invalid?5or?5incomplete?5context?6@ DB 'Invalid or inco'
	DB	'mplete context', 0aH, 00H			; `string'
CONST	ENDS
;	COMDAT ??_C@_0BH@FAHNGONI@Char?5out?5of?5XML?5range?6@
CONST	SEGMENT
??_C@_0BH@FAHNGONI@Char?5out?5of?5XML?5range?6@ DB 'Char out of XML range'
	DB	0aH, 00H					; `string'
CONST	ENDS
;	COMDAT ??_C@_0BA@ONCPONLN@Encoding?5error?6@
CONST	SEGMENT
??_C@_0BA@ONCPONLN@Encoding?5error?6@ DB 'Encoding error', 0aH, 00H ; `string'
CONST	ENDS
;	COMDAT ??_C@_0BM@FJPIKKBA@Undefined?5namespace?5prefix?6@
CONST	SEGMENT
??_C@_0BM@FJPIKKBA@Undefined?5namespace?5prefix?6@ DB 'Undefined namespac'
	DB	'e prefix', 0aH, 00H				; `string'
CONST	ENDS
;	COMDAT ??_C@_0BE@ILOLKABH@Sub?5resource?5error?6@
CONST	SEGMENT
??_C@_0BE@ILOLKABH@Sub?5resource?5error?6@ DB 'Sub resource error', 0aH, 00H ; `string'
CONST	ENDS
;	COMDAT ??_C@_0BA@IPNFPAOO@Resource?5error?6@
CONST	SEGMENT
??_C@_0BA@IPNFPAOO@Resource?5error?6@ DB 'Resource error', 0aH, 00H ; `string'
CONST	ENDS
;	COMDAT ??_C@_0O@JJFGCDGG@Syntax?5error?6@
CONST	SEGMENT
??_C@_0O@JJFGCDGG@Syntax?5error?6@ DB 'Syntax error', 0aH, 00H ; `string'
CONST	ENDS
;	COMDAT ??_C@_0BJ@OGCHFJAK@Memory?5allocation?5error?6@
CONST	SEGMENT
??_C@_0BJ@OGCHFJAK@Memory?5allocation?5error?6@ DB 'Memory allocation err'
	DB	'or', 0aH, 00H				; `string'
CONST	ENDS
;	COMDAT ??_C@_0BK@CKPBPDPH@Invalid?5context?5position?6@
CONST	SEGMENT
??_C@_0BK@CKPBPDPH@Invalid?5context?5position?6@ DB 'Invalid context posi'
	DB	'tion', 0aH, 00H				; `string'
CONST	ENDS
;	COMDAT ??_C@_0BG@JMBOPCAE@Invalid?5context?5size?6@
CONST	SEGMENT
??_C@_0BG@JMBOPCAE@Invalid?5context?5size?6@ DB 'Invalid context size', 0aH
	DB	00H						; `string'
CONST	ENDS
;	COMDAT ??_C@_0BN@CGCHLLOB@Invalid?5number?5of?5arguments?6@
CONST	SEGMENT
??_C@_0BN@CGCHLLOB@Invalid?5number?5of?5arguments?6@ DB 'Invalid number o'
	DB	'f arguments', 0aH, 00H			; `string'
CONST	ENDS
;	COMDAT ??_C@_0O@HECJPNOD@Invalid?5type?6@
CONST	SEGMENT
??_C@_0O@HECJPNOD@Invalid?5type?6@ DB 'Invalid type', 0aH, 00H ; `string'
CONST	ENDS
;	COMDAT ??_C@_0BB@NCMBGCMG@Invalid?5operand?6@
CONST	SEGMENT
??_C@_0BB@NCMBGCMG@Invalid?5operand?6@ DB 'Invalid operand', 0aH, 00H ; `string'
CONST	ENDS
;	COMDAT ??_C@_0BH@FDADKKDC@Unregistered?5function?6@
CONST	SEGMENT
??_C@_0BH@FDADKKDC@Unregistered?5function?6@ DB 'Unregistered function', 0aH
	DB	00H						; `string'
CONST	ENDS
;	COMDAT ??_C@_0BN@DKJEIEAC@Missing?5closing?5curly?5brace?6@
CONST	SEGMENT
??_C@_0BN@DKJEIEAC@Missing?5closing?5curly?5brace?6@ DB 'Missing closing '
	DB	'curly brace', 0aH, 00H			; `string'
CONST	ENDS
;	COMDAT ??_C@_0BE@CGBIHHBE@Invalid?5expression?6@
CONST	SEGMENT
??_C@_0BE@CGBIHHBE@Invalid?5expression?6@ DB 'Invalid expression', 0aH, 00H ; `string'
CONST	ENDS
;	COMDAT ??_C@_0BD@MFLBJOMG@Invalid?5predicate?6@
CONST	SEGMENT
??_C@_0BD@MFLBJOMG@Invalid?5predicate?6@ DB 'Invalid predicate', 0aH, 00H ; `string'
CONST	ENDS
;	COMDAT ??_C@_0BE@JIMEOEEA@Undefined?5variable?6@
CONST	SEGMENT
??_C@_0BE@JIMEOEEA@Undefined?5variable?6@ DB 'Undefined variable', 0aH, 00H ; `string'
CONST	ENDS
;	COMDAT ??_C@_0CD@PCDALDFN@Expected?5$?5for?5variable?5referen@
CONST	SEGMENT
??_C@_0CD@PCDALDFN@Expected?5$?5for?5variable?5referen@ DB 'Expected $ fo'
	DB	'r variable reference', 0aH, 00H		; `string'
CONST	ENDS
;	COMDAT ??_C@_0BC@KLADNOLA@Start?5of?5literal?6@
CONST	SEGMENT
??_C@_0BC@KLADNOLA@Start?5of?5literal?6@ DB 'Start of literal', 0aH, 00H ; `string'
CONST	ENDS
;	COMDAT ??_C@_0BE@HEBMIFHL@Unfinished?5literal?6@
CONST	SEGMENT
??_C@_0BE@HEBMIFHL@Unfinished?5literal?6@ DB 'Unfinished literal', 0aH, 00H ; `string'
CONST	ENDS
;	COMDAT ??_C@_0BB@OKMDJLIM@Number?5encoding?6@
CONST	SEGMENT
??_C@_0BB@OKMDJLIM@Number?5encoding?6@ DB 'Number encoding', 0aH, 00H ; `string'
CONST	ENDS
;	COMDAT ??_C@_03KDKBKEMD@Ok?6@
CONST	SEGMENT
??_C@_03KDKBKEMD@Ok?6@ DB 'Ok', 0aH, 00H		; `string'
CONST	ENDS
;	COMDAT ??_C@_03PJHHNEEI@xml@
CONST	SEGMENT
??_C@_03PJHHNEEI@xml@ DB 'xml', 00H			; `string'
CONST	ENDS
;	COMDAT ??_C@_0CF@GLDAAHFK@http?3?1?1www?4w3?4org?1XML?11998?1name@
CONST	SEGMENT
??_C@_0CF@GLDAAHFK@http?3?1?1www?4w3?4org?1XML?11998?1name@ DB 'http://ww'
	DB	'w.w3.org/XML/1998/namespace', 00H		; `string'
CONST	ENDS
_DATA	SEGMENT
_xmlXPathXMLNamespaceStruct DD 00H
	DD	012H
	DD	FLAT:??_C@_0CF@GLDAAHFK@http?3?1?1www?4w3?4org?1XML?11998?1name@
	DD	FLAT:??_C@_03PJHHNEEI@xml@
	DD	00H
	DD	00H
_DATA	ENDS
msvcjmc	SEGMENT
__188180DA_corecrt_math@h DB 01H
__2CC6E67D_corecrt_stdio_config@h DB 01H
__05476D76_corecrt_wstdio@h DB 01H
__A452D4A0_stdio@h DB 01H
__4384A2D9_corecrt_memcpy_s@h DB 01H
__4E51A221_corecrt_wstring@h DB 01H
__2140C079_string@h DB 01H
__7B7A869E_ctype@h DB 01H
__C4BA4707_timsort@h DB 01H
__9DBA2A81_xpath@c DB 01H
msvcjmc	ENDS
PUBLIC	___local_stdio_printf_options
PUBLIC	_fprintf
PUBLIC	_snprintf
PUBLIC	_xmlXPathFreeObject
PUBLIC	_xmlXPathNodeSetCreate
PUBLIC	_xmlXPathFreeNodeSetList
PUBLIC	_xmlXPathFreeNodeSet
PUBLIC	_xmlXPathObjectCopy
PUBLIC	_xmlXPathCmpNodes
PUBLIC	_xmlXPathCastNumberToBoolean
PUBLIC	_xmlXPathCastStringToBoolean
PUBLIC	_xmlXPathCastNodeSetToBoolean
PUBLIC	_xmlXPathCastToBoolean
PUBLIC	_xmlXPathCastBooleanToNumber
PUBLIC	_xmlXPathCastStringToNumber
PUBLIC	_xmlXPathCastNodeToNumber
PUBLIC	_xmlXPathCastNodeSetToNumber
PUBLIC	_xmlXPathCastToNumber
PUBLIC	_xmlXPathCastBooleanToString
PUBLIC	_xmlXPathCastNumberToString
PUBLIC	_xmlXPathCastNodeToString
PUBLIC	_xmlXPathCastNodeSetToString
PUBLIC	_xmlXPathCastToString
PUBLIC	_xmlXPathConvertBoolean
PUBLIC	_xmlXPathConvertNumber
PUBLIC	_xmlXPathConvertString
PUBLIC	_xmlXPathNewContext
PUBLIC	_xmlXPathFreeContext
PUBLIC	_xmlXPathContextSetCache
PUBLIC	_xmlXPathOrderDocElems
PUBLIC	_xmlXPathSetContextNode
PUBLIC	_xmlXPathNodeEval
PUBLIC	_xmlXPathEval
PUBLIC	_xmlXPathEvalExpression
PUBLIC	_xmlXPathEvalPredicate
PUBLIC	_xmlXPathCompile
PUBLIC	_xmlXPathCtxtCompile
PUBLIC	_xmlXPathCompiledEval
PUBLIC	_xmlXPathCompiledEvalToBoolean
PUBLIC	_xmlXPathFreeCompExpr
PUBLIC	_xmlXPathInit
PUBLIC	_xmlXPathIsNaN
PUBLIC	_xmlXPathIsInf
PUBLIC	_xmlXPathPopBoolean
PUBLIC	_xmlXPathPopNumber
PUBLIC	_xmlXPathPopString
PUBLIC	_xmlXPathPopNodeSet
PUBLIC	_xmlXPathPopExternal
PUBLIC	_xmlXPathRegisterVariableLookup
PUBLIC	_xmlXPathRegisterFuncLookup
PUBLIC	_xmlXPatherror
PUBLIC	_xmlXPathErr
PUBLIC	_xmlXPathDebugDumpObject
PUBLIC	_xmlXPathDebugDumpCompExpr
PUBLIC	_xmlXPathNodeSetContains
PUBLIC	_xmlXPathDifference
PUBLIC	_xmlXPathIntersection
PUBLIC	_xmlXPathDistinctSorted
PUBLIC	_xmlXPathDistinct
PUBLIC	_xmlXPathHasSameNodes
PUBLIC	_xmlXPathNodeLeadingSorted
PUBLIC	_xmlXPathLeadingSorted
PUBLIC	_xmlXPathNodeLeading
PUBLIC	_xmlXPathLeading
PUBLIC	_xmlXPathNodeTrailingSorted
PUBLIC	_xmlXPathTrailingSorted
PUBLIC	_xmlXPathNodeTrailing
PUBLIC	_xmlXPathTrailing
PUBLIC	_xmlXPathRegisterNs
PUBLIC	_xmlXPathNsLookup
PUBLIC	_xmlXPathRegisteredNsCleanup
PUBLIC	_xmlXPathRegisterFunc
PUBLIC	_xmlXPathRegisterFuncNS
PUBLIC	_xmlXPathRegisterVariable
PUBLIC	_xmlXPathRegisterVariableNS
PUBLIC	_xmlXPathFunctionLookup
PUBLIC	_xmlXPathFunctionLookupNS
PUBLIC	_xmlXPathRegisteredFuncsCleanup
PUBLIC	_xmlXPathVariableLookup
PUBLIC	_xmlXPathVariableLookupNS
PUBLIC	_xmlXPathRegisteredVariablesCleanup
PUBLIC	_xmlXPathNewParserContext
PUBLIC	_xmlXPathFreeParserContext
PUBLIC	_valuePop
PUBLIC	_valuePush
PUBLIC	_xmlXPathNewString
PUBLIC	_xmlXPathNewCString
PUBLIC	_xmlXPathWrapString
PUBLIC	_xmlXPathWrapCString
PUBLIC	_xmlXPathNewFloat
PUBLIC	_xmlXPathNewBoolean
PUBLIC	_xmlXPathNewNodeSet
PUBLIC	_xmlXPathNewValueTree
PUBLIC	_xmlXPathNodeSetAdd
PUBLIC	_xmlXPathNodeSetAddUnique
PUBLIC	_xmlXPathNodeSetAddNs
PUBLIC	_xmlXPathNodeSetSort
PUBLIC	_xmlXPathRoot
PUBLIC	_xmlXPathEvalExpr
PUBLIC	_xmlXPathParseName
PUBLIC	_xmlXPathParseNCName
PUBLIC	_xmlXPathStringEvalNumber
PUBLIC	_xmlXPathEvaluatePredicateResult
PUBLIC	_xmlXPathRegisterAllFunctions
PUBLIC	_xmlXPathNodeSetMerge
PUBLIC	_xmlXPathNodeSetDel
PUBLIC	_xmlXPathNodeSetRemove
PUBLIC	_xmlXPathNewNodeSetList
PUBLIC	_xmlXPathWrapNodeSet
PUBLIC	_xmlXPathWrapExternal
PUBLIC	_xmlXPathEqualValues
PUBLIC	_xmlXPathNotEqualValues
PUBLIC	_xmlXPathCompareValues
PUBLIC	_xmlXPathValueFlipSign
PUBLIC	_xmlXPathAddValues
PUBLIC	_xmlXPathSubValues
PUBLIC	_xmlXPathMultValues
PUBLIC	_xmlXPathDivValues
PUBLIC	_xmlXPathModValues
PUBLIC	_xmlXPathIsNodeType
PUBLIC	_xmlXPathNextSelf
PUBLIC	_xmlXPathNextChild
PUBLIC	_xmlXPathNextDescendant
PUBLIC	_xmlXPathNextDescendantOrSelf
PUBLIC	_xmlXPathNextParent
PUBLIC	_xmlXPathNextAncestorOrSelf
PUBLIC	_xmlXPathNextFollowingSibling
PUBLIC	_xmlXPathNextFollowing
PUBLIC	_xmlXPathNextNamespace
PUBLIC	_xmlXPathNextAttribute
PUBLIC	_xmlXPathNextPreceding
PUBLIC	_xmlXPathNextAncestor
PUBLIC	_xmlXPathNextPrecedingSibling
PUBLIC	_xmlXPathLastFunction
PUBLIC	_xmlXPathPositionFunction
PUBLIC	_xmlXPathCountFunction
PUBLIC	_xmlXPathIdFunction
PUBLIC	_xmlXPathLocalNameFunction
PUBLIC	_xmlXPathNamespaceURIFunction
PUBLIC	_xmlXPathStringFunction
PUBLIC	_xmlXPathStringLengthFunction
PUBLIC	_xmlXPathConcatFunction
PUBLIC	_xmlXPathContainsFunction
PUBLIC	_xmlXPathStartsWithFunction
PUBLIC	_xmlXPathSubstringFunction
PUBLIC	_xmlXPathSubstringBeforeFunction
PUBLIC	_xmlXPathSubstringAfterFunction
PUBLIC	_xmlXPathNormalizeFunction
PUBLIC	_xmlXPathTranslateFunction
PUBLIC	_xmlXPathNotFunction
PUBLIC	_xmlXPathTrueFunction
PUBLIC	_xmlXPathFalseFunction
PUBLIC	_xmlXPathLangFunction
PUBLIC	_xmlXPathNumberFunction
PUBLIC	_xmlXPathSumFunction
PUBLIC	_xmlXPathFloorFunction
PUBLIC	_xmlXPathCeilingFunction
PUBLIC	_xmlXPathRoundFunction
PUBLIC	_xmlXPathBooleanFunction
PUBLIC	_xmlXPathNodeSetFreeNs
PUBLIC	_libxml_domnode_binary_insertion_sort
PUBLIC	_libxml_domnode_tim_sort
PUBLIC	__JustMyCode_Default
PUBLIC	??_C@_0EA@JENGBCEE@Error?5allocating?5temporary?5stor@ ; `string'
PUBLIC	??_C@_0BP@DJFHNAOK@Memory?5allocation?5failed?5?3?5?$CFs?6@ ; `string'
PUBLIC	??_C@_0BK@GDFDKGPJ@Memory?5allocation?5failed?6@ ; `string'
PUBLIC	??_C@_02DKCKIIND@?$CFs@				; `string'
PUBLIC	??_C@_0CH@GLHDGMAA@xmlPointerListCreate?3?5allocatin@ ; `string'
PUBLIC	??_C@_0CL@LEBBNDKO@xmlPointerListAddSize?3?5re?9alloc@ ; `string'
PUBLIC	??_C@_0BG@OMFEJMIL@allocating?5component?6@	; `string'
PUBLIC	??_C@_0BC@EIFELMJ@allocating?5steps?6@		; `string'
PUBLIC	??_C@_0N@GHHFFDFC@adding?5step?6@		; `string'
PUBLIC	??_C@_0BA@OKLFJGHE@Node?5is?5NULL?5?$CB?6@	; `string'
PUBLIC	??_C@_03LHHHGGIK@?5?1?6@			; `string'
PUBLIC	??_C@_0BD@CEACDENF@NodeSet?5is?5NULL?5?$CB?6@	; `string'
PUBLIC	??_C@_0BI@CGJHGOLK@Set?5contains?5?$CFd?5nodes?3?6@ ; `string'
PUBLIC	??_C@_02DPKJAMEF@?$CFd@				; `string'
PUBLIC	??_C@_0BG@ODIPEGMA@Value?5Tree?5is?5NULL?5?$CB?6@ ; `string'
PUBLIC	??_C@_0BH@OMGEHPOG@LocationSet?5is?5NULL?5?$CB?6@ ; `string'
PUBLIC	??_C@_05GJKEPAIO@?$CFd?5?3?5@			; `string'
PUBLIC	??_C@_0BI@CIBIAOEE@Object?5is?5empty?5?$CINULL?$CJ?6@ ; `string'
PUBLIC	??_C@_0BJ@EGAONLPM@Object?5is?5uninitialized?6@	; `string'
PUBLIC	??_C@_0BI@NCNINNMM@Object?5is?5a?5Node?5Set?5?3?6@ ; `string'
PUBLIC	??_C@_0CA@NNPHAPO@Object?5is?5an?5XSLT?5value?5tree?5?3?6@ ; `string'
PUBLIC	??_C@_0BH@GPCPEGOI@Object?5is?5a?5Boolean?5?3?5@ ; `string'
PUBLIC	??_C@_05LFIOBDML@true?6@			; `string'
PUBLIC	??_C@_06NIOGPBNO@false?6@			; `string'
PUBLIC	??_C@_0BP@DBNKIPBA@Object?5is?5a?5number?5?3?5Infinity?6@ ; `string'
PUBLIC	??_C@_0CA@CMBCDMBH@Object?5is?5a?5number?5?3?5?9Infinity?6@ ; `string'
PUBLIC	??_C@_0BK@JAENJFCB@Object?5is?5a?5number?5?3?5NaN?6@ ; `string'
PUBLIC	??_C@_0BI@KDLCNKPI@Object?5is?5a?5number?5?3?50?6@ ; `string'
PUBLIC	??_C@_0BK@DKICMGNF@Object?5is?5a?5number?5?3?5?$CF0g?6@ ; `string'
PUBLIC	??_C@_0BG@IHKNOBPJ@Object?5is?5a?5string?5?3?5@	; `string'
PUBLIC	??_C@_01EEMJAFIK@?6@				; `string'
PUBLIC	??_C@_0CF@IDHPHOMH@Object?5is?5a?5point?5?3?5index?5?$CFd?5in@ ; `string'
PUBLIC	??_C@_0BP@BGPHFANM@Object?5is?5a?5collapsed?5range?5?3?6@ ; `string'
PUBLIC	??_C@_0N@IDICPBLK@index?5?$CFd?5in?5@		; `string'
PUBLIC	??_C@_05GHBGFBPP@node?6@			; `string'
PUBLIC	??_C@_0BF@JIJMPGFP@Object?5is?5a?5range?5?3?6@	; `string'
PUBLIC	??_C@_05KCOAJPAG@From?5@			; `string'
PUBLIC	??_C@_03EMNLBAKJ@To?5@				; `string'
PUBLIC	??_C@_0BL@DOOMBINH@Object?5is?5a?5Location?5Set?3?6@ ; `string'
PUBLIC	??_C@_0BI@JJDBNCDG@Object?5is?5user?5defined?6@	; `string'
PUBLIC	??_C@_0O@IEEDPMEL@Step?5is?5NULL?6@		; `string'
PUBLIC	??_C@_03JMGAKCCH@END@				; `string'
PUBLIC	??_C@_03BDACDFHA@AND@				; `string'
PUBLIC	??_C@_02PDPFNDMG@OR@				; `string'
PUBLIC	??_C@_07MELFAPHK@EQUAL?5?$DN@			; `string'
PUBLIC	??_C@_08MPMADPIH@EQUAL?5?$CB?$DN@		; `string'
PUBLIC	??_C@_05OHCBIKNL@CMP?5?$DM@			; `string'
PUBLIC	??_C@_05NFBHOIFJ@CMP?5?$DO@			; `string'
PUBLIC	??_C@_01NEMOKFLO@?$DN@				; `string'
PUBLIC	??_C@_06IPAPPNJ@PLUS?5?9@			; `string'
PUBLIC	??_C@_06FOKKFIFP@PLUS?5?$CL@			; `string'
PUBLIC	??_C@_0N@GEIAIOPG@PLUS?5unary?5?9@		; `string'
PUBLIC	??_C@_0P@FAIBJAJD@PLUS?5unary?5?9?5?9@		; `string'
PUBLIC	??_C@_06JFEGAKAJ@MULT?5?$CK@			; `string'
PUBLIC	??_C@_08HELPMGMA@MULT?5div@			; `string'
PUBLIC	??_C@_08HFMOIFCL@MULT?5mod@			; `string'
PUBLIC	??_C@_05GJNJOPB@UNION@				; `string'
PUBLIC	??_C@_04BNGIIOIP@ROOT@				; `string'
PUBLIC	??_C@_04OHPEDIPN@NODE@				; `string'
PUBLIC	??_C@_04DEPGJHBM@SORT@				; `string'
PUBLIC	??_C@_08BCOGFDOM@COLLECT?5@			; `string'
PUBLIC	??_C@_0O@CBBIECFC@?5?8ancestors?8?5@		; `string'
PUBLIC	??_C@_0BG@IJDLJMNP@?5?8ancestors?9or?9self?8?5@	; `string'
PUBLIC	??_C@_0P@IMBNHOPA@?5?8attributes?8?5@		; `string'
PUBLIC	??_C@_09DMHOAOKE@?5?8child?8?5@			; `string'
PUBLIC	??_C@_0P@COPGHIIE@?5?8descendant?8?5@		; `string'
PUBLIC	??_C@_0BH@OLEEPEHL@?5?8descendant?9or?9self?8?5@ ; `string'
PUBLIC	??_C@_0O@HPGIPOGE@?5?8following?8?5@		; `string'
PUBLIC	??_C@_0BH@KMMFLMJK@?5?8following?9siblings?8?5@	; `string'
PUBLIC	??_C@_0O@DIAKOKEE@?5?8namespace?8?5@		; `string'
PUBLIC	??_C@_0L@BKJAGPFG@?5?8parent?8?5@		; `string'
PUBLIC	??_C@_0O@BNHFEBDE@?5?8preceding?8?5@		; `string'
PUBLIC	??_C@_0BG@LJHOBDKP@?5?8preceding?9sibling?8?5@	; `string'
PUBLIC	??_C@_08HAEBALG@?5?8self?8?5@			; `string'
PUBLIC	??_C@_07MJDJHLDE@?8none?8?5@			; `string'
PUBLIC	??_C@_07MIHANB@?8type?8?5@			; `string'
PUBLIC	??_C@_05CCBNMHGJ@?8PI?8?5@			; `string'
PUBLIC	??_C@_06COJFFNFM@?8all?8?5@			; `string'
PUBLIC	??_C@_0N@CLKBKNNJ@?8namespace?8?5@		; `string'
PUBLIC	??_C@_07LEJDGAJE@?8name?8?5@			; `string'
PUBLIC	??_C@_07IDIJGDJF@?8node?8?5@			; `string'
PUBLIC	??_C@_0L@BBLKKJMH@?8comment?8?5@		; `string'
PUBLIC	??_C@_07KMAJMJAK@?8text?8?5@			; `string'
PUBLIC	??_C@_03DKEJHHJP@?$CFs?3@			; `string'
PUBLIC	??_C@_05MNKHOCPF@ELEM?5@			; `string'
PUBLIC	??_C@_0P@MLBLHJNB@VARIABLE?5?$CFs?3?$CFs@	; `string'
PUBLIC	??_C@_0M@MLPGFJHH@VARIABLE?5?$CFs@		; `string'
PUBLIC	??_C@_0BI@JIAOIFFJ@FUNCTION?5?$CFs?3?$CFs?$CI?$CFd?5args?$CJ@ ; `string'
PUBLIC	??_C@_0BF@LKMAOONC@FUNCTION?5?$CFs?$CI?$CFd?5args?$CJ@ ; `string'
PUBLIC	??_C@_03CNBDDMKH@ARG@				; `string'
PUBLIC	??_C@_09NKOLJOJL@PREDICATE@			; `string'
PUBLIC	??_C@_06EKKPGGCG@FILTER@			; `string'
PUBLIC	??_C@_07LNDIAM@RANGETO@				; `string'
PUBLIC	??_C@_0M@BEEHJFLN@UNKNOWN?5?$CFd?6@		; `string'
PUBLIC	??_C@_0BG@FMDDAOLJ@Streaming?5Expression?6@	; `string'
PUBLIC	??_C@_0CD@DHBDACDN@Compiled?5Expression?5?3?5?$CFd?5elemen@ ; `string'
PUBLIC	??_C@_0BH@LJLEGFLD@creating?5object?5cache?6@	; `string'
PUBLIC	??_C@_00CNPNBAHC@@				; `string'
PUBLIC	??_C@_0GH@HIGHEHKE@c?3?2users?2dag?2documents?2_clients@ ; `string'
PUBLIC	??_C@_0BO@MDEMDPPE@Unimplemented?5block?5at?5?$CFs?3?$CFd?6@ ; `string'
PUBLIC	??_C@_0CB@EAFHACKN@XPath?5stack?5depth?5limit?5reached@ ; `string'
PUBLIC	??_C@_0P@LENPPBCI@pushing?5value?6@		; `string'
PUBLIC	??_C@_08KEBCLIFP@Infinity@			; `string'
PUBLIC	??_C@_09BLDCEMOH@?9Infinity@			; `string'
PUBLIC	??_C@_03ICJPMMHB@NaN@				; `string'
PUBLIC	??_C@_01GBGANLPD@0@				; `string'
PUBLIC	??_C@_05PPJAHJKF@?$CF?$CK?4?$CKe@		; `string'
PUBLIC	??_C@_05POONKFEF@?$CF0?4?$CKf@			; `string'
PUBLIC	??_C@_0BH@EHGBBAJH@duplicating?5namespace?6@	; `string'
PUBLIC	??_C@_0BC@LBLPMNCN@creating?5nodeset?6@		; `string'
PUBLIC	??_C@_0BB@HLDFGIFL@growing?5nodeset?6@		; `string'
PUBLIC	??_C@_0BL@JKBEHGK@growing?5nodeset?5hit?5limit?6@ ; `string'
PUBLIC	??_C@_0BB@IMBJKAMG@merging?5nodeset?6@		; `string'
PUBLIC	??_C@_0BL@DBOLJGCN@merging?5nodeset?5hit?5limit?6@ ; `string'
PUBLIC	??_C@_0BM@FFJIGPKH@creating?5result?5value?5tree?6@ ; `string'
PUBLIC	??_C@_0BK@DGDFHNNJ@creating?5node?5set?5object?6@ ; `string'
PUBLIC	??_C@_0BH@FGBKIIOK@creating?5float?5object?6@	; `string'
PUBLIC	??_C@_0BJ@ECLOGIHC@creating?5boolean?5object?6@	; `string'
PUBLIC	??_C@_0BI@BJAGDAFP@creating?5string?5object?6@	; `string'
PUBLIC	??_C@_0BG@ENIHPAML@creating?5user?5object?6@	; `string'
PUBLIC	??_C@_0BA@KJDNPDLE@copying?5object?6@		; `string'
PUBLIC	??_C@_0CJ@OPCFGEGG@xmlXPathObjectCopy?3?5unsupported@ ; `string'
PUBLIC	??_C@_04LOAJBDKD@true@				; `string'
PUBLIC	??_C@_05LAPONLG@false@				; `string'
PUBLIC	??_C@_0BC@GBNJEJGK@creating?5context?6@		; `string'
PUBLIC	??_C@_0BJ@KFGJCHDI@creating?5parser?5context?6@	; `string'
PUBLIC	??_C@_0BN@DLELJOPA@creating?5evaluation?5context?6@ ; `string'
PUBLIC	??_C@_0BE@EIMBPOMM@comparing?5nodesets?6@	; `string'
PUBLIC	??_C@_0EL@MECKCKJO@xmlXPathCompareNodeSetValue?3?5Ca@ ; `string'
PUBLIC	??_C@_0BC@MHFGEIED@fake?5node?5libxslt@		; `string'
PUBLIC	??_C@_0DA@NKGEEAEF@xmlXPathTranslateFunction?3?5Inva@ ; `string'
PUBLIC	??_C@_04CLMONKIF@node@				; `string'
PUBLIC	??_C@_04CIMGMMMG@text@				; `string'
PUBLIC	??_C@_07GJGNEJFD@comment@			; `string'
PUBLIC	??_C@_0BH@NNLCFMHO@processing?9instruction@	; `string'
PUBLIC	??_C@_05IOMEMJEC@count@				; `string'
PUBLIC	??_C@_02MOLJINC@?3?3@				; `string'
PUBLIC	??_C@_08KHINJAEH@range?9to@			; `string'
PUBLIC	??_C@_0BJ@DADKHPPP@Internal?5error?5at?5?$CFs?3?$CFd?6@ ; `string'
PUBLIC	??_C@_08HBEFDOBD@ancestor@			; `string'
PUBLIC	??_C@_0BB@OLBPNJCF@ancestor?9or?9self@		; `string'
PUBLIC	??_C@_09HGIEBAJ@attribute@			; `string'
PUBLIC	??_C@_05GPGNDLEK@child@				; `string'
PUBLIC	??_C@_0L@NJLDCKIO@descendant@			; `string'
PUBLIC	??_C@_0BD@EPJHOOIL@descendant?9or?9self@	; `string'
PUBLIC	??_C@_09BEIPBMDN@following@			; `string'
PUBLIC	??_C@_0BC@LMFKEKDG@following?9sibling@		; `string'
PUBLIC	??_C@_09KPMGAFNI@namespace@			; `string'
PUBLIC	??_C@_06MLKDMCBD@parent@			; `string'
PUBLIC	??_C@_09MGMONEC@preceding@			; `string'
PUBLIC	??_C@_0BC@MLGDENAI@preceding?9sibling@		; `string'
PUBLIC	??_C@_04PJDNGLKJ@self@				; `string'
PUBLIC	??_C@_04PLGBGIDD@last@				; `string'
PUBLIC	??_C@_0DO@IDAPNIMJ@xmlXPathCompOpEval?3?5variable?5?$CFs@ ; `string'
PUBLIC	??_C@_0CF@LMIGLEJC@xmlXPathCompOpEval?3?5parameter?5e@ ; `string'
PUBLIC	??_C@_0DO@MGJDMDIG@xmlXPathCompOpEval?3?5function?5?$CFs@ ; `string'
PUBLIC	??_C@_0CL@KAMILNDJ@xmlXPathCompOpEval?3?5function?5?$CFs@ ; `string'
PUBLIC	??_C@_0CJ@OFCEKGJC@XPath?3?5unknown?5precompiled?5oper@ ; `string'
PUBLIC	??_C@_0CJ@GKOHPKDK@xmlXPathRunEval?3?5last?5is?5less?5t@ ; `string'
PUBLIC	??_C@_0BN@BJKHBGFI@allocating?5namespaces?5array?6@ ; `string'
PUBLIC	??_C@_0CC@FJFLGALO@allocating?5streamable?5expressio@ ; `string'
PUBLIC	??_C@_0BG@PBKLCIKP@NULL?5context?5pointer?6@	; `string'
PUBLIC	??_C@_0CP@KKKCDCLL@xmlXPathCompiledEval?3?5No?5result@ ; `string'
PUBLIC	??_C@_0DH@OEPEKFKA@xmlXPathCompiledEval?3?5?$CFd?5object@ ; `string'
PUBLIC	??_C@_07GOBOHMJA@boolean@			; `string'
PUBLIC	??_C@_07EANFIDJB@ceiling@			; `string'
PUBLIC	??_C@_06CMLIEHFC@concat@			; `string'
PUBLIC	??_C@_08JKMOLGCD@contains@			; `string'
PUBLIC	??_C@_02EGCJHIOB@id@				; `string'
PUBLIC	??_C@_05PBJFFIGL@floor@				; `string'
PUBLIC	??_C@_04IOHABJIC@lang@				; `string'
PUBLIC	??_C@_0L@JNMMKGPH@local?9name@			; `string'
PUBLIC	??_C@_03NJKJADM@not@				; `string'
PUBLIC	??_C@_04MEMAJGDJ@name@				; `string'
PUBLIC	??_C@_0O@LIBIEKOH@namespace?9uri@		; `string'
PUBLIC	??_C@_0BA@GMCNNFIH@normalize?9space@		; `string'
PUBLIC	??_C@_06EBGNBFIA@number@			; `string'
PUBLIC	??_C@_08OAGMDKAF@position@			; `string'
PUBLIC	??_C@_05MIMAKCN@round@				; `string'
PUBLIC	??_C@_06ICGJLFIM@string@			; `string'
PUBLIC	??_C@_0O@NOLAIBIG@string?9length@		; `string'
PUBLIC	??_C@_0M@MENNCJLJ@starts?9with@			; `string'
PUBLIC	??_C@_09MJALBNED@substring@			; `string'
PUBLIC	??_C@_0BB@KKJFBMPK@substring?9before@		; `string'
PUBLIC	??_C@_0BA@JEDLCCAF@substring?9after@		; `string'
PUBLIC	??_C@_03CFFIJAMA@sum@				; `string'
PUBLIC	??_C@_09ODNGOEIO@translate@			; `string'
PUBLIC	??_C@_0CL@DABLMGPH@http?3?1?1www?4w3?4org?12002?108?1xquer@ ; `string'
PUBLIC	??_C@_0L@ODIBMOLP@escape?9uri@			; `string'
PUBLIC	__real@0000000000000000
PUBLIC	__real@3ee4f8b588e368f1
PUBLIC	__real@3fe0000000000000
PUBLIC	__real@3ff0000000000000
PUBLIC	__real@4024000000000000
PUBLIC	__real@41cdcd6500000000
PUBLIC	__real@41dfffffffc00000
PUBLIC	__real@7ff0000000000000
PUBLIC	__real@bfe0000000000000
PUBLIC	__real@c1e0000000000000
PUBLIC	__real@fff0000000000000
PUBLIC	__real@fff8000000000000
PUBLIC	__xmm@7fffffffffffffff7fffffffffffffff
PUBLIC	__xmm@80000000000000008000000000000000
EXTRN	_xmlStrdup:PROC
EXTRN	_xmlStrndup:PROC
EXTRN	_xmlStrchr:PROC
EXTRN	_xmlStrstr:PROC
EXTRN	_xmlStrncmp:PROC
EXTRN	_xmlStrEqual:PROC
EXTRN	_xmlStrlen:PROC
EXTRN	_xmlStrcat:PROC
EXTRN	_xmlStrPrintf:PROC
EXTRN	_xmlUTF8Strsize:PROC
EXTRN	_xmlUTF8Strpos:PROC
EXTRN	_xmlUTF8Strloc:PROC
EXTRN	_xmlUTF8Strsub:PROC
EXTRN	_xmlUTF8Strlen:PROC
EXTRN	__imp___dclass:PROC
EXTRN	__imp____acrt_iob_func:PROC
EXTRN	__imp____stdio_common_vfprintf:PROC
EXTRN	__imp____stdio_common_vsprintf:PROC
EXTRN	__imp__toupper:PROC
EXTRN	_xmlBufContent:PROC
EXTRN	_xmlDictReference:PROC
EXTRN	_xmlDictFree:PROC
EXTRN	_xmlDictLookup:PROC
EXTRN	_xmlBuildQName:PROC
EXTRN	_xmlDocGetRootElement:PROC
EXTRN	_xmlFreeNodeList:PROC
EXTRN	_xmlGetNsList:PROC
EXTRN	_xmlNodeGetContent:PROC
EXTRN	_xmlNodeGetLang:PROC
EXTRN	_xmlHashCreate:PROC
EXTRN	_xmlHashFree:PROC
EXTRN	_xmlHashDefaultDeallocator:PROC
EXTRN	_xmlHashAddEntry:PROC
EXTRN	_xmlHashUpdateEntry:PROC
EXTRN	_xmlHashAddEntry2:PROC
EXTRN	_xmlHashUpdateEntry2:PROC
EXTRN	_xmlHashRemoveEntry:PROC
EXTRN	_xmlHashRemoveEntry2:PROC
EXTRN	_xmlHashLookup:PROC
EXTRN	_xmlHashLookup2:PROC
EXTRN	_xmlResetError:PROC
EXTRN	___xmlRaiseError:PROC
EXTRN	_xmlGetID:PROC
EXTRN	__imp__free:PROC
EXTRN	__imp__realloc:PROC
EXTRN	__imp__exit:PROC
EXTRN	___xmlGenericError:PROC
EXTRN	___xmlGenericErrorContext:PROC
EXTRN	_xmlCharInRange:PROC
EXTRN	_xmlCopyChar:PROC
EXTRN	_xmlXPtrLocationSetCreate:PROC
EXTRN	_xmlXPtrFreeLocationSet:PROC
EXTRN	_xmlXPtrLocationSetMerge:PROC
EXTRN	_xmlXPtrNewRange:PROC
EXTRN	_xmlXPtrNewRangeNodeObject:PROC
EXTRN	_xmlXPtrLocationSetAdd:PROC
EXTRN	_xmlXPtrWrapLocationSet:PROC
EXTRN	_xmlDebugDumpString:PROC
EXTRN	_xmlDebugDumpAttr:PROC
EXTRN	_xmlDebugDumpOneNode:PROC
EXTRN	_xmlFreePattern:PROC
EXTRN	_xmlFreePatternList:PROC
EXTRN	_xmlPatterncompile:PROC
EXTRN	_xmlPatternStreamable:PROC
EXTRN	_xmlPatternMaxDepth:PROC
EXTRN	_xmlPatternMinDepth:PROC
EXTRN	_xmlPatternFromRoot:PROC
EXTRN	_xmlPatternGetStreamCtxt:PROC
EXTRN	_xmlFreeStreamCtxt:PROC
EXTRN	_xmlStreamPushNode:PROC
EXTRN	_xmlStreamPush:PROC
EXTRN	_xmlStreamPop:PROC
EXTRN	_xmlStreamWantsAnyNode:PROC
EXTRN	_xmlBufCreate:PROC
EXTRN	_xmlBufFree:PROC
EXTRN	_xmlBufAdd:PROC
EXTRN	@__CheckForDebuggerJustMyCode@4:PROC
EXTRN	__CIfmod:PROC
EXTRN	__libm_sse2_log10_precise:PROC
EXTRN	__libm_sse2_pow_precise:PROC
EXTRN	_ceil:PROC
EXTRN	_floor:PROC
EXTRN	_memcpy:PROC
EXTRN	_memmove:PROC
EXTRN	_memset:PROC
EXTRN	__fltused:DWORD
_DATA	SEGMENT
COMM	?_OptionsStorage@?1??__local_stdio_printf_options@@9@9:QWORD							; `__local_stdio_printf_options'::`2'::_OptionsStorage
_DATA	ENDS
;	COMDAT __xmm@80000000000000008000000000000000
CONST	SEGMENT
__xmm@80000000000000008000000000000000 DB 00H, 00H, 00H, 00H, 00H, 00H, 00H
	DB	080H, 00H, 00H, 00H, 00H, 00H, 00H, 00H, 080H
CONST	ENDS
;	COMDAT __xmm@7fffffffffffffff7fffffffffffffff
CONST	SEGMENT
__xmm@7fffffffffffffff7fffffffffffffff DB 0ffH, 0ffH, 0ffH, 0ffH, 0ffH, 0ffH
	DB	0ffH, 07fH, 0ffH, 0ffH, 0ffH, 0ffH, 0ffH, 0ffH, 0ffH, 07fH
CONST	ENDS
;	COMDAT __real@fff8000000000000
CONST	SEGMENT
__real@fff8000000000000 DQ 0fff8000000000000r	; -nan(ind)
CONST	ENDS
;	COMDAT __real@fff0000000000000
CONST	SEGMENT
__real@fff0000000000000 DQ 0fff0000000000000r	; -inf
CONST	ENDS
;	COMDAT __real@c1e0000000000000
CONST	SEGMENT
__real@c1e0000000000000 DQ 0c1e0000000000000r	; -2.14748e+09
CONST	ENDS
;	COMDAT __real@bfe0000000000000
CONST	SEGMENT
__real@bfe0000000000000 DQ 0bfe0000000000000r	; -0.5
CONST	ENDS
;	COMDAT __real@7ff0000000000000
CONST	SEGMENT
__real@7ff0000000000000 DQ 07ff0000000000000r	; inf
CONST	ENDS
;	COMDAT __real@41dfffffffc00000
CONST	SEGMENT
__real@41dfffffffc00000 DQ 041dfffffffc00000r	; 2.14748e+09
CONST	ENDS
;	COMDAT __real@41cdcd6500000000
CONST	SEGMENT
__real@41cdcd6500000000 DQ 041cdcd6500000000r	; 1e+09
CONST	ENDS
;	COMDAT __real@4024000000000000
CONST	SEGMENT
__real@4024000000000000 DQ 04024000000000000r	; 10
CONST	ENDS
;	COMDAT __real@3ff0000000000000
CONST	SEGMENT
__real@3ff0000000000000 DQ 03ff0000000000000r	; 1
CONST	ENDS
;	COMDAT __real@3fe0000000000000
CONST	SEGMENT
__real@3fe0000000000000 DQ 03fe0000000000000r	; 0.5
CONST	ENDS
;	COMDAT __real@3ee4f8b588e368f1
CONST	SEGMENT
__real@3ee4f8b588e368f1 DQ 03ee4f8b588e368f1r	; 1e-05
CONST	ENDS
;	COMDAT __real@0000000000000000
CONST	SEGMENT
__real@0000000000000000 DQ 00000000000000000r	; 0
CONST	ENDS
;	COMDAT ??_C@_0L@ODIBMOLP@escape?9uri@
CONST	SEGMENT
??_C@_0L@ODIBMOLP@escape?9uri@ DB 'escape-uri', 00H	; `string'
CONST	ENDS
;	COMDAT ??_C@_0CL@DABLMGPH@http?3?1?1www?4w3?4org?12002?108?1xquer@
CONST	SEGMENT
??_C@_0CL@DABLMGPH@http?3?1?1www?4w3?4org?12002?108?1xquer@ DB 'http://ww'
	DB	'w.w3.org/2002/08/xquery-functions', 00H	; `string'
CONST	ENDS
;	COMDAT ??_C@_09ODNGOEIO@translate@
CONST	SEGMENT
??_C@_09ODNGOEIO@translate@ DB 'translate', 00H		; `string'
CONST	ENDS
;	COMDAT ??_C@_03CFFIJAMA@sum@
CONST	SEGMENT
??_C@_03CFFIJAMA@sum@ DB 'sum', 00H			; `string'
CONST	ENDS
;	COMDAT ??_C@_0BA@JEDLCCAF@substring?9after@
CONST	SEGMENT
??_C@_0BA@JEDLCCAF@substring?9after@ DB 'substring-after', 00H ; `string'
CONST	ENDS
;	COMDAT ??_C@_0BB@KKJFBMPK@substring?9before@
CONST	SEGMENT
??_C@_0BB@KKJFBMPK@substring?9before@ DB 'substring-before', 00H ; `string'
CONST	ENDS
;	COMDAT ??_C@_09MJALBNED@substring@
CONST	SEGMENT
??_C@_09MJALBNED@substring@ DB 'substring', 00H		; `string'
CONST	ENDS
;	COMDAT ??_C@_0M@MENNCJLJ@starts?9with@
CONST	SEGMENT
??_C@_0M@MENNCJLJ@starts?9with@ DB 'starts-with', 00H	; `string'
CONST	ENDS
;	COMDAT ??_C@_0O@NOLAIBIG@string?9length@
CONST	SEGMENT
??_C@_0O@NOLAIBIG@string?9length@ DB 'string-length', 00H ; `string'
CONST	ENDS
;	COMDAT ??_C@_06ICGJLFIM@string@
CONST	SEGMENT
??_C@_06ICGJLFIM@string@ DB 'string', 00H		; `string'
CONST	ENDS
;	COMDAT ??_C@_05MIMAKCN@round@
CONST	SEGMENT
??_C@_05MIMAKCN@round@ DB 'round', 00H			; `string'
CONST	ENDS
;	COMDAT ??_C@_08OAGMDKAF@position@
CONST	SEGMENT
??_C@_08OAGMDKAF@position@ DB 'position', 00H		; `string'
CONST	ENDS
;	COMDAT ??_C@_06EBGNBFIA@number@
CONST	SEGMENT
??_C@_06EBGNBFIA@number@ DB 'number', 00H		; `string'
CONST	ENDS
;	COMDAT ??_C@_0BA@GMCNNFIH@normalize?9space@
CONST	SEGMENT
??_C@_0BA@GMCNNFIH@normalize?9space@ DB 'normalize-space', 00H ; `string'
CONST	ENDS
;	COMDAT ??_C@_0O@LIBIEKOH@namespace?9uri@
CONST	SEGMENT
??_C@_0O@LIBIEKOH@namespace?9uri@ DB 'namespace-uri', 00H ; `string'
CONST	ENDS
;	COMDAT ??_C@_04MEMAJGDJ@name@
CONST	SEGMENT
??_C@_04MEMAJGDJ@name@ DB 'name', 00H			; `string'
CONST	ENDS
;	COMDAT ??_C@_03NJKJADM@not@
CONST	SEGMENT
??_C@_03NJKJADM@not@ DB 'not', 00H			; `string'
CONST	ENDS
;	COMDAT ??_C@_0L@JNMMKGPH@local?9name@
CONST	SEGMENT
??_C@_0L@JNMMKGPH@local?9name@ DB 'local-name', 00H	; `string'
CONST	ENDS
;	COMDAT ??_C@_04IOHABJIC@lang@
CONST	SEGMENT
??_C@_04IOHABJIC@lang@ DB 'lang', 00H			; `string'
CONST	ENDS
;	COMDAT ??_C@_05PBJFFIGL@floor@
CONST	SEGMENT
??_C@_05PBJFFIGL@floor@ DB 'floor', 00H			; `string'
CONST	ENDS
;	COMDAT ??_C@_02EGCJHIOB@id@
CONST	SEGMENT
??_C@_02EGCJHIOB@id@ DB 'id', 00H			; `string'
CONST	ENDS
;	COMDAT ??_C@_08JKMOLGCD@contains@
CONST	SEGMENT
??_C@_08JKMOLGCD@contains@ DB 'contains', 00H		; `string'
CONST	ENDS
;	COMDAT ??_C@_06CMLIEHFC@concat@
CONST	SEGMENT
??_C@_06CMLIEHFC@concat@ DB 'concat', 00H		; `string'
CONST	ENDS
;	COMDAT ??_C@_07EANFIDJB@ceiling@
CONST	SEGMENT
??_C@_07EANFIDJB@ceiling@ DB 'ceiling', 00H		; `string'
CONST	ENDS
;	COMDAT ??_C@_07GOBOHMJA@boolean@
CONST	SEGMENT
??_C@_07GOBOHMJA@boolean@ DB 'boolean', 00H		; `string'
CONST	ENDS
;	COMDAT ??_C@_0DH@OEPEKFKA@xmlXPathCompiledEval?3?5?$CFd?5object@
CONST	SEGMENT
??_C@_0DH@OEPEKFKA@xmlXPathCompiledEval?3?5?$CFd?5object@ DB 'xmlXPathCom'
	DB	'piledEval: %d object(s) left on the stack.', 0aH, 00H ; `string'
CONST	ENDS
;	COMDAT ??_C@_0CP@KKKCDCLL@xmlXPathCompiledEval?3?5No?5result@
CONST	SEGMENT
??_C@_0CP@KKKCDCLL@xmlXPathCompiledEval?3?5No?5result@ DB 'xmlXPathCompil'
	DB	'edEval: No result on the stack.', 0aH, 00H	; `string'
CONST	ENDS
;	COMDAT ??_C@_0BG@PBKLCIKP@NULL?5context?5pointer?6@
CONST	SEGMENT
??_C@_0BG@PBKLCIKP@NULL?5context?5pointer?6@ DB 'NULL context pointer', 0aH
	DB	00H						; `string'
CONST	ENDS
;	COMDAT ??_C@_0CC@FJFLGALO@allocating?5streamable?5expressio@
CONST	SEGMENT
??_C@_0CC@FJFLGALO@allocating?5streamable?5expressio@ DB 'allocating stre'
	DB	'amable expression', 0aH, 00H		; `string'
CONST	ENDS
;	COMDAT ??_C@_0BN@BJKHBGFI@allocating?5namespaces?5array?6@
CONST	SEGMENT
??_C@_0BN@BJKHBGFI@allocating?5namespaces?5array?6@ DB 'allocating namesp'
	DB	'aces array', 0aH, 00H			; `string'
CONST	ENDS
;	COMDAT ??_C@_0CJ@GKOHPKDK@xmlXPathRunEval?3?5last?5is?5less?5t@
CONST	SEGMENT
??_C@_0CJ@GKOHPKDK@xmlXPathRunEval?3?5last?5is?5less?5t@ DB 'xmlXPathRunE'
	DB	'val: last is less than zero', 0aH, 00H	; `string'
CONST	ENDS
;	COMDAT ??_C@_0CJ@OFCEKGJC@XPath?3?5unknown?5precompiled?5oper@
CONST	SEGMENT
??_C@_0CJ@OFCEKGJC@XPath?3?5unknown?5precompiled?5oper@ DB 'XPath: unknow'
	DB	'n precompiled operation %d', 0aH, 00H	; `string'
CONST	ENDS
;	COMDAT ??_C@_0CL@KAMILNDJ@xmlXPathCompOpEval?3?5function?5?$CFs@
CONST	SEGMENT
??_C@_0CL@KAMILNDJ@xmlXPathCompOpEval?3?5function?5?$CFs@ DB 'xmlXPathCom'
	DB	'pOpEval: function %s not found', 0aH, 00H	; `string'
CONST	ENDS
;	COMDAT ??_C@_0DO@MGJDMDIG@xmlXPathCompOpEval?3?5function?5?$CFs@
CONST	SEGMENT
??_C@_0DO@MGJDMDIG@xmlXPathCompOpEval?3?5function?5?$CFs@ DB 'xmlXPathCom'
	DB	'pOpEval: function %s bound to undefined prefix %s', 0aH, 00H ; `string'
CONST	ENDS
;	COMDAT ??_C@_0CF@LMIGLEJC@xmlXPathCompOpEval?3?5parameter?5e@
CONST	SEGMENT
??_C@_0CF@LMIGLEJC@xmlXPathCompOpEval?3?5parameter?5e@ DB 'xmlXPathCompOp'
	DB	'Eval: parameter error', 0aH, 00H		; `string'
CONST	ENDS
;	COMDAT ??_C@_0DO@IDAPNIMJ@xmlXPathCompOpEval?3?5variable?5?$CFs@
CONST	SEGMENT
??_C@_0DO@IDAPNIMJ@xmlXPathCompOpEval?3?5variable?5?$CFs@ DB 'xmlXPathCom'
	DB	'pOpEval: variable %s bound to undefined prefix %s', 0aH, 00H ; `string'
CONST	ENDS
;	COMDAT ??_C@_04PLGBGIDD@last@
CONST	SEGMENT
??_C@_04PLGBGIDD@last@ DB 'last', 00H			; `string'
CONST	ENDS
;	COMDAT ??_C@_04PJDNGLKJ@self@
CONST	SEGMENT
??_C@_04PJDNGLKJ@self@ DB 'self', 00H			; `string'
CONST	ENDS
;	COMDAT ??_C@_0BC@MLGDENAI@preceding?9sibling@
CONST	SEGMENT
??_C@_0BC@MLGDENAI@preceding?9sibling@ DB 'preceding-sibling', 00H ; `string'
CONST	ENDS
;	COMDAT ??_C@_09MGMONEC@preceding@
CONST	SEGMENT
??_C@_09MGMONEC@preceding@ DB 'preceding', 00H		; `string'
CONST	ENDS
;	COMDAT ??_C@_06MLKDMCBD@parent@
CONST	SEGMENT
??_C@_06MLKDMCBD@parent@ DB 'parent', 00H		; `string'
CONST	ENDS
;	COMDAT ??_C@_09KPMGAFNI@namespace@
CONST	SEGMENT
??_C@_09KPMGAFNI@namespace@ DB 'namespace', 00H		; `string'
CONST	ENDS
;	COMDAT ??_C@_0BC@LMFKEKDG@following?9sibling@
CONST	SEGMENT
??_C@_0BC@LMFKEKDG@following?9sibling@ DB 'following-sibling', 00H ; `string'
CONST	ENDS
;	COMDAT ??_C@_09BEIPBMDN@following@
CONST	SEGMENT
??_C@_09BEIPBMDN@following@ DB 'following', 00H		; `string'
CONST	ENDS
;	COMDAT ??_C@_0BD@EPJHOOIL@descendant?9or?9self@
CONST	SEGMENT
??_C@_0BD@EPJHOOIL@descendant?9or?9self@ DB 'descendant-or-self', 00H ; `string'
CONST	ENDS
;	COMDAT ??_C@_0L@NJLDCKIO@descendant@
CONST	SEGMENT
??_C@_0L@NJLDCKIO@descendant@ DB 'descendant', 00H	; `string'
CONST	ENDS
;	COMDAT ??_C@_05GPGNDLEK@child@
CONST	SEGMENT
??_C@_05GPGNDLEK@child@ DB 'child', 00H			; `string'
CONST	ENDS
;	COMDAT ??_C@_09HGIEBAJ@attribute@
CONST	SEGMENT
??_C@_09HGIEBAJ@attribute@ DB 'attribute', 00H		; `string'
CONST	ENDS
;	COMDAT ??_C@_0BB@OLBPNJCF@ancestor?9or?9self@
CONST	SEGMENT
??_C@_0BB@OLBPNJCF@ancestor?9or?9self@ DB 'ancestor-or-self', 00H ; `string'
CONST	ENDS
;	COMDAT ??_C@_08HBEFDOBD@ancestor@
CONST	SEGMENT
??_C@_08HBEFDOBD@ancestor@ DB 'ancestor', 00H		; `string'
CONST	ENDS
;	COMDAT ??_C@_0BJ@DADKHPPP@Internal?5error?5at?5?$CFs?3?$CFd?6@
CONST	SEGMENT
??_C@_0BJ@DADKHPPP@Internal?5error?5at?5?$CFs?3?$CFd?6@ DB 'Internal erro'
	DB	'r at %s:%d', 0aH, 00H			; `string'
CONST	ENDS
;	COMDAT ??_C@_08KHINJAEH@range?9to@
CONST	SEGMENT
??_C@_08KHINJAEH@range?9to@ DB 'range-to', 00H		; `string'
CONST	ENDS
;	COMDAT ??_C@_02MOLJINC@?3?3@
CONST	SEGMENT
??_C@_02MOLJINC@?3?3@ DB '::', 00H			; `string'
CONST	ENDS
;	COMDAT ??_C@_05IOMEMJEC@count@
CONST	SEGMENT
??_C@_05IOMEMJEC@count@ DB 'count', 00H			; `string'
CONST	ENDS
;	COMDAT ??_C@_0BH@NNLCFMHO@processing?9instruction@
CONST	SEGMENT
??_C@_0BH@NNLCFMHO@processing?9instruction@ DB 'processing-instruction', 00H ; `string'
CONST	ENDS
;	COMDAT ??_C@_07GJGNEJFD@comment@
CONST	SEGMENT
??_C@_07GJGNEJFD@comment@ DB 'comment', 00H		; `string'
CONST	ENDS
;	COMDAT ??_C@_04CIMGMMMG@text@
CONST	SEGMENT
??_C@_04CIMGMMMG@text@ DB 'text', 00H			; `string'
CONST	ENDS
;	COMDAT ??_C@_04CLMONKIF@node@
CONST	SEGMENT
??_C@_04CLMONKIF@node@ DB 'node', 00H			; `string'
CONST	ENDS
;	COMDAT ??_C@_0DA@NKGEEAEF@xmlXPathTranslateFunction?3?5Inva@
CONST	SEGMENT
??_C@_0DA@NKGEEAEF@xmlXPathTranslateFunction?3?5Inva@ DB 'xmlXPathTransla'
	DB	'teFunction: Invalid UTF8 string', 0aH, 00H	; `string'
CONST	ENDS
;	COMDAT ??_C@_0BC@MHFGEIED@fake?5node?5libxslt@
CONST	SEGMENT
??_C@_0BC@MHFGEIED@fake?5node?5libxslt@ DB 'fake node libxslt', 00H ; `string'
CONST	ENDS
;	COMDAT ??_C@_0EL@MECKCKJO@xmlXPathCompareNodeSetValue?3?5Ca@
CONST	SEGMENT
??_C@_0EL@MECKCKJO@xmlXPathCompareNodeSetValue?3?5Ca@ DB 'xmlXPathCompare'
	DB	'NodeSetValue: Can''t compare node set and object of type %d', 0aH
	DB	00H						; `string'
CONST	ENDS
;	COMDAT ??_C@_0BE@EIMBPOMM@comparing?5nodesets?6@
CONST	SEGMENT
??_C@_0BE@EIMBPOMM@comparing?5nodesets?6@ DB 'comparing nodesets', 0aH, 00H ; `string'
CONST	ENDS
;	COMDAT ??_C@_0BN@DLELJOPA@creating?5evaluation?5context?6@
CONST	SEGMENT
??_C@_0BN@DLELJOPA@creating?5evaluation?5context?6@ DB 'creating evaluati'
	DB	'on context', 0aH, 00H			; `string'
CONST	ENDS
;	COMDAT ??_C@_0BJ@KFGJCHDI@creating?5parser?5context?6@
CONST	SEGMENT
??_C@_0BJ@KFGJCHDI@creating?5parser?5context?6@ DB 'creating parser conte'
	DB	'xt', 0aH, 00H				; `string'
CONST	ENDS
;	COMDAT ??_C@_0BC@GBNJEJGK@creating?5context?6@
CONST	SEGMENT
??_C@_0BC@GBNJEJGK@creating?5context?6@ DB 'creating context', 0aH, 00H ; `string'
CONST	ENDS
;	COMDAT ??_C@_05LAPONLG@false@
CONST	SEGMENT
??_C@_05LAPONLG@false@ DB 'false', 00H			; `string'
CONST	ENDS
;	COMDAT ??_C@_04LOAJBDKD@true@
CONST	SEGMENT
??_C@_04LOAJBDKD@true@ DB 'true', 00H			; `string'
CONST	ENDS
;	COMDAT ??_C@_0CJ@OPCFGEGG@xmlXPathObjectCopy?3?5unsupported@
CONST	SEGMENT
??_C@_0CJ@OPCFGEGG@xmlXPathObjectCopy?3?5unsupported@ DB 'xmlXPathObjectC'
	DB	'opy: unsupported type %d', 0aH, 00H		; `string'
CONST	ENDS
;	COMDAT ??_C@_0BA@KJDNPDLE@copying?5object?6@
CONST	SEGMENT
??_C@_0BA@KJDNPDLE@copying?5object?6@ DB 'copying object', 0aH, 00H ; `string'
CONST	ENDS
;	COMDAT ??_C@_0BG@ENIHPAML@creating?5user?5object?6@
CONST	SEGMENT
??_C@_0BG@ENIHPAML@creating?5user?5object?6@ DB 'creating user object', 0aH
	DB	00H						; `string'
CONST	ENDS
;	COMDAT ??_C@_0BI@BJAGDAFP@creating?5string?5object?6@
CONST	SEGMENT
??_C@_0BI@BJAGDAFP@creating?5string?5object?6@ DB 'creating string object'
	DB	0aH, 00H					; `string'
CONST	ENDS
;	COMDAT ??_C@_0BJ@ECLOGIHC@creating?5boolean?5object?6@
CONST	SEGMENT
??_C@_0BJ@ECLOGIHC@creating?5boolean?5object?6@ DB 'creating boolean obje'
	DB	'ct', 0aH, 00H				; `string'
CONST	ENDS
;	COMDAT ??_C@_0BH@FGBKIIOK@creating?5float?5object?6@
CONST	SEGMENT
??_C@_0BH@FGBKIIOK@creating?5float?5object?6@ DB 'creating float object', 0aH
	DB	00H						; `string'
CONST	ENDS
;	COMDAT ??_C@_0BK@DGDFHNNJ@creating?5node?5set?5object?6@
CONST	SEGMENT
??_C@_0BK@DGDFHNNJ@creating?5node?5set?5object?6@ DB 'creating node set o'
	DB	'bject', 0aH, 00H				; `string'
CONST	ENDS
;	COMDAT ??_C@_0BM@FFJIGPKH@creating?5result?5value?5tree?6@
CONST	SEGMENT
??_C@_0BM@FFJIGPKH@creating?5result?5value?5tree?6@ DB 'creating result v'
	DB	'alue tree', 0aH, 00H			; `string'
CONST	ENDS
;	COMDAT ??_C@_0BL@DBOLJGCN@merging?5nodeset?5hit?5limit?6@
CONST	SEGMENT
??_C@_0BL@DBOLJGCN@merging?5nodeset?5hit?5limit?6@ DB 'merging nodeset hi'
	DB	't limit', 0aH, 00H				; `string'
CONST	ENDS
;	COMDAT ??_C@_0BB@IMBJKAMG@merging?5nodeset?6@
CONST	SEGMENT
??_C@_0BB@IMBJKAMG@merging?5nodeset?6@ DB 'merging nodeset', 0aH, 00H ; `string'
CONST	ENDS
;	COMDAT ??_C@_0BL@JKBEHGK@growing?5nodeset?5hit?5limit?6@
CONST	SEGMENT
??_C@_0BL@JKBEHGK@growing?5nodeset?5hit?5limit?6@ DB 'growing nodeset hit'
	DB	' limit', 0aH, 00H				; `string'
CONST	ENDS
;	COMDAT ??_C@_0BB@HLDFGIFL@growing?5nodeset?6@
CONST	SEGMENT
??_C@_0BB@HLDFGIFL@growing?5nodeset?6@ DB 'growing nodeset', 0aH, 00H ; `string'
CONST	ENDS
;	COMDAT ??_C@_0BC@LBLPMNCN@creating?5nodeset?6@
CONST	SEGMENT
??_C@_0BC@LBLPMNCN@creating?5nodeset?6@ DB 'creating nodeset', 0aH, 00H ; `string'
CONST	ENDS
;	COMDAT ??_C@_0BH@EHGBBAJH@duplicating?5namespace?6@
CONST	SEGMENT
??_C@_0BH@EHGBBAJH@duplicating?5namespace?6@ DB 'duplicating namespace', 0aH
	DB	00H						; `string'
CONST	ENDS
;	COMDAT ??_C@_05POONKFEF@?$CF0?4?$CKf@
CONST	SEGMENT
??_C@_05POONKFEF@?$CF0?4?$CKf@ DB '%0.*f', 00H		; `string'
CONST	ENDS
;	COMDAT ??_C@_05PPJAHJKF@?$CF?$CK?4?$CKe@
CONST	SEGMENT
??_C@_05PPJAHJKF@?$CF?$CK?4?$CKe@ DB '%*.*e', 00H	; `string'
CONST	ENDS
;	COMDAT ??_C@_01GBGANLPD@0@
CONST	SEGMENT
??_C@_01GBGANLPD@0@ DB '0', 00H				; `string'
CONST	ENDS
;	COMDAT ??_C@_03ICJPMMHB@NaN@
CONST	SEGMENT
??_C@_03ICJPMMHB@NaN@ DB 'NaN', 00H			; `string'
CONST	ENDS
;	COMDAT ??_C@_09BLDCEMOH@?9Infinity@
CONST	SEGMENT
??_C@_09BLDCEMOH@?9Infinity@ DB '-Infinity', 00H	; `string'
CONST	ENDS
;	COMDAT ??_C@_08KEBCLIFP@Infinity@
CONST	SEGMENT
??_C@_08KEBCLIFP@Infinity@ DB 'Infinity', 00H		; `string'
CONST	ENDS
;	COMDAT ??_C@_0P@LENPPBCI@pushing?5value?6@
CONST	SEGMENT
??_C@_0P@LENPPBCI@pushing?5value?6@ DB 'pushing value', 0aH, 00H ; `string'
CONST	ENDS
;	COMDAT ??_C@_0CB@EAFHACKN@XPath?5stack?5depth?5limit?5reached@
CONST	SEGMENT
??_C@_0CB@EAFHACKN@XPath?5stack?5depth?5limit?5reached@ DB 'XPath stack d'
	DB	'epth limit reached', 0aH, 00H		; `string'
CONST	ENDS
;	COMDAT ??_C@_0BO@MDEMDPPE@Unimplemented?5block?5at?5?$CFs?3?$CFd?6@
CONST	SEGMENT
??_C@_0BO@MDEMDPPE@Unimplemented?5block?5at?5?$CFs?3?$CFd?6@ DB 'Unimplem'
	DB	'ented block at %s:%d', 0aH, 00H		; `string'
CONST	ENDS
;	COMDAT ??_C@_0GH@HIGHEHKE@c?3?2users?2dag?2documents?2_clients@
CONST	SEGMENT
??_C@_0GH@HIGHEHKE@c?3?2users?2dag?2documents?2_clients@ DB 'c:\users\dag'
	DB	'\documents\_clients\codeproject authors group\windows on arm\'
	DB	'libxml2\libxml2-2.9.9\xpath.c', 00H		; `string'
CONST	ENDS
;	COMDAT ??_C@_00CNPNBAHC@@
CONST	SEGMENT
??_C@_00CNPNBAHC@@ DB 00H				; `string'
CONST	ENDS
;	COMDAT ??_C@_0BH@LJLEGFLD@creating?5object?5cache?6@
CONST	SEGMENT
??_C@_0BH@LJLEGFLD@creating?5object?5cache?6@ DB 'creating object cache', 0aH
	DB	00H						; `string'
CONST	ENDS
;	COMDAT ??_C@_0CD@DHBDACDN@Compiled?5Expression?5?3?5?$CFd?5elemen@
CONST	SEGMENT
??_C@_0CD@DHBDACDN@Compiled?5Expression?5?3?5?$CFd?5elemen@ DB 'Compiled '
	DB	'Expression : %d elements', 0aH, 00H		; `string'
CONST	ENDS
;	COMDAT ??_C@_0BG@FMDDAOLJ@Streaming?5Expression?6@
CONST	SEGMENT
??_C@_0BG@FMDDAOLJ@Streaming?5Expression?6@ DB 'Streaming Expression', 0aH
	DB	00H						; `string'
CONST	ENDS
;	COMDAT ??_C@_0M@BEEHJFLN@UNKNOWN?5?$CFd?6@
CONST	SEGMENT
??_C@_0M@BEEHJFLN@UNKNOWN?5?$CFd?6@ DB 'UNKNOWN %d', 0aH, 00H ; `string'
CONST	ENDS
;	COMDAT ??_C@_07LNDIAM@RANGETO@
CONST	SEGMENT
??_C@_07LNDIAM@RANGETO@ DB 'RANGETO', 00H		; `string'
CONST	ENDS
;	COMDAT ??_C@_06EKKPGGCG@FILTER@
CONST	SEGMENT
??_C@_06EKKPGGCG@FILTER@ DB 'FILTER', 00H		; `string'
CONST	ENDS
;	COMDAT ??_C@_09NKOLJOJL@PREDICATE@
CONST	SEGMENT
??_C@_09NKOLJOJL@PREDICATE@ DB 'PREDICATE', 00H		; `string'
CONST	ENDS
;	COMDAT ??_C@_03CNBDDMKH@ARG@
CONST	SEGMENT
??_C@_03CNBDDMKH@ARG@ DB 'ARG', 00H			; `string'
CONST	ENDS
;	COMDAT ??_C@_0BF@LKMAOONC@FUNCTION?5?$CFs?$CI?$CFd?5args?$CJ@
CONST	SEGMENT
??_C@_0BF@LKMAOONC@FUNCTION?5?$CFs?$CI?$CFd?5args?$CJ@ DB 'FUNCTION %s(%d'
	DB	' args)', 00H				; `string'
CONST	ENDS
;	COMDAT ??_C@_0BI@JIAOIFFJ@FUNCTION?5?$CFs?3?$CFs?$CI?$CFd?5args?$CJ@
CONST	SEGMENT
??_C@_0BI@JIAOIFFJ@FUNCTION?5?$CFs?3?$CFs?$CI?$CFd?5args?$CJ@ DB 'FUNCTIO'
	DB	'N %s:%s(%d args)', 00H			; `string'
CONST	ENDS
;	COMDAT ??_C@_0M@MLPGFJHH@VARIABLE?5?$CFs@
CONST	SEGMENT
??_C@_0M@MLPGFJHH@VARIABLE?5?$CFs@ DB 'VARIABLE %s', 00H ; `string'
CONST	ENDS
;	COMDAT ??_C@_0P@MLBLHJNB@VARIABLE?5?$CFs?3?$CFs@
CONST	SEGMENT
??_C@_0P@MLBLHJNB@VARIABLE?5?$CFs?3?$CFs@ DB 'VARIABLE %s:%s', 00H ; `string'
CONST	ENDS
;	COMDAT ??_C@_05MNKHOCPF@ELEM?5@
CONST	SEGMENT
??_C@_05MNKHOCPF@ELEM?5@ DB 'ELEM ', 00H		; `string'
CONST	ENDS
;	COMDAT ??_C@_03DKEJHHJP@?$CFs?3@
CONST	SEGMENT
??_C@_03DKEJHHJP@?$CFs?3@ DB '%s:', 00H			; `string'
CONST	ENDS
;	COMDAT ??_C@_07KMAJMJAK@?8text?8?5@
CONST	SEGMENT
??_C@_07KMAJMJAK@?8text?8?5@ DB '''text'' ', 00H	; `string'
CONST	ENDS
;	COMDAT ??_C@_0L@BBLKKJMH@?8comment?8?5@
CONST	SEGMENT
??_C@_0L@BBLKKJMH@?8comment?8?5@ DB '''comment'' ', 00H	; `string'
CONST	ENDS
;	COMDAT ??_C@_07IDIJGDJF@?8node?8?5@
CONST	SEGMENT
??_C@_07IDIJGDJF@?8node?8?5@ DB '''node'' ', 00H	; `string'
CONST	ENDS
;	COMDAT ??_C@_07LEJDGAJE@?8name?8?5@
CONST	SEGMENT
??_C@_07LEJDGAJE@?8name?8?5@ DB '''name'' ', 00H	; `string'
CONST	ENDS
;	COMDAT ??_C@_0N@CLKBKNNJ@?8namespace?8?5@
CONST	SEGMENT
??_C@_0N@CLKBKNNJ@?8namespace?8?5@ DB '''namespace'' ', 00H ; `string'
CONST	ENDS
;	COMDAT ??_C@_06COJFFNFM@?8all?8?5@
CONST	SEGMENT
??_C@_06COJFFNFM@?8all?8?5@ DB '''all'' ', 00H		; `string'
CONST	ENDS
;	COMDAT ??_C@_05CCBNMHGJ@?8PI?8?5@
CONST	SEGMENT
??_C@_05CCBNMHGJ@?8PI?8?5@ DB '''PI'' ', 00H		; `string'
CONST	ENDS
;	COMDAT ??_C@_07MIHANB@?8type?8?5@
CONST	SEGMENT
??_C@_07MIHANB@?8type?8?5@ DB '''type'' ', 00H		; `string'
CONST	ENDS
;	COMDAT ??_C@_07MJDJHLDE@?8none?8?5@
CONST	SEGMENT
??_C@_07MJDJHLDE@?8none?8?5@ DB '''none'' ', 00H	; `string'
CONST	ENDS
;	COMDAT ??_C@_08HAEBALG@?5?8self?8?5@
CONST	SEGMENT
??_C@_08HAEBALG@?5?8self?8?5@ DB ' ''self'' ', 00H	; `string'
CONST	ENDS
;	COMDAT ??_C@_0BG@LJHOBDKP@?5?8preceding?9sibling?8?5@
CONST	SEGMENT
??_C@_0BG@LJHOBDKP@?5?8preceding?9sibling?8?5@ DB ' ''preceding-sibling'''
	DB	' ', 00H					; `string'
CONST	ENDS
;	COMDAT ??_C@_0O@BNHFEBDE@?5?8preceding?8?5@
CONST	SEGMENT
??_C@_0O@BNHFEBDE@?5?8preceding?8?5@ DB ' ''preceding'' ', 00H ; `string'
CONST	ENDS
;	COMDAT ??_C@_0L@BKJAGPFG@?5?8parent?8?5@
CONST	SEGMENT
??_C@_0L@BKJAGPFG@?5?8parent?8?5@ DB ' ''parent'' ', 00H ; `string'
CONST	ENDS
;	COMDAT ??_C@_0O@DIAKOKEE@?5?8namespace?8?5@
CONST	SEGMENT
??_C@_0O@DIAKOKEE@?5?8namespace?8?5@ DB ' ''namespace'' ', 00H ; `string'
CONST	ENDS
;	COMDAT ??_C@_0BH@KMMFLMJK@?5?8following?9siblings?8?5@
CONST	SEGMENT
??_C@_0BH@KMMFLMJK@?5?8following?9siblings?8?5@ DB ' ''following-siblings'
	DB	''' ', 00H					; `string'
CONST	ENDS
;	COMDAT ??_C@_0O@HPGIPOGE@?5?8following?8?5@
CONST	SEGMENT
??_C@_0O@HPGIPOGE@?5?8following?8?5@ DB ' ''following'' ', 00H ; `string'
CONST	ENDS
;	COMDAT ??_C@_0BH@OLEEPEHL@?5?8descendant?9or?9self?8?5@
CONST	SEGMENT
??_C@_0BH@OLEEPEHL@?5?8descendant?9or?9self?8?5@ DB ' ''descendant-or-sel'
	DB	'f'' ', 00H					; `string'
CONST	ENDS
;	COMDAT ??_C@_0P@COPGHIIE@?5?8descendant?8?5@
CONST	SEGMENT
??_C@_0P@COPGHIIE@?5?8descendant?8?5@ DB ' ''descendant'' ', 00H ; `string'
CONST	ENDS
;	COMDAT ??_C@_09DMHOAOKE@?5?8child?8?5@
CONST	SEGMENT
??_C@_09DMHOAOKE@?5?8child?8?5@ DB ' ''child'' ', 00H	; `string'
CONST	ENDS
;	COMDAT ??_C@_0P@IMBNHOPA@?5?8attributes?8?5@
CONST	SEGMENT
??_C@_0P@IMBNHOPA@?5?8attributes?8?5@ DB ' ''attributes'' ', 00H ; `string'
CONST	ENDS
;	COMDAT ??_C@_0BG@IJDLJMNP@?5?8ancestors?9or?9self?8?5@
CONST	SEGMENT
??_C@_0BG@IJDLJMNP@?5?8ancestors?9or?9self?8?5@ DB ' ''ancestors-or-self'''
	DB	' ', 00H					; `string'
CONST	ENDS
;	COMDAT ??_C@_0O@CBBIECFC@?5?8ancestors?8?5@
CONST	SEGMENT
??_C@_0O@CBBIECFC@?5?8ancestors?8?5@ DB ' ''ancestors'' ', 00H ; `string'
CONST	ENDS
;	COMDAT ??_C@_08BCOGFDOM@COLLECT?5@
CONST	SEGMENT
??_C@_08BCOGFDOM@COLLECT?5@ DB 'COLLECT ', 00H		; `string'
CONST	ENDS
;	COMDAT ??_C@_04DEPGJHBM@SORT@
CONST	SEGMENT
??_C@_04DEPGJHBM@SORT@ DB 'SORT', 00H			; `string'
CONST	ENDS
;	COMDAT ??_C@_04OHPEDIPN@NODE@
CONST	SEGMENT
??_C@_04OHPEDIPN@NODE@ DB 'NODE', 00H			; `string'
CONST	ENDS
;	COMDAT ??_C@_04BNGIIOIP@ROOT@
CONST	SEGMENT
??_C@_04BNGIIOIP@ROOT@ DB 'ROOT', 00H			; `string'
CONST	ENDS
;	COMDAT ??_C@_05GJNJOPB@UNION@
CONST	SEGMENT
??_C@_05GJNJOPB@UNION@ DB 'UNION', 00H			; `string'
CONST	ENDS
;	COMDAT ??_C@_08HFMOIFCL@MULT?5mod@
CONST	SEGMENT
??_C@_08HFMOIFCL@MULT?5mod@ DB 'MULT mod', 00H		; `string'
CONST	ENDS
;	COMDAT ??_C@_08HELPMGMA@MULT?5div@
CONST	SEGMENT
??_C@_08HELPMGMA@MULT?5div@ DB 'MULT div', 00H		; `string'
CONST	ENDS
;	COMDAT ??_C@_06JFEGAKAJ@MULT?5?$CK@
CONST	SEGMENT
??_C@_06JFEGAKAJ@MULT?5?$CK@ DB 'MULT *', 00H		; `string'
CONST	ENDS
;	COMDAT ??_C@_0P@FAIBJAJD@PLUS?5unary?5?9?5?9@
CONST	SEGMENT
??_C@_0P@FAIBJAJD@PLUS?5unary?5?9?5?9@ DB 'PLUS unary - -', 00H ; `string'
CONST	ENDS
;	COMDAT ??_C@_0N@GEIAIOPG@PLUS?5unary?5?9@
CONST	SEGMENT
??_C@_0N@GEIAIOPG@PLUS?5unary?5?9@ DB 'PLUS unary -', 00H ; `string'
CONST	ENDS
;	COMDAT ??_C@_06FOKKFIFP@PLUS?5?$CL@
CONST	SEGMENT
??_C@_06FOKKFIFP@PLUS?5?$CL@ DB 'PLUS +', 00H		; `string'
CONST	ENDS
;	COMDAT ??_C@_06IPAPPNJ@PLUS?5?9@
CONST	SEGMENT
??_C@_06IPAPPNJ@PLUS?5?9@ DB 'PLUS -', 00H		; `string'
CONST	ENDS
;	COMDAT ??_C@_01NEMOKFLO@?$DN@
CONST	SEGMENT
??_C@_01NEMOKFLO@?$DN@ DB '=', 00H			; `string'
CONST	ENDS
;	COMDAT ??_C@_05NFBHOIFJ@CMP?5?$DO@
CONST	SEGMENT
??_C@_05NFBHOIFJ@CMP?5?$DO@ DB 'CMP >', 00H		; `string'
CONST	ENDS
;	COMDAT ??_C@_05OHCBIKNL@CMP?5?$DM@
CONST	SEGMENT
??_C@_05OHCBIKNL@CMP?5?$DM@ DB 'CMP <', 00H		; `string'
CONST	ENDS
;	COMDAT ??_C@_08MPMADPIH@EQUAL?5?$CB?$DN@
CONST	SEGMENT
??_C@_08MPMADPIH@EQUAL?5?$CB?$DN@ DB 'EQUAL !=', 00H	; `string'
CONST	ENDS
;	COMDAT ??_C@_07MELFAPHK@EQUAL?5?$DN@
CONST	SEGMENT
??_C@_07MELFAPHK@EQUAL?5?$DN@ DB 'EQUAL =', 00H		; `string'
CONST	ENDS
;	COMDAT ??_C@_02PDPFNDMG@OR@
CONST	SEGMENT
??_C@_02PDPFNDMG@OR@ DB 'OR', 00H			; `string'
CONST	ENDS
;	COMDAT ??_C@_03BDACDFHA@AND@
CONST	SEGMENT
??_C@_03BDACDFHA@AND@ DB 'AND', 00H			; `string'
CONST	ENDS
;	COMDAT ??_C@_03JMGAKCCH@END@
CONST	SEGMENT
??_C@_03JMGAKCCH@END@ DB 'END', 00H			; `string'
CONST	ENDS
;	COMDAT ??_C@_0O@IEEDPMEL@Step?5is?5NULL?6@
CONST	SEGMENT
??_C@_0O@IEEDPMEL@Step?5is?5NULL?6@ DB 'Step is NULL', 0aH, 00H ; `string'
CONST	ENDS
;	COMDAT ??_C@_0BI@JJDBNCDG@Object?5is?5user?5defined?6@
CONST	SEGMENT
??_C@_0BI@JJDBNCDG@Object?5is?5user?5defined?6@ DB 'Object is user define'
	DB	'd', 0aH, 00H				; `string'
CONST	ENDS
;	COMDAT ??_C@_0BL@DOOMBINH@Object?5is?5a?5Location?5Set?3?6@
CONST	SEGMENT
??_C@_0BL@DOOMBINH@Object?5is?5a?5Location?5Set?3?6@ DB 'Object is a Loca'
	DB	'tion Set:', 0aH, 00H			; `string'
CONST	ENDS
;	COMDAT ??_C@_03EMNLBAKJ@To?5@
CONST	SEGMENT
??_C@_03EMNLBAKJ@To?5@ DB 'To ', 00H			; `string'
CONST	ENDS
;	COMDAT ??_C@_05KCOAJPAG@From?5@
CONST	SEGMENT
??_C@_05KCOAJPAG@From?5@ DB 'From ', 00H		; `string'
CONST	ENDS
;	COMDAT ??_C@_0BF@JIJMPGFP@Object?5is?5a?5range?5?3?6@
CONST	SEGMENT
??_C@_0BF@JIJMPGFP@Object?5is?5a?5range?5?3?6@ DB 'Object is a range :', 0aH
	DB	00H						; `string'
CONST	ENDS
;	COMDAT ??_C@_05GHBGFBPP@node?6@
CONST	SEGMENT
??_C@_05GHBGFBPP@node?6@ DB 'node', 0aH, 00H		; `string'
CONST	ENDS
;	COMDAT ??_C@_0N@IDICPBLK@index?5?$CFd?5in?5@
CONST	SEGMENT
??_C@_0N@IDICPBLK@index?5?$CFd?5in?5@ DB 'index %d in ', 00H ; `string'
CONST	ENDS
;	COMDAT ??_C@_0BP@BGPHFANM@Object?5is?5a?5collapsed?5range?5?3?6@
CONST	SEGMENT
??_C@_0BP@BGPHFANM@Object?5is?5a?5collapsed?5range?5?3?6@ DB 'Object is a'
	DB	' collapsed range :', 0aH, 00H		; `string'
CONST	ENDS
;	COMDAT ??_C@_0CF@IDHPHOMH@Object?5is?5a?5point?5?3?5index?5?$CFd?5in@
CONST	SEGMENT
??_C@_0CF@IDHPHOMH@Object?5is?5a?5point?5?3?5index?5?$CFd?5in@ DB 'Object'
	DB	' is a point : index %d in node', 00H	; `string'
CONST	ENDS
;	COMDAT ??_C@_01EEMJAFIK@?6@
CONST	SEGMENT
??_C@_01EEMJAFIK@?6@ DB 0aH, 00H			; `string'
CONST	ENDS
;	COMDAT ??_C@_0BG@IHKNOBPJ@Object?5is?5a?5string?5?3?5@
CONST	SEGMENT
??_C@_0BG@IHKNOBPJ@Object?5is?5a?5string?5?3?5@ DB 'Object is a string : '
	DB	00H						; `string'
CONST	ENDS
;	COMDAT ??_C@_0BK@DKICMGNF@Object?5is?5a?5number?5?3?5?$CF0g?6@
CONST	SEGMENT
??_C@_0BK@DKICMGNF@Object?5is?5a?5number?5?3?5?$CF0g?6@ DB 'Object is a n'
	DB	'umber : %0g', 0aH, 00H			; `string'
CONST	ENDS
;	COMDAT ??_C@_0BI@KDLCNKPI@Object?5is?5a?5number?5?3?50?6@
CONST	SEGMENT
??_C@_0BI@KDLCNKPI@Object?5is?5a?5number?5?3?50?6@ DB 'Object is a number'
	DB	' : 0', 0aH, 00H				; `string'
CONST	ENDS
;	COMDAT ??_C@_0BK@JAENJFCB@Object?5is?5a?5number?5?3?5NaN?6@
CONST	SEGMENT
??_C@_0BK@JAENJFCB@Object?5is?5a?5number?5?3?5NaN?6@ DB 'Object is a numb'
	DB	'er : NaN', 0aH, 00H				; `string'
CONST	ENDS
;	COMDAT ??_C@_0CA@CMBCDMBH@Object?5is?5a?5number?5?3?5?9Infinity?6@
CONST	SEGMENT
??_C@_0CA@CMBCDMBH@Object?5is?5a?5number?5?3?5?9Infinity?6@ DB 'Object is'
	DB	' a number : -Infinity', 0aH, 00H		; `string'
CONST	ENDS
;	COMDAT ??_C@_0BP@DBNKIPBA@Object?5is?5a?5number?5?3?5Infinity?6@
CONST	SEGMENT
??_C@_0BP@DBNKIPBA@Object?5is?5a?5number?5?3?5Infinity?6@ DB 'Object is a'
	DB	' number : Infinity', 0aH, 00H		; `string'
CONST	ENDS
;	COMDAT ??_C@_06NIOGPBNO@false?6@
CONST	SEGMENT
??_C@_06NIOGPBNO@false?6@ DB 'false', 0aH, 00H		; `string'
CONST	ENDS
;	COMDAT ??_C@_05LFIOBDML@true?6@
CONST	SEGMENT
??_C@_05LFIOBDML@true?6@ DB 'true', 0aH, 00H		; `string'
CONST	ENDS
;	COMDAT ??_C@_0BH@GPCPEGOI@Object?5is?5a?5Boolean?5?3?5@
CONST	SEGMENT
??_C@_0BH@GPCPEGOI@Object?5is?5a?5Boolean?5?3?5@ DB 'Object is a Boolean '
	DB	': ', 00H					; `string'
CONST	ENDS
;	COMDAT ??_C@_0CA@NNPHAPO@Object?5is?5an?5XSLT?5value?5tree?5?3?6@
CONST	SEGMENT
??_C@_0CA@NNPHAPO@Object?5is?5an?5XSLT?5value?5tree?5?3?6@ DB 'Object is '
	DB	'an XSLT value tree :', 0aH, 00H		; `string'
CONST	ENDS
;	COMDAT ??_C@_0BI@NCNINNMM@Object?5is?5a?5Node?5Set?5?3?6@
CONST	SEGMENT
??_C@_0BI@NCNINNMM@Object?5is?5a?5Node?5Set?5?3?6@ DB 'Object is a Node S'
	DB	'et :', 0aH, 00H				; `string'
CONST	ENDS
;	COMDAT ??_C@_0BJ@EGAONLPM@Object?5is?5uninitialized?6@
CONST	SEGMENT
??_C@_0BJ@EGAONLPM@Object?5is?5uninitialized?6@ DB 'Object is uninitializ'
	DB	'ed', 0aH, 00H				; `string'
CONST	ENDS
;	COMDAT ??_C@_0BI@CIBIAOEE@Object?5is?5empty?5?$CINULL?$CJ?6@
CONST	SEGMENT
??_C@_0BI@CIBIAOEE@Object?5is?5empty?5?$CINULL?$CJ?6@ DB 'Object is empty'
	DB	' (NULL)', 0aH, 00H				; `string'
CONST	ENDS
;	COMDAT ??_C@_05GJKEPAIO@?$CFd?5?3?5@
CONST	SEGMENT
??_C@_05GJKEPAIO@?$CFd?5?3?5@ DB '%d : ', 00H		; `string'
CONST	ENDS
;	COMDAT ??_C@_0BH@OMGEHPOG@LocationSet?5is?5NULL?5?$CB?6@
CONST	SEGMENT
??_C@_0BH@OMGEHPOG@LocationSet?5is?5NULL?5?$CB?6@ DB 'LocationSet is NULL'
	DB	' !', 0aH, 00H				; `string'
CONST	ENDS
;	COMDAT ??_C@_0BG@ODIPEGMA@Value?5Tree?5is?5NULL?5?$CB?6@
CONST	SEGMENT
??_C@_0BG@ODIPEGMA@Value?5Tree?5is?5NULL?5?$CB?6@ DB 'Value Tree is NULL '
	DB	'!', 0aH, 00H				; `string'
CONST	ENDS
;	COMDAT ??_C@_02DPKJAMEF@?$CFd@
CONST	SEGMENT
??_C@_02DPKJAMEF@?$CFd@ DB '%d', 00H			; `string'
CONST	ENDS
;	COMDAT ??_C@_0BI@CGJHGOLK@Set?5contains?5?$CFd?5nodes?3?6@
CONST	SEGMENT
??_C@_0BI@CGJHGOLK@Set?5contains?5?$CFd?5nodes?3?6@ DB 'Set contains %d n'
	DB	'odes:', 0aH, 00H				; `string'
CONST	ENDS
;	COMDAT ??_C@_0BD@CEACDENF@NodeSet?5is?5NULL?5?$CB?6@
CONST	SEGMENT
??_C@_0BD@CEACDENF@NodeSet?5is?5NULL?5?$CB?6@ DB 'NodeSet is NULL !', 0aH
	DB	00H						; `string'
CONST	ENDS
;	COMDAT ??_C@_03LHHHGGIK@?5?1?6@
CONST	SEGMENT
??_C@_03LHHHGGIK@?5?1?6@ DB ' /', 0aH, 00H		; `string'
CONST	ENDS
;	COMDAT ??_C@_0BA@OKLFJGHE@Node?5is?5NULL?5?$CB?6@
CONST	SEGMENT
??_C@_0BA@OKLFJGHE@Node?5is?5NULL?5?$CB?6@ DB 'Node is NULL !', 0aH, 00H ; `string'
CONST	ENDS
;	COMDAT ??_C@_0N@GHHFFDFC@adding?5step?6@
CONST	SEGMENT
??_C@_0N@GHHFFDFC@adding?5step?6@ DB 'adding step', 0aH, 00H ; `string'
CONST	ENDS
;	COMDAT ??_C@_0BC@EIFELMJ@allocating?5steps?6@
CONST	SEGMENT
??_C@_0BC@EIFELMJ@allocating?5steps?6@ DB 'allocating steps', 0aH, 00H ; `string'
CONST	ENDS
;	COMDAT ??_C@_0BG@OMFEJMIL@allocating?5component?6@
CONST	SEGMENT
??_C@_0BG@OMFEJMIL@allocating?5component?6@ DB 'allocating component', 0aH
	DB	00H						; `string'
CONST	ENDS
;	COMDAT ??_C@_0CL@LEBBNDKO@xmlPointerListAddSize?3?5re?9alloc@
CONST	SEGMENT
??_C@_0CL@LEBBNDKO@xmlPointerListAddSize?3?5re?9alloc@ DB 'xmlPointerList'
	DB	'AddSize: re-allocating item', 0aH, 00H	; `string'
CONST	ENDS
;	COMDAT ??_C@_0CH@GLHDGMAA@xmlPointerListCreate?3?5allocatin@
CONST	SEGMENT
??_C@_0CH@GLHDGMAA@xmlPointerListCreate?3?5allocatin@ DB 'xmlPointerListC'
	DB	'reate: allocating item', 0aH, 00H		; `string'
CONST	ENDS
;	COMDAT ??_C@_02DKCKIIND@?$CFs@
CONST	SEGMENT
??_C@_02DKCKIIND@?$CFs@ DB '%s', 00H			; `string'
CONST	ENDS
;	COMDAT ??_C@_0BK@GDFDKGPJ@Memory?5allocation?5failed?6@
CONST	SEGMENT
??_C@_0BK@GDFDKGPJ@Memory?5allocation?5failed?6@ DB 'Memory allocation fa'
	DB	'iled', 0aH, 00H				; `string'
CONST	ENDS
;	COMDAT ??_C@_0BP@DJFHNAOK@Memory?5allocation?5failed?5?3?5?$CFs?6@
CONST	SEGMENT
??_C@_0BP@DJFHNAOK@Memory?5allocation?5failed?5?3?5?$CFs?6@ DB 'Memory al'
	DB	'location failed : %s', 0aH, 00H		; `string'
CONST	ENDS
_DATA	SEGMENT
_xmlXPathXMLNamespace DD FLAT:_xmlXPathXMLNamespaceStruct
	ORG $+4
_xmlXPathErrorMessages DD FLAT:??_C@_03KDKBKEMD@Ok?6@
	DD	FLAT:??_C@_0BB@OKMDJLIM@Number?5encoding?6@
	DD	FLAT:??_C@_0BE@HEBMIFHL@Unfinished?5literal?6@
	DD	FLAT:??_C@_0BC@KLADNOLA@Start?5of?5literal?6@
	DD	FLAT:??_C@_0CD@PCDALDFN@Expected?5$?5for?5variable?5referen@
	DD	FLAT:??_C@_0BE@JIMEOEEA@Undefined?5variable?6@
	DD	FLAT:??_C@_0BD@MFLBJOMG@Invalid?5predicate?6@
	DD	FLAT:??_C@_0BE@CGBIHHBE@Invalid?5expression?6@
	DD	FLAT:??_C@_0BN@DKJEIEAC@Missing?5closing?5curly?5brace?6@
	DD	FLAT:??_C@_0BH@FDADKKDC@Unregistered?5function?6@
	DD	FLAT:??_C@_0BB@NCMBGCMG@Invalid?5operand?6@
	DD	FLAT:??_C@_0O@HECJPNOD@Invalid?5type?6@
	DD	FLAT:??_C@_0BN@CGCHLLOB@Invalid?5number?5of?5arguments?6@
	DD	FLAT:??_C@_0BG@JMBOPCAE@Invalid?5context?5size?6@
	DD	FLAT:??_C@_0BK@CKPBPDPH@Invalid?5context?5position?6@
	DD	FLAT:??_C@_0BJ@OGCHFJAK@Memory?5allocation?5error?6@
	DD	FLAT:??_C@_0O@JJFGCDGG@Syntax?5error?6@
	DD	FLAT:??_C@_0BA@IPNFPAOO@Resource?5error?6@
	DD	FLAT:??_C@_0BE@ILOLKABH@Sub?5resource?5error?6@
	DD	FLAT:??_C@_0BM@FJPIKKBA@Undefined?5namespace?5prefix?6@
	DD	FLAT:??_C@_0BA@ONCPONLN@Encoding?5error?6@
	DD	FLAT:??_C@_0BH@FAHNGONI@Char?5out?5of?5XML?5range?6@
	DD	FLAT:??_C@_0BP@HNOPDOE@Invalid?5or?5incomplete?5context?6@
	DD	FLAT:??_C@_0BD@MEAKLJLB@Stack?5usage?5error?6@
	DD	FLAT:??_C@_0BE@EKOADJON@Forbidden?5variable?6@
	DD	FLAT:??_C@_0BF@NKLLLIIE@?$DP?$DP?5Unknown?5error?5?$DP?$DP?6@
_DATA	ENDS
;	COMDAT ??_C@_0EA@JENGBCEE@Error?5allocating?5temporary?5stor@
CONST	SEGMENT
??_C@_0EA@JENGBCEE@Error?5allocating?5temporary?5stor@ DB 'Error allocati'
	DB	'ng temporary storage for tim sort: need %lu bytes', 00H ; `string'
CONST	ENDS
; Function compile flags: /Odt
;	COMDAT __JustMyCode_Default
_TEXT	SEGMENT
__JustMyCode_Default PROC				; COMDAT
	push	ebp
	mov	ebp, esp
	pop	ebp
	ret	0
__JustMyCode_Default ENDP
_TEXT	ENDS
; Function compile flags: /Ogtp
; File c:\users\dag\documents\_clients\codeproject authors group\windows on arm\libxml2\libxml2-2.9.9\xpath.c
;	COMDAT _xmlXPathEscapeUriFunction
_TEXT	SEGMENT
_escape_reserved$1$ = -12				; size = 4
_str$1$ = -8						; size = 4
_escape$ = -4						; size = 4
_ctxt$ = 8						; size = 4
_nargs$ = 12						; size = 4
_xmlXPathEscapeUriFunction PROC				; COMDAT

; 15001: xmlXPathEscapeUriFunction(xmlXPathParserContextPtr ctxt, int nargs) {

	push	ebp
	mov	ebp, esp
	sub	esp, 12					; 0000000cH
	mov	ecx, OFFSET __9DBA2A81_xpath@c
	push	edi
	call	@__CheckForDebuggerJustMyCode@4
	mov	edi, DWORD PTR _ctxt$[ebp]
	test	edi, edi
	je	$LN1@xmlXPathEs

; 15002:     xmlXPathObjectPtr str;
; 15003:     int escape_reserved;
; 15004:     xmlBufPtr target;
; 15005:     xmlChar *cptr;
; 15006:     xmlChar escape[4];
; 15007: 
; 15008:     CHECK_ARITY(2);

	cmp	DWORD PTR _nargs$[ebp], 2
	je	SHORT $LN6@xmlXPathEs
	push	12					; 0000000cH
	push	edi
	call	_xmlXPathErr
	add	esp, 8
	pop	edi

; 15059: }

	mov	esp, ebp
	pop	ebp
	ret	0
$LN6@xmlXPathEs:

; 15002:     xmlXPathObjectPtr str;
; 15003:     int escape_reserved;
; 15004:     xmlBufPtr target;
; 15005:     xmlChar *cptr;
; 15006:     xmlChar escape[4];
; 15007: 
; 15008:     CHECK_ARITY(2);

	mov	eax, DWORD PTR [edi+44]
	add	eax, 2
	cmp	DWORD PTR [edi+20], eax
	jge	SHORT $LN7@xmlXPathEs
	push	23					; 00000017H
	push	edi
	call	_xmlXPathErr
	add	esp, 8
	pop	edi

; 15059: }

	mov	esp, ebp
	pop	ebp
	ret	0
$LN7@xmlXPathEs:

; 15009: 
; 15010:     escape_reserved = xmlXPathPopBoolean(ctxt);

	push	edi
	call	_xmlXPathPopBoolean

; 15011: 
; 15012:     CAST_TO_STRING;

	mov	ecx, DWORD PTR [edi+16]
	add	esp, 4
	mov	DWORD PTR _escape_reserved$1$[ebp], eax
	test	ecx, ecx
	je	SHORT $LN8@xmlXPathEs
	cmp	DWORD PTR [ecx], 4
	je	SHORT $LN8@xmlXPathEs
	push	1
	push	edi
	call	_xmlXPathStringFunction
	add	esp, 8
$LN8@xmlXPathEs:

; 15013:     str = valuePop(ctxt);

	push	ebx
	push	edi
	call	_valuePop
	add	esp, 4
	mov	DWORD PTR _str$1$[ebp], eax

; 15014: 
; 15015:     target = xmlBufCreate();

	call	_xmlBufCreate
	mov	ebx, eax

; 15016: 
; 15017:     escape[0] = '%';

	mov	BYTE PTR _escape$[ebp], 37		; 00000025H

; 15018:     escape[3] = 0;

	mov	BYTE PTR _escape$[ebp+3], 0

; 15019: 
; 15020:     if (target) {

	test	ebx, ebx
	je	$LN3@xmlXPathEs

; 15021: 	for (cptr = str->stringval; *cptr; cptr++) {

	push	esi
	mov	esi, DWORD PTR _str$1$[ebp]
	mov	esi, DWORD PTR [esi+24]
	mov	cl, BYTE PTR [esi]
	test	cl, cl
	je	$LN33@xmlXPathEs
	mov	edi, DWORD PTR _escape_reserved$1$[ebp]
$LL4@xmlXPathEs:

; 15022: 	    if ((*cptr >= 'A' && *cptr <= 'Z') ||
; 15023: 		(*cptr >= 'a' && *cptr <= 'z') ||
; 15024: 		(*cptr >= '0' && *cptr <= '9') ||
; 15025: 		*cptr == '-' || *cptr == '_' || *cptr == '.' ||
; 15026: 		*cptr == '!' || *cptr == '~' || *cptr == '*' ||
; 15027: 		*cptr == '\''|| *cptr == '(' || *cptr == ')' ||
; 15028: 		(*cptr == '%' &&
; 15029: 		 ((cptr[1] >= 'A' && cptr[1] <= 'F') ||
; 15030: 		  (cptr[1] >= 'a' && cptr[1] <= 'f') ||
; 15031: 		  (cptr[1] >= '0' && cptr[1] <= '9')) &&
; 15032: 		 ((cptr[2] >= 'A' && cptr[2] <= 'F') ||
; 15033: 		  (cptr[2] >= 'a' && cptr[2] <= 'f') ||
; 15034: 		  (cptr[2] >= '0' && cptr[2] <= '9'))) ||

	cmp	cl, 65					; 00000041H
	jb	SHORT $LN13@xmlXPathEs
	cmp	cl, 90					; 0000005aH
	jbe	$LN23@xmlXPathEs
$LN13@xmlXPathEs:
	cmp	cl, 97					; 00000061H
	jb	SHORT $LN14@xmlXPathEs
	cmp	cl, 122					; 0000007aH
	jbe	$LN23@xmlXPathEs
$LN14@xmlXPathEs:
	cmp	cl, 48					; 00000030H
	jb	SHORT $LN15@xmlXPathEs
	cmp	cl, 57					; 00000039H
	jbe	$LN23@xmlXPathEs
$LN15@xmlXPathEs:
	cmp	cl, 45					; 0000002dH
	je	$LN23@xmlXPathEs
	cmp	cl, 95					; 0000005fH
	je	$LN23@xmlXPathEs
	cmp	cl, 46					; 0000002eH
	je	$LN23@xmlXPathEs
	cmp	cl, 33					; 00000021H
	je	$LN23@xmlXPathEs
	cmp	cl, 126					; 0000007eH
	je	$LN23@xmlXPathEs
	cmp	cl, 42					; 0000002aH
	je	$LN23@xmlXPathEs
	cmp	cl, 39					; 00000027H
	je	$LN23@xmlXPathEs
	cmp	cl, 40					; 00000028H
	je	$LN23@xmlXPathEs
	cmp	cl, 41					; 00000029H
	je	$LN23@xmlXPathEs
	cmp	cl, 37					; 00000025H
	jne	SHORT $LN22@xmlXPathEs
	mov	al, BYTE PTR [esi+1]
	cmp	al, 65					; 00000041H
	jb	SHORT $LN18@xmlXPathEs
	cmp	al, 70					; 00000046H
	jbe	SHORT $LN17@xmlXPathEs
$LN18@xmlXPathEs:
	cmp	al, 97					; 00000061H
	jb	SHORT $LN19@xmlXPathEs
	cmp	al, 102					; 00000066H
	jbe	SHORT $LN17@xmlXPathEs
$LN19@xmlXPathEs:
	sub	al, 48					; 00000030H
	cmp	al, 9
	ja	SHORT $LN22@xmlXPathEs
$LN17@xmlXPathEs:
	mov	al, BYTE PTR [esi+2]
	cmp	al, 65					; 00000041H
	jb	SHORT $LN20@xmlXPathEs
	cmp	al, 70					; 00000046H
	jbe	$LN23@xmlXPathEs
$LN20@xmlXPathEs:
	cmp	al, 97					; 00000061H
	jb	SHORT $LN21@xmlXPathEs
	cmp	al, 102					; 00000066H
	jbe	SHORT $LN23@xmlXPathEs
$LN21@xmlXPathEs:
	cmp	al, 48					; 00000030H
	jb	SHORT $LN22@xmlXPathEs
	cmp	al, 57					; 00000039H
	jbe	SHORT $LN23@xmlXPathEs
$LN22@xmlXPathEs:
	test	edi, edi
	jne	SHORT $LN10@xmlXPathEs
	cmp	cl, 59					; 0000003bH
	je	SHORT $LN23@xmlXPathEs
	cmp	cl, 47					; 0000002fH
	je	SHORT $LN23@xmlXPathEs
	cmp	cl, 63					; 0000003fH
	je	SHORT $LN23@xmlXPathEs
	cmp	cl, 58					; 0000003aH
	je	SHORT $LN23@xmlXPathEs
	cmp	cl, 64					; 00000040H
	je	SHORT $LN23@xmlXPathEs
	cmp	cl, 38					; 00000026H
	je	SHORT $LN23@xmlXPathEs
	cmp	cl, 61					; 0000003dH
	je	SHORT $LN23@xmlXPathEs
	cmp	cl, 43					; 0000002bH
	je	SHORT $LN23@xmlXPathEs
	cmp	cl, 36					; 00000024H
	je	SHORT $LN23@xmlXPathEs
	cmp	cl, 44					; 0000002cH
	je	SHORT $LN23@xmlXPathEs
$LN10@xmlXPathEs:

; 15041: 	    } else {
; 15042: 		if ((*cptr >> 4) < 10)

	shr	cl, 4
	cmp	cl, 10					; 0000000aH
	jae	SHORT $LN24@xmlXPathEs

; 15043: 		    escape[1] = '0' + (*cptr >> 4);

	add	cl, 48					; 00000030H
	jmp	SHORT $LN34@xmlXPathEs
$LN24@xmlXPathEs:

; 15044: 		else
; 15045: 		    escape[1] = 'A' - 10 + (*cptr >> 4);

	add	cl, 55					; 00000037H
$LN34@xmlXPathEs:

; 15046: 		if ((*cptr & 0xF) < 10)

	mov	BYTE PTR _escape$[ebp+1], cl
	mov	al, BYTE PTR [esi]
	and	al, 15					; 0000000fH
	cmp	al, 10					; 0000000aH
	jae	SHORT $LN26@xmlXPathEs

; 15047: 		    escape[2] = '0' + (*cptr & 0xF);

	add	al, 48					; 00000030H

; 15050: 
; 15051: 		xmlBufAdd(target, &escape[0], 3);

	mov	ecx, 3
	mov	BYTE PTR _escape$[ebp+2], al
	lea	eax, DWORD PTR _escape$[ebp]
	jmp	SHORT $LN2@xmlXPathEs
$LN26@xmlXPathEs:

; 15048: 		else
; 15049: 		    escape[2] = 'A' - 10 + (*cptr & 0xF);

	add	al, 55					; 00000037H

; 15050: 
; 15051: 		xmlBufAdd(target, &escape[0], 3);

	mov	ecx, 3
	mov	BYTE PTR _escape$[ebp+2], al
	lea	eax, DWORD PTR _escape$[ebp]
	jmp	SHORT $LN2@xmlXPathEs
$LN23@xmlXPathEs:

; 15035: 		(!escape_reserved &&
; 15036: 		 (*cptr == ';' || *cptr == '/' || *cptr == '?' ||
; 15037: 		  *cptr == ':' || *cptr == '@' || *cptr == '&' ||
; 15038: 		  *cptr == '=' || *cptr == '+' || *cptr == '$' ||
; 15039: 		  *cptr == ','))) {
; 15040: 		xmlBufAdd(target, cptr, 1);

	mov	eax, esi
	mov	ecx, 1
$LN2@xmlXPathEs:

; 15021: 	for (cptr = str->stringval; *cptr; cptr++) {

	push	ecx
	push	eax
	push	ebx
	call	_xmlBufAdd
	mov	cl, BYTE PTR [esi+1]
	inc	esi
	add	esp, 12					; 0000000cH
	test	cl, cl
	jne	$LL4@xmlXPathEs
	mov	edi, DWORD PTR _ctxt$[ebp]
$LN33@xmlXPathEs:
	pop	esi
$LN3@xmlXPathEs:

; 15052: 	    }
; 15053: 	}
; 15054:     }
; 15055:     valuePush(ctxt, xmlXPathCacheNewString(ctxt->context,

	push	ebx
	call	_xmlBufContent
	push	eax
	push	DWORD PTR [edi+12]
	call	_xmlXPathCacheNewString
	push	eax
	push	edi
	call	_valuePush

; 15056: 	xmlBufContent(target)));
; 15057:     xmlBufFree(target);

	push	ebx
	call	_xmlBufFree

; 15058:     xmlXPathReleaseObject(ctxt->context, str);

	push	DWORD PTR _str$1$[ebp]
	push	DWORD PTR [edi+12]
	call	_xmlXPathReleaseObject
	add	esp, 32					; 00000020H
	pop	ebx
$LN1@xmlXPathEs:
	pop	edi

; 15059: }

	mov	esp, ebp
	pop	ebp
	ret	0
_xmlXPathEscapeUriFunction ENDP
_TEXT	ENDS
; Function compile flags: /Ogtp
; File c:\users\dag\documents\_clients\codeproject authors group\windows on arm\libxml2\libxml2-2.9.9\xpath.c
;	COMDAT _xmlXPathCompiledEvalInternal
_TEXT	SEGMENT
_res$1$ = -8						; size = 4
_resObj$1$ = -4						; size = 4
_comp$ = 8						; size = 4
_ctxt$ = 12						; size = 4
_resObjPtr$ = 16					; size = 4
_toBool$ = 20						; size = 4
_xmlXPathCompiledEvalInternal PROC			; COMDAT

; 14712: {

	push	ebp
	mov	ebp, esp
	sub	esp, 8
	mov	ecx, OFFSET __9DBA2A81_xpath@c
	push	esi
	call	@__CheckForDebuggerJustMyCode@4
	mov	esi, DWORD PTR _ctxt$[ebp]
	test	esi, esi
	jne	SHORT $LN2@xmlXPathCo

; 14713:     xmlXPathParserContextPtr pctxt;
; 14714:     xmlXPathObjectPtr resObj;
; 14715: #ifndef LIBXML_THREAD_ENABLED
; 14716:     static int reentance = 0;
; 14717: #endif
; 14718:     int res;
; 14719: 
; 14720:     CHECK_CTXT_NEG(ctxt)

	push	OFFSET ??_C@_0BG@PBKLCIKP@NULL?5context?5pointer?6@
	push	esi
	push	esi
	push	esi
	push	esi
	push	esi
	push	14720					; 00003980H
	push	OFFSET ??_C@_0GH@HIGHEHKE@c?3?2users?2dag?2documents?2_clients@
	push	3
	push	1
	push	12					; 0000000cH
	push	esi
	push	esi
	push	esi
	push	esi
	push	esi
	call	___xmlRaiseError
	add	esp, 64					; 00000040H
	or	eax, -1
	pop	esi

; 14769: }

	mov	esp, ebp
	pop	ebp
	ret	0
$LN2@xmlXPathCo:
	push	edi

; 14721: 
; 14722:     if (comp == NULL)

	mov	edi, DWORD PTR _comp$[ebp]
	test	edi, edi
	jne	SHORT $LN3@xmlXPathCo

; 14723: 	return(-1);

	pop	edi
	or	eax, -1
	pop	esi

; 14769: }

	mov	esp, ebp
	pop	ebp
	ret	0
$LN3@xmlXPathCo:

; 499  :     xmlXPathNAN = NAN;

	movsd	xmm0, QWORD PTR __real@fff8000000000000
	movsd	QWORD PTR _xmlXPathNAN, xmm0

; 500  :     xmlXPathPINF = INFINITY;

	movsd	xmm0, QWORD PTR __real@7ff0000000000000
	movsd	QWORD PTR _xmlXPathPINF, xmm0

; 501  :     xmlXPathNINF = -INFINITY;

	movsd	xmm0, QWORD PTR __real@fff0000000000000
	push	ebx

; 6273 :     ret = (xmlXPathParserContextPtr) xmlMalloc(sizeof(xmlXPathParserContext));

	push	48					; 00000030H

; 501  :     xmlXPathNINF = -INFINITY;

	movsd	QWORD PTR _xmlXPathNINF, xmm0

; 6273 :     ret = (xmlXPathParserContextPtr) xmlMalloc(sizeof(xmlXPathParserContext));

	call	DWORD PTR _xmlMalloc
	mov	ebx, eax
	add	esp, 4

; 6274 :     if (ret == NULL) {

	test	ebx, ebx
	jne	SHORT $LN16@xmlXPathCo

; 6275 :         xmlXPathErrMemory(ctxt, "creating evaluation context\n");

	push	OFFSET ??_C@_0BN@DLELJOPA@creating?5evaluation?5context?6@
	push	esi
	call	_xmlXPathErrMemory
	add	esp, 8

; 6276 : 	return(NULL);

	jmp	SHORT $LN15@xmlXPathCo
$LN16@xmlXPathCo:

; 6277 :     }
; 6278 :     memset(ret, 0 , (size_t) sizeof(xmlXPathParserContext));

	push	48					; 00000030H
	push	0
	push	ebx
	call	_memset

; 6279 : 
; 6280 :     /* Allocate the value stack */
; 6281 :     ret->valueTab = (xmlXPathObjectPtr *)

	push	40					; 00000028H
	call	DWORD PTR _xmlMalloc
	add	esp, 16					; 00000010H
	mov	DWORD PTR [ebx+28], eax

; 6282 :                      xmlMalloc(10 * sizeof(xmlXPathObjectPtr));
; 6283 :     if (ret->valueTab == NULL) {

	test	eax, eax
	jne	SHORT $LN17@xmlXPathCo

; 6284 : 	xmlFree(ret);

	push	ebx
	call	DWORD PTR _xmlFree

; 6285 : 	xmlXPathErrMemory(ctxt, "creating evaluation context\n");

	push	OFFSET ??_C@_0BN@DLELJOPA@creating?5evaluation?5context?6@
	push	esi
	call	_xmlXPathErrMemory
	add	esp, 12					; 0000000cH

; 6286 : 	return(NULL);

	xor	ebx, ebx
	jmp	SHORT $LN15@xmlXPathCo
$LN17@xmlXPathCo:

; 6287 :     }
; 6288 :     ret->valueNr = 0;

	mov	DWORD PTR [ebx+20], 0

; 6289 :     ret->valueMax = 10;

	mov	DWORD PTR [ebx+24], 10			; 0000000aH

; 6290 :     ret->value = NULL;

	mov	DWORD PTR [ebx+16], 0

; 6291 :     ret->valueFrame = 0;

	mov	DWORD PTR [ebx+44], 0

; 6292 : 
; 6293 :     ret->context = ctxt;

	mov	DWORD PTR [ebx+12], esi

; 6294 :     ret->comp = comp;

	mov	DWORD PTR [ebx+32], edi
$LN15@xmlXPathCo:

; 14724:     xmlXPathInit();
; 14725: 
; 14726: #ifndef LIBXML_THREAD_ENABLED
; 14727:     reentance++;
; 14728:     if (reentance > 1)
; 14729: 	xmlXPathDisableOptimizer = 1;
; 14730: #endif
; 14731: 
; 14732: #ifdef DEBUG_EVAL_COUNTS
; 14733:     comp->nb++;
; 14734:     if ((comp->string != NULL) && (comp->nb > 100)) {
; 14735: 	fprintf(stderr, "100 x %s\n", comp->string);
; 14736: 	comp->nb = 0;
; 14737:     }
; 14738: #endif
; 14739:     pctxt = xmlXPathCompParserContext(comp, ctxt);
; 14740:     res = xmlXPathRunEval(pctxt, toBool);

	mov	edi, DWORD PTR _toBool$[ebp]
	push	edi
	push	ebx
	call	_xmlXPathRunEval
	add	esp, 8
	mov	DWORD PTR _res$1$[ebp], eax

; 14741: 
; 14742:     if (pctxt->error != XPATH_EXPRESSION_OK) {

	cmp	DWORD PTR [ebx+8], 0
	je	SHORT $LN4@xmlXPathCo

; 14743:         resObj = NULL;

	xor	eax, eax

; 14744:     } else {

	jmp	SHORT $LN9@xmlXPathCo
$LN4@xmlXPathCo:

; 14745:         resObj = valuePop(pctxt);

	push	ebx
	call	_valuePop
	add	esp, 4
	mov	DWORD PTR _resObj$1$[ebp], eax

; 14746:         if (resObj == NULL) {

	test	eax, eax
	jne	SHORT $LN6@xmlXPathCo

; 14747:             if (!toBool)

	test	edi, edi
	jne	SHORT $LN9@xmlXPathCo

; 14748:                 xmlGenericError(xmlGenericErrorContext,

	call	___xmlGenericError
	mov	esi, eax
	call	___xmlGenericErrorContext
	push	OFFSET ??_C@_0CP@KKKCDCLL@xmlXPathCompiledEval?3?5No?5result@
	push	DWORD PTR [eax]
	mov	eax, DWORD PTR [esi]
	call	eax
	add	esp, 8

; 14749:                     "xmlXPathCompiledEval: No result on the stack.\n");
; 14750:         } else if (pctxt->valueNr > 0) {

	jmp	SHORT $LN20@xmlXPathCo
$LN6@xmlXPathCo:
	cmp	DWORD PTR [ebx+20], 0
	jle	SHORT $LN9@xmlXPathCo

; 14751:             xmlGenericError(xmlGenericErrorContext,

	call	___xmlGenericError
	mov	esi, DWORD PTR [ebx+20]
	mov	edi, eax
	call	___xmlGenericErrorContext
	push	esi
	push	OFFSET ??_C@_0DH@OEPEKFKA@xmlXPathCompiledEval?3?5?$CFd?5object@
	push	DWORD PTR [eax]
	mov	eax, DWORD PTR [edi]
	call	eax
	add	esp, 12					; 0000000cH
$LN20@xmlXPathCo:

; 14752:                 "xmlXPathCompiledEval: %d object(s) left on the stack.\n",
; 14753:                 pctxt->valueNr);
; 14754:         }
; 14755:     }
; 14756: 
; 14757:     if (resObjPtr)

	mov	eax, DWORD PTR _resObj$1$[ebp]
	mov	esi, DWORD PTR _ctxt$[ebp]
$LN9@xmlXPathCo:
	mov	ecx, DWORD PTR _resObjPtr$[ebp]
	test	ecx, ecx
	je	SHORT $LN10@xmlXPathCo

; 14758:         *resObjPtr = resObj;

	mov	DWORD PTR [ecx], eax
	jmp	SHORT $LN11@xmlXPathCo
$LN10@xmlXPathCo:

; 14759:     else
; 14760:         xmlXPathReleaseObject(ctxt, resObj);

	push	eax
	push	esi
	call	_xmlXPathReleaseObject
	add	esp, 8
$LN11@xmlXPathCo:

; 14761: 
; 14762:     pctxt->comp = NULL;
; 14763:     xmlXPathFreeParserContext(pctxt);

	push	ebx
	mov	DWORD PTR [ebx+32], 0
	call	_xmlXPathFreeParserContext

; 14764: #ifndef LIBXML_THREAD_ENABLED
; 14765:     reentance--;
; 14766: #endif
; 14767: 
; 14768:     return(res);

	mov	eax, DWORD PTR _res$1$[ebp]
	add	esp, 4
	pop	ebx
	pop	edi
	pop	esi

; 14769: }

	mov	esp, ebp
	pop	ebp
	ret	0
_xmlXPathCompiledEvalInternal ENDP
_TEXT	ENDS
; Function compile flags: /Ogtp
; File c:\users\dag\documents\_clients\codeproject authors group\windows on arm\libxml2\libxml2-2.9.9\xpath.c
;	COMDAT _xmlXPathOptimizeExpression
_TEXT	SEGMENT
_comp$ = 8						; size = 4
_op$ = 12						; size = 4
_xmlXPathOptimizeExpression PROC			; COMDAT

; 14556: {

	push	ebp
	mov	ebp, esp
	push	esi
	mov	esi, DWORD PTR _op$[ebp]
	push	edi
	mov	edi, DWORD PTR _comp$[ebp]
	npad	5
$LL13@xmlXPathOp:
	mov	ecx, OFFSET __9DBA2A81_xpath@c
	call	@__CheckForDebuggerJustMyCode@4
	mov	eax, DWORD PTR [esi]
	cmp	eax, 10					; 0000000aH
	jne	SHORT $LN8@xmlXPathOp

; 14557:     /*
; 14558:     * Try to rewrite "descendant-or-self::node()/foo" to an optimized
; 14559:     * internal representation.
; 14560:     */
; 14561: 
; 14562:     if ((op->op == XPATH_OP_COLLECT /* 11 */) &&
; 14563:         (op->ch1 != -1) &&

	mov	eax, DWORD PTR [esi+4]
	cmp	eax, -1
	je	SHORT $LN18@xmlXPathOp
	cmp	DWORD PTR [esi+8], -1
	jne	SHORT $LN18@xmlXPathOp

; 14564:         (op->ch2 == -1 /* no predicate */))
; 14565:     {
; 14566:         xmlXPathStepOpPtr prevop = &comp->steps[op->ch1];

	lea	ecx, DWORD PTR [eax+eax*4]
	mov	eax, DWORD PTR [edi+8]

; 14567: 
; 14568:         if ((prevop->op == XPATH_OP_COLLECT /* 11 */) &&
; 14569:             ((xmlXPathAxisVal) prevop->value ==
; 14570:                 AXIS_DESCENDANT_OR_SELF) &&
; 14571:             (prevop->ch2 == -1) &&
; 14572:             ((xmlXPathTestVal) prevop->value2 == NODE_TEST_TYPE) &&

	cmp	DWORD PTR [eax+ecx*8], 10		; 0000000aH
	lea	ecx, DWORD PTR [eax+ecx*8]
	jne	SHORT $LN18@xmlXPathOp
	cmp	DWORD PTR [ecx+12], 6
	jne	SHORT $LN18@xmlXPathOp
	cmp	DWORD PTR [ecx+8], -1
	jne	SHORT $LN18@xmlXPathOp
	cmp	DWORD PTR [ecx+16], 1
	jne	SHORT $LN18@xmlXPathOp
	cmp	DWORD PTR [ecx+20], 0
	jne	SHORT $LN18@xmlXPathOp

; 14573:             ((xmlXPathTypeVal) prevop->value3 == NODE_TYPE_NODE))
; 14574:         {
; 14575:             /*
; 14576:             * This is a "descendant-or-self::node()" without predicates.
; 14577:             * Try to eliminate it.
; 14578:             */
; 14579: 
; 14580:             switch ((xmlXPathAxisVal) op->value) {

	mov	eax, DWORD PTR [esi+12]
	add	eax, -4					; fffffffcH
	cmp	eax, 9
	ja	SHORT $LN18@xmlXPathOp
	movzx	eax, BYTE PTR $LN19@xmlXPathOp[eax]
	jmp	DWORD PTR $LN21@xmlXPathOp[eax*4]
$LN6@xmlXPathOp:

; 14581:                 case AXIS_CHILD:
; 14582:                 case AXIS_DESCENDANT:
; 14583:                     /*
; 14584:                     * Convert "descendant-or-self::node()/child::" or
; 14585:                     * "descendant-or-self::node()/descendant::" to
; 14586:                     * "descendant::"
; 14587:                     */
; 14588:                     op->ch1   = prevop->ch1;

	mov	eax, DWORD PTR [ecx+4]
	mov	DWORD PTR [esi+4], eax

; 14589:                     op->value = AXIS_DESCENDANT;

	mov	DWORD PTR [esi+12], 5

; 14590:                     break;

	jmp	SHORT $LN18@xmlXPathOp
$LN7@xmlXPathOp:

; 14591:                 case AXIS_SELF:
; 14592:                 case AXIS_DESCENDANT_OR_SELF:
; 14593:                     /*
; 14594:                     * Convert "descendant-or-self::node()/self::" or
; 14595:                     * "descendant-or-self::node()/descendant-or-self::" to
; 14596:                     * to "descendant-or-self::"
; 14597:                     */
; 14598:                     op->ch1   = prevop->ch1;

	mov	eax, DWORD PTR [ecx+4]
	mov	DWORD PTR [esi+4], eax

; 14599:                     op->value = AXIS_DESCENDANT_OR_SELF;

	mov	DWORD PTR [esi+12], 6

; 14600:                     break;
; 14601:                 default:
; 14602:                     break;
; 14603:             }
; 14604: 	}
; 14605:     }
; 14606: 
; 14607:     /* OP_VALUE has invalid ch1. */
; 14608:     if (op->op == XPATH_OP_VALUE)

	jmp	SHORT $LN18@xmlXPathOp
$LN8@xmlXPathOp:
	cmp	eax, 11					; 0000000bH
	je	SHORT $LN15@xmlXPathOp
$LN18@xmlXPathOp:

; 14609:         return;
; 14610: 
; 14611:     /* Recurse */
; 14612:     if (op->ch1 != -1)

	mov	eax, DWORD PTR [esi+4]
	cmp	eax, -1
	je	SHORT $LN10@xmlXPathOp

; 14613:         xmlXPathOptimizeExpression(comp, &comp->steps[op->ch1]);

	lea	ecx, DWORD PTR [eax+eax*4]
	mov	eax, DWORD PTR [edi+8]
	lea	eax, DWORD PTR [eax+ecx*8]
	push	eax
	push	edi
	call	_xmlXPathOptimizeExpression
	add	esp, 8
$LN10@xmlXPathOp:

; 14614:     if (op->ch2 != -1)

	mov	eax, DWORD PTR [esi+8]
	cmp	eax, -1
	je	SHORT $LN15@xmlXPathOp

; 14615: 	xmlXPathOptimizeExpression(comp, &comp->steps[op->ch2]);

	lea	ecx, DWORD PTR [eax+eax*4]
	mov	eax, DWORD PTR [edi+8]
	lea	esi, DWORD PTR [eax+ecx*8]
	jmp	$LL13@xmlXPathOp
$LN15@xmlXPathOp:
	pop	edi

; 14616: }

	pop	esi
	pop	ebp
	ret	0
	npad	1
$LN21@xmlXPathOp:
	DD	$LN6@xmlXPathOp
	DD	$LN7@xmlXPathOp
	DD	$LN18@xmlXPathOp
$LN19@xmlXPathOp:
	DB	0
	DB	0
	DB	1
	DB	2
	DB	2
	DB	2
	DB	2
	DB	2
	DB	2
	DB	1
_xmlXPathOptimizeExpression ENDP
_TEXT	ENDS
; Function compile flags: /Ogtp
; File c:\users\dag\documents\_clients\codeproject authors group\windows on arm\libxml2\libxml2-2.9.9\xpath.c
;	COMDAT _xmlXPathTryStreamCompile
_TEXT	SEGMENT
_dict$1$ = -4						; size = 4
_ctxt$ = 8						; size = 4
_str$ = 12						; size = 4
_xmlXPathTryStreamCompile PROC				; COMDAT

; 14483: xmlXPathTryStreamCompile(xmlXPathContextPtr ctxt, const xmlChar *str) {

	push	ebp
	mov	ebp, esp
	push	ecx
	push	ebx
	push	esi
	push	edi
	mov	ecx, OFFSET __9DBA2A81_xpath@c
	call	@__CheckForDebuggerJustMyCode@4
	mov	esi, DWORD PTR _str$[ebp]
	xor	ebx, ebx
	push	91					; 0000005bH
	push	esi
	mov	DWORD PTR _dict$1$[ebp], ebx
	xor	edi, edi
	call	_xmlStrchr
	add	esp, 8
	test	eax, eax
	jne	$LN5@xmlXPathTr

; 14484:     /*
; 14485:      * Optimization: use streaming patterns when the XPath expression can
; 14486:      * be compiled to a stream lookup
; 14487:      */
; 14488:     xmlPatternPtr stream;
; 14489:     xmlXPathCompExprPtr comp;
; 14490:     xmlDictPtr dict = NULL;
; 14491:     const xmlChar **namespaces = NULL;
; 14492:     xmlNsPtr ns;
; 14493:     int i, j;
; 14494: 
; 14495:     if ((!xmlStrchr(str, '[')) && (!xmlStrchr(str, '(')) &&

	push	40					; 00000028H
	push	esi
	call	_xmlStrchr
	add	esp, 8
	test	eax, eax
	jne	$LN5@xmlXPathTr
	push	64					; 00000040H
	push	esi
	call	_xmlStrchr
	add	esp, 8
	test	eax, eax
	jne	$LN5@xmlXPathTr

; 14496:         (!xmlStrchr(str, '@'))) {
; 14497: 	const xmlChar *tmp;
; 14498: 
; 14499: 	/*
; 14500: 	 * We don't try to handle expressions using the verbose axis
; 14501: 	 * specifiers ("::"), just the simplied form at this point.
; 14502: 	 * Additionally, if there is no list of namespaces available and
; 14503: 	 *  there's a ":" in the expression, indicating a prefixed QName,
; 14504: 	 *  then we won't try to compile either. xmlPatterncompile() needs
; 14505: 	 *  to have a list of namespaces at compilation time in order to
; 14506: 	 *  compile prefixed name tests.
; 14507: 	 */
; 14508: 	tmp = xmlStrchr(str, ':');

	push	58					; 0000003aH
	push	esi
	call	_xmlStrchr

; 14509: 	if ((tmp != NULL) &&

	mov	esi, DWORD PTR _ctxt$[ebp]
	add	esp, 8
	test	eax, eax
	je	SHORT $LN21@xmlXPathTr
	test	esi, esi
	je	$LN5@xmlXPathTr
	cmp	DWORD PTR [esi+60], ebx
	je	$LN5@xmlXPathTr
	cmp	BYTE PTR [eax+1], 58			; 0000003aH
	je	$LN5@xmlXPathTr
$LN21@xmlXPathTr:

; 14510: 	    ((ctxt == NULL) || (ctxt->nsNr == 0) || (tmp[1] == ':')))
; 14511: 	    return(NULL);
; 14512: 
; 14513: 	if (ctxt != NULL) {

	test	esi, esi
	je	SHORT $LN9@xmlXPathTr

; 14514: 	    dict = ctxt->dict;
; 14515: 	    if (ctxt->nsNr > 0) {

	mov	eax, DWORD PTR [esi+60]
	mov	ebx, DWORD PTR [esi+192]
	mov	DWORD PTR _dict$1$[ebp], ebx
	test	eax, eax
	jle	SHORT $LN9@xmlXPathTr

; 14516: 		namespaces = xmlMalloc(2 * (ctxt->nsNr + 1) * sizeof(xmlChar*));

	lea	eax, DWORD PTR [eax*8+8]
	push	eax
	call	DWORD PTR _xmlMalloc
	mov	edi, eax
	add	esp, 4

; 14517: 		if (namespaces == NULL) {

	test	edi, edi
	jne	SHORT $LN10@xmlXPathTr

; 14518: 		    xmlXPathErrMemory(ctxt, "allocating namespaces array\n");

	push	OFFSET ??_C@_0BN@BJKHBGFI@allocating?5namespaces?5array?6@
	push	esi
	call	_xmlXPathErrMemory
	add	esp, 8

; 14549:     }
; 14550:     return(NULL);
; 14551: }

	xor	eax, eax
	pop	edi
	pop	esi
	pop	ebx
	mov	esp, ebp
	pop	ebp
	ret	0
$LN10@xmlXPathTr:

; 14519: 		    return(NULL);
; 14520: 		}
; 14521: 		for (i = 0, j = 0; (j < ctxt->nsNr); j++) {

	xor	edx, edx
	cmp	DWORD PTR [esi+60], edx
	jle	SHORT $LN3@xmlXPathTr
	xor	ebx, ebx
	npad	4
$LL4@xmlXPathTr:

; 14522: 		    ns = ctxt->namespaces[j];

	mov	eax, DWORD PTR [esi+56]
	mov	ecx, DWORD PTR [eax+ebx*4]
	inc	ebx

; 14523: 		    namespaces[i++] = ns->href;

	mov	eax, DWORD PTR [ecx+8]
	mov	DWORD PTR [edi+edx*4], eax

; 14524: 		    namespaces[i++] = ns->prefix;

	mov	eax, DWORD PTR [ecx+12]
	mov	DWORD PTR [edi+edx*4+4], eax
	add	edx, 2
	cmp	ebx, DWORD PTR [esi+60]
	jl	SHORT $LL4@xmlXPathTr
	mov	ebx, DWORD PTR _dict$1$[ebp]
$LN3@xmlXPathTr:

; 14525: 		}
; 14526: 		namespaces[i++] = NULL;

	mov	DWORD PTR [edi+edx*4], 0

; 14527: 		namespaces[i] = NULL;

	mov	DWORD PTR [edi+edx*4+4], 0
$LN9@xmlXPathTr:

; 14528: 	    }
; 14529: 	}
; 14530: 
; 14531: 	stream = xmlPatterncompile(str, dict, XML_PATTERN_XPATH,

	push	edi
	push	1
	push	ebx
	push	DWORD PTR _str$[ebp]
	call	_xmlPatterncompile
	add	esp, 16					; 00000010H
	mov	ebx, eax

; 14532: 			&namespaces[0]);
; 14533: 	if (namespaces != NULL) {

	test	edi, edi
	je	SHORT $LN11@xmlXPathTr

; 14534: 	    xmlFree((xmlChar **)namespaces);

	push	edi
	call	DWORD PTR _xmlFree
	add	esp, 4
$LN11@xmlXPathTr:

; 14535: 	}
; 14536: 	if ((stream != NULL) && (xmlPatternStreamable(stream) == 1)) {

	test	ebx, ebx
	je	SHORT $LN12@xmlXPathTr
	push	ebx
	call	_xmlPatternStreamable
	add	esp, 4
	cmp	eax, 1
	jne	SHORT $LN12@xmlXPathTr

; 14537: 	    comp = xmlXPathNewCompExpr();

	call	_xmlXPathNewCompExpr
	mov	edi, eax

; 14538: 	    if (comp == NULL) {

	test	edi, edi
	jne	SHORT $LN13@xmlXPathTr

; 14539: 		xmlXPathErrMemory(ctxt, "allocating streamable expression\n");

	push	OFFSET ??_C@_0CC@FJFLGALO@allocating?5streamable?5expressio@
	push	esi
	call	_xmlXPathErrMemory
	add	esp, 8

; 14549:     }
; 14550:     return(NULL);
; 14551: }

	xor	eax, eax
	pop	edi
	pop	esi
	pop	ebx
	mov	esp, ebp
	pop	ebp
	ret	0
$LN13@xmlXPathTr:

; 14540: 		return(NULL);
; 14541: 	    }
; 14542: 	    comp->stream = stream;
; 14543: 	    comp->dict = dict;

	mov	eax, DWORD PTR _dict$1$[ebp]
	mov	DWORD PTR [edi+24], ebx
	mov	DWORD PTR [edi+20], eax

; 14544: 	    if (comp->dict)

	test	eax, eax
	je	SHORT $LN14@xmlXPathTr

; 14545: 		xmlDictReference(comp->dict);

	push	eax
	call	_xmlDictReference
	add	esp, 4
$LN14@xmlXPathTr:

; 14546: 	    return(comp);

	mov	eax, edi
	pop	edi

; 14549:     }
; 14550:     return(NULL);
; 14551: }

	pop	esi
	pop	ebx
	mov	esp, ebp
	pop	ebp
	ret	0
$LN12@xmlXPathTr:

; 14547: 	}
; 14548: 	xmlFreePattern(stream);

	push	ebx
	call	_xmlFreePattern
	add	esp, 4
$LN5@xmlXPathTr:

; 14549:     }
; 14550:     return(NULL);
; 14551: }

	pop	edi
	pop	esi
	xor	eax, eax
	pop	ebx
	mov	esp, ebp
	pop	ebp
	ret	0
_xmlXPathTryStreamCompile ENDP
_TEXT	ENDS
; Function compile flags: /Ogtp
; File c:\users\dag\documents\_clients\codeproject authors group\windows on arm\libxml2\libxml2-2.9.9\xpath.c
;	COMDAT _xmlXPathRunEval
_TEXT	SEGMENT
_resObj$1 = 8						; size = 4
_ctxt$ = 8						; size = 4
_toBool$ = 12						; size = 4
_xmlXPathRunEval PROC					; COMDAT

; 14309: {

	push	ebp
	mov	ebp, esp
	push	esi
	mov	ecx, OFFSET __9DBA2A81_xpath@c
	call	@__CheckForDebuggerJustMyCode@4
	mov	esi, DWORD PTR _ctxt$[ebp]
	test	esi, esi
	je	$LN3@xmlXPathRu

; 14310:     xmlXPathCompExprPtr comp;
; 14311: 
; 14312:     if ((ctxt == NULL) || (ctxt->comp == NULL))

	mov	eax, DWORD PTR [esi+32]
	test	eax, eax
	je	$LN3@xmlXPathRu

; 14313: 	return(-1);
; 14314: 
; 14315:     if (ctxt->valueTab == NULL) {

	cmp	DWORD PTR [esi+28], 0
	jne	SHORT $LN4@xmlXPathRu

; 14316: 	/* Allocate the value stack */
; 14317: 	ctxt->valueTab = (xmlXPathObjectPtr *)

	push	40					; 00000028H
	call	DWORD PTR _xmlMalloc
	add	esp, 4
	mov	DWORD PTR [esi+28], eax

; 14318: 			 xmlMalloc(10 * sizeof(xmlXPathObjectPtr));
; 14319: 	if (ctxt->valueTab == NULL) {

	test	eax, eax
	jne	SHORT $LN5@xmlXPathRu

; 673  : 	xmlXPathErrMemory(ctxt->context, extra);

	push	OFFSET ??_C@_0BN@DLELJOPA@creating?5evaluation?5context?6@
	push	DWORD PTR [esi+12]
	mov	DWORD PTR [esi+8], 15			; 0000000fH
	call	_xmlXPathErrMemory

; 14320: 	    xmlXPathPErrMemory(ctxt, "creating evaluation context\n");
; 14321: 	    xmlFree(ctxt);

	push	esi
	call	DWORD PTR _xmlFree
	add	esp, 12					; 0000000cH
$LN5@xmlXPathRu:

; 14322: 	}
; 14323: 	ctxt->valueNr = 0;
; 14324: 	ctxt->valueMax = 10;
; 14325: 	ctxt->value = NULL;
; 14326:         ctxt->valueFrame = 0;

	mov	eax, DWORD PTR [esi+32]
	mov	DWORD PTR [esi+20], 0
	mov	DWORD PTR [esi+24], 10			; 0000000aH
	mov	DWORD PTR [esi+16], 0
	mov	DWORD PTR [esi+44], 0
$LN4@xmlXPathRu:

; 14327:     }
; 14328: #ifdef XPATH_STREAMING
; 14329:     if (ctxt->comp->stream) {

	mov	eax, DWORD PTR [eax+24]
	test	eax, eax
	je	SHORT $LN11@xmlXPathRu

; 14330: 	int res;
; 14331: 
; 14332: 	if (toBool) {

	cmp	DWORD PTR _toBool$[ebp], 0
	mov	ecx, DWORD PTR [esi+12]
	je	SHORT $LN7@xmlXPathRu

; 14333: 	    /*
; 14334: 	    * Evaluation to boolean result.
; 14335: 	    */
; 14336: 	    res = xmlXPathRunStreamEval(ctxt->context,

	push	1
	push	0
	push	eax
	push	ecx
	call	_xmlXPathRunStreamEval
	add	esp, 16					; 00000010H

; 14337: 		ctxt->comp->stream, NULL, 1);
; 14338: 	    if (res != -1)

	cmp	eax, -1
	je	SHORT $LN11@xmlXPathRu
	pop	esi

; 14375: }

	pop	ebp
	ret	0
$LN7@xmlXPathRu:

; 14339: 		return(res);
; 14340: 	} else {
; 14341: 	    xmlXPathObjectPtr resObj = NULL;
; 14342: 
; 14343: 	    /*
; 14344: 	    * Evaluation to a sequence.
; 14345: 	    */
; 14346: 	    res = xmlXPathRunStreamEval(ctxt->context,

	push	0
	lea	edx, DWORD PTR _resObj$1[ebp]
	mov	DWORD PTR _resObj$1[ebp], 0
	push	edx
	push	eax
	push	ecx
	call	_xmlXPathRunStreamEval
	add	esp, 16					; 00000010H

; 14347: 		ctxt->comp->stream, &resObj, 0);
; 14348: 
; 14349: 	    if ((res != -1) && (resObj != NULL)) {

	cmp	eax, -1
	mov	eax, DWORD PTR _resObj$1[ebp]
	je	SHORT $LN10@xmlXPathRu
	test	eax, eax
	je	SHORT $LN11@xmlXPathRu

; 14350: 		valuePush(ctxt, resObj);

	push	eax
	push	esi
	call	_valuePush
	add	esp, 8

; 14351: 		return(0);

	xor	eax, eax
	pop	esi

; 14375: }

	pop	ebp
	ret	0
$LN10@xmlXPathRu:

; 14352: 	    }
; 14353: 	    if (resObj != NULL)

	test	eax, eax
	je	SHORT $LN11@xmlXPathRu

; 14354: 		xmlXPathReleaseObject(ctxt->context, resObj);

	push	eax
	push	DWORD PTR [esi+12]
	call	_xmlXPathReleaseObject
	add	esp, 8
$LN11@xmlXPathRu:

; 14355: 	}
; 14356: 	/*
; 14357: 	* QUESTION TODO: This falls back to normal XPath evaluation
; 14358: 	* if res == -1. Is this intended?
; 14359: 	*/
; 14360:     }
; 14361: #endif
; 14362:     comp = ctxt->comp;

	mov	edx, DWORD PTR [esi+32]

; 14363:     if (comp->last < 0) {

	mov	eax, DWORD PTR [edx+12]
	test	eax, eax
	jns	SHORT $LN12@xmlXPathRu

; 14364: 	xmlGenericError(xmlGenericErrorContext,

	call	___xmlGenericError
	mov	esi, eax
	call	___xmlGenericErrorContext
	push	OFFSET ??_C@_0CJ@GKOHPKDK@xmlXPathRunEval?3?5last?5is?5less?5t@
	push	DWORD PTR [eax]
	mov	eax, DWORD PTR [esi]
	call	eax
	add	esp, 8
$LN3@xmlXPathRu:

; 14375: }

	or	eax, -1
	pop	esi
	pop	ebp
	ret	0
$LN12@xmlXPathRu:

; 14365: 	    "xmlXPathRunEval: last is less than zero\n");
; 14366: 	return(-1);
; 14367:     }
; 14368:     if (toBool)

	cmp	DWORD PTR _toBool$[ebp], 0
	lea	ecx, DWORD PTR [eax+eax*4]
	mov	eax, DWORD PTR [edx+8]
	lea	eax, DWORD PTR [eax+ecx*8]
	je	SHORT $LN13@xmlXPathRu

; 14369: 	return(xmlXPathCompOpEvalToBoolean(ctxt,

	push	0
	push	eax
	push	esi
	call	_xmlXPathCompOpEvalToBoolean
	add	esp, 12					; 0000000cH
	pop	esi

; 14375: }

	pop	ebp
	ret	0
$LN13@xmlXPathRu:

; 14370: 	    &comp->steps[comp->last], 0));
; 14371:     else
; 14372: 	xmlXPathCompOpEval(ctxt, &comp->steps[comp->last]);

	push	eax
	push	esi
	call	_xmlXPathCompOpEval
	add	esp, 8

; 14373: 
; 14374:     return(0);

	xor	eax, eax
	pop	esi

; 14375: }

	pop	ebp
	ret	0
_xmlXPathRunEval ENDP
_TEXT	ENDS
; Function compile flags: /Ogtp
; File c:\users\dag\documents\_clients\codeproject authors group\windows on arm\libxml2\libxml2-2.9.9\xpath.c
;	COMDAT _xmlXPathRunStreamEval
_TEXT	SEGMENT
_nb_nodes$1$ = -20					; size = 4
_min_depth$1$ = -16					; size = 4
_patstream$1$ = -16					; size = 4
_max_depth$2$ = -12					; size = 4
_limit$1$ = -8						; size = 4
_eval_all_nodes$1$ = -4					; size = 4
_ctxt$ = 8						; size = 4
_comp$ = 12						; size = 4
_resultSeq$ = 16					; size = 4
_toBool$ = 20						; size = 4
_xmlXPathRunStreamEval PROC				; COMDAT

; 14076: {

	push	ebp
	mov	ebp, esp
	sub	esp, 20					; 00000014H
	push	ebx
	push	esi
	push	edi
	mov	ecx, OFFSET __9DBA2A81_xpath@c
	call	@__CheckForDebuggerJustMyCode@4
	xor	eax, eax
	xor	esi, esi
	mov	DWORD PTR _limit$1$[ebp], eax
	mov	DWORD PTR _nb_nodes$1$[ebp], eax
	cmp	DWORD PTR _ctxt$[ebp], eax
	je	$LN17@xmlXPathRu

; 14077:     int max_depth, min_depth;
; 14078:     int from_root;
; 14079:     int ret, depth;
; 14080:     int eval_all_nodes;
; 14081:     xmlNodePtr cur = NULL, limit = NULL;
; 14082:     xmlStreamCtxtPtr patstream = NULL;
; 14083: 
; 14084:     int nb_nodes = 0;
; 14085: 
; 14086:     if ((ctxt == NULL) || (comp == NULL))

	mov	edi, DWORD PTR _comp$[ebp]
	test	edi, edi
	je	$LN17@xmlXPathRu

; 14087:         return(-1);
; 14088:     max_depth = xmlPatternMaxDepth(comp);

	push	edi
	call	_xmlPatternMaxDepth
	add	esp, 4

; 14089:     if (max_depth == -1)

	cmp	eax, -1
	je	$LN17@xmlXPathRu

; 14090:         return(-1);
; 14091:     if (max_depth == -2)

	cmp	eax, -2					; fffffffeH
	mov	ecx, 10000				; 00002710H

; 14092:         max_depth = 10000;
; 14093:     min_depth = xmlPatternMinDepth(comp);

	push	edi
	cmove	eax, ecx
	mov	DWORD PTR _max_depth$2$[ebp], eax
	call	_xmlPatternMinDepth
	add	esp, 4
	mov	DWORD PTR _min_depth$1$[ebp], eax

; 14094:     if (min_depth == -1)

	cmp	eax, -1
	je	$LN17@xmlXPathRu

; 14095:         return(-1);
; 14096:     from_root = xmlPatternFromRoot(comp);

	push	edi
	call	_xmlPatternFromRoot
	mov	ebx, eax
	add	esp, 4

; 14097:     if (from_root < 0)

	test	ebx, ebx
	js	$LN17@xmlXPathRu

; 14098:         return(-1);
; 14099: #if 0
; 14100:     printf("stream eval: depth %d from root %d\n", max_depth, from_root);
; 14101: #endif
; 14102: 
; 14103:     if (! toBool) {

	mov	eax, DWORD PTR _toBool$[ebp]
	test	eax, eax
	jne	SHORT $LN133@xmlXPathRu

; 14104: 	if (resultSeq == NULL)

	cmp	DWORD PTR _resultSeq$[ebp], esi
	je	$LN17@xmlXPathRu

; 14105: 	    return(-1);
; 14106: 	*resultSeq = xmlXPathCacheNewNodeSet(ctxt, NULL);

	push	eax
	push	DWORD PTR _ctxt$[ebp]
	call	_xmlXPathCacheNewNodeSet
	mov	ecx, DWORD PTR _resultSeq$[ebp]
	add	esp, 8
	mov	DWORD PTR [ecx], eax

; 14107: 	if (*resultSeq == NULL)

	test	eax, eax
	je	$LN17@xmlXPathRu

; 14098:         return(-1);
; 14099: #if 0
; 14100:     printf("stream eval: depth %d from root %d\n", max_depth, from_root);
; 14101: #endif
; 14102: 
; 14103:     if (! toBool) {

	mov	eax, DWORD PTR _toBool$[ebp]
	jmp	SHORT $LN97@xmlXPathRu
$LN133@xmlXPathRu:
	mov	ecx, DWORD PTR _resultSeq$[ebp]
$LN97@xmlXPathRu:

; 14108: 	    return(-1);
; 14109:     }
; 14110: 
; 14111:     /*
; 14112:      * handle the special cases of "/" amd "." being matched
; 14113:      */
; 14114:     if (min_depth == 0) {

	cmp	DWORD PTR _min_depth$1$[ebp], esi
	jne	SHORT $LN27@xmlXPathRu

; 14115: 	if (from_root) {

	test	ebx, ebx
	je	SHORT $LN26@xmlXPathRu

; 14116: 	    /* Select "/" */
; 14117: 	    if (toBool)

	test	eax, eax
	jne	$LN72@xmlXPathRu

; 14118: 		return(1);
; 14119: 	    xmlXPathNodeSetAddUnique((*resultSeq)->nodesetval,

	mov	eax, DWORD PTR _ctxt$[ebp]
	push	DWORD PTR [eax]

; 14120: 		                     (xmlNodePtr) ctxt->doc);
; 14121: 	} else {

	jmp	SHORT $LN137@xmlXPathRu
$LN26@xmlXPathRu:

; 14122: 	    /* Select "self::node()" */
; 14123: 	    if (toBool)

	test	eax, eax
	jne	$LN72@xmlXPathRu

; 14124: 		return(1);
; 14125: 	    xmlXPathNodeSetAddUnique((*resultSeq)->nodesetval, ctxt->node);

	mov	eax, DWORD PTR _ctxt$[ebp]
	push	DWORD PTR [eax+4]
$LN137@xmlXPathRu:

; 14126: 	}
; 14127:     }
; 14128:     if (max_depth == 0) {

	mov	eax, DWORD PTR [ecx]
	push	DWORD PTR [eax+4]
	call	_xmlXPathNodeSetAddUnique
	add	esp, 8
$LN27@xmlXPathRu:
	cmp	DWORD PTR _max_depth$2$[ebp], esi
	je	$LN71@xmlXPathRu

; 14129: 	return(0);
; 14130:     }
; 14131: 
; 14132:     if (from_root) {

	mov	eax, DWORD PTR _ctxt$[ebp]
	test	ebx, ebx
	je	SHORT $LN31@xmlXPathRu

; 14133:         cur = (xmlNodePtr)ctxt->doc;

	mov	esi, DWORD PTR [eax]
	jmp	SHORT $LN33@xmlXPathRu
$LN31@xmlXPathRu:

; 14134:     } else if (ctxt->node != NULL) {

	mov	ecx, DWORD PTR [eax+4]
	test	ecx, ecx
	je	$LN71@xmlXPathRu

; 14135:         switch (ctxt->node->type) {

	mov	eax, DWORD PTR [ecx+4]
	dec	eax
	cmp	eax, 20					; 00000014H
	ja	SHORT $LN35@xmlXPathRu
	movzx	eax, BYTE PTR $LN119@xmlXPathRu[eax]
	jmp	DWORD PTR $LN139@xmlXPathRu[eax*4]
$LN34@xmlXPathRu:

; 14136:             case XML_ELEMENT_NODE:
; 14137:             case XML_DOCUMENT_NODE:
; 14138:             case XML_DOCUMENT_FRAG_NODE:
; 14139:             case XML_HTML_DOCUMENT_NODE:
; 14140: #ifdef LIBXML_DOCB_ENABLED
; 14141:             case XML_DOCB_DOCUMENT_NODE:
; 14142: #endif
; 14143: 	        cur = ctxt->node;

	mov	esi, ecx
$LN35@xmlXPathRu:

; 14144: 		break;
; 14145:             case XML_ATTRIBUTE_NODE:
; 14146:             case XML_TEXT_NODE:
; 14147:             case XML_CDATA_SECTION_NODE:
; 14148:             case XML_ENTITY_REF_NODE:
; 14149:             case XML_ENTITY_NODE:
; 14150:             case XML_PI_NODE:
; 14151:             case XML_COMMENT_NODE:
; 14152:             case XML_NOTATION_NODE:
; 14153:             case XML_DTD_NODE:
; 14154:             case XML_DOCUMENT_TYPE_NODE:
; 14155:             case XML_ELEMENT_DECL:
; 14156:             case XML_ATTRIBUTE_DECL:
; 14157:             case XML_ENTITY_DECL:
; 14158:             case XML_NAMESPACE_DECL:
; 14159:             case XML_XINCLUDE_START:
; 14160:             case XML_XINCLUDE_END:
; 14161: 		break;
; 14162: 	}
; 14163: 	limit = cur;

	mov	DWORD PTR _limit$1$[ebp], esi
$LN33@xmlXPathRu:

; 14164:     }
; 14165:     if (cur == NULL) {

	test	esi, esi
	je	$LN71@xmlXPathRu

; 14166:         return(0);
; 14167:     }
; 14168: 
; 14169:     patstream = xmlPatternGetStreamCtxt(comp);

	push	edi
	call	_xmlPatternGetStreamCtxt
	add	esp, 4
	mov	DWORD PTR _patstream$1$[ebp], eax

; 14170:     if (patstream == NULL) {

	test	eax, eax
	je	$LN71@xmlXPathRu

; 14171: 	/*
; 14172: 	* QUESTION TODO: Is this an error?
; 14173: 	*/
; 14174: 	return(0);
; 14175:     }
; 14176: 
; 14177:     eval_all_nodes = xmlStreamWantsAnyNode(patstream);

	push	eax
	call	_xmlStreamWantsAnyNode
	add	esp, 4
	mov	edx, eax

; 14178: 
; 14179:     if (from_root) {

	test	ebx, ebx
	mov	DWORD PTR _eval_all_nodes$1$[ebp], edx
	mov	ebx, DWORD PTR _patstream$1$[ebp]
	je	SHORT $LN41@xmlXPathRu

; 14180: 	ret = xmlStreamPush(patstream, NULL, NULL);

	push	0
	push	0
	push	ebx
	call	_xmlStreamPush
	add	esp, 12					; 0000000cH

; 14181: 	if (ret < 0) {

	test	eax, eax
	js	SHORT $LN132@xmlXPathRu

; 14182: 	} else if (ret == 1) {

	cmp	eax, 1
	jne	SHORT $LN132@xmlXPathRu

; 14183: 	    if (toBool)

	cmp	DWORD PTR _toBool$[ebp], 0
	jne	$return_1$141

; 14184: 		goto return_1;
; 14185: 	    xmlXPathNodeSetAddUnique((*resultSeq)->nodesetval, cur);

	mov	eax, DWORD PTR _resultSeq$[ebp]
	push	esi
	mov	eax, DWORD PTR [eax]
	push	DWORD PTR [eax+4]
	call	_xmlXPathNodeSetAddUnique
	add	esp, 8
$LN132@xmlXPathRu:

; 14186: 	}
; 14187:     }
; 14188:     depth = 0;

	mov	edx, DWORD PTR _eval_all_nodes$1$[ebp]
$LN41@xmlXPathRu:
	xor	edi, edi
	npad	1
$scan_children$142:

; 14224: 			    (cur->type != XML_DTD_NODE))
; 14225: 			    goto next_node;
; 14226: 		    }
; 14227: 		}
; 14228: 	    default:
; 14229: 		break;
; 14230: 	}
; 14231: 
; 14232: scan_children:
; 14233: 	if (cur->type == XML_NAMESPACE_DECL) break;

	cmp	DWORD PTR [esi+4], 18			; 00000012H
	je	$done$143

; 14234: 	if ((cur->children != NULL) && (depth < max_depth)) {

	mov	eax, DWORD PTR [esi+12]
	test	eax, eax
	je	SHORT $LN60@xmlXPathRu
	cmp	edi, DWORD PTR _max_depth$2$[ebp]
	jge	SHORT $LN60@xmlXPathRu

; 14235: 	    /*
; 14236: 	     * Do not descend on entities declarations
; 14237: 	     */
; 14238: 	    if (cur->children->type != XML_ENTITY_DECL) {

	mov	ecx, DWORD PTR [eax+4]
	cmp	ecx, 17					; 00000011H
	je	SHORT $LN60@xmlXPathRu

; 14239: 		cur = cur->children;
; 14240: 		depth++;

	inc	edi
	mov	esi, eax

; 14241: 		/*
; 14242: 		 * Skip DTDs
; 14243: 		 */
; 14244: 		if (cur->type != XML_DTD_NODE)

	cmp	ecx, 14					; 0000000eH
	jne	SHORT $LN4@xmlXPathRu
$LN60@xmlXPathRu:

; 14245: 		    continue;
; 14246: 	    }
; 14247: 	}
; 14248: 
; 14249: 	if (cur == limit)

	mov	ecx, DWORD PTR _limit$1$[ebp]
	cmp	esi, ecx
	je	$done$143

; 14250: 	    break;
; 14251: 
; 14252: 	while (cur->next != NULL) {

	mov	eax, DWORD PTR [esi+24]
	test	eax, eax
	je	SHORT $LL15@xmlXPathRu
$LL11@xmlXPathRu:

; 14253: 	    cur = cur->next;

	mov	esi, eax

; 14254: 	    if ((cur->type != XML_ENTITY_DECL) &&

	mov	eax, DWORD PTR [esi+4]
	cmp	eax, 17					; 00000011H
	je	SHORT $LN98@xmlXPathRu
	cmp	eax, 14					; 0000000eH
	jne	SHORT $LL6@xmlXPathRu
$LN98@xmlXPathRu:

; 14250: 	    break;
; 14251: 
; 14252: 	while (cur->next != NULL) {

	mov	eax, DWORD PTR [esi+24]
	test	eax, eax
	jne	SHORT $LL11@xmlXPathRu
	npad	2
$LL15@xmlXPathRu:

; 14255: 		(cur->type != XML_DTD_NODE))
; 14256: 		goto next_node;
; 14257: 	}
; 14258: 
; 14259: 	do {
; 14260: 	    cur = cur->parent;

	mov	esi, DWORD PTR [esi+20]

; 14261: 	    depth--;

	dec	edi

; 14262: 	    if ((cur == NULL) || (cur == limit))

	test	esi, esi
	je	$done$143
	cmp	esi, ecx
	je	$done$143

; 14263: 	        goto done;
; 14264: 	    if (cur->type == XML_ELEMENT_NODE) {

	mov	eax, DWORD PTR [esi+4]
	cmp	eax, 1
	je	SHORT $LN68@xmlXPathRu

; 14265: 		ret = xmlStreamPop(patstream);
; 14266: 	    } else if ((eval_all_nodes) &&

	test	edx, edx
	je	SHORT $LN67@xmlXPathRu
	cmp	eax, 3
	je	SHORT $LN68@xmlXPathRu
	cmp	eax, 4
	je	SHORT $LN68@xmlXPathRu
	cmp	eax, 8
	je	SHORT $LN68@xmlXPathRu
	cmp	eax, 7
	jne	SHORT $LN67@xmlXPathRu
$LN68@xmlXPathRu:

; 14267: 		((cur->type == XML_TEXT_NODE) ||
; 14268: 		 (cur->type == XML_CDATA_SECTION_NODE) ||
; 14269: 		 (cur->type == XML_COMMENT_NODE) ||
; 14270: 		 (cur->type == XML_PI_NODE)))
; 14271: 	    {
; 14272: 		ret = xmlStreamPop(patstream);

	push	ebx
	call	_xmlStreamPop
	mov	ecx, DWORD PTR _limit$1$[ebp]
	add	esp, 4
	mov	edx, DWORD PTR _eval_all_nodes$1$[ebp]
$LN67@xmlXPathRu:

; 14273: 	    }
; 14274: 	    if (cur->next != NULL) {

	mov	eax, DWORD PTR [esi+24]
	test	eax, eax
	je	SHORT $LL15@xmlXPathRu

; 14275: 		cur = cur->next;

	mov	esi, eax
$LN4@xmlXPathRu:

; 14276: 		break;
; 14277: 	    }
; 14278: 	} while (cur != NULL);
; 14279: 
; 14280:     } while ((cur != NULL) && (depth >= 0));

	test	esi, esi
	je	$done$143
	test	edi, edi
	js	$done$143
	npad	4
$LL6@xmlXPathRu:
$next_node$144:

; 14189:     goto scan_children;
; 14190: next_node:
; 14191:     do {
; 14192:         nb_nodes++;
; 14193: 
; 14194: 	switch (cur->type) {

	mov	ecx, DWORD PTR [esi+4]
	inc	DWORD PTR _nb_nodes$1$[ebp]
	lea	eax, DWORD PTR [ecx-1]
	cmp	eax, 7
	ja	$scan_children$142
	movzx	eax, BYTE PTR $LN120@xmlXPathRu[eax]
	jmp	DWORD PTR $LN140@xmlXPathRu[eax*4]
$LN43@xmlXPathRu:

; 14195: 	    case XML_ELEMENT_NODE:
; 14196: 	    case XML_TEXT_NODE:
; 14197: 	    case XML_CDATA_SECTION_NODE:
; 14198: 	    case XML_COMMENT_NODE:
; 14199: 	    case XML_PI_NODE:
; 14200: 		if (cur->type == XML_ELEMENT_NODE) {

	cmp	ecx, 1
	jne	SHORT $LN44@xmlXPathRu

; 14201: 		    ret = xmlStreamPush(patstream, cur->name,

	mov	eax, DWORD PTR [esi+36]
	test	eax, eax
	je	SHORT $LN74@xmlXPathRu
	mov	eax, DWORD PTR [eax+8]
	push	eax
	push	DWORD PTR [esi+8]
	push	ebx
	call	_xmlStreamPush
	add	esp, 12					; 0000000cH
	jmp	SHORT $LN47@xmlXPathRu
$LN74@xmlXPathRu:
	xor	eax, eax
	push	eax
	push	DWORD PTR [esi+8]
	push	ebx
	call	_xmlStreamPush
	add	esp, 12					; 0000000cH
	jmp	SHORT $LN47@xmlXPathRu
$LN44@xmlXPathRu:

; 14202: 				(cur->ns ? cur->ns->href : NULL));
; 14203: 		} else if (eval_all_nodes)

	test	edx, edx
	je	$scan_children$142

; 14204: 		    ret = xmlStreamPushNode(patstream, NULL, NULL, cur->type);

	push	ecx
	push	0
	push	0
	push	ebx
	call	_xmlStreamPushNode
	add	esp, 16					; 00000010H
$LN47@xmlXPathRu:

; 14205: 		else
; 14206: 		    break;
; 14207: 
; 14208: 		if (ret < 0) {

	test	eax, eax
	js	SHORT $LN52@xmlXPathRu

; 14209: 		    /* NOP. */
; 14210: 		} else if (ret == 1) {

	cmp	eax, 1
	jne	SHORT $LN52@xmlXPathRu

; 14211: 		    if (toBool)

	cmp	DWORD PTR _toBool$[ebp], 0
	jne	SHORT $return_1$141

; 14212: 			goto return_1;
; 14213: 		    if (xmlXPathNodeSetAddUnique((*resultSeq)->nodesetval, cur)
; 14214: 		        < 0) {

	mov	eax, DWORD PTR _resultSeq$[ebp]
	push	esi
	mov	eax, DWORD PTR [eax]
	push	DWORD PTR [eax+4]
	call	_xmlXPathNodeSetAddUnique
	add	esp, 8
	test	eax, eax
	jns	SHORT $LN52@xmlXPathRu

; 14215: 			ctxt->lastError.domain = XML_FROM_XPATH;

	mov	eax, DWORD PTR _ctxt$[ebp]
	mov	DWORD PTR [eax+136], 12			; 0000000cH

; 14216: 			ctxt->lastError.code = XML_ERR_NO_MEMORY;

	mov	DWORD PTR [eax+140], 2
$LN52@xmlXPathRu:

; 14217: 		    }
; 14218: 		}
; 14219: 		if ((cur->children == NULL) || (depth >= max_depth)) {

	cmp	DWORD PTR [esi+12], 0
	je	SHORT $LN54@xmlXPathRu
	mov	edx, DWORD PTR _eval_all_nodes$1$[ebp]
	cmp	edi, DWORD PTR _max_depth$2$[ebp]
	jl	$scan_children$142
$LN54@xmlXPathRu:

; 14220: 		    ret = xmlStreamPop(patstream);

	push	ebx
	call	_xmlStreamPop
	add	esp, 4
	npad	5
$LL9@xmlXPathRu:

; 14221: 		    while (cur->next != NULL) {

	mov	eax, DWORD PTR [esi+24]
	test	eax, eax
	je	SHORT $LN118@xmlXPathRu

; 14222: 			cur = cur->next;

	mov	esi, eax

; 14223: 			if ((cur->type != XML_ENTITY_DECL) &&

	mov	eax, DWORD PTR [esi+4]
	cmp	eax, 17					; 00000011H
	je	SHORT $LL9@xmlXPathRu
	cmp	eax, 14					; 0000000eH
	je	SHORT $LL9@xmlXPathRu
	mov	edx, DWORD PTR _eval_all_nodes$1$[ebp]
	jmp	$LL6@xmlXPathRu
$LN118@xmlXPathRu:

; 14216: 			ctxt->lastError.code = XML_ERR_NO_MEMORY;

	mov	edx, DWORD PTR _eval_all_nodes$1$[ebp]
	jmp	$scan_children$142
$return_1$141:

; 14291:     return(0);
; 14292: 
; 14293: return_1:
; 14294:     if (patstream)

	test	ebx, ebx
	je	SHORT $LN72@xmlXPathRu

; 14295: 	xmlFreeStreamCtxt(patstream);

	push	ebx
	call	_xmlFreeStreamCtxt
	add	esp, 4
$LN72@xmlXPathRu:

; 14296:     return(1);
; 14297: }

	pop	edi
	pop	esi
	mov	eax, 1
	pop	ebx
	mov	esp, ebp
	pop	ebp
	ret	0
$done$143:

; 14281: 
; 14282: done:
; 14283: 
; 14284: #if 0
; 14285:     printf("stream eval: checked %d nodes selected %d\n",
; 14286:            nb_nodes, retObj->nodesetval->nodeNr);
; 14287: #endif
; 14288: 
; 14289:     if (patstream)

	test	ebx, ebx
	je	SHORT $LN71@xmlXPathRu

; 14290: 	xmlFreeStreamCtxt(patstream);

	push	ebx
	call	_xmlFreeStreamCtxt
	add	esp, 4
$LN71@xmlXPathRu:

; 14296:     return(1);
; 14297: }

	pop	edi
	pop	esi
	xor	eax, eax
	pop	ebx
	mov	esp, ebp
	pop	ebp
	ret	0
$LN17@xmlXPathRu:
	pop	edi
	pop	esi
	or	eax, -1
	pop	ebx
	mov	esp, ebp
	pop	ebp
	ret	0
	npad	1
$LN139@xmlXPathRu:
	DD	$LN34@xmlXPathRu
	DD	$LN35@xmlXPathRu
$LN119@xmlXPathRu:
	DB	0
	DB	1
	DB	1
	DB	1
	DB	1
	DB	1
	DB	1
	DB	1
	DB	0
	DB	1
	DB	0
	DB	1
	DB	0
	DB	1
	DB	1
	DB	1
	DB	1
	DB	1
	DB	1
	DB	1
	DB	0
	npad	3
$LN140@xmlXPathRu:
	DD	$LN43@xmlXPathRu
	DD	$scan_children$142
$LN120@xmlXPathRu:
	DB	0
	DB	1
	DB	0
	DB	0
	DB	1
	DB	1
	DB	0
	DB	0
_xmlXPathRunStreamEval ENDP
_TEXT	ENDS
; Function compile flags: /Ogtp
; File c:\users\dag\documents\_clients\codeproject authors group\windows on arm\libxml2\libxml2-2.9.9\xpath.c
;	COMDAT _xmlXPathCompOpEvalLast
_TEXT	SEGMENT
_total$1$ = -8						; size = 4
_cur$1$ = -4						; size = 4
_arg2$1$ = 8						; size = 4
_comp$1$ = 8						; size = 4
_ctxt$ = 8						; size = 4
_op$ = 12						; size = 4
_last$ = 16						; size = 4
_xmlXPathCompOpEvalLast PROC				; COMDAT

; 12834: {

	push	ebp
	mov	ebp, esp
	sub	esp, 8
	mov	ecx, OFFSET __9DBA2A81_xpath@c
	push	ebx
	push	esi
	push	edi
	call	@__CheckForDebuggerJustMyCode@4
	mov	esi, DWORD PTR _ctxt$[ebp]
	xor	ebx, ebx
	cmp	DWORD PTR [esi+8], ebx
	jne	$LN31@xmlXPathCo

; 12835:     int total = 0, cur;
; 12836:     xmlXPathCompExprPtr comp;
; 12837:     xmlXPathObjectPtr arg1, arg2;
; 12838: 
; 12839:     CHECK_ERROR0;
; 12840:     comp = ctxt->comp;

	mov	edi, DWORD PTR _op$[ebp]
	mov	edx, DWORD PTR [esi+32]
	mov	DWORD PTR _comp$1$[ebp], edx

; 12841:     switch (op->op) {

	mov	eax, DWORD PTR [edi]
	cmp	eax, 17					; 00000011H
	ja	$LN29@xmlXPathCo
	movzx	eax, BYTE PTR $LN32@xmlXPathCo[eax]
	jmp	DWORD PTR $LN34@xmlXPathCo[eax*4]
$LN6@xmlXPathCo:

; 12842:         case XPATH_OP_END:
; 12843:             return (0);
; 12844:         case XPATH_OP_UNION:
; 12845:             total =

	mov	eax, DWORD PTR [edi+4]
	mov	ebx, DWORD PTR _last$[ebp]
	push	ebx
	lea	ecx, DWORD PTR [eax+eax*4]
	mov	eax, DWORD PTR [edx+8]
	lea	eax, DWORD PTR [eax+ecx*8]
	push	eax
	push	esi
	call	_xmlXPathCompOpEvalLast
	add	esp, 12					; 0000000cH
	mov	DWORD PTR _total$1$[ebp], eax

; 12846:                 xmlXPathCompOpEvalLast(ctxt, &comp->steps[op->ch1], last);
; 12847: 	    CHECK_ERROR0;

	cmp	DWORD PTR [esi+8], 0
	jne	$LN31@xmlXPathCo

; 12848:             if ((ctxt->value != NULL)
; 12849:                 && (ctxt->value->type == XPATH_NODESET)
; 12850:                 && (ctxt->value->nodesetval != NULL)
; 12851:                 && (ctxt->value->nodesetval->nodeNr >= 1)) {

	mov	eax, DWORD PTR [esi+16]
	test	eax, eax
	je	SHORT $LN8@xmlXPathCo
	cmp	DWORD PTR [eax], 1
	jne	SHORT $LN8@xmlXPathCo
	mov	ecx, DWORD PTR [eax+4]
	test	ecx, ecx
	je	SHORT $LN8@xmlXPathCo
	cmp	DWORD PTR [ecx], 1
	jl	SHORT $LN8@xmlXPathCo

; 12852:                 /*
; 12853:                  * limit tree traversing to first node in the result
; 12854:                  */
; 12855: 		if (ctxt->value->nodesetval->nodeNr > 1)

	jle	SHORT $LN9@xmlXPathCo

; 12856: 		    xmlXPathNodeSetSort(ctxt->value->nodesetval);

	push	ecx
	call	_xmlXPathNodeSetSort
	mov	eax, DWORD PTR [esi+16]
	add	esp, 4
$LN9@xmlXPathCo:

; 12857:                 *last =

	mov	eax, DWORD PTR [eax+4]
	mov	ecx, DWORD PTR [eax]
	mov	eax, DWORD PTR [eax+8]
	mov	eax, DWORD PTR [eax+ecx*4-4]
	mov	DWORD PTR [ebx], eax
$LN8@xmlXPathCo:

; 12858:                     ctxt->value->nodesetval->nodeTab[ctxt->value->
; 12859:                                                      nodesetval->nodeNr -
; 12860:                                                      1];
; 12861:             }
; 12862:             cur =

	mov	eax, DWORD PTR [edi+8]
	push	ebx
	lea	ecx, DWORD PTR [eax+eax*4]
	mov	eax, DWORD PTR _comp$1$[ebp]
	mov	eax, DWORD PTR [eax+8]
	lea	eax, DWORD PTR [eax+ecx*8]
	push	eax
	push	esi
	call	_xmlXPathCompOpEvalLast
	add	esp, 12					; 0000000cH
	mov	DWORD PTR _cur$1$[ebp], eax

; 12863:                 xmlXPathCompOpEvalLast(ctxt, &comp->steps[op->ch2], last);
; 12864: 	    CHECK_ERROR0;

	cmp	DWORD PTR [esi+8], 0
	jne	$LN31@xmlXPathCo

; 12865:             if ((ctxt->value != NULL)
; 12866:                 && (ctxt->value->type == XPATH_NODESET)
; 12867:                 && (ctxt->value->nodesetval != NULL)
; 12868:                 && (ctxt->value->nodesetval->nodeNr >= 1)) { /* TODO: NOP ? */
; 12869:             }
; 12870: 
; 12871:             arg2 = valuePop(ctxt);

	push	esi
	call	_valuePop

; 12872:             arg1 = valuePop(ctxt);

	push	esi
	mov	DWORD PTR _arg2$1$[ebp], eax
	call	_valuePop
	mov	ebx, eax
	add	esp, 8

; 12873:             if ((arg1 == NULL) || (arg1->type != XPATH_NODESET) ||
; 12874:                 (arg2 == NULL) || (arg2->type != XPATH_NODESET)) {

	test	ebx, ebx
	je	SHORT $LN13@xmlXPathCo
	cmp	DWORD PTR [ebx], 1
	jne	SHORT $LN13@xmlXPathCo
	mov	eax, DWORD PTR _arg2$1$[ebp]
	test	eax, eax
	je	SHORT $LN13@xmlXPathCo
	cmp	DWORD PTR [eax], 1
	jne	SHORT $LN13@xmlXPathCo

; 12878:             }
; 12879: 
; 12880:             arg1->nodesetval = xmlXPathNodeSetMerge(arg1->nodesetval,

	push	DWORD PTR [eax+4]
	push	DWORD PTR [ebx+4]
	call	_xmlXPathNodeSetMerge

; 12881:                                                     arg2->nodesetval);
; 12882:             valuePush(ctxt, arg1);

	push	ebx
	push	esi
	mov	DWORD PTR [ebx+4], eax
	call	_valuePush

; 12883: 	    xmlXPathReleaseObject(ctxt->context, arg2);

	push	DWORD PTR _arg2$1$[ebp]
	push	DWORD PTR [esi+12]
	call	_xmlXPathReleaseObject

; 12884:             /* optimizer */
; 12885: 	    if (total > cur)

	mov	esi, DWORD PTR _cur$1$[ebp]
	add	esp, 24					; 00000018H
	mov	ebx, DWORD PTR _total$1$[ebp]
	cmp	ebx, esi
	jle	SHORT $LN14@xmlXPathCo

; 12886: 		xmlXPathCompSwap(op);

	push	edi
	call	_xmlXPathCompSwap
	add	esp, 4
$LN14@xmlXPathCo:

; 12887:             return (total + cur);

	pop	edi
	lea	eax, DWORD PTR [esi+ebx]

; 12930:     }
; 12931: }

	pop	esi
	pop	ebx
	mov	esp, ebp
	pop	ebp
	ret	0
$LN13@xmlXPathCo:

; 12875: 	        xmlXPathReleaseObject(ctxt->context, arg1);

	push	ebx
	push	DWORD PTR [esi+12]
	call	_xmlXPathReleaseObject

; 12876: 	        xmlXPathReleaseObject(ctxt->context, arg2);

	push	DWORD PTR _arg2$1$[ebp]
	push	DWORD PTR [esi+12]
	call	_xmlXPathReleaseObject

; 12877:                 XP_ERROR0(XPATH_INVALID_TYPE);

	push	11					; 0000000bH
	push	esi
	call	_xmlXPathErr
	add	esp, 24					; 00000018H
$LN31@xmlXPathCo:

; 12930:     }
; 12931: }

	pop	edi
	pop	esi
	xor	eax, eax
	pop	ebx
	mov	esp, ebp
	pop	ebp
	ret	0
$LN15@xmlXPathCo:

; 12888:         case XPATH_OP_ROOT:
; 12889:             xmlXPathRoot(ctxt);

	push	esi
	call	_xmlXPathRoot
	add	esp, 4

; 12930:     }
; 12931: }

	xor	eax, eax
	pop	edi
	pop	esi
	pop	ebx
	mov	esp, ebp
	pop	ebp
	ret	0
$LN16@xmlXPathCo:

; 12890:             return (0);
; 12891:         case XPATH_OP_NODE:
; 12892:             if (op->ch1 != -1)

	mov	eax, DWORD PTR [edi+4]
	cmp	eax, -1
	je	SHORT $LN18@xmlXPathCo

; 12893:                 total += xmlXPathCompOpEval(ctxt, &comp->steps[op->ch1]);

	lea	ecx, DWORD PTR [eax+eax*4]
	mov	eax, DWORD PTR [edx+8]
	lea	eax, DWORD PTR [eax+ecx*8]
	push	eax
	push	esi
	call	_xmlXPathCompOpEval
	add	esp, 8
	mov	ebx, eax

; 12894: 	    CHECK_ERROR0;

	cmp	DWORD PTR [esi+8], 0
	jne	SHORT $LN31@xmlXPathCo
	mov	edx, DWORD PTR _comp$1$[ebp]
$LN18@xmlXPathCo:

; 12895:             if (op->ch2 != -1)

	mov	ecx, DWORD PTR [edi+8]
	cmp	ecx, -1
	je	SHORT $LN20@xmlXPathCo

; 12896:                 total += xmlXPathCompOpEval(ctxt, &comp->steps[op->ch2]);

	mov	eax, DWORD PTR [edx+8]
	lea	ecx, DWORD PTR [ecx+ecx*4]
	lea	eax, DWORD PTR [eax+ecx*8]
	push	eax
	push	esi
	call	_xmlXPathCompOpEval
	add	esp, 8
	add	ebx, eax

; 12897: 	    CHECK_ERROR0;

	cmp	DWORD PTR [esi+8], 0
	jne	SHORT $LN31@xmlXPathCo
$LN20@xmlXPathCo:

; 12898: 	    valuePush(ctxt, xmlXPathCacheNewNodeSet(ctxt->context,

	mov	eax, DWORD PTR [esi+12]
	push	DWORD PTR [eax+4]
	push	eax
	call	_xmlXPathCacheNewNodeSet
	push	eax
	push	esi
	call	_valuePush
	add	esp, 16					; 00000010H

; 12899: 		ctxt->context->node));
; 12900:             return (total);

	mov	eax, ebx
	pop	edi

; 12930:     }
; 12931: }

	pop	esi
	pop	ebx
	mov	esp, ebp
	pop	ebp
	ret	0
$LN21@xmlXPathCo:

; 12901:         case XPATH_OP_COLLECT:{
; 12902:                 if (op->ch1 == -1)

	mov	eax, DWORD PTR [edi+4]
	cmp	eax, -1
	je	$LN31@xmlXPathCo

; 12903:                     return (0);
; 12904: 
; 12905:                 total += xmlXPathCompOpEval(ctxt, &comp->steps[op->ch1]);

	lea	ecx, DWORD PTR [eax+eax*4]
	mov	eax, DWORD PTR [edx+8]
	lea	eax, DWORD PTR [eax+ecx*8]
	push	eax
	push	esi
	call	_xmlXPathCompOpEval
	add	esp, 8
	mov	ebx, eax

; 12906: 		CHECK_ERROR0;

	cmp	DWORD PTR [esi+8], 0
	jne	$LN31@xmlXPathCo

; 12907: 
; 12908:                 total += xmlXPathNodeCollectAndTest(ctxt, op, NULL, last, 0);

	push	0
	push	DWORD PTR _last$[ebp]
	push	0
	push	edi
	push	esi
	call	_xmlXPathNodeCollectAndTest
	add	esp, 20					; 00000014H
	add	eax, ebx
	pop	edi

; 12930:     }
; 12931: }

	pop	esi
	pop	ebx
	mov	esp, ebp
	pop	ebp
	ret	0
$LN24@xmlXPathCo:

; 12909:                 return (total);
; 12910:             }
; 12911:         case XPATH_OP_VALUE:
; 12912:             valuePush(ctxt,

	push	DWORD PTR [edi+24]
	push	DWORD PTR [esi+12]
	call	_xmlXPathCacheObjectCopy
	push	eax
	push	esi
	call	_valuePush
	add	esp, 16					; 00000010H

; 12930:     }
; 12931: }

	xor	eax, eax
	pop	edi
	pop	esi
	pop	ebx
	mov	esp, ebp
	pop	ebp
	ret	0
$LN25@xmlXPathCo:

; 12913:                       xmlXPathCacheObjectCopy(ctxt->context,
; 12914: 			(xmlXPathObjectPtr) op->value4));
; 12915:             return (0);
; 12916:         case XPATH_OP_SORT:
; 12917:             if (op->ch1 != -1)

	mov	eax, DWORD PTR [edi+4]
	cmp	eax, -1
	je	SHORT $LN27@xmlXPathCo

; 12918:                 total +=

	push	DWORD PTR _last$[ebp]
	lea	ecx, DWORD PTR [eax+eax*4]
	mov	eax, DWORD PTR [edx+8]
	lea	eax, DWORD PTR [eax+ecx*8]
	push	eax
	push	esi
	call	_xmlXPathCompOpEvalLast
	add	esp, 12					; 0000000cH
	mov	ebx, eax

; 12919:                     xmlXPathCompOpEvalLast(ctxt, &comp->steps[op->ch1],
; 12920:                                            last);
; 12921: 	    CHECK_ERROR0;

	cmp	DWORD PTR [esi+8], 0
	jne	$LN31@xmlXPathCo
$LN27@xmlXPathCo:

; 12922:             if ((ctxt->value != NULL)
; 12923:                 && (ctxt->value->type == XPATH_NODESET)
; 12924:                 && (ctxt->value->nodesetval != NULL)
; 12925: 		&& (ctxt->value->nodesetval->nodeNr > 1))

	mov	eax, DWORD PTR [esi+16]
	test	eax, eax
	je	SHORT $LN28@xmlXPathCo
	cmp	DWORD PTR [eax], 1
	jne	SHORT $LN28@xmlXPathCo
	mov	eax, DWORD PTR [eax+4]
	test	eax, eax
	je	SHORT $LN28@xmlXPathCo
	cmp	DWORD PTR [eax], 1
	jle	SHORT $LN28@xmlXPathCo

; 12926:                 xmlXPathNodeSetSort(ctxt->value->nodesetval);

	push	eax
	call	_xmlXPathNodeSetSort
	add	esp, 4
$LN28@xmlXPathCo:

; 12930:     }
; 12931: }

	pop	edi
	pop	esi
	mov	eax, ebx
	pop	ebx
	mov	esp, ebp
	pop	ebp
	ret	0
$LN29@xmlXPathCo:

; 12927:             return (total);
; 12928:         default:
; 12929:             return (xmlXPathCompOpEval(ctxt, op));

	push	edi
	push	esi
	call	_xmlXPathCompOpEval
	add	esp, 8
	pop	edi

; 12930:     }
; 12931: }

	pop	esi
	pop	ebx
	mov	esp, ebp
	pop	ebp
	ret	0
$LN34@xmlXPathCo:
	DD	$LN31@xmlXPathCo
	DD	$LN6@xmlXPathCo
	DD	$LN15@xmlXPathCo
	DD	$LN16@xmlXPathCo
	DD	$LN21@xmlXPathCo
	DD	$LN24@xmlXPathCo
	DD	$LN25@xmlXPathCo
	DD	$LN29@xmlXPathCo
$LN32@xmlXPathCo:
	DB	0
	DB	7
	DB	7
	DB	7
	DB	7
	DB	7
	DB	7
	DB	1
	DB	2
	DB	3
	DB	4
	DB	5
	DB	7
	DB	7
	DB	7
	DB	7
	DB	7
	DB	6
_xmlXPathCompOpEvalLast ENDP
_TEXT	ENDS
; Function compile flags: /Ogtp
; File c:\users\dag\documents\_clients\codeproject authors group\windows on arm\libxml2\libxml2-2.9.9\xpath.c
;	COMDAT _xmlXPathCompOpEvalFilterFirst
_TEXT	SEGMENT
_oldpp$1$ = -40						; size = 4
tv1186 = -40						; size = 4
_oldcs$1$ = -36						; size = 4
_obj$2$ = -36						; size = 4
_oldnode$2$ = -32					; size = 4
_oldnode$1$ = -32					; size = 4
_oldDoc$1$ = -28					; size = 4
_obj$1$ = -28						; size = 4
_oldcs$2$ = -24						; size = 4
tv1184 = -24						; size = 4
_oldpp$2$ = -20						; size = 4
tv1188 = -20						; size = 4
_comp$1$ = -16						; size = 4
_oldset$1$ = -12					; size = 4
_i$1$ = -12						; size = 4
_i$2$ = -8						; size = 4
_oldlocset$1$ = -8					; size = 4
_total$2$ = -4						; size = 4
_newset$1$ = 8						; size = 4
_newlocset$1$ = 8					; size = 4
_last$1 = 8						; size = 4
_ctxt$ = 8						; size = 4
_op$ = 12						; size = 4
_first$ = 16						; size = 4
_xmlXPathCompOpEvalFilterFirst PROC			; COMDAT

; 12937: {

	push	ebp
	mov	ebp, esp
	sub	esp, 40					; 00000028H
	push	ebx
	push	esi
	push	edi
	mov	ecx, OFFSET __9DBA2A81_xpath@c
	call	@__CheckForDebuggerJustMyCode@4
	mov	esi, DWORD PTR _ctxt$[ebp]
	xor	edx, edx
	mov	DWORD PTR _total$2$[ebp], edx
	cmp	DWORD PTR [esi+8], edx
	jne	$LN62@xmlXPathCo

; 12938:     int total = 0;
; 12939:     xmlXPathCompExprPtr comp;
; 12940:     xmlXPathObjectPtr res;
; 12941:     xmlXPathObjectPtr obj;
; 12942:     xmlNodeSetPtr oldset;
; 12943:     xmlNodePtr oldnode;
; 12944:     xmlDocPtr oldDoc;
; 12945:     int oldcs, oldpp;
; 12946:     int i;
; 12947: 
; 12948:     CHECK_ERROR0;
; 12949:     comp = ctxt->comp;

	mov	ebx, DWORD PTR _op$[ebp]
	mov	edi, DWORD PTR [esi+32]
	mov	DWORD PTR _comp$1$[ebp], edi

; 12950:     /*
; 12951:     * Optimization for ()[last()] selection i.e. the last elem
; 12952:     */
; 12953:     if ((op->ch1 != -1) && (op->ch2 != -1) &&
; 12954: 	(comp->steps[op->ch1].op == XPATH_OP_SORT) &&

	mov	eax, DWORD PTR [ebx+4]
	cmp	eax, -1
	je	$LN10@xmlXPathCo
	mov	ecx, DWORD PTR [ebx+8]
	cmp	ecx, -1
	je	$LN10@xmlXPathCo
	mov	edx, DWORD PTR [edi+8]
	lea	eax, DWORD PTR [eax+eax*4]
	cmp	DWORD PTR [edx+eax*8], 17		; 00000011H
	jne	$LN70@xmlXPathCo
	lea	eax, DWORD PTR [ecx+ecx*4]
	cmp	DWORD PTR [edx+eax*8], 17		; 00000011H
	jne	$LN70@xmlXPathCo

; 12955: 	(comp->steps[op->ch2].op == XPATH_OP_SORT)) {
; 12956: 	int f = comp->steps[op->ch2].ch1;

	mov	eax, DWORD PTR [edx+eax*8+4]

; 12957: 
; 12958: 	if ((f != -1) &&
; 12959: 	    (comp->steps[f].op == XPATH_OP_FUNCTION) &&
; 12960: 	    (comp->steps[f].value5 == NULL) &&
; 12961: 	    (comp->steps[f].value == 0) &&
; 12962: 	    (comp->steps[f].value4 != NULL) &&

	cmp	eax, -1
	je	$LN70@xmlXPathCo
	lea	eax, DWORD PTR [eax+eax*4]
	cmp	DWORD PTR [edx+eax*8], 13		; 0000000dH
	jne	$LN70@xmlXPathCo
	cmp	DWORD PTR [edx+eax*8+28], 0
	jne	$LN70@xmlXPathCo
	cmp	DWORD PTR [edx+eax*8+12], 0
	jne	$LN70@xmlXPathCo
	mov	eax, DWORD PTR [edx+eax*8+24]
	test	eax, eax
	je	SHORT $LN70@xmlXPathCo
	push	OFFSET ??_C@_04PLGBGIDD@last@
	push	eax
	call	_xmlStrEqual
	add	esp, 8
	test	eax, eax
	je	SHORT $LN70@xmlXPathCo

; 12963: 	    (xmlStrEqual
; 12964: 	    (comp->steps[f].value4, BAD_CAST "last"))) {
; 12965: 	    xmlNodePtr last = NULL;
; 12966: 
; 12967: 	    total +=

	lea	eax, DWORD PTR _last$1[ebp]
	mov	DWORD PTR _last$1[ebp], 0
	push	eax
	mov	eax, DWORD PTR [ebx+4]
	lea	ecx, DWORD PTR [eax+eax*4]
	mov	eax, DWORD PTR [edi+8]
	lea	eax, DWORD PTR [eax+ecx*8]
	push	eax
	push	esi
	call	_xmlXPathCompOpEvalLast
	add	esp, 12					; 0000000cH
	mov	edi, eax

; 12968: 		xmlXPathCompOpEvalLast(ctxt,
; 12969: 		    &comp->steps[op->ch1],
; 12970: 		    &last);
; 12971: 	    CHECK_ERROR0;

	cmp	DWORD PTR [esi+8], 0
	jne	$LN62@xmlXPathCo

; 12972: 	    /*
; 12973: 	    * The nodeset should be in document order,
; 12974: 	    * Keep only the last value
; 12975: 	    */
; 12976: 	    if ((ctxt->value != NULL) &&
; 12977: 		(ctxt->value->type == XPATH_NODESET) &&
; 12978: 		(ctxt->value->nodesetval != NULL) &&
; 12979: 		(ctxt->value->nodesetval->nodeTab != NULL) &&

	mov	eax, DWORD PTR [esi+16]
	test	eax, eax
	je	SHORT $LN12@xmlXPathCo
	cmp	DWORD PTR [eax], 1
	jne	SHORT $LN12@xmlXPathCo
	mov	eax, DWORD PTR [eax+4]
	test	eax, eax
	je	SHORT $LN12@xmlXPathCo
	cmp	DWORD PTR [eax+8], 0
	je	SHORT $LN12@xmlXPathCo
	cmp	DWORD PTR [eax], 1
	jle	SHORT $LN12@xmlXPathCo

; 12980: 		(ctxt->value->nodesetval->nodeNr > 1)) {
; 12981:                 xmlXPathNodeSetKeepLast(ctxt->value->nodesetval);

	push	eax
	call	_xmlXPathNodeSetKeepLast

; 12982: 		*first = *(ctxt->value->nodesetval->nodeTab);

	mov	eax, DWORD PTR [esi+16]
	add	esp, 4
	mov	eax, DWORD PTR [eax+4]
	mov	eax, DWORD PTR [eax+8]
	mov	ecx, DWORD PTR [eax]
	mov	eax, DWORD PTR _first$[ebp]
	mov	DWORD PTR [eax], ecx
$LN12@xmlXPathCo:

; 12983: 	    }
; 12984: 	    return (total);

	mov	eax, edi
	pop	edi

; 13198:     }
; 13199:     return(total);
; 13200: }

	pop	esi
	pop	ebx
	mov	esp, ebp
	pop	ebp
	ret	0
$LN70@xmlXPathCo:

; 12985: 	}
; 12986:     }
; 12987: 
; 12988:     if (op->ch1 != -1)

	xor	edx, edx
$LN10@xmlXPathCo:
	mov	eax, DWORD PTR [ebx+4]
	cmp	eax, -1
	je	SHORT $LN13@xmlXPathCo

; 12989: 	total += xmlXPathCompOpEval(ctxt, &comp->steps[op->ch1]);

	lea	ecx, DWORD PTR [eax+eax*4]
	mov	eax, DWORD PTR [edi+8]
	lea	eax, DWORD PTR [eax+ecx*8]
	push	eax
	push	esi
	call	_xmlXPathCompOpEval
	add	esp, 8
	mov	DWORD PTR _total$2$[ebp], eax
	mov	edx, eax
$LN13@xmlXPathCo:

; 12990:     CHECK_ERROR0;

	cmp	DWORD PTR [esi+8], 0
	jne	$LN62@xmlXPathCo

; 12991:     if (op->ch2 == -1)

	cmp	DWORD PTR [ebx+8], -1
	je	$LN35@xmlXPathCo

; 12992: 	return (total);
; 12993:     if (ctxt->value == NULL)

	mov	eax, DWORD PTR [esi+16]
	test	eax, eax
	je	$LN35@xmlXPathCo

; 12994: 	return (total);
; 12995: 
; 12996: #ifdef LIBXML_XPTR_ENABLED
; 12997:     /*
; 12998:     * Hum are we filtering the result of an XPointer expression
; 12999:     */
; 13000:     if (ctxt->value->type == XPATH_LOCATIONSET) {

	mov	ecx, DWORD PTR [eax]
	cmp	ecx, 7
	jne	$LN17@xmlXPathCo

; 13001: 	xmlXPathObjectPtr tmp = NULL;
; 13002: 	xmlLocationSetPtr newlocset = NULL;
; 13003: 	xmlLocationSetPtr oldlocset;
; 13004: 
; 13005: 	/*
; 13006: 	* Extract the old locset, and then evaluate the result of the
; 13007: 	* expression for all the element in the locset. use it to grow
; 13008: 	* up a new locset.
; 13009: 	*/
; 13010: 	CHECK_TYPE0(XPATH_LOCATIONSET);
; 13011: 
; 13012: 	if ((ctxt->value->user == NULL) ||

	mov	eax, DWORD PTR [eax+28]
	xor	edi, edi
	test	eax, eax
	je	$LN35@xmlXPathCo
	cmp	DWORD PTR [eax], edi
	je	$LN35@xmlXPathCo

; 13013:             (((xmlLocationSetPtr) ctxt->value->user)->locNr == 0))
; 13014: 	    return (total);
; 13015: 
; 13016: 	obj = valuePop(ctxt);

	push	esi
	call	_valuePop

; 13017: 	oldlocset = obj->user;
; 13018:         oldnode = ctxt->context->node;

	mov	ecx, DWORD PTR [esi+12]
	mov	DWORD PTR _obj$1$[ebp], eax

; 13019:         oldcs = ctxt->context->contextSize;
; 13020:         oldpp = ctxt->context->proximityPosition;
; 13021: 
; 13022: 	newlocset = xmlXPtrLocationSetCreate(NULL);

	push	edi
	mov	ebx, DWORD PTR [eax+28]
	mov	eax, DWORD PTR [ecx+4]
	mov	DWORD PTR _oldnode$1$[ebp], eax
	mov	eax, DWORD PTR [ecx+68]
	mov	DWORD PTR _oldcs$1$[ebp], eax
	mov	eax, DWORD PTR [ecx+72]
	mov	DWORD PTR _oldlocset$1$[ebp], ebx
	mov	DWORD PTR _oldpp$1$[ebp], eax
	call	_xmlXPtrLocationSetCreate

; 13023: 
; 13024: 	for (i = 0; i < oldlocset->locNr; i++) {

	xor	edx, edx
	mov	DWORD PTR _newlocset$1$[ebp], eax
	add	esp, 8
	mov	DWORD PTR _i$1$[ebp], edx
	cmp	DWORD PTR [ebx], edx
	jle	$LN32@xmlXPathCo
	npad	9
$LL4@xmlXPathCo:

; 13025: 	    /*
; 13026: 	    * Run the evaluation with a node list made of a
; 13027: 	    * single item in the nodelocset.
; 13028: 	    */
; 13029: 	    ctxt->context->node = oldlocset->locTab[i]->user;

	mov	eax, DWORD PTR [ebx+8]
	lea	ecx, DWORD PTR [edx*4]
	mov	DWORD PTR tv1188[ebp], ecx
	mov	eax, DWORD PTR [ecx+eax]
	mov	ecx, DWORD PTR [esi+12]
	mov	eax, DWORD PTR [eax+28]
	mov	DWORD PTR [ecx+4], eax

; 13030: 	    ctxt->context->contextSize = oldlocset->locNr;

	mov	ecx, DWORD PTR [esi+12]
	mov	eax, DWORD PTR [ebx]
	mov	DWORD PTR [ecx+68], eax

; 13031: 	    ctxt->context->proximityPosition = i + 1;

	lea	ecx, DWORD PTR [edx+1]
	mov	eax, DWORD PTR [esi+12]
	mov	DWORD PTR tv1184[ebp], ecx
	mov	DWORD PTR [eax+72], ecx
	mov	ecx, DWORD PTR [esi+12]
	mov	eax, DWORD PTR [ecx+4]

; 13032: 	    if (tmp == NULL) {

	push	eax
	test	edi, edi
	jne	SHORT $LN22@xmlXPathCo

; 13033: 		tmp = xmlXPathCacheNewNodeSet(ctxt->context,

	push	ecx
	call	_xmlXPathCacheNewNodeSet
	add	esp, 8
	mov	edi, eax

; 13034: 		    ctxt->context->node);
; 13035: 	    } else {

	jmp	SHORT $LN24@xmlXPathCo
$LN22@xmlXPathCo:

; 13036: 		if (xmlXPathNodeSetAddUnique(tmp->nodesetval,
; 13037: 		                             ctxt->context->node) < 0) {

	push	DWORD PTR [edi+4]
	call	_xmlXPathNodeSetAddUnique
	add	esp, 8
	test	eax, eax
	jns	SHORT $LN24@xmlXPathCo

; 13038: 		    ctxt->error = XPATH_MEMORY_ERROR;

	mov	DWORD PTR [esi+8], 15			; 0000000fH
$LN24@xmlXPathCo:

; 13039: 		}
; 13040: 	    }
; 13041: 	    valuePush(ctxt, tmp);

	push	edi
	push	esi
	call	_valuePush

; 13042: 	    if (op->ch2 != -1)

	mov	eax, DWORD PTR _op$[ebp]
	add	esp, 8
	mov	eax, DWORD PTR [eax+8]
	cmp	eax, -1
	je	SHORT $LN25@xmlXPathCo

; 13043: 		total += xmlXPathCompOpEval(ctxt, &comp->steps[op->ch2]);

	lea	ecx, DWORD PTR [eax+eax*4]
	mov	eax, DWORD PTR _comp$1$[ebp]
	mov	eax, DWORD PTR [eax+8]
	lea	eax, DWORD PTR [eax+ecx*8]
	push	eax
	push	esi
	call	_xmlXPathCompOpEval
	add	esp, 8
	add	DWORD PTR _total$2$[ebp], eax
$LN25@xmlXPathCo:

; 13044: 	    if (ctxt->error != XPATH_EXPRESSION_OK) {

	cmp	DWORD PTR [esi+8], 0
	jne	$LN52@xmlXPathCo

; 13047: 	    }
; 13048: 	    /*
; 13049: 	    * The result of the evaluation need to be tested to
; 13050: 	    * decided whether the filter succeeded or not
; 13051: 	    */
; 13052: 	    res = valuePop(ctxt);

	push	esi
	call	_valuePop
	mov	ebx, eax

; 13053: 	    if (xmlXPathEvaluatePredicateResult(ctxt, res)) {

	push	ebx
	push	esi
	call	_xmlXPathEvaluatePredicateResult
	add	esp, 12					; 0000000cH
	test	eax, eax
	je	SHORT $LN27@xmlXPathCo

; 13054: 		xmlXPtrLocationSetAdd(newlocset,

	mov	ecx, DWORD PTR _oldlocset$1$[ebp]
	mov	eax, DWORD PTR tv1188[ebp]
	mov	ecx, DWORD PTR [ecx+8]
	push	DWORD PTR [eax+ecx]
	push	DWORD PTR [esi+12]
	call	_xmlXPathCacheObjectCopy
	push	eax
	push	DWORD PTR _newlocset$1$[ebp]
	call	_xmlXPtrLocationSetAdd
	add	esp, 16					; 00000010H
$LN27@xmlXPathCo:

; 13055: 		    xmlXPathCacheObjectCopy(ctxt->context,
; 13056: 			oldlocset->locTab[i]));
; 13057: 	    }
; 13058: 	    /*
; 13059: 	    * Cleanup
; 13060: 	    */
; 13061: 	    if (res != NULL) {

	test	ebx, ebx
	je	SHORT $LN28@xmlXPathCo

; 13062: 		xmlXPathReleaseObject(ctxt->context, res);

	push	ebx
	push	DWORD PTR [esi+12]
	call	_xmlXPathReleaseObject
	add	esp, 8
$LN28@xmlXPathCo:

; 13063: 	    }
; 13064: 	    if (ctxt->value == tmp) {

	cmp	DWORD PTR [esi+16], edi
	jne	SHORT $LN29@xmlXPathCo

; 13065: 		valuePop(ctxt);

	push	esi
	call	_valuePop

; 13066: 		xmlXPathNodeSetClear(tmp->nodesetval, 1);

	push	1
	push	DWORD PTR [edi+4]
	call	_xmlXPathNodeSetClear
	add	esp, 12					; 0000000cH

; 13067: 		/*
; 13068: 		* REVISIT TODO: Don't create a temporary nodeset
; 13069: 		* for everly iteration.
; 13070: 		*/
; 13071: 		/* OLD: xmlXPathFreeObject(res); */
; 13072: 	    } else

	jmp	SHORT $LN30@xmlXPathCo
$LN29@xmlXPathCo:

; 13073: 		tmp = NULL;

	xor	edi, edi
$LN30@xmlXPathCo:

; 13074: 	    /*
; 13075: 	    * Only put the first node in the result, then leave.
; 13076: 	    */
; 13077: 	    if (newlocset->locNr > 0) {

	mov	eax, DWORD PTR _newlocset$1$[ebp]
	cmp	DWORD PTR [eax], 0
	jg	SHORT $LN53@xmlXPathCo

; 13023: 
; 13024: 	for (i = 0; i < oldlocset->locNr; i++) {

	mov	ebx, DWORD PTR _oldlocset$1$[ebp]
	mov	edx, DWORD PTR tv1184[ebp]
	mov	DWORD PTR _i$1$[ebp], edx
	cmp	edx, DWORD PTR [ebx]
	jl	$LL4@xmlXPathCo

; 13177: 	    /*
; 13178: 	    * Only put the first node in the result, then leave.
; 13179: 	    */
; 13180: 	    if (newset->nodeNr > 0) {

	jmp	SHORT $LN3@xmlXPathCo
$LN53@xmlXPathCo:

; 13078: 		*first = (xmlNodePtr) oldlocset->locTab[i]->user;

	mov	eax, DWORD PTR _oldlocset$1$[ebp]
	mov	ecx, DWORD PTR _i$1$[ebp]
	mov	eax, DWORD PTR [eax+8]
	mov	eax, DWORD PTR [eax+ecx*4]
	mov	ecx, DWORD PTR [eax+28]
	mov	eax, DWORD PTR _first$[ebp]
	mov	DWORD PTR [eax], ecx
$LN3@xmlXPathCo:

; 13079: 		break;
; 13080: 	    }
; 13081: 	}
; 13082: 	if (tmp != NULL) {

	test	edi, edi
	je	SHORT $LN32@xmlXPathCo

; 13083: 	    xmlXPathReleaseObject(ctxt->context, tmp);

	push	edi
	push	DWORD PTR [esi+12]
	call	_xmlXPathReleaseObject
	add	esp, 8
$LN32@xmlXPathCo:

; 13084: 	}
; 13085: 	/*
; 13086: 	* The result is used as the new evaluation locset.
; 13087: 	*/
; 13088: 	valuePush(ctxt, xmlXPtrWrapLocationSet(newlocset));

	push	DWORD PTR _newlocset$1$[ebp]
	call	_xmlXPtrWrapLocationSet
	push	eax
	push	esi
	call	_valuePush
	add	esp, 12					; 0000000cH
$xptr_error$72:

; 13089: xptr_error:
; 13090: 	xmlXPathReleaseObject(ctxt->context, obj);

	push	DWORD PTR _obj$1$[ebp]
	push	DWORD PTR [esi+12]
	call	_xmlXPathReleaseObject

; 13091: 	ctxt->context->node = oldnode;

	mov	eax, DWORD PTR [esi+12]
	add	esp, 8
	mov	ecx, DWORD PTR _oldnode$1$[ebp]
	mov	DWORD PTR [eax+4], ecx

; 13092: 	ctxt->context->contextSize = oldcs;

	mov	eax, DWORD PTR [esi+12]
	mov	ecx, DWORD PTR _oldcs$1$[ebp]
	pop	edi
	mov	DWORD PTR [eax+68], ecx

; 13093: 	ctxt->context->proximityPosition = oldpp;

	mov	eax, DWORD PTR [esi+12]
	mov	ecx, DWORD PTR _oldpp$1$[ebp]

; 13198:     }
; 13199:     return(total);
; 13200: }

	pop	esi
	pop	ebx
	mov	DWORD PTR [eax+72], ecx
	mov	eax, DWORD PTR _total$2$[ebp]
	mov	esp, ebp
	pop	ebp
	ret	0
$LN52@xmlXPathCo:

; 13045:                 xmlXPtrFreeLocationSet(newlocset);

	push	DWORD PTR _newlocset$1$[ebp]
	call	_xmlXPtrFreeLocationSet
	add	esp, 4

; 13046:                 goto xptr_error;

	jmp	SHORT $xptr_error$72
$LN17@xmlXPathCo:

; 13094: 	return (total);
; 13095:     }
; 13096: #endif /* LIBXML_XPTR_ENABLED */
; 13097: 
; 13098:     /*
; 13099:     * Extract the old set, and then evaluate the result of the
; 13100:     * expression for all the element in the set. use it to grow
; 13101:     * up a new set.
; 13102:     */
; 13103:     CHECK_TYPE0(XPATH_NODESET);

	cmp	ecx, 1
	jne	$LN34@xmlXPathCo

; 13104: 
; 13105:     if ((ctxt->value->nodesetval != NULL) &&

	mov	eax, DWORD PTR [eax+4]
	test	eax, eax
	je	$LN35@xmlXPathCo
	cmp	DWORD PTR [eax], 0
	je	$LN35@xmlXPathCo

; 13106:         (ctxt->value->nodesetval->nodeNr != 0)) {
; 13107: 	xmlNodeSetPtr newset;
; 13108: 	xmlXPathObjectPtr tmp = NULL;
; 13109: 
; 13110:         obj = valuePop(ctxt);

	push	esi
	xor	edi, edi
	call	_valuePop

; 13111:         oldset = obj->nodesetval;
; 13112:         oldnode = ctxt->context->node;

	mov	ecx, DWORD PTR [esi+12]
	mov	DWORD PTR _obj$2$[ebp], eax

; 13113:         oldDoc = ctxt->context->doc;
; 13114:         oldcs = ctxt->context->contextSize;
; 13115:         oldpp = ctxt->context->proximityPosition;
; 13116: 
; 13117: 	/*
; 13118: 	* Initialize the new set.
; 13119: 	* Also set the xpath document in case things like
; 13120: 	* key() evaluation are attempted on the predicate
; 13121: 	*/
; 13122: 	newset = xmlXPathNodeSetCreate(NULL);

	push	edi
	mov	ebx, DWORD PTR [eax+4]
	mov	eax, DWORD PTR [ecx+4]
	mov	DWORD PTR _oldnode$2$[ebp], eax
	mov	eax, DWORD PTR [ecx]
	mov	DWORD PTR _oldDoc$1$[ebp], eax
	mov	eax, DWORD PTR [ecx+68]
	mov	DWORD PTR _oldcs$2$[ebp], eax
	mov	eax, DWORD PTR [ecx+72]
	mov	DWORD PTR _oldset$1$[ebp], ebx
	mov	DWORD PTR _oldpp$2$[ebp], eax
	call	_xmlXPathNodeSetCreate

; 13123:         /* XXX what if xmlXPathNodeSetCreate returned NULL? */
; 13124: 
; 13125: 	for (i = 0; i < oldset->nodeNr; i++) {

	xor	ecx, ecx
	mov	DWORD PTR _newset$1$[ebp], eax
	add	esp, 8
	mov	DWORD PTR _i$2$[ebp], ecx
	cmp	DWORD PTR [ebx], ecx
	jle	$LN48@xmlXPathCo
	npad	9
$LL7@xmlXPathCo:

; 13126: 	    /*
; 13127: 	    * Run the evaluation with a node list made of
; 13128: 	    * a single item in the nodeset.
; 13129: 	    */
; 13130: 	    ctxt->context->node = oldset->nodeTab[i];

	mov	eax, DWORD PTR [ebx+8]
	lea	edx, DWORD PTR [ecx*4]
	mov	ecx, DWORD PTR [esi+12]
	mov	DWORD PTR tv1186[ebp], edx
	mov	eax, DWORD PTR [edx+eax]
	mov	DWORD PTR [ecx+4], eax

; 13131: 	    if ((oldset->nodeTab[i]->type != XML_NAMESPACE_DECL) &&

	mov	eax, DWORD PTR [ebx+8]
	mov	ecx, DWORD PTR [edx+eax]
	cmp	DWORD PTR [ecx+4], 18			; 00000012H
	je	SHORT $LN36@xmlXPathCo
	mov	ecx, DWORD PTR [ecx+32]
	test	ecx, ecx
	je	SHORT $LN36@xmlXPathCo

; 13132: 		(oldset->nodeTab[i]->doc != NULL))
; 13133: 		ctxt->context->doc = oldset->nodeTab[i]->doc;

	mov	eax, DWORD PTR [esi+12]
	mov	DWORD PTR [eax], ecx
$LN36@xmlXPathCo:

; 13134: 	    if (tmp == NULL) {

	mov	eax, DWORD PTR [esi+12]
	mov	ecx, DWORD PTR [eax+4]
	push	ecx
	test	edi, edi
	jne	SHORT $LN37@xmlXPathCo

; 13135: 		tmp = xmlXPathCacheNewNodeSet(ctxt->context,

	push	eax
	call	_xmlXPathCacheNewNodeSet
	add	esp, 8
	mov	edi, eax

; 13136: 		    ctxt->context->node);
; 13137: 	    } else {

	jmp	SHORT $LN39@xmlXPathCo
$LN37@xmlXPathCo:

; 13138: 		if (xmlXPathNodeSetAddUnique(tmp->nodesetval,
; 13139: 		                             ctxt->context->node) < 0) {

	push	DWORD PTR [edi+4]
	call	_xmlXPathNodeSetAddUnique
	add	esp, 8
	test	eax, eax
	jns	SHORT $LN39@xmlXPathCo

; 13140: 		    ctxt->error = XPATH_MEMORY_ERROR;

	mov	DWORD PTR [esi+8], 15			; 0000000fH
$LN39@xmlXPathCo:

; 13141: 		}
; 13142: 	    }
; 13143: 	    valuePush(ctxt, tmp);

	push	edi
	push	esi
	call	_valuePush

; 13144: 	    ctxt->context->contextSize = oldset->nodeNr;

	mov	ecx, DWORD PTR [esi+12]
	add	esp, 8
	mov	eax, DWORD PTR [ebx]
	mov	DWORD PTR [ecx+68], eax

; 13145: 	    ctxt->context->proximityPosition = i + 1;

	mov	eax, DWORD PTR [esi+12]
	mov	ecx, DWORD PTR _i$2$[ebp]
	inc	ecx
	mov	DWORD PTR _i$2$[ebp], ecx
	mov	DWORD PTR [eax+72], ecx

; 13146: 	    if (op->ch2 != -1)

	mov	eax, DWORD PTR _op$[ebp]
	mov	eax, DWORD PTR [eax+8]
	cmp	eax, -1
	je	SHORT $LN40@xmlXPathCo

; 13147: 		total += xmlXPathCompOpEval(ctxt, &comp->steps[op->ch2]);

	lea	ecx, DWORD PTR [eax+eax*4]
	mov	eax, DWORD PTR _comp$1$[ebp]
	mov	eax, DWORD PTR [eax+8]
	lea	eax, DWORD PTR [eax+ecx*8]
	push	eax
	push	esi
	call	_xmlXPathCompOpEval
	add	esp, 8
	add	DWORD PTR _total$2$[ebp], eax
$LN40@xmlXPathCo:

; 13148: 	    if (ctxt->error != XPATH_EXPRESSION_OK) {

	cmp	DWORD PTR [esi+8], 0
	jne	$LN54@xmlXPathCo

; 13151: 	    }
; 13152: 	    /*
; 13153: 	    * The result of the evaluation needs to be tested to
; 13154: 	    * decide whether the filter succeeded or not
; 13155: 	    */
; 13156: 	    res = valuePop(ctxt);

	push	esi
	call	_valuePop
	mov	ebx, eax

; 13157: 	    if (xmlXPathEvaluatePredicateResult(ctxt, res)) {

	push	ebx
	push	esi
	call	_xmlXPathEvaluatePredicateResult
	add	esp, 12					; 0000000cH
	test	eax, eax
	je	SHORT $LN43@xmlXPathCo

; 13158: 		if (xmlXPathNodeSetAdd(newset, oldset->nodeTab[i]) < 0)

	mov	ecx, DWORD PTR _oldset$1$[ebp]
	mov	eax, DWORD PTR tv1186[ebp]
	mov	ecx, DWORD PTR [ecx+8]
	push	DWORD PTR [eax+ecx]
	push	DWORD PTR _newset$1$[ebp]
	call	_xmlXPathNodeSetAdd
	add	esp, 8
	test	eax, eax
	jns	SHORT $LN43@xmlXPathCo

; 13159: 		    ctxt->error = XPATH_MEMORY_ERROR;

	mov	DWORD PTR [esi+8], 15			; 0000000fH
$LN43@xmlXPathCo:

; 13160: 	    }
; 13161: 	    /*
; 13162: 	    * Cleanup
; 13163: 	    */
; 13164: 	    if (res != NULL) {

	test	ebx, ebx
	je	SHORT $LN44@xmlXPathCo

; 13165: 		xmlXPathReleaseObject(ctxt->context, res);

	push	ebx
	push	DWORD PTR [esi+12]
	call	_xmlXPathReleaseObject
	add	esp, 8
$LN44@xmlXPathCo:

; 13166: 	    }
; 13167: 	    if (ctxt->value == tmp) {

	cmp	DWORD PTR [esi+16], edi
	jne	SHORT $LN45@xmlXPathCo

; 13168: 		valuePop(ctxt);

	push	esi
	call	_valuePop

; 13169: 		/*
; 13170: 		* Don't free the temporary nodeset
; 13171: 		* in order to avoid massive recreation inside this
; 13172: 		* loop.
; 13173: 		*/
; 13174: 		xmlXPathNodeSetClear(tmp->nodesetval, 1);

	push	1
	push	DWORD PTR [edi+4]
	call	_xmlXPathNodeSetClear
	add	esp, 12					; 0000000cH

; 13175: 	    } else

	jmp	SHORT $LN46@xmlXPathCo
$LN45@xmlXPathCo:

; 13176: 		tmp = NULL;

	xor	edi, edi
$LN46@xmlXPathCo:

; 13177: 	    /*
; 13178: 	    * Only put the first node in the result, then leave.
; 13179: 	    */
; 13180: 	    if (newset->nodeNr > 0) {

	mov	eax, DWORD PTR _newset$1$[ebp]
	cmp	DWORD PTR [eax], 0
	jg	SHORT $LN55@xmlXPathCo

; 13123:         /* XXX what if xmlXPathNodeSetCreate returned NULL? */
; 13124: 
; 13125: 	for (i = 0; i < oldset->nodeNr; i++) {

	mov	ebx, DWORD PTR _oldset$1$[ebp]
	mov	ecx, DWORD PTR _i$2$[ebp]
	cmp	ecx, DWORD PTR [ebx]
	jl	$LL7@xmlXPathCo

; 13177: 	    /*
; 13178: 	    * Only put the first node in the result, then leave.
; 13179: 	    */
; 13180: 	    if (newset->nodeNr > 0) {

	jmp	SHORT $LN6@xmlXPathCo
$LN55@xmlXPathCo:

; 13181: 		*first = *(newset->nodeTab);

	mov	eax, DWORD PTR [eax+8]
	mov	ecx, DWORD PTR [eax]
	mov	eax, DWORD PTR _first$[ebp]
	mov	DWORD PTR [eax], ecx
	mov	eax, DWORD PTR _newset$1$[ebp]
$LN6@xmlXPathCo:

; 13182: 		break;
; 13183: 	    }
; 13184: 	}
; 13185: 	if (tmp != NULL) {

	test	edi, edi
	je	SHORT $LN48@xmlXPathCo

; 13186: 	    xmlXPathReleaseObject(ctxt->context, tmp);

	push	edi
	push	DWORD PTR [esi+12]
	call	_xmlXPathReleaseObject
	mov	eax, DWORD PTR _newset$1$[ebp]
	add	esp, 8
$LN48@xmlXPathCo:

; 13187: 	}
; 13188: 	/*
; 13189: 	* The result is used as the new evaluation set.
; 13190: 	*/
; 13191: 	valuePush(ctxt, xmlXPathCacheWrapNodeSet(ctxt->context, newset));

	push	eax
	push	DWORD PTR [esi+12]
	call	_xmlXPathCacheWrapNodeSet
	push	eax
	push	esi
	call	_valuePush
	add	esp, 16					; 00000010H
$error$73:

; 13192: error:
; 13193: 	xmlXPathReleaseObject(ctxt->context, obj);

	push	DWORD PTR _obj$2$[ebp]
	push	DWORD PTR [esi+12]
	call	_xmlXPathReleaseObject

; 13194: 	ctxt->context->node = oldnode;

	mov	eax, DWORD PTR [esi+12]
	add	esp, 8
	mov	ecx, DWORD PTR _oldnode$2$[ebp]
	mov	edx, DWORD PTR _total$2$[ebp]
	mov	DWORD PTR [eax+4], ecx

; 13195: 	ctxt->context->doc = oldDoc;

	mov	eax, DWORD PTR [esi+12]
	mov	ecx, DWORD PTR _oldDoc$1$[ebp]
	mov	DWORD PTR [eax], ecx

; 13196: 	ctxt->context->contextSize = oldcs;

	mov	eax, DWORD PTR [esi+12]
	mov	ecx, DWORD PTR _oldcs$2$[ebp]
	mov	DWORD PTR [eax+68], ecx

; 13197: 	ctxt->context->proximityPosition = oldpp;

	mov	eax, DWORD PTR [esi+12]
	mov	ecx, DWORD PTR _oldpp$2$[ebp]
	mov	DWORD PTR [eax+72], ecx
$LN35@xmlXPathCo:

; 13198:     }
; 13199:     return(total);
; 13200: }

	pop	edi
	pop	esi
	mov	eax, edx
	pop	ebx
	mov	esp, ebp
	pop	ebp
	ret	0
$LN54@xmlXPathCo:

; 13149: 		xmlXPathFreeNodeSet(newset);

	push	DWORD PTR _newset$1$[ebp]
	call	_xmlXPathFreeNodeSet
	add	esp, 4

; 13150:                 goto error;

	jmp	SHORT $error$73
$LN34@xmlXPathCo:

; 13094: 	return (total);
; 13095:     }
; 13096: #endif /* LIBXML_XPTR_ENABLED */
; 13097: 
; 13098:     /*
; 13099:     * Extract the old set, and then evaluate the result of the
; 13100:     * expression for all the element in the set. use it to grow
; 13101:     * up a new set.
; 13102:     */
; 13103:     CHECK_TYPE0(XPATH_NODESET);

	push	11					; 0000000bH
	push	esi
	call	_xmlXPathErr
	add	esp, 8
$LN62@xmlXPathCo:

; 13198:     }
; 13199:     return(total);
; 13200: }

	pop	edi
	pop	esi
	xor	eax, eax
	pop	ebx
	mov	esp, ebp
	pop	ebp
	ret	0
_xmlXPathCompOpEvalFilterFirst ENDP
_TEXT	ENDS
; Function compile flags: /Ogtp
; File c:\users\dag\documents\_clients\codeproject authors group\windows on arm\libxml2\libxml2-2.9.9\xpath.c
;	COMDAT _xmlXPathNodeCollectAndTest
_TEXT	SEGMENT
_oldContextNode$1$ = -92				; size = 4
_contextSeq$1$ = -88					; size = 4
_hasPredicateRange$1$ = -84				; size = 4
_type$1$ = -80						; size = 4
_test$1$ = -76						; size = 4
_obj$1$ = -72						; size = 4
_name$1$ = -68						; size = 4
_axis$1$ = -64						; size = 4
_URI$1$ = -60						; size = 4
_prefix$1$ = -56					; size = 4
_contextIdx$1$ = -52					; size = 4
_hasNsNodes$1$ = -48					; size = 4
_mergeAndClear$1$ = -44					; size = 4
_total$1$ = -40						; size = 4
_predOp$1$ = -36					; size = 4
_last$1$ = -32						; size = 4
_first$1$ = -28						; size = 4
_next$1$ = -24						; size = 4
_outSeq$1$ = -20					; size = 4
_breakOnFirstHit$1$ = -16				; size = 4
_hasAxisRange$1$ = -12					; size = 4
_maxPos$1$ = -8						; size = 4
_seq$1$ = -4						; size = 4
_ctxt$ = 8						; size = 4
_xpctxt$1$ = 12						; size = 4
_op$ = 12						; size = 4
_first$ = 16						; size = 4
_last$ = 20						; size = 4
_toBool$ = 24						; size = 4
_xmlXPathNodeCollectAndTest PROC			; COMDAT

; 12060: {

	push	ebp
	mov	ebp, esp
	sub	esp, 92					; 0000005cH
	push	ebx
	push	esi
	push	edi
	mov	ecx, OFFSET __9DBA2A81_xpath@c
	call	@__CheckForDebuggerJustMyCode@4
	mov	esi, DWORD PTR _op$[ebp]
	mov	ebx, DWORD PTR _ctxt$[ebp]
	mov	DWORD PTR _URI$1$[ebp], 0
	mov	eax, DWORD PTR [esi+12]
	mov	edi, DWORD PTR [ebx+12]
	mov	DWORD PTR _axis$1$[ebp], eax
	mov	eax, DWORD PTR [esi+16]
	mov	DWORD PTR _test$1$[ebp], eax
	mov	eax, DWORD PTR [esi+20]
	mov	DWORD PTR _type$1$[ebp], eax
	mov	eax, DWORD PTR [esi+24]
	mov	DWORD PTR _prefix$1$[ebp], eax
	mov	eax, DWORD PTR [esi+28]
	mov	DWORD PTR _name$1$[ebp], eax
	xor	eax, eax
	mov	DWORD PTR _total$1$[ebp], eax
	mov	eax, DWORD PTR [ebx+16]
	mov	DWORD PTR _xpctxt$1$[ebp], edi
	test	eax, eax
	je	$LN16@xmlXPathNo

; 12061: 
; 12062: #define XP_TEST_HIT \
; 12063:     if (hasAxisRange != 0) { \
; 12064: 	if (++pos == maxPos) { \
; 12065: 	    if (addNode(seq, cur) < 0) \
; 12066: 	        ctxt->error = XPATH_MEMORY_ERROR; \
; 12067: 	    goto axis_range_end; } \
; 12068:     } else { \
; 12069: 	if (addNode(seq, cur) < 0) \
; 12070: 	    ctxt->error = XPATH_MEMORY_ERROR; \
; 12071: 	if (breakOnFirstHit) goto first_hit; }
; 12072: 
; 12073: #define XP_TEST_HIT_NS \
; 12074:     if (hasAxisRange != 0) { \
; 12075: 	if (++pos == maxPos) { \
; 12076: 	    hasNsNodes = 1; \
; 12077: 	    if (xmlXPathNodeSetAddNs(seq, xpctxt->node, (xmlNsPtr) cur) < 0) \
; 12078: 	        ctxt->error = XPATH_MEMORY_ERROR; \
; 12079: 	goto axis_range_end; } \
; 12080:     } else { \
; 12081: 	hasNsNodes = 1; \
; 12082: 	if (xmlXPathNodeSetAddNs(seq, xpctxt->node, (xmlNsPtr) cur) < 0) \
; 12083: 	    ctxt->error = XPATH_MEMORY_ERROR; \
; 12084: 	if (breakOnFirstHit) goto first_hit; }
; 12085: 
; 12086:     xmlXPathAxisVal axis = (xmlXPathAxisVal) op->value;
; 12087:     xmlXPathTestVal test = (xmlXPathTestVal) op->value2;
; 12088:     xmlXPathTypeVal type = (xmlXPathTypeVal) op->value3;
; 12089:     const xmlChar *prefix = op->value4;
; 12090:     const xmlChar *name = op->value5;
; 12091:     const xmlChar *URI = NULL;
; 12092: 
; 12093: #ifdef DEBUG_STEP
; 12094:     int nbMatches = 0, prevMatches = 0;
; 12095: #endif
; 12096:     int total = 0, hasNsNodes = 0;
; 12097:     /* The popped object holding the context nodes */
; 12098:     xmlXPathObjectPtr obj;
; 12099:     /* The set of context nodes for the node tests */
; 12100:     xmlNodeSetPtr contextSeq;
; 12101:     int contextIdx;
; 12102:     xmlNodePtr contextNode;
; 12103:     /* The final resulting node set wrt to all context nodes */
; 12104:     xmlNodeSetPtr outSeq;
; 12105:     /*
; 12106:     * The temporary resulting node set wrt 1 context node.
; 12107:     * Used to feed predicate evaluation.
; 12108:     */
; 12109:     xmlNodeSetPtr seq;
; 12110:     xmlNodePtr cur;
; 12111:     /* First predicate operator */
; 12112:     xmlXPathStepOpPtr predOp;
; 12113:     int maxPos; /* The requested position() (when a "[n]" predicate) */
; 12114:     int hasPredicateRange, hasAxisRange, pos, size, newSize;
; 12115:     int breakOnFirstHit;
; 12116: 
; 12117:     xmlXPathTraversalFunction next = NULL;
; 12118:     int (*addNode) (xmlNodeSetPtr, xmlNodePtr);
; 12119:     xmlXPathNodeSetMergeFunction mergeAndClear;
; 12120:     xmlNodePtr oldContextNode;
; 12121:     xmlXPathContextPtr xpctxt = ctxt->context;
; 12122: 
; 12123: 
; 12124:     CHECK_TYPE0(XPATH_NODESET);

	cmp	DWORD PTR [eax], 1
	jne	$LN16@xmlXPathNo

; 12125:     obj = valuePop(ctxt);

	push	ebx
	call	_valuePop
	mov	ecx, eax
	add	esp, 4

; 12126:     /*
; 12127:     * Setup namespaces.
; 12128:     */
; 12129:     if (prefix != NULL) {

	mov	eax, DWORD PTR _prefix$1$[ebp]
	mov	DWORD PTR _obj$1$[ebp], ecx
	test	eax, eax
	je	SHORT $LN18@xmlXPathNo

; 12130:         URI = xmlXPathNsLookup(xpctxt, prefix);

	push	eax
	push	edi
	call	_xmlXPathNsLookup
	add	esp, 8
	mov	DWORD PTR _URI$1$[ebp], eax

; 12131:         if (URI == NULL) {

	test	eax, eax
	jne	SHORT $LN343@xmlXPathNo

; 12132: 	    xmlXPathReleaseObject(xpctxt, obj);

	push	DWORD PTR _obj$1$[ebp]
	push	edi
	call	_xmlXPathReleaseObject

; 12133:             XP_ERROR0(XPATH_UNDEF_PREFIX_ERROR);

	push	19					; 00000013H
	push	ebx
	call	_xmlXPathErr
	add	esp, 16					; 00000010H

; 12695: }

	xor	eax, eax
	pop	edi
	pop	esi
	pop	ebx
	mov	esp, ebp
	pop	ebp
	ret	0
$LN343@xmlXPathNo:

; 12131:         if (URI == NULL) {

	mov	ecx, DWORD PTR _obj$1$[ebp]
$LN18@xmlXPathNo:

; 12134: 	}
; 12135:     }
; 12136:     /*
; 12137:     * Setup axis.
; 12138:     *
; 12139:     * MAYBE FUTURE TODO: merging optimizations:
; 12140:     * - If the nodes to be traversed wrt to the initial nodes and
; 12141:     *   the current axis cannot overlap, then we could avoid searching
; 12142:     *   for duplicates during the merge.
; 12143:     *   But the question is how/when to evaluate if they cannot overlap.
; 12144:     *   Example: if we know that for two initial nodes, the one is
; 12145:     *   not in the ancestor-or-self axis of the other, then we could safely
; 12146:     *   avoid a duplicate-aware merge, if the axis to be traversed is e.g.
; 12147:     *   the descendant-or-self axis.
; 12148:     */
; 12149:     mergeAndClear = xmlXPathNodeSetMergeAndClear;
; 12150:     switch (axis) {

	mov	eax, DWORD PTR _axis$1$[ebp]
	dec	eax
	mov	DWORD PTR _mergeAndClear$1$[ebp], OFFSET _xmlXPathNodeSetMergeAndClear
	cmp	eax, 12					; 0000000cH
	ja	$LN303@xmlXPathNo
	jmp	DWORD PTR $LN368@xmlXPathNo[eax*4]
$LN19@xmlXPathNo:

; 12151:         case AXIS_ANCESTOR:
; 12152:             first = NULL;

	xor	eax, eax

; 12153:             next = xmlXPathNextAncestor;

	mov	DWORD PTR _next$1$[ebp], OFFSET _xmlXPathNextAncestor
	mov	DWORD PTR _first$1$[ebp], eax

; 12154:             break;

	mov	eax, DWORD PTR _last$[ebp]
	jmp	$LN349@xmlXPathNo
$LN20@xmlXPathNo:

; 12155:         case AXIS_ANCESTOR_OR_SELF:
; 12156:             first = NULL;

	xor	eax, eax

; 12157:             next = xmlXPathNextAncestorOrSelf;

	mov	DWORD PTR _next$1$[ebp], OFFSET _xmlXPathNextAncestorOrSelf
	mov	DWORD PTR _first$1$[ebp], eax

; 12158:             break;

	mov	eax, DWORD PTR _last$[ebp]
	jmp	$LN349@xmlXPathNo
$LN21@xmlXPathNo:

; 12159:         case AXIS_ATTRIBUTE:
; 12160:             first = NULL;
; 12161: 	    last = NULL;
; 12162:             next = xmlXPathNextAttribute;

	mov	DWORD PTR _next$1$[ebp], OFFSET _xmlXPathNextAttribute

; 12163: 	    mergeAndClear = xmlXPathNodeSetMergeAndClearNoDupls;
; 12164:             break;

	jmp	$LN350@xmlXPathNo
$LN22@xmlXPathNo:

; 12165:         case AXIS_CHILD:
; 12166: 	    last = NULL;

	xor	eax, eax
	mov	DWORD PTR _last$1$[ebp], eax

; 12167: 	    if (((test == NODE_TEST_NAME) || (test == NODE_TEST_ALL)) &&

	mov	eax, DWORD PTR _test$1$[ebp]
	cmp	eax, 5
	je	SHORT $LN25@xmlXPathNo
	cmp	eax, 3
	jne	SHORT $LN23@xmlXPathNo
$LN25@xmlXPathNo:
	cmp	DWORD PTR _type$1$[ebp], 0

; 12168: 		(type == NODE_TYPE_NODE))
; 12169: 	    {
; 12170: 		/*
; 12171: 		* Optimization if an element node type is 'element'.
; 12172: 		*/
; 12173: 		next = xmlXPathNextChildElement;

	mov	DWORD PTR _next$1$[ebp], OFFSET _xmlXPathNextChildElement
	je	SHORT $LN24@xmlXPathNo
$LN23@xmlXPathNo:

; 12174: 	    } else
; 12175: 		next = xmlXPathNextChild;

	mov	DWORD PTR _next$1$[ebp], OFFSET _xmlXPathNextChild
$LN24@xmlXPathNo:

; 12176: 	    mergeAndClear = xmlXPathNodeSetMergeAndClearNoDupls;
; 12177:             break;

	mov	eax, DWORD PTR _first$[ebp]
	mov	DWORD PTR _mergeAndClear$1$[ebp], OFFSET _xmlXPathNodeSetMergeAndClearNoDupls
	mov	DWORD PTR _first$1$[ebp], eax
	jmp	$LN35@xmlXPathNo
$LN26@xmlXPathNo:

; 12178:         case AXIS_DESCENDANT:
; 12179: 	    last = NULL;

	xor	eax, eax

; 12180:             next = xmlXPathNextDescendant;

	mov	DWORD PTR _next$1$[ebp], OFFSET _xmlXPathNextDescendant
	mov	DWORD PTR _last$1$[ebp], eax

; 12181:             break;

	mov	eax, DWORD PTR _first$[ebp]
	mov	DWORD PTR _first$1$[ebp], eax
	jmp	$LN35@xmlXPathNo
$LN27@xmlXPathNo:

; 12182:         case AXIS_DESCENDANT_OR_SELF:
; 12183: 	    last = NULL;

	xor	eax, eax

; 12184:             next = xmlXPathNextDescendantOrSelf;

	mov	DWORD PTR _next$1$[ebp], OFFSET _xmlXPathNextDescendantOrSelf
	mov	DWORD PTR _last$1$[ebp], eax

; 12185:             break;

	mov	eax, DWORD PTR _first$[ebp]
	mov	DWORD PTR _first$1$[ebp], eax
	jmp	SHORT $LN35@xmlXPathNo
$LN28@xmlXPathNo:

; 12186:         case AXIS_FOLLOWING:
; 12187: 	    last = NULL;

	xor	eax, eax

; 12188:             next = xmlXPathNextFollowing;

	mov	DWORD PTR _next$1$[ebp], OFFSET _xmlXPathNextFollowing
	mov	DWORD PTR _last$1$[ebp], eax

; 12189:             break;

	mov	eax, DWORD PTR _first$[ebp]
	mov	DWORD PTR _first$1$[ebp], eax
	jmp	SHORT $LN35@xmlXPathNo
$LN29@xmlXPathNo:

; 12190:         case AXIS_FOLLOWING_SIBLING:
; 12191: 	    last = NULL;

	xor	eax, eax

; 12192:             next = xmlXPathNextFollowingSibling;

	mov	DWORD PTR _next$1$[ebp], OFFSET _xmlXPathNextFollowingSibling
	mov	DWORD PTR _last$1$[ebp], eax

; 12193:             break;

	mov	eax, DWORD PTR _first$[ebp]
	mov	DWORD PTR _first$1$[ebp], eax
	jmp	SHORT $LN35@xmlXPathNo
$LN30@xmlXPathNo:

; 12194:         case AXIS_NAMESPACE:
; 12195:             first = NULL;
; 12196: 	    last = NULL;
; 12197:             next = (xmlXPathTraversalFunction) xmlXPathNextNamespace;

	mov	DWORD PTR _next$1$[ebp], OFFSET _xmlXPathNextNamespace

; 12198: 	    mergeAndClear = xmlXPathNodeSetMergeAndClearNoDupls;
; 12199:             break;

	jmp	SHORT $LN350@xmlXPathNo
$LN31@xmlXPathNo:

; 12200:         case AXIS_PARENT:
; 12201:             first = NULL;

	xor	eax, eax

; 12202:             next = xmlXPathNextParent;

	mov	DWORD PTR _next$1$[ebp], OFFSET _xmlXPathNextParent
	mov	DWORD PTR _first$1$[ebp], eax

; 12203:             break;

	mov	eax, DWORD PTR _last$[ebp]
	jmp	SHORT $LN349@xmlXPathNo
$LN32@xmlXPathNo:

; 12204:         case AXIS_PRECEDING:
; 12205:             first = NULL;

	xor	eax, eax

; 12206:             next = xmlXPathNextPrecedingInternal;

	mov	DWORD PTR _next$1$[ebp], OFFSET _xmlXPathNextPrecedingInternal
	mov	DWORD PTR _first$1$[ebp], eax

; 12207:             break;

	mov	eax, DWORD PTR _last$[ebp]
	jmp	SHORT $LN349@xmlXPathNo
$LN33@xmlXPathNo:

; 12208:         case AXIS_PRECEDING_SIBLING:
; 12209:             first = NULL;

	xor	eax, eax

; 12210:             next = xmlXPathNextPrecedingSibling;

	mov	DWORD PTR _next$1$[ebp], OFFSET _xmlXPathNextPrecedingSibling
	mov	DWORD PTR _first$1$[ebp], eax

; 12211:             break;

	mov	eax, DWORD PTR _last$[ebp]
	jmp	SHORT $LN349@xmlXPathNo
$LN34@xmlXPathNo:

; 12212:         case AXIS_SELF:
; 12213:             first = NULL;
; 12214: 	    last = NULL;
; 12215:             next = xmlXPathNextSelf;

	mov	DWORD PTR _next$1$[ebp], OFFSET _xmlXPathNextSelf
$LN350@xmlXPathNo:

; 12227:         return(0);
; 12228:     }
; 12229:     contextSeq = obj->nodesetval;

	xor	eax, eax
	mov	DWORD PTR _mergeAndClear$1$[ebp], OFFSET _xmlXPathNodeSetMergeAndClearNoDupls
	mov	DWORD PTR _first$1$[ebp], eax
$LN349@xmlXPathNo:
	mov	DWORD PTR _last$1$[ebp], eax
$LN35@xmlXPathNo:
	mov	eax, DWORD PTR [ecx+4]
	mov	DWORD PTR _contextSeq$1$[ebp], eax

; 12230:     if ((contextSeq == NULL) || (contextSeq->nodeNr <= 0)) {

	test	eax, eax
	je	$LN37@xmlXPathNo
	cmp	DWORD PTR [eax], 0
	jle	$LN37@xmlXPathNo

; 12233:         return(0);
; 12234:     }
; 12235:     /*
; 12236:     * Predicate optimization ---------------------------------------------
; 12237:     * If this step has a last predicate, which contains a position(),
; 12238:     * then we'll optimize (although not exactly "position()", but only
; 12239:     * the  short-hand form, i.e., "[n]".
; 12240:     *
; 12241:     * Example - expression "/foo[parent::bar][1]":
; 12242:     *
; 12243:     * COLLECT 'child' 'name' 'node' foo    -- op (we are here)
; 12244:     *   ROOT                               -- op->ch1
; 12245:     *   PREDICATE                          -- op->ch2 (predOp)
; 12246:     *     PREDICATE                          -- predOp->ch1 = [parent::bar]
; 12247:     *       SORT
; 12248:     *         COLLECT  'parent' 'name' 'node' bar
; 12249:     *           NODE
; 12250:     *     ELEM Object is a number : 1        -- predOp->ch2 = [1]
; 12251:     *
; 12252:     */
; 12253:     maxPos = 0;
; 12254:     predOp = NULL;
; 12255:     hasPredicateRange = 0;
; 12256:     hasAxisRange = 0;
; 12257:     if (op->ch2 != -1) {

	mov	ecx, DWORD PTR [esi+8]
	xor	edx, edx
	mov	DWORD PTR _maxPos$1$[ebp], 0
	mov	DWORD PTR _predOp$1$[ebp], edx
	mov	DWORD PTR _hasPredicateRange$1$[ebp], edx
	mov	DWORD PTR _hasAxisRange$1$[ebp], edx
	cmp	ecx, -1
	je	$LN41@xmlXPathNo

; 12258: 	/*
; 12259: 	* There's at least one predicate. 16 == XPATH_OP_PREDICATE
; 12260: 	*/
; 12261: 	predOp = &ctxt->comp->steps[op->ch2];

	mov	eax, DWORD PTR [ebx+32]
	mov	edx, DWORD PTR [eax+8]
	lea	eax, DWORD PTR [ecx+ecx*4]
	lea	ecx, DWORD PTR [edx+eax*8]

; 12020:     if ((op->op != XPATH_OP_PREDICATE) && (op->op != XPATH_OP_FILTER))

	mov	eax, DWORD PTR [ecx]

; 12258: 	/*
; 12259: 	* There's at least one predicate. 16 == XPATH_OP_PREDICATE
; 12260: 	*/
; 12261: 	predOp = &ctxt->comp->steps[op->ch2];

	mov	DWORD PTR _predOp$1$[ebp], ecx

; 12020:     if ((op->op != XPATH_OP_PREDICATE) && (op->op != XPATH_OP_FILTER))

	cmp	eax, 15					; 0000000fH
	je	SHORT $LN244@xmlXPathNo
	cmp	eax, 16					; 00000010H
	jne	$LN342@xmlXPathNo
$LN244@xmlXPathNo:

; 12021: 	return(0);
; 12022: 
; 12023:     if (op->ch2 != -1) {

	mov	eax, DWORD PTR [ecx+8]
	cmp	eax, -1
	je	SHORT $LN342@xmlXPathNo

; 12024: 	exprOp = &ctxt->comp->steps[op->ch2];

	lea	eax, DWORD PTR [eax+eax*4]
	lea	eax, DWORD PTR [edx+eax*8]

; 12025:     } else
; 12026: 	return(0);
; 12027: 
; 12028:     if ((exprOp != NULL) &&
; 12029: 	(exprOp->op == XPATH_OP_VALUE) &&
; 12030: 	(exprOp->value4 != NULL) &&

	test	eax, eax
	je	SHORT $LN342@xmlXPathNo
	cmp	DWORD PTR [eax], 11			; 0000000bH
	jne	SHORT $LN342@xmlXPathNo
	mov	eax, DWORD PTR [eax+24]
	test	eax, eax
	je	SHORT $LN342@xmlXPathNo
	cmp	DWORD PTR [eax], 3
	jne	SHORT $LN342@xmlXPathNo

; 12031: 	(((xmlXPathObjectPtr) exprOp->value4)->type == XPATH_NUMBER))
; 12032:     {
; 12033:         double floatval = ((xmlXPathObjectPtr) exprOp->value4)->floatval;

	movsd	xmm1, QWORD PTR [eax+16]

; 12034: 
; 12035: 	/*
; 12036: 	* We have a "[n]" predicate here.
; 12037: 	* TODO: Unfortunately this simplistic test here is not
; 12038: 	* able to detect a position() predicate in compound
; 12039: 	* expressions like "[@attr = 'a" and position() = 1],
; 12040: 	* and even not the usage of position() in
; 12041: 	* "[position() = 1]"; thus - obviously - a position-range,
; 12042: 	* like it "[position() < 5]", is also not detected.
; 12043: 	* Maybe we could rewrite the AST to ease the optimization.
; 12044: 	*/
; 12045: 
; 12046:         if ((floatval > INT_MIN) && (floatval < INT_MAX)) {

	comisd	xmm1, QWORD PTR __real@c1e0000000000000
	jbe	SHORT $LN342@xmlXPathNo
	movsd	xmm0, QWORD PTR __real@41dfffffffc00000
	comisd	xmm0, xmm1
	jbe	SHORT $LN342@xmlXPathNo

; 12047: 	    *maxPos = (int) floatval;

	cvttsd2si edi, xmm1
	mov	DWORD PTR _maxPos$1$[ebp], edi
	movd	xmm0, edi

; 12048:             if (floatval == (double) *maxPos)

	mov	edi, DWORD PTR _xpctxt$1$[ebp]
	cvtdq2pd xmm0, xmm0
	ucomisd	xmm1, xmm0
	lahf
	test	ah, 68					; 00000044H
	jp	SHORT $LN342@xmlXPathNo

; 12262: 	if (xmlXPathIsPositionalPredicate(ctxt, predOp, &maxPos)) {
; 12263: 	    if (predOp->ch1 != -1) {

	mov	eax, DWORD PTR [ecx+4]
	cmp	eax, -1
	je	SHORT $LN40@xmlXPathNo

; 12264: 		/*
; 12265: 		* Use the next inner predicate operator.
; 12266: 		*/
; 12267: 		predOp = &ctxt->comp->steps[predOp->ch1];

	lea	eax, DWORD PTR [eax+eax*4]

; 12268: 		hasPredicateRange = 1;

	mov	DWORD PTR _hasPredicateRange$1$[ebp], 1
	lea	edx, DWORD PTR [edx+eax*8]
	mov	DWORD PTR _predOp$1$[ebp], edx

; 12269: 	    } else {

	jmp	SHORT $LN41@xmlXPathNo
$LN40@xmlXPathNo:

; 12270: 		/*
; 12271: 		* There's no other predicate than the [n] predicate.
; 12272: 		*/
; 12273: 		predOp = NULL;

	xor	edx, edx

; 12274: 		hasAxisRange = 1;

	mov	DWORD PTR _hasAxisRange$1$[ebp], 1
	mov	DWORD PTR _predOp$1$[ebp], edx

; 12048:             if (floatval == (double) *maxPos)

	jmp	SHORT $LN41@xmlXPathNo
$LN342@xmlXPathNo:

; 12275: 	    }
; 12276: 	}
; 12277:     }
; 12278:     breakOnFirstHit = ((toBool) && (predOp == NULL)) ? 1 : 0;

	mov	edx, ecx
$LN41@xmlXPathNo:
	cmp	DWORD PTR _toBool$[ebp], 0
	je	SHORT $LN241@xmlXPathNo
	mov	DWORD PTR _breakOnFirstHit$1$[ebp], 1
	test	edx, edx
	je	SHORT $LN242@xmlXPathNo
$LN241@xmlXPathNo:
	mov	DWORD PTR _breakOnFirstHit$1$[ebp], 0
$LN242@xmlXPathNo:

; 12279:     /*
; 12280:     * Axis traversal -----------------------------------------------------
; 12281:     */
; 12282:     /*
; 12283:      * 2.3 Node Tests
; 12284:      *  - For the attribute axis, the principal node type is attribute.
; 12285:      *  - For the namespace axis, the principal node type is namespace.
; 12286:      *  - For other axes, the principal node type is element.
; 12287:      *
; 12288:      * A node test * is true for any node of the
; 12289:      * principal node type. For example, child::* will
; 12290:      * select all element children of the context node
; 12291:      */
; 12292:     oldContextNode = xpctxt->node;

	mov	eax, DWORD PTR [edi+4]

; 12293:     addNode = xmlXPathNodeSetAddUnique;
; 12294:     outSeq = NULL;
; 12295:     seq = NULL;

	xor	esi, esi
	mov	DWORD PTR _oldContextNode$1$[ebp], eax
	xor	eax, eax
	mov	DWORD PTR _outSeq$1$[ebp], eax

; 12296:     contextNode = NULL;
; 12297:     contextIdx = 0;

	xor	ecx, ecx
	mov	DWORD PTR _seq$1$[ebp], esi

; 12552: 	    goto error;
; 12553: 
; 12554:         /*
; 12555: 	* Apply predicates.
; 12556: 	*/
; 12557:         if ((predOp != NULL) && (seq->nodeNr > 0)) {

	jmp	SHORT $LL4@xmlXPathNo
$LN314@xmlXPathNo:

; 12606: 	    } else if (seq->nodeNr > 0) {

	mov	ecx, DWORD PTR _contextIdx$1$[ebp]
	npad	8
$LL312@xmlXPathNo:

; 12298: 
; 12299: 
; 12300:     while (((contextIdx < contextSeq->nodeNr) || (contextNode != NULL)) &&

	mov	esi, DWORD PTR _seq$1$[ebp]
$LN357@xmlXPathNo:
	mov	edi, DWORD PTR _xpctxt$1$[ebp]
	npad	10
$LL4@xmlXPathNo:
	mov	eax, DWORD PTR _contextSeq$1$[ebp]
	cmp	ecx, DWORD PTR [eax]
	jge	$LN311@xmlXPathNo
	cmp	DWORD PTR [ebx+8], 0
	jne	$LN311@xmlXPathNo

; 12301:            (ctxt->error == XPATH_EXPRESSION_OK)) {
; 12302: 	xpctxt->node = contextSeq->nodeTab[contextIdx++];

	mov	eax, DWORD PTR [eax+8]
	mov	eax, DWORD PTR [eax+ecx*4]
	inc	ecx
	mov	DWORD PTR [edi+4], eax
	mov	DWORD PTR _contextIdx$1$[ebp], ecx

; 12303: 
; 12304: 	if (seq == NULL) {

	test	esi, esi
	jne	SHORT $LN44@xmlXPathNo

; 12305: 	    seq = xmlXPathNodeSetCreate(NULL);

	push	esi
	call	_xmlXPathNodeSetCreate
	mov	esi, eax
	add	esp, 4
	mov	DWORD PTR _seq$1$[ebp], esi

; 12306: 	    if (seq == NULL) {

	test	esi, esi
	je	$LN293@xmlXPathNo
$LN44@xmlXPathNo:
	mov	eax, DWORD PTR _ctxt$[ebp]

; 12309: 	    }
; 12310: 	}
; 12311: 	/*
; 12312: 	* Traverse the axis and test the nodes.
; 12313: 	*/
; 12314: 	pos = 0;

	xor	ebx, ebx

; 12315: 	cur = NULL;

	xor	edi, edi

; 12316: 	hasNsNodes = 0;

	mov	DWORD PTR _hasNsNodes$1$[ebp], ebx
$LL8@xmlXPathNo:

; 12317:         do {
; 12318:             cur = next(ctxt, cur);

	push	edi
	push	eax
	call	DWORD PTR _next$1$[ebp]
	mov	edi, eax
	add	esp, 8

; 12319:             if (cur == NULL)

	test	edi, edi
	je	$LN7@xmlXPathNo

; 12320:                 break;
; 12321: 
; 12322: 	    /*
; 12323: 	    * QUESTION TODO: What does the "first" and "last" stuff do?
; 12324: 	    */
; 12325:             if ((first != NULL) && (*first != NULL)) {

	mov	eax, DWORD PTR _first$1$[ebp]
	test	eax, eax
	je	SHORT $LN334@xmlXPathNo
	mov	ecx, DWORD PTR [eax]
	test	ecx, ecx
	je	SHORT $LN334@xmlXPathNo

; 12326: 		if (*first == cur)

	cmp	ecx, edi
	je	$LN7@xmlXPathNo

; 12327: 		    break;
; 12328: 		if (((total % 256) == 0) &&

	mov	edx, DWORD PTR _total$1$[ebp]
	mov	eax, edx
	and	eax, -2147483393			; 800000ffH
	jns	SHORT $LN346@xmlXPathNo
	dec	eax
	or	eax, -256				; ffffff00H
	add	eax, 1
$LN346@xmlXPathNo:
	jne	SHORT $LN48@xmlXPathNo
	push	edi
	push	ecx
	call	_xmlXPathCmpNodesExt
	add	esp, 8
	test	eax, eax
	jns	$LN7@xmlXPathNo
$LN334@xmlXPathNo:

; 12329: #ifdef XP_OPTIMIZED_NON_ELEM_COMPARISON
; 12330: 		    (xmlXPathCmpNodesExt(*first, cur) >= 0))
; 12331: #else
; 12332: 		    (xmlXPathCmpNodes(*first, cur) >= 0))
; 12333: #endif
; 12334: 		{
; 12335: 		    break;
; 12336: 		}
; 12337: 	    }
; 12338: 	    if ((last != NULL) && (*last != NULL)) {

	mov	edx, DWORD PTR _total$1$[ebp]
$LN48@xmlXPathNo:
	mov	eax, DWORD PTR _last$1$[ebp]
	test	eax, eax
	je	SHORT $LN51@xmlXPathNo
	mov	ecx, DWORD PTR [eax]
	test	ecx, ecx
	je	SHORT $LN51@xmlXPathNo

; 12339: 		if (*last == cur)

	cmp	ecx, edi
	je	$LN7@xmlXPathNo

; 12340: 		    break;
; 12341: 		if (((total % 256) == 0) &&

	mov	eax, edx
	and	eax, -2147483393			; 800000ffH
	jns	SHORT $LN347@xmlXPathNo
	dec	eax
	or	eax, -256				; ffffff00H
	add	eax, 1
$LN347@xmlXPathNo:
	jne	SHORT $LN51@xmlXPathNo
	push	ecx
	push	edi
	call	_xmlXPathCmpNodesExt
	add	esp, 8
	test	eax, eax
	jns	$LN7@xmlXPathNo
$LN51@xmlXPathNo:

; 12342: #ifdef XP_OPTIMIZED_NON_ELEM_COMPARISON
; 12343: 		    (xmlXPathCmpNodesExt(cur, *last) >= 0))
; 12344: #else
; 12345: 		    (xmlXPathCmpNodes(cur, *last) >= 0))
; 12346: #endif
; 12347: 		{
; 12348: 		    break;
; 12349: 		}
; 12350: 	    }
; 12351: 
; 12352:             total++;

	inc	DWORD PTR _total$1$[ebp]

; 12353: 
; 12354: #ifdef DEBUG_STEP
; 12355:             xmlGenericError(xmlGenericErrorContext, " %s", cur->name);
; 12356: #endif
; 12357: 
; 12358: 	    switch (test) {

	mov	eax, DWORD PTR _test$1$[ebp]
	cmp	eax, 5
	ja	$LN6@xmlXPathNo
	jmp	DWORD PTR $LN369@xmlXPathNo[eax*4]
$LN53@xmlXPathNo:

; 12363:                 case NODE_TEST_TYPE:
; 12364: 		    if (type == NODE_TYPE_NODE) {

	mov	ecx, DWORD PTR _type$1$[ebp]
	mov	eax, DWORD PTR [edi+4]
	test	ecx, ecx
	jne	SHORT $LN54@xmlXPathNo

; 12365: 			switch (cur->type) {

	dec	eax
	cmp	eax, 20					; 00000014H
	ja	$LN6@xmlXPathNo
	movzx	eax, BYTE PTR $LN306@xmlXPathNo[eax]
	jmp	DWORD PTR $LN370@xmlXPathNo[eax*4]
$LN63@xmlXPathNo:

; 12366: 			    case XML_DOCUMENT_NODE:
; 12367: 			    case XML_HTML_DOCUMENT_NODE:
; 12368: #ifdef LIBXML_DOCB_ENABLED
; 12369: 			    case XML_DOCB_DOCUMENT_NODE:
; 12370: #endif
; 12371: 			    case XML_ELEMENT_NODE:
; 12372: 			    case XML_ATTRIBUTE_NODE:
; 12373: 			    case XML_PI_NODE:
; 12374: 			    case XML_COMMENT_NODE:
; 12375: 			    case XML_CDATA_SECTION_NODE:
; 12376: 			    case XML_TEXT_NODE:
; 12377: 				XP_TEST_HIT
; 12378: 				break;
; 12379: 			    case XML_NAMESPACE_DECL: {
; 12380: 				if (axis == AXIS_NAMESPACE) {

	cmp	DWORD PTR _axis$1$[ebp], 9
	jne	SHORT $LN64@xmlXPathNo

; 12381: 				    XP_TEST_HIT_NS

	cmp	DWORD PTR _hasAxisRange$1$[ebp], 0
	je	SHORT $LN66@xmlXPathNo
	inc	ebx
	cmp	ebx, DWORD PTR _maxPos$1$[ebp]
	jne	$LN6@xmlXPathNo
$LN261@xmlXPathNo:

; 12511: 
; 12512: 	goto apply_predicates;
; 12513: 
; 12514: axis_range_end: /* ----------------------------------------------------- */
; 12515: 	/*
; 12516: 	* We have a "/foo[n]", and position() = n was reached.
; 12517: 	* Note that we can have as well "/foo/::parent::foo[1]", so
; 12518: 	* a duplicate-aware merge is still needed.
; 12519: 	* Merge with the result.
; 12520: 	*/
; 12521: 	if (outSeq == NULL) {

	push	edi
	mov	edi, DWORD PTR _xpctxt$1$[ebp]
	push	DWORD PTR [edi+4]
	push	esi
	call	_xmlXPathNodeSetAddNs
	add	esp, 12					; 0000000cH
	jmp	$LN364@xmlXPathNo
$LN66@xmlXPathNo:

; 12502:                                 }
; 12503:                             }
; 12504:                             break;
; 12505:                         default:
; 12506:                             break;
; 12507:                     }
; 12508:                     break;
; 12509: 	    } /* switch(test) */
; 12510:         } while ((cur != NULL) && (ctxt->error == XPATH_EXPRESSION_OK));

	mov	eax, DWORD PTR _xpctxt$1$[ebp]
	push	edi
	mov	DWORD PTR _hasNsNodes$1$[ebp], 1
	push	DWORD PTR [eax+4]
	push	esi
	call	_xmlXPathNodeSetAddNs
	add	esp, 12					; 0000000cH
	jmp	$LN355@xmlXPathNo
$LN64@xmlXPathNo:

; 12382: 				} else {
; 12383: 	                            hasNsNodes = 1;

	mov	DWORD PTR _hasNsNodes$1$[ebp], 1

; 12384: 				    XP_TEST_HIT
; 12385: 				}
; 12386: 				break;
; 12387:                             }
; 12388: 			    default:
; 12389: 				break;
; 12390: 			}
; 12391: 		    } else if (cur->type == (xmlElementType) type) {

	jmp	SHORT $LN56@xmlXPathNo
$LN54@xmlXPathNo:
	cmp	eax, ecx
	jne	SHORT $LN79@xmlXPathNo

; 12392: 			if (cur->type == XML_NAMESPACE_DECL)

	cmp	eax, 18					; 00000012H
	jne	SHORT $LN56@xmlXPathNo

; 12393: 			    XP_TEST_HIT_NS

	cmp	DWORD PTR _hasAxisRange$1$[ebp], 0
	je	SHORT $LN66@xmlXPathNo
	inc	ebx
	cmp	ebx, DWORD PTR _maxPos$1$[ebp]
	je	SHORT $LN261@xmlXPathNo
	jmp	$LN6@xmlXPathNo
$LN79@xmlXPathNo:

; 12394: 			else
; 12395: 			    XP_TEST_HIT
; 12396: 		    } else if ((type == NODE_TYPE_TEXT) &&

	cmp	ecx, 3
	jne	$LN6@xmlXPathNo
	cmp	eax, 4
	jne	$LN6@xmlXPathNo

; 12397: 			 (cur->type == XML_CDATA_SECTION_NODE))
; 12398: 		    {
; 12399: 			XP_TEST_HIT
; 12400: 		    }
; 12401: 		    break;

	jmp	SHORT $LN56@xmlXPathNo
$LN102@xmlXPathNo:

; 12402:                 case NODE_TEST_PI:
; 12403:                     if ((cur->type == XML_PI_NODE) &&

	cmp	DWORD PTR [edi+4], 7
	jne	$LN6@xmlXPathNo
	mov	eax, DWORD PTR _name$1$[ebp]
	test	eax, eax
	je	SHORT $LN56@xmlXPathNo
	push	DWORD PTR [edi+8]
	push	eax

; 12404:                         ((name == NULL) || xmlStrEqual(name, cur->name)))
; 12405: 		    {
; 12406: 			XP_TEST_HIT
; 12407:                     }
; 12408:                     break;

	jmp	SHORT $LN365@xmlXPathNo
$LN111@xmlXPathNo:

; 12409:                 case NODE_TEST_ALL:
; 12410:                     if (axis == AXIS_ATTRIBUTE) {

	mov	ecx, DWORD PTR _axis$1$[ebp]
	cmp	ecx, 3
	jne	SHORT $LN112@xmlXPathNo

; 12411:                         if (cur->type == XML_ATTRIBUTE_NODE)

	cmp	DWORD PTR [edi+4], 2
$LN366@xmlXPathNo:

; 12502:                                 }
; 12503:                             }
; 12504:                             break;
; 12505:                         default:
; 12506:                             break;
; 12507:                     }
; 12508:                     break;
; 12509: 	    } /* switch(test) */
; 12510:         } while ((cur != NULL) && (ctxt->error == XPATH_EXPRESSION_OK));

	jne	$LN6@xmlXPathNo
	cmp	DWORD PTR _prefix$1$[ebp], 0
	je	SHORT $LN56@xmlXPathNo
$LN166@xmlXPathNo:
	mov	eax, DWORD PTR [edi+36]
$LN184@xmlXPathNo:
	test	eax, eax
	je	$LN6@xmlXPathNo
	push	DWORD PTR [eax+8]
	push	DWORD PTR _URI$1$[ebp]
$LN365@xmlXPathNo:
	call	_xmlStrEqual
	add	esp, 8
	test	eax, eax
	je	$LN6@xmlXPathNo
$LN56@xmlXPathNo:
	cmp	DWORD PTR _hasAxisRange$1$[ebp], 0
	je	$LN176@xmlXPathNo
	inc	ebx
	cmp	ebx, DWORD PTR _maxPos$1$[ebp]
	jne	$LN6@xmlXPathNo

; 12511: 
; 12512: 	goto apply_predicates;
; 12513: 
; 12514: axis_range_end: /* ----------------------------------------------------- */
; 12515: 	/*
; 12516: 	* We have a "/foo[n]", and position() = n was reached.
; 12517: 	* Note that we can have as well "/foo/::parent::foo[1]", so
; 12518: 	* a duplicate-aware merge is still needed.
; 12519: 	* Merge with the result.
; 12520: 	*/
; 12521: 	if (outSeq == NULL) {

	push	edi
	push	esi
	call	_xmlXPathNodeSetAddUnique
	mov	edi, DWORD PTR _xpctxt$1$[ebp]
	add	esp, 8
$LN364@xmlXPathNo:
	mov	ebx, DWORD PTR _ctxt$[ebp]
	test	eax, eax
	jns	SHORT $axis_range_end$371
	mov	DWORD PTR [ebx+8], 15			; 0000000fH
$axis_range_end$371:
	mov	eax, DWORD PTR _outSeq$1$[ebp]
	test	eax, eax
	jne	$LN212@xmlXPathNo

; 12522: 	    outSeq = seq;

	mov	DWORD PTR _outSeq$1$[ebp], esi

; 12523: 	    seq = NULL;

	xor	esi, esi
	mov	DWORD PTR _seq$1$[ebp], esi

; 12524: 	} else

	jmp	$LN213@xmlXPathNo
$LN112@xmlXPathNo:

; 12412: 			{
; 12413:                             if (prefix == NULL)
; 12414: 			    {
; 12415: 				XP_TEST_HIT
; 12416:                             } else if ((cur->ns != NULL) &&
; 12417: 				(xmlStrEqual(URI, cur->ns->href)))
; 12418: 			    {
; 12419: 				XP_TEST_HIT
; 12420:                             }
; 12421:                         }
; 12422:                     } else if (axis == AXIS_NAMESPACE) {

	cmp	ecx, 9
	jne	SHORT $LN130@xmlXPathNo

; 12423:                         if (cur->type == XML_NAMESPACE_DECL)

	cmp	DWORD PTR [edi+4], 18			; 00000012H
	jne	$LN6@xmlXPathNo

; 12424: 			{
; 12425: 			    XP_TEST_HIT_NS

	cmp	DWORD PTR _hasAxisRange$1$[ebp], 0
	je	$LN66@xmlXPathNo
	inc	ebx
	cmp	ebx, DWORD PTR _maxPos$1$[ebp]
	je	$LN261@xmlXPathNo
	jmp	$LN6@xmlXPathNo
$LN130@xmlXPathNo:

; 12426:                         }
; 12427:                     } else {
; 12428:                         if (cur->type == XML_ELEMENT_NODE) {

	cmp	DWORD PTR [edi+4], 1

; 12429:                             if (prefix == NULL)
; 12430: 			    {
; 12431: 				XP_TEST_HIT

	jmp	$LN366@xmlXPathNo
$LN155@xmlXPathNo:

; 12432: 
; 12433:                             } else if ((cur->ns != NULL) &&
; 12434: 				(xmlStrEqual(URI, cur->ns->href)))
; 12435: 			    {
; 12436: 				XP_TEST_HIT
; 12437:                             }
; 12438:                         }
; 12439:                     }
; 12440:                     break;
; 12441:                 case NODE_TEST_NS:{
; 12442:                         TODO;

	call	___xmlGenericError
	mov	esi, eax
	call	___xmlGenericErrorContext
	push	12442					; 0000309aH
	push	OFFSET ??_C@_0GH@HIGHEHKE@c?3?2users?2dag?2documents?2_clients@
	push	OFFSET ??_C@_0BO@MDEMDPPE@Unimplemented?5block?5at?5?$CFs?3?$CFd?6@
	push	DWORD PTR [eax]
	mov	eax, DWORD PTR [esi]
	call	eax
	add	esp, 16					; 00000010H

; 12443:                         break;

	jmp	$LN6@xmlXPathNo
$LN156@xmlXPathNo:

; 12444:                     }
; 12445:                 case NODE_TEST_NAME:
; 12446:                     if (axis == AXIS_ATTRIBUTE) {

	mov	ecx, DWORD PTR _axis$1$[ebp]
	cmp	ecx, 3
	jne	SHORT $LN157@xmlXPathNo

; 12447:                         if (cur->type != XML_ATTRIBUTE_NODE)

	cmp	DWORD PTR [edi+4], 2
	jne	$LN6@xmlXPathNo

; 12448: 			    break;
; 12449: 		    } else if (axis == AXIS_NAMESPACE) {

	lea	eax, DWORD PTR [ecx-1]
	jmp	SHORT $LN163@xmlXPathNo
$LN157@xmlXPathNo:
	cmp	ecx, 9
	jne	SHORT $LN160@xmlXPathNo

; 12450:                         if (cur->type != XML_NAMESPACE_DECL)

	cmp	DWORD PTR [edi+4], 18			; 00000012H
	jne	$LN6@xmlXPathNo

; 12451: 			    break;
; 12452: 		    } else {

	lea	eax, DWORD PTR [ecx+9]
	jmp	SHORT $LN163@xmlXPathNo
$LN160@xmlXPathNo:

; 12453: 		        if (cur->type != XML_ELEMENT_NODE)

	mov	eax, DWORD PTR [edi+4]
	cmp	eax, 1
	jne	$LN6@xmlXPathNo
$LN163@xmlXPathNo:

; 12454: 			    break;
; 12455: 		    }
; 12456:                     switch (cur->type) {

	sub	eax, 1
	je	SHORT $LN164@xmlXPathNo
	sub	eax, 1
	je	SHORT $LN182@xmlXPathNo
	sub	eax, 16					; 00000010H
	jne	$LN6@xmlXPathNo

; 12484:                                         if ((attr->ns != NULL) &&
; 12485:                                             (xmlStrEqual(URI,
; 12486: 					      attr->ns->href)))
; 12487: 					{
; 12488: 					    XP_TEST_HIT
; 12489:                                         }
; 12490:                                     }
; 12491:                                 }
; 12492:                                 break;
; 12493:                             }
; 12494:                         case XML_NAMESPACE_DECL:
; 12495:                             if (cur->type == XML_NAMESPACE_DECL) {
; 12496:                                 xmlNsPtr ns = (xmlNsPtr) cur;
; 12497: 
; 12498:                                 if ((ns->prefix != NULL) && (name != NULL)
; 12499:                                     && (xmlStrEqual(ns->prefix, name)))

	mov	eax, DWORD PTR [edi+12]
	test	eax, eax
	je	$LN6@xmlXPathNo
	mov	ecx, DWORD PTR _name$1$[ebp]
	test	ecx, ecx
	je	$LN6@xmlXPathNo
	push	ecx
	push	eax
	call	_xmlStrEqual
	add	esp, 8
	test	eax, eax
	je	$LN6@xmlXPathNo

; 12500: 				{
; 12501: 				    XP_TEST_HIT_NS

	cmp	DWORD PTR _hasAxisRange$1$[ebp], 0
	je	$LN66@xmlXPathNo
	inc	ebx
	cmp	ebx, DWORD PTR _maxPos$1$[ebp]
	je	$LN261@xmlXPathNo
	jmp	SHORT $LN6@xmlXPathNo
$LN182@xmlXPathNo:

; 12465:                                     if ((cur->ns != NULL) &&
; 12466:                                         (xmlStrEqual(URI, cur->ns->href)))
; 12467: 				    {
; 12468: 					XP_TEST_HIT
; 12469:                                     }
; 12470:                                 }
; 12471:                             }
; 12472:                             break;
; 12473:                         case XML_ATTRIBUTE_NODE:{
; 12474:                                 xmlAttrPtr attr = (xmlAttrPtr) cur;
; 12475: 
; 12476:                                 if (xmlStrEqual(name, attr->name)) {

	push	DWORD PTR [edi+8]
	push	DWORD PTR _name$1$[ebp]
	call	_xmlStrEqual
	add	esp, 8
	test	eax, eax
	je	SHORT $LN6@xmlXPathNo

; 12477:                                     if (prefix == NULL) {

	cmp	DWORD PTR _prefix$1$[ebp], 0
	mov	eax, DWORD PTR [edi+36]
	jne	$LN184@xmlXPathNo

; 12478:                                         if ((attr->ns == NULL) ||

	test	eax, eax
	je	$LN56@xmlXPathNo
	cmp	DWORD PTR [eax+12], 0
	jne	SHORT $LN6@xmlXPathNo

; 12479:                                             (attr->ns->prefix == NULL))
; 12480: 					{
; 12481: 					    XP_TEST_HIT
; 12482:                                         }
; 12483:                                     } else {

	jmp	$LN56@xmlXPathNo
$LN164@xmlXPathNo:

; 12457:                         case XML_ELEMENT_NODE:
; 12458:                             if (xmlStrEqual(name, cur->name)) {

	push	DWORD PTR [edi+8]
	push	DWORD PTR _name$1$[ebp]
	call	_xmlStrEqual
	add	esp, 8
	test	eax, eax
	je	SHORT $LN6@xmlXPathNo

; 12459:                                 if (prefix == NULL) {

	cmp	DWORD PTR _prefix$1$[ebp], 0
	jne	$LN166@xmlXPathNo

; 12460:                                     if (cur->ns == NULL)

	cmp	DWORD PTR [edi+36], 0
	jne	SHORT $LN6@xmlXPathNo

; 12461: 				    {
; 12462: 					XP_TEST_HIT
; 12463:                                     }
; 12464:                                 } else {

	jmp	$LN56@xmlXPathNo
$LN176@xmlXPathNo:

; 12502:                                 }
; 12503:                             }
; 12504:                             break;
; 12505:                         default:
; 12506:                             break;
; 12507:                     }
; 12508:                     break;
; 12509: 	    } /* switch(test) */
; 12510:         } while ((cur != NULL) && (ctxt->error == XPATH_EXPRESSION_OK));

	push	edi
	push	esi
	call	_xmlXPathNodeSetAddUnique
	add	esp, 8
$LN355@xmlXPathNo:
	test	eax, eax
	jns	SHORT $LN180@xmlXPathNo
	mov	eax, DWORD PTR _ctxt$[ebp]
	mov	DWORD PTR [eax+8], 15			; 0000000fH
$LN180@xmlXPathNo:
	cmp	DWORD PTR _breakOnFirstHit$1$[ebp], 0
	jne	$first_hit$372
$LN6@xmlXPathNo:
	mov	eax, DWORD PTR _ctxt$[ebp]
	cmp	DWORD PTR [eax+8], 0
	jne	SHORT $LN7@xmlXPathNo
	mov	esi, DWORD PTR _seq$1$[ebp]
	jmp	$LL8@xmlXPathNo
$LN212@xmlXPathNo:

; 12525: 	    outSeq = mergeAndClear(outSeq, seq, 0);

	push	0
	push	esi
	push	eax
	call	DWORD PTR _mergeAndClear$1$[ebp]
	add	esp, 12					; 0000000cH
	mov	DWORD PTR _outSeq$1$[ebp], eax
$LN213@xmlXPathNo:

; 12526: 	/*
; 12527: 	* Break if only a true/false result was requested.
; 12528: 	*/
; 12529: 	if (toBool)

	cmp	DWORD PTR _toBool$[ebp], 0
	jne	$LN311@xmlXPathNo

; 12530: 	    break;
; 12531: 	continue;

	mov	ecx, DWORD PTR _contextIdx$1$[ebp]
	jmp	$LL4@xmlXPathNo
$LN7@xmlXPathNo:
$apply_predicates$373:

; 12543: 	break;
; 12544: 
; 12545: #ifdef DEBUG_STEP
; 12546: 	if (seq != NULL)
; 12547: 	    nbMatches += seq->nodeNr;
; 12548: #endif
; 12549: 
; 12550: apply_predicates: /* --------------------------------------------------- */
; 12551:         if (ctxt->error != XPATH_EXPRESSION_OK)

	mov	ebx, DWORD PTR _ctxt$[ebp]
	mov	edi, DWORD PTR _seq$1$[ebp]
	cmp	DWORD PTR [ebx+8], 0
	jne	$error$374

; 12552: 	    goto error;
; 12553: 
; 12554:         /*
; 12555: 	* Apply predicates.
; 12556: 	*/
; 12557:         if ((predOp != NULL) && (seq->nodeNr > 0)) {

	mov	edx, DWORD PTR _predOp$1$[ebp]
	mov	esi, DWORD PTR [edi]
	mov	ecx, DWORD PTR _contextIdx$1$[ebp]
	test	edx, edx
	je	$LN300@xmlXPathNo
	test	esi, esi
	jle	$LL312@xmlXPathNo

; 12558: 	    /*
; 12559: 	    * E.g. when we have a "/foo[some expression][n]".
; 12560: 	    */
; 12561: 	    /*
; 12562: 	    * QUESTION TODO: The old predicate evaluation took into
; 12563: 	    *  account location-sets.
; 12564: 	    *  (E.g. ctxt->value->type == XPATH_LOCATIONSET)
; 12565: 	    *  Do we expect such a set here?
; 12566: 	    *  All what I learned now from the evaluation semantics
; 12567: 	    *  does not indicate that a location-set will be processed
; 12568: 	    *  here, so this looks OK.
; 12569: 	    */
; 12570: 	    /*
; 12571: 	    * Iterate over all predicates, starting with the outermost
; 12572: 	    * predicate.
; 12573: 	    * TODO: Problem: we cannot execute the inner predicates first
; 12574: 	    *  since we cannot go back *up* the operator tree!
; 12575: 	    *  Options we have:
; 12576: 	    *  1) Use of recursive functions (like is it currently done
; 12577: 	    *     via xmlXPathCompOpEval())
; 12578: 	    *  2) Add a predicate evaluation information stack to the
; 12579: 	    *     context struct
; 12580: 	    *  3) Change the way the operators are linked; we need a
; 12581: 	    *     "parent" field on xmlXPathStepOp
; 12582: 	    *
; 12583: 	    * For the moment, I'll try to solve this with a recursive
; 12584: 	    * function: xmlXPathCompOpEvalPredicate().
; 12585: 	    */
; 12586: 	    size = seq->nodeNr;
; 12587: 	    if (hasPredicateRange != 0)

	cmp	DWORD PTR _hasPredicateRange$1$[ebp], 0
	push	DWORD PTR _hasNsNodes$1$[ebp]
	je	SHORT $LN220@xmlXPathNo

; 12588: 		newSize = xmlXPathCompOpEvalPositionalPredicate(ctxt,

	mov	eax, DWORD PTR _maxPos$1$[ebp]
	push	eax
	push	eax
	push	esi
	push	edi
	push	edx
	push	ebx
	call	_xmlXPathCompOpEvalPositionalPredicate
	add	esp, 28					; 0000001cH
	jmp	SHORT $LN356@xmlXPathNo
$LN220@xmlXPathNo:

; 12589: 		    predOp, seq, size, maxPos, maxPos, hasNsNodes);
; 12590: 	    else
; 12591: 		newSize = xmlXPathCompOpEvalPredicate(ctxt,

	push	esi
	push	edi
	push	edx
	push	ebx
	call	_xmlXPathCompOpEvalPredicate
	add	esp, 20					; 00000014H
$LN356@xmlXPathNo:

; 12592: 		    predOp, seq, size, hasNsNodes);
; 12593: 
; 12594: 	    if (ctxt->error != XPATH_EXPRESSION_OK) {

	cmp	DWORD PTR [ebx+8], 0
	mov	ecx, eax
	jne	$LN296@xmlXPathNo

; 12596: 		goto error;
; 12597: 	    }
; 12598: 	    /*
; 12599: 	    * Add the filtered set of nodes to the result node set.
; 12600: 	    */
; 12601: 	    if (newSize == 0) {

	test	ecx, ecx
	jne	SHORT $LN223@xmlXPathNo

; 12602: 		/*
; 12603: 		* The predicates filtered all nodes out.
; 12604: 		*/
; 12605: 		xmlXPathNodeSetClear(seq, hasNsNodes);

	push	DWORD PTR _hasNsNodes$1$[ebp]
	mov	esi, DWORD PTR _seq$1$[ebp]
	push	esi
	call	_xmlXPathNodeSetClear
	mov	ecx, DWORD PTR _contextIdx$1$[ebp]
	add	esp, 8
	jmp	$LN357@xmlXPathNo
$LN223@xmlXPathNo:

; 12606: 	    } else if (seq->nodeNr > 0) {

	cmp	DWORD PTR [edi], 0
	jle	$LN314@xmlXPathNo

; 12607: 		/*
; 12608: 		* Add to result set.
; 12609: 		*/
; 12610: 		if (outSeq == NULL) {

	mov	edx, DWORD PTR _outSeq$1$[ebp]
	test	edx, edx
	jne	SHORT $LN226@xmlXPathNo

; 12611: 		    if (size != newSize) {

	cmp	esi, ecx
	je	SHORT $LN228@xmlXPathNo

; 12612: 			/*
; 12613: 			* We need to merge and clear here, since
; 12614: 			* the sequence will contained NULLed entries.
; 12615: 			*/
; 12616: 			outSeq = mergeAndClear(NULL, seq, 1);

	mov	esi, DWORD PTR _seq$1$[ebp]
	push	1
	push	esi
	push	edx

; 12617: 		    } else {

	jmp	SHORT $LN358@xmlXPathNo
$LN228@xmlXPathNo:

; 12618: 			outSeq = seq;
; 12619: 			seq = NULL;

	xor	esi, esi
	mov	DWORD PTR _outSeq$1$[ebp], edi
	mov	DWORD PTR _seq$1$[ebp], esi

; 12620: 		    }
; 12621: 		} else

	jmp	SHORT $LN227@xmlXPathNo
$LN226@xmlXPathNo:

; 12622: 		    outSeq = mergeAndClear(outSeq, seq,

	xor	eax, eax
	cmp	esi, ecx
	mov	esi, DWORD PTR _seq$1$[ebp]
	setne	al
	push	eax
	push	esi
	push	edx
$LN358@xmlXPathNo:

; 12623: 			(size != newSize) ? 1: 0);
; 12624: 		/*
; 12625: 		* Break if only a true/false result was requested.
; 12626: 		*/
; 12627: 		if (toBool)

	call	DWORD PTR _mergeAndClear$1$[ebp]
	mov	DWORD PTR _outSeq$1$[ebp], eax
	add	esp, 12					; 0000000cH
$LN227@xmlXPathNo:
	cmp	DWORD PTR _toBool$[ebp], 0
	jne	SHORT $LN311@xmlXPathNo

; 12628: 		    break;
; 12629: 	    }

	mov	ecx, DWORD PTR _contextIdx$1$[ebp]
	jmp	$LN357@xmlXPathNo
$LN300@xmlXPathNo:

; 12630:         } else if (seq->nodeNr > 0) {

	test	esi, esi
	jle	$LL312@xmlXPathNo

; 12631: 	    /*
; 12632: 	    * Add to result set.
; 12633: 	    */
; 12634: 	    if (outSeq == NULL) {

	mov	eax, DWORD PTR _outSeq$1$[ebp]
	test	eax, eax
	jne	SHORT $LN232@xmlXPathNo

; 12635: 		outSeq = seq;
; 12636: 		seq = NULL;
; 12637: 	    } else {

	mov	ecx, DWORD PTR _contextIdx$1$[ebp]
	xor	esi, esi
	mov	DWORD PTR _outSeq$1$[ebp], edi
	mov	DWORD PTR _seq$1$[ebp], esi
	jmp	$LN357@xmlXPathNo
$LN232@xmlXPathNo:

; 12638: 		outSeq = mergeAndClear(outSeq, seq, 0);

	mov	esi, DWORD PTR _seq$1$[ebp]
	push	0
	push	esi
	push	eax
	call	DWORD PTR _mergeAndClear$1$[ebp]

; 12639: 	    }
; 12640: 	}
; 12641:     }

	mov	ecx, DWORD PTR _contextIdx$1$[ebp]
	add	esp, 12					; 0000000cH
	mov	DWORD PTR _outSeq$1$[ebp], eax
	jmp	$LN357@xmlXPathNo
$LN293@xmlXPathNo:

; 12307: 		total = 0;

	mov	DWORD PTR _total$1$[ebp], 0

; 12308: 		goto error;

	jmp	SHORT $LN311@xmlXPathNo
$first_hit$372:

; 12532: 
; 12533: first_hit: /* ---------------------------------------------------------- */
; 12534: 	/*
; 12535: 	* Break if only a true/false result was requested and
; 12536: 	* no predicates existed and a node test succeeded.
; 12537: 	*/
; 12538: 	if (outSeq == NULL) {

	mov	eax, DWORD PTR _outSeq$1$[ebp]
	test	eax, eax
	jne	SHORT $LN215@xmlXPathNo

; 12539: 	    outSeq = seq;
; 12540: 	    seq = NULL;
; 12541: 	} else

	mov	ebx, DWORD PTR _ctxt$[ebp]
	xor	edi, edi
	mov	DWORD PTR _outSeq$1$[ebp], esi
	jmp	SHORT $error$374
$LN215@xmlXPathNo:

; 12542: 	    outSeq = mergeAndClear(outSeq, seq, 0);

	push	0
	push	esi
	push	eax
	call	DWORD PTR _mergeAndClear$1$[ebp]
	add	esp, 12					; 0000000cH
	mov	DWORD PTR _outSeq$1$[ebp], eax
$LN360@xmlXPathNo:

; 12642: 
; 12643: error:
; 12644:     if ((obj->boolval) && (obj->user != NULL)) {

	mov	ebx, DWORD PTR _ctxt$[ebp]
$LN311@xmlXPathNo:
	mov	edi, DWORD PTR _seq$1$[ebp]
$error$374:
	mov	edx, DWORD PTR _obj$1$[ebp]
	cmp	DWORD PTR [edx+8], 0
	je	SHORT $LN234@xmlXPathNo
	cmp	DWORD PTR [edx+28], 0
	je	SHORT $LN234@xmlXPathNo

; 12645: 	/*
; 12646: 	* QUESTION TODO: What does this do and why?
; 12647: 	* TODO: Do we have to do this also for the "error"
; 12648: 	* cleanup further down?
; 12649: 	*/
; 12650: 	ctxt->value->boolval = 1;

	mov	eax, DWORD PTR [ebx+16]
	mov	DWORD PTR [eax+8], 1

; 12651: 	ctxt->value->user = obj->user;

	mov	ecx, DWORD PTR [ebx+16]
	mov	eax, DWORD PTR [edx+28]
	mov	DWORD PTR [ecx+28], eax

; 12652: 	obj->user = NULL;

	mov	DWORD PTR [edx+28], 0

; 12653: 	obj->boolval = 0;

	mov	DWORD PTR [edx+8], 0
$LN234@xmlXPathNo:

; 12654:     }
; 12655:     xmlXPathReleaseObject(xpctxt, obj);

	mov	esi, DWORD PTR _xpctxt$1$[ebp]
	push	edx
	push	esi
	call	_xmlXPathReleaseObject

; 12656: 
; 12657:     /*
; 12658:     * Ensure we return at least an emtpy set.
; 12659:     */
; 12660:     if (outSeq == NULL) {

	mov	eax, DWORD PTR _outSeq$1$[ebp]
	add	esp, 8
	test	eax, eax
	jne	SHORT $LN237@xmlXPathNo

; 12661: 	if ((seq != NULL) && (seq->nodeNr == 0))

	test	edi, edi
	je	SHORT $LN236@xmlXPathNo
	cmp	DWORD PTR [edi], eax
	jne	SHORT $LN236@xmlXPathNo

; 12662: 	    outSeq = seq;

	mov	eax, edi
	jmp	SHORT $LN361@xmlXPathNo
$LN52@xmlXPathNo:

; 12359:                 case NODE_TEST_NONE:
; 12360: 		    total = 0;

	mov	DWORD PTR _total$1$[ebp], 0

; 12361:                     STRANGE

	call	___xmlGenericError
	mov	esi, eax
	call	___xmlGenericErrorContext
	push	12361					; 00003049H
	push	OFFSET ??_C@_0GH@HIGHEHKE@c?3?2users?2dag?2documents?2_clients@
	push	OFFSET ??_C@_0BJ@DADKHPPP@Internal?5error?5at?5?$CFs?3?$CFd?6@
	push	DWORD PTR [eax]
	mov	eax, DWORD PTR [esi]
	call	eax
	add	esp, 16					; 00000010H

; 12362: 		    goto error;

	jmp	$LN360@xmlXPathNo
$LN296@xmlXPathNo:

; 12595: 		total = 0;

	mov	DWORD PTR _total$1$[ebp], 0
	jmp	$error$374
$LN236@xmlXPathNo:

; 12663: 	else
; 12664: 	    outSeq = xmlXPathNodeSetCreate(NULL);

	push	0
	call	_xmlXPathNodeSetCreate
	add	esp, 4
$LN361@xmlXPathNo:

; 12665:         /* XXX what if xmlXPathNodeSetCreate returned NULL here? */
; 12666:     }
; 12667:     if ((seq != NULL) && (seq != outSeq)) {

	mov	DWORD PTR _outSeq$1$[ebp], eax
$LN237@xmlXPathNo:
	test	edi, edi
	je	SHORT $LN238@xmlXPathNo
	cmp	edi, eax
	je	SHORT $LN238@xmlXPathNo

; 12668: 	 xmlXPathFreeNodeSet(seq);

	push	edi
	call	_xmlXPathFreeNodeSet
	add	esp, 4
$LN238@xmlXPathNo:

; 12669:     }
; 12670:     /*
; 12671:     * Hand over the result. Better to push the set also in
; 12672:     * case of errors.
; 12673:     */
; 12674:     valuePush(ctxt, xmlXPathCacheWrapNodeSet(xpctxt, outSeq));

	mov	eax, DWORD PTR _outSeq$1$[ebp]
	push	eax
	push	esi
	call	_xmlXPathCacheWrapNodeSet
	push	eax
	push	ebx
	call	_valuePush

; 12675:     /*
; 12676:     * Reset the context node.
; 12677:     */
; 12678:     xpctxt->node = oldContextNode;
; 12679:     /*
; 12680:     * When traversing the namespace axis in "toBool" mode, it's
; 12681:     * possible that tmpNsList wasn't freed.
; 12682:     */
; 12683:     if (xpctxt->tmpNsList != NULL) {

	mov	ecx, DWORD PTR [esi+120]
	add	esp, 16					; 00000010H
	mov	eax, DWORD PTR _oldContextNode$1$[ebp]
	mov	DWORD PTR [esi+4], eax
	test	ecx, ecx
	je	SHORT $LN239@xmlXPathNo

; 12684:         xmlFree(xpctxt->tmpNsList);

	push	ecx
	call	DWORD PTR _xmlFree
	add	esp, 4

; 12685:         xpctxt->tmpNsList = NULL;

	mov	DWORD PTR [esi+120], 0
$LN239@xmlXPathNo:

; 12686:     }
; 12687: 
; 12688: #ifdef DEBUG_STEP
; 12689:     xmlGenericError(xmlGenericErrorContext,
; 12690: 	"\nExamined %d nodes, found %d nodes at that step\n",
; 12691: 	total, nbMatches);
; 12692: #endif
; 12693: 
; 12694:     return(total);

	mov	eax, DWORD PTR _total$1$[ebp]
	pop	edi

; 12695: }

	pop	esi
	pop	ebx
	mov	esp, ebp
	pop	ebp
	ret	0
$LN37@xmlXPathNo:

; 12231: 	xmlXPathReleaseObject(xpctxt, obj);

	push	ecx
	push	edi
	call	_xmlXPathReleaseObject

; 12232:         valuePush(ctxt, xmlXPathCacheWrapNodeSet(xpctxt, NULL));

	push	0
	push	edi
	call	_xmlXPathCacheWrapNodeSet
	push	eax
	push	ebx
	call	_valuePush
	add	esp, 24					; 00000018H

; 12695: }

	xor	eax, eax
	pop	edi
	pop	esi
	pop	ebx
	mov	esp, ebp
	pop	ebp
	ret	0
$LN303@xmlXPathNo:

; 12216: 	    mergeAndClear = xmlXPathNodeSetMergeAndClearNoDupls;
; 12217:             break;
; 12218:     }
; 12219: 
; 12220: #ifdef DEBUG_STEP
; 12221:     xmlXPathDebugDumpStepAxis(op,
; 12222: 	(obj->nodesetval != NULL) ? obj->nodesetval->nodeNr : 0);
; 12223: #endif
; 12224: 
; 12225:     if (next == NULL) {
; 12226: 	xmlXPathReleaseObject(xpctxt, obj);

	push	ecx
	push	edi
	call	_xmlXPathReleaseObject

; 12695: }

	add	esp, 8
	xor	eax, eax
	pop	edi
	pop	esi
	pop	ebx
	mov	esp, ebp
	pop	ebp
	ret	0
$LN16@xmlXPathNo:

; 12061: 
; 12062: #define XP_TEST_HIT \
; 12063:     if (hasAxisRange != 0) { \
; 12064: 	if (++pos == maxPos) { \
; 12065: 	    if (addNode(seq, cur) < 0) \
; 12066: 	        ctxt->error = XPATH_MEMORY_ERROR; \
; 12067: 	    goto axis_range_end; } \
; 12068:     } else { \
; 12069: 	if (addNode(seq, cur) < 0) \
; 12070: 	    ctxt->error = XPATH_MEMORY_ERROR; \
; 12071: 	if (breakOnFirstHit) goto first_hit; }
; 12072: 
; 12073: #define XP_TEST_HIT_NS \
; 12074:     if (hasAxisRange != 0) { \
; 12075: 	if (++pos == maxPos) { \
; 12076: 	    hasNsNodes = 1; \
; 12077: 	    if (xmlXPathNodeSetAddNs(seq, xpctxt->node, (xmlNsPtr) cur) < 0) \
; 12078: 	        ctxt->error = XPATH_MEMORY_ERROR; \
; 12079: 	goto axis_range_end; } \
; 12080:     } else { \
; 12081: 	hasNsNodes = 1; \
; 12082: 	if (xmlXPathNodeSetAddNs(seq, xpctxt->node, (xmlNsPtr) cur) < 0) \
; 12083: 	    ctxt->error = XPATH_MEMORY_ERROR; \
; 12084: 	if (breakOnFirstHit) goto first_hit; }
; 12085: 
; 12086:     xmlXPathAxisVal axis = (xmlXPathAxisVal) op->value;
; 12087:     xmlXPathTestVal test = (xmlXPathTestVal) op->value2;
; 12088:     xmlXPathTypeVal type = (xmlXPathTypeVal) op->value3;
; 12089:     const xmlChar *prefix = op->value4;
; 12090:     const xmlChar *name = op->value5;
; 12091:     const xmlChar *URI = NULL;
; 12092: 
; 12093: #ifdef DEBUG_STEP
; 12094:     int nbMatches = 0, prevMatches = 0;
; 12095: #endif
; 12096:     int total = 0, hasNsNodes = 0;
; 12097:     /* The popped object holding the context nodes */
; 12098:     xmlXPathObjectPtr obj;
; 12099:     /* The set of context nodes for the node tests */
; 12100:     xmlNodeSetPtr contextSeq;
; 12101:     int contextIdx;
; 12102:     xmlNodePtr contextNode;
; 12103:     /* The final resulting node set wrt to all context nodes */
; 12104:     xmlNodeSetPtr outSeq;
; 12105:     /*
; 12106:     * The temporary resulting node set wrt 1 context node.
; 12107:     * Used to feed predicate evaluation.
; 12108:     */
; 12109:     xmlNodeSetPtr seq;
; 12110:     xmlNodePtr cur;
; 12111:     /* First predicate operator */
; 12112:     xmlXPathStepOpPtr predOp;
; 12113:     int maxPos; /* The requested position() (when a "[n]" predicate) */
; 12114:     int hasPredicateRange, hasAxisRange, pos, size, newSize;
; 12115:     int breakOnFirstHit;
; 12116: 
; 12117:     xmlXPathTraversalFunction next = NULL;
; 12118:     int (*addNode) (xmlNodeSetPtr, xmlNodePtr);
; 12119:     xmlXPathNodeSetMergeFunction mergeAndClear;
; 12120:     xmlNodePtr oldContextNode;
; 12121:     xmlXPathContextPtr xpctxt = ctxt->context;
; 12122: 
; 12123: 
; 12124:     CHECK_TYPE0(XPATH_NODESET);

	push	11					; 0000000bH
	push	ebx
	call	_xmlXPathErr

; 12695: }

	add	esp, 8
	xor	eax, eax
	pop	edi
	pop	esi
	pop	ebx
	mov	esp, ebp
	pop	ebp
	ret	0
	npad	1
$LN368@xmlXPathNo:
	DD	$LN19@xmlXPathNo
	DD	$LN20@xmlXPathNo
	DD	$LN21@xmlXPathNo
	DD	$LN22@xmlXPathNo
	DD	$LN26@xmlXPathNo
	DD	$LN27@xmlXPathNo
	DD	$LN28@xmlXPathNo
	DD	$LN29@xmlXPathNo
	DD	$LN30@xmlXPathNo
	DD	$LN31@xmlXPathNo
	DD	$LN32@xmlXPathNo
	DD	$LN33@xmlXPathNo
	DD	$LN34@xmlXPathNo
$LN369@xmlXPathNo:
	DD	$LN52@xmlXPathNo
	DD	$LN53@xmlXPathNo
	DD	$LN102@xmlXPathNo
	DD	$LN111@xmlXPathNo
	DD	$LN155@xmlXPathNo
	DD	$LN156@xmlXPathNo
$LN370@xmlXPathNo:
	DD	$LN56@xmlXPathNo
	DD	$LN63@xmlXPathNo
	DD	$LN6@xmlXPathNo
$LN306@xmlXPathNo:
	DB	0
	DB	0
	DB	0
	DB	0
	DB	2
	DB	2
	DB	0
	DB	0
	DB	0
	DB	2
	DB	2
	DB	2
	DB	0
	DB	2
	DB	2
	DB	2
	DB	2
	DB	1
	DB	2
	DB	2
	DB	0
_xmlXPathNodeCollectAndTest ENDP
_TEXT	ENDS
; Function compile flags: /Ogtp
; File c:\users\dag\documents\_clients\codeproject authors group\windows on arm\libxml2\libxml2-2.9.9\xpath.c
;	COMDAT _xmlXPathIsPositionalPredicate
_TEXT	SEGMENT
_ctxt$ = 8						; size = 4
_op$ = 12						; size = 4
_maxPos$ = 16						; size = 4
_xmlXPathIsPositionalPredicate PROC			; COMDAT

; 12003: {

	push	ebp
	mov	ebp, esp
	mov	ecx, OFFSET __9DBA2A81_xpath@c
	call	@__CheckForDebuggerJustMyCode@4
	mov	ecx, DWORD PTR _op$[ebp]
	mov	eax, DWORD PTR [ecx]
	cmp	eax, 15					; 0000000fH
	je	SHORT $LN2@xmlXPathIs

; 12004: 
; 12005:     xmlXPathStepOpPtr exprOp;
; 12006: 
; 12007:     /*
; 12008:     * BIG NOTE: This is not intended for XPATH_OP_FILTER yet!
; 12009:     */
; 12010: 
; 12011:     /*
; 12012:     * If not -1, then ch1 will point to:
; 12013:     * 1) For predicates (XPATH_OP_PREDICATE):
; 12014:     *    - an inner predicate operator
; 12015:     * 2) For filters (XPATH_OP_FILTER):
; 12016:     *    - an inner filter operater OR
; 12017:     *    - an expression selecting the node set.
; 12018:     *      E.g. "key('a', 'b')" or "(//foo | //bar)".
; 12019:     */
; 12020:     if ((op->op != XPATH_OP_PREDICATE) && (op->op != XPATH_OP_FILTER))

	cmp	eax, 16					; 00000010H
	jne	SHORT $LN3@xmlXPathIs
$LN2@xmlXPathIs:

; 12021: 	return(0);
; 12022: 
; 12023:     if (op->ch2 != -1) {

	mov	ecx, DWORD PTR [ecx+8]
	cmp	ecx, -1
	je	SHORT $LN3@xmlXPathIs

; 12024: 	exprOp = &ctxt->comp->steps[op->ch2];

	mov	eax, DWORD PTR _ctxt$[ebp]
	lea	ecx, DWORD PTR [ecx+ecx*4]
	mov	eax, DWORD PTR [eax+32]
	mov	eax, DWORD PTR [eax+8]
	lea	eax, DWORD PTR [eax+ecx*8]

; 12027: 
; 12028:     if ((exprOp != NULL) &&
; 12029: 	(exprOp->op == XPATH_OP_VALUE) &&
; 12030: 	(exprOp->value4 != NULL) &&

	test	eax, eax
	je	SHORT $LN3@xmlXPathIs
	cmp	DWORD PTR [eax], 11			; 0000000bH
	jne	SHORT $LN3@xmlXPathIs
	mov	eax, DWORD PTR [eax+24]
	test	eax, eax
	je	SHORT $LN3@xmlXPathIs
	cmp	DWORD PTR [eax], 3
	jne	SHORT $LN3@xmlXPathIs

; 12031: 	(((xmlXPathObjectPtr) exprOp->value4)->type == XPATH_NUMBER))
; 12032:     {
; 12033:         double floatval = ((xmlXPathObjectPtr) exprOp->value4)->floatval;

	movsd	xmm1, QWORD PTR [eax+16]

; 12034: 
; 12035: 	/*
; 12036: 	* We have a "[n]" predicate here.
; 12037: 	* TODO: Unfortunately this simplistic test here is not
; 12038: 	* able to detect a position() predicate in compound
; 12039: 	* expressions like "[@attr = 'a" and position() = 1],
; 12040: 	* and even not the usage of position() in
; 12041: 	* "[position() = 1]"; thus - obviously - a position-range,
; 12042: 	* like it "[position() < 5]", is also not detected.
; 12043: 	* Maybe we could rewrite the AST to ease the optimization.
; 12044: 	*/
; 12045: 
; 12046:         if ((floatval > INT_MIN) && (floatval < INT_MAX)) {

	comisd	xmm1, QWORD PTR __real@c1e0000000000000
	jbe	SHORT $LN3@xmlXPathIs
	movsd	xmm0, QWORD PTR __real@41dfffffffc00000
	comisd	xmm0, xmm1
	jbe	SHORT $LN3@xmlXPathIs

; 12047: 	    *maxPos = (int) floatval;

	mov	eax, DWORD PTR _maxPos$[ebp]
	cvttsd2si ecx, xmm1
	mov	DWORD PTR [eax], ecx
	movd	xmm0, ecx

; 12048:             if (floatval == (double) *maxPos)

	cvtdq2pd xmm0, xmm0
	ucomisd	xmm1, xmm0
	lahf
	test	ah, 68					; 00000044H
	jp	SHORT $LN3@xmlXPathIs

; 12049:                 return(1);

	mov	eax, 1

; 12050:         }
; 12051:     }
; 12052:     return(0);
; 12053: }

	pop	ebp
	ret	0
$LN3@xmlXPathIs:

; 12025:     } else
; 12026: 	return(0);

	xor	eax, eax

; 12050:         }
; 12051:     }
; 12052:     return(0);
; 12053: }

	pop	ebp
	ret	0
_xmlXPathIsPositionalPredicate ENDP
_TEXT	ENDS
; Function compile flags: /Ogtp
; File c:\users\dag\documents\_clients\codeproject authors group\windows on arm\libxml2\libxml2-2.9.9\xpath.c
;	COMDAT _xmlXPathCompOpEvalPositionalPredicate
_TEXT	SEGMENT
_oldpp$1$ = -52						; size = 4
_oldcs$1$ = -48						; size = 4
_oldContextDoc$1$ = -44					; size = 4
_oldContextNode$1$ = -40				; size = 4
tv653 = -36						; size = 4
_ret$1$ = -32						; size = 4
_exprOp$1$ = -28					; size = 4
_pos$1$ = -24						; size = 4
_res$1$ = -20						; size = 4
_contextPos$1$ = -16					; size = 4
_contextSize$1$ = -12					; size = 4
_newContextSize$1$ = -8					; size = 4
_i$1$ = -4						; size = 4
_ctxt$ = 8						; size = 4
_xpctxt$1$ = 12						; size = 4
_op$ = 12						; size = 4
_set$ = 16						; size = 4
_contextSize$ = 20					; size = 4
_minPos$ = 24						; size = 4
_maxPos$ = 28						; size = 4
_hasNsNodes$ = 32					; size = 4
_xmlXPathCompOpEvalPositionalPredicate PROC		; COMDAT

; 11804: {

	push	ebp
	mov	ebp, esp
	sub	esp, 52					; 00000034H
	mov	ecx, OFFSET __9DBA2A81_xpath@c
	push	ebx
	push	esi
	push	edi
	call	@__CheckForDebuggerJustMyCode@4
	mov	edi, DWORD PTR _op$[ebp]
	mov	ebx, DWORD PTR _hasNsNodes$[ebp]
	mov	edx, DWORD PTR _set$[ebp]
	mov	esi, DWORD PTR _ctxt$[ebp]
	mov	ecx, DWORD PTR [edi+4]
	cmp	ecx, -1
	je	SHORT $LN71@xmlXPathCo

; 11806: 	xmlXPathCompExprPtr comp = ctxt->comp;
; 11807: 	if (comp->steps[op->ch1].op != XPATH_OP_PREDICATE) {
; 11808: 	    /*
; 11809: 	    * TODO: raise an internal error.
; 11810: 	    */
; 11811: 	}
; 11812: 	contextSize = xmlXPathCompOpEvalPredicate(ctxt,

	mov	eax, DWORD PTR [esi+32]
	lea	ecx, DWORD PTR [ecx+ecx*4]
	push	ebx
	push	DWORD PTR _contextSize$[ebp]
	mov	eax, DWORD PTR [eax+8]
	push	edx
	lea	eax, DWORD PTR [eax+ecx*8]
	push	eax
	push	esi
	call	_xmlXPathCompOpEvalPredicate
	add	esp, 20					; 00000014H
	mov	DWORD PTR _contextSize$1$[ebp], eax

; 11813: 	    &comp->steps[op->ch1], set, contextSize, hasNsNodes);
; 11814: 	CHECK_ERROR0;

	cmp	DWORD PTR [esi+8], 0
	jne	SHORT $LN69@xmlXPathCo

; 11815: 	if (contextSize <= 0)

	test	eax, eax
	jg	SHORT $LN76@xmlXPathCo
$LN69@xmlXPathCo:
	pop	edi

; 11995:     }
; 11996:     return(contextSize);
; 11997: }

	pop	esi
	xor	eax, eax
	pop	ebx
	mov	esp, ebp
	pop	ebp
	ret	0
$LN71@xmlXPathCo:

; 11805:     if (op->ch1 != -1) {

	mov	eax, DWORD PTR _contextSize$[ebp]
	mov	DWORD PTR _contextSize$1$[ebp], eax

; 11815: 	if (contextSize <= 0)

	jmp	SHORT $LN10@xmlXPathCo
$LN76@xmlXPathCo:
	mov	edx, DWORD PTR _set$[ebp]
$LN10@xmlXPathCo:

; 11816: 	    return(0);
; 11817:     }
; 11818:     /*
; 11819:     * Check if the node set contains a sufficient number of nodes for
; 11820:     * the requested range.
; 11821:     */
; 11822:     if (contextSize < minPos) {

	cmp	eax, DWORD PTR _minPos$[ebp]
	jge	SHORT $LN11@xmlXPathCo

; 4230 :     xmlXPathNodeSetClearFromPos(set, 0, hasNsNodes);

	push	ebx
	push	0
	push	edx
	call	_xmlXPathNodeSetClearFromPos
	add	esp, 12					; 0000000cH

; 11823: 	xmlXPathNodeSetClear(set, hasNsNodes);
; 11824: 	return(0);

	xor	eax, eax
	pop	edi

; 11995:     }
; 11996:     return(contextSize);
; 11997: }

	pop	esi
	pop	ebx
	mov	esp, ebp
	pop	ebp
	ret	0
$LN11@xmlXPathCo:

; 11825:     }
; 11826:     if (op->ch2 == -1) {

	mov	ecx, DWORD PTR [edi+8]
	cmp	ecx, -1
	je	$LN1@xmlXPathCo

; 11827: 	/*
; 11828: 	* TODO: Can this ever happen?
; 11829: 	*/
; 11830: 	return (contextSize);
; 11831:     } else {
; 11832: 	xmlDocPtr oldContextDoc;
; 11833:         int oldcs, oldpp;
; 11834: 	int i, pos = 0, newContextSize = 0, contextPos = 0, res;
; 11835: 	xmlXPathStepOpPtr exprOp;
; 11836: 	xmlXPathObjectPtr contextObj = NULL, exprRes = NULL;
; 11837: 	xmlNodePtr oldContextNode, contextNode = NULL;
; 11838: 	xmlXPathContextPtr xpctxt = ctxt->context;

	mov	edx, DWORD PTR [esi+12]

; 11839:         int frame;
; 11840: 
; 11841: #ifdef LIBXML_XPTR_ENABLED
; 11842: 	    /*
; 11843: 	    * URGENT TODO: Check the following:
; 11844: 	    *  We don't expect location sets if evaluating prediates, right?
; 11845: 	    *  Only filters should expect location sets, right?
; 11846: 	*/
; 11847: #endif /* LIBXML_XPTR_ENABLED */
; 11848: 
; 11849: 	/*
; 11850: 	* Save old context.
; 11851: 	*/
; 11852: 	oldContextNode = xpctxt->node;
; 11853: 	oldContextDoc = xpctxt->doc;
; 11854:         oldcs = xpctxt->contextSize;
; 11855:         oldpp = xpctxt->proximityPosition;
; 11856: 	/*
; 11857: 	* Get the expression of this predicate.
; 11858: 	*/
; 11859: 	exprOp = &ctxt->comp->steps[op->ch2];

	lea	ecx, DWORD PTR [ecx+ecx*4]
	xor	ebx, ebx
	mov	DWORD PTR _pos$1$[ebp], 0

; 11860: 	for (i = 0; i < set->nodeNr; i++) {

	xor	edi, edi
	mov	DWORD PTR _newContextSize$1$[ebp], 0
	mov	DWORD PTR _contextPos$1$[ebp], 0
	mov	eax, DWORD PTR [edx+4]
	mov	DWORD PTR _oldContextNode$1$[ebp], eax
	mov	eax, DWORD PTR [edx]
	mov	DWORD PTR _oldContextDoc$1$[ebp], eax
	mov	eax, DWORD PTR [edx+68]
	mov	DWORD PTR _oldcs$1$[ebp], eax
	mov	eax, DWORD PTR [edx+72]
	mov	DWORD PTR _oldpp$1$[ebp], eax
	mov	eax, DWORD PTR [esi+32]
	mov	DWORD PTR _xpctxt$1$[ebp], edx
	mov	DWORD PTR _i$1$[ebp], edi
	mov	eax, DWORD PTR [eax+8]
	lea	eax, DWORD PTR [eax+ecx*8]
	mov	DWORD PTR _exprOp$1$[ebp], eax
	mov	eax, DWORD PTR _set$[ebp]
	cmp	DWORD PTR [eax], ebx
	jle	$LN31@xmlXPathCo
	npad	4
$LL4@xmlXPathCo:

; 11861:             xmlXPathObjectPtr tmp;
; 11862: 
; 11863: 	    if (set->nodeTab[i] == NULL)

	mov	eax, DWORD PTR [eax+8]
	lea	ecx, DWORD PTR [edi*4]
	mov	DWORD PTR tv653[ebp], ecx
	mov	edi, DWORD PTR [ecx+eax]
	test	edi, edi
	je	$LN2@xmlXPathCo

; 11864: 		continue;
; 11865: 
; 11866: 	    contextNode = set->nodeTab[i];
; 11867: 	    xpctxt->node = contextNode;
; 11868: 	    xpctxt->contextSize = contextSize;

	mov	eax, DWORD PTR _contextSize$1$[ebp]
	mov	DWORD PTR [edx+68], eax

; 11869: 	    xpctxt->proximityPosition = ++contextPos;

	mov	eax, DWORD PTR _contextPos$1$[ebp]
	inc	eax
	mov	DWORD PTR [edx+4], edi
	mov	DWORD PTR [edx+72], eax

; 11870: 
; 11871: 	    /*
; 11872: 	    * Initialize the new set.
; 11873: 	    * Also set the xpath document in case things like
; 11874: 	    * key() evaluation are attempted on the predicate
; 11875: 	    */
; 11876: 	    if ((contextNode->type != XML_NAMESPACE_DECL) &&

	cmp	DWORD PTR [edi+4], 18			; 00000012H
	mov	DWORD PTR _contextPos$1$[ebp], eax
	je	SHORT $LN15@xmlXPathCo
	mov	eax, DWORD PTR [edi+32]
	test	eax, eax
	je	SHORT $LN15@xmlXPathCo

; 11877: 		(contextNode->doc != NULL))
; 11878: 		xpctxt->doc = contextNode->doc;

	mov	DWORD PTR [edx], eax
$LN15@xmlXPathCo:

; 11879: 	    /*
; 11880: 	    * Evaluate the predicate expression with 1 context node
; 11881: 	    * at a time; this node is packaged into a node set; this
; 11882: 	    * node set is handed over to the evaluation mechanism.
; 11883: 	    */
; 11884: 	    if (contextObj == NULL)

	push	edi
	test	ebx, ebx
	jne	SHORT $LN16@xmlXPathCo

; 11885: 		contextObj = xmlXPathCacheNewNodeSet(xpctxt, contextNode);

	push	edx
	call	_xmlXPathCacheNewNodeSet
	add	esp, 8
	mov	ebx, eax
	jmp	SHORT $LN18@xmlXPathCo
$LN16@xmlXPathCo:

; 11886: 	    else {
; 11887: 		if (xmlXPathNodeSetAddUnique(contextObj->nodesetval,
; 11888: 		    contextNode) < 0) {

	push	DWORD PTR [ebx+4]
	call	_xmlXPathNodeSetAddUnique
	add	esp, 8
	test	eax, eax
	js	$LN59@xmlXPathCo
$LN18@xmlXPathCo:

; 11890: 		    goto evaluation_exit;
; 11891: 		}
; 11892: 	    }
; 11893: 
; 11894: 	    valuePush(ctxt, contextObj);

	push	ebx
	push	esi
	call	_valuePush

; 2788 :     ret = ctxt->valueFrame;

	mov	eax, DWORD PTR [esi+44]

; 11895:             frame = xmlXPathSetFrame(ctxt);
; 11896: 	    res = xmlXPathCompOpEvalToBoolean(ctxt, exprOp, 1);

	push	1
	push	DWORD PTR _exprOp$1$[ebp]

; 2788 :     ret = ctxt->valueFrame;

	mov	DWORD PTR _ret$1$[ebp], eax

; 2789 :     ctxt->valueFrame = ctxt->valueNr;

	mov	eax, DWORD PTR [esi+20]

; 11895:             frame = xmlXPathSetFrame(ctxt);
; 11896: 	    res = xmlXPathCompOpEvalToBoolean(ctxt, exprOp, 1);

	push	esi

; 2789 :     ctxt->valueFrame = ctxt->valueNr;

	mov	DWORD PTR [esi+44], eax

; 11895:             frame = xmlXPathSetFrame(ctxt);
; 11896: 	    res = xmlXPathCompOpEvalToBoolean(ctxt, exprOp, 1);

	call	_xmlXPathCompOpEvalToBoolean

; 2804 :     if (ctxt->valueNr < ctxt->valueFrame) {

	mov	ecx, DWORD PTR [esi+20]

; 11895:             frame = xmlXPathSetFrame(ctxt);
; 11896: 	    res = xmlXPathCompOpEvalToBoolean(ctxt, exprOp, 1);

	add	esp, 20					; 00000014H
	mov	DWORD PTR _res$1$[ebp], eax

; 2804 :     if (ctxt->valueNr < ctxt->valueFrame) {

	cmp	ecx, DWORD PTR [esi+44]
	jge	SHORT $LN44@xmlXPathCo

; 747  :     xmlXPathErr(ctxt, no);

	push	23					; 00000017H
	push	esi
	call	_xmlXPathErr
	add	esp, 8
$LN44@xmlXPathCo:

; 2807 :     ctxt->valueFrame = frame;

	mov	eax, DWORD PTR _ret$1$[ebp]

; 11897:             xmlXPathPopFrame(ctxt, frame);
; 11898:             tmp = valuePop(ctxt);

	push	esi

; 2807 :     ctxt->valueFrame = frame;

	mov	DWORD PTR [esi+44], eax

; 11897:             xmlXPathPopFrame(ctxt, frame);
; 11898:             tmp = valuePop(ctxt);

	call	_valuePop
	add	esp, 4
	mov	edx, eax

; 11899: 
; 11900: 	    if ((ctxt->error != XPATH_EXPRESSION_OK) || (res == -1)) {

	cmp	DWORD PTR [esi+8], 0
	jne	$LN58@xmlXPathCo
	cmp	DWORD PTR _res$1$[ebp], -1
	je	$LN58@xmlXPathCo

; 11907:                     tmp = valuePop(ctxt);
; 11908:                 }
; 11909: 		goto evaluation_error;
; 11910: 	    }
; 11911:             /* push the result back onto the stack */
; 11912:             valuePush(ctxt, tmp);

	push	edx
	push	esi
	call	_valuePush
	add	esp, 8

; 11913: 
; 11914: 	    if (res)

	cmp	DWORD PTR _res$1$[ebp], 0
	je	SHORT $LN22@xmlXPathCo

; 11915: 		pos++;

	mov	eax, DWORD PTR _pos$1$[ebp]

; 11916: 
; 11917: 	    if (res && (pos >= minPos) && (pos <= maxPos)) {

	mov	edx, DWORD PTR _minPos$[ebp]
	inc	eax
	mov	DWORD PTR _pos$1$[ebp], eax
	cmp	eax, edx
	jl	SHORT $LN22@xmlXPathCo
	mov	ecx, DWORD PTR _maxPos$[ebp]
	cmp	eax, ecx
	jg	SHORT $LN22@xmlXPathCo

; 11918: 		/*
; 11919: 		* Fits in the requested range.
; 11920: 		*/
; 11921: 		newContextSize++;

	inc	DWORD PTR _newContextSize$1$[ebp]

; 11922: 		if (minPos == maxPos) {

	cmp	edx, ecx
	je	SHORT $LN61@xmlXPathCo

; 11937: 		}
; 11938: 		if (pos == maxPos) {

	cmp	eax, ecx
	jne	SHORT $LN27@xmlXPathCo

; 11939: 		    /*
; 11940: 		    * We are done.
; 11941: 		    */
; 11942: 		    xmlXPathNodeSetClearFromPos(set, i +1, hasNsNodes);

	push	DWORD PTR _hasNsNodes$[ebp]
	mov	eax, DWORD PTR _i$1$[ebp]
	mov	ecx, DWORD PTR _set$[ebp]
	inc	eax
	push	eax
	push	ecx
	call	_xmlXPathNodeSetClearFromPos
	add	esp, 12					; 0000000cH

; 11943: 		    goto evaluation_exit;

	jmp	$LN72@xmlXPathCo
$LN22@xmlXPathCo:

; 11944: 		}
; 11945: 	    } else {
; 11946: 		/*
; 11947: 		* Remove the entry from the initial node set.
; 11948: 		*/
; 11949: 		set->nodeTab[i] = NULL;

	mov	ecx, DWORD PTR _set$[ebp]
	mov	eax, DWORD PTR [ecx+8]
	mov	ecx, DWORD PTR tv653[ebp]
	mov	DWORD PTR [ecx+eax], 0

; 11950: 		if (contextNode->type == XML_NAMESPACE_DECL)

	cmp	DWORD PTR [edi+4], 18			; 00000012H
	jne	SHORT $LN27@xmlXPathCo

; 11951: 		    xmlXPathNodeSetFreeNs((xmlNsPtr) contextNode);

	push	edi
	call	_xmlXPathNodeSetFreeNs
	add	esp, 4
$LN27@xmlXPathCo:

; 11952: 	    }
; 11953: 	    if (exprRes != NULL) {
; 11954: 		xmlXPathReleaseObject(ctxt->context, exprRes);
; 11955: 		exprRes = NULL;
; 11956: 	    }
; 11957: 	    if (ctxt->value == contextObj) {

	cmp	DWORD PTR [esi+16], ebx
	jne	SHORT $LN29@xmlXPathCo

; 11958: 		/*
; 11959: 		* Don't free the temporary XPath object holding the
; 11960: 		* context node, in order to avoid massive recreation
; 11961: 		* inside this loop.
; 11962: 		*/
; 11963: 		valuePop(ctxt);

	push	esi
	call	_valuePop

; 11964: 		xmlXPathNodeSetClear(contextObj->nodesetval, hasNsNodes);

	push	DWORD PTR _hasNsNodes$[ebp]
	push	DWORD PTR [ebx+4]
	call	_xmlXPathNodeSetClear
	add	esp, 12					; 0000000cH

; 11965: 	    } else {

	jmp	SHORT $LN77@xmlXPathCo
$LN29@xmlXPathCo:

; 11966: 		/*
; 11967: 		* The object was lost in the evaluation machinery.
; 11968: 		* Can this happen? Maybe in case of internal-errors.
; 11969: 		*/
; 11970: 		contextObj = NULL;

	xor	ebx, ebx
$LN77@xmlXPathCo:

; 11860: 	for (i = 0; i < set->nodeNr; i++) {

	mov	edx, DWORD PTR _xpctxt$1$[ebp]
$LN2@xmlXPathCo:
	mov	edi, DWORD PTR _i$1$[ebp]
	mov	eax, DWORD PTR _set$[ebp]
	inc	edi
	mov	DWORD PTR _i$1$[ebp], edi
	cmp	edi, DWORD PTR [eax]
	jl	$LL4@xmlXPathCo
	jmp	$LN72@xmlXPathCo
$LN61@xmlXPathCo:

; 11923: 		    /*
; 11924: 		    * Only 1 node was requested.
; 11925: 		    */
; 11926: 		    if (contextNode->type == XML_NAMESPACE_DECL) {

	cmp	DWORD PTR [edi+4], 18			; 00000012H
	mov	ecx, DWORD PTR _set$[ebp]
	jne	SHORT $LN25@xmlXPathCo

; 11927: 			/*
; 11928: 			* As always: take care of those nasty
; 11929: 			* namespace nodes.
; 11930: 			*/
; 11931: 			set->nodeTab[i] = NULL;

	mov	eax, DWORD PTR [ecx+8]
	mov	edx, DWORD PTR _i$1$[ebp]
	mov	DWORD PTR [eax+edx*4], 0
$LN25@xmlXPathCo:

; 11932: 		    }
; 11933: 		    xmlXPathNodeSetClear(set, hasNsNodes);

	push	DWORD PTR _hasNsNodes$[ebp]
	push	ecx
	call	_xmlXPathNodeSetClear

; 11934: 		    set->nodeNr = 1;

	mov	eax, DWORD PTR _set$[ebp]
	add	esp, 8
	mov	DWORD PTR [eax], 1

; 11935: 		    set->nodeTab[0] = contextNode;

	mov	eax, DWORD PTR [eax+8]
	mov	DWORD PTR [eax], edi

; 11936: 		    goto evaluation_exit;

	jmp	$LN72@xmlXPathCo
$LN58@xmlXPathCo:

; 11901:                 while (tmp != contextObj) {

	mov	edi, DWORD PTR _xpctxt$1$[ebp]
	cmp	edx, ebx
	je	SHORT $evaluation_error$79
$LL5@xmlXPathCo:

; 11902:                     /*
; 11903:                      * Free up the result
; 11904:                      * then pop off contextObj, which will be freed later
; 11905:                      */
; 11906:                     xmlXPathReleaseObject(xpctxt, tmp);

	push	edx
	push	edi
	call	_xmlXPathReleaseObject

; 2823 :     if ((ctxt == NULL) || (ctxt->valueNr <= 0))

	mov	eax, DWORD PTR [esi+20]

; 11902:                     /*
; 11903:                      * Free up the result
; 11904:                      * then pop off contextObj, which will be freed later
; 11905:                      */
; 11906:                     xmlXPathReleaseObject(xpctxt, tmp);

	add	esp, 8

; 2823 :     if ((ctxt == NULL) || (ctxt->valueNr <= 0))

	test	eax, eax
	jle	SHORT $LN48@xmlXPathCo

; 2824 :         return (NULL);
; 2825 : 
; 2826 :     if (ctxt->valueNr <= ctxt->valueFrame) {

	cmp	eax, DWORD PTR [esi+44]
	jg	SHORT $LN49@xmlXPathCo

; 747  :     xmlXPathErr(ctxt, no);

	push	23					; 00000017H
	push	esi
	call	_xmlXPathErr
	add	esp, 8
$LN48@xmlXPathCo:

; 11901:                 while (tmp != contextObj) {

	xor	edx, edx
$LN46@xmlXPathCo:
	cmp	edx, ebx
	jne	SHORT $LL5@xmlXPathCo
$evaluation_error$79:

; 4230 :     xmlXPathNodeSetClearFromPos(set, 0, hasNsNodes);

	push	DWORD PTR _hasNsNodes$[ebp]
	mov	ecx, DWORD PTR _set$[ebp]
	push	0
	push	ecx
	call	_xmlXPathNodeSetClearFromPos
	add	esp, 12					; 0000000cH

; 11971: 	    }
; 11972: 	}
; 11973: 	goto evaluation_exit;
; 11974: 
; 11975: evaluation_error:
; 11976: 	xmlXPathNodeSetClear(set, hasNsNodes);
; 11977: 	newContextSize = 0;

	mov	DWORD PTR _newContextSize$1$[ebp], 0
	jmp	SHORT $evaluation_exit$80
$LN49@xmlXPathCo:

; 2831 :     ctxt->valueNr--;

	lea	ecx, DWORD PTR [eax-1]
	mov	DWORD PTR [esi+20], ecx

; 2832 :     if (ctxt->valueNr > 0)

	test	ecx, ecx
	jle	SHORT $LN50@xmlXPathCo

; 2833 :         ctxt->value = ctxt->valueTab[ctxt->valueNr - 1];

	mov	eax, DWORD PTR [esi+28]
	mov	eax, DWORD PTR [eax+ecx*4-4]
	jmp	SHORT $LN51@xmlXPathCo
$LN50@xmlXPathCo:

; 2834 :     else
; 2835 :         ctxt->value = NULL;

	xor	eax, eax
$LN51@xmlXPathCo:

; 2836 :     ret = ctxt->valueTab[ctxt->valueNr];

	mov	DWORD PTR [esi+16], eax
	mov	eax, DWORD PTR [esi+28]
	mov	edx, DWORD PTR [eax+ecx*4]

; 2837 :     ctxt->valueTab[ctxt->valueNr] = NULL;

	mov	DWORD PTR [eax+ecx*4], 0

; 2838 :     return (ret);

	jmp	SHORT $LN46@xmlXPathCo
$LN59@xmlXPathCo:

; 11889: 		    ctxt->error = XPATH_MEMORY_ERROR;

	mov	DWORD PTR [esi+8], 15			; 0000000fH
$LN72@xmlXPathCo:

; 11978: 
; 11979: evaluation_exit:
; 11980: 	if (contextObj != NULL) {

	mov	edi, DWORD PTR _xpctxt$1$[ebp]
$evaluation_exit$80:
	test	ebx, ebx
	je	SHORT $LN74@xmlXPathCo

; 11981: 	    if (ctxt->value == contextObj)

	cmp	DWORD PTR [esi+16], ebx
	jne	SHORT $LN32@xmlXPathCo

; 11982: 		valuePop(ctxt);

	push	esi
	call	_valuePop
	add	esp, 4
$LN32@xmlXPathCo:

; 11983: 	    xmlXPathReleaseObject(xpctxt, contextObj);

	push	ebx
	push	edi
	call	_xmlXPathReleaseObject
	add	esp, 8
$LN74@xmlXPathCo:

; 11984: 	}
; 11985: 	if (exprRes != NULL)
; 11986: 	    xmlXPathReleaseObject(ctxt->context, exprRes);
; 11987: 	/*
; 11988: 	* Reset/invalidate the context.
; 11989: 	*/
; 11990: 	xpctxt->node = oldContextNode;

	mov	edx, DWORD PTR _xpctxt$1$[ebp]
$LN31@xmlXPathCo:
	mov	eax, DWORD PTR _oldContextNode$1$[ebp]
	mov	DWORD PTR [edx+4], eax

; 11991: 	xpctxt->doc = oldContextDoc;

	mov	eax, DWORD PTR _oldContextDoc$1$[ebp]
	mov	DWORD PTR [edx], eax

; 11992: 	xpctxt->contextSize = oldcs;

	mov	eax, DWORD PTR _oldcs$1$[ebp]
	mov	DWORD PTR [edx+68], eax

; 11993: 	xpctxt->proximityPosition = oldpp;

	mov	eax, DWORD PTR _oldpp$1$[ebp]
	mov	DWORD PTR [edx+72], eax

; 11994: 	return(newContextSize);

	mov	eax, DWORD PTR _newContextSize$1$[ebp]
$LN1@xmlXPathCo:

; 11995:     }
; 11996:     return(contextSize);
; 11997: }

	pop	edi
	pop	esi
	pop	ebx
	mov	esp, ebp
	pop	ebp
	ret	0
_xmlXPathCompOpEvalPositionalPredicate ENDP
_TEXT	ENDS
; Function compile flags: /Ogtp
; File c:\users\dag\documents\_clients\codeproject authors group\windows on arm\libxml2\libxml2-2.9.9\xpath.c
;	COMDAT _xmlXPathCompOpEvalPredicate
_TEXT	SEGMENT
_oldpp$1$ = -40						; size = 4
_oldcs$1$ = -36						; size = 4
_oldContextDoc$1$ = -32					; size = 4
_oldContextNode$1$ = -28				; size = 4
tv418 = -24						; size = 4
_exprOp$1$ = -20					; size = 4
_i$1$ = -16						; size = 4
_contextPos$1$ = -12					; size = 4
_contextSize$1$ = -8					; size = 4
_newContextSize$1$ = -4					; size = 4
_ctxt$ = 8						; size = 4
_xpctxt$1$ = 12						; size = 4
_op$ = 12						; size = 4
_set$ = 16						; size = 4
_contextSize$ = 20					; size = 4
_hasNsNodes$ = 24					; size = 4
_xmlXPathCompOpEvalPredicate PROC			; COMDAT

; 11643: {

	push	ebp
	mov	ebp, esp
	sub	esp, 40					; 00000028H
	mov	ecx, OFFSET __9DBA2A81_xpath@c
	push	ebx
	push	esi
	call	@__CheckForDebuggerJustMyCode@4
	mov	esi, DWORD PTR _op$[ebp]
	mov	ebx, DWORD PTR _ctxt$[ebp]
	mov	ecx, DWORD PTR [esi+4]
	cmp	ecx, -1
	je	SHORT $LN40@xmlXPathCo

; 11645: 	xmlXPathCompExprPtr comp = ctxt->comp;
; 11646: 	/*
; 11647: 	* Process inner predicates first.
; 11648: 	*/
; 11649: 	if (comp->steps[op->ch1].op != XPATH_OP_PREDICATE) {
; 11650: 	    /*
; 11651: 	    * TODO: raise an internal error.
; 11652: 	    */
; 11653: 	}
; 11654: 	contextSize = xmlXPathCompOpEvalPredicate(ctxt,

	mov	eax, DWORD PTR [ebx+32]
	lea	ecx, DWORD PTR [ecx+ecx*4]
	push	DWORD PTR _hasNsNodes$[ebp]
	mov	edx, DWORD PTR _set$[ebp]
	push	DWORD PTR _contextSize$[ebp]
	mov	eax, DWORD PTR [eax+8]
	push	edx
	lea	eax, DWORD PTR [eax+ecx*8]
	push	eax
	push	ebx
	call	_xmlXPathCompOpEvalPredicate
	add	esp, 20					; 00000014H
	mov	DWORD PTR _contextSize$1$[ebp], eax

; 11655: 	    &comp->steps[op->ch1], set, contextSize, hasNsNodes);
; 11656: 	CHECK_ERROR0;

	cmp	DWORD PTR [ebx+8], 0
	jne	SHORT $LN38@xmlXPathCo

; 11657: 	if (contextSize <= 0)

	test	eax, eax
	jg	SHORT $LN37@xmlXPathCo
$LN38@xmlXPathCo:
	pop	esi

; 11658: 	    return(0);

	xor	eax, eax

; 11792:     }
; 11793:     return(contextSize);
; 11794: }

	pop	ebx
	mov	esp, ebp
	pop	ebp
	ret	0
$LN40@xmlXPathCo:

; 11644:     if (op->ch1 != -1) {

	mov	eax, DWORD PTR _contextSize$[ebp]
	mov	DWORD PTR _contextSize$1$[ebp], eax
$LN37@xmlXPathCo:

; 11659:     }
; 11660:     if (op->ch2 != -1) {

	mov	ecx, DWORD PTR [esi+8]
	cmp	ecx, -1
	je	$LN1@xmlXPathCo

; 11661: 	xmlXPathContextPtr xpctxt = ctxt->context;

	mov	edx, DWORD PTR [ebx+12]

; 11662: 	xmlNodePtr contextNode, oldContextNode;
; 11663: 	xmlDocPtr oldContextDoc;
; 11664:         int oldcs, oldpp;
; 11665: 	int i, res, contextPos = 0, newContextSize;
; 11666: 	xmlXPathStepOpPtr exprOp;
; 11667: 	xmlXPathObjectPtr contextObj = NULL, exprRes = NULL;
; 11668: 
; 11669: #ifdef LIBXML_XPTR_ENABLED
; 11670: 	/*
; 11671: 	* URGENT TODO: Check the following:
; 11672: 	*  We don't expect location sets if evaluating prediates, right?
; 11673: 	*  Only filters should expect location sets, right?
; 11674: 	*/
; 11675: #endif
; 11676: 	/*
; 11677: 	* SPEC XPath 1.0:
; 11678: 	*  "For each node in the node-set to be filtered, the
; 11679: 	*  PredicateExpr is evaluated with that node as the
; 11680: 	*  context node, with the number of nodes in the
; 11681: 	*  node-set as the context size, and with the proximity
; 11682: 	*  position of the node in the node-set with respect to
; 11683: 	*  the axis as the context position;"
; 11684: 	* @oldset is the node-set" to be filtered.
; 11685: 	*
; 11686: 	* SPEC XPath 1.0:
; 11687: 	*  "only predicates change the context position and
; 11688: 	*  context size (see [2.4 Predicates])."
; 11689: 	* Example:
; 11690: 	*   node-set  context pos
; 11691: 	*    nA         1
; 11692: 	*    nB         2
; 11693: 	*    nC         3
; 11694: 	*   After applying predicate [position() > 1] :
; 11695: 	*   node-set  context pos
; 11696: 	*    nB         1
; 11697: 	*    nC         2
; 11698: 	*/
; 11699: 	oldContextNode = xpctxt->node;
; 11700: 	oldContextDoc = xpctxt->doc;
; 11701:         oldcs = xpctxt->contextSize;
; 11702:         oldpp = xpctxt->proximityPosition;
; 11703: 	/*
; 11704: 	* Get the expression of this predicate.
; 11705: 	*/
; 11706: 	exprOp = &ctxt->comp->steps[op->ch2];

	lea	ecx, DWORD PTR [ecx+ecx*4]
	push	edi

; 11707: 	newContextSize = 0;
; 11708: 	for (i = 0; i < set->nodeNr; i++) {

	xor	esi, esi
	mov	DWORD PTR _xpctxt$1$[ebp], edx
	xor	edi, edi
	mov	DWORD PTR _contextPos$1$[ebp], 0
	mov	eax, DWORD PTR [edx+4]
	mov	DWORD PTR _oldContextNode$1$[ebp], eax
	mov	eax, DWORD PTR [edx]
	mov	DWORD PTR _oldContextDoc$1$[ebp], eax
	mov	eax, DWORD PTR [edx+68]
	mov	DWORD PTR _oldcs$1$[ebp], eax
	mov	eax, DWORD PTR [edx+72]
	mov	DWORD PTR _oldpp$1$[ebp], eax
	mov	eax, DWORD PTR [ebx+32]
	mov	DWORD PTR _i$1$[ebp], esi
	mov	eax, DWORD PTR [eax+8]
	lea	eax, DWORD PTR [eax+ecx*8]
	xor	ecx, ecx
	mov	DWORD PTR _exprOp$1$[ebp], eax
	mov	eax, DWORD PTR _set$[ebp]
	mov	DWORD PTR _newContextSize$1$[ebp], ecx
	cmp	DWORD PTR [eax], ecx
	jle	$LN42@xmlXPathCo
$LL4@xmlXPathCo:

; 11709: 	    if (set->nodeTab[i] == NULL)

	mov	eax, DWORD PTR [eax+8]
	lea	ecx, DWORD PTR [esi*4]
	mov	DWORD PTR tv418[ebp], ecx
	mov	esi, DWORD PTR [ecx+eax]
	test	esi, esi
	je	$LN2@xmlXPathCo

; 11710: 		continue;
; 11711: 
; 11712: 	    contextNode = set->nodeTab[i];
; 11713: 	    xpctxt->node = contextNode;
; 11714: 	    xpctxt->contextSize = contextSize;

	mov	eax, DWORD PTR _contextSize$1$[ebp]
	mov	DWORD PTR [edx+68], eax

; 11715: 	    xpctxt->proximityPosition = ++contextPos;

	mov	eax, DWORD PTR _contextPos$1$[ebp]
	inc	eax
	mov	DWORD PTR [edx+4], esi
	mov	DWORD PTR [edx+72], eax

; 11716: 
; 11717: 	    /*
; 11718: 	    * Also set the xpath document in case things like
; 11719: 	    * key() are evaluated in the predicate.
; 11720: 	    */
; 11721: 	    if ((contextNode->type != XML_NAMESPACE_DECL) &&

	cmp	DWORD PTR [esi+4], 18			; 00000012H
	mov	DWORD PTR _contextPos$1$[ebp], eax
	je	SHORT $LN11@xmlXPathCo
	mov	eax, DWORD PTR [esi+32]
	test	eax, eax
	je	SHORT $LN11@xmlXPathCo

; 11722: 		(contextNode->doc != NULL))
; 11723: 		xpctxt->doc = contextNode->doc;

	mov	DWORD PTR [edx], eax
$LN11@xmlXPathCo:

; 11724: 	    /*
; 11725: 	    * Evaluate the predicate expression with 1 context node
; 11726: 	    * at a time; this node is packaged into a node set; this
; 11727: 	    * node set is handed over to the evaluation mechanism.
; 11728: 	    */
; 11729: 	    if (contextObj == NULL)

	push	esi
	test	edi, edi
	jne	SHORT $LN12@xmlXPathCo

; 11730: 		contextObj = xmlXPathCacheNewNodeSet(xpctxt, contextNode);

	push	edx
	call	_xmlXPathCacheNewNodeSet
	add	esp, 8
	mov	edi, eax
	jmp	SHORT $LN14@xmlXPathCo
$LN12@xmlXPathCo:

; 11731: 	    else {
; 11732: 		if (xmlXPathNodeSetAddUnique(contextObj->nodesetval,
; 11733: 		    contextNode) < 0) {

	push	DWORD PTR [edi+4]
	call	_xmlXPathNodeSetAddUnique
	add	esp, 8
	test	eax, eax
	js	$LN31@xmlXPathCo
$LN14@xmlXPathCo:

; 11735: 		    goto evaluation_exit;
; 11736: 		}
; 11737: 	    }
; 11738: 
; 11739: 	    valuePush(ctxt, contextObj);

	push	edi
	push	ebx
	call	_valuePush

; 11740: 
; 11741: 	    res = xmlXPathCompOpEvalToBoolean(ctxt, exprOp, 1);

	push	1
	push	DWORD PTR _exprOp$1$[ebp]
	push	ebx
	call	_xmlXPathCompOpEvalToBoolean
	add	esp, 20					; 00000014H

; 11742: 
; 11743: 	    if ((ctxt->error != XPATH_EXPRESSION_OK) || (res == -1)) {

	cmp	DWORD PTR [ebx+8], 0
	jne	$LN32@xmlXPathCo
	cmp	eax, -1
	je	$LN32@xmlXPathCo

; 11747: 	    }
; 11748: 
; 11749: 	    if (res != 0) {

	test	eax, eax
	je	SHORT $LN17@xmlXPathCo

; 11750: 		newContextSize++;

	inc	DWORD PTR _newContextSize$1$[ebp]

; 11751: 	    } else {

	jmp	SHORT $LN19@xmlXPathCo
$LN17@xmlXPathCo:

; 11752: 		/*
; 11753: 		* Remove the entry from the initial node set.
; 11754: 		*/
; 11755: 		set->nodeTab[i] = NULL;

	mov	edx, DWORD PTR _set$[ebp]
	mov	ecx, DWORD PTR tv418[ebp]
	mov	eax, DWORD PTR [edx+8]
	mov	DWORD PTR [ecx+eax], 0

; 11756: 		if (contextNode->type == XML_NAMESPACE_DECL)

	cmp	DWORD PTR [esi+4], 18			; 00000012H
	jne	SHORT $LN19@xmlXPathCo

; 11757: 		    xmlXPathNodeSetFreeNs((xmlNsPtr) contextNode);

	push	esi
	call	_xmlXPathNodeSetFreeNs
	add	esp, 4
$LN19@xmlXPathCo:

; 11758: 	    }
; 11759: 	    if (ctxt->value == contextObj) {

	cmp	DWORD PTR [ebx+16], edi
	jne	SHORT $LN20@xmlXPathCo

; 11760: 		/*
; 11761: 		* Don't free the temporary XPath object holding the
; 11762: 		* context node, in order to avoid massive recreation
; 11763: 		* inside this loop.
; 11764: 		*/
; 11765: 		valuePop(ctxt);

	push	ebx
	call	_valuePop

; 4230 :     xmlXPathNodeSetClearFromPos(set, 0, hasNsNodes);

	push	DWORD PTR _hasNsNodes$[ebp]
	push	0
	push	DWORD PTR [edi+4]
	call	_xmlXPathNodeSetClearFromPos
	add	esp, 16					; 00000010H

; 11766: 		xmlXPathNodeSetClear(contextObj->nodesetval, hasNsNodes);
; 11767: 	    } else {

	jmp	SHORT $LN43@xmlXPathCo
$LN20@xmlXPathCo:

; 11768: 		/*
; 11769: 		* TODO: The object was lost in the evaluation machinery.
; 11770: 		*  Can this happen? Maybe in internal-error cases.
; 11771: 		*/
; 11772: 		contextObj = NULL;

	xor	edi, edi
$LN43@xmlXPathCo:

; 11707: 	newContextSize = 0;
; 11708: 	for (i = 0; i < set->nodeNr; i++) {

	mov	edx, DWORD PTR _xpctxt$1$[ebp]
$LN2@xmlXPathCo:
	mov	esi, DWORD PTR _i$1$[ebp]
	mov	eax, DWORD PTR _set$[ebp]
	inc	esi
	mov	DWORD PTR _i$1$[ebp], esi
	cmp	esi, DWORD PTR [eax]
	jl	$LL4@xmlXPathCo

; 11773: 	    }
; 11774: 	}
; 11775: 
; 11776: 	if (contextObj != NULL) {

	test	edi, edi
	je	SHORT $LN41@xmlXPathCo

; 11777: 	    if (ctxt->value == contextObj)

	cmp	DWORD PTR [ebx+16], edi
	jne	SHORT $LN23@xmlXPathCo

; 11778: 		valuePop(ctxt);

	push	ebx
	call	_valuePop
	add	esp, 4
$LN23@xmlXPathCo:

; 11779: 	    xmlXPathReleaseObject(xpctxt, contextObj);

	mov	esi, DWORD PTR _xpctxt$1$[ebp]
	push	edi
	push	esi
	call	_xmlXPathReleaseObject
	mov	ecx, DWORD PTR _newContextSize$1$[ebp]
	add	esp, 8
	jmp	SHORT $LN24@xmlXPathCo
$LN32@xmlXPathCo:

; 4230 :     xmlXPathNodeSetClearFromPos(set, 0, hasNsNodes);

	push	DWORD PTR _hasNsNodes$[ebp]
	mov	edx, DWORD PTR _set$[ebp]
	push	0
	push	edx
	call	_xmlXPathNodeSetClearFromPos

; 11746: 		goto evaluation_exit;

	mov	esi, DWORD PTR _xpctxt$1$[ebp]

; 4230 :     xmlXPathNodeSetClearFromPos(set, 0, hasNsNodes);

	add	esp, 12					; 0000000cH

; 11744: 		xmlXPathNodeSetClear(set, hasNsNodes);
; 11745: 		newContextSize = 0;

	xor	ecx, ecx

; 11746: 		goto evaluation_exit;

	jmp	SHORT $LN24@xmlXPathCo
$LN31@xmlXPathCo:

; 11734: 		    ctxt->error = XPATH_MEMORY_ERROR;

	mov	DWORD PTR [ebx+8], 15			; 0000000fH
$LN41@xmlXPathCo:

; 11780: 	}
; 11781: evaluation_exit:
; 11782: 	if (exprRes != NULL)
; 11783: 	    xmlXPathReleaseObject(ctxt->context, exprRes);
; 11784: 	/*
; 11785: 	* Reset/invalidate the context.
; 11786: 	*/
; 11787: 	xpctxt->node = oldContextNode;

	mov	esi, DWORD PTR _xpctxt$1$[ebp]
	mov	ecx, DWORD PTR _newContextSize$1$[ebp]
	jmp	SHORT $LN24@xmlXPathCo
$LN42@xmlXPathCo:

; 11707: 	newContextSize = 0;
; 11708: 	for (i = 0; i < set->nodeNr; i++) {

	mov	esi, edx
$LN24@xmlXPathCo:

; 11780: 	}
; 11781: evaluation_exit:
; 11782: 	if (exprRes != NULL)
; 11783: 	    xmlXPathReleaseObject(ctxt->context, exprRes);
; 11784: 	/*
; 11785: 	* Reset/invalidate the context.
; 11786: 	*/
; 11787: 	xpctxt->node = oldContextNode;

	mov	eax, DWORD PTR _oldContextNode$1$[ebp]
	mov	DWORD PTR [esi+4], eax

; 11788: 	xpctxt->doc = oldContextDoc;

	mov	eax, DWORD PTR _oldContextDoc$1$[ebp]
	mov	DWORD PTR [esi], eax

; 11789: 	xpctxt->contextSize = oldcs;

	mov	eax, DWORD PTR _oldcs$1$[ebp]
	mov	DWORD PTR [esi+68], eax

; 11790: 	xpctxt->proximityPosition = oldpp;

	mov	eax, DWORD PTR _oldpp$1$[ebp]
	mov	DWORD PTR [esi+72], eax

; 11791: 	return(newContextSize);

	mov	eax, ecx
	pop	edi
$LN1@xmlXPathCo:

; 11792:     }
; 11793:     return(contextSize);
; 11794: }

	pop	esi
	pop	ebx
	mov	esp, ebp
	pop	ebp
	ret	0
_xmlXPathCompOpEvalPredicate ENDP
_TEXT	ENDS
; Function compile flags: /Ogtp
; File c:\users\dag\documents\_clients\codeproject authors group\windows on arm\libxml2\libxml2-2.9.9\xpath.c
;	COMDAT _xmlXPathCompOpEval
_TEXT	SEGMENT
_oldpp$1$ = -52						; size = 4
_oldcs$1$ = -48						; size = 4
_rloc$1$ = -44						; size = 4
_res$3$ = -44						; size = 4
_oldpp$2$ = -44						; size = 4
_res$1$ = -40						; size = 4
_tmp$2$ = -40						; size = 4
_res$3$ = -40						; size = 4
_oldpp$1$ = -40						; size = 4
_tmp$1$ = -36						; size = 4
_oldcs$1$ = -36						; size = 4
_obj$2$ = -36						; size = 4
_oldnode$1$ = -32					; size = 4
_oldnode$2$ = -32					; size = 4
_oldnode$1$ = -32					; size = 4
_obj$1$ = -28						; size = 4
_oldDoc$1$ = -28					; size = 4
tv3326 = -28						; size = 4
tv3261 = -28						; size = 4
tv3257 = -28						; size = 4
_res$1$ = -24						; size = 4
_oldcs$2$ = -24						; size = 4
tv3250 = -24						; size = 4
_oldset$1$ = -20					; size = 4
_i$1$ = -20						; size = 4
_tmp$1$ = -20						; size = 4
_newset$1$ = -20					; size = 4
_oldlocset$1$ = -16					; size = 4
_i$1$ = -16						; size = 4
_func$1$ = -16						; size = 4
tv3256 = -16						; size = 4
_oldset$1$ = -12					; size = 4
_newlocset$1$ = -12					; size = 4
_total$11$ = -12					; size = 4
_newlocset$1$ = -8					; size = 4
_i$2$ = -8						; size = 4
_obj$1$ = -8						; size = 4
_frame$1$ = -8						; size = 4
_comp$1$ = -4						; size = 4
_i$2$ = 8						; size = 4
_tmp$2$ = 8						; size = 4
_oldlocset$1$ = 8					; size = 4
_arg2$2$ = 8						; size = 4
_arg2$1$ = 8						; size = 4
_total$7$ = 8						; size = 4
_last$1 = 8						; size = 4
_first$2 = 8						; size = 4
_ctxt$ = 8						; size = 4
_op$ = 12						; size = 4
_xmlXPathCompOpEval PROC				; COMDAT

; 13213: {

	push	ebp
	mov	ebp, esp
	sub	esp, 52					; 00000034H
	push	ebx
	push	esi
	push	edi
	mov	ecx, OFFSET __9DBA2A81_xpath@c
	call	@__CheckForDebuggerJustMyCode@4
	mov	ebx, DWORD PTR _ctxt$[ebp]
	xor	edi, edi
	mov	DWORD PTR _total$11$[ebp], edi
	cmp	DWORD PTR [ebx+8], edi
	jne	$LN214@xmlXPathCo

; 13214:     int total = 0;
; 13215:     int equal, ret;
; 13216:     xmlXPathCompExprPtr comp;
; 13217:     xmlXPathObjectPtr arg1, arg2;
; 13218: 
; 13219:     CHECK_ERROR0;
; 13220:     comp = ctxt->comp;

	mov	esi, DWORD PTR _op$[ebp]
	mov	edx, DWORD PTR [ebx+32]
	mov	DWORD PTR _comp$1$[ebp], edx

; 13221:     switch (op->op) {

	mov	eax, DWORD PTR [esi]
	cmp	eax, 18					; 00000012H
	ja	$LN2@xmlXPathCo
	jmp	DWORD PTR $LN235@xmlXPathCo[eax*4]
$LN24@xmlXPathCo:

; 13222:         case XPATH_OP_END:
; 13223:             return (0);
; 13224:         case XPATH_OP_AND:
; 13225:             total += xmlXPathCompOpEval(ctxt, &comp->steps[op->ch1]);

	mov	eax, DWORD PTR [esi+4]
	lea	ecx, DWORD PTR [eax+eax*4]
	mov	eax, DWORD PTR [edx+8]
	lea	eax, DWORD PTR [eax+ecx*8]
	push	eax
	push	ebx
	call	_xmlXPathCompOpEval
	add	esp, 8
	mov	edi, eax

; 13226: 	    CHECK_ERROR0;

	cmp	DWORD PTR [ebx+8], 0
	jne	$LN214@xmlXPathCo

; 13227:             xmlXPathBooleanFunction(ctxt, 1);

	push	1
	push	ebx
	call	_xmlXPathBooleanFunction

; 13228:             if ((ctxt->value == NULL) || (ctxt->value->boolval == 0))

	mov	eax, DWORD PTR [ebx+16]
	add	esp, 8
	test	eax, eax
	je	SHORT $LN27@xmlXPathCo
	cmp	DWORD PTR [eax+8], 0
	je	SHORT $LN27@xmlXPathCo

; 13229:                 return (total);
; 13230:             arg2 = valuePop(ctxt);

	push	ebx
	call	_valuePop
	mov	DWORD PTR _arg2$1$[ebp], eax

; 13231:             total += xmlXPathCompOpEval(ctxt, &comp->steps[op->ch2]);

	mov	eax, DWORD PTR [esi+8]
	lea	ecx, DWORD PTR [eax+eax*4]
	mov	eax, DWORD PTR _comp$1$[ebp]
	mov	eax, DWORD PTR [eax+8]
	lea	eax, DWORD PTR [eax+ecx*8]
	push	eax
	push	ebx
	call	_xmlXPathCompOpEval
	add	esp, 12					; 0000000cH
	add	edi, eax

; 13232: 	    if (ctxt->error) {

	cmp	DWORD PTR [ebx+8], 0
	je	SHORT $LN28@xmlXPathCo
$LN233@xmlXPathCo:

; 13974:     return (total);
; 13975: }

	mov	edx, DWORD PTR _arg2$1$[ebp]
	push	edx
	call	_xmlXPathFreeObject
	add	esp, 4
	xor	eax, eax
	pop	edi
	pop	esi
	pop	ebx
	mov	esp, ebp
	pop	ebp
	ret	0
$LN28@xmlXPathCo:

; 13233: 		xmlXPathFreeObject(arg2);
; 13234: 		return(0);
; 13235: 	    }
; 13236:             xmlXPathBooleanFunction(ctxt, 1);

	push	1
	push	ebx
	call	_xmlXPathBooleanFunction

; 13237:             if (ctxt->value != NULL)

	mov	ecx, DWORD PTR [ebx+16]
	add	esp, 8
	mov	edx, DWORD PTR _arg2$1$[ebp]
	test	ecx, ecx
	je	SHORT $LN29@xmlXPathCo

; 13238:                 ctxt->value->boolval &= arg2->boolval;

	mov	eax, DWORD PTR [edx+8]
	and	DWORD PTR [ecx+8], eax
$LN29@xmlXPathCo:

; 13239: 	    xmlXPathReleaseObject(ctxt->context, arg2);

	push	edx
	push	DWORD PTR [ebx+12]
	call	_xmlXPathReleaseObject
	add	esp, 8
$LN27@xmlXPathCo:

; 13974:     return (total);
; 13975: }

	mov	eax, edi
	pop	edi
	pop	esi
	pop	ebx
	mov	esp, ebp
	pop	ebp
	ret	0
$LN30@xmlXPathCo:

; 13240:             return (total);
; 13241:         case XPATH_OP_OR:
; 13242:             total += xmlXPathCompOpEval(ctxt, &comp->steps[op->ch1]);

	mov	eax, DWORD PTR [esi+4]
	lea	ecx, DWORD PTR [eax+eax*4]
	mov	eax, DWORD PTR [edx+8]
	lea	eax, DWORD PTR [eax+ecx*8]
	push	eax
	push	ebx
	call	_xmlXPathCompOpEval
	add	esp, 8
	mov	edi, eax

; 13243: 	    CHECK_ERROR0;

	cmp	DWORD PTR [ebx+8], 0
	jne	$LN214@xmlXPathCo

; 13244:             xmlXPathBooleanFunction(ctxt, 1);

	push	1
	push	ebx
	call	_xmlXPathBooleanFunction

; 13245:             if ((ctxt->value == NULL) || (ctxt->value->boolval == 1))

	mov	eax, DWORD PTR [ebx+16]
	add	esp, 8
	test	eax, eax
	je	SHORT $LN27@xmlXPathCo
	cmp	DWORD PTR [eax+8], 1
	je	SHORT $LN27@xmlXPathCo

; 13246:                 return (total);
; 13247:             arg2 = valuePop(ctxt);

	push	ebx
	call	_valuePop
	mov	DWORD PTR _arg2$2$[ebp], eax

; 13248:             total += xmlXPathCompOpEval(ctxt, &comp->steps[op->ch2]);

	mov	eax, DWORD PTR [esi+8]
	lea	ecx, DWORD PTR [eax+eax*4]
	mov	eax, DWORD PTR _comp$1$[ebp]
	mov	eax, DWORD PTR [eax+8]
	lea	eax, DWORD PTR [eax+ecx*8]
	push	eax
	push	ebx
	call	_xmlXPathCompOpEval
	add	esp, 12					; 0000000cH
	add	edi, eax

; 13249: 	    if (ctxt->error) {

	cmp	DWORD PTR [ebx+8], 0
	jne	$LN233@xmlXPathCo

; 13250: 		xmlXPathFreeObject(arg2);
; 13251: 		return(0);
; 13252: 	    }
; 13253:             xmlXPathBooleanFunction(ctxt, 1);

	push	1
	push	ebx
	call	_xmlXPathBooleanFunction

; 13254:             if (ctxt->value != NULL)

	mov	ecx, DWORD PTR [ebx+16]
	add	esp, 8
	mov	edx, DWORD PTR _arg2$2$[ebp]
	test	ecx, ecx
	je	SHORT $LN35@xmlXPathCo

; 13255:                 ctxt->value->boolval |= arg2->boolval;

	mov	eax, DWORD PTR [edx+8]
	or	DWORD PTR [ecx+8], eax
$LN35@xmlXPathCo:

; 13256: 	    xmlXPathReleaseObject(ctxt->context, arg2);

	push	edx
	push	DWORD PTR [ebx+12]
	call	_xmlXPathReleaseObject
	add	esp, 8

; 13257:             return (total);

	mov	eax, edi
	pop	edi

; 13974:     return (total);
; 13975: }

	pop	esi
	pop	ebx
	mov	esp, ebp
	pop	ebp
	ret	0
$LN36@xmlXPathCo:

; 13258:         case XPATH_OP_EQUAL:
; 13259:             total += xmlXPathCompOpEval(ctxt, &comp->steps[op->ch1]);

	mov	eax, DWORD PTR [esi+4]
	lea	ecx, DWORD PTR [eax+eax*4]
	mov	eax, DWORD PTR [edx+8]
	lea	eax, DWORD PTR [eax+ecx*8]
	push	eax
	push	ebx
	call	_xmlXPathCompOpEval
	add	esp, 8
	mov	edi, eax

; 13260: 	    CHECK_ERROR0;

	cmp	DWORD PTR [ebx+8], 0
	jne	$LN214@xmlXPathCo

; 13261:             total += xmlXPathCompOpEval(ctxt, &comp->steps[op->ch2]);

	mov	eax, DWORD PTR [esi+8]
	lea	ecx, DWORD PTR [eax+eax*4]
	mov	eax, DWORD PTR _comp$1$[ebp]
	mov	eax, DWORD PTR [eax+8]
	lea	eax, DWORD PTR [eax+ecx*8]
	push	eax
	push	ebx
	call	_xmlXPathCompOpEval
	add	esp, 8
	add	edi, eax

; 13262: 	    CHECK_ERROR0;

	cmp	DWORD PTR [ebx+8], 0
	jne	$LN214@xmlXPathCo

; 13263: 	    if (op->value)

	cmp	DWORD PTR [esi+12], 0
	push	ebx
	je	SHORT $LN39@xmlXPathCo

; 13264: 		equal = xmlXPathEqualValues(ctxt);

	call	_xmlXPathEqualValues
	jmp	SHORT $LN227@xmlXPathCo
$LN39@xmlXPathCo:

; 13265: 	    else
; 13266: 		equal = xmlXPathNotEqualValues(ctxt);

	call	_xmlXPathNotEqualValues
$LN227@xmlXPathCo:

; 13267: 	    valuePush(ctxt, xmlXPathCacheNewBoolean(ctxt->context, equal));

	add	esp, 4
	push	eax
	push	DWORD PTR [ebx+12]
	call	_xmlXPathCacheNewBoolean
	push	eax
	push	ebx
	call	_valuePush
	add	esp, 16					; 00000010H

; 13268:             return (total);

	mov	eax, edi
	pop	edi

; 13974:     return (total);
; 13975: }

	pop	esi
	pop	ebx
	mov	esp, ebp
	pop	ebp
	ret	0
$LN41@xmlXPathCo:

; 13269:         case XPATH_OP_CMP:
; 13270:             total += xmlXPathCompOpEval(ctxt, &comp->steps[op->ch1]);

	mov	eax, DWORD PTR [esi+4]
	lea	ecx, DWORD PTR [eax+eax*4]
	mov	eax, DWORD PTR [edx+8]
	lea	eax, DWORD PTR [eax+ecx*8]
	push	eax
	push	ebx
	call	_xmlXPathCompOpEval
	add	esp, 8
	mov	edi, eax

; 13271: 	    CHECK_ERROR0;

	cmp	DWORD PTR [ebx+8], 0
	jne	$LN214@xmlXPathCo

; 13272:             total += xmlXPathCompOpEval(ctxt, &comp->steps[op->ch2]);

	mov	eax, DWORD PTR [esi+8]
	lea	ecx, DWORD PTR [eax+eax*4]
	mov	eax, DWORD PTR _comp$1$[ebp]
	mov	eax, DWORD PTR [eax+8]
	lea	eax, DWORD PTR [eax+ecx*8]
	push	eax
	push	ebx
	call	_xmlXPathCompOpEval
	add	esp, 8
	add	edi, eax

; 13273: 	    CHECK_ERROR0;

	cmp	DWORD PTR [ebx+8], 0
	jne	$LN214@xmlXPathCo

; 13274:             ret = xmlXPathCompareValues(ctxt, op->value, op->value2);

	push	DWORD PTR [esi+16]
	push	DWORD PTR [esi+12]
	push	ebx
	call	_xmlXPathCompareValues

; 13275: 	    valuePush(ctxt, xmlXPathCacheNewBoolean(ctxt->context, ret));

	push	eax
	push	DWORD PTR [ebx+12]
	call	_xmlXPathCacheNewBoolean
	push	eax
	push	ebx
	call	_valuePush
	add	esp, 28					; 0000001cH

; 13276:             return (total);

	mov	eax, edi
	pop	edi

; 13974:     return (total);
; 13975: }

	pop	esi
	pop	ebx
	mov	esp, ebp
	pop	ebp
	ret	0
$LN44@xmlXPathCo:

; 13277:         case XPATH_OP_PLUS:
; 13278:             total += xmlXPathCompOpEval(ctxt, &comp->steps[op->ch1]);

	mov	eax, DWORD PTR [esi+4]
	lea	ecx, DWORD PTR [eax+eax*4]
	mov	eax, DWORD PTR [edx+8]
	lea	eax, DWORD PTR [eax+ecx*8]
	push	eax
	push	ebx
	call	_xmlXPathCompOpEval
	add	esp, 8
	mov	edi, eax

; 13279: 	    CHECK_ERROR0;

	cmp	DWORD PTR [ebx+8], 0
	jne	$LN214@xmlXPathCo

; 13280:             if (op->ch2 != -1) {

	mov	ecx, DWORD PTR [esi+8]
	cmp	ecx, -1
	je	SHORT $LN47@xmlXPathCo

; 13281:                 total += xmlXPathCompOpEval(ctxt, &comp->steps[op->ch2]);

	mov	eax, DWORD PTR _comp$1$[ebp]
	lea	ecx, DWORD PTR [ecx+ecx*4]
	mov	eax, DWORD PTR [eax+8]
	lea	eax, DWORD PTR [eax+ecx*8]
	push	eax
	push	ebx
	call	_xmlXPathCompOpEval
	add	esp, 8
	add	edi, eax

; 13282: 	    }
; 13283: 	    CHECK_ERROR0;

	cmp	DWORD PTR [ebx+8], 0
	jne	$LN214@xmlXPathCo
$LN47@xmlXPathCo:

; 13284:             if (op->value == 0)

	mov	eax, DWORD PTR [esi+12]
	test	eax, eax
	jne	SHORT $LN48@xmlXPathCo

; 13285:                 xmlXPathSubValues(ctxt);

	push	ebx
	call	_xmlXPathSubValues
	add	esp, 4

; 13974:     return (total);
; 13975: }

	mov	eax, edi
	pop	edi
	pop	esi
	pop	ebx
	mov	esp, ebp
	pop	ebp
	ret	0
$LN48@xmlXPathCo:

; 13286:             else if (op->value == 1)

	cmp	eax, 1
	jne	SHORT $LN50@xmlXPathCo

; 13287:                 xmlXPathAddValues(ctxt);

	push	ebx
	call	_xmlXPathAddValues
	add	esp, 4

; 13974:     return (total);
; 13975: }

	mov	eax, edi
	pop	edi
	pop	esi
	pop	ebx
	mov	esp, ebp
	pop	ebp
	ret	0
$LN50@xmlXPathCo:

; 13288:             else if (op->value == 2)

	cmp	eax, 2
	jne	SHORT $LN52@xmlXPathCo

; 13289:                 xmlXPathValueFlipSign(ctxt);

	push	ebx
	call	_xmlXPathValueFlipSign
	add	esp, 4

; 13974:     return (total);
; 13975: }

	mov	eax, edi
	pop	edi
	pop	esi
	pop	ebx
	mov	esp, ebp
	pop	ebp
	ret	0
$LN52@xmlXPathCo:

; 13290:             else if (op->value == 3) {

	cmp	eax, 3
	jne	$LN27@xmlXPathCo

; 13291:                 CAST_TO_NUMBER;

	mov	ecx, DWORD PTR [ebx+16]
	mov	eax, ecx
	test	ecx, ecx
	je	SHORT $LN55@xmlXPathCo
	cmp	DWORD PTR [ecx], 3
	je	SHORT $LN55@xmlXPathCo
	push	1
	push	ebx
	call	_xmlXPathNumberFunction
	mov	eax, DWORD PTR [ebx+16]
	add	esp, 8
$LN55@xmlXPathCo:

; 13292:                 CHECK_TYPE0(XPATH_NUMBER);

	test	eax, eax
	je	$LN169@xmlXPathCo
	cmp	DWORD PTR [eax], 3
	jne	$LN169@xmlXPathCo

; 13293:             }
; 13294:             return (total);

	mov	eax, edi
	pop	edi

; 13974:     return (total);
; 13975: }

	pop	esi
	pop	ebx
	mov	esp, ebp
	pop	ebp
	ret	0
$LN58@xmlXPathCo:

; 13295:         case XPATH_OP_MULT:
; 13296:             total += xmlXPathCompOpEval(ctxt, &comp->steps[op->ch1]);

	mov	eax, DWORD PTR [esi+4]
	lea	ecx, DWORD PTR [eax+eax*4]
	mov	eax, DWORD PTR [edx+8]
	lea	eax, DWORD PTR [eax+ecx*8]
	push	eax
	push	ebx
	call	_xmlXPathCompOpEval
	add	esp, 8
	mov	edi, eax

; 13297: 	    CHECK_ERROR0;

	cmp	DWORD PTR [ebx+8], 0
	jne	$LN214@xmlXPathCo

; 13298:             total += xmlXPathCompOpEval(ctxt, &comp->steps[op->ch2]);

	mov	eax, DWORD PTR [esi+8]
	lea	ecx, DWORD PTR [eax+eax*4]
	mov	eax, DWORD PTR _comp$1$[ebp]
	mov	eax, DWORD PTR [eax+8]
	lea	eax, DWORD PTR [eax+ecx*8]
	push	eax
	push	ebx
	call	_xmlXPathCompOpEval
	add	esp, 8
	add	edi, eax

; 13299: 	    CHECK_ERROR0;

	cmp	DWORD PTR [ebx+8], 0
	jne	$LN214@xmlXPathCo

; 13300:             if (op->value == 0)

	mov	eax, DWORD PTR [esi+12]
	test	eax, eax
	jne	SHORT $LN61@xmlXPathCo

; 13301:                 xmlXPathMultValues(ctxt);

	push	ebx
	call	_xmlXPathMultValues

; 13306:             return (total);

	add	esp, 4
	mov	eax, edi
	pop	edi

; 13974:     return (total);
; 13975: }

	pop	esi
	pop	ebx
	mov	esp, ebp
	pop	ebp
	ret	0
$LN61@xmlXPathCo:

; 13302:             else if (op->value == 1)

	cmp	eax, 1
	jne	SHORT $LN63@xmlXPathCo

; 13303:                 xmlXPathDivValues(ctxt);

	push	ebx
	call	_xmlXPathDivValues

; 13306:             return (total);

	add	esp, 4
	mov	eax, edi
	pop	edi

; 13974:     return (total);
; 13975: }

	pop	esi
	pop	ebx
	mov	esp, ebp
	pop	ebp
	ret	0
$LN63@xmlXPathCo:

; 13304:             else if (op->value == 2)

	cmp	eax, 2
	jne	SHORT $LN65@xmlXPathCo

; 13305:                 xmlXPathModValues(ctxt);

	push	ebx
	call	_xmlXPathModValues

; 13306:             return (total);

	add	esp, 4
$LN65@xmlXPathCo:
	mov	eax, edi
	pop	edi

; 13974:     return (total);
; 13975: }

	pop	esi
	pop	ebx
	mov	esp, ebp
	pop	ebp
	ret	0
$LN66@xmlXPathCo:

; 13307:         case XPATH_OP_UNION:
; 13308:             total += xmlXPathCompOpEval(ctxt, &comp->steps[op->ch1]);

	mov	eax, DWORD PTR [esi+4]
	lea	ecx, DWORD PTR [eax+eax*4]
	mov	eax, DWORD PTR [edx+8]
	lea	eax, DWORD PTR [eax+ecx*8]
	push	eax
	push	ebx
	call	_xmlXPathCompOpEval
	add	esp, 8
	mov	edi, eax

; 13309: 	    CHECK_ERROR0;

	cmp	DWORD PTR [ebx+8], 0
	jne	$LN214@xmlXPathCo

; 13310:             total += xmlXPathCompOpEval(ctxt, &comp->steps[op->ch2]);

	mov	eax, DWORD PTR [esi+8]
	lea	ecx, DWORD PTR [eax+eax*4]
	mov	eax, DWORD PTR _comp$1$[ebp]
	mov	eax, DWORD PTR [eax+8]
	lea	eax, DWORD PTR [eax+ecx*8]
	push	eax
	push	ebx
	call	_xmlXPathCompOpEval
	add	edi, eax
	add	esp, 8

; 13311: 	    CHECK_ERROR0;

	cmp	DWORD PTR [ebx+8], 0
	mov	DWORD PTR _total$7$[ebp], edi
	jne	$LN214@xmlXPathCo

; 13312: 
; 13313:             arg2 = valuePop(ctxt);

	push	ebx
	call	_valuePop

; 13314:             arg1 = valuePop(ctxt);

	push	ebx
	mov	esi, eax
	call	_valuePop
	mov	edi, eax
	add	esp, 8

; 13315:             if ((arg1 == NULL) || (arg1->type != XPATH_NODESET) ||
; 13316:                 (arg2 == NULL) || (arg2->type != XPATH_NODESET)) {

	test	edi, edi
	je	SHORT $LN70@xmlXPathCo
	cmp	DWORD PTR [edi], 1
	jne	SHORT $LN70@xmlXPathCo
	test	esi, esi
	je	SHORT $LN70@xmlXPathCo
	cmp	DWORD PTR [esi], 1
	jne	SHORT $LN70@xmlXPathCo

; 13320:             }
; 13321: 
; 13322: 	    if ((arg1->nodesetval == NULL) ||

	mov	ecx, DWORD PTR [edi+4]
	test	ecx, ecx
	je	SHORT $LN211@xmlXPathCo
	mov	eax, DWORD PTR [esi+4]
	test	eax, eax
	je	SHORT $LN71@xmlXPathCo
	cmp	DWORD PTR [eax], 0
	je	SHORT $LN71@xmlXPathCo
$LN211@xmlXPathCo:

; 13323: 		((arg2->nodesetval != NULL) &&
; 13324: 		 (arg2->nodesetval->nodeNr != 0)))
; 13325: 	    {
; 13326: 		arg1->nodesetval = xmlXPathNodeSetMerge(arg1->nodesetval,

	push	DWORD PTR [esi+4]
	push	ecx
	call	_xmlXPathNodeSetMerge
	add	esp, 8
	mov	DWORD PTR [edi+4], eax
$LN71@xmlXPathCo:

; 13327: 							arg2->nodesetval);
; 13328: 	    }
; 13329: 
; 13330:             valuePush(ctxt, arg1);

	push	edi
	push	ebx
	call	_valuePush

; 13331: 	    xmlXPathReleaseObject(ctxt->context, arg2);

	push	esi
	push	DWORD PTR [ebx+12]
	call	_xmlXPathReleaseObject

; 13332:             return (total);

	mov	eax, DWORD PTR _total$7$[ebp]
	add	esp, 16					; 00000010H
	pop	edi

; 13974:     return (total);
; 13975: }

	pop	esi
	pop	ebx
	mov	esp, ebp
	pop	ebp
	ret	0
$LN70@xmlXPathCo:

; 13317: 	        xmlXPathReleaseObject(ctxt->context, arg1);

	push	edi
	push	DWORD PTR [ebx+12]
	call	_xmlXPathReleaseObject

; 13318: 	        xmlXPathReleaseObject(ctxt->context, arg2);

	push	esi
	push	DWORD PTR [ebx+12]
	call	_xmlXPathReleaseObject

; 13319:                 XP_ERROR0(XPATH_INVALID_TYPE);

	push	11					; 0000000bH
	push	ebx
	call	_xmlXPathErr
	add	esp, 24					; 00000018H

; 13974:     return (total);
; 13975: }

	xor	eax, eax
	pop	edi
	pop	esi
	pop	ebx
	mov	esp, ebp
	pop	ebp
	ret	0
$LN73@xmlXPathCo:

; 13333:         case XPATH_OP_ROOT:
; 13334:             xmlXPathRoot(ctxt);

	push	ebx
	call	_xmlXPathRoot
	add	esp, 4

; 13974:     return (total);
; 13975: }

	xor	eax, eax
	pop	edi
	pop	esi
	pop	ebx
	mov	esp, ebp
	pop	ebp
	ret	0
$LN74@xmlXPathCo:

; 13335:             return (total);
; 13336:         case XPATH_OP_NODE:
; 13337:             if (op->ch1 != -1)

	mov	eax, DWORD PTR [esi+4]
	cmp	eax, -1
	je	SHORT $LN76@xmlXPathCo

; 13338:                 total += xmlXPathCompOpEval(ctxt, &comp->steps[op->ch1]);

	lea	ecx, DWORD PTR [eax+eax*4]
	mov	eax, DWORD PTR [edx+8]
	lea	eax, DWORD PTR [eax+ecx*8]
	push	eax
	push	ebx
	call	_xmlXPathCompOpEval
	add	esp, 8
	mov	edi, eax

; 13339: 	    CHECK_ERROR0;

	cmp	DWORD PTR [ebx+8], 0
	jne	$LN214@xmlXPathCo
	mov	edx, DWORD PTR _comp$1$[ebp]
$LN76@xmlXPathCo:

; 13340:             if (op->ch2 != -1)

	mov	eax, DWORD PTR [esi+8]
	cmp	eax, -1
	je	SHORT $LN78@xmlXPathCo

; 13341:                 total += xmlXPathCompOpEval(ctxt, &comp->steps[op->ch2]);

	lea	ecx, DWORD PTR [eax+eax*4]
	mov	eax, DWORD PTR [edx+8]
	lea	eax, DWORD PTR [eax+ecx*8]
	push	eax
	push	ebx
	call	_xmlXPathCompOpEval
	add	esp, 8
	add	edi, eax

; 13342: 	    CHECK_ERROR0;

	cmp	DWORD PTR [ebx+8], 0
	jne	$LN214@xmlXPathCo
$LN78@xmlXPathCo:

; 13343: 	    valuePush(ctxt, xmlXPathCacheNewNodeSet(ctxt->context,

	mov	eax, DWORD PTR [ebx+12]
	push	DWORD PTR [eax+4]
	push	eax
	call	_xmlXPathCacheNewNodeSet
	push	eax
	push	ebx
	call	_valuePush
	add	esp, 16					; 00000010H

; 13344: 		ctxt->context->node));
; 13345:             return (total);

	mov	eax, edi
	pop	edi

; 13974:     return (total);
; 13975: }

	pop	esi
	pop	ebx
	mov	esp, ebp
	pop	ebp
	ret	0
$LN79@xmlXPathCo:

; 13346:         case XPATH_OP_COLLECT:{
; 13347:                 if (op->ch1 == -1)

	mov	eax, DWORD PTR [esi+4]
	cmp	eax, -1
	je	$LN214@xmlXPathCo

; 13348:                     return (total);
; 13349: 
; 13350:                 total += xmlXPathCompOpEval(ctxt, &comp->steps[op->ch1]);

	lea	ecx, DWORD PTR [eax+eax*4]
	mov	eax, DWORD PTR [edx+8]
	lea	eax, DWORD PTR [eax+ecx*8]
	push	eax
	push	ebx
	call	_xmlXPathCompOpEval
	add	esp, 8
	mov	edi, eax

; 13351: 		CHECK_ERROR0;

	cmp	DWORD PTR [ebx+8], 0
	jne	$LN214@xmlXPathCo

; 13352: 
; 13353:                 total += xmlXPathNodeCollectAndTest(ctxt, op, NULL, NULL, 0);

	push	0
	push	0
	push	0
	push	esi
	push	ebx
	call	_xmlXPathNodeCollectAndTest
	add	esp, 20					; 00000014H
	add	eax, edi
	pop	edi

; 13974:     return (total);
; 13975: }

	pop	esi
	pop	ebx
	mov	esp, ebp
	pop	ebp
	ret	0
$LN82@xmlXPathCo:

; 13354:                 return (total);
; 13355:             }
; 13356:         case XPATH_OP_VALUE:
; 13357:             valuePush(ctxt,

	push	DWORD PTR [esi+24]
	push	DWORD PTR [ebx+12]
	call	_xmlXPathCacheObjectCopy
	push	eax
	push	ebx
	call	_valuePush
	add	esp, 16					; 00000010H

; 13974:     return (total);
; 13975: }

	xor	eax, eax
	pop	edi
	pop	esi
	pop	ebx
	mov	esp, ebp
	pop	ebp
	ret	0
$LN83@xmlXPathCo:

; 13358:                       xmlXPathCacheObjectCopy(ctxt->context,
; 13359: 			(xmlXPathObjectPtr) op->value4));
; 13360:             return (total);
; 13361:         case XPATH_OP_VARIABLE:{
; 13362: 		xmlXPathObjectPtr val;
; 13363: 
; 13364:                 if (op->ch1 != -1)

	mov	eax, DWORD PTR [esi+4]
	cmp	eax, -1
	je	SHORT $LN84@xmlXPathCo

; 13365:                     total +=

	lea	ecx, DWORD PTR [eax+eax*4]
	mov	eax, DWORD PTR [edx+8]
	lea	eax, DWORD PTR [eax+ecx*8]
	push	eax
	push	ebx
	call	_xmlXPathCompOpEval
	add	esp, 8
	mov	DWORD PTR _total$11$[ebp], eax
	mov	edi, eax
$LN84@xmlXPathCo:

; 13366:                         xmlXPathCompOpEval(ctxt, &comp->steps[op->ch1]);
; 13367:                 if (op->value5 == NULL) {

	mov	eax, DWORD PTR [esi+28]
	test	eax, eax
	jne	SHORT $LN85@xmlXPathCo

; 13368: 		    val = xmlXPathVariableLookup(ctxt->context, op->value4);

	push	DWORD PTR [esi+24]
	push	DWORD PTR [ebx+12]
	call	_xmlXPathVariableLookup
	add	esp, 8
	jmp	SHORT $LN230@xmlXPathCo
$LN85@xmlXPathCo:

; 13369: 		    if (val == NULL)
; 13370: 			XP_ERROR0(XPATH_UNDEF_VARIABLE_ERROR);
; 13371:                     valuePush(ctxt, val);
; 13372: 		} else {
; 13373:                     const xmlChar *URI;
; 13374: 
; 13375:                     URI = xmlXPathNsLookup(ctxt->context, op->value5);

	push	eax
	push	DWORD PTR [ebx+12]
	call	_xmlXPathNsLookup
	add	esp, 8

; 13376:                     if (URI == NULL) {

	test	eax, eax
	jne	SHORT $LN88@xmlXPathCo

; 13377:                         xmlGenericError(xmlGenericErrorContext,

	call	___xmlGenericError
	mov	edx, DWORD PTR _op$[ebp]
	mov	ebx, eax
	mov	esi, DWORD PTR [esi+28]
	mov	edi, DWORD PTR [edx+24]
	call	___xmlGenericErrorContext
	push	esi
	push	edi
	push	OFFSET ??_C@_0DO@IDAPNIMJ@xmlXPathCompOpEval?3?5variable?5?$CFs@
	push	DWORD PTR [eax]
	mov	eax, DWORD PTR [ebx]
	call	eax

; 13378:             "xmlXPathCompOpEval: variable %s bound to undefined prefix %s\n",
; 13379:                                     (char *) op->value4, (char *)op->value5);
; 13380:                         ctxt->error = XPATH_UNDEF_PREFIX_ERROR;

	mov	esi, DWORD PTR _ctxt$[ebp]
	add	esp, 16					; 00000010H

; 13381:                         return (total);

	mov	eax, DWORD PTR _total$11$[ebp]
	pop	edi
	mov	DWORD PTR [esi+8], 19			; 00000013H

; 13974:     return (total);
; 13975: }

	pop	esi
	pop	ebx
	mov	esp, ebp
	pop	ebp
	ret	0
$LN88@xmlXPathCo:

; 13382:                     }
; 13383: 		    val = xmlXPathVariableLookupNS(ctxt->context,

	push	eax
	push	DWORD PTR [esi+24]
	push	DWORD PTR [ebx+12]
	call	_xmlXPathVariableLookupNS
	add	esp, 12					; 0000000cH
$LN230@xmlXPathCo:

; 13384:                                                        op->value4, URI);
; 13385: 		    if (val == NULL)
; 13386: 			XP_ERROR0(XPATH_UNDEF_VARIABLE_ERROR);

	test	eax, eax
	jne	SHORT $LN89@xmlXPathCo
	push	5
	push	ebx
	call	_xmlXPathErr
	add	esp, 8

; 13974:     return (total);
; 13975: }

	xor	eax, eax
	pop	edi
	pop	esi
	pop	ebx
	mov	esp, ebp
	pop	ebp
	ret	0
$LN89@xmlXPathCo:

; 13387:                     valuePush(ctxt, val);
; 13388:                 }
; 13389:                 return (total);

	push	eax
	push	ebx
	call	_valuePush
	add	esp, 8
	mov	eax, edi
	pop	edi

; 13974:     return (total);
; 13975: }

	pop	esi
	pop	ebx
	mov	esp, ebp
	pop	ebp
	ret	0
$LN90@xmlXPathCo:

; 13390:             }
; 13391:         case XPATH_OP_FUNCTION:{
; 13392:                 xmlXPathFunction func;
; 13393:                 const xmlChar *oldFunc, *oldFuncURI;
; 13394: 		int i;
; 13395:                 int frame;
; 13396: 
; 13397:                 frame = xmlXPathSetFrame(ctxt);

	push	ebx
	call	_xmlXPathSetFrame
	mov	DWORD PTR _frame$1$[ebp], eax
	add	esp, 4

; 13398:                 if (op->ch1 != -1) {

	mov	eax, DWORD PTR [esi+4]
	cmp	eax, -1
	je	SHORT $LN92@xmlXPathCo

; 13399:                     total +=

	lea	edx, DWORD PTR [eax+eax*4]
	mov	eax, DWORD PTR _comp$1$[ebp]
	mov	ecx, DWORD PTR [eax+8]
	lea	ecx, DWORD PTR [ecx+edx*8]
	push	ecx
	push	ebx
	call	_xmlXPathCompOpEval
	add	esp, 8
	mov	edi, eax

; 13400:                         xmlXPathCompOpEval(ctxt, &comp->steps[op->ch1]);
; 13401:                     if (ctxt->error != XPATH_EXPRESSION_OK) {

	cmp	DWORD PTR [ebx+8], 0
	mov	DWORD PTR _total$11$[ebp], edi
	je	SHORT $LN92@xmlXPathCo

; 13402:                         xmlXPathPopFrame(ctxt, frame);

	push	DWORD PTR _frame$1$[ebp]
	push	ebx
	call	_xmlXPathPopFrame
	add	esp, 8

; 13403:                         return (total);

	mov	eax, edi
	pop	edi

; 13974:     return (total);
; 13975: }

	pop	esi
	pop	ebx
	mov	esp, ebp
	pop	ebp
	ret	0
$LN92@xmlXPathCo:

; 13404:                     }
; 13405:                 }
; 13406: 		if (ctxt->valueNr < ctxt->valueFrame + op->value) {

	mov	eax, DWORD PTR [ebx+44]
	mov	edx, DWORD PTR [esi+12]
