; Listing generated by Microsoft (R) Optimizing Compiler Version 19.16.27027.1 

	TITLE	C:\Users\DAG\Documents\_Clients\CodeProject Authors Group\Windows on ARM\libxml2\libxml2-2.9.9\error.c
	.686P
	.XMM
	include listing.inc
	.model	flat

INCLUDELIB MSVCRTD
INCLUDELIB OLDNAMES

_DATA	SEGMENT
COMM	_xmlMalloc:DWORD
COMM	_xmlMallocAtomic:DWORD
COMM	_xmlRealloc:DWORD
COMM	_xmlFree:DWORD
COMM	_xmlMemStrdup:DWORD
COMM	_forbiddenExp:DWORD
COMM	_emptyExp:DWORD
_DATA	ENDS
msvcjmc	SEGMENT
__188180DA_corecrt_math@h DB 01H
__2CC6E67D_corecrt_stdio_config@h DB 01H
__05476D76_corecrt_wstdio@h DB 01H
__A452D4A0_stdio@h DB 01H
__4384A2D9_corecrt_memcpy_s@h DB 01H
__4E51A221_corecrt_wstring@h DB 01H
__2140C079_string@h DB 01H
__67926DEE_error@c DB 01H
msvcjmc	ENDS
PUBLIC	___local_stdio_printf_options
PUBLIC	_fprintf
PUBLIC	_xmlSetGenericErrorFunc
PUBLIC	_initGenericErrorDefaultFunc
PUBLIC	_xmlSetStructuredErrorFunc
PUBLIC	_xmlParserError
PUBLIC	_xmlParserWarning
PUBLIC	_xmlParserValidityError
PUBLIC	_xmlParserValidityWarning
PUBLIC	_xmlParserPrintFileInfo
PUBLIC	_xmlParserPrintFileContext
PUBLIC	_xmlGetLastError
PUBLIC	_xmlResetLastError
PUBLIC	_xmlCtxtGetLastError
PUBLIC	_xmlCtxtResetLastError
PUBLIC	_xmlResetError
PUBLIC	_xmlCopyError
PUBLIC	___xmlRaiseError
PUBLIC	___xmlSimpleError
PUBLIC	_xmlGenericErrorDefaultFunc
PUBLIC	__JustMyCode_Default
PUBLIC	??_C@_07FCDHCGBN@?$CFs?3?$CFd?3?5@		; `string'
PUBLIC	??_C@_0BC@FMCMLLAH@Entity?3?5line?5?$CFd?3?5@	; `string'
PUBLIC	??_C@_03OFAPEBGM@?$CFs?6@			; `string'
PUBLIC	??_C@_0N@MLFICIIN@element?5?$CFs?3?5@		; `string'
PUBLIC	??_C@_07CNNNFPCP@parser?5@			; `string'
PUBLIC	??_C@_0L@BNCDLIEB@namespace?5@			; `string'
PUBLIC	??_C@_09BIOOFDLF@validity?5@			; `string'
PUBLIC	??_C@_0N@IENDNEBE@HTML?5parser?5@		; `string'
PUBLIC	??_C@_07KICHBFMM@memory?5@			; `string'
PUBLIC	??_C@_07NOLKHGJF@output?5@			; `string'
PUBLIC	??_C@_04HKCNGDON@I?1O?5@			; `string'
PUBLIC	??_C@_09JKGAONDL@XInclude?5@			; `string'
PUBLIC	??_C@_06ONGIFIKK@XPath?5@			; `string'
PUBLIC	??_C@_07IGPLNGGH@regexp?5@			; `string'
PUBLIC	??_C@_07KEPCOONB@module?5@			; `string'
PUBLIC	??_C@_0BC@MEEJMAME@Schemas?5validity?5@		; `string'
PUBLIC	??_C@_0BA@COGPIGL@Schemas?5parser?5@		; `string'
PUBLIC	??_C@_0BB@FGPKBGBA@Relax?9NG?5parser?5@		; `string'
PUBLIC	??_C@_0BD@EPDAPLJK@Relax?9NG?5validity?5@	; `string'
PUBLIC	??_C@_08NOLMNIGP@Catalog?5@			; `string'
PUBLIC	??_C@_05MLHJFMDG@C14N?5@			; `string'
PUBLIC	??_C@_05POKACEJG@XSLT?5@			; `string'
PUBLIC	??_C@_09JICCLIJI@encoding?5@			; `string'
PUBLIC	??_C@_0M@LAKDBFM@schematron?5@			; `string'
PUBLIC	??_C@_0BB@FACNAIAH@internal?5buffer?5@		; `string'
PUBLIC	??_C@_04ECOFBNJN@URI?5@				; `string'
PUBLIC	??_C@_02LMMGGCAJ@?3?5@				; `string'
PUBLIC	??_C@_0L@HNPIBIGM@warning?5?3?5@		; `string'
PUBLIC	??_C@_08PMHKJNKP@error?5?3?5@			; `string'
PUBLIC	??_C@_02DKCKIIND@?$CFs@				; `string'
PUBLIC	??_C@_0BE@LHHHBFLE@out?5of?5memory?5error@	; `string'
PUBLIC	??_C@_08JJLLLDHF@?$CFs?3?$CFd?3?5?6@		; `string'
PUBLIC	??_C@_0BD@GENHFBJC@Entity?3?5line?5?$CFd?3?5?6@	; `string'
PUBLIC	??_C@_0BK@ONMNHCCC@No?5error?5message?5provided@ ; `string'
PUBLIC	??_C@_04CMBCJJJD@href@				; `string'
PUBLIC	??_C@_0BP@DJFHNAOK@Memory?5allocation?5failed?5?3?5?$CFs?6@ ; `string'
PUBLIC	??_C@_0BK@GDFDKGPJ@Memory?5allocation?5failed?6@ ; `string'
PUBLIC	??_C@_07FJOHCPOO@error?3?5@			; `string'
PUBLIC	??_C@_01EEMJAFIK@?6@				; `string'
PUBLIC	??_C@_09GFHECBDK@warning?3?5@			; `string'
PUBLIC	??_C@_0BB@DJCEBDOI@validity?5error?3?5@		; `string'
PUBLIC	??_C@_0BD@BMEBJKPI@validity?5warning?3?5@	; `string'
EXTRN	_xmlStrdup:PROC
EXTRN	_xmlStrlen:PROC
EXTRN	__imp____acrt_iob_func:PROC
EXTRN	__imp____stdio_common_vfprintf:PROC
EXTRN	__imp____stdio_common_vsprintf:PROC
EXTRN	_xmlGetLineNo:PROC
EXTRN	_xmlGetProp:PROC
EXTRN	___xmlLastError:PROC
EXTRN	___xmlGenericError:PROC
EXTRN	___xmlStructuredError:PROC
EXTRN	___xmlGenericErrorContext:PROC
EXTRN	___xmlStructuredErrorContext:PROC
EXTRN	___xmlGetWarningsDefaultValue:PROC
EXTRN	@_RTC_CheckStackVars@8:PROC
EXTRN	@__CheckForDebuggerJustMyCode@4:PROC
EXTRN	__RTC_CheckEsp:PROC
EXTRN	__RTC_InitBase:PROC
EXTRN	__RTC_Shutdown:PROC
EXTRN	_memset:PROC
_DATA	SEGMENT
COMM	?_OptionsStorage@?1??__local_stdio_printf_options@@9@9:QWORD							; `__local_stdio_printf_options'::`2'::_OptionsStorage
_DATA	ENDS
_BSS	SEGMENT
?had_info@?1??xmlParserValidityError@@9@9 DD 01H DUP (?) ; `xmlParserValidityError'::`2'::had_info
_BSS	ENDS
;	COMDAT rtc$TMZ
rtc$TMZ	SEGMENT
__RTC_Shutdown.rtc$TMZ DD FLAT:__RTC_Shutdown
rtc$TMZ	ENDS
;	COMDAT rtc$IMZ
rtc$IMZ	SEGMENT
__RTC_InitBase.rtc$IMZ DD FLAT:__RTC_InitBase
rtc$IMZ	ENDS
;	COMDAT ??_C@_0BD@BMEBJKPI@validity?5warning?3?5@
CONST	SEGMENT
??_C@_0BD@BMEBJKPI@validity?5warning?3?5@ DB 'validity warning: ', 00H ; `string'
CONST	ENDS
;	COMDAT ??_C@_0BB@DJCEBDOI@validity?5error?3?5@
CONST	SEGMENT
??_C@_0BB@DJCEBDOI@validity?5error?3?5@ DB 'validity error: ', 00H ; `string'
CONST	ENDS
;	COMDAT ??_C@_09GFHECBDK@warning?3?5@
CONST	SEGMENT
??_C@_09GFHECBDK@warning?3?5@ DB 'warning: ', 00H	; `string'
CONST	ENDS
;	COMDAT ??_C@_01EEMJAFIK@?6@
CONST	SEGMENT
??_C@_01EEMJAFIK@?6@ DB 0aH, 00H			; `string'
CONST	ENDS
;	COMDAT ??_C@_07FJOHCPOO@error?3?5@
CONST	SEGMENT
??_C@_07FJOHCPOO@error?3?5@ DB 'error: ', 00H		; `string'
CONST	ENDS
;	COMDAT ??_C@_0BK@GDFDKGPJ@Memory?5allocation?5failed?6@
CONST	SEGMENT
??_C@_0BK@GDFDKGPJ@Memory?5allocation?5failed?6@ DB 'Memory allocation fa'
	DB	'iled', 0aH, 00H				; `string'
CONST	ENDS
;	COMDAT ??_C@_0BP@DJFHNAOK@Memory?5allocation?5failed?5?3?5?$CFs?6@
CONST	SEGMENT
??_C@_0BP@DJFHNAOK@Memory?5allocation?5failed?5?3?5?$CFs?6@ DB 'Memory al'
	DB	'location failed : %s', 0aH, 00H		; `string'
CONST	ENDS
;	COMDAT ??_C@_04CMBCJJJD@href@
CONST	SEGMENT
??_C@_04CMBCJJJD@href@ DB 'href', 00H			; `string'
CONST	ENDS
;	COMDAT ??_C@_0BK@ONMNHCCC@No?5error?5message?5provided@
CONST	SEGMENT
??_C@_0BK@ONMNHCCC@No?5error?5message?5provided@ DB 'No error message pro'
	DB	'vided', 00H					; `string'
CONST	ENDS
;	COMDAT ??_C@_0BD@GENHFBJC@Entity?3?5line?5?$CFd?3?5?6@
CONST	SEGMENT
??_C@_0BD@GENHFBJC@Entity?3?5line?5?$CFd?3?5?6@ DB 'Entity: line %d: ', 0aH
	DB	00H						; `string'
CONST	ENDS
;	COMDAT ??_C@_08JJLLLDHF@?$CFs?3?$CFd?3?5?6@
CONST	SEGMENT
??_C@_08JJLLLDHF@?$CFs?3?$CFd?3?5?6@ DB '%s:%d: ', 0aH, 00H ; `string'
CONST	ENDS
;	COMDAT ??_C@_0BE@LHHHBFLE@out?5of?5memory?5error@
CONST	SEGMENT
??_C@_0BE@LHHHBFLE@out?5of?5memory?5error@ DB 'out of memory error', 00H ; `string'
CONST	ENDS
;	COMDAT ??_C@_02DKCKIIND@?$CFs@
CONST	SEGMENT
??_C@_02DKCKIIND@?$CFs@ DB '%s', 00H			; `string'
CONST	ENDS
;	COMDAT ??_C@_08PMHKJNKP@error?5?3?5@
CONST	SEGMENT
??_C@_08PMHKJNKP@error?5?3?5@ DB 'error : ', 00H	; `string'
CONST	ENDS
;	COMDAT ??_C@_0L@HNPIBIGM@warning?5?3?5@
CONST	SEGMENT
??_C@_0L@HNPIBIGM@warning?5?3?5@ DB 'warning : ', 00H	; `string'
CONST	ENDS
;	COMDAT ??_C@_02LMMGGCAJ@?3?5@
CONST	SEGMENT
??_C@_02LMMGGCAJ@?3?5@ DB ': ', 00H			; `string'
CONST	ENDS
;	COMDAT ??_C@_04ECOFBNJN@URI?5@
CONST	SEGMENT
??_C@_04ECOFBNJN@URI?5@ DB 'URI ', 00H			; `string'
CONST	ENDS
;	COMDAT ??_C@_0BB@FACNAIAH@internal?5buffer?5@
CONST	SEGMENT
??_C@_0BB@FACNAIAH@internal?5buffer?5@ DB 'internal buffer ', 00H ; `string'
CONST	ENDS
;	COMDAT ??_C@_0M@LAKDBFM@schematron?5@
CONST	SEGMENT
??_C@_0M@LAKDBFM@schematron?5@ DB 'schematron ', 00H	; `string'
CONST	ENDS
;	COMDAT ??_C@_09JICCLIJI@encoding?5@
CONST	SEGMENT
??_C@_09JICCLIJI@encoding?5@ DB 'encoding ', 00H	; `string'
CONST	ENDS
;	COMDAT ??_C@_05POKACEJG@XSLT?5@
CONST	SEGMENT
??_C@_05POKACEJG@XSLT?5@ DB 'XSLT ', 00H		; `string'
CONST	ENDS
;	COMDAT ??_C@_05MLHJFMDG@C14N?5@
CONST	SEGMENT
??_C@_05MLHJFMDG@C14N?5@ DB 'C14N ', 00H		; `string'
CONST	ENDS
;	COMDAT ??_C@_08NOLMNIGP@Catalog?5@
CONST	SEGMENT
??_C@_08NOLMNIGP@Catalog?5@ DB 'Catalog ', 00H		; `string'
CONST	ENDS
;	COMDAT ??_C@_0BD@EPDAPLJK@Relax?9NG?5validity?5@
CONST	SEGMENT
??_C@_0BD@EPDAPLJK@Relax?9NG?5validity?5@ DB 'Relax-NG validity ', 00H ; `string'
CONST	ENDS
;	COMDAT ??_C@_0BB@FGPKBGBA@Relax?9NG?5parser?5@
CONST	SEGMENT
??_C@_0BB@FGPKBGBA@Relax?9NG?5parser?5@ DB 'Relax-NG parser ', 00H ; `string'
CONST	ENDS
;	COMDAT ??_C@_0BA@COGPIGL@Schemas?5parser?5@
CONST	SEGMENT
??_C@_0BA@COGPIGL@Schemas?5parser?5@ DB 'Schemas parser ', 00H ; `string'
CONST	ENDS
;	COMDAT ??_C@_0BC@MEEJMAME@Schemas?5validity?5@
CONST	SEGMENT
??_C@_0BC@MEEJMAME@Schemas?5validity?5@ DB 'Schemas validity ', 00H ; `string'
CONST	ENDS
;	COMDAT ??_C@_07KEPCOONB@module?5@
CONST	SEGMENT
??_C@_07KEPCOONB@module?5@ DB 'module ', 00H		; `string'
CONST	ENDS
;	COMDAT ??_C@_07IGPLNGGH@regexp?5@
CONST	SEGMENT
??_C@_07IGPLNGGH@regexp?5@ DB 'regexp ', 00H		; `string'
CONST	ENDS
;	COMDAT ??_C@_06ONGIFIKK@XPath?5@
CONST	SEGMENT
??_C@_06ONGIFIKK@XPath?5@ DB 'XPath ', 00H		; `string'
CONST	ENDS
;	COMDAT ??_C@_09JKGAONDL@XInclude?5@
CONST	SEGMENT
??_C@_09JKGAONDL@XInclude?5@ DB 'XInclude ', 00H	; `string'
CONST	ENDS
;	COMDAT ??_C@_04HKCNGDON@I?1O?5@
CONST	SEGMENT
??_C@_04HKCNGDON@I?1O?5@ DB 'I/O ', 00H			; `string'
CONST	ENDS
;	COMDAT ??_C@_07NOLKHGJF@output?5@
CONST	SEGMENT
??_C@_07NOLKHGJF@output?5@ DB 'output ', 00H		; `string'
CONST	ENDS
;	COMDAT ??_C@_07KICHBFMM@memory?5@
CONST	SEGMENT
??_C@_07KICHBFMM@memory?5@ DB 'memory ', 00H		; `string'
CONST	ENDS
;	COMDAT ??_C@_0N@IENDNEBE@HTML?5parser?5@
CONST	SEGMENT
??_C@_0N@IENDNEBE@HTML?5parser?5@ DB 'HTML parser ', 00H ; `string'
CONST	ENDS
;	COMDAT ??_C@_09BIOOFDLF@validity?5@
CONST	SEGMENT
??_C@_09BIOOFDLF@validity?5@ DB 'validity ', 00H	; `string'
CONST	ENDS
;	COMDAT ??_C@_0L@BNCDLIEB@namespace?5@
CONST	SEGMENT
??_C@_0L@BNCDLIEB@namespace?5@ DB 'namespace ', 00H	; `string'
CONST	ENDS
;	COMDAT ??_C@_07CNNNFPCP@parser?5@
CONST	SEGMENT
??_C@_07CNNNFPCP@parser?5@ DB 'parser ', 00H		; `string'
CONST	ENDS
;	COMDAT ??_C@_0N@MLFICIIN@element?5?$CFs?3?5@
CONST	SEGMENT
??_C@_0N@MLFICIIN@element?5?$CFs?3?5@ DB 'element %s: ', 00H ; `string'
CONST	ENDS
;	COMDAT ??_C@_03OFAPEBGM@?$CFs?6@
CONST	SEGMENT
??_C@_03OFAPEBGM@?$CFs?6@ DB '%s', 0aH, 00H		; `string'
CONST	ENDS
;	COMDAT ??_C@_0BC@FMCMLLAH@Entity?3?5line?5?$CFd?3?5@
CONST	SEGMENT
??_C@_0BC@FMCMLLAH@Entity?3?5line?5?$CFd?3?5@ DB 'Entity: line %d: ', 00H ; `string'
CONST	ENDS
;	COMDAT ??_C@_07FCDHCGBN@?$CFs?3?$CFd?3?5@
CONST	SEGMENT
??_C@_07FCDHCGBN@?$CFs?3?$CFd?3?5@ DB '%s:%d: ', 00H	; `string'
CONST	ENDS
; Function compile flags: /Odt
;	COMDAT __JustMyCode_Default
_TEXT	SEGMENT
__JustMyCode_Default PROC				; COMDAT
	push	ebp
	mov	ebp, esp
	pop	ebp
	ret	0
__JustMyCode_Default ENDP
_TEXT	ENDS
; Function compile flags: /Odtp /RTCsu
; File c:\users\dag\documents\_clients\codeproject authors group\windows on arm\libxml2\libxml2-2.9.9\error.c
;	COMDAT _xmlReportError
_TEXT	SEGMENT
tv206 = -212						; size = 4
tv157 = -208						; size = 4
_i$1 = -204						; size = 4
_buf$2 = -196						; size = 150
_len$3 = -40						; size = 4
_cur$ = -36						; size = 4
_input$ = -32						; size = 4
_level$ = -28						; size = 4
_node$ = -24						; size = 4
_name$ = -20						; size = 4
_domain$ = -16						; size = 4
_code$ = -12						; size = 4
_line$ = -8						; size = 4
_file$ = -4						; size = 4
_err$ = 8						; size = 4
_ctxt$ = 12						; size = 4
_str$ = 16						; size = 4
_channel$ = 20						; size = 4
_data$ = 24						; size = 4
_xmlReportError PROC					; COMDAT

; 247  : {

	push	ebp
	mov	ebp, esp
	sub	esp, 212				; 000000d4H
	push	esi
	push	edi
	lea	edi, DWORD PTR [ebp-212]
	mov	ecx, 53					; 00000035H
	mov	eax, -858993460				; ccccccccH
	rep stosd
	mov	ecx, OFFSET __67926DEE_error@c
	call	@__CheckForDebuggerJustMyCode@4

; 248  :     char *file = NULL;

	mov	DWORD PTR _file$[ebp], 0

; 249  :     int line = 0;

	mov	DWORD PTR _line$[ebp], 0

; 250  :     int code = -1;

	mov	DWORD PTR _code$[ebp], -1

; 251  :     int domain;
; 252  :     const xmlChar *name = NULL;

	mov	DWORD PTR _name$[ebp], 0

; 253  :     xmlNodePtr node;
; 254  :     xmlErrorLevel level;
; 255  :     xmlParserInputPtr input = NULL;

	mov	DWORD PTR _input$[ebp], 0

; 256  :     xmlParserInputPtr cur = NULL;

	mov	DWORD PTR _cur$[ebp], 0

; 257  : 
; 258  :     if (err == NULL)

	cmp	DWORD PTR _err$[ebp], 0
	jne	SHORT $LN9@xmlReportE

; 259  :         return;

	jmp	$LN1@xmlReportE
$LN9@xmlReportE:

; 260  : 
; 261  :     if (channel == NULL) {

	cmp	DWORD PTR _channel$[ebp], 0
	jne	SHORT $LN10@xmlReportE

; 262  : 	channel = xmlGenericError;

	call	___xmlGenericError
	mov	eax, DWORD PTR [eax]
	mov	DWORD PTR _channel$[ebp], eax

; 263  : 	data = xmlGenericErrorContext;

	call	___xmlGenericErrorContext
	mov	ecx, DWORD PTR [eax]
	mov	DWORD PTR _data$[ebp], ecx
$LN10@xmlReportE:

; 264  :     }
; 265  :     file = err->file;

	mov	edx, DWORD PTR _err$[ebp]
	mov	eax, DWORD PTR [edx+16]
	mov	DWORD PTR _file$[ebp], eax

; 266  :     line = err->line;

	mov	ecx, DWORD PTR _err$[ebp]
	mov	edx, DWORD PTR [ecx+20]
	mov	DWORD PTR _line$[ebp], edx

; 267  :     code = err->code;

	mov	eax, DWORD PTR _err$[ebp]
	mov	ecx, DWORD PTR [eax+4]
	mov	DWORD PTR _code$[ebp], ecx

; 268  :     domain = err->domain;

	mov	edx, DWORD PTR _err$[ebp]
	mov	eax, DWORD PTR [edx]
	mov	DWORD PTR _domain$[ebp], eax

; 269  :     level = err->level;

	mov	ecx, DWORD PTR _err$[ebp]
	mov	edx, DWORD PTR [ecx+12]
	mov	DWORD PTR _level$[ebp], edx

; 270  :     node = err->node;

	mov	eax, DWORD PTR _err$[ebp]
	mov	ecx, DWORD PTR [eax+48]
	mov	DWORD PTR _node$[ebp], ecx

; 271  : 
; 272  :     if (code == XML_ERR_OK)

	cmp	DWORD PTR _code$[ebp], 0
	jne	SHORT $LN11@xmlReportE

; 273  :         return;

	jmp	$LN1@xmlReportE
$LN11@xmlReportE:

; 274  : 
; 275  :     if ((node != NULL) && (node->type == XML_ELEMENT_NODE))

	cmp	DWORD PTR _node$[ebp], 0
	je	SHORT $LN12@xmlReportE
	mov	edx, DWORD PTR _node$[ebp]
	cmp	DWORD PTR [edx+4], 1
	jne	SHORT $LN12@xmlReportE

; 276  :         name = node->name;

	mov	eax, DWORD PTR _node$[ebp]
	mov	ecx, DWORD PTR [eax+8]
	mov	DWORD PTR _name$[ebp], ecx
$LN12@xmlReportE:

; 277  : 
; 278  :     /*
; 279  :      * Maintain the compatibility with the legacy error handling
; 280  :      */
; 281  :     if (ctxt != NULL) {

	cmp	DWORD PTR _ctxt$[ebp], 0
	je	$LN13@xmlReportE

; 282  :         input = ctxt->input;

	mov	edx, DWORD PTR _ctxt$[ebp]
	mov	eax, DWORD PTR [edx+36]
	mov	DWORD PTR _input$[ebp], eax

; 283  :         if ((input != NULL) && (input->filename == NULL) &&

	cmp	DWORD PTR _input$[ebp], 0
	je	SHORT $LN15@xmlReportE
	mov	ecx, DWORD PTR _input$[ebp]
	cmp	DWORD PTR [ecx+4], 0
	jne	SHORT $LN15@xmlReportE
	mov	edx, DWORD PTR _ctxt$[ebp]
	cmp	DWORD PTR [edx+40], 1
	jle	SHORT $LN15@xmlReportE

; 284  :             (ctxt->inputNr > 1)) {
; 285  :             cur = input;

	mov	eax, DWORD PTR _input$[ebp]
	mov	DWORD PTR _cur$[ebp], eax

; 286  :             input = ctxt->inputTab[ctxt->inputNr - 2];

	mov	ecx, DWORD PTR _ctxt$[ebp]
	mov	edx, DWORD PTR [ecx+40]
	mov	eax, DWORD PTR _ctxt$[ebp]
	mov	ecx, DWORD PTR [eax+48]
	mov	edx, DWORD PTR [ecx+edx*4-8]
	mov	DWORD PTR _input$[ebp], edx
$LN15@xmlReportE:

; 287  :         }
; 288  :         if (input != NULL) {

	cmp	DWORD PTR _input$[ebp], 0
	je	SHORT $LN16@xmlReportE

; 289  :             if (input->filename)

	mov	eax, DWORD PTR _input$[ebp]
	cmp	DWORD PTR [eax+4], 0
	je	SHORT $LN17@xmlReportE

; 290  :                 channel(data, "%s:%d: ", input->filename, input->line);

	mov	esi, esp
	mov	ecx, DWORD PTR _input$[ebp]
	mov	edx, DWORD PTR [ecx+28]
	push	edx
	mov	eax, DWORD PTR _input$[ebp]
	mov	ecx, DWORD PTR [eax+4]
	push	ecx
	push	OFFSET ??_C@_07FCDHCGBN@?$CFs?3?$CFd?3?5@
	mov	edx, DWORD PTR _data$[ebp]
	push	edx
	call	DWORD PTR _channel$[ebp]
	add	esp, 16					; 00000010H
	cmp	esi, esp
	call	__RTC_CheckEsp
	jmp	SHORT $LN16@xmlReportE
$LN17@xmlReportE:

; 291  :             else if ((line != 0) && (domain == XML_FROM_PARSER))

	cmp	DWORD PTR _line$[ebp], 0
	je	SHORT $LN16@xmlReportE
	cmp	DWORD PTR _domain$[ebp], 1
	jne	SHORT $LN16@xmlReportE

; 292  :                 channel(data, "Entity: line %d: ", input->line);

	mov	esi, esp
	mov	eax, DWORD PTR _input$[ebp]
	mov	ecx, DWORD PTR [eax+28]
	push	ecx
	push	OFFSET ??_C@_0BC@FMCMLLAH@Entity?3?5line?5?$CFd?3?5@
	mov	edx, DWORD PTR _data$[ebp]
	push	edx
	call	DWORD PTR _channel$[ebp]
	add	esp, 12					; 0000000cH
	cmp	esi, esp
	call	__RTC_CheckEsp
$LN16@xmlReportE:

; 293  :         }
; 294  :     } else {

	jmp	SHORT $LN14@xmlReportE
$LN13@xmlReportE:

; 295  :         if (file != NULL)

	cmp	DWORD PTR _file$[ebp], 0
	je	SHORT $LN20@xmlReportE

; 296  :             channel(data, "%s:%d: ", file, line);

	mov	esi, esp
	mov	eax, DWORD PTR _line$[ebp]
	push	eax
	mov	ecx, DWORD PTR _file$[ebp]
	push	ecx
	push	OFFSET ??_C@_07FCDHCGBN@?$CFs?3?$CFd?3?5@
	mov	edx, DWORD PTR _data$[ebp]
	push	edx
	call	DWORD PTR _channel$[ebp]
	add	esp, 16					; 00000010H
	cmp	esi, esp
	call	__RTC_CheckEsp
	jmp	SHORT $LN14@xmlReportE
$LN20@xmlReportE:

; 297  :         else if ((line != 0) &&

	cmp	DWORD PTR _line$[ebp], 0
	je	SHORT $LN14@xmlReportE
	cmp	DWORD PTR _domain$[ebp], 1
	je	SHORT $LN23@xmlReportE
	cmp	DWORD PTR _domain$[ebp], 17		; 00000011H
	je	SHORT $LN23@xmlReportE
	cmp	DWORD PTR _domain$[ebp], 16		; 00000010H
	je	SHORT $LN23@xmlReportE
	cmp	DWORD PTR _domain$[ebp], 4
	je	SHORT $LN23@xmlReportE
	cmp	DWORD PTR _domain$[ebp], 18		; 00000012H
	je	SHORT $LN23@xmlReportE
	cmp	DWORD PTR _domain$[ebp], 19		; 00000013H
	jne	SHORT $LN14@xmlReportE
$LN23@xmlReportE:

; 298  : 	         ((domain == XML_FROM_PARSER) || (domain == XML_FROM_SCHEMASV)||
; 299  : 		  (domain == XML_FROM_SCHEMASP)||(domain == XML_FROM_DTD) ||
; 300  : 		  (domain == XML_FROM_RELAXNGP)||(domain == XML_FROM_RELAXNGV)))
; 301  :             channel(data, "Entity: line %d: ", line);

	mov	esi, esp
	mov	eax, DWORD PTR _line$[ebp]
	push	eax
	push	OFFSET ??_C@_0BC@FMCMLLAH@Entity?3?5line?5?$CFd?3?5@
	mov	ecx, DWORD PTR _data$[ebp]
	push	ecx
	call	DWORD PTR _channel$[ebp]
	add	esp, 12					; 0000000cH
	cmp	esi, esp
	call	__RTC_CheckEsp
$LN14@xmlReportE:

; 302  :     }
; 303  :     if (name != NULL) {

	cmp	DWORD PTR _name$[ebp], 0
	je	SHORT $LN24@xmlReportE

; 304  :         channel(data, "element %s: ", name);

	mov	esi, esp
	mov	edx, DWORD PTR _name$[ebp]
	push	edx
	push	OFFSET ??_C@_0N@MLFICIIN@element?5?$CFs?3?5@
	mov	eax, DWORD PTR _data$[ebp]
	push	eax
	call	DWORD PTR _channel$[ebp]
	add	esp, 12					; 0000000cH
	cmp	esi, esp
	call	__RTC_CheckEsp
$LN24@xmlReportE:

; 305  :     }
; 306  :     switch (domain) {

	mov	ecx, DWORD PTR _domain$[ebp]
	mov	DWORD PTR tv157[ebp], ecx
	mov	edx, DWORD PTR tv157[ebp]
	sub	edx, 1
	mov	DWORD PTR tv157[ebp], edx
	cmp	DWORD PTR tv157[ebp], 29		; 0000001dH
	ja	$LN2@xmlReportE
	mov	eax, DWORD PTR tv157[ebp]
	jmp	DWORD PTR $LN67@xmlReportE[eax*4]
$LN25@xmlReportE:

; 307  :         case XML_FROM_PARSER:
; 308  :             channel(data, "parser ");

	mov	esi, esp
	push	OFFSET ??_C@_07CNNNFPCP@parser?5@
	mov	ecx, DWORD PTR _data$[ebp]
	push	ecx
	call	DWORD PTR _channel$[ebp]
	add	esp, 8
	cmp	esi, esp
	call	__RTC_CheckEsp

; 309  :             break;

	jmp	$LN2@xmlReportE
$LN26@xmlReportE:

; 310  :         case XML_FROM_NAMESPACE:
; 311  :             channel(data, "namespace ");

	mov	esi, esp
	push	OFFSET ??_C@_0L@BNCDLIEB@namespace?5@
	mov	edx, DWORD PTR _data$[ebp]
	push	edx
	call	DWORD PTR _channel$[ebp]
	add	esp, 8
	cmp	esi, esp
	call	__RTC_CheckEsp

; 312  :             break;

	jmp	$LN2@xmlReportE
$LN27@xmlReportE:

; 313  :         case XML_FROM_DTD:
; 314  :         case XML_FROM_VALID:
; 315  :             channel(data, "validity ");

	mov	esi, esp
	push	OFFSET ??_C@_09BIOOFDLF@validity?5@
	mov	eax, DWORD PTR _data$[ebp]
	push	eax
	call	DWORD PTR _channel$[ebp]
	add	esp, 8
	cmp	esi, esp
	call	__RTC_CheckEsp

; 316  :             break;

	jmp	$LN2@xmlReportE
$LN28@xmlReportE:

; 317  :         case XML_FROM_HTML:
; 318  :             channel(data, "HTML parser ");

	mov	esi, esp
	push	OFFSET ??_C@_0N@IENDNEBE@HTML?5parser?5@
	mov	ecx, DWORD PTR _data$[ebp]
	push	ecx
	call	DWORD PTR _channel$[ebp]
	add	esp, 8
	cmp	esi, esp
	call	__RTC_CheckEsp

; 319  :             break;

	jmp	$LN2@xmlReportE
$LN29@xmlReportE:

; 320  :         case XML_FROM_MEMORY:
; 321  :             channel(data, "memory ");

	mov	esi, esp
	push	OFFSET ??_C@_07KICHBFMM@memory?5@
	mov	edx, DWORD PTR _data$[ebp]
	push	edx
	call	DWORD PTR _channel$[ebp]
	add	esp, 8
	cmp	esi, esp
	call	__RTC_CheckEsp

; 322  :             break;

	jmp	$LN2@xmlReportE
$LN30@xmlReportE:

; 323  :         case XML_FROM_OUTPUT:
; 324  :             channel(data, "output ");

	mov	esi, esp
	push	OFFSET ??_C@_07NOLKHGJF@output?5@
	mov	eax, DWORD PTR _data$[ebp]
	push	eax
	call	DWORD PTR _channel$[ebp]
	add	esp, 8
	cmp	esi, esp
	call	__RTC_CheckEsp

; 325  :             break;

	jmp	$LN2@xmlReportE
$LN31@xmlReportE:

; 326  :         case XML_FROM_IO:
; 327  :             channel(data, "I/O ");

	mov	esi, esp
	push	OFFSET ??_C@_04HKCNGDON@I?1O?5@
	mov	ecx, DWORD PTR _data$[ebp]
	push	ecx
	call	DWORD PTR _channel$[ebp]
	add	esp, 8
	cmp	esi, esp
	call	__RTC_CheckEsp

; 328  :             break;

	jmp	$LN2@xmlReportE
$LN32@xmlReportE:

; 329  :         case XML_FROM_XINCLUDE:
; 330  :             channel(data, "XInclude ");

	mov	esi, esp
	push	OFFSET ??_C@_09JKGAONDL@XInclude?5@
	mov	edx, DWORD PTR _data$[ebp]
	push	edx
	call	DWORD PTR _channel$[ebp]
	add	esp, 8
	cmp	esi, esp
	call	__RTC_CheckEsp

; 331  :             break;

	jmp	$LN2@xmlReportE
$LN33@xmlReportE:

; 332  :         case XML_FROM_XPATH:
; 333  :             channel(data, "XPath ");

	mov	esi, esp
	push	OFFSET ??_C@_06ONGIFIKK@XPath?5@
	mov	eax, DWORD PTR _data$[ebp]
	push	eax
	call	DWORD PTR _channel$[ebp]
	add	esp, 8
	cmp	esi, esp
	call	__RTC_CheckEsp

; 334  :             break;

	jmp	$LN2@xmlReportE
$LN34@xmlReportE:

; 335  :         case XML_FROM_XPOINTER:
; 336  :             channel(data, "parser ");

	mov	esi, esp
	push	OFFSET ??_C@_07CNNNFPCP@parser?5@
	mov	ecx, DWORD PTR _data$[ebp]
	push	ecx
	call	DWORD PTR _channel$[ebp]
	add	esp, 8
	cmp	esi, esp
	call	__RTC_CheckEsp

; 337  :             break;

	jmp	$LN2@xmlReportE
$LN35@xmlReportE:

; 338  :         case XML_FROM_REGEXP:
; 339  :             channel(data, "regexp ");

	mov	esi, esp
	push	OFFSET ??_C@_07IGPLNGGH@regexp?5@
	mov	edx, DWORD PTR _data$[ebp]
	push	edx
	call	DWORD PTR _channel$[ebp]
	add	esp, 8
	cmp	esi, esp
	call	__RTC_CheckEsp

; 340  :             break;

	jmp	$LN2@xmlReportE
$LN36@xmlReportE:

; 341  :         case XML_FROM_MODULE:
; 342  :             channel(data, "module ");

	mov	esi, esp
	push	OFFSET ??_C@_07KEPCOONB@module?5@
	mov	eax, DWORD PTR _data$[ebp]
	push	eax
	call	DWORD PTR _channel$[ebp]
	add	esp, 8
	cmp	esi, esp
	call	__RTC_CheckEsp

; 343  :             break;

	jmp	$LN2@xmlReportE
$LN37@xmlReportE:

; 344  :         case XML_FROM_SCHEMASV:
; 345  :             channel(data, "Schemas validity ");

	mov	esi, esp
	push	OFFSET ??_C@_0BC@MEEJMAME@Schemas?5validity?5@
	mov	ecx, DWORD PTR _data$[ebp]
	push	ecx
	call	DWORD PTR _channel$[ebp]
	add	esp, 8
	cmp	esi, esp
	call	__RTC_CheckEsp

; 346  :             break;

	jmp	$LN2@xmlReportE
$LN38@xmlReportE:

; 347  :         case XML_FROM_SCHEMASP:
; 348  :             channel(data, "Schemas parser ");

	mov	esi, esp
	push	OFFSET ??_C@_0BA@COGPIGL@Schemas?5parser?5@
	mov	edx, DWORD PTR _data$[ebp]
	push	edx
	call	DWORD PTR _channel$[ebp]
	add	esp, 8
	cmp	esi, esp
	call	__RTC_CheckEsp

; 349  :             break;

	jmp	$LN2@xmlReportE
$LN39@xmlReportE:

; 350  :         case XML_FROM_RELAXNGP:
; 351  :             channel(data, "Relax-NG parser ");

	mov	esi, esp
	push	OFFSET ??_C@_0BB@FGPKBGBA@Relax?9NG?5parser?5@
	mov	eax, DWORD PTR _data$[ebp]
	push	eax
	call	DWORD PTR _channel$[ebp]
	add	esp, 8
	cmp	esi, esp
	call	__RTC_CheckEsp

; 352  :             break;

	jmp	$LN2@xmlReportE
$LN40@xmlReportE:

; 353  :         case XML_FROM_RELAXNGV:
; 354  :             channel(data, "Relax-NG validity ");

	mov	esi, esp
	push	OFFSET ??_C@_0BD@EPDAPLJK@Relax?9NG?5validity?5@
	mov	ecx, DWORD PTR _data$[ebp]
	push	ecx
	call	DWORD PTR _channel$[ebp]
	add	esp, 8
	cmp	esi, esp
	call	__RTC_CheckEsp

; 355  :             break;

	jmp	$LN2@xmlReportE
$LN41@xmlReportE:

; 356  :         case XML_FROM_CATALOG:
; 357  :             channel(data, "Catalog ");

	mov	esi, esp
	push	OFFSET ??_C@_08NOLMNIGP@Catalog?5@
	mov	edx, DWORD PTR _data$[ebp]
	push	edx
	call	DWORD PTR _channel$[ebp]
	add	esp, 8
	cmp	esi, esp
	call	__RTC_CheckEsp

; 358  :             break;

	jmp	$LN2@xmlReportE
$LN42@xmlReportE:

; 359  :         case XML_FROM_C14N:
; 360  :             channel(data, "C14N ");

	mov	esi, esp
	push	OFFSET ??_C@_05MLHJFMDG@C14N?5@
	mov	eax, DWORD PTR _data$[ebp]
	push	eax
	call	DWORD PTR _channel$[ebp]
	add	esp, 8
	cmp	esi, esp
	call	__RTC_CheckEsp

; 361  :             break;

	jmp	$LN2@xmlReportE
$LN43@xmlReportE:

; 362  :         case XML_FROM_XSLT:
; 363  :             channel(data, "XSLT ");

	mov	esi, esp
	push	OFFSET ??_C@_05POKACEJG@XSLT?5@
	mov	ecx, DWORD PTR _data$[ebp]
	push	ecx
	call	DWORD PTR _channel$[ebp]
	add	esp, 8
	cmp	esi, esp
	call	__RTC_CheckEsp

; 364  :             break;

	jmp	SHORT $LN2@xmlReportE
$LN44@xmlReportE:

; 365  :         case XML_FROM_I18N:
; 366  :             channel(data, "encoding ");

	mov	esi, esp
	push	OFFSET ??_C@_09JICCLIJI@encoding?5@
	mov	edx, DWORD PTR _data$[ebp]
	push	edx
	call	DWORD PTR _channel$[ebp]
	add	esp, 8
	cmp	esi, esp
	call	__RTC_CheckEsp

; 367  :             break;

	jmp	SHORT $LN2@xmlReportE
$LN45@xmlReportE:

; 368  :         case XML_FROM_SCHEMATRONV:
; 369  :             channel(data, "schematron ");

	mov	esi, esp
	push	OFFSET ??_C@_0M@LAKDBFM@schematron?5@
	mov	eax, DWORD PTR _data$[ebp]
	push	eax
	call	DWORD PTR _channel$[ebp]
	add	esp, 8
	cmp	esi, esp
	call	__RTC_CheckEsp

; 370  :             break;

	jmp	SHORT $LN2@xmlReportE
$LN46@xmlReportE:

; 371  :         case XML_FROM_BUFFER:
; 372  :             channel(data, "internal buffer ");

	mov	esi, esp
	push	OFFSET ??_C@_0BB@FACNAIAH@internal?5buffer?5@
	mov	ecx, DWORD PTR _data$[ebp]
	push	ecx
	call	DWORD PTR _channel$[ebp]
	add	esp, 8
	cmp	esi, esp
	call	__RTC_CheckEsp

; 373  :             break;

	jmp	SHORT $LN2@xmlReportE
$LN47@xmlReportE:

; 374  :         case XML_FROM_URI:
; 375  :             channel(data, "URI ");

	mov	esi, esp
	push	OFFSET ??_C@_04ECOFBNJN@URI?5@
	mov	edx, DWORD PTR _data$[ebp]
	push	edx
	call	DWORD PTR _channel$[ebp]
	add	esp, 8
	cmp	esi, esp
	call	__RTC_CheckEsp
$LN2@xmlReportE:

; 376  :             break;
; 377  :         default:
; 378  :             break;
; 379  :     }
; 380  :     switch (level) {

	mov	eax, DWORD PTR _level$[ebp]
	mov	DWORD PTR tv206[ebp], eax
	cmp	DWORD PTR tv206[ebp], 3
	ja	SHORT $LN4@xmlReportE
	mov	ecx, DWORD PTR tv206[ebp]
	jmp	DWORD PTR $LN68@xmlReportE[ecx*4]
$LN49@xmlReportE:

; 381  :         case XML_ERR_NONE:
; 382  :             channel(data, ": ");

	mov	esi, esp
	push	OFFSET ??_C@_02LMMGGCAJ@?3?5@
	mov	edx, DWORD PTR _data$[ebp]
	push	edx
	call	DWORD PTR _channel$[ebp]
	add	esp, 8
	cmp	esi, esp
	call	__RTC_CheckEsp

; 383  :             break;

	jmp	SHORT $LN4@xmlReportE
$LN50@xmlReportE:

; 384  :         case XML_ERR_WARNING:
; 385  :             channel(data, "warning : ");

	mov	esi, esp
	push	OFFSET ??_C@_0L@HNPIBIGM@warning?5?3?5@
	mov	eax, DWORD PTR _data$[ebp]
	push	eax
	call	DWORD PTR _channel$[ebp]
	add	esp, 8
	cmp	esi, esp
	call	__RTC_CheckEsp

; 386  :             break;

	jmp	SHORT $LN4@xmlReportE
$LN51@xmlReportE:

; 387  :         case XML_ERR_ERROR:
; 388  :             channel(data, "error : ");

	mov	esi, esp
	push	OFFSET ??_C@_08PMHKJNKP@error?5?3?5@
	mov	ecx, DWORD PTR _data$[ebp]
	push	ecx
	call	DWORD PTR _channel$[ebp]
	add	esp, 8
	cmp	esi, esp
	call	__RTC_CheckEsp

; 389  :             break;

	jmp	SHORT $LN4@xmlReportE
$LN52@xmlReportE:

; 390  :         case XML_ERR_FATAL:
; 391  :             channel(data, "error : ");

	mov	esi, esp
	push	OFFSET ??_C@_08PMHKJNKP@error?5?3?5@
	mov	edx, DWORD PTR _data$[ebp]
	push	edx
	call	DWORD PTR _channel$[ebp]
	add	esp, 8
	cmp	esi, esp
	call	__RTC_CheckEsp
$LN4@xmlReportE:

; 392  :             break;
; 393  :     }
; 394  :     if (str != NULL) {

	cmp	DWORD PTR _str$[ebp], 0
	je	SHORT $LN53@xmlReportE

; 395  :         int len;
; 396  : 	len = xmlStrlen((const xmlChar *)str);

	mov	eax, DWORD PTR _str$[ebp]
	push	eax
	call	_xmlStrlen
	add	esp, 4
	mov	DWORD PTR _len$3[ebp], eax

; 397  : 	if ((len > 0) && (str[len - 1] != '\n'))

	cmp	DWORD PTR _len$3[ebp], 0
	jle	SHORT $LN55@xmlReportE
	mov	ecx, DWORD PTR _str$[ebp]
	add	ecx, DWORD PTR _len$3[ebp]
	movsx	edx, BYTE PTR [ecx-1]
	cmp	edx, 10					; 0000000aH
	je	SHORT $LN55@xmlReportE

; 398  : 	    channel(data, "%s\n", str);

	mov	esi, esp
	mov	eax, DWORD PTR _str$[ebp]
	push	eax
	push	OFFSET ??_C@_03OFAPEBGM@?$CFs?6@
	mov	ecx, DWORD PTR _data$[ebp]
	push	ecx
	call	DWORD PTR _channel$[ebp]
	add	esp, 12					; 0000000cH
	cmp	esi, esp
	call	__RTC_CheckEsp
	jmp	SHORT $LN56@xmlReportE
$LN55@xmlReportE:

; 399  : 	else
; 400  : 	    channel(data, "%s", str);

	mov	esi, esp
	mov	edx, DWORD PTR _str$[ebp]
	push	edx
	push	OFFSET ??_C@_02DKCKIIND@?$CFs@
	mov	eax, DWORD PTR _data$[ebp]
	push	eax
	call	DWORD PTR _channel$[ebp]
	add	esp, 12					; 0000000cH
	cmp	esi, esp
	call	__RTC_CheckEsp
$LN56@xmlReportE:

; 401  :     } else {

	jmp	SHORT $LN54@xmlReportE
$LN53@xmlReportE:

; 402  :         channel(data, "%s\n", "out of memory error");

	mov	esi, esp
	push	OFFSET ??_C@_0BE@LHHHBFLE@out?5of?5memory?5error@
	push	OFFSET ??_C@_03OFAPEBGM@?$CFs?6@
	mov	ecx, DWORD PTR _data$[ebp]
	push	ecx
	call	DWORD PTR _channel$[ebp]
	add	esp, 12					; 0000000cH
	cmp	esi, esp
	call	__RTC_CheckEsp
$LN54@xmlReportE:

; 403  :     }
; 404  : 
; 405  :     if (ctxt != NULL) {

	cmp	DWORD PTR _ctxt$[ebp], 0
	je	$LN57@xmlReportE

; 406  :         xmlParserPrintFileContextInternal(input, channel, data);

	mov	edx, DWORD PTR _data$[ebp]
	push	edx
	mov	eax, DWORD PTR _channel$[ebp]
	push	eax
	mov	ecx, DWORD PTR _input$[ebp]
	push	ecx
	call	_xmlParserPrintFileContextInternal
	add	esp, 12					; 0000000cH

; 407  :         if (cur != NULL) {

	cmp	DWORD PTR _cur$[ebp], 0
	je	SHORT $LN57@xmlReportE

; 408  :             if (cur->filename)

	mov	edx, DWORD PTR _cur$[ebp]
	cmp	DWORD PTR [edx+4], 0
	je	SHORT $LN59@xmlReportE

; 409  :                 channel(data, "%s:%d: \n", cur->filename, cur->line);

	mov	esi, esp
	mov	eax, DWORD PTR _cur$[ebp]
	mov	ecx, DWORD PTR [eax+28]
	push	ecx
	mov	edx, DWORD PTR _cur$[ebp]
	mov	eax, DWORD PTR [edx+4]
	push	eax
	push	OFFSET ??_C@_08JJLLLDHF@?$CFs?3?$CFd?3?5?6@
	mov	ecx, DWORD PTR _data$[ebp]
	push	ecx
	call	DWORD PTR _channel$[ebp]
	add	esp, 16					; 00000010H
	cmp	esi, esp
	call	__RTC_CheckEsp
	jmp	SHORT $LN60@xmlReportE
$LN59@xmlReportE:

; 410  :             else if ((line != 0) && (domain == XML_FROM_PARSER))

	cmp	DWORD PTR _line$[ebp], 0
	je	SHORT $LN60@xmlReportE
	cmp	DWORD PTR _domain$[ebp], 1
	jne	SHORT $LN60@xmlReportE

; 411  :                 channel(data, "Entity: line %d: \n", cur->line);

	mov	esi, esp
	mov	edx, DWORD PTR _cur$[ebp]
	mov	eax, DWORD PTR [edx+28]
	push	eax
	push	OFFSET ??_C@_0BD@GENHFBJC@Entity?3?5line?5?$CFd?3?5?6@
	mov	ecx, DWORD PTR _data$[ebp]
	push	ecx
	call	DWORD PTR _channel$[ebp]
	add	esp, 12					; 0000000cH
	cmp	esi, esp
	call	__RTC_CheckEsp
$LN60@xmlReportE:

; 412  :             xmlParserPrintFileContextInternal(cur, channel, data);

	mov	edx, DWORD PTR _data$[ebp]
	push	edx
	mov	eax, DWORD PTR _channel$[ebp]
	push	eax
	mov	ecx, DWORD PTR _cur$[ebp]
	push	ecx
	call	_xmlParserPrintFileContextInternal
	add	esp, 12					; 0000000cH
$LN57@xmlReportE:

; 413  :         }
; 414  :     }
; 415  :     if ((domain == XML_FROM_XPATH) && (err->str1 != NULL) &&
; 416  :         (err->int1 < 100) &&

	cmp	DWORD PTR _domain$[ebp], 12		; 0000000cH
	jne	$LN1@xmlReportE
	mov	edx, DWORD PTR _err$[ebp]
	cmp	DWORD PTR [edx+24], 0
	je	$LN1@xmlReportE
	mov	eax, DWORD PTR _err$[ebp]
	cmp	DWORD PTR [eax+36], 100			; 00000064H
	jge	$LN1@xmlReportE
	mov	ecx, DWORD PTR _err$[ebp]
	mov	edx, DWORD PTR [ecx+24]
	push	edx
	call	_xmlStrlen
	add	esp, 4
	mov	ecx, DWORD PTR _err$[ebp]
	cmp	DWORD PTR [ecx+36], eax
	jge	$LN1@xmlReportE

; 417  : 	(err->int1 < xmlStrlen((const xmlChar *)err->str1))) {
; 418  : 	xmlChar buf[150];
; 419  : 	int i;
; 420  : 
; 421  : 	channel(data, "%s\n", err->str1);

	mov	esi, esp
	mov	edx, DWORD PTR _err$[ebp]
	mov	eax, DWORD PTR [edx+24]
	push	eax
	push	OFFSET ??_C@_03OFAPEBGM@?$CFs?6@
	mov	ecx, DWORD PTR _data$[ebp]
	push	ecx
	call	DWORD PTR _channel$[ebp]
	add	esp, 12					; 0000000cH
	cmp	esi, esp
	call	__RTC_CheckEsp

; 422  : 	for (i=0;i < err->int1;i++)

	mov	DWORD PTR _i$1[ebp], 0
	jmp	SHORT $LN8@xmlReportE
$LN6@xmlReportE:
	mov	edx, DWORD PTR _i$1[ebp]
	add	edx, 1
	mov	DWORD PTR _i$1[ebp], edx
$LN8@xmlReportE:
	mov	eax, DWORD PTR _err$[ebp]
	mov	ecx, DWORD PTR _i$1[ebp]
	cmp	ecx, DWORD PTR [eax+36]
	jge	SHORT $LN7@xmlReportE

; 423  : 	     buf[i] = ' ';

	mov	edx, DWORD PTR _i$1[ebp]
	mov	BYTE PTR _buf$2[ebp+edx], 32		; 00000020H
	jmp	SHORT $LN6@xmlReportE
$LN7@xmlReportE:

; 424  : 	buf[i++] = '^';

	mov	eax, DWORD PTR _i$1[ebp]
	mov	BYTE PTR _buf$2[ebp+eax], 94		; 0000005eH
	mov	ecx, DWORD PTR _i$1[ebp]
	add	ecx, 1
	mov	DWORD PTR _i$1[ebp], ecx

; 425  : 	buf[i] = 0;

	mov	edx, DWORD PTR _i$1[ebp]
	mov	BYTE PTR _buf$2[ebp+edx], 0

; 426  : 	channel(data, "%s\n", buf);

	mov	esi, esp
	lea	eax, DWORD PTR _buf$2[ebp]
	push	eax
	push	OFFSET ??_C@_03OFAPEBGM@?$CFs?6@
	mov	ecx, DWORD PTR _data$[ebp]
	push	ecx
	call	DWORD PTR _channel$[ebp]
	add	esp, 12					; 0000000cH
	cmp	esi, esp
	call	__RTC_CheckEsp
$LN1@xmlReportE:

; 427  :     }
; 428  : }

	push	edx
	mov	ecx, ebp
	push	eax
	lea	edx, DWORD PTR $LN66@xmlReportE
	call	@_RTC_CheckStackVars@8
	pop	eax
	pop	edx
	pop	edi
	pop	esi
	add	esp, 212				; 000000d4H
	cmp	ebp, esp
	call	__RTC_CheckEsp
	mov	esp, ebp
	pop	ebp
	ret	0
	npad	1
$LN66@xmlReportE:
	DD	1
	DD	$LN65@xmlReportE
$LN65@xmlReportE:
	DD	-196					; ffffff3cH
	DD	150					; 00000096H
	DD	$LN64@xmlReportE
$LN64@xmlReportE:
	DB	98					; 00000062H
	DB	117					; 00000075H
	DB	102					; 00000066H
	DB	0
$LN67@xmlReportE:
	DD	$LN25@xmlReportE
	DD	$LN2@xmlReportE
	DD	$LN26@xmlReportE
	DD	$LN27@xmlReportE
	DD	$LN28@xmlReportE
	DD	$LN29@xmlReportE
	DD	$LN30@xmlReportE
	DD	$LN31@xmlReportE
	DD	$LN2@xmlReportE
	DD	$LN2@xmlReportE
	DD	$LN32@xmlReportE
	DD	$LN33@xmlReportE
	DD	$LN34@xmlReportE
	DD	$LN35@xmlReportE
	DD	$LN2@xmlReportE
	DD	$LN38@xmlReportE
	DD	$LN37@xmlReportE
	DD	$LN39@xmlReportE
	DD	$LN40@xmlReportE
	DD	$LN41@xmlReportE
	DD	$LN42@xmlReportE
	DD	$LN43@xmlReportE
	DD	$LN27@xmlReportE
	DD	$LN2@xmlReportE
	DD	$LN2@xmlReportE
	DD	$LN36@xmlReportE
	DD	$LN44@xmlReportE
	DD	$LN45@xmlReportE
	DD	$LN46@xmlReportE
	DD	$LN47@xmlReportE
$LN68@xmlReportE:
	DD	$LN49@xmlReportE
	DD	$LN50@xmlReportE
	DD	$LN51@xmlReportE
	DD	$LN52@xmlReportE
_xmlReportError ENDP
_TEXT	ENDS
; Function compile flags: /Odtp /RTCsu
; File c:\users\dag\documents\_clients\codeproject authors group\windows on arm\libxml2\libxml2-2.9.9\error.c
;	COMDAT _xmlParserPrintFileContextInternal
_TEXT	SEGMENT
tv142 = -128						; size = 4
tv141 = -124						; size = 4
tv78 = -120						; size = 4
tv77 = -116						; size = 4
_ctnt$ = -112						; size = 4
_content$ = -104					; size = 81
_col$ = -16						; size = 4
_n$ = -12						; size = 4
_base$ = -8						; size = 4
_cur$ = -4						; size = 4
_input$ = 8						; size = 4
_channel$ = 12						; size = 4
_data$ = 16						; size = 4
_xmlParserPrintFileContextInternal PROC			; COMDAT

; 174  : 		xmlGenericErrorFunc channel, void *data ) {

	push	ebp
	mov	ebp, esp
	sub	esp, 128				; 00000080H
	push	esi
	push	edi
	lea	edi, DWORD PTR [ebp-128]
	mov	ecx, 32					; 00000020H
	mov	eax, -858993460				; ccccccccH
	rep stosd
	mov	ecx, OFFSET __67926DEE_error@c
	call	@__CheckForDebuggerJustMyCode@4

; 175  :     const xmlChar *cur, *base;
; 176  :     unsigned int n, col;	/* GCC warns if signed, because compared with sizeof() */
; 177  :     xmlChar  content[81]; /* space for 80 chars + line terminator */
; 178  :     xmlChar *ctnt;
; 179  : 
; 180  :     if ((input == NULL) || (input->cur == NULL))

	cmp	DWORD PTR _input$[ebp], 0
	je	SHORT $LN11@xmlParserP
	mov	eax, DWORD PTR _input$[ebp]
	cmp	DWORD PTR [eax+16], 0
	jne	SHORT $LN10@xmlParserP
$LN11@xmlParserP:

; 181  :         return;

	jmp	$LN1@xmlParserP
$LN10@xmlParserP:

; 182  : 
; 183  :     cur = input->cur;

	mov	ecx, DWORD PTR _input$[ebp]
	mov	edx, DWORD PTR [ecx+16]
	mov	DWORD PTR _cur$[ebp], edx

; 184  :     base = input->base;

	mov	eax, DWORD PTR _input$[ebp]
	mov	ecx, DWORD PTR [eax+12]
	mov	DWORD PTR _base$[ebp], ecx
$LN2@xmlParserP:

; 185  :     /* skip backwards over any end-of-lines */
; 186  :     while ((cur > base) && ((*(cur) == '\n') || (*(cur) == '\r'))) {

	mov	edx, DWORD PTR _cur$[ebp]
	cmp	edx, DWORD PTR _base$[ebp]
	jbe	SHORT $LN3@xmlParserP
	mov	eax, DWORD PTR _cur$[ebp]
	movzx	ecx, BYTE PTR [eax]
	cmp	ecx, 10					; 0000000aH
	je	SHORT $LN12@xmlParserP
	mov	edx, DWORD PTR _cur$[ebp]
	movzx	eax, BYTE PTR [edx]
	cmp	eax, 13					; 0000000dH
	jne	SHORT $LN3@xmlParserP
$LN12@xmlParserP:

; 187  : 	cur--;

	mov	ecx, DWORD PTR _cur$[ebp]
	sub	ecx, 1
	mov	DWORD PTR _cur$[ebp], ecx

; 188  :     }

	jmp	SHORT $LN2@xmlParserP
$LN3@xmlParserP:

; 189  :     n = 0;

	mov	DWORD PTR _n$[ebp], 0
$LN4@xmlParserP:

; 190  :     /* search backwards for beginning-of-line (to max buff size) */
; 191  :     while ((n++ < (sizeof(content)-1)) && (cur > base) &&
; 192  : 	   (*(cur) != '\n') && (*(cur) != '\r'))

	mov	edx, DWORD PTR _n$[ebp]
	mov	DWORD PTR tv77[ebp], edx
	mov	eax, DWORD PTR _n$[ebp]
	add	eax, 1
	mov	DWORD PTR _n$[ebp], eax
	cmp	DWORD PTR tv77[ebp], 80			; 00000050H
	jae	SHORT $LN17@xmlParserP
	mov	DWORD PTR tv78[ebp], 1
	jmp	SHORT $LN18@xmlParserP
$LN17@xmlParserP:
	mov	DWORD PTR tv78[ebp], 0
$LN18@xmlParserP:
	cmp	DWORD PTR tv78[ebp], 0
	je	SHORT $LN5@xmlParserP
	mov	ecx, DWORD PTR _cur$[ebp]
	cmp	ecx, DWORD PTR _base$[ebp]
	jbe	SHORT $LN5@xmlParserP
	mov	edx, DWORD PTR _cur$[ebp]
	movzx	eax, BYTE PTR [edx]
	cmp	eax, 10					; 0000000aH
	je	SHORT $LN5@xmlParserP
	mov	ecx, DWORD PTR _cur$[ebp]
	movzx	edx, BYTE PTR [ecx]
	cmp	edx, 13					; 0000000dH
	je	SHORT $LN5@xmlParserP

; 193  :         cur--;

	mov	eax, DWORD PTR _cur$[ebp]
	sub	eax, 1
	mov	DWORD PTR _cur$[ebp], eax
	jmp	SHORT $LN4@xmlParserP
$LN5@xmlParserP:

; 194  :     if ((*(cur) == '\n') || (*(cur) == '\r')) cur++;

	mov	ecx, DWORD PTR _cur$[ebp]
	movzx	edx, BYTE PTR [ecx]
	cmp	edx, 10					; 0000000aH
	je	SHORT $LN14@xmlParserP
	mov	eax, DWORD PTR _cur$[ebp]
	movzx	ecx, BYTE PTR [eax]
	cmp	ecx, 13					; 0000000dH
	jne	SHORT $LN13@xmlParserP
$LN14@xmlParserP:
	mov	edx, DWORD PTR _cur$[ebp]
	add	edx, 1
	mov	DWORD PTR _cur$[ebp], edx
$LN13@xmlParserP:

; 195  :     /* calculate the error position in terms of the current position */
; 196  :     col = input->cur - cur;

	mov	eax, DWORD PTR _input$[ebp]
	mov	ecx, DWORD PTR [eax+16]
	sub	ecx, DWORD PTR _cur$[ebp]
	mov	DWORD PTR _col$[ebp], ecx

; 197  :     /* search forward for end-of-line (to max buff size) */
; 198  :     n = 0;

	mov	DWORD PTR _n$[ebp], 0

; 199  :     ctnt = content;

	lea	edx, DWORD PTR _content$[ebp]
	mov	DWORD PTR _ctnt$[ebp], edx
$LN6@xmlParserP:

; 200  :     /* copy selected text to our buffer */
; 201  :     while ((*cur != 0) && (*(cur) != '\n') &&
; 202  : 	   (*(cur) != '\r') && (n < sizeof(content)-1)) {

	mov	eax, DWORD PTR _cur$[ebp]
	movzx	ecx, BYTE PTR [eax]
	test	ecx, ecx
	je	SHORT $LN7@xmlParserP
	mov	edx, DWORD PTR _cur$[ebp]
	movzx	eax, BYTE PTR [edx]
	cmp	eax, 10					; 0000000aH
	je	SHORT $LN7@xmlParserP
	mov	ecx, DWORD PTR _cur$[ebp]
	movzx	edx, BYTE PTR [ecx]
	cmp	edx, 13					; 0000000dH
	je	SHORT $LN7@xmlParserP
	cmp	DWORD PTR _n$[ebp], 80			; 00000050H
	jae	SHORT $LN7@xmlParserP

; 203  : 		*ctnt++ = *cur++;

	mov	eax, DWORD PTR _ctnt$[ebp]
	mov	ecx, DWORD PTR _cur$[ebp]
	mov	dl, BYTE PTR [ecx]
	mov	BYTE PTR [eax], dl
	mov	eax, DWORD PTR _ctnt$[ebp]
	add	eax, 1
	mov	DWORD PTR _ctnt$[ebp], eax
	mov	ecx, DWORD PTR _cur$[ebp]
	add	ecx, 1
	mov	DWORD PTR _cur$[ebp], ecx

; 204  : 	n++;

	mov	edx, DWORD PTR _n$[ebp]
	add	edx, 1
	mov	DWORD PTR _n$[ebp], edx

; 205  :     }

	jmp	SHORT $LN6@xmlParserP
$LN7@xmlParserP:

; 206  :     *ctnt = 0;

	mov	eax, DWORD PTR _ctnt$[ebp]
	mov	BYTE PTR [eax], 0

; 207  :     /* print out the selected text */
; 208  :     channel(data ,"%s\n", content);

	mov	esi, esp
	lea	ecx, DWORD PTR _content$[ebp]
	push	ecx
	push	OFFSET ??_C@_03OFAPEBGM@?$CFs?6@
	mov	edx, DWORD PTR _data$[ebp]
	push	edx
	call	DWORD PTR _channel$[ebp]
	add	esp, 12					; 0000000cH
	cmp	esi, esp
	call	__RTC_CheckEsp

; 209  :     /* create blank line with problem pointer */
; 210  :     n = 0;

	mov	DWORD PTR _n$[ebp], 0

; 211  :     ctnt = content;

	lea	eax, DWORD PTR _content$[ebp]
	mov	DWORD PTR _ctnt$[ebp], eax
$LN8@xmlParserP:

; 212  :     /* (leave buffer space for pointer + line terminator) */
; 213  :     while ((n<col) && (n++ < sizeof(content)-2) && (*ctnt != 0)) {

	mov	ecx, DWORD PTR _n$[ebp]
	cmp	ecx, DWORD PTR _col$[ebp]
	jae	SHORT $LN9@xmlParserP
	mov	edx, DWORD PTR _n$[ebp]
	mov	DWORD PTR tv141[ebp], edx
	mov	eax, DWORD PTR _n$[ebp]
	add	eax, 1
	mov	DWORD PTR _n$[ebp], eax
	cmp	DWORD PTR tv141[ebp], 79		; 0000004fH
	jae	SHORT $LN19@xmlParserP
	mov	DWORD PTR tv142[ebp], 1
	jmp	SHORT $LN20@xmlParserP
$LN19@xmlParserP:
	mov	DWORD PTR tv142[ebp], 0
$LN20@xmlParserP:
	cmp	DWORD PTR tv142[ebp], 0
	je	SHORT $LN9@xmlParserP
	mov	ecx, DWORD PTR _ctnt$[ebp]
	movzx	edx, BYTE PTR [ecx]
	test	edx, edx
	je	SHORT $LN9@xmlParserP

; 214  : 	if (*(ctnt) != '\t')

	mov	eax, DWORD PTR _ctnt$[ebp]
	movzx	ecx, BYTE PTR [eax]
	cmp	ecx, 9
	je	SHORT $LN15@xmlParserP

; 215  : 	    *(ctnt) = ' ';

	mov	edx, DWORD PTR _ctnt$[ebp]
	mov	BYTE PTR [edx], 32			; 00000020H
$LN15@xmlParserP:

; 216  : 	ctnt++;

	mov	eax, DWORD PTR _ctnt$[ebp]
	add	eax, 1
	mov	DWORD PTR _ctnt$[ebp], eax

; 217  :     }

	jmp	SHORT $LN8@xmlParserP
$LN9@xmlParserP:

; 218  :     *ctnt++ = '^';

	mov	ecx, DWORD PTR _ctnt$[ebp]
	mov	BYTE PTR [ecx], 94			; 0000005eH
	mov	edx, DWORD PTR _ctnt$[ebp]
	add	edx, 1
	mov	DWORD PTR _ctnt$[ebp], edx

; 219  :     *ctnt = 0;

	mov	eax, DWORD PTR _ctnt$[ebp]
	mov	BYTE PTR [eax], 0

; 220  :     channel(data ,"%s\n", content);

	mov	esi, esp
	lea	ecx, DWORD PTR _content$[ebp]
	push	ecx
	push	OFFSET ??_C@_03OFAPEBGM@?$CFs?6@
	mov	edx, DWORD PTR _data$[ebp]
	push	edx
	call	DWORD PTR _channel$[ebp]
	add	esp, 12					; 0000000cH
	cmp	esi, esp
	call	__RTC_CheckEsp
$LN1@xmlParserP:

; 221  : }

	push	edx
	mov	ecx, ebp
	push	eax
	lea	edx, DWORD PTR $LN23@xmlParserP
	call	@_RTC_CheckStackVars@8
	pop	eax
	pop	edx
	pop	edi
	pop	esi
	add	esp, 128				; 00000080H
	cmp	ebp, esp
	call	__RTC_CheckEsp
	mov	esp, ebp
	pop	ebp
	ret	0
$LN23@xmlParserP:
	DD	1
	DD	$LN22@xmlParserP
$LN22@xmlParserP:
	DD	-104					; ffffff98H
	DD	81					; 00000051H
	DD	$LN21@xmlParserP
$LN21@xmlParserP:
	DB	99					; 00000063H
	DB	111					; 0000006fH
	DB	110					; 0000006eH
	DB	116					; 00000074H
	DB	101					; 00000065H
	DB	110					; 0000006eH
	DB	116					; 00000074H
	DB	0
_xmlParserPrintFileContextInternal ENDP
_TEXT	ENDS
; Function compile flags: /Odtp /RTCsu
; File c:\users\dag\documents\_clients\codeproject authors group\windows on arm\libxml2\libxml2-2.9.9\error.c
; File c:\program files (x86)\windows kits\10\include\10.0.17763.0\ucrt\stdio.h
; File c:\users\dag\documents\_clients\codeproject authors group\windows on arm\libxml2\libxml2-2.9.9\error.c
;	COMDAT _xmlGenericErrorDefaultFunc
_TEXT	SEGMENT
__Format$ = -12						; size = 4
__Stream$ = -8						; size = 4
_args$ = -4						; size = 4
_ctx$ = 8						; size = 4
_msg$ = 12						; size = 4
_xmlGenericErrorDefaultFunc PROC			; COMDAT

; 71   : xmlGenericErrorDefaultFunc(void *ctx ATTRIBUTE_UNUSED, const char *msg, ...) {

	push	ebp
	mov	ebp, esp
	sub	esp, 12					; 0000000cH
	push	esi
	mov	DWORD PTR [ebp-12], -858993460		; ccccccccH
	mov	DWORD PTR [ebp-8], -858993460		; ccccccccH
	mov	DWORD PTR [ebp-4], -858993460		; ccccccccH
	mov	ecx, OFFSET __67926DEE_error@c
	call	@__CheckForDebuggerJustMyCode@4

; 72   :     va_list args;
; 73   : 
; 74   :     if (xmlGenericErrorContext == NULL)

	call	___xmlGenericErrorContext
	cmp	DWORD PTR [eax], 0
	jne	SHORT $LN2@xmlGeneric

; 75   : 	xmlGenericErrorContext = (void *) stderr;

	mov	esi, esp
	push	2
	call	DWORD PTR __imp____acrt_iob_func
	add	esp, 4
	cmp	esi, esp
	call	__RTC_CheckEsp
	mov	esi, eax
	call	___xmlGenericErrorContext
	mov	DWORD PTR [eax], esi
$LN2@xmlGeneric:

; 76   : 
; 77   :     va_start(args, msg);

	lea	eax, DWORD PTR _msg$[ebp+4]
	mov	DWORD PTR _args$[ebp], eax

; 78   :     vfprintf((FILE *)xmlGenericErrorContext, msg, args);

	mov	ecx, DWORD PTR _msg$[ebp]
	mov	DWORD PTR __Format$[ebp], ecx
	call	___xmlGenericErrorContext
	mov	edx, DWORD PTR [eax]
	mov	DWORD PTR __Stream$[ebp], edx
; File c:\program files (x86)\windows kits\10\include\10.0.17763.0\ucrt\stdio.h

; 643  :         return __stdio_common_vfprintf(_CRT_INTERNAL_LOCAL_PRINTF_OPTIONS, _Stream, _Format, _Locale, _ArgList);

	mov	esi, esp
	mov	eax, DWORD PTR _args$[ebp]
	push	eax
	push	0
	mov	ecx, DWORD PTR __Format$[ebp]
	push	ecx
	mov	edx, DWORD PTR __Stream$[ebp]
	push	edx
	call	___local_stdio_printf_options
	mov	ecx, DWORD PTR [eax+4]
	push	ecx
	mov	edx, DWORD PTR [eax]
	push	edx
	call	DWORD PTR __imp____stdio_common_vfprintf
	add	esp, 24					; 00000018H
	cmp	esi, esp
	call	__RTC_CheckEsp
; File c:\users\dag\documents\_clients\codeproject authors group\windows on arm\libxml2\libxml2-2.9.9\error.c

; 79   :     va_end(args);

	mov	DWORD PTR _args$[ebp], 0

; 80   : }

	pop	esi
	add	esp, 12					; 0000000cH
	cmp	ebp, esp
	call	__RTC_CheckEsp
	mov	esp, ebp
	pop	ebp
	ret	0
_xmlGenericErrorDefaultFunc ENDP
_TEXT	ENDS
; Function compile flags: /Odtp /RTCsu
; File c:\users\dag\documents\_clients\codeproject authors group\windows on arm\libxml2\libxml2-2.9.9\error.c
;	COMDAT ___xmlSimpleError
_TEXT	SEGMENT
_domain$ = 8						; size = 4
_code$ = 12						; size = 4
_node$ = 16						; size = 4
_msg$ = 20						; size = 4
_extra$ = 24						; size = 4
___xmlSimpleError PROC					; COMDAT

; 653  : {

	push	ebp
	mov	ebp, esp
	mov	ecx, OFFSET __67926DEE_error@c
	call	@__CheckForDebuggerJustMyCode@4

; 654  : 
; 655  :     if (code == XML_ERR_NO_MEMORY) {

	cmp	DWORD PTR _code$[ebp], 2
	jne	SHORT $LN2@xmlSimpleE

; 656  : 	if (extra)

	cmp	DWORD PTR _extra$[ebp], 0
	je	SHORT $LN4@xmlSimpleE

; 657  : 	    __xmlRaiseError(NULL, NULL, NULL, NULL, node, domain,

	mov	eax, DWORD PTR _extra$[ebp]
	push	eax
	push	OFFSET ??_C@_0BP@DJFHNAOK@Memory?5allocation?5failed?5?3?5?$CFs?6@
	push	0
	push	0
	push	0
	push	0
	mov	ecx, DWORD PTR _extra$[ebp]
	push	ecx
	push	0
	push	0
	push	3
	push	2
	mov	edx, DWORD PTR _domain$[ebp]
	push	edx
	mov	eax, DWORD PTR _node$[ebp]
	push	eax
	push	0
	push	0
	push	0
	push	0
	call	___xmlRaiseError
	add	esp, 68					; 00000044H
	jmp	SHORT $LN5@xmlSimpleE
$LN4@xmlSimpleE:

; 658  : 			    XML_ERR_NO_MEMORY, XML_ERR_FATAL, NULL, 0, extra,
; 659  : 			    NULL, NULL, 0, 0,
; 660  : 			    "Memory allocation failed : %s\n", extra);
; 661  : 	else
; 662  : 	    __xmlRaiseError(NULL, NULL, NULL, NULL, node, domain,

	push	OFFSET ??_C@_0BK@GDFDKGPJ@Memory?5allocation?5failed?6@
	push	0
	push	0
	push	0
	push	0
	push	0
	push	0
	push	0
	push	3
	push	2
	mov	ecx, DWORD PTR _domain$[ebp]
	push	ecx
	mov	edx, DWORD PTR _node$[ebp]
	push	edx
	push	0
	push	0
	push	0
	push	0
	call	___xmlRaiseError
	add	esp, 64					; 00000040H
$LN5@xmlSimpleE:

; 663  : 			    XML_ERR_NO_MEMORY, XML_ERR_FATAL, NULL, 0, NULL,
; 664  : 			    NULL, NULL, 0, 0, "Memory allocation failed\n");
; 665  :     } else {

	jmp	SHORT $LN1@xmlSimpleE
$LN2@xmlSimpleE:

; 666  : 	__xmlRaiseError(NULL, NULL, NULL, NULL, node, domain,

	mov	eax, DWORD PTR _extra$[ebp]
	push	eax
	mov	ecx, DWORD PTR _msg$[ebp]
	push	ecx
	push	0
	push	0
	push	0
	push	0
	mov	edx, DWORD PTR _extra$[ebp]
	push	edx
	push	0
	push	0
	push	2
	mov	eax, DWORD PTR _code$[ebp]
	push	eax
	mov	ecx, DWORD PTR _domain$[ebp]
	push	ecx
	mov	edx, DWORD PTR _node$[ebp]
	push	edx
	push	0
	push	0
	push	0
	push	0
	call	___xmlRaiseError
	add	esp, 68					; 00000044H
$LN1@xmlSimpleE:

; 667  : 			code, XML_ERR_ERROR, NULL, 0, extra,
; 668  : 			NULL, NULL, 0, 0, msg, extra);
; 669  :     }
; 670  : }

	cmp	ebp, esp
	call	__RTC_CheckEsp
	pop	ebp
	ret	0
___xmlSimpleError ENDP
_TEXT	ENDS
; Function compile flags: /Odtp /RTCsu
; File c:\users\dag\documents\_clients\codeproject authors group\windows on arm\libxml2\libxml2-2.9.9\error.c
; File c:\program files (x86)\windows kits\10\include\10.0.17763.0\ucrt\stdio.h
; File c:\users\dag\documents\_clients\codeproject authors group\windows on arm\libxml2\libxml2-2.9.9\error.c
;	COMDAT ___xmlRaiseError
_TEXT	SEGMENT
tv317 = -68						; size = 4
__Result$1 = -64					; size = 4
__Format$ = -60						; size = 4
_inclcount$2 = -56					; size = 4
_prev$3 = -52						; size = 4
_i$4 = -48						; size = 4
_ap$5 = -44						; size = 4
_larger$6 = -40						; size = 4
_chars$7 = -36						; size = 4
_prev_size$8 = -32					; size = 4
_size$9 = -28						; size = 4
_baseptr$ = -24						; size = 4
_to$ = -20						; size = 4
_input$ = -16						; size = 4
_str$ = -12						; size = 4
_node$ = -8						; size = 4
_ctxt$ = -4						; size = 4
_schannel$ = 8						; size = 4
_channel$ = 12						; size = 4
_data$ = 16						; size = 4
_ctx$ = 20						; size = 4
_nod$ = 24						; size = 4
_domain$ = 28						; size = 4
_code$ = 32						; size = 4
_level$ = 36						; size = 4
_file$ = 40						; size = 4
_line$ = 44						; size = 4
_str1$ = 48						; size = 4
_str2$ = 52						; size = 4
_str3$ = 56						; size = 4
_int1$ = 60						; size = 4
_col$ = 64						; size = 4
_msg$ = 68						; size = 4
___xmlRaiseError PROC					; COMDAT

; 461  : {

	push	ebp
	mov	ebp, esp
	sub	esp, 68					; 00000044H
	push	esi
	push	edi
	lea	edi, DWORD PTR [ebp-68]
	mov	ecx, 17					; 00000011H
	mov	eax, -858993460				; ccccccccH
	rep stosd
	mov	ecx, OFFSET __67926DEE_error@c
	call	@__CheckForDebuggerJustMyCode@4

; 462  :     xmlParserCtxtPtr ctxt = NULL;

	mov	DWORD PTR _ctxt$[ebp], 0

; 463  :     xmlNodePtr node = (xmlNodePtr) nod;

	mov	eax, DWORD PTR _nod$[ebp]
	mov	DWORD PTR _node$[ebp], eax

; 464  :     char *str = NULL;

	mov	DWORD PTR _str$[ebp], 0

; 465  :     xmlParserInputPtr input = NULL;

	mov	DWORD PTR _input$[ebp], 0

; 466  :     xmlErrorPtr to = &xmlLastError;

	call	___xmlLastError
	mov	DWORD PTR _to$[ebp], eax

; 467  :     xmlNodePtr baseptr = NULL;

	mov	DWORD PTR _baseptr$[ebp], 0

; 468  : 
; 469  :     if (code == XML_ERR_OK)

	cmp	DWORD PTR _code$[ebp], 0
	jne	SHORT $LN9@xmlRaiseEr

; 470  :         return;

	jmp	$LN1@xmlRaiseEr
$LN9@xmlRaiseEr:

; 471  :     if ((xmlGetWarningsDefaultValue == 0) && (level == XML_ERR_WARNING))

	call	___xmlGetWarningsDefaultValue
	cmp	DWORD PTR [eax], 0
	jne	SHORT $LN10@xmlRaiseEr
	cmp	DWORD PTR _level$[ebp], 1
	jne	SHORT $LN10@xmlRaiseEr

; 472  :         return;

	jmp	$LN1@xmlRaiseEr
$LN10@xmlRaiseEr:

; 473  :     if ((domain == XML_FROM_PARSER) || (domain == XML_FROM_HTML) ||
; 474  :         (domain == XML_FROM_DTD) || (domain == XML_FROM_NAMESPACE) ||
; 475  : 	(domain == XML_FROM_IO) || (domain == XML_FROM_VALID)) {

	cmp	DWORD PTR _domain$[ebp], 1
	je	SHORT $LN12@xmlRaiseEr
	cmp	DWORD PTR _domain$[ebp], 5
	je	SHORT $LN12@xmlRaiseEr
	cmp	DWORD PTR _domain$[ebp], 4
	je	SHORT $LN12@xmlRaiseEr
	cmp	DWORD PTR _domain$[ebp], 3
	je	SHORT $LN12@xmlRaiseEr
	cmp	DWORD PTR _domain$[ebp], 8
	je	SHORT $LN12@xmlRaiseEr
	cmp	DWORD PTR _domain$[ebp], 23		; 00000017H
	jne	SHORT $LN11@xmlRaiseEr
$LN12@xmlRaiseEr:

; 476  : 	ctxt = (xmlParserCtxtPtr) ctx;

	mov	ecx, DWORD PTR _ctx$[ebp]
	mov	DWORD PTR _ctxt$[ebp], ecx

; 477  : 	if ((schannel == NULL) && (ctxt != NULL) && (ctxt->sax != NULL) &&
; 478  : 	    (ctxt->sax->initialized == XML_SAX2_MAGIC) &&

	cmp	DWORD PTR _schannel$[ebp], 0
	jne	SHORT $LN11@xmlRaiseEr
	cmp	DWORD PTR _ctxt$[ebp], 0
	je	SHORT $LN11@xmlRaiseEr
	mov	edx, DWORD PTR _ctxt$[ebp]
	cmp	DWORD PTR [edx], 0
	je	SHORT $LN11@xmlRaiseEr
	mov	eax, DWORD PTR _ctxt$[ebp]
	mov	ecx, DWORD PTR [eax]
	cmp	DWORD PTR [ecx+108], -554844497		; deedbeafH
	jne	SHORT $LN11@xmlRaiseEr
	mov	edx, DWORD PTR _ctxt$[ebp]
	mov	eax, DWORD PTR [edx]
	cmp	DWORD PTR [eax+124], 0
	je	SHORT $LN11@xmlRaiseEr

; 479  : 	    (ctxt->sax->serror != NULL)) {
; 480  : 	    schannel = ctxt->sax->serror;

	mov	ecx, DWORD PTR _ctxt$[ebp]
	mov	edx, DWORD PTR [ecx]
	mov	eax, DWORD PTR [edx+124]
	mov	DWORD PTR _schannel$[ebp], eax

; 481  : 	    data = ctxt->userData;

	mov	ecx, DWORD PTR _ctxt$[ebp]
	mov	edx, DWORD PTR [ecx+4]
	mov	DWORD PTR _data$[ebp], edx
$LN11@xmlRaiseEr:

; 482  : 	}
; 483  :     }
; 484  :     /*
; 485  :      * Check if structured error handler set
; 486  :      */
; 487  :     if (schannel == NULL) {

	cmp	DWORD PTR _schannel$[ebp], 0
	jne	SHORT $LN14@xmlRaiseEr

; 488  : 	schannel = xmlStructuredError;

	call	___xmlStructuredError
	mov	eax, DWORD PTR [eax]
	mov	DWORD PTR _schannel$[ebp], eax

; 489  : 	/*
; 490  : 	 * if user has defined handler, change data ptr to user's choice
; 491  : 	 */
; 492  : 	if (schannel != NULL)

	cmp	DWORD PTR _schannel$[ebp], 0
	je	SHORT $LN14@xmlRaiseEr

; 493  : 	    data = xmlStructuredErrorContext;

	call	___xmlStructuredErrorContext
	mov	ecx, DWORD PTR [eax]
	mov	DWORD PTR _data$[ebp], ecx
$LN14@xmlRaiseEr:

; 494  :     }
; 495  :     /*
; 496  :      * Formatting the message
; 497  :      */
; 498  :     if (msg == NULL) {

	cmp	DWORD PTR _msg$[ebp], 0
	jne	SHORT $LN16@xmlRaiseEr

; 499  :         str = (char *) xmlStrdup(BAD_CAST "No error message provided");

	push	OFFSET ??_C@_0BK@ONMNHCCC@No?5error?5message?5provided@
	call	_xmlStrdup
	add	esp, 4
	mov	DWORD PTR _str$[ebp], eax

; 500  :     } else {

	jmp	$LN17@xmlRaiseEr
$LN16@xmlRaiseEr:

; 501  :         XML_GET_VAR_STR(msg, str);

	mov	DWORD PTR _prev_size$8[ebp], -1
	mov	esi, esp
	push	150					; 00000096H
	call	DWORD PTR _xmlMalloc
	add	esp, 4
	cmp	esi, esp
	call	__RTC_CheckEsp
	mov	DWORD PTR _str$[ebp], eax
	cmp	DWORD PTR _str$[ebp], 0
	je	$LN17@xmlRaiseEr
	mov	DWORD PTR _size$9[ebp], 150		; 00000096H
$LN2@xmlRaiseEr:
	cmp	DWORD PTR _size$9[ebp], 64000		; 0000fa00H
	jge	$LN17@xmlRaiseEr
	lea	edx, DWORD PTR _msg$[ebp+4]
	mov	DWORD PTR _ap$5[ebp], edx
	mov	eax, DWORD PTR _msg$[ebp]
	mov	DWORD PTR __Format$[ebp], eax
; File c:\program files (x86)\windows kits\10\include\10.0.17763.0\ucrt\stdio.h

; 1440 :         int const _Result = __stdio_common_vsprintf(

	mov	esi, esp
	mov	ecx, DWORD PTR _ap$5[ebp]
	push	ecx
	push	0
	mov	edx, DWORD PTR __Format$[ebp]
	push	edx
	mov	eax, DWORD PTR _size$9[ebp]
	push	eax
	mov	ecx, DWORD PTR _str$[ebp]
	push	ecx
	call	___local_stdio_printf_options
	mov	edx, DWORD PTR [eax]
	or	edx, 2
	mov	eax, DWORD PTR [eax+4]
	push	eax
	push	edx
	call	DWORD PTR __imp____stdio_common_vsprintf
	add	esp, 28					; 0000001cH
	cmp	esi, esp
	call	__RTC_CheckEsp
	mov	DWORD PTR __Result$1[ebp], eax

; 1441 :             _CRT_INTERNAL_LOCAL_PRINTF_OPTIONS | _CRT_INTERNAL_PRINTF_STANDARD_SNPRINTF_BEHAVIOR,
; 1442 :             _Buffer, _BufferCount, _Format, NULL, _ArgList);
; 1443 : 
; 1444 :         return _Result < 0 ? -1 : _Result;

	cmp	DWORD PTR __Result$1[ebp], 0
	jge	SHORT $LN72@xmlRaiseEr
	mov	DWORD PTR tv317[ebp], -1
	jmp	SHORT $LN70@xmlRaiseEr
$LN72@xmlRaiseEr:
	mov	ecx, DWORD PTR __Result$1[ebp]
	mov	DWORD PTR tv317[ebp], ecx
$LN70@xmlRaiseEr:
; File c:\users\dag\documents\_clients\codeproject authors group\windows on arm\libxml2\libxml2-2.9.9\error.c

; 501  :         XML_GET_VAR_STR(msg, str);

	mov	edx, DWORD PTR tv317[ebp]
	mov	DWORD PTR _chars$7[ebp], edx
	mov	DWORD PTR _ap$5[ebp], 0
	cmp	DWORD PTR _chars$7[ebp], -1
	jle	SHORT $LN19@xmlRaiseEr
	mov	eax, DWORD PTR _chars$7[ebp]
	cmp	eax, DWORD PTR _size$9[ebp]
	jge	SHORT $LN19@xmlRaiseEr
	mov	ecx, DWORD PTR _prev_size$8[ebp]
	cmp	ecx, DWORD PTR _chars$7[ebp]
	jne	SHORT $LN20@xmlRaiseEr
	jmp	SHORT $LN17@xmlRaiseEr
	jmp	SHORT $LN19@xmlRaiseEr
$LN20@xmlRaiseEr:
	mov	edx, DWORD PTR _chars$7[ebp]
	mov	DWORD PTR _prev_size$8[ebp], edx
$LN19@xmlRaiseEr:
	cmp	DWORD PTR _chars$7[ebp], -1
	jle	SHORT $LN22@xmlRaiseEr
	mov	eax, DWORD PTR _chars$7[ebp]
	mov	ecx, DWORD PTR _size$9[ebp]
	lea	edx, DWORD PTR [ecx+eax+1]
	mov	DWORD PTR _size$9[ebp], edx
	jmp	SHORT $LN23@xmlRaiseEr
$LN22@xmlRaiseEr:
	mov	eax, DWORD PTR _size$9[ebp]
	add	eax, 100				; 00000064H
	mov	DWORD PTR _size$9[ebp], eax
$LN23@xmlRaiseEr:
	mov	esi, esp
	mov	ecx, DWORD PTR _size$9[ebp]
	push	ecx
	mov	edx, DWORD PTR _str$[ebp]
	push	edx
	call	DWORD PTR _xmlRealloc
	add	esp, 8
	cmp	esi, esp
	call	__RTC_CheckEsp
	mov	DWORD PTR _larger$6[ebp], eax
	cmp	DWORD PTR _larger$6[ebp], 0
	jne	SHORT $LN24@xmlRaiseEr
	jmp	SHORT $LN17@xmlRaiseEr
$LN24@xmlRaiseEr:
	mov	eax, DWORD PTR _larger$6[ebp]
	mov	DWORD PTR _str$[ebp], eax
	jmp	$LN2@xmlRaiseEr
$LN17@xmlRaiseEr:

; 502  :     }
; 503  : 
; 504  :     /*
; 505  :      * specific processing if a parser context is provided
; 506  :      */
; 507  :     if (ctxt != NULL) {

	cmp	DWORD PTR _ctxt$[ebp], 0
	je	SHORT $LN25@xmlRaiseEr

; 508  :         if (file == NULL) {

	cmp	DWORD PTR _file$[ebp], 0
	jne	SHORT $LN27@xmlRaiseEr

; 509  :             input = ctxt->input;

	mov	ecx, DWORD PTR _ctxt$[ebp]
	mov	edx, DWORD PTR [ecx+36]
	mov	DWORD PTR _input$[ebp], edx

; 510  :             if ((input != NULL) && (input->filename == NULL) &&

	cmp	DWORD PTR _input$[ebp], 0
	je	SHORT $LN28@xmlRaiseEr
	mov	eax, DWORD PTR _input$[ebp]
	cmp	DWORD PTR [eax+4], 0
	jne	SHORT $LN28@xmlRaiseEr
	mov	ecx, DWORD PTR _ctxt$[ebp]
	cmp	DWORD PTR [ecx+40], 1
	jle	SHORT $LN28@xmlRaiseEr

; 511  :                 (ctxt->inputNr > 1)) {
; 512  :                 input = ctxt->inputTab[ctxt->inputNr - 2];

	mov	edx, DWORD PTR _ctxt$[ebp]
	mov	eax, DWORD PTR [edx+40]
	mov	ecx, DWORD PTR _ctxt$[ebp]
	mov	edx, DWORD PTR [ecx+48]
	mov	eax, DWORD PTR [edx+eax*4-8]
	mov	DWORD PTR _input$[ebp], eax
$LN28@xmlRaiseEr:

; 513  :             }
; 514  :             if (input != NULL) {

	cmp	DWORD PTR _input$[ebp], 0
	je	SHORT $LN27@xmlRaiseEr

; 515  :                 file = input->filename;

	mov	ecx, DWORD PTR _input$[ebp]
	mov	edx, DWORD PTR [ecx+4]
	mov	DWORD PTR _file$[ebp], edx

; 516  :                 line = input->line;

	mov	eax, DWORD PTR _input$[ebp]
	mov	ecx, DWORD PTR [eax+28]
	mov	DWORD PTR _line$[ebp], ecx

; 517  :                 col = input->col;

	mov	edx, DWORD PTR _input$[ebp]
	mov	eax, DWORD PTR [edx+32]
	mov	DWORD PTR _col$[ebp], eax
$LN27@xmlRaiseEr:

; 518  :             }
; 519  :         }
; 520  :         to = &ctxt->lastError;

	mov	ecx, DWORD PTR _ctxt$[ebp]
	add	ecx, 384				; 00000180H
	mov	DWORD PTR _to$[ebp], ecx
	jmp	$LN26@xmlRaiseEr
$LN25@xmlRaiseEr:

; 521  :     } else if ((node != NULL) && (file == NULL)) {

	cmp	DWORD PTR _node$[ebp], 0
	je	$LN26@xmlRaiseEr
	cmp	DWORD PTR _file$[ebp], 0
	jne	$LN26@xmlRaiseEr

; 522  : 	int i;
; 523  : 
; 524  : 	if ((node->doc != NULL) && (node->doc->URL != NULL)) {

	mov	edx, DWORD PTR _node$[ebp]
	cmp	DWORD PTR [edx+32], 0
	je	SHORT $LN31@xmlRaiseEr
	mov	eax, DWORD PTR _node$[ebp]
	mov	ecx, DWORD PTR [eax+32]
	cmp	DWORD PTR [ecx+72], 0
	je	SHORT $LN31@xmlRaiseEr

; 525  : 	    baseptr = node;

	mov	edx, DWORD PTR _node$[ebp]
	mov	DWORD PTR _baseptr$[ebp], edx
$LN31@xmlRaiseEr:

; 526  : /*	    file = (const char *) node->doc->URL; */
; 527  : 	}
; 528  : 	for (i = 0;

	mov	DWORD PTR _i$4[ebp], 0
	jmp	SHORT $LN6@xmlRaiseEr
$LN4@xmlRaiseEr:

; 530  : 	     i++)

	mov	eax, DWORD PTR _i$4[ebp]
	add	eax, 1
	mov	DWORD PTR _i$4[ebp], eax
$LN6@xmlRaiseEr:

; 529  : 	     ((i < 10) && (node != NULL) && (node->type != XML_ELEMENT_NODE));

	cmp	DWORD PTR _i$4[ebp], 10			; 0000000aH
	jge	SHORT $LN5@xmlRaiseEr
	cmp	DWORD PTR _node$[ebp], 0
	je	SHORT $LN5@xmlRaiseEr
	mov	ecx, DWORD PTR _node$[ebp]
	cmp	DWORD PTR [ecx+4], 1
	je	SHORT $LN5@xmlRaiseEr

; 531  : 	     node = node->parent;

	mov	edx, DWORD PTR _node$[ebp]
	mov	eax, DWORD PTR [edx+20]
	mov	DWORD PTR _node$[ebp], eax
	jmp	SHORT $LN4@xmlRaiseEr
$LN5@xmlRaiseEr:

; 532  :         if ((baseptr == NULL) && (node != NULL) &&
; 533  : 	    (node->doc != NULL) && (node->doc->URL != NULL))

	cmp	DWORD PTR _baseptr$[ebp], 0
	jne	SHORT $LN32@xmlRaiseEr
	cmp	DWORD PTR _node$[ebp], 0
	je	SHORT $LN32@xmlRaiseEr
	mov	ecx, DWORD PTR _node$[ebp]
	cmp	DWORD PTR [ecx+32], 0
	je	SHORT $LN32@xmlRaiseEr
	mov	edx, DWORD PTR _node$[ebp]
	mov	eax, DWORD PTR [edx+32]
	cmp	DWORD PTR [eax+72], 0
	je	SHORT $LN32@xmlRaiseEr

; 534  : 	    baseptr = node;

	mov	ecx, DWORD PTR _node$[ebp]
	mov	DWORD PTR _baseptr$[ebp], ecx
$LN32@xmlRaiseEr:

; 535  : 
; 536  : 	if ((node != NULL) && (node->type == XML_ELEMENT_NODE))

	cmp	DWORD PTR _node$[ebp], 0
	je	SHORT $LN33@xmlRaiseEr
	mov	edx, DWORD PTR _node$[ebp]
	cmp	DWORD PTR [edx+4], 1
	jne	SHORT $LN33@xmlRaiseEr

; 537  : 	    line = node->line;

	mov	eax, DWORD PTR _node$[ebp]
	movzx	ecx, WORD PTR [eax+56]
	mov	DWORD PTR _line$[ebp], ecx
$LN33@xmlRaiseEr:

; 538  : 	if ((line == 0) || (line == 65535))

	cmp	DWORD PTR _line$[ebp], 0
	je	SHORT $LN35@xmlRaiseEr
	cmp	DWORD PTR _line$[ebp], 65535		; 0000ffffH
	jne	SHORT $LN26@xmlRaiseEr
$LN35@xmlRaiseEr:

; 539  : 	    line = xmlGetLineNo(node);

	mov	edx, DWORD PTR _node$[ebp]
	push	edx
	call	_xmlGetLineNo
	add	esp, 4
	mov	DWORD PTR _line$[ebp], eax
$LN26@xmlRaiseEr:

; 540  :     }
; 541  : 
; 542  :     /*
; 543  :      * Save the information about the error
; 544  :      */
; 545  :     xmlResetError(to);

	mov	eax, DWORD PTR _to$[ebp]
	push	eax
	call	_xmlResetError
	add	esp, 4

; 546  :     to->domain = domain;

	mov	ecx, DWORD PTR _to$[ebp]
	mov	edx, DWORD PTR _domain$[ebp]
	mov	DWORD PTR [ecx], edx

; 547  :     to->code = code;

	mov	eax, DWORD PTR _to$[ebp]
	mov	ecx, DWORD PTR _code$[ebp]
	mov	DWORD PTR [eax+4], ecx

; 548  :     to->message = str;

	mov	edx, DWORD PTR _to$[ebp]
	mov	eax, DWORD PTR _str$[ebp]
	mov	DWORD PTR [edx+8], eax

; 549  :     to->level = level;

	mov	ecx, DWORD PTR _to$[ebp]
	mov	edx, DWORD PTR _level$[ebp]
	mov	DWORD PTR [ecx+12], edx

; 550  :     if (file != NULL)

	cmp	DWORD PTR _file$[ebp], 0
	je	SHORT $LN36@xmlRaiseEr

; 551  :         to->file = (char *) xmlStrdup((const xmlChar *) file);

	mov	eax, DWORD PTR _file$[ebp]
	push	eax
	call	_xmlStrdup
	add	esp, 4
	mov	ecx, DWORD PTR _to$[ebp]
	mov	DWORD PTR [ecx+16], eax
	jmp	$LN37@xmlRaiseEr
$LN36@xmlRaiseEr:

; 552  :     else if (baseptr != NULL) {

	cmp	DWORD PTR _baseptr$[ebp], 0
	je	$LN37@xmlRaiseEr

; 553  : #ifdef LIBXML_XINCLUDE_ENABLED
; 554  : 	/*
; 555  : 	 * We check if the error is within an XInclude section and,
; 556  : 	 * if so, attempt to print out the href of the XInclude instead
; 557  : 	 * of the usual "base" (doc->URL) for the node (bug 152623).
; 558  : 	 */
; 559  :         xmlNodePtr prev = baseptr;

	mov	edx, DWORD PTR _baseptr$[ebp]
	mov	DWORD PTR _prev$3[ebp], edx

; 560  : 	int inclcount = 0;

	mov	DWORD PTR _inclcount$2[ebp], 0
$LN7@xmlRaiseEr:

; 561  : 	while (prev != NULL) {

	cmp	DWORD PTR _prev$3[ebp], 0
	je	SHORT $LN8@xmlRaiseEr

; 562  : 	    if (prev->prev == NULL)

	mov	eax, DWORD PTR _prev$3[ebp]
	cmp	DWORD PTR [eax+28], 0
	jne	SHORT $LN39@xmlRaiseEr

; 563  : 	        prev = prev->parent;

	mov	ecx, DWORD PTR _prev$3[ebp]
	mov	edx, DWORD PTR [ecx+20]
	mov	DWORD PTR _prev$3[ebp], edx
	jmp	SHORT $LN40@xmlRaiseEr
$LN39@xmlRaiseEr:

; 564  : 	    else {
; 565  : 	        prev = prev->prev;

	mov	eax, DWORD PTR _prev$3[ebp]
	mov	ecx, DWORD PTR [eax+28]
	mov	DWORD PTR _prev$3[ebp], ecx

; 566  : 		if (prev->type == XML_XINCLUDE_START) {

	mov	edx, DWORD PTR _prev$3[ebp]
	cmp	DWORD PTR [edx+4], 19			; 00000013H
	jne	SHORT $LN41@xmlRaiseEr

; 567  : 		    if (--inclcount < 0)

	mov	eax, DWORD PTR _inclcount$2[ebp]
	sub	eax, 1
	mov	DWORD PTR _inclcount$2[ebp], eax
	jns	SHORT $LN43@xmlRaiseEr

; 568  : 		        break;

	jmp	SHORT $LN8@xmlRaiseEr
$LN43@xmlRaiseEr:

; 569  : 		} else if (prev->type == XML_XINCLUDE_END)

	jmp	SHORT $LN40@xmlRaiseEr
$LN41@xmlRaiseEr:
	mov	ecx, DWORD PTR _prev$3[ebp]
	cmp	DWORD PTR [ecx+4], 20			; 00000014H
	jne	SHORT $LN40@xmlRaiseEr

; 570  : 		    inclcount++;

	mov	edx, DWORD PTR _inclcount$2[ebp]
	add	edx, 1
	mov	DWORD PTR _inclcount$2[ebp], edx
$LN40@xmlRaiseEr:

; 571  : 	    }
; 572  : 	}

	jmp	SHORT $LN7@xmlRaiseEr
$LN8@xmlRaiseEr:

; 573  : 	if (prev != NULL) {

	cmp	DWORD PTR _prev$3[ebp], 0
	je	SHORT $LN45@xmlRaiseEr

; 574  : 	    if (prev->type == XML_XINCLUDE_START) {

	mov	eax, DWORD PTR _prev$3[ebp]
	cmp	DWORD PTR [eax+4], 19			; 00000013H
	jne	SHORT $LN47@xmlRaiseEr

; 575  : 		prev->type = XML_ELEMENT_NODE;

	mov	ecx, DWORD PTR _prev$3[ebp]
	mov	DWORD PTR [ecx+4], 1

; 576  : 		to->file = (char *) xmlGetProp(prev, BAD_CAST "href");

	push	OFFSET ??_C@_04CMBCJJJD@href@
	mov	edx, DWORD PTR _prev$3[ebp]
	push	edx
	call	_xmlGetProp
	add	esp, 8
	mov	ecx, DWORD PTR _to$[ebp]
	mov	DWORD PTR [ecx+16], eax

; 577  : 		prev->type = XML_XINCLUDE_START;

	mov	edx, DWORD PTR _prev$3[ebp]
	mov	DWORD PTR [edx+4], 19			; 00000013H

; 578  : 	    } else {

	jmp	SHORT $LN48@xmlRaiseEr
$LN47@xmlRaiseEr:

; 579  : 		to->file = (char *) xmlGetProp(prev, BAD_CAST "href");

	push	OFFSET ??_C@_04CMBCJJJD@href@
	mov	eax, DWORD PTR _prev$3[ebp]
	push	eax
	call	_xmlGetProp
	add	esp, 8
	mov	ecx, DWORD PTR _to$[ebp]
	mov	DWORD PTR [ecx+16], eax
$LN48@xmlRaiseEr:

; 580  : 	    }
; 581  : 	} else

	jmp	SHORT $LN46@xmlRaiseEr
$LN45@xmlRaiseEr:

; 582  : #endif
; 583  : 	    to->file = (char *) xmlStrdup(baseptr->doc->URL);

	mov	edx, DWORD PTR _baseptr$[ebp]
	mov	eax, DWORD PTR [edx+32]
	mov	ecx, DWORD PTR [eax+72]
	push	ecx
	call	_xmlStrdup
	add	esp, 4
	mov	edx, DWORD PTR _to$[ebp]
	mov	DWORD PTR [edx+16], eax
$LN46@xmlRaiseEr:

; 584  : 	if ((to->file == NULL) && (node != NULL) && (node->doc != NULL)) {

	mov	eax, DWORD PTR _to$[ebp]
	cmp	DWORD PTR [eax+16], 0
	jne	SHORT $LN37@xmlRaiseEr
	cmp	DWORD PTR _node$[ebp], 0
	je	SHORT $LN37@xmlRaiseEr
	mov	ecx, DWORD PTR _node$[ebp]
	cmp	DWORD PTR [ecx+32], 0
	je	SHORT $LN37@xmlRaiseEr

; 585  : 	    to->file = (char *) xmlStrdup(node->doc->URL);

	mov	edx, DWORD PTR _node$[ebp]
	mov	eax, DWORD PTR [edx+32]
	mov	ecx, DWORD PTR [eax+72]
	push	ecx
	call	_xmlStrdup
	add	esp, 4
	mov	edx, DWORD PTR _to$[ebp]
	mov	DWORD PTR [edx+16], eax
$LN37@xmlRaiseEr:

; 586  : 	}
; 587  :     }
; 588  :     to->line = line;

	mov	eax, DWORD PTR _to$[ebp]
	mov	ecx, DWORD PTR _line$[ebp]
	mov	DWORD PTR [eax+20], ecx

; 589  :     if (str1 != NULL)

	cmp	DWORD PTR _str1$[ebp], 0
	je	SHORT $LN50@xmlRaiseEr

; 590  :         to->str1 = (char *) xmlStrdup((const xmlChar *) str1);

	mov	edx, DWORD PTR _str1$[ebp]
	push	edx
	call	_xmlStrdup
	add	esp, 4
	mov	ecx, DWORD PTR _to$[ebp]
	mov	DWORD PTR [ecx+24], eax
$LN50@xmlRaiseEr:

; 591  :     if (str2 != NULL)

	cmp	DWORD PTR _str2$[ebp], 0
	je	SHORT $LN51@xmlRaiseEr

; 592  :         to->str2 = (char *) xmlStrdup((const xmlChar *) str2);

	mov	edx, DWORD PTR _str2$[ebp]
	push	edx
	call	_xmlStrdup
	add	esp, 4
	mov	ecx, DWORD PTR _to$[ebp]
	mov	DWORD PTR [ecx+28], eax
$LN51@xmlRaiseEr:

; 593  :     if (str3 != NULL)

	cmp	DWORD PTR _str3$[ebp], 0
	je	SHORT $LN52@xmlRaiseEr

; 594  :         to->str3 = (char *) xmlStrdup((const xmlChar *) str3);

	mov	edx, DWORD PTR _str3$[ebp]
	push	edx
	call	_xmlStrdup
	add	esp, 4
	mov	ecx, DWORD PTR _to$[ebp]
	mov	DWORD PTR [ecx+32], eax
$LN52@xmlRaiseEr:

; 595  :     to->int1 = int1;

	mov	edx, DWORD PTR _to$[ebp]
	mov	eax, DWORD PTR _int1$[ebp]
	mov	DWORD PTR [edx+36], eax

; 596  :     to->int2 = col;

	mov	ecx, DWORD PTR _to$[ebp]
	mov	edx, DWORD PTR _col$[ebp]
	mov	DWORD PTR [ecx+40], edx

; 597  :     to->node = node;

	mov	eax, DWORD PTR _to$[ebp]
	mov	ecx, DWORD PTR _node$[ebp]
	mov	DWORD PTR [eax+48], ecx

; 598  :     to->ctxt = ctx;

	mov	edx, DWORD PTR _to$[ebp]
	mov	eax, DWORD PTR _ctx$[ebp]
	mov	DWORD PTR [edx+44], eax

; 599  : 
; 600  :     if (to != &xmlLastError)

	call	___xmlLastError
	cmp	DWORD PTR _to$[ebp], eax
	je	SHORT $LN53@xmlRaiseEr

; 601  :         xmlCopyError(to,&xmlLastError);

	call	___xmlLastError
	push	eax
	mov	ecx, DWORD PTR _to$[ebp]
	push	ecx
	call	_xmlCopyError
	add	esp, 8
$LN53@xmlRaiseEr:

; 602  : 
; 603  :     if (schannel != NULL) {

	cmp	DWORD PTR _schannel$[ebp], 0
	je	SHORT $LN54@xmlRaiseEr

; 604  : 	schannel(data, to);

	mov	esi, esp
	mov	edx, DWORD PTR _to$[ebp]
	push	edx
	mov	eax, DWORD PTR _data$[ebp]
	push	eax
	call	DWORD PTR _schannel$[ebp]
	add	esp, 8
	cmp	esi, esp
	call	__RTC_CheckEsp

; 605  : 	return;

	jmp	$LN1@xmlRaiseEr
$LN54@xmlRaiseEr:

; 606  :     }
; 607  : 
; 608  :     /*
; 609  :      * Find the callback channel if channel param is NULL
; 610  :      */
; 611  :     if ((ctxt != NULL) && (channel == NULL) &&
; 612  :         (xmlStructuredError == NULL) && (ctxt->sax != NULL)) {

	cmp	DWORD PTR _ctxt$[ebp], 0
	je	SHORT $LN55@xmlRaiseEr
	cmp	DWORD PTR _channel$[ebp], 0
	jne	SHORT $LN55@xmlRaiseEr
	call	___xmlStructuredError
	cmp	DWORD PTR [eax], 0
	jne	SHORT $LN55@xmlRaiseEr
	mov	ecx, DWORD PTR _ctxt$[ebp]
	cmp	DWORD PTR [ecx], 0
	je	SHORT $LN55@xmlRaiseEr

; 613  :         if (level == XML_ERR_WARNING)

	cmp	DWORD PTR _level$[ebp], 1
	jne	SHORT $LN57@xmlRaiseEr

; 614  : 	    channel = ctxt->sax->warning;

	mov	edx, DWORD PTR _ctxt$[ebp]
	mov	eax, DWORD PTR [edx]
	mov	ecx, DWORD PTR [eax+84]
	mov	DWORD PTR _channel$[ebp], ecx
	jmp	SHORT $LN58@xmlRaiseEr
$LN57@xmlRaiseEr:

; 615  :         else
; 616  : 	    channel = ctxt->sax->error;

	mov	edx, DWORD PTR _ctxt$[ebp]
	mov	eax, DWORD PTR [edx]
	mov	ecx, DWORD PTR [eax+88]
	mov	DWORD PTR _channel$[ebp], ecx
$LN58@xmlRaiseEr:

; 617  : 	data = ctxt->userData;

	mov	edx, DWORD PTR _ctxt$[ebp]
	mov	eax, DWORD PTR [edx+4]
	mov	DWORD PTR _data$[ebp], eax
	jmp	SHORT $LN56@xmlRaiseEr
$LN55@xmlRaiseEr:

; 618  :     } else if (channel == NULL) {

	cmp	DWORD PTR _channel$[ebp], 0
	jne	SHORT $LN56@xmlRaiseEr

; 619  : 	channel = xmlGenericError;

	call	___xmlGenericError
	mov	ecx, DWORD PTR [eax]
	mov	DWORD PTR _channel$[ebp], ecx

; 620  : 	if (ctxt != NULL) {

	cmp	DWORD PTR _ctxt$[ebp], 0
	je	SHORT $LN60@xmlRaiseEr

; 621  : 	    data = ctxt;

	mov	edx, DWORD PTR _ctxt$[ebp]
	mov	DWORD PTR _data$[ebp], edx

; 622  : 	} else {

	jmp	SHORT $LN56@xmlRaiseEr
$LN60@xmlRaiseEr:

; 623  : 	    data = xmlGenericErrorContext;

	call	___xmlGenericErrorContext
	mov	eax, DWORD PTR [eax]
	mov	DWORD PTR _data$[ebp], eax
$LN56@xmlRaiseEr:

; 624  : 	}
; 625  :     }
; 626  :     if (channel == NULL)

	cmp	DWORD PTR _channel$[ebp], 0
	jne	SHORT $LN62@xmlRaiseEr

; 627  :         return;

	jmp	$LN1@xmlRaiseEr
$LN62@xmlRaiseEr:

; 628  : 
; 629  :     if ((channel == xmlParserError) ||
; 630  :         (channel == xmlParserWarning) ||
; 631  : 	(channel == xmlParserValidityError) ||

	cmp	DWORD PTR _channel$[ebp], OFFSET _xmlParserError
	je	SHORT $LN65@xmlRaiseEr
	cmp	DWORD PTR _channel$[ebp], OFFSET _xmlParserWarning
	je	SHORT $LN65@xmlRaiseEr
	cmp	DWORD PTR _channel$[ebp], OFFSET _xmlParserValidityError
	je	SHORT $LN65@xmlRaiseEr
	cmp	DWORD PTR _channel$[ebp], OFFSET _xmlParserValidityWarning
	jne	SHORT $LN63@xmlRaiseEr
$LN65@xmlRaiseEr:

; 632  : 	(channel == xmlParserValidityWarning))
; 633  : 	xmlReportError(to, ctxt, str, NULL, NULL);

	push	0
	push	0
	mov	ecx, DWORD PTR _str$[ebp]
	push	ecx
	mov	edx, DWORD PTR _ctxt$[ebp]
	push	edx
	mov	eax, DWORD PTR _to$[ebp]
	push	eax
	call	_xmlReportError
	add	esp, 20					; 00000014H
	jmp	SHORT $LN1@xmlRaiseEr
$LN63@xmlRaiseEr:

; 634  :     else if ((channel == (xmlGenericErrorFunc) fprintf) ||

	cmp	DWORD PTR _channel$[ebp], OFFSET _fprintf
	je	SHORT $LN68@xmlRaiseEr
	cmp	DWORD PTR _channel$[ebp], OFFSET _xmlGenericErrorDefaultFunc
	jne	SHORT $LN66@xmlRaiseEr
$LN68@xmlRaiseEr:

; 635  :              (channel == xmlGenericErrorDefaultFunc))
; 636  : 	xmlReportError(to, ctxt, str, channel, data);

	mov	ecx, DWORD PTR _data$[ebp]
	push	ecx
	mov	edx, DWORD PTR _channel$[ebp]
	push	edx
	mov	eax, DWORD PTR _str$[ebp]
	push	eax
	mov	ecx, DWORD PTR _ctxt$[ebp]
	push	ecx
	mov	edx, DWORD PTR _to$[ebp]
	push	edx
	call	_xmlReportError
	add	esp, 20					; 00000014H
	jmp	SHORT $LN1@xmlRaiseEr
$LN66@xmlRaiseEr:

; 637  :     else
; 638  : 	channel(data, "%s", str);

	mov	esi, esp
	mov	eax, DWORD PTR _str$[ebp]
	push	eax
	push	OFFSET ??_C@_02DKCKIIND@?$CFs@
	mov	ecx, DWORD PTR _data$[ebp]
	push	ecx
	call	DWORD PTR _channel$[ebp]
	add	esp, 12					; 0000000cH
	cmp	esi, esp
	call	__RTC_CheckEsp
$LN1@xmlRaiseEr:

; 639  : }

	pop	edi
	pop	esi
	add	esp, 68					; 00000044H
	cmp	ebp, esp
	call	__RTC_CheckEsp
	mov	esp, ebp
	pop	ebp
	ret	0
___xmlRaiseError ENDP
_TEXT	ENDS
; Function compile flags: /Odtp /RTCsu
; File c:\users\dag\documents\_clients\codeproject authors group\windows on arm\libxml2\libxml2-2.9.9\error.c
;	COMDAT _xmlCopyError
_TEXT	SEGMENT
_str3$ = -20						; size = 4
_str2$ = -16						; size = 4
_str1$ = -12						; size = 4
_file$ = -8						; size = 4
_message$ = -4						; size = 4
_from$ = 8						; size = 4
_to$ = 12						; size = 4
_xmlCopyError PROC					; COMDAT

; 957  : xmlCopyError(xmlErrorPtr from, xmlErrorPtr to) {

	push	ebp
	mov	ebp, esp
	sub	esp, 20					; 00000014H
	push	esi
	mov	eax, -858993460				; ccccccccH
	mov	DWORD PTR [ebp-20], eax
	mov	DWORD PTR [ebp-16], eax
	mov	DWORD PTR [ebp-12], eax
	mov	DWORD PTR [ebp-8], eax
	mov	DWORD PTR [ebp-4], eax
	mov	ecx, OFFSET __67926DEE_error@c
	call	@__CheckForDebuggerJustMyCode@4

; 958  :     char *message, *file, *str1, *str2, *str3;
; 959  : 
; 960  :     if ((from == NULL) || (to == NULL))

	cmp	DWORD PTR _from$[ebp], 0
	je	SHORT $LN3@xmlCopyErr
	cmp	DWORD PTR _to$[ebp], 0
	jne	SHORT $LN2@xmlCopyErr
$LN3@xmlCopyErr:

; 961  :         return(-1);

	or	eax, -1
	jmp	$LN1@xmlCopyErr
$LN2@xmlCopyErr:

; 962  : 
; 963  :     message = (char *) xmlStrdup((xmlChar *) from->message);

	mov	eax, DWORD PTR _from$[ebp]
	mov	ecx, DWORD PTR [eax+8]
	push	ecx
	call	_xmlStrdup
	add	esp, 4
	mov	DWORD PTR _message$[ebp], eax

; 964  :     file = (char *) xmlStrdup ((xmlChar *) from->file);

	mov	edx, DWORD PTR _from$[ebp]
	mov	eax, DWORD PTR [edx+16]
	push	eax
	call	_xmlStrdup
	add	esp, 4
	mov	DWORD PTR _file$[ebp], eax

; 965  :     str1 = (char *) xmlStrdup ((xmlChar *) from->str1);

	mov	ecx, DWORD PTR _from$[ebp]
	mov	edx, DWORD PTR [ecx+24]
	push	edx
	call	_xmlStrdup
	add	esp, 4
	mov	DWORD PTR _str1$[ebp], eax

; 966  :     str2 = (char *) xmlStrdup ((xmlChar *) from->str2);

	mov	eax, DWORD PTR _from$[ebp]
	mov	ecx, DWORD PTR [eax+28]
	push	ecx
	call	_xmlStrdup
	add	esp, 4
	mov	DWORD PTR _str2$[ebp], eax

; 967  :     str3 = (char *) xmlStrdup ((xmlChar *) from->str3);

	mov	edx, DWORD PTR _from$[ebp]
	mov	eax, DWORD PTR [edx+32]
	push	eax
	call	_xmlStrdup
	add	esp, 4
	mov	DWORD PTR _str3$[ebp], eax

; 968  : 
; 969  :     if (to->message != NULL)

	mov	ecx, DWORD PTR _to$[ebp]
	cmp	DWORD PTR [ecx+8], 0
	je	SHORT $LN4@xmlCopyErr

; 970  :         xmlFree(to->message);

	mov	esi, esp
	mov	edx, DWORD PTR _to$[ebp]
	mov	eax, DWORD PTR [edx+8]
	push	eax
	call	DWORD PTR _xmlFree
	add	esp, 4
	cmp	esi, esp
	call	__RTC_CheckEsp
$LN4@xmlCopyErr:

; 971  :     if (to->file != NULL)

	mov	ecx, DWORD PTR _to$[ebp]
	cmp	DWORD PTR [ecx+16], 0
	je	SHORT $LN5@xmlCopyErr

; 972  :         xmlFree(to->file);

	mov	esi, esp
	mov	edx, DWORD PTR _to$[ebp]
	mov	eax, DWORD PTR [edx+16]
	push	eax
	call	DWORD PTR _xmlFree
	add	esp, 4
	cmp	esi, esp
	call	__RTC_CheckEsp
$LN5@xmlCopyErr:

; 973  :     if (to->str1 != NULL)

	mov	ecx, DWORD PTR _to$[ebp]
	cmp	DWORD PTR [ecx+24], 0
	je	SHORT $LN6@xmlCopyErr

; 974  :         xmlFree(to->str1);

	mov	esi, esp
	mov	edx, DWORD PTR _to$[ebp]
	mov	eax, DWORD PTR [edx+24]
	push	eax
	call	DWORD PTR _xmlFree
	add	esp, 4
	cmp	esi, esp
	call	__RTC_CheckEsp
$LN6@xmlCopyErr:

; 975  :     if (to->str2 != NULL)

	mov	ecx, DWORD PTR _to$[ebp]
	cmp	DWORD PTR [ecx+28], 0
	je	SHORT $LN7@xmlCopyErr

; 976  :         xmlFree(to->str2);

	mov	esi, esp
	mov	edx, DWORD PTR _to$[ebp]
	mov	eax, DWORD PTR [edx+28]
	push	eax
	call	DWORD PTR _xmlFree
	add	esp, 4
	cmp	esi, esp
	call	__RTC_CheckEsp
$LN7@xmlCopyErr:

; 977  :     if (to->str3 != NULL)

	mov	ecx, DWORD PTR _to$[ebp]
	cmp	DWORD PTR [ecx+32], 0
	je	SHORT $LN8@xmlCopyErr

; 978  :         xmlFree(to->str3);

	mov	esi, esp
	mov	edx, DWORD PTR _to$[ebp]
	mov	eax, DWORD PTR [edx+32]
	push	eax
	call	DWORD PTR _xmlFree
	add	esp, 4
	cmp	esi, esp
	call	__RTC_CheckEsp
$LN8@xmlCopyErr:

; 979  :     to->domain = from->domain;

	mov	ecx, DWORD PTR _to$[ebp]
	mov	edx, DWORD PTR _from$[ebp]
	mov	eax, DWORD PTR [edx]
	mov	DWORD PTR [ecx], eax

; 980  :     to->code = from->code;

	mov	ecx, DWORD PTR _to$[ebp]
	mov	edx, DWORD PTR _from$[ebp]
	mov	eax, DWORD PTR [edx+4]
	mov	DWORD PTR [ecx+4], eax

; 981  :     to->level = from->level;

	mov	ecx, DWORD PTR _to$[ebp]
	mov	edx, DWORD PTR _from$[ebp]
	mov	eax, DWORD PTR [edx+12]
	mov	DWORD PTR [ecx+12], eax

; 982  :     to->line = from->line;

	mov	ecx, DWORD PTR _to$[ebp]
	mov	edx, DWORD PTR _from$[ebp]
	mov	eax, DWORD PTR [edx+20]
	mov	DWORD PTR [ecx+20], eax

; 983  :     to->node = from->node;

	mov	ecx, DWORD PTR _to$[ebp]
	mov	edx, DWORD PTR _from$[ebp]
	mov	eax, DWORD PTR [edx+48]
	mov	DWORD PTR [ecx+48], eax

; 984  :     to->int1 = from->int1;

	mov	ecx, DWORD PTR _to$[ebp]
	mov	edx, DWORD PTR _from$[ebp]
	mov	eax, DWORD PTR [edx+36]
	mov	DWORD PTR [ecx+36], eax

; 985  :     to->int2 = from->int2;

	mov	ecx, DWORD PTR _to$[ebp]
	mov	edx, DWORD PTR _from$[ebp]
	mov	eax, DWORD PTR [edx+40]
	mov	DWORD PTR [ecx+40], eax

; 986  :     to->node = from->node;

	mov	ecx, DWORD PTR _to$[ebp]
	mov	edx, DWORD PTR _from$[ebp]
	mov	eax, DWORD PTR [edx+48]
	mov	DWORD PTR [ecx+48], eax

; 987  :     to->ctxt = from->ctxt;

	mov	ecx, DWORD PTR _to$[ebp]
	mov	edx, DWORD PTR _from$[ebp]
	mov	eax, DWORD PTR [edx+44]
	mov	DWORD PTR [ecx+44], eax

; 988  :     to->message = message;

	mov	ecx, DWORD PTR _to$[ebp]
	mov	edx, DWORD PTR _message$[ebp]
	mov	DWORD PTR [ecx+8], edx

; 989  :     to->file = file;

	mov	eax, DWORD PTR _to$[ebp]
	mov	ecx, DWORD PTR _file$[ebp]
	mov	DWORD PTR [eax+16], ecx

; 990  :     to->str1 = str1;

	mov	edx, DWORD PTR _to$[ebp]
	mov	eax, DWORD PTR _str1$[ebp]
	mov	DWORD PTR [edx+24], eax

; 991  :     to->str2 = str2;

	mov	ecx, DWORD PTR _to$[ebp]
	mov	edx, DWORD PTR _str2$[ebp]
	mov	DWORD PTR [ecx+28], edx

; 992  :     to->str3 = str3;

	mov	eax, DWORD PTR _to$[ebp]
	mov	ecx, DWORD PTR _str3$[ebp]
	mov	DWORD PTR [eax+32], ecx

; 993  : 
; 994  :     return 0;

	xor	eax, eax
$LN1@xmlCopyErr:

; 995  : }

	pop	esi
	add	esp, 20					; 00000014H
	cmp	ebp, esp
	call	__RTC_CheckEsp
	mov	esp, ebp
	pop	ebp
	ret	0
_xmlCopyError ENDP
_TEXT	ENDS
; Function compile flags: /Odtp /RTCsu
; File c:\users\dag\documents\_clients\codeproject authors group\windows on arm\libxml2\libxml2-2.9.9\error.c
;	COMDAT _xmlResetError
_TEXT	SEGMENT
_err$ = 8						; size = 4
_xmlResetError PROC					; COMDAT

; 874  : {

	push	ebp
	mov	ebp, esp
	push	esi
	mov	ecx, OFFSET __67926DEE_error@c
	call	@__CheckForDebuggerJustMyCode@4

; 875  :     if (err == NULL)

	cmp	DWORD PTR _err$[ebp], 0
	jne	SHORT $LN2@xmlResetEr

; 876  :         return;

	jmp	$LN1@xmlResetEr
$LN2@xmlResetEr:

; 877  :     if (err->code == XML_ERR_OK)

	mov	eax, DWORD PTR _err$[ebp]
	cmp	DWORD PTR [eax+4], 0
	jne	SHORT $LN3@xmlResetEr

; 878  :         return;

	jmp	$LN1@xmlResetEr
$LN3@xmlResetEr:

; 879  :     if (err->message != NULL)

	mov	ecx, DWORD PTR _err$[ebp]
	cmp	DWORD PTR [ecx+8], 0
	je	SHORT $LN4@xmlResetEr

; 880  :         xmlFree(err->message);

	mov	esi, esp
	mov	edx, DWORD PTR _err$[ebp]
	mov	eax, DWORD PTR [edx+8]
	push	eax
	call	DWORD PTR _xmlFree
	add	esp, 4
	cmp	esi, esp
	call	__RTC_CheckEsp
$LN4@xmlResetEr:

; 881  :     if (err->file != NULL)

	mov	ecx, DWORD PTR _err$[ebp]
	cmp	DWORD PTR [ecx+16], 0
	je	SHORT $LN5@xmlResetEr

; 882  :         xmlFree(err->file);

	mov	esi, esp
	mov	edx, DWORD PTR _err$[ebp]
	mov	eax, DWORD PTR [edx+16]
	push	eax
	call	DWORD PTR _xmlFree
	add	esp, 4
	cmp	esi, esp
	call	__RTC_CheckEsp
$LN5@xmlResetEr:

; 883  :     if (err->str1 != NULL)

	mov	ecx, DWORD PTR _err$[ebp]
	cmp	DWORD PTR [ecx+24], 0
	je	SHORT $LN6@xmlResetEr

; 884  :         xmlFree(err->str1);

	mov	esi, esp
	mov	edx, DWORD PTR _err$[ebp]
	mov	eax, DWORD PTR [edx+24]
	push	eax
	call	DWORD PTR _xmlFree
	add	esp, 4
	cmp	esi, esp
	call	__RTC_CheckEsp
$LN6@xmlResetEr:

; 885  :     if (err->str2 != NULL)

	mov	ecx, DWORD PTR _err$[ebp]
	cmp	DWORD PTR [ecx+28], 0
	je	SHORT $LN7@xmlResetEr

; 886  :         xmlFree(err->str2);

	mov	esi, esp
	mov	edx, DWORD PTR _err$[ebp]
	mov	eax, DWORD PTR [edx+28]
	push	eax
	call	DWORD PTR _xmlFree
	add	esp, 4
	cmp	esi, esp
	call	__RTC_CheckEsp
$LN7@xmlResetEr:

; 887  :     if (err->str3 != NULL)

	mov	ecx, DWORD PTR _err$[ebp]
	cmp	DWORD PTR [ecx+32], 0
	je	SHORT $LN8@xmlResetEr

; 888  :         xmlFree(err->str3);

	mov	esi, esp
	mov	edx, DWORD PTR _err$[ebp]
	mov	eax, DWORD PTR [edx+32]
	push	eax
	call	DWORD PTR _xmlFree
	add	esp, 4
	cmp	esi, esp
	call	__RTC_CheckEsp
$LN8@xmlResetEr:

; 889  :     memset(err, 0, sizeof(xmlError));

	push	52					; 00000034H
	push	0
	mov	ecx, DWORD PTR _err$[ebp]
	push	ecx
	call	_memset
	add	esp, 12					; 0000000cH

; 890  :     err->code = XML_ERR_OK;

	mov	edx, DWORD PTR _err$[ebp]
	mov	DWORD PTR [edx+4], 0
$LN1@xmlResetEr:

; 891  : }

	pop	esi
	cmp	ebp, esp
	call	__RTC_CheckEsp
	pop	ebp
	ret	0
_xmlResetError ENDP
_TEXT	ENDS
; Function compile flags: /Odtp /RTCsu
; File c:\users\dag\documents\_clients\codeproject authors group\windows on arm\libxml2\libxml2-2.9.9\error.c
;	COMDAT _xmlCtxtResetLastError
_TEXT	SEGMENT
_ctxt$ = -4						; size = 4
_ctx$ = 8						; size = 4
_xmlCtxtResetLastError PROC				; COMDAT

; 936  : {

	push	ebp
	mov	ebp, esp
	push	ecx
	mov	DWORD PTR [ebp-4], -858993460		; ccccccccH
	mov	ecx, OFFSET __67926DEE_error@c
	call	@__CheckForDebuggerJustMyCode@4

; 937  :     xmlParserCtxtPtr ctxt = (xmlParserCtxtPtr) ctx;

	mov	eax, DWORD PTR _ctx$[ebp]
	mov	DWORD PTR _ctxt$[ebp], eax

; 938  : 
; 939  :     if (ctxt == NULL)

	cmp	DWORD PTR _ctxt$[ebp], 0
	jne	SHORT $LN2@xmlCtxtRes

; 940  :         return;

	jmp	SHORT $LN1@xmlCtxtRes
$LN2@xmlCtxtRes:

; 941  :     ctxt->errNo = XML_ERR_OK;

	mov	ecx, DWORD PTR _ctxt$[ebp]
	mov	DWORD PTR [ecx+84], 0

; 942  :     if (ctxt->lastError.code == XML_ERR_OK)

	mov	edx, DWORD PTR _ctxt$[ebp]
	cmp	DWORD PTR [edx+388], 0
	jne	SHORT $LN3@xmlCtxtRes

; 943  :         return;

	jmp	SHORT $LN1@xmlCtxtRes
$LN3@xmlCtxtRes:

; 944  :     xmlResetError(&ctxt->lastError);

	mov	eax, DWORD PTR _ctxt$[ebp]
	add	eax, 384				; 00000180H
	push	eax
	call	_xmlResetError
	add	esp, 4
$LN1@xmlCtxtRes:

; 945  : }

	add	esp, 4
	cmp	ebp, esp
	call	__RTC_CheckEsp
	mov	esp, ebp
	pop	ebp
	ret	0
_xmlCtxtResetLastError ENDP
_TEXT	ENDS
; Function compile flags: /Odtp /RTCsu
; File c:\users\dag\documents\_clients\codeproject authors group\windows on arm\libxml2\libxml2-2.9.9\error.c
;	COMDAT _xmlCtxtGetLastError
_TEXT	SEGMENT
_ctxt$ = -4						; size = 4
_ctx$ = 8						; size = 4
_xmlCtxtGetLastError PROC				; COMDAT

; 917  : {

	push	ebp
	mov	ebp, esp
	push	ecx
	mov	DWORD PTR [ebp-4], -858993460		; ccccccccH
	mov	ecx, OFFSET __67926DEE_error@c
	call	@__CheckForDebuggerJustMyCode@4

; 918  :     xmlParserCtxtPtr ctxt = (xmlParserCtxtPtr) ctx;

	mov	eax, DWORD PTR _ctx$[ebp]
	mov	DWORD PTR _ctxt$[ebp], eax

; 919  : 
; 920  :     if (ctxt == NULL)

	cmp	DWORD PTR _ctxt$[ebp], 0
	jne	SHORT $LN2@xmlCtxtGet

; 921  :         return (NULL);

	xor	eax, eax
	jmp	SHORT $LN1@xmlCtxtGet
$LN2@xmlCtxtGet:

; 922  :     if (ctxt->lastError.code == XML_ERR_OK)

	mov	ecx, DWORD PTR _ctxt$[ebp]
	cmp	DWORD PTR [ecx+388], 0
	jne	SHORT $LN3@xmlCtxtGet

; 923  :         return (NULL);

	xor	eax, eax
	jmp	SHORT $LN1@xmlCtxtGet
$LN3@xmlCtxtGet:

; 924  :     return (&ctxt->lastError);

	mov	eax, DWORD PTR _ctxt$[ebp]
	add	eax, 384				; 00000180H
$LN1@xmlCtxtGet:

; 925  : }

	add	esp, 4
	cmp	ebp, esp
	call	__RTC_CheckEsp
	mov	esp, ebp
	pop	ebp
	ret	0
_xmlCtxtGetLastError ENDP
_TEXT	ENDS
; Function compile flags: /Odtp /RTCsu
; File c:\users\dag\documents\_clients\codeproject authors group\windows on arm\libxml2\libxml2-2.9.9\error.c
;	COMDAT _xmlResetLastError
_TEXT	SEGMENT
_xmlResetLastError PROC					; COMDAT

; 901  : {

	push	ebp
	mov	ebp, esp
	mov	ecx, OFFSET __67926DEE_error@c
	call	@__CheckForDebuggerJustMyCode@4

; 902  :     if (xmlLastError.code == XML_ERR_OK)

	call	___xmlLastError
	cmp	DWORD PTR [eax+4], 0
	jne	SHORT $LN2@xmlResetLa

; 903  :         return;

	jmp	SHORT $LN1@xmlResetLa
$LN2@xmlResetLa:

; 904  :     xmlResetError(&xmlLastError);

	call	___xmlLastError
	push	eax
	call	_xmlResetError
	add	esp, 4
$LN1@xmlResetLa:

; 905  : }

	cmp	ebp, esp
	call	__RTC_CheckEsp
	pop	ebp
	ret	0
_xmlResetLastError ENDP
_TEXT	ENDS
; Function compile flags: /Odtp /RTCsu
; File c:\users\dag\documents\_clients\codeproject authors group\windows on arm\libxml2\libxml2-2.9.9\error.c
;	COMDAT _xmlGetLastError
_TEXT	SEGMENT
_xmlGetLastError PROC					; COMDAT

; 860  : {

	push	ebp
	mov	ebp, esp
	mov	ecx, OFFSET __67926DEE_error@c
	call	@__CheckForDebuggerJustMyCode@4

; 861  :     if (xmlLastError.code == XML_ERR_OK)

	call	___xmlLastError
	cmp	DWORD PTR [eax+4], 0
	jne	SHORT $LN2@xmlGetLast

; 862  :         return (NULL);

	xor	eax, eax
	jmp	SHORT $LN1@xmlGetLast
$LN2@xmlGetLast:

; 863  :     return (&xmlLastError);

	call	___xmlLastError
$LN1@xmlGetLast:

; 864  : }

	cmp	ebp, esp
	call	__RTC_CheckEsp
	pop	ebp
	ret	0
_xmlGetLastError ENDP
_TEXT	ENDS
; Function compile flags: /Odtp /RTCsu
; File c:\users\dag\documents\_clients\codeproject authors group\windows on arm\libxml2\libxml2-2.9.9\error.c
;	COMDAT _xmlParserPrintFileContext
_TEXT	SEGMENT
_input$ = 8						; size = 4
_xmlParserPrintFileContext PROC				; COMDAT

; 230  : xmlParserPrintFileContext(xmlParserInputPtr input) {

	push	ebp
	mov	ebp, esp
	mov	ecx, OFFSET __67926DEE_error@c
	call	@__CheckForDebuggerJustMyCode@4

; 231  :    xmlParserPrintFileContextInternal(input, xmlGenericError,

	call	___xmlGenericErrorContext
	mov	eax, DWORD PTR [eax]
	push	eax
	call	___xmlGenericError
	mov	ecx, DWORD PTR [eax]
	push	ecx
	mov	edx, DWORD PTR _input$[ebp]
	push	edx
	call	_xmlParserPrintFileContextInternal
	add	esp, 12					; 0000000cH

; 232  :                                      xmlGenericErrorContext);
; 233  : }

	cmp	ebp, esp
	call	__RTC_CheckEsp
	pop	ebp
	ret	0
_xmlParserPrintFileContext ENDP
_TEXT	ENDS
; Function compile flags: /Odtp /RTCsu
; File c:\users\dag\documents\_clients\codeproject authors group\windows on arm\libxml2\libxml2-2.9.9\error.c
;	COMDAT _xmlParserPrintFileInfo
_TEXT	SEGMENT
_input$ = 8						; size = 4
_xmlParserPrintFileInfo PROC				; COMDAT

; 153  : xmlParserPrintFileInfo(xmlParserInputPtr input) {

	push	ebp
	mov	ebp, esp
	push	esi
	mov	ecx, OFFSET __67926DEE_error@c
	call	@__CheckForDebuggerJustMyCode@4

; 154  :     if (input != NULL) {

	cmp	DWORD PTR _input$[ebp], 0
	je	SHORT $LN1@xmlParserP

; 155  : 	if (input->filename)

	mov	eax, DWORD PTR _input$[ebp]
	cmp	DWORD PTR [eax+4], 0
	je	SHORT $LN3@xmlParserP

; 156  : 	    xmlGenericError(xmlGenericErrorContext,

	mov	esi, esp
	mov	ecx, DWORD PTR _input$[ebp]
	mov	edx, DWORD PTR [ecx+28]
	push	edx
	mov	eax, DWORD PTR _input$[ebp]
	mov	ecx, DWORD PTR [eax+4]
	push	ecx
	push	OFFSET ??_C@_07FCDHCGBN@?$CFs?3?$CFd?3?5@
	call	___xmlGenericErrorContext
	mov	edx, DWORD PTR [eax]
	push	edx
	call	___xmlGenericError
	mov	eax, DWORD PTR [eax]
	call	eax
	add	esp, 16					; 00000010H
	cmp	esi, esp
	call	__RTC_CheckEsp
	jmp	SHORT $LN1@xmlParserP
$LN3@xmlParserP:

; 157  : 		    "%s:%d: ", input->filename,
; 158  : 		    input->line);
; 159  : 	else
; 160  : 	    xmlGenericError(xmlGenericErrorContext,

	mov	esi, esp
	mov	ecx, DWORD PTR _input$[ebp]
	mov	edx, DWORD PTR [ecx+28]
	push	edx
	push	OFFSET ??_C@_0BC@FMCMLLAH@Entity?3?5line?5?$CFd?3?5@
	call	___xmlGenericErrorContext
	mov	eax, DWORD PTR [eax]
	push	eax
	call	___xmlGenericError
	mov	ecx, DWORD PTR [eax]
	call	ecx
	add	esp, 12					; 0000000cH
	cmp	esi, esp
	call	__RTC_CheckEsp
$LN1@xmlParserP:

; 161  : 		    "Entity: line %d: ", input->line);
; 162  :     }
; 163  : }

	pop	esi
	cmp	ebp, esp
	call	__RTC_CheckEsp
	pop	ebp
	ret	0
_xmlParserPrintFileInfo ENDP
_TEXT	ENDS
; Function compile flags: /Odtp /RTCsu
; File c:\users\dag\documents\_clients\codeproject authors group\windows on arm\libxml2\libxml2-2.9.9\error.c
; File c:\program files (x86)\windows kits\10\include\10.0.17763.0\ucrt\stdio.h
; File c:\users\dag\documents\_clients\codeproject authors group\windows on arm\libxml2\libxml2-2.9.9\error.c
;	COMDAT _xmlParserValidityWarning
_TEXT	SEGMENT
tv161 = -48						; size = 4
__Result$1 = -44					; size = 4
__Format$ = -40						; size = 4
_ap$2 = -36						; size = 4
_larger$3 = -32						; size = 4
_chars$4 = -28						; size = 4
_prev_size$5 = -24					; size = 4
_size$6 = -20						; size = 4
_len$ = -16						; size = 4
_str$ = -12						; size = 4
_input$ = -8						; size = 4
_ctxt$ = -4						; size = 4
_ctx$ = 8						; size = 4
_msg$ = 12						; size = 4
_xmlParserValidityWarning PROC				; COMDAT

; 818  : {

	push	ebp
	mov	ebp, esp
	sub	esp, 48					; 00000030H
	push	esi
	push	edi
	lea	edi, DWORD PTR [ebp-48]
	mov	ecx, 12					; 0000000cH
	mov	eax, -858993460				; ccccccccH
	rep stosd
	mov	ecx, OFFSET __67926DEE_error@c
	call	@__CheckForDebuggerJustMyCode@4

; 819  :     xmlParserCtxtPtr ctxt = (xmlParserCtxtPtr) ctx;

	mov	eax, DWORD PTR _ctx$[ebp]
	mov	DWORD PTR _ctxt$[ebp], eax

; 820  :     xmlParserInputPtr input = NULL;

	mov	DWORD PTR _input$[ebp], 0

; 821  :     char * str;
; 822  :     int len = xmlStrlen((const xmlChar *) msg);

	mov	ecx, DWORD PTR _msg$[ebp]
	push	ecx
	call	_xmlStrlen
	add	esp, 4
	mov	DWORD PTR _len$[ebp], eax

; 823  : 
; 824  :     if ((ctxt != NULL) && (len != 0) && (msg[len - 1] != ':')) {

	cmp	DWORD PTR _ctxt$[ebp], 0
	je	SHORT $LN4@xmlParserV
	cmp	DWORD PTR _len$[ebp], 0
	je	SHORT $LN4@xmlParserV
	mov	edx, DWORD PTR _msg$[ebp]
	add	edx, DWORD PTR _len$[ebp]
	movsx	eax, BYTE PTR [edx-1]
	cmp	eax, 58					; 0000003aH
	je	SHORT $LN4@xmlParserV

; 825  : 	input = ctxt->input;

	mov	ecx, DWORD PTR _ctxt$[ebp]
	mov	edx, DWORD PTR [ecx+36]
	mov	DWORD PTR _input$[ebp], edx

; 826  : 	if ((input->filename == NULL) && (ctxt->inputNr > 1))

	mov	eax, DWORD PTR _input$[ebp]
	cmp	DWORD PTR [eax+4], 0
	jne	SHORT $LN5@xmlParserV
	mov	ecx, DWORD PTR _ctxt$[ebp]
	cmp	DWORD PTR [ecx+40], 1
	jle	SHORT $LN5@xmlParserV

; 827  : 	    input = ctxt->inputTab[ctxt->inputNr - 2];

	mov	edx, DWORD PTR _ctxt$[ebp]
	mov	eax, DWORD PTR [edx+40]
	mov	ecx, DWORD PTR _ctxt$[ebp]
	mov	edx, DWORD PTR [ecx+48]
	mov	eax, DWORD PTR [edx+eax*4-8]
	mov	DWORD PTR _input$[ebp], eax
$LN5@xmlParserV:

; 828  : 
; 829  : 	xmlParserPrintFileInfo(input);

	mov	ecx, DWORD PTR _input$[ebp]
	push	ecx
	call	_xmlParserPrintFileInfo
	add	esp, 4
$LN4@xmlParserV:

; 830  :     }
; 831  : 
; 832  :     xmlGenericError(xmlGenericErrorContext, "validity warning: ");

	mov	esi, esp
	push	OFFSET ??_C@_0BD@BMEBJKPI@validity?5warning?3?5@
	call	___xmlGenericErrorContext
	mov	edx, DWORD PTR [eax]
	push	edx
	call	___xmlGenericError
	mov	eax, DWORD PTR [eax]
	call	eax
	add	esp, 8
	cmp	esi, esp
	call	__RTC_CheckEsp

; 833  :     XML_GET_VAR_STR(msg, str);

	mov	DWORD PTR _prev_size$5[ebp], -1
	mov	esi, esp
	push	150					; 00000096H
	call	DWORD PTR _xmlMalloc
	add	esp, 4
	cmp	esi, esp
	call	__RTC_CheckEsp
	mov	DWORD PTR _str$[ebp], eax
	cmp	DWORD PTR _str$[ebp], 0
	je	$LN6@xmlParserV
	mov	DWORD PTR _size$6[ebp], 150		; 00000096H
$LN2@xmlParserV:
	cmp	DWORD PTR _size$6[ebp], 64000		; 0000fa00H
	jge	$LN6@xmlParserV
	lea	ecx, DWORD PTR _msg$[ebp+4]
	mov	DWORD PTR _ap$2[ebp], ecx
	mov	edx, DWORD PTR _msg$[ebp]
	mov	DWORD PTR __Format$[ebp], edx
; File c:\program files (x86)\windows kits\10\include\10.0.17763.0\ucrt\stdio.h

; 1440 :         int const _Result = __stdio_common_vsprintf(

	mov	esi, esp
	mov	eax, DWORD PTR _ap$2[ebp]
	push	eax
	push	0
	mov	ecx, DWORD PTR __Format$[ebp]
	push	ecx
	mov	edx, DWORD PTR _size$6[ebp]
	push	edx
	mov	eax, DWORD PTR _str$[ebp]
	push	eax
	call	___local_stdio_printf_options
	mov	ecx, DWORD PTR [eax]
	or	ecx, 2
	mov	edx, DWORD PTR [eax+4]
	push	edx
	push	ecx
	call	DWORD PTR __imp____stdio_common_vsprintf
	add	esp, 28					; 0000001cH
	cmp	esi, esp
	call	__RTC_CheckEsp
	mov	DWORD PTR __Result$1[ebp], eax

; 1441 :             _CRT_INTERNAL_LOCAL_PRINTF_OPTIONS | _CRT_INTERNAL_PRINTF_STANDARD_SNPRINTF_BEHAVIOR,
; 1442 :             _Buffer, _BufferCount, _Format, NULL, _ArgList);
; 1443 : 
; 1444 :         return _Result < 0 ? -1 : _Result;

	cmp	DWORD PTR __Result$1[ebp], 0
	jge	SHORT $LN18@xmlParserV
	mov	DWORD PTR tv161[ebp], -1
	jmp	SHORT $LN16@xmlParserV
$LN18@xmlParserV:
	mov	eax, DWORD PTR __Result$1[ebp]
	mov	DWORD PTR tv161[ebp], eax
$LN16@xmlParserV:
; File c:\users\dag\documents\_clients\codeproject authors group\windows on arm\libxml2\libxml2-2.9.9\error.c

; 833  :     XML_GET_VAR_STR(msg, str);

	mov	ecx, DWORD PTR tv161[ebp]
	mov	DWORD PTR _chars$4[ebp], ecx
	mov	DWORD PTR _ap$2[ebp], 0
	cmp	DWORD PTR _chars$4[ebp], -1
	jle	SHORT $LN7@xmlParserV
	mov	edx, DWORD PTR _chars$4[ebp]
	cmp	edx, DWORD PTR _size$6[ebp]
	jge	SHORT $LN7@xmlParserV
	mov	eax, DWORD PTR _prev_size$5[ebp]
	cmp	eax, DWORD PTR _chars$4[ebp]
	jne	SHORT $LN8@xmlParserV
	jmp	SHORT $LN6@xmlParserV
	jmp	SHORT $LN7@xmlParserV
$LN8@xmlParserV:
	mov	ecx, DWORD PTR _chars$4[ebp]
	mov	DWORD PTR _prev_size$5[ebp], ecx
$LN7@xmlParserV:
	cmp	DWORD PTR _chars$4[ebp], -1
	jle	SHORT $LN10@xmlParserV
	mov	edx, DWORD PTR _chars$4[ebp]
	mov	eax, DWORD PTR _size$6[ebp]
	lea	ecx, DWORD PTR [eax+edx+1]
	mov	DWORD PTR _size$6[ebp], ecx
	jmp	SHORT $LN11@xmlParserV
$LN10@xmlParserV:
	mov	edx, DWORD PTR _size$6[ebp]
	add	edx, 100				; 00000064H
	mov	DWORD PTR _size$6[ebp], edx
$LN11@xmlParserV:
	mov	esi, esp
	mov	eax, DWORD PTR _size$6[ebp]
	push	eax
	mov	ecx, DWORD PTR _str$[ebp]
	push	ecx
	call	DWORD PTR _xmlRealloc
	add	esp, 8
	cmp	esi, esp
	call	__RTC_CheckEsp
	mov	DWORD PTR _larger$3[ebp], eax
	cmp	DWORD PTR _larger$3[ebp], 0
	jne	SHORT $LN12@xmlParserV
	jmp	SHORT $LN6@xmlParserV
$LN12@xmlParserV:
	mov	edx, DWORD PTR _larger$3[ebp]
	mov	DWORD PTR _str$[ebp], edx
	jmp	$LN2@xmlParserV
$LN6@xmlParserV:

; 834  :     xmlGenericError(xmlGenericErrorContext, "%s", str);

	mov	esi, esp
	mov	eax, DWORD PTR _str$[ebp]
	push	eax
	push	OFFSET ??_C@_02DKCKIIND@?$CFs@
	call	___xmlGenericErrorContext
	mov	ecx, DWORD PTR [eax]
	push	ecx
	call	___xmlGenericError
	mov	edx, DWORD PTR [eax]
	call	edx
	add	esp, 12					; 0000000cH
	cmp	esi, esp
	call	__RTC_CheckEsp

; 835  :     if (str != NULL)

	cmp	DWORD PTR _str$[ebp], 0
	je	SHORT $LN13@xmlParserV

; 836  : 	xmlFree(str);

	mov	esi, esp
	mov	eax, DWORD PTR _str$[ebp]
	push	eax
	call	DWORD PTR _xmlFree
	add	esp, 4
	cmp	esi, esp
	call	__RTC_CheckEsp
$LN13@xmlParserV:

; 837  : 
; 838  :     if (ctxt != NULL) {

	cmp	DWORD PTR _ctxt$[ebp], 0
	je	SHORT $LN1@xmlParserV

; 839  : 	xmlParserPrintFileContext(input);

	mov	ecx, DWORD PTR _input$[ebp]
	push	ecx
	call	_xmlParserPrintFileContext
	add	esp, 4
$LN1@xmlParserV:

; 840  :     }
; 841  : }

	pop	edi
	pop	esi
	add	esp, 48					; 00000030H
	cmp	ebp, esp
	call	__RTC_CheckEsp
	mov	esp, ebp
	pop	ebp
	ret	0
_xmlParserValidityWarning ENDP
_TEXT	ENDS
; Function compile flags: /Odtp /RTCsu
; File c:\users\dag\documents\_clients\codeproject authors group\windows on arm\libxml2\libxml2-2.9.9\error.c
; File c:\program files (x86)\windows kits\10\include\10.0.17763.0\ucrt\stdio.h
; File c:\users\dag\documents\_clients\codeproject authors group\windows on arm\libxml2\libxml2-2.9.9\error.c
;	COMDAT _xmlParserValidityError
_TEXT	SEGMENT
tv163 = -48						; size = 4
__Result$1 = -44					; size = 4
__Format$ = -40						; size = 4
_ap$2 = -36						; size = 4
_larger$3 = -32						; size = 4
_chars$4 = -28						; size = 4
_prev_size$5 = -24					; size = 4
_size$6 = -20						; size = 4
_len$ = -16						; size = 4
_str$ = -12						; size = 4
_input$ = -8						; size = 4
_ctxt$ = -4						; size = 4
_ctx$ = 8						; size = 4
_msg$ = 12						; size = 4
_xmlParserValidityError PROC				; COMDAT

; 774  : {

	push	ebp
	mov	ebp, esp
	sub	esp, 48					; 00000030H
	push	esi
	push	edi
	lea	edi, DWORD PTR [ebp-48]
	mov	ecx, 12					; 0000000cH
	mov	eax, -858993460				; ccccccccH
	rep stosd
	mov	ecx, OFFSET __67926DEE_error@c
	call	@__CheckForDebuggerJustMyCode@4

; 775  :     xmlParserCtxtPtr ctxt = (xmlParserCtxtPtr) ctx;

	mov	eax, DWORD PTR _ctx$[ebp]
	mov	DWORD PTR _ctxt$[ebp], eax

; 776  :     xmlParserInputPtr input = NULL;

	mov	DWORD PTR _input$[ebp], 0

; 777  :     char * str;
; 778  :     int len = xmlStrlen((const xmlChar *) msg);

	mov	ecx, DWORD PTR _msg$[ebp]
	push	ecx
	call	_xmlStrlen
	add	esp, 4
	mov	DWORD PTR _len$[ebp], eax

; 779  :     static int had_info = 0;
; 780  : 
; 781  :     if ((len > 1) && (msg[len - 2] != ':')) {

	cmp	DWORD PTR _len$[ebp], 1
	jle	$LN4@xmlParserV
	mov	edx, DWORD PTR _msg$[ebp]
	add	edx, DWORD PTR _len$[ebp]
	movsx	eax, BYTE PTR [edx-2]
	cmp	eax, 58					; 0000003aH
	je	SHORT $LN4@xmlParserV

; 782  : 	if (ctxt != NULL) {

	cmp	DWORD PTR _ctxt$[ebp], 0
	je	SHORT $LN6@xmlParserV

; 783  : 	    input = ctxt->input;

	mov	ecx, DWORD PTR _ctxt$[ebp]
	mov	edx, DWORD PTR [ecx+36]
	mov	DWORD PTR _input$[ebp], edx

; 784  : 	    if ((input->filename == NULL) && (ctxt->inputNr > 1))

	mov	eax, DWORD PTR _input$[ebp]
	cmp	DWORD PTR [eax+4], 0
	jne	SHORT $LN7@xmlParserV
	mov	ecx, DWORD PTR _ctxt$[ebp]
	cmp	DWORD PTR [ecx+40], 1
	jle	SHORT $LN7@xmlParserV

; 785  : 		input = ctxt->inputTab[ctxt->inputNr - 2];

	mov	edx, DWORD PTR _ctxt$[ebp]
	mov	eax, DWORD PTR [edx+40]
	mov	ecx, DWORD PTR _ctxt$[ebp]
	mov	edx, DWORD PTR [ecx+48]
	mov	eax, DWORD PTR [edx+eax*4-8]
	mov	DWORD PTR _input$[ebp], eax
$LN7@xmlParserV:

; 786  : 
; 787  : 	    if (had_info == 0) {

	cmp	DWORD PTR ?had_info@?1??xmlParserValidityError@@9@9, 0
	jne	SHORT $LN6@xmlParserV

; 788  : 		xmlParserPrintFileInfo(input);

	mov	ecx, DWORD PTR _input$[ebp]
	push	ecx
	call	_xmlParserPrintFileInfo
	add	esp, 4
$LN6@xmlParserV:

; 789  : 	    }
; 790  : 	}
; 791  : 	xmlGenericError(xmlGenericErrorContext, "validity error: ");

	mov	esi, esp
	push	OFFSET ??_C@_0BB@DJCEBDOI@validity?5error?3?5@
	call	___xmlGenericErrorContext
	mov	edx, DWORD PTR [eax]
	push	edx
	call	___xmlGenericError
	mov	eax, DWORD PTR [eax]
	call	eax
	add	esp, 8
	cmp	esi, esp
	call	__RTC_CheckEsp

; 792  : 	had_info = 0;

	mov	DWORD PTR ?had_info@?1??xmlParserValidityError@@9@9, 0

; 793  :     } else {

	jmp	SHORT $LN5@xmlParserV
$LN4@xmlParserV:

; 794  : 	had_info = 1;

	mov	DWORD PTR ?had_info@?1??xmlParserValidityError@@9@9, 1
$LN5@xmlParserV:

; 797  :     XML_GET_VAR_STR(msg, str);

	mov	DWORD PTR _prev_size$5[ebp], -1
	mov	esi, esp
	push	150					; 00000096H
	call	DWORD PTR _xmlMalloc
	add	esp, 4
	cmp	esi, esp
	call	__RTC_CheckEsp
	mov	DWORD PTR _str$[ebp], eax
	cmp	DWORD PTR _str$[ebp], 0
	je	$LN9@xmlParserV
	mov	DWORD PTR _size$6[ebp], 150		; 00000096H
$LN2@xmlParserV:
	cmp	DWORD PTR _size$6[ebp], 64000		; 0000fa00H
	jge	$LN9@xmlParserV
	lea	ecx, DWORD PTR _msg$[ebp+4]
	mov	DWORD PTR _ap$2[ebp], ecx
	mov	edx, DWORD PTR _msg$[ebp]
	mov	DWORD PTR __Format$[ebp], edx
; File c:\program files (x86)\windows kits\10\include\10.0.17763.0\ucrt\stdio.h

; 1440 :         int const _Result = __stdio_common_vsprintf(

	mov	esi, esp
	mov	eax, DWORD PTR _ap$2[ebp]
	push	eax
	push	0
	mov	ecx, DWORD PTR __Format$[ebp]
	push	ecx
	mov	edx, DWORD PTR _size$6[ebp]
	push	edx
	mov	eax, DWORD PTR _str$[ebp]
	push	eax
	call	___local_stdio_printf_options
	mov	ecx, DWORD PTR [eax]
	or	ecx, 2
	mov	edx, DWORD PTR [eax+4]
	push	edx
	push	ecx
	call	DWORD PTR __imp____stdio_common_vsprintf
	add	esp, 28					; 0000001cH
	cmp	esi, esp
	call	__RTC_CheckEsp
	mov	DWORD PTR __Result$1[ebp], eax

; 1441 :             _CRT_INTERNAL_LOCAL_PRINTF_OPTIONS | _CRT_INTERNAL_PRINTF_STANDARD_SNPRINTF_BEHAVIOR,
; 1442 :             _Buffer, _BufferCount, _Format, NULL, _ArgList);
; 1443 : 
; 1444 :         return _Result < 0 ? -1 : _Result;

	cmp	DWORD PTR __Result$1[ebp], 0
	jge	SHORT $LN21@xmlParserV
	mov	DWORD PTR tv163[ebp], -1
	jmp	SHORT $LN19@xmlParserV
$LN21@xmlParserV:
	mov	eax, DWORD PTR __Result$1[ebp]
	mov	DWORD PTR tv163[ebp], eax
$LN19@xmlParserV:
; File c:\users\dag\documents\_clients\codeproject authors group\windows on arm\libxml2\libxml2-2.9.9\error.c

; 797  :     XML_GET_VAR_STR(msg, str);

	mov	ecx, DWORD PTR tv163[ebp]
	mov	DWORD PTR _chars$4[ebp], ecx
	mov	DWORD PTR _ap$2[ebp], 0
	cmp	DWORD PTR _chars$4[ebp], -1
	jle	SHORT $LN10@xmlParserV
	mov	edx, DWORD PTR _chars$4[ebp]
	cmp	edx, DWORD PTR _size$6[ebp]
	jge	SHORT $LN10@xmlParserV
	mov	eax, DWORD PTR _prev_size$5[ebp]
	cmp	eax, DWORD PTR _chars$4[ebp]
	jne	SHORT $LN11@xmlParserV
	jmp	SHORT $LN9@xmlParserV
	jmp	SHORT $LN10@xmlParserV
$LN11@xmlParserV:
	mov	ecx, DWORD PTR _chars$4[ebp]
	mov	DWORD PTR _prev_size$5[ebp], ecx
$LN10@xmlParserV:
	cmp	DWORD PTR _chars$4[ebp], -1
	jle	SHORT $LN13@xmlParserV
	mov	edx, DWORD PTR _chars$4[ebp]
	mov	eax, DWORD PTR _size$6[ebp]
	lea	ecx, DWORD PTR [eax+edx+1]
	mov	DWORD PTR _size$6[ebp], ecx
	jmp	SHORT $LN14@xmlParserV
$LN13@xmlParserV:
	mov	edx, DWORD PTR _size$6[ebp]
	add	edx, 100				; 00000064H
	mov	DWORD PTR _size$6[ebp], edx
$LN14@xmlParserV:
	mov	esi, esp
	mov	eax, DWORD PTR _size$6[ebp]
	push	eax
	mov	ecx, DWORD PTR _str$[ebp]
	push	ecx
	call	DWORD PTR _xmlRealloc
	add	esp, 8
	cmp	esi, esp
	call	__RTC_CheckEsp
	mov	DWORD PTR _larger$3[ebp], eax
	cmp	DWORD PTR _larger$3[ebp], 0
	jne	SHORT $LN15@xmlParserV
	jmp	SHORT $LN9@xmlParserV
$LN15@xmlParserV:
	mov	edx, DWORD PTR _larger$3[ebp]
	mov	DWORD PTR _str$[ebp], edx
	jmp	$LN2@xmlParserV
$LN9@xmlParserV:

; 798  :     xmlGenericError(xmlGenericErrorContext, "%s", str);

	mov	esi, esp
	mov	eax, DWORD PTR _str$[ebp]
	push	eax
	push	OFFSET ??_C@_02DKCKIIND@?$CFs@
	call	___xmlGenericErrorContext
	mov	ecx, DWORD PTR [eax]
	push	ecx
	call	___xmlGenericError
	mov	edx, DWORD PTR [eax]
	call	edx
	add	esp, 12					; 0000000cH
	cmp	esi, esp
	call	__RTC_CheckEsp

; 799  :     if (str != NULL)

	cmp	DWORD PTR _str$[ebp], 0
	je	SHORT $LN16@xmlParserV

; 800  : 	xmlFree(str);

	mov	esi, esp
	mov	eax, DWORD PTR _str$[ebp]
	push	eax
	call	DWORD PTR _xmlFree
	add	esp, 4
	cmp	esi, esp
	call	__RTC_CheckEsp
$LN16@xmlParserV:

; 801  : 
; 802  :     if ((ctxt != NULL) && (input != NULL)) {

	cmp	DWORD PTR _ctxt$[ebp], 0
	je	SHORT $LN1@xmlParserV
	cmp	DWORD PTR _input$[ebp], 0
	je	SHORT $LN1@xmlParserV

; 803  : 	xmlParserPrintFileContext(input);

	mov	ecx, DWORD PTR _input$[ebp]
	push	ecx
	call	_xmlParserPrintFileContext
	add	esp, 4
$LN1@xmlParserV:

; 804  :     }
; 805  : }

	pop	edi
	pop	esi
	add	esp, 48					; 00000030H
	cmp	ebp, esp
	call	__RTC_CheckEsp
	mov	esp, ebp
	pop	ebp
	ret	0
_xmlParserValidityError ENDP
_TEXT	ENDS
; Function compile flags: /Odtp /RTCsu
; File c:\users\dag\documents\_clients\codeproject authors group\windows on arm\libxml2\libxml2-2.9.9\error.c
; File c:\program files (x86)\windows kits\10\include\10.0.17763.0\ucrt\stdio.h
; File c:\users\dag\documents\_clients\codeproject authors group\windows on arm\libxml2\libxml2-2.9.9\error.c
;	COMDAT _xmlParserWarning
_TEXT	SEGMENT
tv161 = -48						; size = 4
__Result$1 = -44					; size = 4
__Format$ = -40						; size = 4
_ap$2 = -36						; size = 4
_larger$3 = -32						; size = 4
_chars$4 = -28						; size = 4
_prev_size$5 = -24					; size = 4
_size$6 = -20						; size = 4
_str$ = -16						; size = 4
_cur$ = -12						; size = 4
_input$ = -8						; size = 4
_ctxt$ = -4						; size = 4
_ctx$ = 8						; size = 4
_msg$ = 12						; size = 4
_xmlParserWarning PROC					; COMDAT

; 725  : {

	push	ebp
	mov	ebp, esp
	sub	esp, 48					; 00000030H
	push	esi
	push	edi
	lea	edi, DWORD PTR [ebp-48]
	mov	ecx, 12					; 0000000cH
	mov	eax, -858993460				; ccccccccH
	rep stosd
	mov	ecx, OFFSET __67926DEE_error@c
	call	@__CheckForDebuggerJustMyCode@4

; 726  :     xmlParserCtxtPtr ctxt = (xmlParserCtxtPtr) ctx;

	mov	eax, DWORD PTR _ctx$[ebp]
	mov	DWORD PTR _ctxt$[ebp], eax

; 727  :     xmlParserInputPtr input = NULL;

	mov	DWORD PTR _input$[ebp], 0

; 728  :     xmlParserInputPtr cur = NULL;

	mov	DWORD PTR _cur$[ebp], 0

; 729  :     char * str;
; 730  : 
; 731  :     if (ctxt != NULL) {

	cmp	DWORD PTR _ctxt$[ebp], 0
	je	SHORT $LN4@xmlParserW

; 732  : 	input = ctxt->input;

	mov	ecx, DWORD PTR _ctxt$[ebp]
	mov	edx, DWORD PTR [ecx+36]
	mov	DWORD PTR _input$[ebp], edx

; 733  : 	if ((input != NULL) && (input->filename == NULL) &&

	cmp	DWORD PTR _input$[ebp], 0
	je	SHORT $LN5@xmlParserW
	mov	eax, DWORD PTR _input$[ebp]
	cmp	DWORD PTR [eax+4], 0
	jne	SHORT $LN5@xmlParserW
	mov	ecx, DWORD PTR _ctxt$[ebp]
	cmp	DWORD PTR [ecx+40], 1
	jle	SHORT $LN5@xmlParserW

; 734  : 	    (ctxt->inputNr > 1)) {
; 735  : 	    cur = input;

	mov	edx, DWORD PTR _input$[ebp]
	mov	DWORD PTR _cur$[ebp], edx

; 736  : 	    input = ctxt->inputTab[ctxt->inputNr - 2];

	mov	eax, DWORD PTR _ctxt$[ebp]
	mov	ecx, DWORD PTR [eax+40]
	mov	edx, DWORD PTR _ctxt$[ebp]
	mov	eax, DWORD PTR [edx+48]
	mov	ecx, DWORD PTR [eax+ecx*4-8]
	mov	DWORD PTR _input$[ebp], ecx
$LN5@xmlParserW:

; 737  : 	}
; 738  : 	xmlParserPrintFileInfo(input);

	mov	edx, DWORD PTR _input$[ebp]
	push	edx
	call	_xmlParserPrintFileInfo
	add	esp, 4
$LN4@xmlParserW:

; 739  :     }
; 740  : 
; 741  :     xmlGenericError(xmlGenericErrorContext, "warning: ");

	mov	esi, esp
	push	OFFSET ??_C@_09GFHECBDK@warning?3?5@
	call	___xmlGenericErrorContext
	mov	eax, DWORD PTR [eax]
	push	eax
	call	___xmlGenericError
	mov	ecx, DWORD PTR [eax]
	call	ecx
	add	esp, 8
	cmp	esi, esp
	call	__RTC_CheckEsp

; 742  :     XML_GET_VAR_STR(msg, str);

	mov	DWORD PTR _prev_size$5[ebp], -1
	mov	esi, esp
	push	150					; 00000096H
	call	DWORD PTR _xmlMalloc
	add	esp, 4
	cmp	esi, esp
	call	__RTC_CheckEsp
	mov	DWORD PTR _str$[ebp], eax
	cmp	DWORD PTR _str$[ebp], 0
	je	$LN6@xmlParserW
	mov	DWORD PTR _size$6[ebp], 150		; 00000096H
$LN2@xmlParserW:
	cmp	DWORD PTR _size$6[ebp], 64000		; 0000fa00H
	jge	$LN6@xmlParserW
	lea	edx, DWORD PTR _msg$[ebp+4]
	mov	DWORD PTR _ap$2[ebp], edx
	mov	eax, DWORD PTR _msg$[ebp]
	mov	DWORD PTR __Format$[ebp], eax
; File c:\program files (x86)\windows kits\10\include\10.0.17763.0\ucrt\stdio.h

; 1440 :         int const _Result = __stdio_common_vsprintf(

	mov	esi, esp
	mov	ecx, DWORD PTR _ap$2[ebp]
	push	ecx
	push	0
	mov	edx, DWORD PTR __Format$[ebp]
	push	edx
	mov	eax, DWORD PTR _size$6[ebp]
	push	eax
	mov	ecx, DWORD PTR _str$[ebp]
	push	ecx
	call	___local_stdio_printf_options
	mov	edx, DWORD PTR [eax]
	or	edx, 2
	mov	eax, DWORD PTR [eax+4]
	push	eax
	push	edx
	call	DWORD PTR __imp____stdio_common_vsprintf
	add	esp, 28					; 0000001cH
	cmp	esi, esp
	call	__RTC_CheckEsp
	mov	DWORD PTR __Result$1[ebp], eax

; 1441 :             _CRT_INTERNAL_LOCAL_PRINTF_OPTIONS | _CRT_INTERNAL_PRINTF_STANDARD_SNPRINTF_BEHAVIOR,
; 1442 :             _Buffer, _BufferCount, _Format, NULL, _ArgList);
; 1443 : 
; 1444 :         return _Result < 0 ? -1 : _Result;

	cmp	DWORD PTR __Result$1[ebp], 0
	jge	SHORT $LN19@xmlParserW
	mov	DWORD PTR tv161[ebp], -1
	jmp	SHORT $LN17@xmlParserW
$LN19@xmlParserW:
	mov	ecx, DWORD PTR __Result$1[ebp]
	mov	DWORD PTR tv161[ebp], ecx
$LN17@xmlParserW:
; File c:\users\dag\documents\_clients\codeproject authors group\windows on arm\libxml2\libxml2-2.9.9\error.c

; 742  :     XML_GET_VAR_STR(msg, str);

	mov	edx, DWORD PTR tv161[ebp]
	mov	DWORD PTR _chars$4[ebp], edx
	mov	DWORD PTR _ap$2[ebp], 0
	cmp	DWORD PTR _chars$4[ebp], -1
	jle	SHORT $LN7@xmlParserW
	mov	eax, DWORD PTR _chars$4[ebp]
	cmp	eax, DWORD PTR _size$6[ebp]
	jge	SHORT $LN7@xmlParserW
	mov	ecx, DWORD PTR _prev_size$5[ebp]
	cmp	ecx, DWORD PTR _chars$4[ebp]
	jne	SHORT $LN8@xmlParserW
	jmp	SHORT $LN6@xmlParserW
	jmp	SHORT $LN7@xmlParserW
$LN8@xmlParserW:
	mov	edx, DWORD PTR _chars$4[ebp]
	mov	DWORD PTR _prev_size$5[ebp], edx
$LN7@xmlParserW:
	cmp	DWORD PTR _chars$4[ebp], -1
	jle	SHORT $LN10@xmlParserW
	mov	eax, DWORD PTR _chars$4[ebp]
	mov	ecx, DWORD PTR _size$6[ebp]
	lea	edx, DWORD PTR [ecx+eax+1]
	mov	DWORD PTR _size$6[ebp], edx
	jmp	SHORT $LN11@xmlParserW
$LN10@xmlParserW:
	mov	eax, DWORD PTR _size$6[ebp]
	add	eax, 100				; 00000064H
	mov	DWORD PTR _size$6[ebp], eax
$LN11@xmlParserW:
	mov	esi, esp
	mov	ecx, DWORD PTR _size$6[ebp]
	push	ecx
	mov	edx, DWORD PTR _str$[ebp]
	push	edx
	call	DWORD PTR _xmlRealloc
	add	esp, 8
	cmp	esi, esp
	call	__RTC_CheckEsp
	mov	DWORD PTR _larger$3[ebp], eax
	cmp	DWORD PTR _larger$3[ebp], 0
	jne	SHORT $LN12@xmlParserW
	jmp	SHORT $LN6@xmlParserW
$LN12@xmlParserW:
	mov	eax, DWORD PTR _larger$3[ebp]
	mov	DWORD PTR _str$[ebp], eax
	jmp	$LN2@xmlParserW
$LN6@xmlParserW:

; 743  :     xmlGenericError(xmlGenericErrorContext, "%s", str);

	mov	esi, esp
	mov	ecx, DWORD PTR _str$[ebp]
	push	ecx
	push	OFFSET ??_C@_02DKCKIIND@?$CFs@
	call	___xmlGenericErrorContext
	mov	edx, DWORD PTR [eax]
	push	edx
	call	___xmlGenericError
	mov	eax, DWORD PTR [eax]
	call	eax
	add	esp, 12					; 0000000cH
	cmp	esi, esp
	call	__RTC_CheckEsp

; 744  :     if (str != NULL)

	cmp	DWORD PTR _str$[ebp], 0
	je	SHORT $LN13@xmlParserW

; 745  : 	xmlFree(str);

	mov	esi, esp
	mov	ecx, DWORD PTR _str$[ebp]
	push	ecx
	call	DWORD PTR _xmlFree
	add	esp, 4
	cmp	esi, esp
	call	__RTC_CheckEsp
$LN13@xmlParserW:

; 746  : 
; 747  :     if (ctxt != NULL) {

	cmp	DWORD PTR _ctxt$[ebp], 0
	je	SHORT $LN1@xmlParserW

; 748  : 	xmlParserPrintFileContext(input);

	mov	edx, DWORD PTR _input$[ebp]
	push	edx
	call	_xmlParserPrintFileContext
	add	esp, 4

; 749  : 	if (cur != NULL) {

	cmp	DWORD PTR _cur$[ebp], 0
	je	SHORT $LN1@xmlParserW

; 750  : 	    xmlParserPrintFileInfo(cur);

	mov	eax, DWORD PTR _cur$[ebp]
	push	eax
	call	_xmlParserPrintFileInfo
	add	esp, 4

; 751  : 	    xmlGenericError(xmlGenericErrorContext, "\n");

	mov	esi, esp
	push	OFFSET ??_C@_01EEMJAFIK@?6@
	call	___xmlGenericErrorContext
	mov	ecx, DWORD PTR [eax]
	push	ecx
	call	___xmlGenericError
	mov	edx, DWORD PTR [eax]
	call	edx
	add	esp, 8
	cmp	esi, esp
	call	__RTC_CheckEsp

; 752  : 	    xmlParserPrintFileContext(cur);

	mov	eax, DWORD PTR _cur$[ebp]
	push	eax
	call	_xmlParserPrintFileContext
	add	esp, 4
$LN1@xmlParserW:

; 753  : 	}
; 754  :     }
; 755  : }

	pop	edi
	pop	esi
	add	esp, 48					; 00000030H
	cmp	ebp, esp
	call	__RTC_CheckEsp
	mov	esp, ebp
	pop	ebp
	ret	0
_xmlParserWarning ENDP
_TEXT	ENDS
; Function compile flags: /Odtp /RTCsu
; File c:\users\dag\documents\_clients\codeproject authors group\windows on arm\libxml2\libxml2-2.9.9\error.c
; File c:\program files (x86)\windows kits\10\include\10.0.17763.0\ucrt\stdio.h
; File c:\users\dag\documents\_clients\codeproject authors group\windows on arm\libxml2\libxml2-2.9.9\error.c
;	COMDAT _xmlParserError
_TEXT	SEGMENT
tv161 = -48						; size = 4
__Result$1 = -44					; size = 4
__Format$ = -40						; size = 4
_ap$2 = -36						; size = 4
_larger$3 = -32						; size = 4
_chars$4 = -28						; size = 4
_prev_size$5 = -24					; size = 4
_size$6 = -20						; size = 4
_str$ = -16						; size = 4
_cur$ = -12						; size = 4
_input$ = -8						; size = 4
_ctxt$ = -4						; size = 4
_ctx$ = 8						; size = 4
_msg$ = 12						; size = 4
_xmlParserError PROC					; COMDAT

; 682  : {

	push	ebp
	mov	ebp, esp
	sub	esp, 48					; 00000030H
	push	esi
	push	edi
	lea	edi, DWORD PTR [ebp-48]
	mov	ecx, 12					; 0000000cH
	mov	eax, -858993460				; ccccccccH
	rep stosd
	mov	ecx, OFFSET __67926DEE_error@c
	call	@__CheckForDebuggerJustMyCode@4

; 683  :     xmlParserCtxtPtr ctxt = (xmlParserCtxtPtr) ctx;

	mov	eax, DWORD PTR _ctx$[ebp]
	mov	DWORD PTR _ctxt$[ebp], eax

; 684  :     xmlParserInputPtr input = NULL;

	mov	DWORD PTR _input$[ebp], 0

; 685  :     xmlParserInputPtr cur = NULL;

	mov	DWORD PTR _cur$[ebp], 0

; 686  :     char * str;
; 687  : 
; 688  :     if (ctxt != NULL) {

	cmp	DWORD PTR _ctxt$[ebp], 0
	je	SHORT $LN4@xmlParserE

; 689  : 	input = ctxt->input;

	mov	ecx, DWORD PTR _ctxt$[ebp]
	mov	edx, DWORD PTR [ecx+36]
	mov	DWORD PTR _input$[ebp], edx

; 690  : 	if ((input != NULL) && (input->filename == NULL) &&

	cmp	DWORD PTR _input$[ebp], 0
	je	SHORT $LN5@xmlParserE
	mov	eax, DWORD PTR _input$[ebp]
	cmp	DWORD PTR [eax+4], 0
	jne	SHORT $LN5@xmlParserE
	mov	ecx, DWORD PTR _ctxt$[ebp]
	cmp	DWORD PTR [ecx+40], 1
	jle	SHORT $LN5@xmlParserE

; 691  : 	    (ctxt->inputNr > 1)) {
; 692  : 	    cur = input;

	mov	edx, DWORD PTR _input$[ebp]
	mov	DWORD PTR _cur$[ebp], edx

; 693  : 	    input = ctxt->inputTab[ctxt->inputNr - 2];

	mov	eax, DWORD PTR _ctxt$[ebp]
	mov	ecx, DWORD PTR [eax+40]
	mov	edx, DWORD PTR _ctxt$[ebp]
	mov	eax, DWORD PTR [edx+48]
	mov	ecx, DWORD PTR [eax+ecx*4-8]
	mov	DWORD PTR _input$[ebp], ecx
$LN5@xmlParserE:

; 694  : 	}
; 695  : 	xmlParserPrintFileInfo(input);

	mov	edx, DWORD PTR _input$[ebp]
	push	edx
	call	_xmlParserPrintFileInfo
	add	esp, 4
$LN4@xmlParserE:

; 696  :     }
; 697  : 
; 698  :     xmlGenericError(xmlGenericErrorContext, "error: ");

	mov	esi, esp
	push	OFFSET ??_C@_07FJOHCPOO@error?3?5@
	call	___xmlGenericErrorContext
	mov	eax, DWORD PTR [eax]
	push	eax
	call	___xmlGenericError
	mov	ecx, DWORD PTR [eax]
	call	ecx
	add	esp, 8
	cmp	esi, esp
	call	__RTC_CheckEsp

; 699  :     XML_GET_VAR_STR(msg, str);

	mov	DWORD PTR _prev_size$5[ebp], -1
	mov	esi, esp
	push	150					; 00000096H
	call	DWORD PTR _xmlMalloc
	add	esp, 4
	cmp	esi, esp
	call	__RTC_CheckEsp
	mov	DWORD PTR _str$[ebp], eax
	cmp	DWORD PTR _str$[ebp], 0
	je	$LN6@xmlParserE
	mov	DWORD PTR _size$6[ebp], 150		; 00000096H
$LN2@xmlParserE:
	cmp	DWORD PTR _size$6[ebp], 64000		; 0000fa00H
	jge	$LN6@xmlParserE
	lea	edx, DWORD PTR _msg$[ebp+4]
	mov	DWORD PTR _ap$2[ebp], edx
	mov	eax, DWORD PTR _msg$[ebp]
	mov	DWORD PTR __Format$[ebp], eax
; File c:\program files (x86)\windows kits\10\include\10.0.17763.0\ucrt\stdio.h

; 1440 :         int const _Result = __stdio_common_vsprintf(

	mov	esi, esp
	mov	ecx, DWORD PTR _ap$2[ebp]
	push	ecx
	push	0
	mov	edx, DWORD PTR __Format$[ebp]
	push	edx
	mov	eax, DWORD PTR _size$6[ebp]
	push	eax
	mov	ecx, DWORD PTR _str$[ebp]
	push	ecx
	call	___local_stdio_printf_options
	mov	edx, DWORD PTR [eax]
	or	edx, 2
	mov	eax, DWORD PTR [eax+4]
	push	eax
	push	edx
	call	DWORD PTR __imp____stdio_common_vsprintf
	add	esp, 28					; 0000001cH
	cmp	esi, esp
	call	__RTC_CheckEsp
	mov	DWORD PTR __Result$1[ebp], eax

; 1441 :             _CRT_INTERNAL_LOCAL_PRINTF_OPTIONS | _CRT_INTERNAL_PRINTF_STANDARD_SNPRINTF_BEHAVIOR,
; 1442 :             _Buffer, _BufferCount, _Format, NULL, _ArgList);
; 1443 : 
; 1444 :         return _Result < 0 ? -1 : _Result;

	cmp	DWORD PTR __Result$1[ebp], 0
	jge	SHORT $LN19@xmlParserE
	mov	DWORD PTR tv161[ebp], -1
	jmp	SHORT $LN17@xmlParserE
$LN19@xmlParserE:
	mov	ecx, DWORD PTR __Result$1[ebp]
	mov	DWORD PTR tv161[ebp], ecx
$LN17@xmlParserE:
; File c:\users\dag\documents\_clients\codeproject authors group\windows on arm\libxml2\libxml2-2.9.9\error.c

; 699  :     XML_GET_VAR_STR(msg, str);

	mov	edx, DWORD PTR tv161[ebp]
	mov	DWORD PTR _chars$4[ebp], edx
	mov	DWORD PTR _ap$2[ebp], 0
	cmp	DWORD PTR _chars$4[ebp], -1
	jle	SHORT $LN7@xmlParserE
	mov	eax, DWORD PTR _chars$4[ebp]
	cmp	eax, DWORD PTR _size$6[ebp]
	jge	SHORT $LN7@xmlParserE
	mov	ecx, DWORD PTR _prev_size$5[ebp]
	cmp	ecx, DWORD PTR _chars$4[ebp]
	jne	SHORT $LN8@xmlParserE
	jmp	SHORT $LN6@xmlParserE
	jmp	SHORT $LN7@xmlParserE
$LN8@xmlParserE:
	mov	edx, DWORD PTR _chars$4[ebp]
	mov	DWORD PTR _prev_size$5[ebp], edx
$LN7@xmlParserE:
	cmp	DWORD PTR _chars$4[ebp], -1
	jle	SHORT $LN10@xmlParserE
	mov	eax, DWORD PTR _chars$4[ebp]
	mov	ecx, DWORD PTR _size$6[ebp]
	lea	edx, DWORD PTR [ecx+eax+1]
	mov	DWORD PTR _size$6[ebp], edx
	jmp	SHORT $LN11@xmlParserE
$LN10@xmlParserE:
	mov	eax, DWORD PTR _size$6[ebp]
	add	eax, 100				; 00000064H
	mov	DWORD PTR _size$6[ebp], eax
$LN11@xmlParserE:
	mov	esi, esp
	mov	ecx, DWORD PTR _size$6[ebp]
	push	ecx
	mov	edx, DWORD PTR _str$[ebp]
	push	edx
	call	DWORD PTR _xmlRealloc
	add	esp, 8
	cmp	esi, esp
	call	__RTC_CheckEsp
	mov	DWORD PTR _larger$3[ebp], eax
	cmp	DWORD PTR _larger$3[ebp], 0
	jne	SHORT $LN12@xmlParserE
	jmp	SHORT $LN6@xmlParserE
$LN12@xmlParserE:
	mov	eax, DWORD PTR _larger$3[ebp]
	mov	DWORD PTR _str$[ebp], eax
	jmp	$LN2@xmlParserE
$LN6@xmlParserE:

; 700  :     xmlGenericError(xmlGenericErrorContext, "%s", str);

	mov	esi, esp
	mov	ecx, DWORD PTR _str$[ebp]
	push	ecx
	push	OFFSET ??_C@_02DKCKIIND@?$CFs@
	call	___xmlGenericErrorContext
	mov	edx, DWORD PTR [eax]
	push	edx
	call	___xmlGenericError
	mov	eax, DWORD PTR [eax]
	call	eax
	add	esp, 12					; 0000000cH
	cmp	esi, esp
	call	__RTC_CheckEsp

; 701  :     if (str != NULL)

	cmp	DWORD PTR _str$[ebp], 0
	je	SHORT $LN13@xmlParserE

; 702  : 	xmlFree(str);

	mov	esi, esp
	mov	ecx, DWORD PTR _str$[ebp]
	push	ecx
	call	DWORD PTR _xmlFree
	add	esp, 4
	cmp	esi, esp
	call	__RTC_CheckEsp
$LN13@xmlParserE:

; 703  : 
; 704  :     if (ctxt != NULL) {

	cmp	DWORD PTR _ctxt$[ebp], 0
	je	SHORT $LN1@xmlParserE

; 705  : 	xmlParserPrintFileContext(input);

	mov	edx, DWORD PTR _input$[ebp]
	push	edx
	call	_xmlParserPrintFileContext
	add	esp, 4

; 706  : 	if (cur != NULL) {

	cmp	DWORD PTR _cur$[ebp], 0
	je	SHORT $LN1@xmlParserE

; 707  : 	    xmlParserPrintFileInfo(cur);

	mov	eax, DWORD PTR _cur$[ebp]
	push	eax
	call	_xmlParserPrintFileInfo
	add	esp, 4

; 708  : 	    xmlGenericError(xmlGenericErrorContext, "\n");

	mov	esi, esp
	push	OFFSET ??_C@_01EEMJAFIK@?6@
	call	___xmlGenericErrorContext
	mov	ecx, DWORD PTR [eax]
	push	ecx
	call	___xmlGenericError
	mov	edx, DWORD PTR [eax]
	call	edx
	add	esp, 8
	cmp	esi, esp
	call	__RTC_CheckEsp

; 709  : 	    xmlParserPrintFileContext(cur);

	mov	eax, DWORD PTR _cur$[ebp]
	push	eax
	call	_xmlParserPrintFileContext
	add	esp, 4
$LN1@xmlParserE:

; 710  : 	}
; 711  :     }
; 712  : }

	pop	edi
	pop	esi
	add	esp, 48					; 00000030H
	cmp	ebp, esp
	call	__RTC_CheckEsp
	mov	esp, ebp
	pop	ebp
	ret	0
_xmlParserError ENDP
_TEXT	ENDS
; Function compile flags: /Odtp /RTCsu
; File c:\users\dag\documents\_clients\codeproject authors group\windows on arm\libxml2\libxml2-2.9.9\error.c
;	COMDAT _xmlSetStructuredErrorFunc
_TEXT	SEGMENT
_ctx$ = 8						; size = 4
_handler$ = 12						; size = 4
_xmlSetStructuredErrorFunc PROC				; COMDAT

; 134  : xmlSetStructuredErrorFunc(void *ctx, xmlStructuredErrorFunc handler) {

	push	ebp
	mov	ebp, esp
	mov	ecx, OFFSET __67926DEE_error@c
	call	@__CheckForDebuggerJustMyCode@4

; 135  :     xmlStructuredErrorContext = ctx;

	call	___xmlStructuredErrorContext
	mov	ecx, DWORD PTR _ctx$[ebp]
	mov	DWORD PTR [eax], ecx

; 136  :     xmlStructuredError = handler;

	call	___xmlStructuredError
	mov	edx, DWORD PTR _handler$[ebp]
	mov	DWORD PTR [eax], edx

; 137  : }

	cmp	ebp, esp
	call	__RTC_CheckEsp
	pop	ebp
	ret	0
_xmlSetStructuredErrorFunc ENDP
_TEXT	ENDS
; Function compile flags: /Odtp /RTCsu
; File c:\users\dag\documents\_clients\codeproject authors group\windows on arm\libxml2\libxml2-2.9.9\error.c
;	COMDAT _initGenericErrorDefaultFunc
_TEXT	SEGMENT
_handler$ = 8						; size = 4
_initGenericErrorDefaultFunc PROC			; COMDAT

; 91   : {

	push	ebp
	mov	ebp, esp
	mov	ecx, OFFSET __67926DEE_error@c
	call	@__CheckForDebuggerJustMyCode@4

; 92   :     if (handler == NULL)

	cmp	DWORD PTR _handler$[ebp], 0
	jne	SHORT $LN2@initGeneri

; 93   :         xmlGenericError = xmlGenericErrorDefaultFunc;

	call	___xmlGenericError
	mov	DWORD PTR [eax], OFFSET _xmlGenericErrorDefaultFunc
	jmp	SHORT $LN1@initGeneri
$LN2@initGeneri:

; 94   :     else
; 95   :         xmlGenericError = (*handler);

	call	___xmlGenericError
	mov	ecx, DWORD PTR _handler$[ebp]
	mov	edx, DWORD PTR [ecx]
	mov	DWORD PTR [eax], edx
$LN1@initGeneri:

; 96   : }

	cmp	ebp, esp
	call	__RTC_CheckEsp
	pop	ebp
	ret	0
_initGenericErrorDefaultFunc ENDP
_TEXT	ENDS
; Function compile flags: /Odtp /RTCsu
; File c:\users\dag\documents\_clients\codeproject authors group\windows on arm\libxml2\libxml2-2.9.9\error.c
;	COMDAT _xmlSetGenericErrorFunc
_TEXT	SEGMENT
_ctx$ = 8						; size = 4
_handler$ = 12						; size = 4
_xmlSetGenericErrorFunc PROC				; COMDAT

; 113  : xmlSetGenericErrorFunc(void *ctx, xmlGenericErrorFunc handler) {

	push	ebp
	mov	ebp, esp
	mov	ecx, OFFSET __67926DEE_error@c
	call	@__CheckForDebuggerJustMyCode@4

; 114  :     xmlGenericErrorContext = ctx;

	call	___xmlGenericErrorContext
	mov	ecx, DWORD PTR _ctx$[ebp]
	mov	DWORD PTR [eax], ecx

; 115  :     if (handler != NULL)

	cmp	DWORD PTR _handler$[ebp], 0
	je	SHORT $LN2@xmlSetGene

; 116  : 	xmlGenericError = handler;

	call	___xmlGenericError
	mov	edx, DWORD PTR _handler$[ebp]
	mov	DWORD PTR [eax], edx
	jmp	SHORT $LN1@xmlSetGene
$LN2@xmlSetGene:

; 117  :     else
; 118  : 	xmlGenericError = xmlGenericErrorDefaultFunc;

	call	___xmlGenericError
	mov	DWORD PTR [eax], OFFSET _xmlGenericErrorDefaultFunc
$LN1@xmlSetGene:

; 119  : }

	cmp	ebp, esp
	call	__RTC_CheckEsp
	pop	ebp
	ret	0
_xmlSetGenericErrorFunc ENDP
_TEXT	ENDS
; Function compile flags: /Odtp /RTCsu
; File c:\program files (x86)\windows kits\10\include\10.0.17763.0\ucrt\stdio.h
;	COMDAT _fprintf
_TEXT	SEGMENT
__Format$ = -12						; size = 4
__ArgList$ = -8						; size = 4
__Result$ = -4						; size = 4
__Stream$ = 8						; size = 4
__Format$ = 12						; size = 4
_fprintf PROC						; COMDAT

; 835  :     {

	push	ebp
	mov	ebp, esp
	sub	esp, 12					; 0000000cH
	push	esi
	mov	DWORD PTR [ebp-12], -858993460		; ccccccccH
	mov	DWORD PTR [ebp-8], -858993460		; ccccccccH
	mov	DWORD PTR [ebp-4], -858993460		; ccccccccH
	mov	ecx, OFFSET __A452D4A0_stdio@h
	call	@__CheckForDebuggerJustMyCode@4

; 836  :         int _Result;
; 837  :         va_list _ArgList;
; 838  :         __crt_va_start(_ArgList, _Format);

	lea	eax, DWORD PTR __Format$[ebp+4]
	mov	DWORD PTR __ArgList$[ebp], eax

; 839  :         _Result = _vfprintf_l(_Stream, _Format, NULL, _ArgList);

	mov	ecx, DWORD PTR __Format$[ebp]
	mov	DWORD PTR __Format$[ebp], ecx

; 643  :         return __stdio_common_vfprintf(_CRT_INTERNAL_LOCAL_PRINTF_OPTIONS, _Stream, _Format, _Locale, _ArgList);

	mov	esi, esp
	mov	edx, DWORD PTR __ArgList$[ebp]
	push	edx
	push	0
	mov	eax, DWORD PTR __Format$[ebp]
	push	eax
	mov	ecx, DWORD PTR __Stream$[ebp]
	push	ecx
	call	___local_stdio_printf_options
	mov	edx, DWORD PTR [eax+4]
	push	edx
	mov	eax, DWORD PTR [eax]
	push	eax
	call	DWORD PTR __imp____stdio_common_vfprintf
	add	esp, 24					; 00000018H
	cmp	esi, esp
	call	__RTC_CheckEsp

; 839  :         _Result = _vfprintf_l(_Stream, _Format, NULL, _ArgList);

	mov	DWORD PTR __Result$[ebp], eax

; 840  :         __crt_va_end(_ArgList);

	mov	DWORD PTR __ArgList$[ebp], 0

; 841  :         return _Result;

	mov	eax, DWORD PTR __Result$[ebp]

; 842  :     }

	pop	esi
	add	esp, 12					; 0000000cH
	cmp	ebp, esp
	call	__RTC_CheckEsp
	mov	esp, ebp
	pop	ebp
	ret	0
_fprintf ENDP
_TEXT	ENDS
; Function compile flags: /Odtp /RTCsu
; File c:\program files (x86)\windows kits\10\include\10.0.17763.0\ucrt\corecrt_stdio_config.h
;	COMDAT ___local_stdio_printf_options
_TEXT	SEGMENT
___local_stdio_printf_options PROC			; COMDAT

; 86   :     {

	push	ebp
	mov	ebp, esp
	mov	ecx, OFFSET __2CC6E67D_corecrt_stdio_config@h
	call	@__CheckForDebuggerJustMyCode@4

; 87   :         static unsigned __int64 _OptionsStorage;
; 88   :         return &_OptionsStorage;

	mov	eax, OFFSET ?_OptionsStorage@?1??__local_stdio_printf_options@@9@9 ; `__local_stdio_printf_options'::`2'::_OptionsStorage

; 89   :     }

	cmp	ebp, esp
	call	__RTC_CheckEsp
	pop	ebp
	ret	0
___local_stdio_printf_options ENDP
_TEXT	ENDS
END
