; Listing generated by Microsoft (R) Optimizing Compiler Version 19.16.27027.1 

	TITLE	C:\Users\DAG\Documents\_Clients\CodeProject Authors Group\Windows on ARM\libxml2\libxml2-2.9.9\globals.c
	.686P
	.XMM
	include listing.inc
	.model	flat

INCLUDELIB MSVCRTD
INCLUDELIB OLDNAMES

PUBLIC	_xmlMalloc
PUBLIC	_xmlMallocAtomic
PUBLIC	_xmlRealloc
PUBLIC	_xmlFree
PUBLIC	_xmlMemStrdup
PUBLIC	_xmlParserVersion
PUBLIC	??_C@_0CB@CPJCIMMP@20909?9GITv2?49?49?9rc2?92?9g7c4949af@ ; `string'
PUBLIC	_xmlBufferAllocScheme
PUBLIC	_xmlDefaultBufferSize
PUBLIC	_oldXMLWDcompatibility
PUBLIC	_xmlParserDebugEntities
PUBLIC	_xmlDoValidityCheckingDefaultValue
PUBLIC	_xmlGetWarningsDefaultValue
PUBLIC	_xmlLoadExtDtdDefaultValue
PUBLIC	_xmlPedanticParserDefaultValue
PUBLIC	_xmlLineNumbersDefaultValue
PUBLIC	_xmlKeepBlanksDefaultValue
PUBLIC	_xmlSubstituteEntitiesDefaultValue
PUBLIC	_xmlRegisterNodeDefaultValue
PUBLIC	_xmlDeregisterNodeDefaultValue
PUBLIC	_xmlParserInputBufferCreateFilenameValue
PUBLIC	_xmlOutputBufferCreateFilenameValue
PUBLIC	_xmlGenericError
PUBLIC	_xmlStructuredError
PUBLIC	_xmlGenericErrorContext
PUBLIC	_xmlStructuredErrorContext
PUBLIC	_xmlIndentTreeOutput
PUBLIC	_xmlTreeIndentString
PUBLIC	??_C@_02KNHHEEKP@?5?5@				; `string'
PUBLIC	_xmlSaveNoEmptyTags
PUBLIC	_xmlDefaultSAXHandler
PUBLIC	_xmlDefaultSAXLocator
PUBLIC	_htmlDefaultSAXHandler
PUBLIC	_docbDefaultSAXHandler
EXTRN	_xmlSAX2GetPublicId:PROC
EXTRN	_xmlSAX2GetSystemId:PROC
EXTRN	_xmlSAX2SetDocumentLocator:PROC
EXTRN	_xmlSAX2GetLineNumber:PROC
EXTRN	_xmlSAX2GetColumnNumber:PROC
EXTRN	_xmlSAX2IsStandalone:PROC
EXTRN	_xmlSAX2HasInternalSubset:PROC
EXTRN	_xmlSAX2HasExternalSubset:PROC
EXTRN	_xmlSAX2InternalSubset:PROC
EXTRN	_xmlSAX2ExternalSubset:PROC
EXTRN	_xmlSAX2GetEntity:PROC
EXTRN	_xmlSAX2GetParameterEntity:PROC
EXTRN	_xmlSAX2ResolveEntity:PROC
EXTRN	_xmlSAX2EntityDecl:PROC
EXTRN	_xmlSAX2AttributeDecl:PROC
EXTRN	_xmlSAX2ElementDecl:PROC
EXTRN	_xmlSAX2NotationDecl:PROC
EXTRN	_xmlSAX2UnparsedEntityDecl:PROC
EXTRN	_xmlSAX2StartDocument:PROC
EXTRN	_xmlSAX2EndDocument:PROC
EXTRN	_xmlSAX2StartElement:PROC
EXTRN	_xmlSAX2EndElement:PROC
EXTRN	_xmlSAX2Reference:PROC
EXTRN	_xmlSAX2Characters:PROC
EXTRN	_xmlSAX2IgnorableWhitespace:PROC
EXTRN	_xmlSAX2ProcessingInstruction:PROC
EXTRN	_xmlSAX2Comment:PROC
EXTRN	_xmlSAX2CDataBlock:PROC
EXTRN	_xmlGenericErrorDefaultFunc:PROC
EXTRN	_malloc:PROC
EXTRN	_free:PROC
EXTRN	_realloc:PROC
EXTRN	_xmlParserError:PROC
EXTRN	_xmlParserWarning:PROC
_BSS	SEGMENT
_oldXMLWDcompatibility DD 01H DUP (?)
_xmlParserDebugEntities DD 01H DUP (?)
_xmlDoValidityCheckingDefaultValue DD 01H DUP (?)
_xmlLoadExtDtdDefaultValue DD 01H DUP (?)
_xmlPedanticParserDefaultValue DD 01H DUP (?)
_xmlLineNumbersDefaultValue DD 01H DUP (?)
_xmlSubstituteEntitiesDefaultValue DD 01H DUP (?)
_xmlRegisterNodeDefaultValue DD 01H DUP (?)
_xmlDeregisterNodeDefaultValue DD 01H DUP (?)
_xmlParserInputBufferCreateFilenameValue DD 01H DUP (?)
_xmlOutputBufferCreateFilenameValue DD 01H DUP (?)
_xmlStructuredError DD 01H DUP (?)
_xmlGenericErrorContext DD 01H DUP (?)
_xmlStructuredErrorContext DD 01H DUP (?)
_BSS	ENDS
_DATA	SEGMENT
COMM	_xmlLastError:BYTE:034H
_DATA	ENDS
_BSS	SEGMENT
_xmlSaveNoEmptyTags DD 01H DUP (?)
_BSS	ENDS
_DATA	SEGMENT
COMM	_forbiddenExp:DWORD
COMM	_emptyExp:DWORD
_DATA	ENDS
msvcjmc	SEGMENT
__188180DA_corecrt_math@h DB 01H
__2CC6E67D_corecrt_stdio_config@h DB 01H
__05476D76_corecrt_wstdio@h DB 01H
__A452D4A0_stdio@h DB 01H
__4384A2D9_corecrt_memcpy_s@h DB 01H
__4E51A221_corecrt_wstring@h DB 01H
__2140C079_string@h DB 01H
__DB69A600_globals@c DB 01H
msvcjmc	ENDS
;	COMDAT ??_C@_02KNHHEEKP@?5?5@
CONST	SEGMENT
??_C@_02KNHHEEKP@?5?5@ DB '  ', 00H			; `string'
CONST	ENDS
;	COMDAT ??_C@_0CB@CPJCIMMP@20909?9GITv2?49?49?9rc2?92?9g7c4949af@
CONST	SEGMENT
??_C@_0CB@CPJCIMMP@20909?9GITv2?49?49?9rc2?92?9g7c4949af@ DB '20909-GITv2'
	DB	'.9.9-rc2-2-g7c4949afa', 00H			; `string'
CONST	ENDS
_DATA	SEGMENT
_xmlMalloc DD	FLAT:_malloc
_xmlMallocAtomic DD FLAT:_malloc
_xmlRealloc DD	FLAT:_realloc
_xmlFree DD	FLAT:_free
_xmlMemStrdup DD FLAT:_xmlPosixStrdup
_xmlParserVersion DD FLAT:??_C@_0CB@CPJCIMMP@20909?9GITv2?49?49?9rc2?92?9g7c4949af@
_xmlBufferAllocScheme DD 01H
_xmlDefaultBufferSize DD 01000H
_xmlGetWarningsDefaultValue DD 01H
_xmlKeepBlanksDefaultValue DD 01H
_xmlGenericError DD FLAT:_xmlGenericErrorDefaultFunc
_xmlIndentTreeOutput DD 01H
_xmlTreeIndentString DD FLAT:??_C@_02KNHHEEKP@?5?5@
	ORG $+4
_xmlDefaultSAXHandler DD FLAT:_xmlSAX2InternalSubset
	DD	FLAT:_xmlSAX2IsStandalone
	DD	FLAT:_xmlSAX2HasInternalSubset
	DD	FLAT:_xmlSAX2HasExternalSubset
	DD	FLAT:_xmlSAX2ResolveEntity
	DD	FLAT:_xmlSAX2GetEntity
	DD	FLAT:_xmlSAX2EntityDecl
	DD	FLAT:_xmlSAX2NotationDecl
	DD	FLAT:_xmlSAX2AttributeDecl
	DD	FLAT:_xmlSAX2ElementDecl
	DD	FLAT:_xmlSAX2UnparsedEntityDecl
	DD	FLAT:_xmlSAX2SetDocumentLocator
	DD	FLAT:_xmlSAX2StartDocument
	DD	FLAT:_xmlSAX2EndDocument
	DD	FLAT:_xmlSAX2StartElement
	DD	FLAT:_xmlSAX2EndElement
	DD	FLAT:_xmlSAX2Reference
	DD	FLAT:_xmlSAX2Characters
	DD	FLAT:_xmlSAX2Characters
	DD	FLAT:_xmlSAX2ProcessingInstruction
	DD	FLAT:_xmlSAX2Comment
	DD	FLAT:_xmlParserWarning
	DD	FLAT:_xmlParserError
	DD	FLAT:_xmlParserError
	DD	FLAT:_xmlSAX2GetParameterEntity
	DD	FLAT:_xmlSAX2CDataBlock
	DD	FLAT:_xmlSAX2ExternalSubset
	DD	00H
_xmlDefaultSAXLocator DD FLAT:_xmlSAX2GetPublicId
	DD	FLAT:_xmlSAX2GetSystemId
	DD	FLAT:_xmlSAX2GetLineNumber
	DD	FLAT:_xmlSAX2GetColumnNumber
_htmlDefaultSAXHandler DD FLAT:_xmlSAX2InternalSubset
	DD	00H
	DD	00H
	DD	00H
	DD	00H
	DD	FLAT:_xmlSAX2GetEntity
	DD	00H
	DD	00H
	DD	00H
	DD	00H
	DD	00H
	DD	FLAT:_xmlSAX2SetDocumentLocator
	DD	FLAT:_xmlSAX2StartDocument
	DD	FLAT:_xmlSAX2EndDocument
	DD	FLAT:_xmlSAX2StartElement
	DD	FLAT:_xmlSAX2EndElement
	DD	00H
	DD	FLAT:_xmlSAX2Characters
	DD	FLAT:_xmlSAX2IgnorableWhitespace
	DD	FLAT:_xmlSAX2ProcessingInstruction
	DD	FLAT:_xmlSAX2Comment
	DD	FLAT:_xmlParserWarning
	DD	FLAT:_xmlParserError
	DD	FLAT:_xmlParserError
	DD	FLAT:_xmlSAX2GetParameterEntity
	DD	FLAT:_xmlSAX2CDataBlock
	DD	00H
	DD	00H
_docbDefaultSAXHandler DD FLAT:_xmlSAX2InternalSubset
	DD	FLAT:_xmlSAX2IsStandalone
	DD	FLAT:_xmlSAX2HasInternalSubset
	DD	FLAT:_xmlSAX2HasExternalSubset
	DD	FLAT:_xmlSAX2ResolveEntity
	DD	FLAT:_xmlSAX2GetEntity
	DD	FLAT:_xmlSAX2EntityDecl
	DD	00H
	DD	00H
	DD	00H
	DD	00H
	DD	FLAT:_xmlSAX2SetDocumentLocator
	DD	FLAT:_xmlSAX2StartDocument
	DD	FLAT:_xmlSAX2EndDocument
	DD	FLAT:_xmlSAX2StartElement
	DD	FLAT:_xmlSAX2EndElement
	DD	FLAT:_xmlSAX2Reference
	DD	FLAT:_xmlSAX2Characters
	DD	FLAT:_xmlSAX2IgnorableWhitespace
	DD	00H
	DD	FLAT:_xmlSAX2Comment
	DD	FLAT:_xmlParserWarning
	DD	FLAT:_xmlParserError
	DD	FLAT:_xmlParserError
	DD	FLAT:_xmlSAX2GetParameterEntity
	DD	00H
	DD	00H
	DD	00H
_DATA	ENDS
PUBLIC	_xmlInitGlobals
PUBLIC	_xmlCleanupGlobals
PUBLIC	_xmlInitializeGlobalState
PUBLIC	_xmlThrDefSetGenericErrorFunc
PUBLIC	_xmlThrDefSetStructuredErrorFunc
PUBLIC	_xmlRegisterNodeDefault
PUBLIC	_xmlThrDefRegisterNodeDefault
PUBLIC	_xmlDeregisterNodeDefault
PUBLIC	_xmlThrDefDeregisterNodeDefault
PUBLIC	_xmlThrDefOutputBufferCreateFilenameDefault
PUBLIC	_xmlThrDefParserInputBufferCreateFilenameDefault
PUBLIC	___docbDefaultSAXHandler
PUBLIC	___htmlDefaultSAXHandler
PUBLIC	___xmlLastError
PUBLIC	___oldXMLWDcompatibility
PUBLIC	___xmlBufferAllocScheme
PUBLIC	_xmlThrDefBufferAllocScheme
PUBLIC	___xmlDefaultBufferSize
PUBLIC	_xmlThrDefDefaultBufferSize
PUBLIC	___xmlDefaultSAXHandler
PUBLIC	___xmlDefaultSAXLocator
PUBLIC	___xmlDoValidityCheckingDefaultValue
PUBLIC	_xmlThrDefDoValidityCheckingDefaultValue
PUBLIC	___xmlGenericError
PUBLIC	___xmlStructuredError
PUBLIC	___xmlGenericErrorContext
PUBLIC	___xmlStructuredErrorContext
PUBLIC	___xmlGetWarningsDefaultValue
PUBLIC	_xmlThrDefGetWarningsDefaultValue
PUBLIC	___xmlIndentTreeOutput
PUBLIC	_xmlThrDefIndentTreeOutput
PUBLIC	___xmlTreeIndentString
PUBLIC	_xmlThrDefTreeIndentString
PUBLIC	___xmlKeepBlanksDefaultValue
PUBLIC	_xmlThrDefKeepBlanksDefaultValue
PUBLIC	___xmlLineNumbersDefaultValue
PUBLIC	_xmlThrDefLineNumbersDefaultValue
PUBLIC	___xmlLoadExtDtdDefaultValue
PUBLIC	_xmlThrDefLoadExtDtdDefaultValue
PUBLIC	___xmlParserDebugEntities
PUBLIC	_xmlThrDefParserDebugEntities
PUBLIC	___xmlParserVersion
PUBLIC	___xmlPedanticParserDefaultValue
PUBLIC	_xmlThrDefPedanticParserDefaultValue
PUBLIC	___xmlSaveNoEmptyTags
PUBLIC	_xmlThrDefSaveNoEmptyTags
PUBLIC	___xmlSubstituteEntitiesDefaultValue
PUBLIC	_xmlThrDefSubstituteEntitiesDefaultValue
PUBLIC	___xmlRegisterNodeDefaultValue
PUBLIC	___xmlDeregisterNodeDefaultValue
PUBLIC	___xmlParserInputBufferCreateFilenameValue
PUBLIC	___xmlOutputBufferCreateFilenameValue
PUBLIC	__JustMyCode_Default
PUBLIC	??_C@_05BGCJPHN@20909@				; `string'
EXTRN	_xmlStrdup:PROC
EXTRN	_xmlCharStrdup:PROC
EXTRN	___xmlGlobalInitMutexDestroy:PROC
EXTRN	__imp__free:PROC
EXTRN	__imp__malloc:PROC
EXTRN	__imp__realloc:PROC
EXTRN	___xmlParserInputBufferCreateFilename:PROC
EXTRN	___xmlOutputBufferCreateFilename:PROC
EXTRN	_xmlNewMutex:PROC
EXTRN	_xmlMutexLock:PROC
EXTRN	_xmlMutexUnlock:PROC
EXTRN	_xmlFreeMutex:PROC
EXTRN	_xmlIsMainThread:PROC
EXTRN	_xmlGetGlobalState:PROC
EXTRN	_initxmlDefaultSAXHandler:PROC
EXTRN	_inithtmlDefaultSAXHandler:PROC
EXTRN	_initdocbDefaultSAXHandler:PROC
EXTRN	@__CheckForDebuggerJustMyCode@4:PROC
EXTRN	__RTC_CheckEsp:PROC
EXTRN	__RTC_InitBase:PROC
EXTRN	__RTC_Shutdown:PROC
EXTRN	_memset:PROC
EXTRN	___xmlRegisterCallbacks:DWORD
_BSS	SEGMENT
_xmlThrDefMutex DD 01H DUP (?)
_xmlParserDebugEntitiesThrDef DD 01H DUP (?)
_xmlDoValidityCheckingDefaultValueThrDef DD 01H DUP (?)
_xmlLoadExtDtdDefaultValueThrDef DD 01H DUP (?)
_xmlPedanticParserDefaultValueThrDef DD 01H DUP (?)
_xmlLineNumbersDefaultValueThrDef DD 01H DUP (?)
_xmlSubstituteEntitiesDefaultValueThrDef DD 01H DUP (?)
_xmlRegisterNodeDefaultValueThrDef DD 01H DUP (?)
_xmlDeregisterNodeDefaultValueThrDef DD 01H DUP (?)
_xmlParserInputBufferCreateFilenameValueThrDef DD 01H DUP (?)
_xmlOutputBufferCreateFilenameValueThrDef DD 01H DUP (?)
_xmlStructuredErrorThrDef DD 01H DUP (?)
_xmlGenericErrorContextThrDef DD 01H DUP (?)
_xmlStructuredErrorContextThrDef DD 01H DUP (?)
_xmlSaveNoEmptyTagsThrDef DD 01H DUP (?)
_BSS	ENDS
;	COMDAT rtc$TMZ
rtc$TMZ	SEGMENT
__RTC_Shutdown.rtc$TMZ DD FLAT:__RTC_Shutdown
rtc$TMZ	ENDS
;	COMDAT rtc$IMZ
rtc$IMZ	SEGMENT
__RTC_InitBase.rtc$IMZ DD FLAT:__RTC_InitBase
rtc$IMZ	ENDS
;	COMDAT ??_C@_05BGCJPHN@20909@
CONST	SEGMENT
??_C@_05BGCJPHN@20909@ DB '20909', 00H			; `string'
CONST	ENDS
_DATA	SEGMENT
_xmlBufferAllocSchemeThrDef DD 01H
_xmlDefaultBufferSizeThrDef DD 01000H
_xmlGetWarningsDefaultValueThrDef DD 01H
_xmlKeepBlanksDefaultValueThrDef DD 01H
_xmlGenericErrorThrDef DD FLAT:_xmlGenericErrorDefaultFunc
_xmlIndentTreeOutputThrDef DD 01H
_xmlTreeIndentStringThrDef DD FLAT:??_C@_02KNHHEEKP@?5?5@
_DATA	ENDS
; Function compile flags: /Odt
;	COMDAT __JustMyCode_Default
_TEXT	SEGMENT
__JustMyCode_Default PROC				; COMDAT
	push	ebp
	mov	ebp, esp
	pop	ebp
	ret	0
__JustMyCode_Default ENDP
_TEXT	ENDS
; Function compile flags: /Odtp /RTCsu
; File c:\users\dag\documents\_clients\codeproject authors group\windows on arm\libxml2\libxml2-2.9.9\globals.c
;	COMDAT _xmlPosixStrdup
_TEXT	SEGMENT
_cur$ = 8						; size = 4
_xmlPosixStrdup PROC					; COMDAT

; 135  : xmlPosixStrdup(const char *cur) {

	push	ebp
	mov	ebp, esp
	mov	ecx, OFFSET __DB69A600_globals@c
	call	@__CheckForDebuggerJustMyCode@4

; 136  :     return((char*) xmlCharStrdup(cur));

	mov	eax, DWORD PTR _cur$[ebp]
	push	eax
	call	_xmlCharStrdup
	add	esp, 4

; 137  : }

	cmp	ebp, esp
	call	__RTC_CheckEsp
	pop	ebp
	ret	0
_xmlPosixStrdup ENDP
_TEXT	ENDS
; Function compile flags: /Odtp /RTCsu
; File c:\users\dag\documents\_clients\codeproject authors group\windows on arm\libxml2\libxml2-2.9.9\globals.c
;	COMDAT ___xmlOutputBufferCreateFilenameValue
_TEXT	SEGMENT
___xmlOutputBufferCreateFilenameValue PROC		; COMDAT

; 1118 : __xmlOutputBufferCreateFilenameValue(void) {

	push	ebp
	mov	ebp, esp
	mov	ecx, OFFSET __DB69A600_globals@c
	call	@__CheckForDebuggerJustMyCode@4

; 1119 :     if (IS_MAIN_THREAD)

	call	_xmlIsMainThread
	test	eax, eax
	je	SHORT $LN2@xmlOutputB

; 1120 : 	return (&xmlOutputBufferCreateFilenameValue);

	mov	eax, OFFSET _xmlOutputBufferCreateFilenameValue
	jmp	SHORT $LN1@xmlOutputB
	jmp	SHORT $LN1@xmlOutputB
$LN2@xmlOutputB:

; 1121 :     else
; 1122 : 	return (&xmlGetGlobalState()->xmlOutputBufferCreateFilenameValue);

	call	_xmlGetGlobalState
	add	eax, 508				; 000001fcH
$LN1@xmlOutputB:

; 1123 : }

	cmp	ebp, esp
	call	__RTC_CheckEsp
	pop	ebp
	ret	0
___xmlOutputBufferCreateFilenameValue ENDP
_TEXT	ENDS
; Function compile flags: /Odtp /RTCsu
; File c:\users\dag\documents\_clients\codeproject authors group\windows on arm\libxml2\libxml2-2.9.9\globals.c
;	COMDAT ___xmlParserInputBufferCreateFilenameValue
_TEXT	SEGMENT
___xmlParserInputBufferCreateFilenameValue PROC		; COMDAT

; 1109 : __xmlParserInputBufferCreateFilenameValue(void) {

	push	ebp
	mov	ebp, esp
	mov	ecx, OFFSET __DB69A600_globals@c
	call	@__CheckForDebuggerJustMyCode@4

; 1110 :     if (IS_MAIN_THREAD)

	call	_xmlIsMainThread
	test	eax, eax
	je	SHORT $LN2@xmlParserI

; 1111 : 	return (&xmlParserInputBufferCreateFilenameValue);

	mov	eax, OFFSET _xmlParserInputBufferCreateFilenameValue
	jmp	SHORT $LN1@xmlParserI
	jmp	SHORT $LN1@xmlParserI
$LN2@xmlParserI:

; 1112 :     else
; 1113 : 	return (&xmlGetGlobalState()->xmlParserInputBufferCreateFilenameValue);

	call	_xmlGetGlobalState
	add	eax, 504				; 000001f8H
$LN1@xmlParserI:

; 1114 : }

	cmp	ebp, esp
	call	__RTC_CheckEsp
	pop	ebp
	ret	0
___xmlParserInputBufferCreateFilenameValue ENDP
_TEXT	ENDS
; Function compile flags: /Odtp /RTCsu
; File c:\users\dag\documents\_clients\codeproject authors group\windows on arm\libxml2\libxml2-2.9.9\globals.c
;	COMDAT ___xmlDeregisterNodeDefaultValue
_TEXT	SEGMENT
___xmlDeregisterNodeDefaultValue PROC			; COMDAT

; 1100 : __xmlDeregisterNodeDefaultValue(void) {

	push	ebp
	mov	ebp, esp
	mov	ecx, OFFSET __DB69A600_globals@c
	call	@__CheckForDebuggerJustMyCode@4

; 1101 :     if (IS_MAIN_THREAD)

	call	_xmlIsMainThread
	test	eax, eax
	je	SHORT $LN2@xmlDeregis

; 1102 : 	return (&xmlDeregisterNodeDefaultValue);

	mov	eax, OFFSET _xmlDeregisterNodeDefaultValue
	jmp	SHORT $LN1@xmlDeregis
	jmp	SHORT $LN1@xmlDeregis
$LN2@xmlDeregis:

; 1103 :     else
; 1104 : 	return (&xmlGetGlobalState()->xmlDeregisterNodeDefaultValue);

	call	_xmlGetGlobalState
	add	eax, 444				; 000001bcH
$LN1@xmlDeregis:

; 1105 : }

	cmp	ebp, esp
	call	__RTC_CheckEsp
	pop	ebp
	ret	0
___xmlDeregisterNodeDefaultValue ENDP
_TEXT	ENDS
; Function compile flags: /Odtp /RTCsu
; File c:\users\dag\documents\_clients\codeproject authors group\windows on arm\libxml2\libxml2-2.9.9\globals.c
;	COMDAT ___xmlRegisterNodeDefaultValue
_TEXT	SEGMENT
___xmlRegisterNodeDefaultValue PROC			; COMDAT

; 1091 : __xmlRegisterNodeDefaultValue(void) {

	push	ebp
	mov	ebp, esp
	mov	ecx, OFFSET __DB69A600_globals@c
	call	@__CheckForDebuggerJustMyCode@4

; 1092 :     if (IS_MAIN_THREAD)

	call	_xmlIsMainThread
	test	eax, eax
	je	SHORT $LN2@xmlRegiste

; 1093 : 	return (&xmlRegisterNodeDefaultValue);

	mov	eax, OFFSET _xmlRegisterNodeDefaultValue
	jmp	SHORT $LN1@xmlRegiste
	jmp	SHORT $LN1@xmlRegiste
$LN2@xmlRegiste:

; 1094 :     else
; 1095 : 	return (&xmlGetGlobalState()->xmlRegisterNodeDefaultValue);

	call	_xmlGetGlobalState
	add	eax, 440				; 000001b8H
$LN1@xmlRegiste:

; 1096 : }

	cmp	ebp, esp
	call	__RTC_CheckEsp
	pop	ebp
	ret	0
___xmlRegisterNodeDefaultValue ENDP
_TEXT	ENDS
; Function compile flags: /Odtp /RTCsu
; File c:\users\dag\documents\_clients\codeproject authors group\windows on arm\libxml2\libxml2-2.9.9\globals.c
;	COMDAT _xmlThrDefSubstituteEntitiesDefaultValue
_TEXT	SEGMENT
_ret$ = -4						; size = 4
_v$ = 8							; size = 4
_xmlThrDefSubstituteEntitiesDefaultValue PROC		; COMDAT

; 1080 : int xmlThrDefSubstituteEntitiesDefaultValue(int v) {

	push	ebp
	mov	ebp, esp
	push	ecx
	mov	DWORD PTR [ebp-4], -858993460		; ccccccccH
	mov	ecx, OFFSET __DB69A600_globals@c
	call	@__CheckForDebuggerJustMyCode@4

; 1081 :     int ret;
; 1082 :     xmlMutexLock(xmlThrDefMutex);

	mov	eax, DWORD PTR _xmlThrDefMutex
	push	eax
	call	_xmlMutexLock
	add	esp, 4

; 1083 :     ret = xmlSubstituteEntitiesDefaultValueThrDef;

	mov	ecx, DWORD PTR _xmlSubstituteEntitiesDefaultValueThrDef
	mov	DWORD PTR _ret$[ebp], ecx

; 1084 :     xmlSubstituteEntitiesDefaultValueThrDef = v;

	mov	edx, DWORD PTR _v$[ebp]
	mov	DWORD PTR _xmlSubstituteEntitiesDefaultValueThrDef, edx

; 1085 :     xmlMutexUnlock(xmlThrDefMutex);

	mov	eax, DWORD PTR _xmlThrDefMutex
	push	eax
	call	_xmlMutexUnlock
	add	esp, 4

; 1086 :     return ret;

	mov	eax, DWORD PTR _ret$[ebp]

; 1087 : }

	add	esp, 4
	cmp	ebp, esp
	call	__RTC_CheckEsp
	mov	esp, ebp
	pop	ebp
	ret	0
_xmlThrDefSubstituteEntitiesDefaultValue ENDP
_TEXT	ENDS
; Function compile flags: /Odtp /RTCsu
; File c:\users\dag\documents\_clients\codeproject authors group\windows on arm\libxml2\libxml2-2.9.9\globals.c
;	COMDAT ___xmlSubstituteEntitiesDefaultValue
_TEXT	SEGMENT
___xmlSubstituteEntitiesDefaultValue PROC		; COMDAT

; 1074 : __xmlSubstituteEntitiesDefaultValue(void) {

	push	ebp
	mov	ebp, esp
	mov	ecx, OFFSET __DB69A600_globals@c
	call	@__CheckForDebuggerJustMyCode@4

; 1075 :     if (IS_MAIN_THREAD)

	call	_xmlIsMainThread
	test	eax, eax
	je	SHORT $LN2@xmlSubstit

; 1076 : 	return (&xmlSubstituteEntitiesDefaultValue);

	mov	eax, OFFSET _xmlSubstituteEntitiesDefaultValue
	jmp	SHORT $LN1@xmlSubstit
	jmp	SHORT $LN1@xmlSubstit
$LN2@xmlSubstit:

; 1077 :     else
; 1078 : 	return (&xmlGetGlobalState()->xmlSubstituteEntitiesDefaultValue);

	call	_xmlGetGlobalState
	add	eax, 396				; 0000018cH
$LN1@xmlSubstit:

; 1079 : }

	cmp	ebp, esp
	call	__RTC_CheckEsp
	pop	ebp
	ret	0
___xmlSubstituteEntitiesDefaultValue ENDP
_TEXT	ENDS
; Function compile flags: /Odtp /RTCsu
; File c:\users\dag\documents\_clients\codeproject authors group\windows on arm\libxml2\libxml2-2.9.9\globals.c
;	COMDAT _xmlThrDefSaveNoEmptyTags
_TEXT	SEGMENT
_ret$ = -4						; size = 4
_v$ = 8							; size = 4
_xmlThrDefSaveNoEmptyTags PROC				; COMDAT

; 1063 : int xmlThrDefSaveNoEmptyTags(int v) {

	push	ebp
	mov	ebp, esp
	push	ecx
	mov	DWORD PTR [ebp-4], -858993460		; ccccccccH
	mov	ecx, OFFSET __DB69A600_globals@c
	call	@__CheckForDebuggerJustMyCode@4

; 1064 :     int ret;
; 1065 :     xmlMutexLock(xmlThrDefMutex);

	mov	eax, DWORD PTR _xmlThrDefMutex
	push	eax
	call	_xmlMutexLock
	add	esp, 4

; 1066 :     ret = xmlSaveNoEmptyTagsThrDef;

	mov	ecx, DWORD PTR _xmlSaveNoEmptyTagsThrDef
	mov	DWORD PTR _ret$[ebp], ecx

; 1067 :     xmlSaveNoEmptyTagsThrDef = v;

	mov	edx, DWORD PTR _v$[ebp]
	mov	DWORD PTR _xmlSaveNoEmptyTagsThrDef, edx

; 1068 :     xmlMutexUnlock(xmlThrDefMutex);

	mov	eax, DWORD PTR _xmlThrDefMutex
	push	eax
	call	_xmlMutexUnlock
	add	esp, 4

; 1069 :     return ret;

	mov	eax, DWORD PTR _ret$[ebp]

; 1070 : }

	add	esp, 4
	cmp	ebp, esp
	call	__RTC_CheckEsp
	mov	esp, ebp
	pop	ebp
	ret	0
_xmlThrDefSaveNoEmptyTags ENDP
_TEXT	ENDS
; Function compile flags: /Odtp /RTCsu
; File c:\users\dag\documents\_clients\codeproject authors group\windows on arm\libxml2\libxml2-2.9.9\globals.c
;	COMDAT ___xmlSaveNoEmptyTags
_TEXT	SEGMENT
___xmlSaveNoEmptyTags PROC				; COMDAT

; 1057 : __xmlSaveNoEmptyTags(void) {

	push	ebp
	mov	ebp, esp
	mov	ecx, OFFSET __DB69A600_globals@c
	call	@__CheckForDebuggerJustMyCode@4

; 1058 :     if (IS_MAIN_THREAD)

	call	_xmlIsMainThread
	test	eax, eax
	je	SHORT $LN2@xmlSaveNoE

; 1059 : 	return (&xmlSaveNoEmptyTags);

	mov	eax, OFFSET _xmlSaveNoEmptyTags
	jmp	SHORT $LN1@xmlSaveNoE
	jmp	SHORT $LN1@xmlSaveNoE
$LN2@xmlSaveNoE:

; 1060 :     else
; 1061 : 	return (&xmlGetGlobalState()->xmlSaveNoEmptyTags);

	call	_xmlGetGlobalState
	add	eax, 428				; 000001acH
$LN1@xmlSaveNoE:

; 1062 : }

	cmp	ebp, esp
	call	__RTC_CheckEsp
	pop	ebp
	ret	0
___xmlSaveNoEmptyTags ENDP
_TEXT	ENDS
; Function compile flags: /Odtp /RTCsu
; File c:\users\dag\documents\_clients\codeproject authors group\windows on arm\libxml2\libxml2-2.9.9\globals.c
;	COMDAT _xmlThrDefPedanticParserDefaultValue
_TEXT	SEGMENT
_ret$ = -4						; size = 4
_v$ = 8							; size = 4
_xmlThrDefPedanticParserDefaultValue PROC		; COMDAT

; 1046 : int xmlThrDefPedanticParserDefaultValue(int v) {

	push	ebp
	mov	ebp, esp
	push	ecx
	mov	DWORD PTR [ebp-4], -858993460		; ccccccccH
	mov	ecx, OFFSET __DB69A600_globals@c
	call	@__CheckForDebuggerJustMyCode@4

; 1047 :     int ret;
; 1048 :     xmlMutexLock(xmlThrDefMutex);

	mov	eax, DWORD PTR _xmlThrDefMutex
	push	eax
	call	_xmlMutexLock
	add	esp, 4

; 1049 :     ret = xmlPedanticParserDefaultValueThrDef;

	mov	ecx, DWORD PTR _xmlPedanticParserDefaultValueThrDef
	mov	DWORD PTR _ret$[ebp], ecx

; 1050 :     xmlPedanticParserDefaultValueThrDef = v;

	mov	edx, DWORD PTR _v$[ebp]
	mov	DWORD PTR _xmlPedanticParserDefaultValueThrDef, edx

; 1051 :     xmlMutexUnlock(xmlThrDefMutex);

	mov	eax, DWORD PTR _xmlThrDefMutex
	push	eax
	call	_xmlMutexUnlock
	add	esp, 4

; 1052 :     return ret;

	mov	eax, DWORD PTR _ret$[ebp]

; 1053 : }

	add	esp, 4
	cmp	ebp, esp
	call	__RTC_CheckEsp
	mov	esp, ebp
	pop	ebp
	ret	0
_xmlThrDefPedanticParserDefaultValue ENDP
_TEXT	ENDS
; Function compile flags: /Odtp /RTCsu
; File c:\users\dag\documents\_clients\codeproject authors group\windows on arm\libxml2\libxml2-2.9.9\globals.c
;	COMDAT ___xmlPedanticParserDefaultValue
_TEXT	SEGMENT
___xmlPedanticParserDefaultValue PROC			; COMDAT

; 1040 : __xmlPedanticParserDefaultValue(void) {

	push	ebp
	mov	ebp, esp
	mov	ecx, OFFSET __DB69A600_globals@c
	call	@__CheckForDebuggerJustMyCode@4

; 1041 :     if (IS_MAIN_THREAD)

	call	_xmlIsMainThread
	test	eax, eax
	je	SHORT $LN2@xmlPedanti

; 1042 : 	return (&xmlPedanticParserDefaultValue);

	mov	eax, OFFSET _xmlPedanticParserDefaultValue
	jmp	SHORT $LN1@xmlPedanti
	jmp	SHORT $LN1@xmlPedanti
$LN2@xmlPedanti:

; 1043 :     else
; 1044 : 	return (&xmlGetGlobalState()->xmlPedanticParserDefaultValue);

	call	_xmlGetGlobalState
	add	eax, 424				; 000001a8H
$LN1@xmlPedanti:

; 1045 : }

	cmp	ebp, esp
	call	__RTC_CheckEsp
	pop	ebp
	ret	0
___xmlPedanticParserDefaultValue ENDP
_TEXT	ENDS
; Function compile flags: /Odtp /RTCsu
; File c:\users\dag\documents\_clients\codeproject authors group\windows on arm\libxml2\libxml2-2.9.9\globals.c
;	COMDAT ___xmlParserVersion
_TEXT	SEGMENT
___xmlParserVersion PROC				; COMDAT

; 1031 : __xmlParserVersion(void) {

	push	ebp
	mov	ebp, esp
	mov	ecx, OFFSET __DB69A600_globals@c
	call	@__CheckForDebuggerJustMyCode@4

; 1032 :     if (IS_MAIN_THREAD)

	call	_xmlIsMainThread
	test	eax, eax
	je	SHORT $LN2@xmlParserV

; 1033 : 	return (&xmlParserVersion);

	mov	eax, OFFSET _xmlParserVersion
	jmp	SHORT $LN1@xmlParserV
	jmp	SHORT $LN1@xmlParserV
$LN2@xmlParserV:

; 1034 :     else
; 1035 : 	return (&xmlGetGlobalState()->xmlParserVersion);

	call	_xmlGetGlobalState
$LN1@xmlParserV:

; 1036 : }

	cmp	ebp, esp
	call	__RTC_CheckEsp
	pop	ebp
	ret	0
___xmlParserVersion ENDP
_TEXT	ENDS
; Function compile flags: /Odtp /RTCsu
; File c:\users\dag\documents\_clients\codeproject authors group\windows on arm\libxml2\libxml2-2.9.9\globals.c
;	COMDAT _xmlThrDefParserDebugEntities
_TEXT	SEGMENT
_ret$ = -4						; size = 4
_v$ = 8							; size = 4
_xmlThrDefParserDebugEntities PROC			; COMDAT

; 1020 : int xmlThrDefParserDebugEntities(int v) {

	push	ebp
	mov	ebp, esp
	push	ecx
	mov	DWORD PTR [ebp-4], -858993460		; ccccccccH
	mov	ecx, OFFSET __DB69A600_globals@c
	call	@__CheckForDebuggerJustMyCode@4

; 1021 :     int ret;
; 1022 :     xmlMutexLock(xmlThrDefMutex);

	mov	eax, DWORD PTR _xmlThrDefMutex
	push	eax
	call	_xmlMutexLock
	add	esp, 4

; 1023 :     ret = xmlParserDebugEntitiesThrDef;

	mov	ecx, DWORD PTR _xmlParserDebugEntitiesThrDef
	mov	DWORD PTR _ret$[ebp], ecx

; 1024 :     xmlParserDebugEntitiesThrDef = v;

	mov	edx, DWORD PTR _v$[ebp]
	mov	DWORD PTR _xmlParserDebugEntitiesThrDef, edx

; 1025 :     xmlMutexUnlock(xmlThrDefMutex);

	mov	eax, DWORD PTR _xmlThrDefMutex
	push	eax
	call	_xmlMutexUnlock
	add	esp, 4

; 1026 :     return ret;

	mov	eax, DWORD PTR _ret$[ebp]

; 1027 : }

	add	esp, 4
	cmp	ebp, esp
	call	__RTC_CheckEsp
	mov	esp, ebp
	pop	ebp
	ret	0
_xmlThrDefParserDebugEntities ENDP
_TEXT	ENDS
; Function compile flags: /Odtp /RTCsu
; File c:\users\dag\documents\_clients\codeproject authors group\windows on arm\libxml2\libxml2-2.9.9\globals.c
;	COMDAT ___xmlParserDebugEntities
_TEXT	SEGMENT
___xmlParserDebugEntities PROC				; COMDAT

; 1014 : __xmlParserDebugEntities(void) {

	push	ebp
	mov	ebp, esp
	mov	ecx, OFFSET __DB69A600_globals@c
	call	@__CheckForDebuggerJustMyCode@4

; 1015 :     if (IS_MAIN_THREAD)

	call	_xmlIsMainThread
	test	eax, eax
	je	SHORT $LN2@xmlParserD

; 1016 : 	return (&xmlParserDebugEntities);

	mov	eax, OFFSET _xmlParserDebugEntities
	jmp	SHORT $LN1@xmlParserD
	jmp	SHORT $LN1@xmlParserD
$LN2@xmlParserD:

; 1017 :     else
; 1018 : 	return (&xmlGetGlobalState()->xmlParserDebugEntities);

	call	_xmlGetGlobalState
	add	eax, 420				; 000001a4H
$LN1@xmlParserD:

; 1019 : }

	cmp	ebp, esp
	call	__RTC_CheckEsp
	pop	ebp
	ret	0
___xmlParserDebugEntities ENDP
_TEXT	ENDS
; Function compile flags: /Odtp /RTCsu
; File c:\users\dag\documents\_clients\codeproject authors group\windows on arm\libxml2\libxml2-2.9.9\globals.c
;	COMDAT _xmlThrDefLoadExtDtdDefaultValue
_TEXT	SEGMENT
_ret$ = -4						; size = 4
_v$ = 8							; size = 4
_xmlThrDefLoadExtDtdDefaultValue PROC			; COMDAT

; 1003 : int xmlThrDefLoadExtDtdDefaultValue(int v) {

	push	ebp
	mov	ebp, esp
	push	ecx
	mov	DWORD PTR [ebp-4], -858993460		; ccccccccH
	mov	ecx, OFFSET __DB69A600_globals@c
	call	@__CheckForDebuggerJustMyCode@4

; 1004 :     int ret;
; 1005 :     xmlMutexLock(xmlThrDefMutex);

	mov	eax, DWORD PTR _xmlThrDefMutex
	push	eax
	call	_xmlMutexLock
	add	esp, 4

; 1006 :     ret = xmlLoadExtDtdDefaultValueThrDef;

	mov	ecx, DWORD PTR _xmlLoadExtDtdDefaultValueThrDef
	mov	DWORD PTR _ret$[ebp], ecx

; 1007 :     xmlLoadExtDtdDefaultValueThrDef = v;

	mov	edx, DWORD PTR _v$[ebp]
	mov	DWORD PTR _xmlLoadExtDtdDefaultValueThrDef, edx

; 1008 :     xmlMutexUnlock(xmlThrDefMutex);

	mov	eax, DWORD PTR _xmlThrDefMutex
	push	eax
	call	_xmlMutexUnlock
	add	esp, 4

; 1009 :     return ret;

	mov	eax, DWORD PTR _ret$[ebp]

; 1010 : }

	add	esp, 4
	cmp	ebp, esp
	call	__RTC_CheckEsp
	mov	esp, ebp
	pop	ebp
	ret	0
_xmlThrDefLoadExtDtdDefaultValue ENDP
_TEXT	ENDS
; Function compile flags: /Odtp /RTCsu
; File c:\users\dag\documents\_clients\codeproject authors group\windows on arm\libxml2\libxml2-2.9.9\globals.c
;	COMDAT ___xmlLoadExtDtdDefaultValue
_TEXT	SEGMENT
___xmlLoadExtDtdDefaultValue PROC			; COMDAT

; 997  : __xmlLoadExtDtdDefaultValue(void) {

	push	ebp
	mov	ebp, esp
	mov	ecx, OFFSET __DB69A600_globals@c
	call	@__CheckForDebuggerJustMyCode@4

; 998  :     if (IS_MAIN_THREAD)

	call	_xmlIsMainThread
	test	eax, eax
	je	SHORT $LN2@xmlLoadExt

; 999  : 	return (&xmlLoadExtDtdDefaultValue);

	mov	eax, OFFSET _xmlLoadExtDtdDefaultValue
	jmp	SHORT $LN1@xmlLoadExt
	jmp	SHORT $LN1@xmlLoadExt
$LN2@xmlLoadExt:

; 1000 :     else
; 1001 : 	return (&xmlGetGlobalState()->xmlLoadExtDtdDefaultValue);

	call	_xmlGetGlobalState
	add	eax, 416				; 000001a0H
$LN1@xmlLoadExt:

; 1002 : }

	cmp	ebp, esp
	call	__RTC_CheckEsp
	pop	ebp
	ret	0
___xmlLoadExtDtdDefaultValue ENDP
_TEXT	ENDS
; Function compile flags: /Odtp /RTCsu
; File c:\users\dag\documents\_clients\codeproject authors group\windows on arm\libxml2\libxml2-2.9.9\globals.c
;	COMDAT _xmlThrDefLineNumbersDefaultValue
_TEXT	SEGMENT
_ret$ = -4						; size = 4
_v$ = 8							; size = 4
_xmlThrDefLineNumbersDefaultValue PROC			; COMDAT

; 986  : int xmlThrDefLineNumbersDefaultValue(int v) {

	push	ebp
	mov	ebp, esp
	push	ecx
	mov	DWORD PTR [ebp-4], -858993460		; ccccccccH
	mov	ecx, OFFSET __DB69A600_globals@c
	call	@__CheckForDebuggerJustMyCode@4

; 987  :     int ret;
; 988  :     xmlMutexLock(xmlThrDefMutex);

	mov	eax, DWORD PTR _xmlThrDefMutex
	push	eax
	call	_xmlMutexLock
	add	esp, 4

; 989  :     ret = xmlLineNumbersDefaultValueThrDef;

	mov	ecx, DWORD PTR _xmlLineNumbersDefaultValueThrDef
	mov	DWORD PTR _ret$[ebp], ecx

; 990  :     xmlLineNumbersDefaultValueThrDef = v;

	mov	edx, DWORD PTR _v$[ebp]
	mov	DWORD PTR _xmlLineNumbersDefaultValueThrDef, edx

; 991  :     xmlMutexUnlock(xmlThrDefMutex);

	mov	eax, DWORD PTR _xmlThrDefMutex
	push	eax
	call	_xmlMutexUnlock
	add	esp, 4

; 992  :     return ret;

	mov	eax, DWORD PTR _ret$[ebp]

; 993  : }

	add	esp, 4
	cmp	ebp, esp
	call	__RTC_CheckEsp
	mov	esp, ebp
	pop	ebp
	ret	0
_xmlThrDefLineNumbersDefaultValue ENDP
_TEXT	ENDS
; Function compile flags: /Odtp /RTCsu
; File c:\users\dag\documents\_clients\codeproject authors group\windows on arm\libxml2\libxml2-2.9.9\globals.c
;	COMDAT ___xmlLineNumbersDefaultValue
_TEXT	SEGMENT
___xmlLineNumbersDefaultValue PROC			; COMDAT

; 980  : __xmlLineNumbersDefaultValue(void) {

	push	ebp
	mov	ebp, esp
	mov	ecx, OFFSET __DB69A600_globals@c
	call	@__CheckForDebuggerJustMyCode@4

; 981  :     if (IS_MAIN_THREAD)

	call	_xmlIsMainThread
	test	eax, eax
	je	SHORT $LN2@xmlLineNum

; 982  : 	return (&xmlLineNumbersDefaultValue);

	mov	eax, OFFSET _xmlLineNumbersDefaultValue
	jmp	SHORT $LN1@xmlLineNum
	jmp	SHORT $LN1@xmlLineNum
$LN2@xmlLineNum:

; 983  :     else
; 984  : 	return (&xmlGetGlobalState()->xmlLineNumbersDefaultValue);

	call	_xmlGetGlobalState
	add	eax, 412				; 0000019cH
$LN1@xmlLineNum:

; 985  : }

	cmp	ebp, esp
	call	__RTC_CheckEsp
	pop	ebp
	ret	0
___xmlLineNumbersDefaultValue ENDP
_TEXT	ENDS
; Function compile flags: /Odtp /RTCsu
; File c:\users\dag\documents\_clients\codeproject authors group\windows on arm\libxml2\libxml2-2.9.9\globals.c
;	COMDAT _xmlThrDefKeepBlanksDefaultValue
_TEXT	SEGMENT
_ret$ = -4						; size = 4
_v$ = 8							; size = 4
_xmlThrDefKeepBlanksDefaultValue PROC			; COMDAT

; 969  : int xmlThrDefKeepBlanksDefaultValue(int v) {

	push	ebp
	mov	ebp, esp
	push	ecx
	mov	DWORD PTR [ebp-4], -858993460		; ccccccccH
	mov	ecx, OFFSET __DB69A600_globals@c
	call	@__CheckForDebuggerJustMyCode@4

; 970  :     int ret;
; 971  :     xmlMutexLock(xmlThrDefMutex);

	mov	eax, DWORD PTR _xmlThrDefMutex
	push	eax
	call	_xmlMutexLock
	add	esp, 4

; 972  :     ret = xmlKeepBlanksDefaultValueThrDef;

	mov	ecx, DWORD PTR _xmlKeepBlanksDefaultValueThrDef
	mov	DWORD PTR _ret$[ebp], ecx

; 973  :     xmlKeepBlanksDefaultValueThrDef = v;

	mov	edx, DWORD PTR _v$[ebp]
	mov	DWORD PTR _xmlKeepBlanksDefaultValueThrDef, edx

; 974  :     xmlMutexUnlock(xmlThrDefMutex);

	mov	eax, DWORD PTR _xmlThrDefMutex
	push	eax
	call	_xmlMutexUnlock
	add	esp, 4

; 975  :     return ret;

	mov	eax, DWORD PTR _ret$[ebp]

; 976  : }

	add	esp, 4
	cmp	ebp, esp
	call	__RTC_CheckEsp
	mov	esp, ebp
	pop	ebp
	ret	0
_xmlThrDefKeepBlanksDefaultValue ENDP
_TEXT	ENDS
; Function compile flags: /Odtp /RTCsu
; File c:\users\dag\documents\_clients\codeproject authors group\windows on arm\libxml2\libxml2-2.9.9\globals.c
;	COMDAT ___xmlKeepBlanksDefaultValue
_TEXT	SEGMENT
___xmlKeepBlanksDefaultValue PROC			; COMDAT

; 963  : __xmlKeepBlanksDefaultValue(void) {

	push	ebp
	mov	ebp, esp
	mov	ecx, OFFSET __DB69A600_globals@c
	call	@__CheckForDebuggerJustMyCode@4

; 964  :     if (IS_MAIN_THREAD)

	call	_xmlIsMainThread
	test	eax, eax
	je	SHORT $LN2@xmlKeepBla

; 965  : 	return (&xmlKeepBlanksDefaultValue);

	mov	eax, OFFSET _xmlKeepBlanksDefaultValue
	jmp	SHORT $LN1@xmlKeepBla
	jmp	SHORT $LN1@xmlKeepBla
$LN2@xmlKeepBla:

; 966  :     else
; 967  : 	return (&xmlGetGlobalState()->xmlKeepBlanksDefaultValue);

	call	_xmlGetGlobalState
	add	eax, 408				; 00000198H
$LN1@xmlKeepBla:

; 968  : }

	cmp	ebp, esp
	call	__RTC_CheckEsp
	pop	ebp
	ret	0
___xmlKeepBlanksDefaultValue ENDP
_TEXT	ENDS
; Function compile flags: /Odtp /RTCsu
; File c:\users\dag\documents\_clients\codeproject authors group\windows on arm\libxml2\libxml2-2.9.9\globals.c
;	COMDAT _xmlThrDefTreeIndentString
_TEXT	SEGMENT
_ret$ = -4						; size = 4
_v$ = 8							; size = 4
_xmlThrDefTreeIndentString PROC				; COMDAT

; 952  : const char * xmlThrDefTreeIndentString(const char * v) {

	push	ebp
	mov	ebp, esp
	push	ecx
	mov	DWORD PTR [ebp-4], -858993460		; ccccccccH
	mov	ecx, OFFSET __DB69A600_globals@c
	call	@__CheckForDebuggerJustMyCode@4

; 953  :     const char * ret;
; 954  :     xmlMutexLock(xmlThrDefMutex);

	mov	eax, DWORD PTR _xmlThrDefMutex
	push	eax
	call	_xmlMutexLock
	add	esp, 4

; 955  :     ret = xmlTreeIndentStringThrDef;

	mov	ecx, DWORD PTR _xmlTreeIndentStringThrDef
	mov	DWORD PTR _ret$[ebp], ecx

; 956  :     xmlTreeIndentStringThrDef = v;

	mov	edx, DWORD PTR _v$[ebp]
	mov	DWORD PTR _xmlTreeIndentStringThrDef, edx

; 957  :     xmlMutexUnlock(xmlThrDefMutex);

	mov	eax, DWORD PTR _xmlThrDefMutex
	push	eax
	call	_xmlMutexUnlock
	add	esp, 4

; 958  :     return ret;

	mov	eax, DWORD PTR _ret$[ebp]

; 959  : }

	add	esp, 4
	cmp	ebp, esp
	call	__RTC_CheckEsp
	mov	esp, ebp
	pop	ebp
	ret	0
_xmlThrDefTreeIndentString ENDP
_TEXT	ENDS
; Function compile flags: /Odtp /RTCsu
; File c:\users\dag\documents\_clients\codeproject authors group\windows on arm\libxml2\libxml2-2.9.9\globals.c
;	COMDAT ___xmlTreeIndentString
_TEXT	SEGMENT
___xmlTreeIndentString PROC				; COMDAT

; 946  : __xmlTreeIndentString(void) {

	push	ebp
	mov	ebp, esp
	mov	ecx, OFFSET __DB69A600_globals@c
	call	@__CheckForDebuggerJustMyCode@4

; 947  :     if (IS_MAIN_THREAD)

	call	_xmlIsMainThread
	test	eax, eax
	je	SHORT $LN2@xmlTreeInd

; 948  : 	return (&xmlTreeIndentString);

	mov	eax, OFFSET _xmlTreeIndentString
	jmp	SHORT $LN1@xmlTreeInd
	jmp	SHORT $LN1@xmlTreeInd
$LN2@xmlTreeInd:

; 949  :     else
; 950  : 	return (&xmlGetGlobalState()->xmlTreeIndentString);

	call	_xmlGetGlobalState
	add	eax, 436				; 000001b4H
$LN1@xmlTreeInd:

; 951  : }

	cmp	ebp, esp
	call	__RTC_CheckEsp
	pop	ebp
	ret	0
___xmlTreeIndentString ENDP
_TEXT	ENDS
; Function compile flags: /Odtp /RTCsu
; File c:\users\dag\documents\_clients\codeproject authors group\windows on arm\libxml2\libxml2-2.9.9\globals.c
;	COMDAT _xmlThrDefIndentTreeOutput
_TEXT	SEGMENT
_ret$ = -4						; size = 4
_v$ = 8							; size = 4
_xmlThrDefIndentTreeOutput PROC				; COMDAT

; 935  : int xmlThrDefIndentTreeOutput(int v) {

	push	ebp
	mov	ebp, esp
	push	ecx
	mov	DWORD PTR [ebp-4], -858993460		; ccccccccH
	mov	ecx, OFFSET __DB69A600_globals@c
	call	@__CheckForDebuggerJustMyCode@4

; 936  :     int ret;
; 937  :     xmlMutexLock(xmlThrDefMutex);

	mov	eax, DWORD PTR _xmlThrDefMutex
	push	eax
	call	_xmlMutexLock
	add	esp, 4

; 938  :     ret = xmlIndentTreeOutputThrDef;

	mov	ecx, DWORD PTR _xmlIndentTreeOutputThrDef
	mov	DWORD PTR _ret$[ebp], ecx

; 939  :     xmlIndentTreeOutputThrDef = v;

	mov	edx, DWORD PTR _v$[ebp]
	mov	DWORD PTR _xmlIndentTreeOutputThrDef, edx

; 940  :     xmlMutexUnlock(xmlThrDefMutex);

	mov	eax, DWORD PTR _xmlThrDefMutex
	push	eax
	call	_xmlMutexUnlock
	add	esp, 4

; 941  :     return ret;

	mov	eax, DWORD PTR _ret$[ebp]

; 942  : }

	add	esp, 4
	cmp	ebp, esp
	call	__RTC_CheckEsp
	mov	esp, ebp
	pop	ebp
	ret	0
_xmlThrDefIndentTreeOutput ENDP
_TEXT	ENDS
; Function compile flags: /Odtp /RTCsu
; File c:\users\dag\documents\_clients\codeproject authors group\windows on arm\libxml2\libxml2-2.9.9\globals.c
;	COMDAT ___xmlIndentTreeOutput
_TEXT	SEGMENT
___xmlIndentTreeOutput PROC				; COMDAT

; 929  : __xmlIndentTreeOutput(void) {

	push	ebp
	mov	ebp, esp
	mov	ecx, OFFSET __DB69A600_globals@c
	call	@__CheckForDebuggerJustMyCode@4

; 930  :     if (IS_MAIN_THREAD)

	call	_xmlIsMainThread
	test	eax, eax
	je	SHORT $LN2@xmlIndentT

; 931  : 	return (&xmlIndentTreeOutput);

	mov	eax, OFFSET _xmlIndentTreeOutput
	jmp	SHORT $LN1@xmlIndentT
	jmp	SHORT $LN1@xmlIndentT
$LN2@xmlIndentT:

; 932  :     else
; 933  : 	return (&xmlGetGlobalState()->xmlIndentTreeOutput);

	call	_xmlGetGlobalState
	add	eax, 432				; 000001b0H
$LN1@xmlIndentT:

; 934  : }

	cmp	ebp, esp
	call	__RTC_CheckEsp
	pop	ebp
	ret	0
___xmlIndentTreeOutput ENDP
_TEXT	ENDS
; Function compile flags: /Odtp /RTCsu
; File c:\users\dag\documents\_clients\codeproject authors group\windows on arm\libxml2\libxml2-2.9.9\globals.c
;	COMDAT _xmlThrDefGetWarningsDefaultValue
_TEXT	SEGMENT
_ret$ = -4						; size = 4
_v$ = 8							; size = 4
_xmlThrDefGetWarningsDefaultValue PROC			; COMDAT

; 918  : int xmlThrDefGetWarningsDefaultValue(int v) {

	push	ebp
	mov	ebp, esp
	push	ecx
	mov	DWORD PTR [ebp-4], -858993460		; ccccccccH
	mov	ecx, OFFSET __DB69A600_globals@c
	call	@__CheckForDebuggerJustMyCode@4

; 919  :     int ret;
; 920  :     xmlMutexLock(xmlThrDefMutex);

	mov	eax, DWORD PTR _xmlThrDefMutex
	push	eax
	call	_xmlMutexLock
	add	esp, 4

; 921  :     ret = xmlGetWarningsDefaultValueThrDef;

	mov	ecx, DWORD PTR _xmlGetWarningsDefaultValueThrDef
	mov	DWORD PTR _ret$[ebp], ecx

; 922  :     xmlGetWarningsDefaultValueThrDef = v;

	mov	edx, DWORD PTR _v$[ebp]
	mov	DWORD PTR _xmlGetWarningsDefaultValueThrDef, edx

; 923  :     xmlMutexUnlock(xmlThrDefMutex);

	mov	eax, DWORD PTR _xmlThrDefMutex
	push	eax
	call	_xmlMutexUnlock
	add	esp, 4

; 924  :     return ret;

	mov	eax, DWORD PTR _ret$[ebp]

; 925  : }

	add	esp, 4
	cmp	ebp, esp
	call	__RTC_CheckEsp
	mov	esp, ebp
	pop	ebp
	ret	0
_xmlThrDefGetWarningsDefaultValue ENDP
_TEXT	ENDS
; Function compile flags: /Odtp /RTCsu
; File c:\users\dag\documents\_clients\codeproject authors group\windows on arm\libxml2\libxml2-2.9.9\globals.c
;	COMDAT ___xmlGetWarningsDefaultValue
_TEXT	SEGMENT
___xmlGetWarningsDefaultValue PROC			; COMDAT

; 912  : __xmlGetWarningsDefaultValue(void) {

	push	ebp
	mov	ebp, esp
	mov	ecx, OFFSET __DB69A600_globals@c
	call	@__CheckForDebuggerJustMyCode@4

; 913  :     if (IS_MAIN_THREAD)

	call	_xmlIsMainThread
	test	eax, eax
	je	SHORT $LN2@xmlGetWarn

; 914  : 	return (&xmlGetWarningsDefaultValue);

	mov	eax, OFFSET _xmlGetWarningsDefaultValue
	jmp	SHORT $LN1@xmlGetWarn
	jmp	SHORT $LN1@xmlGetWarn
$LN2@xmlGetWarn:

; 915  :     else
; 916  : 	return (&xmlGetGlobalState()->xmlGetWarningsDefaultValue);

	call	_xmlGetGlobalState
	add	eax, 404				; 00000194H
$LN1@xmlGetWarn:

; 917  : }

	cmp	ebp, esp
	call	__RTC_CheckEsp
	pop	ebp
	ret	0
___xmlGetWarningsDefaultValue ENDP
_TEXT	ENDS
; Function compile flags: /Odtp /RTCsu
; File c:\users\dag\documents\_clients\codeproject authors group\windows on arm\libxml2\libxml2-2.9.9\globals.c
;	COMDAT ___xmlStructuredErrorContext
_TEXT	SEGMENT
___xmlStructuredErrorContext PROC			; COMDAT

; 903  : __xmlStructuredErrorContext(void) {

	push	ebp
	mov	ebp, esp
	mov	ecx, OFFSET __DB69A600_globals@c
	call	@__CheckForDebuggerJustMyCode@4

; 904  :     if (IS_MAIN_THREAD)

	call	_xmlIsMainThread
	test	eax, eax
	je	SHORT $LN2@xmlStructu

; 905  : 	return (&xmlStructuredErrorContext);

	mov	eax, OFFSET _xmlStructuredErrorContext
	jmp	SHORT $LN1@xmlStructu
	jmp	SHORT $LN1@xmlStructu
$LN2@xmlStructu:

; 906  :     else
; 907  : 	return (&xmlGetGlobalState()->xmlStructuredErrorContext);

	call	_xmlGetGlobalState
	add	eax, 512				; 00000200H
$LN1@xmlStructu:

; 908  : }

	cmp	ebp, esp
	call	__RTC_CheckEsp
	pop	ebp
	ret	0
___xmlStructuredErrorContext ENDP
_TEXT	ENDS
; Function compile flags: /Odtp /RTCsu
; File c:\users\dag\documents\_clients\codeproject authors group\windows on arm\libxml2\libxml2-2.9.9\globals.c
;	COMDAT ___xmlGenericErrorContext
_TEXT	SEGMENT
___xmlGenericErrorContext PROC				; COMDAT

; 894  : __xmlGenericErrorContext(void) {

	push	ebp
	mov	ebp, esp
	mov	ecx, OFFSET __DB69A600_globals@c
	call	@__CheckForDebuggerJustMyCode@4

; 895  :     if (IS_MAIN_THREAD)

	call	_xmlIsMainThread
	test	eax, eax
	je	SHORT $LN2@xmlGeneric

; 896  : 	return (&xmlGenericErrorContext);

	mov	eax, OFFSET _xmlGenericErrorContext
	jmp	SHORT $LN1@xmlGeneric
	jmp	SHORT $LN1@xmlGeneric
$LN2@xmlGeneric:

; 897  :     else
; 898  : 	return (&xmlGetGlobalState()->xmlGenericErrorContext);

	call	_xmlGetGlobalState
	add	eax, 380				; 0000017cH
$LN1@xmlGeneric:

; 899  : }

	cmp	ebp, esp
	call	__RTC_CheckEsp
	pop	ebp
	ret	0
___xmlGenericErrorContext ENDP
_TEXT	ENDS
; Function compile flags: /Odtp /RTCsu
; File c:\users\dag\documents\_clients\codeproject authors group\windows on arm\libxml2\libxml2-2.9.9\globals.c
;	COMDAT ___xmlStructuredError
_TEXT	SEGMENT
___xmlStructuredError PROC				; COMDAT

; 885  : __xmlStructuredError(void) {

	push	ebp
	mov	ebp, esp
	mov	ecx, OFFSET __DB69A600_globals@c
	call	@__CheckForDebuggerJustMyCode@4

; 886  :     if (IS_MAIN_THREAD)

	call	_xmlIsMainThread
	test	eax, eax
	je	SHORT $LN2@xmlStructu

; 887  : 	return (&xmlStructuredError);

	mov	eax, OFFSET _xmlStructuredError
	jmp	SHORT $LN1@xmlStructu
	jmp	SHORT $LN1@xmlStructu
$LN2@xmlStructu:

; 888  :     else
; 889  : 	return (&xmlGetGlobalState()->xmlStructuredError);

	call	_xmlGetGlobalState
	add	eax, 376				; 00000178H
$LN1@xmlStructu:

; 890  : }

	cmp	ebp, esp
	call	__RTC_CheckEsp
	pop	ebp
	ret	0
___xmlStructuredError ENDP
_TEXT	ENDS
; Function compile flags: /Odtp /RTCsu
; File c:\users\dag\documents\_clients\codeproject authors group\windows on arm\libxml2\libxml2-2.9.9\globals.c
;	COMDAT ___xmlGenericError
_TEXT	SEGMENT
___xmlGenericError PROC					; COMDAT

; 876  : __xmlGenericError(void) {

	push	ebp
	mov	ebp, esp
	mov	ecx, OFFSET __DB69A600_globals@c
	call	@__CheckForDebuggerJustMyCode@4

; 877  :     if (IS_MAIN_THREAD)

	call	_xmlIsMainThread
	test	eax, eax
	je	SHORT $LN2@xmlGeneric

; 878  : 	return (&xmlGenericError);

	mov	eax, OFFSET _xmlGenericError
	jmp	SHORT $LN1@xmlGeneric
	jmp	SHORT $LN1@xmlGeneric
$LN2@xmlGeneric:

; 879  :     else
; 880  : 	return (&xmlGetGlobalState()->xmlGenericError);

	call	_xmlGetGlobalState
	add	eax, 372				; 00000174H
$LN1@xmlGeneric:

; 881  : }

	cmp	ebp, esp
	call	__RTC_CheckEsp
	pop	ebp
	ret	0
___xmlGenericError ENDP
_TEXT	ENDS
; Function compile flags: /Odtp /RTCsu
; File c:\users\dag\documents\_clients\codeproject authors group\windows on arm\libxml2\libxml2-2.9.9\globals.c
;	COMDAT _xmlThrDefDoValidityCheckingDefaultValue
_TEXT	SEGMENT
_ret$ = -4						; size = 4
_v$ = 8							; size = 4
_xmlThrDefDoValidityCheckingDefaultValue PROC		; COMDAT

; 865  : int xmlThrDefDoValidityCheckingDefaultValue(int v) {

	push	ebp
	mov	ebp, esp
	push	ecx
	mov	DWORD PTR [ebp-4], -858993460		; ccccccccH
	mov	ecx, OFFSET __DB69A600_globals@c
	call	@__CheckForDebuggerJustMyCode@4

; 866  :     int ret;
; 867  :     xmlMutexLock(xmlThrDefMutex);

	mov	eax, DWORD PTR _xmlThrDefMutex
	push	eax
	call	_xmlMutexLock
	add	esp, 4

; 868  :     ret = xmlDoValidityCheckingDefaultValueThrDef;

	mov	ecx, DWORD PTR _xmlDoValidityCheckingDefaultValueThrDef
	mov	DWORD PTR _ret$[ebp], ecx

; 869  :     xmlDoValidityCheckingDefaultValueThrDef = v;

	mov	edx, DWORD PTR _v$[ebp]
	mov	DWORD PTR _xmlDoValidityCheckingDefaultValueThrDef, edx

; 870  :     xmlMutexUnlock(xmlThrDefMutex);

	mov	eax, DWORD PTR _xmlThrDefMutex
	push	eax
	call	_xmlMutexUnlock
	add	esp, 4

; 871  :     return ret;

	mov	eax, DWORD PTR _ret$[ebp]

; 872  : }

	add	esp, 4
	cmp	ebp, esp
	call	__RTC_CheckEsp
	mov	esp, ebp
	pop	ebp
	ret	0
_xmlThrDefDoValidityCheckingDefaultValue ENDP
_TEXT	ENDS
; Function compile flags: /Odtp /RTCsu
; File c:\users\dag\documents\_clients\codeproject authors group\windows on arm\libxml2\libxml2-2.9.9\globals.c
;	COMDAT ___xmlDoValidityCheckingDefaultValue
_TEXT	SEGMENT
___xmlDoValidityCheckingDefaultValue PROC		; COMDAT

; 859  : __xmlDoValidityCheckingDefaultValue(void) {

	push	ebp
	mov	ebp, esp
	mov	ecx, OFFSET __DB69A600_globals@c
	call	@__CheckForDebuggerJustMyCode@4

; 860  :     if (IS_MAIN_THREAD)

	call	_xmlIsMainThread
	test	eax, eax
	je	SHORT $LN2@xmlDoValid

; 861  : 	return (&xmlDoValidityCheckingDefaultValue);

	mov	eax, OFFSET _xmlDoValidityCheckingDefaultValue
	jmp	SHORT $LN1@xmlDoValid
	jmp	SHORT $LN1@xmlDoValid
$LN2@xmlDoValid:

; 862  :     else
; 863  : 	return (&xmlGetGlobalState()->xmlDoValidityCheckingDefaultValue);

	call	_xmlGetGlobalState
	add	eax, 400				; 00000190H
$LN1@xmlDoValid:

; 864  : }

	cmp	ebp, esp
	call	__RTC_CheckEsp
	pop	ebp
	ret	0
___xmlDoValidityCheckingDefaultValue ENDP
_TEXT	ENDS
; Function compile flags: /Odtp /RTCsu
; File c:\users\dag\documents\_clients\codeproject authors group\windows on arm\libxml2\libxml2-2.9.9\globals.c
;	COMDAT ___xmlDefaultSAXLocator
_TEXT	SEGMENT
___xmlDefaultSAXLocator PROC				; COMDAT

; 850  : __xmlDefaultSAXLocator(void) {

	push	ebp
	mov	ebp, esp
	mov	ecx, OFFSET __DB69A600_globals@c
	call	@__CheckForDebuggerJustMyCode@4

; 851  :     if (IS_MAIN_THREAD)

	call	_xmlIsMainThread
	test	eax, eax
	je	SHORT $LN2@xmlDefault

; 852  : 	return (&xmlDefaultSAXLocator);

	mov	eax, OFFSET _xmlDefaultSAXLocator
	jmp	SHORT $LN1@xmlDefault
	jmp	SHORT $LN1@xmlDefault
$LN2@xmlDefault:

; 853  :     else
; 854  : 	return (&xmlGetGlobalState()->xmlDefaultSAXLocator);

	call	_xmlGetGlobalState
	add	eax, 4
$LN1@xmlDefault:

; 855  : }

	cmp	ebp, esp
	call	__RTC_CheckEsp
	pop	ebp
	ret	0
___xmlDefaultSAXLocator ENDP
_TEXT	ENDS
; Function compile flags: /Odtp /RTCsu
; File c:\users\dag\documents\_clients\codeproject authors group\windows on arm\libxml2\libxml2-2.9.9\globals.c
;	COMDAT ___xmlDefaultSAXHandler
_TEXT	SEGMENT
___xmlDefaultSAXHandler PROC				; COMDAT

; 840  : __xmlDefaultSAXHandler(void) {

	push	ebp
	mov	ebp, esp
	mov	ecx, OFFSET __DB69A600_globals@c
	call	@__CheckForDebuggerJustMyCode@4

; 841  :     if (IS_MAIN_THREAD)

	call	_xmlIsMainThread
	test	eax, eax
	je	SHORT $LN2@xmlDefault

; 842  : 	return (&xmlDefaultSAXHandler);

	mov	eax, OFFSET _xmlDefaultSAXHandler
	jmp	SHORT $LN1@xmlDefault
	jmp	SHORT $LN1@xmlDefault
$LN2@xmlDefault:

; 843  :     else
; 844  : 	return (&xmlGetGlobalState()->xmlDefaultSAXHandler);

	call	_xmlGetGlobalState
	add	eax, 20					; 00000014H
$LN1@xmlDefault:

; 845  : }

	cmp	ebp, esp
	call	__RTC_CheckEsp
	pop	ebp
	ret	0
___xmlDefaultSAXHandler ENDP
_TEXT	ENDS
; Function compile flags: /Odtp /RTCsu
; File c:\users\dag\documents\_clients\codeproject authors group\windows on arm\libxml2\libxml2-2.9.9\globals.c
;	COMDAT _xmlThrDefDefaultBufferSize
_TEXT	SEGMENT
_ret$ = -4						; size = 4
_v$ = 8							; size = 4
_xmlThrDefDefaultBufferSize PROC			; COMDAT

; 828  : int xmlThrDefDefaultBufferSize(int v) {

	push	ebp
	mov	ebp, esp
	push	ecx
	mov	DWORD PTR [ebp-4], -858993460		; ccccccccH
	mov	ecx, OFFSET __DB69A600_globals@c
	call	@__CheckForDebuggerJustMyCode@4

; 829  :     int ret;
; 830  :     xmlMutexLock(xmlThrDefMutex);

	mov	eax, DWORD PTR _xmlThrDefMutex
	push	eax
	call	_xmlMutexLock
	add	esp, 4

; 831  :     ret = xmlDefaultBufferSizeThrDef;

	mov	ecx, DWORD PTR _xmlDefaultBufferSizeThrDef
	mov	DWORD PTR _ret$[ebp], ecx

; 832  :     xmlDefaultBufferSizeThrDef = v;

	mov	edx, DWORD PTR _v$[ebp]
	mov	DWORD PTR _xmlDefaultBufferSizeThrDef, edx

; 833  :     xmlMutexUnlock(xmlThrDefMutex);

	mov	eax, DWORD PTR _xmlThrDefMutex
	push	eax
	call	_xmlMutexUnlock
	add	esp, 4

; 834  :     return ret;

	mov	eax, DWORD PTR _ret$[ebp]

; 835  : }

	add	esp, 4
	cmp	ebp, esp
	call	__RTC_CheckEsp
	mov	esp, ebp
	pop	ebp
	ret	0
_xmlThrDefDefaultBufferSize ENDP
_TEXT	ENDS
; Function compile flags: /Odtp /RTCsu
; File c:\users\dag\documents\_clients\codeproject authors group\windows on arm\libxml2\libxml2-2.9.9\globals.c
;	COMDAT ___xmlDefaultBufferSize
_TEXT	SEGMENT
___xmlDefaultBufferSize PROC				; COMDAT

; 822  : __xmlDefaultBufferSize(void) {

	push	ebp
	mov	ebp, esp
	mov	ecx, OFFSET __DB69A600_globals@c
	call	@__CheckForDebuggerJustMyCode@4

; 823  :     if (IS_MAIN_THREAD)

	call	_xmlIsMainThread
	test	eax, eax
	je	SHORT $LN2@xmlDefault

; 824  : 	return (&xmlDefaultBufferSize);

	mov	eax, OFFSET _xmlDefaultBufferSize
	jmp	SHORT $LN1@xmlDefault
	jmp	SHORT $LN1@xmlDefault
$LN2@xmlDefault:

; 825  :     else
; 826  : 	return (&xmlGetGlobalState()->xmlDefaultBufferSize);

	call	_xmlGetGlobalState
	add	eax, 392				; 00000188H
$LN1@xmlDefault:

; 827  : }

	cmp	ebp, esp
	call	__RTC_CheckEsp
	pop	ebp
	ret	0
___xmlDefaultBufferSize ENDP
_TEXT	ENDS
; Function compile flags: /Odtp /RTCsu
; File c:\users\dag\documents\_clients\codeproject authors group\windows on arm\libxml2\libxml2-2.9.9\globals.c
;	COMDAT _xmlThrDefBufferAllocScheme
_TEXT	SEGMENT
_ret$ = -4						; size = 4
_v$ = 8							; size = 4
_xmlThrDefBufferAllocScheme PROC			; COMDAT

; 811  : xmlBufferAllocationScheme xmlThrDefBufferAllocScheme(xmlBufferAllocationScheme v) {

	push	ebp
	mov	ebp, esp
	push	ecx
	mov	DWORD PTR [ebp-4], -858993460		; ccccccccH
	mov	ecx, OFFSET __DB69A600_globals@c
	call	@__CheckForDebuggerJustMyCode@4

; 812  :     xmlBufferAllocationScheme ret;
; 813  :     xmlMutexLock(xmlThrDefMutex);

	mov	eax, DWORD PTR _xmlThrDefMutex
	push	eax
	call	_xmlMutexLock
	add	esp, 4

; 814  :     ret = xmlBufferAllocSchemeThrDef;

	mov	ecx, DWORD PTR _xmlBufferAllocSchemeThrDef
	mov	DWORD PTR _ret$[ebp], ecx

; 815  :     xmlBufferAllocSchemeThrDef = v;

	mov	edx, DWORD PTR _v$[ebp]
	mov	DWORD PTR _xmlBufferAllocSchemeThrDef, edx

; 816  :     xmlMutexUnlock(xmlThrDefMutex);

	mov	eax, DWORD PTR _xmlThrDefMutex
	push	eax
	call	_xmlMutexUnlock
	add	esp, 4

; 817  :     return ret;

	mov	eax, DWORD PTR _ret$[ebp]

; 818  : }

	add	esp, 4
	cmp	ebp, esp
	call	__RTC_CheckEsp
	mov	esp, ebp
	pop	ebp
	ret	0
_xmlThrDefBufferAllocScheme ENDP
_TEXT	ENDS
; Function compile flags: /Odtp /RTCsu
; File c:\users\dag\documents\_clients\codeproject authors group\windows on arm\libxml2\libxml2-2.9.9\globals.c
;	COMDAT ___xmlBufferAllocScheme
_TEXT	SEGMENT
___xmlBufferAllocScheme PROC				; COMDAT

; 805  : __xmlBufferAllocScheme(void) {

	push	ebp
	mov	ebp, esp
	mov	ecx, OFFSET __DB69A600_globals@c
	call	@__CheckForDebuggerJustMyCode@4

; 806  :     if (IS_MAIN_THREAD)

	call	_xmlIsMainThread
	test	eax, eax
	je	SHORT $LN2@xmlBufferA

; 807  : 	return (&xmlBufferAllocScheme);

	mov	eax, OFFSET _xmlBufferAllocScheme
	jmp	SHORT $LN1@xmlBufferA
	jmp	SHORT $LN1@xmlBufferA
$LN2@xmlBufferA:

; 808  :     else
; 809  : 	return (&xmlGetGlobalState()->xmlBufferAllocScheme);

	call	_xmlGetGlobalState
	add	eax, 388				; 00000184H
$LN1@xmlBufferA:

; 810  : }

	cmp	ebp, esp
	call	__RTC_CheckEsp
	pop	ebp
	ret	0
___xmlBufferAllocScheme ENDP
_TEXT	ENDS
; Function compile flags: /Odtp /RTCsu
; File c:\users\dag\documents\_clients\codeproject authors group\windows on arm\libxml2\libxml2-2.9.9\globals.c
;	COMDAT ___oldXMLWDcompatibility
_TEXT	SEGMENT
___oldXMLWDcompatibility PROC				; COMDAT

; 796  : __oldXMLWDcompatibility(void) {

	push	ebp
	mov	ebp, esp
	mov	ecx, OFFSET __DB69A600_globals@c
	call	@__CheckForDebuggerJustMyCode@4

; 797  :     if (IS_MAIN_THREAD)

	call	_xmlIsMainThread
	test	eax, eax
	je	SHORT $LN2@oldXMLWDco

; 798  : 	return (&oldXMLWDcompatibility);

	mov	eax, OFFSET _oldXMLWDcompatibility
	jmp	SHORT $LN1@oldXMLWDco
	jmp	SHORT $LN1@oldXMLWDco
$LN2@oldXMLWDco:

; 799  :     else
; 800  : 	return (&xmlGetGlobalState()->oldXMLWDcompatibility);

	call	_xmlGetGlobalState
	add	eax, 384				; 00000180H
$LN1@oldXMLWDco:

; 801  : }

	cmp	ebp, esp
	call	__RTC_CheckEsp
	pop	ebp
	ret	0
___oldXMLWDcompatibility ENDP
_TEXT	ENDS
; Function compile flags: /Odtp /RTCsu
; File c:\users\dag\documents\_clients\codeproject authors group\windows on arm\libxml2\libxml2-2.9.9\globals.c
;	COMDAT ___xmlLastError
_TEXT	SEGMENT
___xmlLastError PROC					; COMDAT

; 728  : __xmlLastError(void) {

	push	ebp
	mov	ebp, esp
	mov	ecx, OFFSET __DB69A600_globals@c
	call	@__CheckForDebuggerJustMyCode@4

; 729  :     if (IS_MAIN_THREAD)

	call	_xmlIsMainThread
	test	eax, eax
	je	SHORT $LN2@xmlLastErr

; 730  : 	return (&xmlLastError);

	mov	eax, OFFSET _xmlLastError
	jmp	SHORT $LN1@xmlLastErr
	jmp	SHORT $LN1@xmlLastErr
$LN2@xmlLastErr:

; 731  :     else
; 732  : 	return (&xmlGetGlobalState()->xmlLastError);

	call	_xmlGetGlobalState
	add	eax, 452				; 000001c4H
$LN1@xmlLastErr:

; 733  : }

	cmp	ebp, esp
	call	__RTC_CheckEsp
	pop	ebp
	ret	0
___xmlLastError ENDP
_TEXT	ENDS
; Function compile flags: /Odtp /RTCsu
; File c:\users\dag\documents\_clients\codeproject authors group\windows on arm\libxml2\libxml2-2.9.9\globals.c
;	COMDAT ___htmlDefaultSAXHandler
_TEXT	SEGMENT
___htmlDefaultSAXHandler PROC				; COMDAT

; 718  : __htmlDefaultSAXHandler(void) {

	push	ebp
	mov	ebp, esp
	mov	ecx, OFFSET __DB69A600_globals@c
	call	@__CheckForDebuggerJustMyCode@4

; 719  :     if (IS_MAIN_THREAD)

	call	_xmlIsMainThread
	test	eax, eax
	je	SHORT $LN2@htmlDefaul

; 720  : 	return (&htmlDefaultSAXHandler);

	mov	eax, OFFSET _htmlDefaultSAXHandler
	jmp	SHORT $LN1@htmlDefaul
	jmp	SHORT $LN1@htmlDefaul
$LN2@htmlDefaul:

; 721  :     else
; 722  : 	return (&xmlGetGlobalState()->htmlDefaultSAXHandler);

	call	_xmlGetGlobalState
	add	eax, 244				; 000000f4H
$LN1@htmlDefaul:

; 723  : }

	cmp	ebp, esp
	call	__RTC_CheckEsp
	pop	ebp
	ret	0
___htmlDefaultSAXHandler ENDP
_TEXT	ENDS
; Function compile flags: /Odtp /RTCsu
; File c:\users\dag\documents\_clients\codeproject authors group\windows on arm\libxml2\libxml2-2.9.9\globals.c
;	COMDAT ___docbDefaultSAXHandler
_TEXT	SEGMENT
___docbDefaultSAXHandler PROC				; COMDAT

; 707  : __docbDefaultSAXHandler(void) {

	push	ebp
	mov	ebp, esp
	mov	ecx, OFFSET __DB69A600_globals@c
	call	@__CheckForDebuggerJustMyCode@4

; 708  :     if (IS_MAIN_THREAD)

	call	_xmlIsMainThread
	test	eax, eax
	je	SHORT $LN2@docbDefaul

; 709  : 	return (&docbDefaultSAXHandler);

	mov	eax, OFFSET _docbDefaultSAXHandler
	jmp	SHORT $LN1@docbDefaul
	jmp	SHORT $LN1@docbDefaul
$LN2@docbDefaul:

; 710  :     else
; 711  : 	return (&xmlGetGlobalState()->docbDefaultSAXHandler);

	call	_xmlGetGlobalState
	add	eax, 132				; 00000084H
$LN1@docbDefaul:

; 712  : }

	cmp	ebp, esp
	call	__RTC_CheckEsp
	pop	ebp
	ret	0
___docbDefaultSAXHandler ENDP
_TEXT	ENDS
; Function compile flags: /Odtp /RTCsu
; File c:\users\dag\documents\_clients\codeproject authors group\windows on arm\libxml2\libxml2-2.9.9\globals.c
;	COMDAT _xmlThrDefParserInputBufferCreateFilenameDefault
_TEXT	SEGMENT
_old$ = -4						; size = 4
_func$ = 8						; size = 4
_xmlThrDefParserInputBufferCreateFilenameDefault PROC	; COMDAT

; 671  : {

	push	ebp
	mov	ebp, esp
	push	ecx
	mov	DWORD PTR [ebp-4], -858993460		; ccccccccH
	mov	ecx, OFFSET __DB69A600_globals@c
	call	@__CheckForDebuggerJustMyCode@4

; 672  :     xmlParserInputBufferCreateFilenameFunc old;
; 673  : 
; 674  :     xmlMutexLock(xmlThrDefMutex);

	mov	eax, DWORD PTR _xmlThrDefMutex
	push	eax
	call	_xmlMutexLock
	add	esp, 4

; 675  :     old = xmlParserInputBufferCreateFilenameValueThrDef;

	mov	ecx, DWORD PTR _xmlParserInputBufferCreateFilenameValueThrDef
	mov	DWORD PTR _old$[ebp], ecx

; 676  :     if (old == NULL) {

	cmp	DWORD PTR _old$[ebp], 0
	jne	SHORT $LN2@xmlThrDefP

; 677  : 		old = __xmlParserInputBufferCreateFilename;

	mov	DWORD PTR _old$[ebp], OFFSET ___xmlParserInputBufferCreateFilename
$LN2@xmlThrDefP:

; 678  : 	}
; 679  : 
; 680  :     xmlParserInputBufferCreateFilenameValueThrDef = func;

	mov	edx, DWORD PTR _func$[ebp]
	mov	DWORD PTR _xmlParserInputBufferCreateFilenameValueThrDef, edx

; 681  :     xmlMutexUnlock(xmlThrDefMutex);

	mov	eax, DWORD PTR _xmlThrDefMutex
	push	eax
	call	_xmlMutexUnlock
	add	esp, 4

; 682  : 
; 683  :     return(old);

	mov	eax, DWORD PTR _old$[ebp]

; 684  : }

	add	esp, 4
	cmp	ebp, esp
	call	__RTC_CheckEsp
	mov	esp, ebp
	pop	ebp
	ret	0
_xmlThrDefParserInputBufferCreateFilenameDefault ENDP
_TEXT	ENDS
; Function compile flags: /Odtp /RTCsu
; File c:\users\dag\documents\_clients\codeproject authors group\windows on arm\libxml2\libxml2-2.9.9\globals.c
;	COMDAT _xmlThrDefOutputBufferCreateFilenameDefault
_TEXT	SEGMENT
_old$ = -4						; size = 4
_func$ = 8						; size = 4
_xmlThrDefOutputBufferCreateFilenameDefault PROC	; COMDAT

; 688  : {

	push	ebp
	mov	ebp, esp
	push	ecx
	mov	DWORD PTR [ebp-4], -858993460		; ccccccccH
	mov	ecx, OFFSET __DB69A600_globals@c
	call	@__CheckForDebuggerJustMyCode@4

; 689  :     xmlOutputBufferCreateFilenameFunc old;
; 690  : 
; 691  :     xmlMutexLock(xmlThrDefMutex);

	mov	eax, DWORD PTR _xmlThrDefMutex
	push	eax
	call	_xmlMutexLock
	add	esp, 4

; 692  :     old = xmlOutputBufferCreateFilenameValueThrDef;

	mov	ecx, DWORD PTR _xmlOutputBufferCreateFilenameValueThrDef
	mov	DWORD PTR _old$[ebp], ecx

; 693  : #ifdef LIBXML_OUTPUT_ENABLED
; 694  :     if (old == NULL) {

	cmp	DWORD PTR _old$[ebp], 0
	jne	SHORT $LN2@xmlThrDefO

; 695  : 		old = __xmlOutputBufferCreateFilename;

	mov	DWORD PTR _old$[ebp], OFFSET ___xmlOutputBufferCreateFilename
$LN2@xmlThrDefO:

; 696  : 	}
; 697  : #endif
; 698  :     xmlOutputBufferCreateFilenameValueThrDef = func;

	mov	edx, DWORD PTR _func$[ebp]
	mov	DWORD PTR _xmlOutputBufferCreateFilenameValueThrDef, edx

; 699  :     xmlMutexUnlock(xmlThrDefMutex);

	mov	eax, DWORD PTR _xmlThrDefMutex
	push	eax
	call	_xmlMutexUnlock
	add	esp, 4

; 700  : 
; 701  :     return(old);

	mov	eax, DWORD PTR _old$[ebp]

; 702  : }

	add	esp, 4
	cmp	ebp, esp
	call	__RTC_CheckEsp
	mov	esp, ebp
	pop	ebp
	ret	0
_xmlThrDefOutputBufferCreateFilenameDefault ENDP
_TEXT	ENDS
; Function compile flags: /Odtp /RTCsu
; File c:\users\dag\documents\_clients\codeproject authors group\windows on arm\libxml2\libxml2-2.9.9\globals.c
;	COMDAT _xmlThrDefDeregisterNodeDefault
_TEXT	SEGMENT
_old$ = -4						; size = 4
_func$ = 8						; size = 4
_xmlThrDefDeregisterNodeDefault PROC			; COMDAT

; 656  : {

	push	ebp
	mov	ebp, esp
	push	ecx
	mov	DWORD PTR [ebp-4], -858993460		; ccccccccH
	mov	ecx, OFFSET __DB69A600_globals@c
	call	@__CheckForDebuggerJustMyCode@4

; 657  :     xmlDeregisterNodeFunc old;
; 658  : 
; 659  :     xmlMutexLock(xmlThrDefMutex);

	mov	eax, DWORD PTR _xmlThrDefMutex
	push	eax
	call	_xmlMutexLock
	add	esp, 4

; 660  :     old = xmlDeregisterNodeDefaultValueThrDef;

	mov	ecx, DWORD PTR _xmlDeregisterNodeDefaultValueThrDef
	mov	DWORD PTR _old$[ebp], ecx

; 661  : 
; 662  :     __xmlRegisterCallbacks = 1;

	mov	DWORD PTR ___xmlRegisterCallbacks, 1

; 663  :     xmlDeregisterNodeDefaultValueThrDef = func;

	mov	edx, DWORD PTR _func$[ebp]
	mov	DWORD PTR _xmlDeregisterNodeDefaultValueThrDef, edx

; 664  :     xmlMutexUnlock(xmlThrDefMutex);

	mov	eax, DWORD PTR _xmlThrDefMutex
	push	eax
	call	_xmlMutexUnlock
	add	esp, 4

; 665  : 
; 666  :     return(old);

	mov	eax, DWORD PTR _old$[ebp]

; 667  : }

	add	esp, 4
	cmp	ebp, esp
	call	__RTC_CheckEsp
	mov	esp, ebp
	pop	ebp
	ret	0
_xmlThrDefDeregisterNodeDefault ENDP
_TEXT	ENDS
; Function compile flags: /Odtp /RTCsu
; File c:\users\dag\documents\_clients\codeproject authors group\windows on arm\libxml2\libxml2-2.9.9\globals.c
;	COMDAT _xmlDeregisterNodeDefault
_TEXT	SEGMENT
_old$ = -4						; size = 4
_func$ = 8						; size = 4
_xmlDeregisterNodeDefault PROC				; COMDAT

; 646  : {

	push	ebp
	mov	ebp, esp
	push	ecx
	mov	DWORD PTR [ebp-4], -858993460		; ccccccccH
	mov	ecx, OFFSET __DB69A600_globals@c
	call	@__CheckForDebuggerJustMyCode@4

; 647  :     xmlDeregisterNodeFunc old = xmlDeregisterNodeDefaultValue;

	mov	eax, DWORD PTR _xmlDeregisterNodeDefaultValue
	mov	DWORD PTR _old$[ebp], eax

; 648  : 
; 649  :     __xmlRegisterCallbacks = 1;

	mov	DWORD PTR ___xmlRegisterCallbacks, 1

; 650  :     xmlDeregisterNodeDefaultValue = func;

	mov	ecx, DWORD PTR _func$[ebp]
	mov	DWORD PTR _xmlDeregisterNodeDefaultValue, ecx

; 651  :     return(old);

	mov	eax, DWORD PTR _old$[ebp]

; 652  : }

	add	esp, 4
	cmp	ebp, esp
	call	__RTC_CheckEsp
	mov	esp, ebp
	pop	ebp
	ret	0
_xmlDeregisterNodeDefault ENDP
_TEXT	ENDS
; Function compile flags: /Odtp /RTCsu
; File c:\users\dag\documents\_clients\codeproject authors group\windows on arm\libxml2\libxml2-2.9.9\globals.c
;	COMDAT _xmlThrDefRegisterNodeDefault
_TEXT	SEGMENT
_old$ = -4						; size = 4
_func$ = 8						; size = 4
_xmlThrDefRegisterNodeDefault PROC			; COMDAT

; 623  : {

	push	ebp
	mov	ebp, esp
	push	ecx
	mov	DWORD PTR [ebp-4], -858993460		; ccccccccH
	mov	ecx, OFFSET __DB69A600_globals@c
	call	@__CheckForDebuggerJustMyCode@4

; 624  :     xmlRegisterNodeFunc old;
; 625  : 
; 626  :     xmlMutexLock(xmlThrDefMutex);

	mov	eax, DWORD PTR _xmlThrDefMutex
	push	eax
	call	_xmlMutexLock
	add	esp, 4

; 627  :     old = xmlRegisterNodeDefaultValueThrDef;

	mov	ecx, DWORD PTR _xmlRegisterNodeDefaultValueThrDef
	mov	DWORD PTR _old$[ebp], ecx

; 628  : 
; 629  :     __xmlRegisterCallbacks = 1;

	mov	DWORD PTR ___xmlRegisterCallbacks, 1

; 630  :     xmlRegisterNodeDefaultValueThrDef = func;

	mov	edx, DWORD PTR _func$[ebp]
	mov	DWORD PTR _xmlRegisterNodeDefaultValueThrDef, edx

; 631  :     xmlMutexUnlock(xmlThrDefMutex);

	mov	eax, DWORD PTR _xmlThrDefMutex
	push	eax
	call	_xmlMutexUnlock
	add	esp, 4

; 632  : 
; 633  :     return(old);

	mov	eax, DWORD PTR _old$[ebp]

; 634  : }

	add	esp, 4
	cmp	ebp, esp
	call	__RTC_CheckEsp
	mov	esp, ebp
	pop	ebp
	ret	0
_xmlThrDefRegisterNodeDefault ENDP
_TEXT	ENDS
; Function compile flags: /Odtp /RTCsu
; File c:\users\dag\documents\_clients\codeproject authors group\windows on arm\libxml2\libxml2-2.9.9\globals.c
;	COMDAT _xmlRegisterNodeDefault
_TEXT	SEGMENT
_old$ = -4						; size = 4
_func$ = 8						; size = 4
_xmlRegisterNodeDefault PROC				; COMDAT

; 613  : {

	push	ebp
	mov	ebp, esp
	push	ecx
	mov	DWORD PTR [ebp-4], -858993460		; ccccccccH
	mov	ecx, OFFSET __DB69A600_globals@c
	call	@__CheckForDebuggerJustMyCode@4

; 614  :     xmlRegisterNodeFunc old = xmlRegisterNodeDefaultValue;

	mov	eax, DWORD PTR _xmlRegisterNodeDefaultValue
	mov	DWORD PTR _old$[ebp], eax

; 615  : 
; 616  :     __xmlRegisterCallbacks = 1;

	mov	DWORD PTR ___xmlRegisterCallbacks, 1

; 617  :     xmlRegisterNodeDefaultValue = func;

	mov	ecx, DWORD PTR _func$[ebp]
	mov	DWORD PTR _xmlRegisterNodeDefaultValue, ecx

; 618  :     return(old);

	mov	eax, DWORD PTR _old$[ebp]

; 619  : }

	add	esp, 4
	cmp	ebp, esp
	call	__RTC_CheckEsp
	mov	esp, ebp
	pop	ebp
	ret	0
_xmlRegisterNodeDefault ENDP
_TEXT	ENDS
; Function compile flags: /Odtp /RTCsu
; File c:\users\dag\documents\_clients\codeproject authors group\windows on arm\libxml2\libxml2-2.9.9\globals.c
;	COMDAT _xmlThrDefSetStructuredErrorFunc
_TEXT	SEGMENT
_ctx$ = 8						; size = 4
_handler$ = 12						; size = 4
_xmlThrDefSetStructuredErrorFunc PROC			; COMDAT

; 596  : xmlThrDefSetStructuredErrorFunc(void *ctx, xmlStructuredErrorFunc handler) {

	push	ebp
	mov	ebp, esp
	mov	ecx, OFFSET __DB69A600_globals@c
	call	@__CheckForDebuggerJustMyCode@4

; 597  :     xmlMutexLock(xmlThrDefMutex);

	mov	eax, DWORD PTR _xmlThrDefMutex
	push	eax
	call	_xmlMutexLock
	add	esp, 4

; 598  :     xmlStructuredErrorContextThrDef = ctx;

	mov	ecx, DWORD PTR _ctx$[ebp]
	mov	DWORD PTR _xmlStructuredErrorContextThrDef, ecx

; 599  :     xmlStructuredErrorThrDef = handler;

	mov	edx, DWORD PTR _handler$[ebp]
	mov	DWORD PTR _xmlStructuredErrorThrDef, edx

; 600  :     xmlMutexUnlock(xmlThrDefMutex);

	mov	eax, DWORD PTR _xmlThrDefMutex
	push	eax
	call	_xmlMutexUnlock
	add	esp, 4

; 601  : }

	cmp	ebp, esp
	call	__RTC_CheckEsp
	pop	ebp
	ret	0
_xmlThrDefSetStructuredErrorFunc ENDP
_TEXT	ENDS
; Function compile flags: /Odtp /RTCsu
; File c:\users\dag\documents\_clients\codeproject authors group\windows on arm\libxml2\libxml2-2.9.9\globals.c
;	COMDAT _xmlThrDefSetGenericErrorFunc
_TEXT	SEGMENT
_ctx$ = 8						; size = 4
_handler$ = 12						; size = 4
_xmlThrDefSetGenericErrorFunc PROC			; COMDAT

; 585  : xmlThrDefSetGenericErrorFunc(void *ctx, xmlGenericErrorFunc handler) {

	push	ebp
	mov	ebp, esp
	mov	ecx, OFFSET __DB69A600_globals@c
	call	@__CheckForDebuggerJustMyCode@4

; 586  :     xmlMutexLock(xmlThrDefMutex);

	mov	eax, DWORD PTR _xmlThrDefMutex
	push	eax
	call	_xmlMutexLock
	add	esp, 4

; 587  :     xmlGenericErrorContextThrDef = ctx;

	mov	ecx, DWORD PTR _ctx$[ebp]
	mov	DWORD PTR _xmlGenericErrorContextThrDef, ecx

; 588  :     if (handler != NULL)

	cmp	DWORD PTR _handler$[ebp], 0
	je	SHORT $LN2@xmlThrDefS

; 589  : 	xmlGenericErrorThrDef = handler;

	mov	edx, DWORD PTR _handler$[ebp]
	mov	DWORD PTR _xmlGenericErrorThrDef, edx
	jmp	SHORT $LN3@xmlThrDefS
$LN2@xmlThrDefS:

; 590  :     else
; 591  : 	xmlGenericErrorThrDef = xmlGenericErrorDefaultFunc;

	mov	DWORD PTR _xmlGenericErrorThrDef, OFFSET _xmlGenericErrorDefaultFunc
$LN3@xmlThrDefS:

; 592  :     xmlMutexUnlock(xmlThrDefMutex);

	mov	eax, DWORD PTR _xmlThrDefMutex
	push	eax
	call	_xmlMutexUnlock
	add	esp, 4

; 593  : }

	cmp	ebp, esp
	call	__RTC_CheckEsp
	pop	ebp
	ret	0
_xmlThrDefSetGenericErrorFunc ENDP
_TEXT	ENDS
; Function compile flags: /Odtp /RTCsu
; File c:\users\dag\documents\_clients\codeproject authors group\windows on arm\libxml2\libxml2-2.9.9\globals.c
;	COMDAT _xmlInitializeGlobalState
_TEXT	SEGMENT
_gs$ = 8						; size = 4
_xmlInitializeGlobalState PROC				; COMDAT

; 507  : {

	push	ebp
	mov	ebp, esp
	mov	ecx, OFFSET __DB69A600_globals@c
	call	@__CheckForDebuggerJustMyCode@4

; 508  : #ifdef DEBUG_GLOBALS
; 509  :     fprintf(stderr, "Initializing globals at %lu for thread %d\n",
; 510  : 	    (unsigned long) gs, xmlGetThreadId());
; 511  : #endif
; 512  : 
; 513  :     /*
; 514  :      * Perform initialization as required by libxml
; 515  :      */
; 516  :     if (xmlThrDefMutex == NULL)

	cmp	DWORD PTR _xmlThrDefMutex, 0
	jne	SHORT $LN2@xmlInitial

; 517  :         xmlInitGlobals();

	call	_xmlInitGlobals
$LN2@xmlInitial:

; 518  : 
; 519  :     xmlMutexLock(xmlThrDefMutex);

	mov	eax, DWORD PTR _xmlThrDefMutex
	push	eax
	call	_xmlMutexLock
	add	esp, 4

; 520  : 
; 521  : #if defined(LIBXML_DOCB_ENABLED) && defined(LIBXML_LEGACY_ENABLED) && defined(LIBXML_SAX1_ENABLED)
; 522  :     initdocbDefaultSAXHandler(&gs->docbDefaultSAXHandler);

	mov	ecx, DWORD PTR _gs$[ebp]
	add	ecx, 132				; 00000084H
	push	ecx
	call	_initdocbDefaultSAXHandler
	add	esp, 4

; 523  : #endif
; 524  : #if defined(LIBXML_HTML_ENABLED) && defined(LIBXML_LEGACY_ENABLED) && defined(LIBXML_SAX1_ENABLED)
; 525  :     inithtmlDefaultSAXHandler(&gs->htmlDefaultSAXHandler);

	mov	edx, DWORD PTR _gs$[ebp]
	add	edx, 244				; 000000f4H
	push	edx
	call	_inithtmlDefaultSAXHandler
	add	esp, 4

; 526  : #endif
; 527  : 
; 528  :     gs->oldXMLWDcompatibility = 0;

	mov	eax, DWORD PTR _gs$[ebp]
	mov	DWORD PTR [eax+384], 0

; 529  :     gs->xmlBufferAllocScheme = xmlBufferAllocSchemeThrDef;

	mov	ecx, DWORD PTR _gs$[ebp]
	mov	edx, DWORD PTR _xmlBufferAllocSchemeThrDef
	mov	DWORD PTR [ecx+388], edx

; 530  :     gs->xmlDefaultBufferSize = xmlDefaultBufferSizeThrDef;

	mov	eax, DWORD PTR _gs$[ebp]
	mov	ecx, DWORD PTR _xmlDefaultBufferSizeThrDef
	mov	DWORD PTR [eax+392], ecx

; 531  : #if defined(LIBXML_SAX1_ENABLED) && defined(LIBXML_LEGACY_ENABLED)
; 532  :     initxmlDefaultSAXHandler(&gs->xmlDefaultSAXHandler, 1);

	push	1
	mov	edx, DWORD PTR _gs$[ebp]
	add	edx, 20					; 00000014H
	push	edx
	call	_initxmlDefaultSAXHandler
	add	esp, 8

; 533  : #endif /* LIBXML_SAX1_ENABLED */
; 534  :     gs->xmlDefaultSAXLocator.getPublicId = xmlSAX2GetPublicId;

	mov	eax, DWORD PTR _gs$[ebp]
	mov	DWORD PTR [eax+4], OFFSET _xmlSAX2GetPublicId

; 535  :     gs->xmlDefaultSAXLocator.getSystemId = xmlSAX2GetSystemId;

	mov	ecx, DWORD PTR _gs$[ebp]
	mov	DWORD PTR [ecx+8], OFFSET _xmlSAX2GetSystemId

; 536  :     gs->xmlDefaultSAXLocator.getLineNumber = xmlSAX2GetLineNumber;

	mov	edx, DWORD PTR _gs$[ebp]
	mov	DWORD PTR [edx+12], OFFSET _xmlSAX2GetLineNumber

; 537  :     gs->xmlDefaultSAXLocator.getColumnNumber = xmlSAX2GetColumnNumber;

	mov	eax, DWORD PTR _gs$[ebp]
	mov	DWORD PTR [eax+16], OFFSET _xmlSAX2GetColumnNumber

; 538  :     gs->xmlDoValidityCheckingDefaultValue =

	mov	ecx, DWORD PTR _gs$[ebp]
	mov	edx, DWORD PTR _xmlDoValidityCheckingDefaultValueThrDef
	mov	DWORD PTR [ecx+400], edx

; 539  :          xmlDoValidityCheckingDefaultValueThrDef;
; 540  : #if defined(DEBUG_MEMORY_LOCATION) | defined(DEBUG_MEMORY)
; 541  :     gs->xmlFree = (xmlFreeFunc) xmlMemFree;
; 542  :     gs->xmlMalloc = (xmlMallocFunc) xmlMemMalloc;
; 543  :     gs->xmlMallocAtomic = (xmlMallocFunc) xmlMemMalloc;
; 544  :     gs->xmlRealloc = (xmlReallocFunc) xmlMemRealloc;
; 545  :     gs->xmlMemStrdup = (xmlStrdupFunc) xmlMemoryStrdup;
; 546  : #else
; 547  :     gs->xmlFree = (xmlFreeFunc) free;

	mov	eax, DWORD PTR _gs$[ebp]
	mov	ecx, DWORD PTR __imp__free
	mov	DWORD PTR [eax+356], ecx

; 548  :     gs->xmlMalloc = (xmlMallocFunc) malloc;

	mov	edx, DWORD PTR _gs$[ebp]
	mov	eax, DWORD PTR __imp__malloc
	mov	DWORD PTR [edx+360], eax

; 549  :     gs->xmlMallocAtomic = (xmlMallocFunc) malloc;

	mov	ecx, DWORD PTR _gs$[ebp]
	mov	edx, DWORD PTR __imp__malloc
	mov	DWORD PTR [ecx+448], edx

; 550  :     gs->xmlRealloc = (xmlReallocFunc) realloc;

	mov	eax, DWORD PTR _gs$[ebp]
	mov	ecx, DWORD PTR __imp__realloc
	mov	DWORD PTR [eax+368], ecx

; 551  :     gs->xmlMemStrdup = (xmlStrdupFunc) xmlStrdup;

	mov	edx, DWORD PTR _gs$[ebp]
	mov	DWORD PTR [edx+364], OFFSET _xmlStrdup

; 552  : #endif
; 553  :     gs->xmlGetWarningsDefaultValue = xmlGetWarningsDefaultValueThrDef;

	mov	eax, DWORD PTR _gs$[ebp]
	mov	ecx, DWORD PTR _xmlGetWarningsDefaultValueThrDef
	mov	DWORD PTR [eax+404], ecx

; 554  :     gs->xmlIndentTreeOutput = xmlIndentTreeOutputThrDef;

	mov	edx, DWORD PTR _gs$[ebp]
	mov	eax, DWORD PTR _xmlIndentTreeOutputThrDef
	mov	DWORD PTR [edx+432], eax

; 555  :     gs->xmlTreeIndentString = xmlTreeIndentStringThrDef;

	mov	ecx, DWORD PTR _gs$[ebp]
	mov	edx, DWORD PTR _xmlTreeIndentStringThrDef
	mov	DWORD PTR [ecx+436], edx

; 556  :     gs->xmlKeepBlanksDefaultValue = xmlKeepBlanksDefaultValueThrDef;

	mov	eax, DWORD PTR _gs$[ebp]
	mov	ecx, DWORD PTR _xmlKeepBlanksDefaultValueThrDef
	mov	DWORD PTR [eax+408], ecx

; 557  :     gs->xmlLineNumbersDefaultValue = xmlLineNumbersDefaultValueThrDef;

	mov	edx, DWORD PTR _gs$[ebp]
	mov	eax, DWORD PTR _xmlLineNumbersDefaultValueThrDef
	mov	DWORD PTR [edx+412], eax

; 558  :     gs->xmlLoadExtDtdDefaultValue = xmlLoadExtDtdDefaultValueThrDef;

	mov	ecx, DWORD PTR _gs$[ebp]
	mov	edx, DWORD PTR _xmlLoadExtDtdDefaultValueThrDef
	mov	DWORD PTR [ecx+416], edx

; 559  :     gs->xmlParserDebugEntities = xmlParserDebugEntitiesThrDef;

	mov	eax, DWORD PTR _gs$[ebp]
	mov	ecx, DWORD PTR _xmlParserDebugEntitiesThrDef
	mov	DWORD PTR [eax+420], ecx

; 560  :     gs->xmlParserVersion = LIBXML_VERSION_STRING;

	mov	edx, DWORD PTR _gs$[ebp]
	mov	DWORD PTR [edx], OFFSET ??_C@_05BGCJPHN@20909@

; 561  :     gs->xmlPedanticParserDefaultValue = xmlPedanticParserDefaultValueThrDef;

	mov	eax, DWORD PTR _gs$[ebp]
	mov	ecx, DWORD PTR _xmlPedanticParserDefaultValueThrDef
	mov	DWORD PTR [eax+424], ecx

; 562  :     gs->xmlSaveNoEmptyTags = xmlSaveNoEmptyTagsThrDef;

	mov	edx, DWORD PTR _gs$[ebp]
	mov	eax, DWORD PTR _xmlSaveNoEmptyTagsThrDef
	mov	DWORD PTR [edx+428], eax

; 563  :     gs->xmlSubstituteEntitiesDefaultValue =

	mov	ecx, DWORD PTR _gs$[ebp]
	mov	edx, DWORD PTR _xmlSubstituteEntitiesDefaultValueThrDef
	mov	DWORD PTR [ecx+396], edx

; 564  :         xmlSubstituteEntitiesDefaultValueThrDef;
; 565  : 
; 566  :     gs->xmlGenericError = xmlGenericErrorThrDef;

	mov	eax, DWORD PTR _gs$[ebp]
	mov	ecx, DWORD PTR _xmlGenericErrorThrDef
	mov	DWORD PTR [eax+372], ecx

; 567  :     gs->xmlStructuredError = xmlStructuredErrorThrDef;

	mov	edx, DWORD PTR _gs$[ebp]
	mov	eax, DWORD PTR _xmlStructuredErrorThrDef
	mov	DWORD PTR [edx+376], eax

; 568  :     gs->xmlGenericErrorContext = xmlGenericErrorContextThrDef;

	mov	ecx, DWORD PTR _gs$[ebp]
	mov	edx, DWORD PTR _xmlGenericErrorContextThrDef
	mov	DWORD PTR [ecx+380], edx

; 569  :     gs->xmlStructuredErrorContext = xmlStructuredErrorContextThrDef;

	mov	eax, DWORD PTR _gs$[ebp]
	mov	ecx, DWORD PTR _xmlStructuredErrorContextThrDef
	mov	DWORD PTR [eax+512], ecx

; 570  :     gs->xmlRegisterNodeDefaultValue = xmlRegisterNodeDefaultValueThrDef;

	mov	edx, DWORD PTR _gs$[ebp]
	mov	eax, DWORD PTR _xmlRegisterNodeDefaultValueThrDef
	mov	DWORD PTR [edx+440], eax

; 571  :     gs->xmlDeregisterNodeDefaultValue = xmlDeregisterNodeDefaultValueThrDef;

	mov	ecx, DWORD PTR _gs$[ebp]
	mov	edx, DWORD PTR _xmlDeregisterNodeDefaultValueThrDef
	mov	DWORD PTR [ecx+444], edx

; 572  : 
; 573  : 	gs->xmlParserInputBufferCreateFilenameValue = xmlParserInputBufferCreateFilenameValueThrDef;

	mov	eax, DWORD PTR _gs$[ebp]
	mov	ecx, DWORD PTR _xmlParserInputBufferCreateFilenameValueThrDef
	mov	DWORD PTR [eax+504], ecx

; 574  : 	gs->xmlOutputBufferCreateFilenameValue = xmlOutputBufferCreateFilenameValueThrDef;

	mov	edx, DWORD PTR _gs$[ebp]
	mov	eax, DWORD PTR _xmlOutputBufferCreateFilenameValueThrDef
	mov	DWORD PTR [edx+508], eax

; 575  :     memset(&gs->xmlLastError, 0, sizeof(xmlError));

	push	52					; 00000034H
	push	0
	mov	ecx, DWORD PTR _gs$[ebp]
	add	ecx, 452				; 000001c4H
	push	ecx
	call	_memset
	add	esp, 12					; 0000000cH

; 576  : 
; 577  :     xmlMutexUnlock(xmlThrDefMutex);

	mov	edx, DWORD PTR _xmlThrDefMutex
	push	edx
	call	_xmlMutexUnlock
	add	esp, 4

; 578  : }

	cmp	ebp, esp
	call	__RTC_CheckEsp
	pop	ebp
	ret	0
_xmlInitializeGlobalState ENDP
_TEXT	ENDS
; Function compile flags: /Odtp /RTCsu
; File c:\users\dag\documents\_clients\codeproject authors group\windows on arm\libxml2\libxml2-2.9.9\globals.c
;	COMDAT _xmlCleanupGlobals
_TEXT	SEGMENT
_xmlCleanupGlobals PROC					; COMDAT

; 59   : {

	push	ebp
	mov	ebp, esp
	mov	ecx, OFFSET __DB69A600_globals@c
	call	@__CheckForDebuggerJustMyCode@4

; 60   :     if (xmlThrDefMutex != NULL) {

	cmp	DWORD PTR _xmlThrDefMutex, 0
	je	SHORT $LN2@xmlCleanup

; 61   : 	xmlFreeMutex(xmlThrDefMutex);

	mov	eax, DWORD PTR _xmlThrDefMutex
	push	eax
	call	_xmlFreeMutex
	add	esp, 4

; 62   : 	xmlThrDefMutex = NULL;

	mov	DWORD PTR _xmlThrDefMutex, 0
$LN2@xmlCleanup:

; 63   :     }
; 64   :     __xmlGlobalInitMutexDestroy();

	call	___xmlGlobalInitMutexDestroy

; 65   : }

	cmp	ebp, esp
	call	__RTC_CheckEsp
	pop	ebp
	ret	0
_xmlCleanupGlobals ENDP
_TEXT	ENDS
; Function compile flags: /Odtp /RTCsu
; File c:\users\dag\documents\_clients\codeproject authors group\windows on arm\libxml2\libxml2-2.9.9\globals.c
;	COMDAT _xmlInitGlobals
_TEXT	SEGMENT
_xmlInitGlobals PROC					; COMDAT

; 48   : {

	push	ebp
	mov	ebp, esp
	mov	ecx, OFFSET __DB69A600_globals@c
	call	@__CheckForDebuggerJustMyCode@4

; 49   :     if (xmlThrDefMutex == NULL)

	cmp	DWORD PTR _xmlThrDefMutex, 0
	jne	SHORT $LN1@xmlInitGlo

; 50   :         xmlThrDefMutex = xmlNewMutex();

	call	_xmlNewMutex
	mov	DWORD PTR _xmlThrDefMutex, eax
$LN1@xmlInitGlo:

; 51   : }

	cmp	ebp, esp
	call	__RTC_CheckEsp
	pop	ebp
	ret	0
_xmlInitGlobals ENDP
_TEXT	ENDS
END
