; Listing generated by Microsoft (R) Optimizing Compiler Version 19.16.27027.1 

	TITLE	C:\Users\DAG\Documents\_Clients\CodeProject Authors Group\Windows on ARM\libxml2\libxml2-2.9.9\list.c
	.686P
	.XMM
	include listing.inc
	.model	flat

INCLUDELIB MSVCRTD
INCLUDELIB OLDNAMES

_DATA	SEGMENT
COMM	_xmlMalloc:DWORD
COMM	_xmlMallocAtomic:DWORD
COMM	_xmlRealloc:DWORD
COMM	_xmlFree:DWORD
COMM	_xmlMemStrdup:DWORD
COMM	_forbiddenExp:DWORD
COMM	_emptyExp:DWORD
_DATA	ENDS
msvcjmc	SEGMENT
__188180DA_corecrt_math@h DB 01H
__2CC6E67D_corecrt_stdio_config@h DB 01H
__05476D76_corecrt_wstdio@h DB 01H
__A452D4A0_stdio@h DB 01H
__4384A2D9_corecrt_memcpy_s@h DB 01H
__4E51A221_corecrt_wstring@h DB 01H
__2140C079_string@h DB 01H
__C9B4D122_list@c DB 01H
msvcjmc	ENDS
PUBLIC	_xmlListCreate
PUBLIC	_xmlListDelete
PUBLIC	_xmlListSearch
PUBLIC	_xmlListReverseSearch
PUBLIC	_xmlListInsert
PUBLIC	_xmlListAppend
PUBLIC	_xmlListRemoveFirst
PUBLIC	_xmlListRemoveLast
PUBLIC	_xmlListRemoveAll
PUBLIC	_xmlListClear
PUBLIC	_xmlListEmpty
PUBLIC	_xmlListFront
PUBLIC	_xmlListEnd
PUBLIC	_xmlListSize
PUBLIC	_xmlListPopFront
PUBLIC	_xmlListPopBack
PUBLIC	_xmlListPushFront
PUBLIC	_xmlListPushBack
PUBLIC	_xmlListReverse
PUBLIC	_xmlListSort
PUBLIC	_xmlListWalk
PUBLIC	_xmlListReverseWalk
PUBLIC	_xmlListMerge
PUBLIC	_xmlListDup
PUBLIC	_xmlListCopy
PUBLIC	_xmlLinkGetData
PUBLIC	__JustMyCode_Default
PUBLIC	??_C@_0CC@PEFKPBME@Cannot?5initialize?5memory?5for?5li@ ; `string'
PUBLIC	??_C@_0CG@FNPNDOOA@Cannot?5initialize?5memory?5for?5se@ ; `string'
PUBLIC	??_C@_0CG@HDAIMGNF@Cannot?5initialize?5memory?5for?5ne@ ; `string'
EXTRN	___xmlGenericError:PROC
EXTRN	___xmlGenericErrorContext:PROC
EXTRN	@__CheckForDebuggerJustMyCode@4:PROC
EXTRN	__RTC_CheckEsp:PROC
EXTRN	__RTC_InitBase:PROC
EXTRN	__RTC_Shutdown:PROC
;	COMDAT rtc$TMZ
rtc$TMZ	SEGMENT
__RTC_Shutdown.rtc$TMZ DD FLAT:__RTC_Shutdown
rtc$TMZ	ENDS
;	COMDAT rtc$IMZ
rtc$IMZ	SEGMENT
__RTC_InitBase.rtc$IMZ DD FLAT:__RTC_InitBase
rtc$IMZ	ENDS
;	COMDAT ??_C@_0CG@HDAIMGNF@Cannot?5initialize?5memory?5for?5ne@
CONST	SEGMENT
??_C@_0CG@HDAIMGNF@Cannot?5initialize?5memory?5for?5ne@ DB 'Cannot initia'
	DB	'lize memory for new link', 00H		; `string'
CONST	ENDS
;	COMDAT ??_C@_0CG@FNPNDOOA@Cannot?5initialize?5memory?5for?5se@
CONST	SEGMENT
??_C@_0CG@FNPNDOOA@Cannot?5initialize?5memory?5for?5se@ DB 'Cannot initia'
	DB	'lize memory for sentinel', 00H		; `string'
CONST	ENDS
;	COMDAT ??_C@_0CC@PEFKPBME@Cannot?5initialize?5memory?5for?5li@
CONST	SEGMENT
??_C@_0CC@PEFKPBME@Cannot?5initialize?5memory?5for?5li@ DB 'Cannot initia'
	DB	'lize memory for list', 00H			; `string'
CONST	ENDS
; Function compile flags: /Odt
;	COMDAT __JustMyCode_Default
_TEXT	SEGMENT
__JustMyCode_Default PROC				; COMDAT
	push	ebp
	mov	ebp, esp
	pop	ebp
	ret	0
__JustMyCode_Default ENDP
_TEXT	ENDS
; Function compile flags: /Odtp /RTCsu
; File c:\users\dag\documents\_clients\codeproject authors group\windows on arm\libxml2\libxml2-2.9.9\list.c
;	COMDAT _xmlListLinkReverseSearch
_TEXT	SEGMENT
_lk$ = -4						; size = 4
_l$ = 8							; size = 4
_data$ = 12						; size = 4
_xmlListLinkReverseSearch PROC				; COMDAT

; 164  : {

	push	ebp
	mov	ebp, esp
	push	ecx
	push	esi
	mov	DWORD PTR [ebp-4], -858993460		; ccccccccH
	mov	ecx, OFFSET __C9B4D122_list@c
	call	@__CheckForDebuggerJustMyCode@4

; 165  :     xmlLinkPtr lk;
; 166  :     if (l == NULL)

	cmp	DWORD PTR _l$[ebp], 0
	jne	SHORT $LN2@xmlListLin

; 167  :         return(NULL);

	xor	eax, eax
	jmp	SHORT $LN1@xmlListLin
$LN2@xmlListLin:

; 168  :     lk = xmlListHigherSearch(l, data);

	mov	eax, DWORD PTR _data$[ebp]
	push	eax
	mov	ecx, DWORD PTR _l$[ebp]
	push	ecx
	call	_xmlListHigherSearch
	add	esp, 8
	mov	DWORD PTR _lk$[ebp], eax

; 169  :     if (lk == l->sentinel)

	mov	edx, DWORD PTR _l$[ebp]
	mov	eax, DWORD PTR _lk$[ebp]
	cmp	eax, DWORD PTR [edx]
	jne	SHORT $LN3@xmlListLin

; 170  :         return NULL;

	xor	eax, eax
	jmp	SHORT $LN1@xmlListLin
	jmp	SHORT $LN1@xmlListLin
$LN3@xmlListLin:

; 171  :     else {
; 172  :         if (l->linkCompare(lk->data, data) ==0)

	mov	esi, esp
	mov	ecx, DWORD PTR _data$[ebp]
	push	ecx
	mov	edx, DWORD PTR _lk$[ebp]
	mov	eax, DWORD PTR [edx+8]
	push	eax
	mov	ecx, DWORD PTR _l$[ebp]
	mov	edx, DWORD PTR [ecx+8]
	call	edx
	add	esp, 8
	cmp	esi, esp
	call	__RTC_CheckEsp
	test	eax, eax
	jne	SHORT $LN5@xmlListLin

; 173  :             return lk;

	mov	eax, DWORD PTR _lk$[ebp]
	jmp	SHORT $LN1@xmlListLin
$LN5@xmlListLin:

; 174  :         return NULL;

	xor	eax, eax
$LN1@xmlListLin:

; 175  :     }
; 176  : }

	pop	esi
	add	esp, 4
	cmp	ebp, esp
	call	__RTC_CheckEsp
	mov	esp, ebp
	pop	ebp
	ret	0
_xmlListLinkReverseSearch ENDP
_TEXT	ENDS
; Function compile flags: /Odtp /RTCsu
; File c:\users\dag\documents\_clients\codeproject authors group\windows on arm\libxml2\libxml2-2.9.9\list.c
;	COMDAT _xmlListLinkSearch
_TEXT	SEGMENT
_lk$ = -4						; size = 4
_l$ = 8							; size = 4
_data$ = 12						; size = 4
_xmlListLinkSearch PROC					; COMDAT

; 139  : {

	push	ebp
	mov	ebp, esp
	push	ecx
	push	esi
	mov	DWORD PTR [ebp-4], -858993460		; ccccccccH
	mov	ecx, OFFSET __C9B4D122_list@c
	call	@__CheckForDebuggerJustMyCode@4

; 140  :     xmlLinkPtr lk;
; 141  :     if (l == NULL)

	cmp	DWORD PTR _l$[ebp], 0
	jne	SHORT $LN2@xmlListLin

; 142  :         return(NULL);

	xor	eax, eax
	jmp	SHORT $LN1@xmlListLin
$LN2@xmlListLin:

; 143  :     lk = xmlListLowerSearch(l, data);

	mov	eax, DWORD PTR _data$[ebp]
	push	eax
	mov	ecx, DWORD PTR _l$[ebp]
	push	ecx
	call	_xmlListLowerSearch
	add	esp, 8
	mov	DWORD PTR _lk$[ebp], eax

; 144  :     if (lk == l->sentinel)

	mov	edx, DWORD PTR _l$[ebp]
	mov	eax, DWORD PTR _lk$[ebp]
	cmp	eax, DWORD PTR [edx]
	jne	SHORT $LN3@xmlListLin

; 145  :         return NULL;

	xor	eax, eax
	jmp	SHORT $LN1@xmlListLin
	jmp	SHORT $LN1@xmlListLin
$LN3@xmlListLin:

; 146  :     else {
; 147  :         if (l->linkCompare(lk->data, data) ==0)

	mov	esi, esp
	mov	ecx, DWORD PTR _data$[ebp]
	push	ecx
	mov	edx, DWORD PTR _lk$[ebp]
	mov	eax, DWORD PTR [edx+8]
	push	eax
	mov	ecx, DWORD PTR _l$[ebp]
	mov	edx, DWORD PTR [ecx+8]
	call	edx
	add	esp, 8
	cmp	esi, esp
	call	__RTC_CheckEsp
	test	eax, eax
	jne	SHORT $LN5@xmlListLin

; 148  :             return lk;

	mov	eax, DWORD PTR _lk$[ebp]
	jmp	SHORT $LN1@xmlListLin
$LN5@xmlListLin:

; 149  :         return NULL;

	xor	eax, eax
$LN1@xmlListLin:

; 150  :     }
; 151  : }

	pop	esi
	add	esp, 4
	cmp	ebp, esp
	call	__RTC_CheckEsp
	mov	esp, ebp
	pop	ebp
	ret	0
_xmlListLinkSearch ENDP
_TEXT	ENDS
; Function compile flags: /Odtp /RTCsu
; File c:\users\dag\documents\_clients\codeproject authors group\windows on arm\libxml2\libxml2-2.9.9\list.c
;	COMDAT _xmlListHigherSearch
_TEXT	SEGMENT
_lk$ = -4						; size = 4
_l$ = 8							; size = 4
_data$ = 12						; size = 4
_xmlListHigherSearch PROC				; COMDAT

; 119  : {

	push	ebp
	mov	ebp, esp
	push	ecx
	push	esi
	mov	DWORD PTR [ebp-4], -858993460		; ccccccccH
	mov	ecx, OFFSET __C9B4D122_list@c
	call	@__CheckForDebuggerJustMyCode@4

; 120  :     xmlLinkPtr lk;
; 121  : 
; 122  :     if (l == NULL)

	cmp	DWORD PTR _l$[ebp], 0
	jne	SHORT $LN5@xmlListHig

; 123  :         return(NULL);

	xor	eax, eax
	jmp	SHORT $LN1@xmlListHig
$LN5@xmlListHig:

; 124  :     for(lk = l->sentinel->prev;lk != l->sentinel && l->linkCompare(lk->data, data) >0 ;lk = lk->prev);

	mov	eax, DWORD PTR _l$[ebp]
	mov	ecx, DWORD PTR [eax]
	mov	edx, DWORD PTR [ecx+4]
	mov	DWORD PTR _lk$[ebp], edx
	jmp	SHORT $LN4@xmlListHig
$LN2@xmlListHig:
	mov	eax, DWORD PTR _lk$[ebp]
	mov	ecx, DWORD PTR [eax+4]
	mov	DWORD PTR _lk$[ebp], ecx
$LN4@xmlListHig:
	mov	edx, DWORD PTR _l$[ebp]
	mov	eax, DWORD PTR _lk$[ebp]
	cmp	eax, DWORD PTR [edx]
	je	SHORT $LN3@xmlListHig
	mov	esi, esp
	mov	ecx, DWORD PTR _data$[ebp]
	push	ecx
	mov	edx, DWORD PTR _lk$[ebp]
	mov	eax, DWORD PTR [edx+8]
	push	eax
	mov	ecx, DWORD PTR _l$[ebp]
	mov	edx, DWORD PTR [ecx+8]
	call	edx
	add	esp, 8
	cmp	esi, esp
	call	__RTC_CheckEsp
	test	eax, eax
	jle	SHORT $LN3@xmlListHig
	jmp	SHORT $LN2@xmlListHig
$LN3@xmlListHig:

; 125  :     return lk;

	mov	eax, DWORD PTR _lk$[ebp]
$LN1@xmlListHig:

; 126  : }

	pop	esi
	add	esp, 4
	cmp	ebp, esp
	call	__RTC_CheckEsp
	mov	esp, ebp
	pop	ebp
	ret	0
_xmlListHigherSearch ENDP
_TEXT	ENDS
; Function compile flags: /Odtp /RTCsu
; File c:\users\dag\documents\_clients\codeproject authors group\windows on arm\libxml2\libxml2-2.9.9\list.c
;	COMDAT _xmlListLowerSearch
_TEXT	SEGMENT
_lk$ = -4						; size = 4
_l$ = 8							; size = 4
_data$ = 12						; size = 4
_xmlListLowerSearch PROC				; COMDAT

; 99   : {

	push	ebp
	mov	ebp, esp
	push	ecx
	push	esi
	mov	DWORD PTR [ebp-4], -858993460		; ccccccccH
	mov	ecx, OFFSET __C9B4D122_list@c
	call	@__CheckForDebuggerJustMyCode@4

; 100  :     xmlLinkPtr lk;
; 101  : 
; 102  :     if (l == NULL)

	cmp	DWORD PTR _l$[ebp], 0
	jne	SHORT $LN5@xmlListLow

; 103  :         return(NULL);

	xor	eax, eax
	jmp	SHORT $LN1@xmlListLow
$LN5@xmlListLow:

; 104  :     for(lk = l->sentinel->next;lk != l->sentinel && l->linkCompare(lk->data, data) <0 ;lk = lk->next);

	mov	eax, DWORD PTR _l$[ebp]
	mov	ecx, DWORD PTR [eax]
	mov	edx, DWORD PTR [ecx]
	mov	DWORD PTR _lk$[ebp], edx
	jmp	SHORT $LN4@xmlListLow
$LN2@xmlListLow:
	mov	eax, DWORD PTR _lk$[ebp]
	mov	ecx, DWORD PTR [eax]
	mov	DWORD PTR _lk$[ebp], ecx
$LN4@xmlListLow:
	mov	edx, DWORD PTR _l$[ebp]
	mov	eax, DWORD PTR _lk$[ebp]
	cmp	eax, DWORD PTR [edx]
	je	SHORT $LN3@xmlListLow
	mov	esi, esp
	mov	ecx, DWORD PTR _data$[ebp]
	push	ecx
	mov	edx, DWORD PTR _lk$[ebp]
	mov	eax, DWORD PTR [edx+8]
	push	eax
	mov	ecx, DWORD PTR _l$[ebp]
	mov	edx, DWORD PTR [ecx+8]
	call	edx
	add	esp, 8
	cmp	esi, esp
	call	__RTC_CheckEsp
	test	eax, eax
	jge	SHORT $LN3@xmlListLow
	jmp	SHORT $LN2@xmlListLow
$LN3@xmlListLow:

; 105  :     return lk;

	mov	eax, DWORD PTR _lk$[ebp]
$LN1@xmlListLow:

; 106  : }

	pop	esi
	add	esp, 4
	cmp	ebp, esp
	call	__RTC_CheckEsp
	mov	esp, ebp
	pop	ebp
	ret	0
_xmlListLowerSearch ENDP
_TEXT	ENDS
; Function compile flags: /Odtp /RTCsu
; File c:\users\dag\documents\_clients\codeproject authors group\windows on arm\libxml2\libxml2-2.9.9\list.c
;	COMDAT _xmlLinkCompare
_TEXT	SEGMENT
_data0$ = 8						; size = 4
_data1$ = 12						; size = 4
_xmlLinkCompare PROC					; COMDAT

; 80   : {

	push	ebp
	mov	ebp, esp
	mov	ecx, OFFSET __C9B4D122_list@c
	call	@__CheckForDebuggerJustMyCode@4

; 81   :     if (data0 < data1)

	mov	eax, DWORD PTR _data0$[ebp]
	cmp	eax, DWORD PTR _data1$[ebp]
	jae	SHORT $LN2@xmlLinkCom

; 82   :         return (-1);

	or	eax, -1
	jmp	SHORT $LN1@xmlLinkCom
	jmp	SHORT $LN3@xmlLinkCom
$LN2@xmlLinkCom:

; 83   :     else if (data0 == data1)

	mov	ecx, DWORD PTR _data0$[ebp]
	cmp	ecx, DWORD PTR _data1$[ebp]
	jne	SHORT $LN3@xmlLinkCom

; 84   : 	return (0);

	xor	eax, eax
	jmp	SHORT $LN1@xmlLinkCom
$LN3@xmlLinkCom:

; 85   :     return (1);

	mov	eax, 1
$LN1@xmlLinkCom:

; 86   : }

	cmp	ebp, esp
	call	__RTC_CheckEsp
	pop	ebp
	ret	0
_xmlLinkCompare ENDP
_TEXT	ENDS
; Function compile flags: /Odtp /RTCsu
; File c:\users\dag\documents\_clients\codeproject authors group\windows on arm\libxml2\libxml2-2.9.9\list.c
;	COMDAT _xmlLinkDeallocator
_TEXT	SEGMENT
_l$ = 8							; size = 4
_lk$ = 12						; size = 4
_xmlLinkDeallocator PROC				; COMDAT

; 60   : {

	push	ebp
	mov	ebp, esp
	push	esi
	mov	ecx, OFFSET __C9B4D122_list@c
	call	@__CheckForDebuggerJustMyCode@4

; 61   :     (lk->prev)->next = lk->next;

	mov	eax, DWORD PTR _lk$[ebp]
	mov	ecx, DWORD PTR [eax+4]
	mov	edx, DWORD PTR _lk$[ebp]
	mov	eax, DWORD PTR [edx]
	mov	DWORD PTR [ecx], eax

; 62   :     (lk->next)->prev = lk->prev;

	mov	ecx, DWORD PTR _lk$[ebp]
	mov	edx, DWORD PTR [ecx]
	mov	eax, DWORD PTR _lk$[ebp]
	mov	ecx, DWORD PTR [eax+4]
	mov	DWORD PTR [edx+4], ecx

; 63   :     if(l->linkDeallocator)

	mov	edx, DWORD PTR _l$[ebp]
	cmp	DWORD PTR [edx+4], 0
	je	SHORT $LN2@xmlLinkDea

; 64   :         l->linkDeallocator(lk);

	mov	esi, esp
	mov	eax, DWORD PTR _lk$[ebp]
	push	eax
	mov	ecx, DWORD PTR _l$[ebp]
	mov	edx, DWORD PTR [ecx+4]
	call	edx
	add	esp, 4
	cmp	esi, esp
	call	__RTC_CheckEsp
$LN2@xmlLinkDea:

; 65   :     xmlFree(lk);

	mov	esi, esp
	mov	eax, DWORD PTR _lk$[ebp]
	push	eax
	call	DWORD PTR _xmlFree
	add	esp, 4
	cmp	esi, esp
	call	__RTC_CheckEsp

; 66   : }

	pop	esi
	cmp	ebp, esp
	call	__RTC_CheckEsp
	pop	ebp
	ret	0
_xmlLinkDeallocator ENDP
_TEXT	ENDS
; Function compile flags: /Odtp /RTCsu
; File c:\users\dag\documents\_clients\codeproject authors group\windows on arm\libxml2\libxml2-2.9.9\list.c
;	COMDAT _xmlLinkGetData
_TEXT	SEGMENT
_lk$ = 8						; size = 4
_xmlLinkGetData PROC					; COMDAT

; 605  : {

	push	ebp
	mov	ebp, esp
	mov	ecx, OFFSET __C9B4D122_list@c
	call	@__CheckForDebuggerJustMyCode@4

; 606  :     if (lk == NULL)

	cmp	DWORD PTR _lk$[ebp], 0
	jne	SHORT $LN2@xmlLinkGet

; 607  :         return(NULL);

	xor	eax, eax
	jmp	SHORT $LN1@xmlLinkGet
$LN2@xmlLinkGet:

; 608  :     return lk->data;

	mov	eax, DWORD PTR _lk$[ebp]
	mov	eax, DWORD PTR [eax+8]
$LN1@xmlLinkGet:

; 609  : }

	cmp	ebp, esp
	call	__RTC_CheckEsp
	pop	ebp
	ret	0
_xmlLinkGetData ENDP
_TEXT	ENDS
; Function compile flags: /Odtp /RTCsu
; File c:\users\dag\documents\_clients\codeproject authors group\windows on arm\libxml2\libxml2-2.9.9\list.c
;	COMDAT _xmlListCopy
_TEXT	SEGMENT
_lk$ = -4						; size = 4
_cur$ = 8						; size = 4
_old$ = 12						; size = 4
_xmlListCopy PROC					; COMDAT

; 762  : {

	push	ebp
	mov	ebp, esp
	push	ecx
	mov	DWORD PTR [ebp-4], -858993460		; ccccccccH
	mov	ecx, OFFSET __C9B4D122_list@c
	call	@__CheckForDebuggerJustMyCode@4

; 763  :     /* Walk the old tree and insert the data into the new one */
; 764  :     xmlLinkPtr lk;
; 765  : 
; 766  :     if ((old == NULL) || (cur == NULL))

	cmp	DWORD PTR _old$[ebp], 0
	je	SHORT $LN6@xmlListCop
	cmp	DWORD PTR _cur$[ebp], 0
	jne	SHORT $LN5@xmlListCop
$LN6@xmlListCop:

; 767  :         return(1);

	mov	eax, 1
	jmp	SHORT $LN1@xmlListCop
$LN5@xmlListCop:

; 768  :     for(lk = old->sentinel->next; lk != old->sentinel; lk = lk->next) {

	mov	eax, DWORD PTR _old$[ebp]
	mov	ecx, DWORD PTR [eax]
	mov	edx, DWORD PTR [ecx]
	mov	DWORD PTR _lk$[ebp], edx
	jmp	SHORT $LN4@xmlListCop
$LN2@xmlListCop:
	mov	eax, DWORD PTR _lk$[ebp]
	mov	ecx, DWORD PTR [eax]
	mov	DWORD PTR _lk$[ebp], ecx
$LN4@xmlListCop:
	mov	edx, DWORD PTR _old$[ebp]
	mov	eax, DWORD PTR _lk$[ebp]
	cmp	eax, DWORD PTR [edx]
	je	SHORT $LN3@xmlListCop

; 769  :         if (0 !=xmlListInsert(cur, lk->data)) {

	mov	ecx, DWORD PTR _lk$[ebp]
	mov	edx, DWORD PTR [ecx+8]
	push	edx
	mov	eax, DWORD PTR _cur$[ebp]
	push	eax
	call	_xmlListInsert
	add	esp, 8
	test	eax, eax
	je	SHORT $LN7@xmlListCop

; 770  :             xmlListDelete(cur);

	mov	ecx, DWORD PTR _cur$[ebp]
	push	ecx
	call	_xmlListDelete
	add	esp, 4

; 771  :             return (1);

	mov	eax, 1
	jmp	SHORT $LN1@xmlListCop
$LN7@xmlListCop:

; 772  :         }
; 773  :     }

	jmp	SHORT $LN2@xmlListCop
$LN3@xmlListCop:

; 774  :     return (0);

	xor	eax, eax
$LN1@xmlListCop:

; 775  : }

	add	esp, 4
	cmp	ebp, esp
	call	__RTC_CheckEsp
	mov	esp, ebp
	pop	ebp
	ret	0
_xmlListCopy ENDP
_TEXT	ENDS
; Function compile flags: /Odtp /RTCsu
; File c:\users\dag\documents\_clients\codeproject authors group\windows on arm\libxml2\libxml2-2.9.9\list.c
;	COMDAT _xmlListDup
_TEXT	SEGMENT
_cur$ = -4						; size = 4
_old$ = 8						; size = 4
_xmlListDup PROC					; COMDAT

; 733  : {

	push	ebp
	mov	ebp, esp
	push	ecx
	mov	DWORD PTR [ebp-4], -858993460		; ccccccccH
	mov	ecx, OFFSET __C9B4D122_list@c
	call	@__CheckForDebuggerJustMyCode@4

; 734  :     xmlListPtr cur;
; 735  : 
; 736  :     if (old == NULL)

	cmp	DWORD PTR _old$[ebp], 0
	jne	SHORT $LN2@xmlListDup

; 737  :         return(NULL);

	xor	eax, eax
	jmp	SHORT $LN1@xmlListDup
$LN2@xmlListDup:

; 738  :     /* Hmmm, how to best deal with allocation issues when copying
; 739  :      * lists. If there is a de-allocator, should responsibility lie with
; 740  :      * the new list or the old list. Surely not both. I'll arbitrarily
; 741  :      * set it to be the old list for the time being whilst I work out
; 742  :      * the answer
; 743  :      */
; 744  :     if (NULL ==(cur = xmlListCreate(NULL, old->linkCompare)))

	mov	eax, DWORD PTR _old$[ebp]
	mov	ecx, DWORD PTR [eax+8]
	push	ecx
	push	0
	call	_xmlListCreate
	add	esp, 8
	mov	DWORD PTR _cur$[ebp], eax
	cmp	DWORD PTR _cur$[ebp], 0
	jne	SHORT $LN3@xmlListDup

; 745  :         return (NULL);

	xor	eax, eax
	jmp	SHORT $LN1@xmlListDup
$LN3@xmlListDup:

; 746  :     if (0 != xmlListCopy(cur, old))

	mov	edx, DWORD PTR _old$[ebp]
	push	edx
	mov	eax, DWORD PTR _cur$[ebp]
	push	eax
	call	_xmlListCopy
	add	esp, 8
	test	eax, eax
	je	SHORT $LN4@xmlListDup

; 747  :         return NULL;

	xor	eax, eax
	jmp	SHORT $LN1@xmlListDup
$LN4@xmlListDup:

; 748  :     return cur;

	mov	eax, DWORD PTR _cur$[ebp]
$LN1@xmlListDup:

; 749  : }

	add	esp, 4
	cmp	ebp, esp
	call	__RTC_CheckEsp
	mov	esp, ebp
	pop	ebp
	ret	0
_xmlListDup ENDP
_TEXT	ENDS
; Function compile flags: /Odtp /RTCsu
; File c:\users\dag\documents\_clients\codeproject authors group\windows on arm\libxml2\libxml2-2.9.9\list.c
;	COMDAT _xmlListMerge
_TEXT	SEGMENT
_l1$ = 8						; size = 4
_l2$ = 12						; size = 4
_xmlListMerge PROC					; COMDAT

; 718  : {

	push	ebp
	mov	ebp, esp
	mov	ecx, OFFSET __C9B4D122_list@c
	call	@__CheckForDebuggerJustMyCode@4

; 719  :     xmlListCopy(l1, l2);

	mov	eax, DWORD PTR _l2$[ebp]
	push	eax
	mov	ecx, DWORD PTR _l1$[ebp]
	push	ecx
	call	_xmlListCopy
	add	esp, 8

; 720  :     xmlListClear(l2);

	mov	edx, DWORD PTR _l2$[ebp]
	push	edx
	call	_xmlListClear
	add	esp, 4

; 721  : }

	cmp	ebp, esp
	call	__RTC_CheckEsp
	pop	ebp
	ret	0
_xmlListMerge ENDP
_TEXT	ENDS
; Function compile flags: /Odtp /RTCsu
; File c:\users\dag\documents\_clients\codeproject authors group\windows on arm\libxml2\libxml2-2.9.9\list.c
;	COMDAT _xmlListReverseWalk
_TEXT	SEGMENT
_lk$ = -4						; size = 4
_l$ = 8							; size = 4
_walker$ = 12						; size = 4
_user$ = 16						; size = 4
_xmlListReverseWalk PROC				; COMDAT

; 697  : xmlListReverseWalk(xmlListPtr l, xmlListWalker walker, void *user) {

	push	ebp
	mov	ebp, esp
	push	ecx
	push	esi
	mov	DWORD PTR [ebp-4], -858993460		; ccccccccH
	mov	ecx, OFFSET __C9B4D122_list@c
	call	@__CheckForDebuggerJustMyCode@4

; 698  :     xmlLinkPtr lk;
; 699  : 
; 700  :     if ((l == NULL) || (walker == NULL))

	cmp	DWORD PTR _l$[ebp], 0
	je	SHORT $LN6@xmlListRev
	cmp	DWORD PTR _walker$[ebp], 0
	jne	SHORT $LN5@xmlListRev
$LN6@xmlListRev:

; 701  :         return;

	jmp	SHORT $LN1@xmlListRev
$LN5@xmlListRev:

; 702  :     for(lk = l->sentinel->prev; lk != l->sentinel; lk = lk->prev) {

	mov	eax, DWORD PTR _l$[ebp]
	mov	ecx, DWORD PTR [eax]
	mov	edx, DWORD PTR [ecx+4]
	mov	DWORD PTR _lk$[ebp], edx
	jmp	SHORT $LN4@xmlListRev
$LN2@xmlListRev:
	mov	eax, DWORD PTR _lk$[ebp]
	mov	ecx, DWORD PTR [eax+4]
	mov	DWORD PTR _lk$[ebp], ecx
$LN4@xmlListRev:
	mov	edx, DWORD PTR _l$[ebp]
	mov	eax, DWORD PTR _lk$[ebp]
	cmp	eax, DWORD PTR [edx]
	je	SHORT $LN1@xmlListRev

; 703  :         if((walker(lk->data, user)) == 0)

	mov	esi, esp
	mov	ecx, DWORD PTR _user$[ebp]
	push	ecx
	mov	edx, DWORD PTR _lk$[ebp]
	mov	eax, DWORD PTR [edx+8]
	push	eax
	call	DWORD PTR _walker$[ebp]
	add	esp, 8
	cmp	esi, esp
	call	__RTC_CheckEsp
	test	eax, eax
	jne	SHORT $LN7@xmlListRev

; 704  :                 break;

	jmp	SHORT $LN1@xmlListRev
$LN7@xmlListRev:

; 705  :     }

	jmp	SHORT $LN2@xmlListRev
$LN1@xmlListRev:

; 706  : }

	pop	esi
	add	esp, 4
	cmp	ebp, esp
	call	__RTC_CheckEsp
	mov	esp, ebp
	pop	ebp
	ret	0
_xmlListReverseWalk ENDP
_TEXT	ENDS
; Function compile flags: /Odtp /RTCsu
; File c:\users\dag\documents\_clients\codeproject authors group\windows on arm\libxml2\libxml2-2.9.9\list.c
;	COMDAT _xmlListWalk
_TEXT	SEGMENT
_lk$ = -4						; size = 4
_l$ = 8							; size = 4
_walker$ = 12						; size = 4
_user$ = 16						; size = 4
_xmlListWalk PROC					; COMDAT

; 676  : xmlListWalk(xmlListPtr l, xmlListWalker walker, void *user) {

	push	ebp
	mov	ebp, esp
	push	ecx
	push	esi
	mov	DWORD PTR [ebp-4], -858993460		; ccccccccH
	mov	ecx, OFFSET __C9B4D122_list@c
	call	@__CheckForDebuggerJustMyCode@4

; 677  :     xmlLinkPtr lk;
; 678  : 
; 679  :     if ((l == NULL) || (walker == NULL))

	cmp	DWORD PTR _l$[ebp], 0
	je	SHORT $LN6@xmlListWal
	cmp	DWORD PTR _walker$[ebp], 0
	jne	SHORT $LN5@xmlListWal
$LN6@xmlListWal:

; 680  :         return;

	jmp	SHORT $LN1@xmlListWal
$LN5@xmlListWal:

; 681  :     for(lk = l->sentinel->next; lk != l->sentinel; lk = lk->next) {

	mov	eax, DWORD PTR _l$[ebp]
	mov	ecx, DWORD PTR [eax]
	mov	edx, DWORD PTR [ecx]
	mov	DWORD PTR _lk$[ebp], edx
	jmp	SHORT $LN4@xmlListWal
$LN2@xmlListWal:
	mov	eax, DWORD PTR _lk$[ebp]
	mov	ecx, DWORD PTR [eax]
	mov	DWORD PTR _lk$[ebp], ecx
$LN4@xmlListWal:
	mov	edx, DWORD PTR _l$[ebp]
	mov	eax, DWORD PTR _lk$[ebp]
	cmp	eax, DWORD PTR [edx]
	je	SHORT $LN1@xmlListWal

; 682  :         if((walker(lk->data, user)) == 0)

	mov	esi, esp
	mov	ecx, DWORD PTR _user$[ebp]
	push	ecx
	mov	edx, DWORD PTR _lk$[ebp]
	mov	eax, DWORD PTR [edx+8]
	push	eax
	call	DWORD PTR _walker$[ebp]
	add	esp, 8
	cmp	esi, esp
	call	__RTC_CheckEsp
	test	eax, eax
	jne	SHORT $LN7@xmlListWal

; 683  :                 break;

	jmp	SHORT $LN1@xmlListWal
$LN7@xmlListWal:

; 684  :     }

	jmp	SHORT $LN2@xmlListWal
$LN1@xmlListWal:

; 685  : }

	pop	esi
	add	esp, 4
	cmp	ebp, esp
	call	__RTC_CheckEsp
	mov	esp, ebp
	pop	ebp
	ret	0
_xmlListWalk ENDP
_TEXT	ENDS
; Function compile flags: /Odtp /RTCsu
; File c:\users\dag\documents\_clients\codeproject authors group\windows on arm\libxml2\libxml2-2.9.9\list.c
;	COMDAT _xmlListSort
_TEXT	SEGMENT
_lTemp$ = -4						; size = 4
_l$ = 8							; size = 4
_xmlListSort PROC					; COMDAT

; 644  : {

	push	ebp
	mov	ebp, esp
	push	ecx
	mov	DWORD PTR [ebp-4], -858993460		; ccccccccH
	mov	ecx, OFFSET __C9B4D122_list@c
	call	@__CheckForDebuggerJustMyCode@4

; 645  :     xmlListPtr lTemp;
; 646  : 
; 647  :     if (l == NULL)

	cmp	DWORD PTR _l$[ebp], 0
	jne	SHORT $LN2@xmlListSor

; 648  :         return;

	jmp	SHORT $LN1@xmlListSor
$LN2@xmlListSor:

; 649  :     if(xmlListEmpty(l))

	mov	eax, DWORD PTR _l$[ebp]
	push	eax
	call	_xmlListEmpty
	add	esp, 4
	test	eax, eax
	je	SHORT $LN3@xmlListSor

; 650  :         return;

	jmp	SHORT $LN1@xmlListSor
$LN3@xmlListSor:

; 651  : 
; 652  :     /* I think that the real answer is to implement quicksort, the
; 653  :      * alternative is to implement some list copying procedure which
; 654  :      * would be based on a list copy followed by a clear followed by
; 655  :      * an insert. This is slow...
; 656  :      */
; 657  : 
; 658  :     if (NULL ==(lTemp = xmlListDup(l)))

	mov	ecx, DWORD PTR _l$[ebp]
	push	ecx
	call	_xmlListDup
	add	esp, 4
	mov	DWORD PTR _lTemp$[ebp], eax
	cmp	DWORD PTR _lTemp$[ebp], 0
	jne	SHORT $LN4@xmlListSor

; 659  :         return;

	jmp	SHORT $LN1@xmlListSor
$LN4@xmlListSor:

; 660  :     xmlListClear(l);

	mov	edx, DWORD PTR _l$[ebp]
	push	edx
	call	_xmlListClear
	add	esp, 4

; 661  :     xmlListMerge(l, lTemp);

	mov	eax, DWORD PTR _lTemp$[ebp]
	push	eax
	mov	ecx, DWORD PTR _l$[ebp]
	push	ecx
	call	_xmlListMerge
	add	esp, 8

; 662  :     xmlListDelete(lTemp);

	mov	edx, DWORD PTR _lTemp$[ebp]
	push	edx
	call	_xmlListDelete
	add	esp, 4
$LN1@xmlListSor:

; 663  :     return;
; 664  : }

	add	esp, 4
	cmp	ebp, esp
	call	__RTC_CheckEsp
	mov	esp, ebp
	pop	ebp
	ret	0
_xmlListSort ENDP
_TEXT	ENDS
; Function compile flags: /Odtp /RTCsu
; File c:\users\dag\documents\_clients\codeproject authors group\windows on arm\libxml2\libxml2-2.9.9\list.c
;	COMDAT _xmlListReverse
_TEXT	SEGMENT
_lkPrev$ = -8						; size = 4
_lk$ = -4						; size = 4
_l$ = 8							; size = 4
_xmlListReverse PROC					; COMDAT

; 619  : {

	push	ebp
	mov	ebp, esp
	sub	esp, 8
	mov	DWORD PTR [ebp-8], -858993460		; ccccccccH
	mov	DWORD PTR [ebp-4], -858993460		; ccccccccH
	mov	ecx, OFFSET __C9B4D122_list@c
	call	@__CheckForDebuggerJustMyCode@4

; 620  :     xmlLinkPtr lk;
; 621  :     xmlLinkPtr lkPrev;
; 622  : 
; 623  :     if (l == NULL)

	cmp	DWORD PTR _l$[ebp], 0
	jne	SHORT $LN5@xmlListRev

; 624  :         return;

	jmp	SHORT $LN1@xmlListRev
$LN5@xmlListRev:

; 625  :     lkPrev = l->sentinel;

	mov	eax, DWORD PTR _l$[ebp]
	mov	ecx, DWORD PTR [eax]
	mov	DWORD PTR _lkPrev$[ebp], ecx

; 626  :     for (lk = l->sentinel->next; lk != l->sentinel; lk = lk->next) {

	mov	edx, DWORD PTR _l$[ebp]
	mov	eax, DWORD PTR [edx]
	mov	ecx, DWORD PTR [eax]
	mov	DWORD PTR _lk$[ebp], ecx
	jmp	SHORT $LN4@xmlListRev
$LN2@xmlListRev:
	mov	edx, DWORD PTR _lk$[ebp]
	mov	eax, DWORD PTR [edx]
	mov	DWORD PTR _lk$[ebp], eax
$LN4@xmlListRev:
	mov	ecx, DWORD PTR _l$[ebp]
	mov	edx, DWORD PTR _lk$[ebp]
	cmp	edx, DWORD PTR [ecx]
	je	SHORT $LN3@xmlListRev

; 627  :         lkPrev->next = lkPrev->prev;

	mov	eax, DWORD PTR _lkPrev$[ebp]
	mov	ecx, DWORD PTR _lkPrev$[ebp]
	mov	edx, DWORD PTR [ecx+4]
	mov	DWORD PTR [eax], edx

; 628  :         lkPrev->prev = lk;

	mov	eax, DWORD PTR _lkPrev$[ebp]
	mov	ecx, DWORD PTR _lk$[ebp]
	mov	DWORD PTR [eax+4], ecx

; 629  :         lkPrev = lk;

	mov	edx, DWORD PTR _lk$[ebp]
	mov	DWORD PTR _lkPrev$[ebp], edx

; 630  :     }

	jmp	SHORT $LN2@xmlListRev
$LN3@xmlListRev:

; 631  :     /* Fix up the last node */
; 632  :     lkPrev->next = lkPrev->prev;

	mov	eax, DWORD PTR _lkPrev$[ebp]
	mov	ecx, DWORD PTR _lkPrev$[ebp]
	mov	edx, DWORD PTR [ecx+4]
	mov	DWORD PTR [eax], edx

; 633  :     lkPrev->prev = lk;

	mov	eax, DWORD PTR _lkPrev$[ebp]
	mov	ecx, DWORD PTR _lk$[ebp]
	mov	DWORD PTR [eax+4], ecx
$LN1@xmlListRev:

; 634  : }

	add	esp, 8
	cmp	ebp, esp
	call	__RTC_CheckEsp
	mov	esp, ebp
	pop	ebp
	ret	0
_xmlListReverse ENDP
_TEXT	ENDS
; Function compile flags: /Odtp /RTCsu
; File c:\users\dag\documents\_clients\codeproject authors group\windows on arm\libxml2\libxml2-2.9.9\list.c
;	COMDAT _xmlListPushBack
_TEXT	SEGMENT
_lkNew$ = -8						; size = 4
_lkPlace$ = -4						; size = 4
_l$ = 8							; size = 4
_data$ = 12						; size = 4
_xmlListPushBack PROC					; COMDAT

; 575  : {

	push	ebp
	mov	ebp, esp
	sub	esp, 8
	push	esi
	mov	DWORD PTR [ebp-8], -858993460		; ccccccccH
	mov	DWORD PTR [ebp-4], -858993460		; ccccccccH
	mov	ecx, OFFSET __C9B4D122_list@c
	call	@__CheckForDebuggerJustMyCode@4

; 576  :     xmlLinkPtr lkPlace, lkNew;
; 577  : 
; 578  :     if (l == NULL)

	cmp	DWORD PTR _l$[ebp], 0
	jne	SHORT $LN2@xmlListPus

; 579  :         return(0);

	xor	eax, eax
	jmp	$LN1@xmlListPus
$LN2@xmlListPus:

; 580  :     lkPlace = l->sentinel->prev;

	mov	eax, DWORD PTR _l$[ebp]
	mov	ecx, DWORD PTR [eax]
	mov	edx, DWORD PTR [ecx+4]
	mov	DWORD PTR _lkPlace$[ebp], edx

; 581  :     /* Add the new link */
; 582  :     if (NULL ==(lkNew = (xmlLinkPtr )xmlMalloc(sizeof(xmlLink)))) {

	mov	esi, esp
	push	12					; 0000000cH
	call	DWORD PTR _xmlMalloc
	add	esp, 4
	cmp	esi, esp
	call	__RTC_CheckEsp
	mov	DWORD PTR _lkNew$[ebp], eax
	cmp	DWORD PTR _lkNew$[ebp], 0
	jne	SHORT $LN3@xmlListPus

; 583  :         xmlGenericError(xmlGenericErrorContext,

	mov	esi, esp
	push	OFFSET ??_C@_0CG@HDAIMGNF@Cannot?5initialize?5memory?5for?5ne@
	call	___xmlGenericErrorContext
	mov	eax, DWORD PTR [eax]
	push	eax
	call	___xmlGenericError
	mov	ecx, DWORD PTR [eax]
	call	ecx
	add	esp, 8
	cmp	esi, esp
	call	__RTC_CheckEsp

; 584  : 		        "Cannot initialize memory for new link");
; 585  :         return (0);

	xor	eax, eax
	jmp	SHORT $LN1@xmlListPus
$LN3@xmlListPus:

; 586  :     }
; 587  :     lkNew->data = data;

	mov	edx, DWORD PTR _lkNew$[ebp]
	mov	eax, DWORD PTR _data$[ebp]
	mov	DWORD PTR [edx+8], eax

; 588  :     lkNew->next = lkPlace->next;

	mov	ecx, DWORD PTR _lkNew$[ebp]
	mov	edx, DWORD PTR _lkPlace$[ebp]
	mov	eax, DWORD PTR [edx]
	mov	DWORD PTR [ecx], eax

; 589  :     (lkPlace->next)->prev = lkNew;

	mov	ecx, DWORD PTR _lkPlace$[ebp]
	mov	edx, DWORD PTR [ecx]
	mov	eax, DWORD PTR _lkNew$[ebp]
	mov	DWORD PTR [edx+4], eax

; 590  :     lkPlace->next = lkNew;

	mov	ecx, DWORD PTR _lkPlace$[ebp]
	mov	edx, DWORD PTR _lkNew$[ebp]
	mov	DWORD PTR [ecx], edx

; 591  :     lkNew->prev = lkPlace;

	mov	eax, DWORD PTR _lkNew$[ebp]
	mov	ecx, DWORD PTR _lkPlace$[ebp]
	mov	DWORD PTR [eax+4], ecx

; 592  :     return 1;

	mov	eax, 1
$LN1@xmlListPus:

; 593  : }

	pop	esi
	add	esp, 8
	cmp	ebp, esp
	call	__RTC_CheckEsp
	mov	esp, ebp
	pop	ebp
	ret	0
_xmlListPushBack ENDP
_TEXT	ENDS
; Function compile flags: /Odtp /RTCsu
; File c:\users\dag\documents\_clients\codeproject authors group\windows on arm\libxml2\libxml2-2.9.9\list.c
;	COMDAT _xmlListPushFront
_TEXT	SEGMENT
_lkNew$ = -8						; size = 4
_lkPlace$ = -4						; size = 4
_l$ = 8							; size = 4
_data$ = 12						; size = 4
_xmlListPushFront PROC					; COMDAT

; 543  : {

	push	ebp
	mov	ebp, esp
	sub	esp, 8
	push	esi
	mov	DWORD PTR [ebp-8], -858993460		; ccccccccH
	mov	DWORD PTR [ebp-4], -858993460		; ccccccccH
	mov	ecx, OFFSET __C9B4D122_list@c
	call	@__CheckForDebuggerJustMyCode@4

; 544  :     xmlLinkPtr lkPlace, lkNew;
; 545  : 
; 546  :     if (l == NULL)

	cmp	DWORD PTR _l$[ebp], 0
	jne	SHORT $LN2@xmlListPus

; 547  :         return(0);

	xor	eax, eax
	jmp	SHORT $LN1@xmlListPus
$LN2@xmlListPus:

; 548  :     lkPlace = l->sentinel;

	mov	eax, DWORD PTR _l$[ebp]
	mov	ecx, DWORD PTR [eax]
	mov	DWORD PTR _lkPlace$[ebp], ecx

; 549  :     /* Add the new link */
; 550  :     lkNew = (xmlLinkPtr) xmlMalloc(sizeof(xmlLink));

	mov	esi, esp
	push	12					; 0000000cH
	call	DWORD PTR _xmlMalloc
	add	esp, 4
	cmp	esi, esp
	call	__RTC_CheckEsp
	mov	DWORD PTR _lkNew$[ebp], eax

; 551  :     if (lkNew == NULL) {

	cmp	DWORD PTR _lkNew$[ebp], 0
	jne	SHORT $LN3@xmlListPus

; 552  :         xmlGenericError(xmlGenericErrorContext,

	mov	esi, esp
	push	OFFSET ??_C@_0CG@HDAIMGNF@Cannot?5initialize?5memory?5for?5ne@
	call	___xmlGenericErrorContext
	mov	edx, DWORD PTR [eax]
	push	edx
	call	___xmlGenericError
	mov	eax, DWORD PTR [eax]
	call	eax
	add	esp, 8
	cmp	esi, esp
	call	__RTC_CheckEsp

; 553  : 		        "Cannot initialize memory for new link");
; 554  :         return (0);

	xor	eax, eax
	jmp	SHORT $LN1@xmlListPus
$LN3@xmlListPus:

; 555  :     }
; 556  :     lkNew->data = data;

	mov	ecx, DWORD PTR _lkNew$[ebp]
	mov	edx, DWORD PTR _data$[ebp]
	mov	DWORD PTR [ecx+8], edx

; 557  :     lkNew->next = lkPlace->next;

	mov	eax, DWORD PTR _lkNew$[ebp]
	mov	ecx, DWORD PTR _lkPlace$[ebp]
	mov	edx, DWORD PTR [ecx]
	mov	DWORD PTR [eax], edx

; 558  :     (lkPlace->next)->prev = lkNew;

	mov	eax, DWORD PTR _lkPlace$[ebp]
	mov	ecx, DWORD PTR [eax]
	mov	edx, DWORD PTR _lkNew$[ebp]
	mov	DWORD PTR [ecx+4], edx

; 559  :     lkPlace->next = lkNew;

	mov	eax, DWORD PTR _lkPlace$[ebp]
	mov	ecx, DWORD PTR _lkNew$[ebp]
	mov	DWORD PTR [eax], ecx

; 560  :     lkNew->prev = lkPlace;

	mov	edx, DWORD PTR _lkNew$[ebp]
	mov	eax, DWORD PTR _lkPlace$[ebp]
	mov	DWORD PTR [edx+4], eax

; 561  :     return 1;

	mov	eax, 1
$LN1@xmlListPus:

; 562  : }

	pop	esi
	add	esp, 8
	cmp	ebp, esp
	call	__RTC_CheckEsp
	mov	esp, ebp
	pop	ebp
	ret	0
_xmlListPushFront ENDP
_TEXT	ENDS
; Function compile flags: /Odtp /RTCsu
; File c:\users\dag\documents\_clients\codeproject authors group\windows on arm\libxml2\libxml2-2.9.9\list.c
;	COMDAT _xmlListPopBack
_TEXT	SEGMENT
_l$ = 8							; size = 4
_xmlListPopBack PROC					; COMDAT

; 527  : {

	push	ebp
	mov	ebp, esp
	mov	ecx, OFFSET __C9B4D122_list@c
	call	@__CheckForDebuggerJustMyCode@4

; 528  :     if(!xmlListEmpty(l))

	mov	eax, DWORD PTR _l$[ebp]
	push	eax
	call	_xmlListEmpty
	add	esp, 4
	test	eax, eax
	jne	SHORT $LN1@xmlListPop

; 529  :         xmlLinkDeallocator(l, l->sentinel->prev);

	mov	ecx, DWORD PTR _l$[ebp]
	mov	edx, DWORD PTR [ecx]
	mov	eax, DWORD PTR [edx+4]
	push	eax
	mov	ecx, DWORD PTR _l$[ebp]
	push	ecx
	call	_xmlLinkDeallocator
	add	esp, 8
$LN1@xmlListPop:

; 530  : }

	cmp	ebp, esp
	call	__RTC_CheckEsp
	pop	ebp
	ret	0
_xmlListPopBack ENDP
_TEXT	ENDS
; Function compile flags: /Odtp /RTCsu
; File c:\users\dag\documents\_clients\codeproject authors group\windows on arm\libxml2\libxml2-2.9.9\list.c
;	COMDAT _xmlListPopFront
_TEXT	SEGMENT
_l$ = 8							; size = 4
_xmlListPopFront PROC					; COMDAT

; 514  : {

	push	ebp
	mov	ebp, esp
	mov	ecx, OFFSET __C9B4D122_list@c
	call	@__CheckForDebuggerJustMyCode@4

; 515  :     if(!xmlListEmpty(l))

	mov	eax, DWORD PTR _l$[ebp]
	push	eax
	call	_xmlListEmpty
	add	esp, 4
	test	eax, eax
	jne	SHORT $LN1@xmlListPop

; 516  :         xmlLinkDeallocator(l, l->sentinel->next);

	mov	ecx, DWORD PTR _l$[ebp]
	mov	edx, DWORD PTR [ecx]
	mov	eax, DWORD PTR [edx]
	push	eax
	mov	ecx, DWORD PTR _l$[ebp]
	push	ecx
	call	_xmlLinkDeallocator
	add	esp, 8
$LN1@xmlListPop:

; 517  : }

	cmp	ebp, esp
	call	__RTC_CheckEsp
	pop	ebp
	ret	0
_xmlListPopFront ENDP
_TEXT	ENDS
; Function compile flags: /Odtp /RTCsu
; File c:\users\dag\documents\_clients\codeproject authors group\windows on arm\libxml2\libxml2-2.9.9\list.c
;	COMDAT _xmlListSize
_TEXT	SEGMENT
_count$ = -8						; size = 4
_lk$ = -4						; size = 4
_l$ = 8							; size = 4
_xmlListSize PROC					; COMDAT

; 495  : {

	push	ebp
	mov	ebp, esp
	sub	esp, 8
	mov	DWORD PTR [ebp-8], -858993460		; ccccccccH
	mov	DWORD PTR [ebp-4], -858993460		; ccccccccH
	mov	ecx, OFFSET __C9B4D122_list@c
	call	@__CheckForDebuggerJustMyCode@4

; 496  :     xmlLinkPtr lk;
; 497  :     int count=0;

	mov	DWORD PTR _count$[ebp], 0

; 498  : 
; 499  :     if (l == NULL)

	cmp	DWORD PTR _l$[ebp], 0
	jne	SHORT $LN5@xmlListSiz

; 500  :         return(-1);

	or	eax, -1
	jmp	SHORT $LN1@xmlListSiz
$LN5@xmlListSiz:

; 501  :     /* TODO: keep a counter in xmlList instead */
; 502  :     for(lk = l->sentinel->next; lk != l->sentinel; lk = lk->next, count++);

	mov	eax, DWORD PTR _l$[ebp]
	mov	ecx, DWORD PTR [eax]
	mov	edx, DWORD PTR [ecx]
	mov	DWORD PTR _lk$[ebp], edx
	jmp	SHORT $LN4@xmlListSiz
$LN2@xmlListSiz:
	mov	eax, DWORD PTR _lk$[ebp]
	mov	ecx, DWORD PTR [eax]
	mov	DWORD PTR _lk$[ebp], ecx
	mov	edx, DWORD PTR _count$[ebp]
	add	edx, 1
	mov	DWORD PTR _count$[ebp], edx
$LN4@xmlListSiz:
	mov	eax, DWORD PTR _l$[ebp]
	mov	ecx, DWORD PTR _lk$[ebp]
	cmp	ecx, DWORD PTR [eax]
	je	SHORT $LN3@xmlListSiz
	jmp	SHORT $LN2@xmlListSiz
$LN3@xmlListSiz:

; 503  :     return count;

	mov	eax, DWORD PTR _count$[ebp]
$LN1@xmlListSiz:

; 504  : }

	add	esp, 8
	cmp	ebp, esp
	call	__RTC_CheckEsp
	mov	esp, ebp
	pop	ebp
	ret	0
_xmlListSize ENDP
_TEXT	ENDS
; Function compile flags: /Odtp /RTCsu
; File c:\users\dag\documents\_clients\codeproject authors group\windows on arm\libxml2\libxml2-2.9.9\list.c
;	COMDAT _xmlListEnd
_TEXT	SEGMENT
_l$ = 8							; size = 4
_xmlListEnd PROC					; COMDAT

; 479  : {

	push	ebp
	mov	ebp, esp
	mov	ecx, OFFSET __C9B4D122_list@c
	call	@__CheckForDebuggerJustMyCode@4

; 480  :     if (l == NULL)

	cmp	DWORD PTR _l$[ebp], 0
	jne	SHORT $LN2@xmlListEnd

; 481  :         return(NULL);

	xor	eax, eax
	jmp	SHORT $LN1@xmlListEnd
$LN2@xmlListEnd:

; 482  :     return (l->sentinel->prev);

	mov	eax, DWORD PTR _l$[ebp]
	mov	ecx, DWORD PTR [eax]
	mov	eax, DWORD PTR [ecx+4]
$LN1@xmlListEnd:

; 483  : }

	cmp	ebp, esp
	call	__RTC_CheckEsp
	pop	ebp
	ret	0
_xmlListEnd ENDP
_TEXT	ENDS
; Function compile flags: /Odtp /RTCsu
; File c:\users\dag\documents\_clients\codeproject authors group\windows on arm\libxml2\libxml2-2.9.9\list.c
;	COMDAT _xmlListFront
_TEXT	SEGMENT
_l$ = 8							; size = 4
_xmlListFront PROC					; COMDAT

; 463  : {

	push	ebp
	mov	ebp, esp
	mov	ecx, OFFSET __C9B4D122_list@c
	call	@__CheckForDebuggerJustMyCode@4

; 464  :     if (l == NULL)

	cmp	DWORD PTR _l$[ebp], 0
	jne	SHORT $LN2@xmlListFro

; 465  :         return(NULL);

	xor	eax, eax
	jmp	SHORT $LN1@xmlListFro
$LN2@xmlListFro:

; 466  :     return (l->sentinel->next);

	mov	eax, DWORD PTR _l$[ebp]
	mov	ecx, DWORD PTR [eax]
	mov	eax, DWORD PTR [ecx]
$LN1@xmlListFro:

; 467  : }

	cmp	ebp, esp
	call	__RTC_CheckEsp
	pop	ebp
	ret	0
_xmlListFront ENDP
_TEXT	ENDS
; Function compile flags: /Odtp /RTCsu
; File c:\users\dag\documents\_clients\codeproject authors group\windows on arm\libxml2\libxml2-2.9.9\list.c
;	COMDAT _xmlListEmpty
_TEXT	SEGMENT
tv69 = -4						; size = 4
_l$ = 8							; size = 4
_xmlListEmpty PROC					; COMDAT

; 447  : {

	push	ebp
	mov	ebp, esp
	push	ecx
	mov	DWORD PTR [ebp-4], -858993460		; ccccccccH
	mov	ecx, OFFSET __C9B4D122_list@c
	call	@__CheckForDebuggerJustMyCode@4

; 448  :     if (l == NULL)

	cmp	DWORD PTR _l$[ebp], 0
	jne	SHORT $LN2@xmlListEmp

; 449  :         return(-1);

	or	eax, -1
	jmp	SHORT $LN1@xmlListEmp
$LN2@xmlListEmp:

; 450  :     return (l->sentinel->next == l->sentinel);

	mov	eax, DWORD PTR _l$[ebp]
	mov	ecx, DWORD PTR [eax]
	mov	edx, DWORD PTR _l$[ebp]
	mov	eax, DWORD PTR [ecx]
	cmp	eax, DWORD PTR [edx]
	jne	SHORT $LN4@xmlListEmp
	mov	DWORD PTR tv69[ebp], 1
	jmp	SHORT $LN5@xmlListEmp
$LN4@xmlListEmp:
	mov	DWORD PTR tv69[ebp], 0
$LN5@xmlListEmp:
	mov	eax, DWORD PTR tv69[ebp]
$LN1@xmlListEmp:

; 451  : }

	add	esp, 4
	cmp	ebp, esp
	call	__RTC_CheckEsp
	mov	esp, ebp
	pop	ebp
	ret	0
_xmlListEmpty ENDP
_TEXT	ENDS
; Function compile flags: /Odtp /RTCsu
; File c:\users\dag\documents\_clients\codeproject authors group\windows on arm\libxml2\libxml2-2.9.9\list.c
;	COMDAT _xmlListClear
_TEXT	SEGMENT
_next$1 = -8						; size = 4
_lk$ = -4						; size = 4
_l$ = 8							; size = 4
_xmlListClear PROC					; COMDAT

; 423  : {

	push	ebp
	mov	ebp, esp
	sub	esp, 8
	mov	DWORD PTR [ebp-8], -858993460		; ccccccccH
	mov	DWORD PTR [ebp-4], -858993460		; ccccccccH
	mov	ecx, OFFSET __C9B4D122_list@c
	call	@__CheckForDebuggerJustMyCode@4

; 424  :     xmlLinkPtr  lk;
; 425  : 
; 426  :     if (l == NULL)

	cmp	DWORD PTR _l$[ebp], 0
	jne	SHORT $LN4@xmlListCle

; 427  :         return;

	jmp	SHORT $LN1@xmlListCle
$LN4@xmlListCle:

; 428  :     lk = l->sentinel->next;

	mov	eax, DWORD PTR _l$[ebp]
	mov	ecx, DWORD PTR [eax]
	mov	edx, DWORD PTR [ecx]
	mov	DWORD PTR _lk$[ebp], edx
$LN2@xmlListCle:

; 429  :     while(lk != l->sentinel) {

	mov	eax, DWORD PTR _l$[ebp]
	mov	ecx, DWORD PTR _lk$[ebp]
	cmp	ecx, DWORD PTR [eax]
	je	SHORT $LN1@xmlListCle

; 430  :         xmlLinkPtr next = lk->next;

	mov	edx, DWORD PTR _lk$[ebp]
	mov	eax, DWORD PTR [edx]
	mov	DWORD PTR _next$1[ebp], eax

; 431  : 
; 432  :         xmlLinkDeallocator(l, lk);

	mov	ecx, DWORD PTR _lk$[ebp]
	push	ecx
	mov	edx, DWORD PTR _l$[ebp]
	push	edx
	call	_xmlLinkDeallocator
	add	esp, 8

; 433  :         lk = next;

	mov	eax, DWORD PTR _next$1[ebp]
	mov	DWORD PTR _lk$[ebp], eax

; 434  :     }

	jmp	SHORT $LN2@xmlListCle
$LN1@xmlListCle:

; 435  : }

	add	esp, 8
	cmp	ebp, esp
	call	__RTC_CheckEsp
	mov	esp, ebp
	pop	ebp
	ret	0
_xmlListClear ENDP
_TEXT	ENDS
; Function compile flags: /Odtp /RTCsu
; File c:\users\dag\documents\_clients\codeproject authors group\windows on arm\libxml2\libxml2-2.9.9\list.c
;	COMDAT _xmlListRemoveAll
_TEXT	SEGMENT
_count$ = -4						; size = 4
_l$ = 8							; size = 4
_data$ = 12						; size = 4
_xmlListRemoveAll PROC					; COMDAT

; 404  : {

	push	ebp
	mov	ebp, esp
	push	ecx
	mov	DWORD PTR [ebp-4], -858993460		; ccccccccH
	mov	ecx, OFFSET __C9B4D122_list@c
	call	@__CheckForDebuggerJustMyCode@4

; 405  :     int count=0;

	mov	DWORD PTR _count$[ebp], 0

; 406  : 
; 407  :     if (l == NULL)

	cmp	DWORD PTR _l$[ebp], 0
	jne	SHORT $LN2@xmlListRem

; 408  :         return(0);

	xor	eax, eax
	jmp	SHORT $LN1@xmlListRem
$LN2@xmlListRem:

; 409  : 
; 410  :     while(xmlListRemoveFirst(l, data))

	mov	eax, DWORD PTR _data$[ebp]
	push	eax
	mov	ecx, DWORD PTR _l$[ebp]
	push	ecx
	call	_xmlListRemoveFirst
	add	esp, 8
	test	eax, eax
	je	SHORT $LN3@xmlListRem

; 411  :         count++;

	mov	edx, DWORD PTR _count$[ebp]
	add	edx, 1
	mov	DWORD PTR _count$[ebp], edx
	jmp	SHORT $LN2@xmlListRem
$LN3@xmlListRem:

; 412  :     return count;

	mov	eax, DWORD PTR _count$[ebp]
$LN1@xmlListRem:

; 413  : }

	add	esp, 4
	cmp	ebp, esp
	call	__RTC_CheckEsp
	mov	esp, ebp
	pop	ebp
	ret	0
_xmlListRemoveAll ENDP
_TEXT	ENDS
; Function compile flags: /Odtp /RTCsu
; File c:\users\dag\documents\_clients\codeproject authors group\windows on arm\libxml2\libxml2-2.9.9\list.c
;	COMDAT _xmlListRemoveLast
_TEXT	SEGMENT
_lk$ = -4						; size = 4
_l$ = 8							; size = 4
_data$ = 12						; size = 4
_xmlListRemoveLast PROC					; COMDAT

; 379  : {

	push	ebp
	mov	ebp, esp
	push	ecx
	mov	DWORD PTR [ebp-4], -858993460		; ccccccccH
	mov	ecx, OFFSET __C9B4D122_list@c
	call	@__CheckForDebuggerJustMyCode@4

; 380  :     xmlLinkPtr lk;
; 381  : 
; 382  :     if (l == NULL)

	cmp	DWORD PTR _l$[ebp], 0
	jne	SHORT $LN2@xmlListRem

; 383  :         return(0);

	xor	eax, eax
	jmp	SHORT $LN1@xmlListRem
$LN2@xmlListRem:

; 384  :     /*Find the last instance of this data */
; 385  :     lk = xmlListLinkReverseSearch(l, data);

	mov	eax, DWORD PTR _data$[ebp]
	push	eax
	mov	ecx, DWORD PTR _l$[ebp]
	push	ecx
	call	_xmlListLinkReverseSearch
	add	esp, 8
	mov	DWORD PTR _lk$[ebp], eax

; 386  :     if (lk != NULL) {

	cmp	DWORD PTR _lk$[ebp], 0
	je	SHORT $LN3@xmlListRem

; 387  : 	xmlLinkDeallocator(l, lk);

	mov	edx, DWORD PTR _lk$[ebp]
	push	edx
	mov	eax, DWORD PTR _l$[ebp]
	push	eax
	call	_xmlLinkDeallocator
	add	esp, 8

; 388  :         return 1;

	mov	eax, 1
	jmp	SHORT $LN1@xmlListRem
$LN3@xmlListRem:

; 389  :     }
; 390  :     return 0;

	xor	eax, eax
$LN1@xmlListRem:

; 391  : }

	add	esp, 4
	cmp	ebp, esp
	call	__RTC_CheckEsp
	mov	esp, ebp
	pop	ebp
	ret	0
_xmlListRemoveLast ENDP
_TEXT	ENDS
; Function compile flags: /Odtp /RTCsu
; File c:\users\dag\documents\_clients\codeproject authors group\windows on arm\libxml2\libxml2-2.9.9\list.c
;	COMDAT _xmlListRemoveFirst
_TEXT	SEGMENT
_lk$ = -4						; size = 4
_l$ = 8							; size = 4
_data$ = 12						; size = 4
_xmlListRemoveFirst PROC				; COMDAT

; 354  : {

	push	ebp
	mov	ebp, esp
	push	ecx
	mov	DWORD PTR [ebp-4], -858993460		; ccccccccH
	mov	ecx, OFFSET __C9B4D122_list@c
	call	@__CheckForDebuggerJustMyCode@4

; 355  :     xmlLinkPtr lk;
; 356  : 
; 357  :     if (l == NULL)

	cmp	DWORD PTR _l$[ebp], 0
	jne	SHORT $LN2@xmlListRem

; 358  :         return(0);

	xor	eax, eax
	jmp	SHORT $LN1@xmlListRem
$LN2@xmlListRem:

; 359  :     /*Find the first instance of this data */
; 360  :     lk = xmlListLinkSearch(l, data);

	mov	eax, DWORD PTR _data$[ebp]
	push	eax
	mov	ecx, DWORD PTR _l$[ebp]
	push	ecx
	call	_xmlListLinkSearch
	add	esp, 8
	mov	DWORD PTR _lk$[ebp], eax

; 361  :     if (lk != NULL) {

	cmp	DWORD PTR _lk$[ebp], 0
	je	SHORT $LN3@xmlListRem

; 362  :         xmlLinkDeallocator(l, lk);

	mov	edx, DWORD PTR _lk$[ebp]
	push	edx
	mov	eax, DWORD PTR _l$[ebp]
	push	eax
	call	_xmlLinkDeallocator
	add	esp, 8

; 363  :         return 1;

	mov	eax, 1
	jmp	SHORT $LN1@xmlListRem
$LN3@xmlListRem:

; 364  :     }
; 365  :     return 0;

	xor	eax, eax
$LN1@xmlListRem:

; 366  : }

	add	esp, 4
	cmp	ebp, esp
	call	__RTC_CheckEsp
	mov	esp, ebp
	pop	ebp
	ret	0
_xmlListRemoveFirst ENDP
_TEXT	ENDS
; Function compile flags: /Odtp /RTCsu
; File c:\users\dag\documents\_clients\codeproject authors group\windows on arm\libxml2\libxml2-2.9.9\list.c
;	COMDAT _xmlListAppend
_TEXT	SEGMENT
_lkNew$ = -8						; size = 4
_lkPlace$ = -4						; size = 4
_l$ = 8							; size = 4
_data$ = 12						; size = 4
_xmlListAppend PROC					; COMDAT

; 306  : {

	push	ebp
	mov	ebp, esp
	sub	esp, 8
	push	esi
	mov	DWORD PTR [ebp-8], -858993460		; ccccccccH
	mov	DWORD PTR [ebp-4], -858993460		; ccccccccH
	mov	ecx, OFFSET __C9B4D122_list@c
	call	@__CheckForDebuggerJustMyCode@4

; 307  :     xmlLinkPtr lkPlace, lkNew;
; 308  : 
; 309  :     if (l == NULL)

	cmp	DWORD PTR _l$[ebp], 0
	jne	SHORT $LN2@xmlListApp

; 310  :         return(1);

	mov	eax, 1
	jmp	$LN1@xmlListApp
$LN2@xmlListApp:

; 311  :     lkPlace = xmlListHigherSearch(l, data);

	mov	eax, DWORD PTR _data$[ebp]
	push	eax
	mov	ecx, DWORD PTR _l$[ebp]
	push	ecx
	call	_xmlListHigherSearch
	add	esp, 8
	mov	DWORD PTR _lkPlace$[ebp], eax

; 312  :     /* Add the new link */
; 313  :     lkNew = (xmlLinkPtr) xmlMalloc(sizeof(xmlLink));

	mov	esi, esp
	push	12					; 0000000cH
	call	DWORD PTR _xmlMalloc
	add	esp, 4
	cmp	esi, esp
	call	__RTC_CheckEsp
	mov	DWORD PTR _lkNew$[ebp], eax

; 314  :     if (lkNew == NULL) {

	cmp	DWORD PTR _lkNew$[ebp], 0
	jne	SHORT $LN3@xmlListApp

; 315  :         xmlGenericError(xmlGenericErrorContext,

	mov	esi, esp
	push	OFFSET ??_C@_0CG@HDAIMGNF@Cannot?5initialize?5memory?5for?5ne@
	call	___xmlGenericErrorContext
	mov	edx, DWORD PTR [eax]
	push	edx
	call	___xmlGenericError
	mov	eax, DWORD PTR [eax]
	call	eax
	add	esp, 8
	cmp	esi, esp
	call	__RTC_CheckEsp

; 316  : 		        "Cannot initialize memory for new link");
; 317  :         return (1);

	mov	eax, 1
	jmp	SHORT $LN1@xmlListApp
$LN3@xmlListApp:

; 318  :     }
; 319  :     lkNew->data = data;

	mov	ecx, DWORD PTR _lkNew$[ebp]
	mov	edx, DWORD PTR _data$[ebp]
	mov	DWORD PTR [ecx+8], edx

; 320  :     lkNew->next = lkPlace->next;

	mov	eax, DWORD PTR _lkNew$[ebp]
	mov	ecx, DWORD PTR _lkPlace$[ebp]
	mov	edx, DWORD PTR [ecx]
	mov	DWORD PTR [eax], edx

; 321  :     (lkPlace->next)->prev = lkNew;

	mov	eax, DWORD PTR _lkPlace$[ebp]
	mov	ecx, DWORD PTR [eax]
	mov	edx, DWORD PTR _lkNew$[ebp]
	mov	DWORD PTR [ecx+4], edx

; 322  :     lkPlace->next = lkNew;

	mov	eax, DWORD PTR _lkPlace$[ebp]
	mov	ecx, DWORD PTR _lkNew$[ebp]
	mov	DWORD PTR [eax], ecx

; 323  :     lkNew->prev = lkPlace;

	mov	edx, DWORD PTR _lkNew$[ebp]
	mov	eax, DWORD PTR _lkPlace$[ebp]
	mov	DWORD PTR [edx+4], eax

; 324  :     return 0;

	xor	eax, eax
$LN1@xmlListApp:

; 325  : }

	pop	esi
	add	esp, 8
	cmp	ebp, esp
	call	__RTC_CheckEsp
	mov	esp, ebp
	pop	ebp
	ret	0
_xmlListAppend ENDP
_TEXT	ENDS
; Function compile flags: /Odtp /RTCsu
; File c:\users\dag\documents\_clients\codeproject authors group\windows on arm\libxml2\libxml2-2.9.9\list.c
;	COMDAT _xmlListInsert
_TEXT	SEGMENT
_lkNew$ = -8						; size = 4
_lkPlace$ = -4						; size = 4
_l$ = 8							; size = 4
_data$ = 12						; size = 4
_xmlListInsert PROC					; COMDAT

; 274  : {

	push	ebp
	mov	ebp, esp
	sub	esp, 8
	push	esi
	mov	DWORD PTR [ebp-8], -858993460		; ccccccccH
	mov	DWORD PTR [ebp-4], -858993460		; ccccccccH
	mov	ecx, OFFSET __C9B4D122_list@c
	call	@__CheckForDebuggerJustMyCode@4

; 275  :     xmlLinkPtr lkPlace, lkNew;
; 276  : 
; 277  :     if (l == NULL)

	cmp	DWORD PTR _l$[ebp], 0
	jne	SHORT $LN2@xmlListIns

; 278  :         return(1);

	mov	eax, 1
	jmp	$LN1@xmlListIns
$LN2@xmlListIns:

; 279  :     lkPlace = xmlListLowerSearch(l, data);

	mov	eax, DWORD PTR _data$[ebp]
	push	eax
	mov	ecx, DWORD PTR _l$[ebp]
	push	ecx
	call	_xmlListLowerSearch
	add	esp, 8
	mov	DWORD PTR _lkPlace$[ebp], eax

; 280  :     /* Add the new link */
; 281  :     lkNew = (xmlLinkPtr) xmlMalloc(sizeof(xmlLink));

	mov	esi, esp
	push	12					; 0000000cH
	call	DWORD PTR _xmlMalloc
	add	esp, 4
	cmp	esi, esp
	call	__RTC_CheckEsp
	mov	DWORD PTR _lkNew$[ebp], eax

; 282  :     if (lkNew == NULL) {

	cmp	DWORD PTR _lkNew$[ebp], 0
	jne	SHORT $LN3@xmlListIns

; 283  :         xmlGenericError(xmlGenericErrorContext,

	mov	esi, esp
	push	OFFSET ??_C@_0CG@HDAIMGNF@Cannot?5initialize?5memory?5for?5ne@
	call	___xmlGenericErrorContext
	mov	edx, DWORD PTR [eax]
	push	edx
	call	___xmlGenericError
	mov	eax, DWORD PTR [eax]
	call	eax
	add	esp, 8
	cmp	esi, esp
	call	__RTC_CheckEsp

; 284  : 		        "Cannot initialize memory for new link");
; 285  :         return (1);

	mov	eax, 1
	jmp	SHORT $LN1@xmlListIns
$LN3@xmlListIns:

; 286  :     }
; 287  :     lkNew->data = data;

	mov	ecx, DWORD PTR _lkNew$[ebp]
	mov	edx, DWORD PTR _data$[ebp]
	mov	DWORD PTR [ecx+8], edx

; 288  :     lkPlace = lkPlace->prev;

	mov	eax, DWORD PTR _lkPlace$[ebp]
	mov	ecx, DWORD PTR [eax+4]
	mov	DWORD PTR _lkPlace$[ebp], ecx

; 289  :     lkNew->next = lkPlace->next;

	mov	edx, DWORD PTR _lkNew$[ebp]
	mov	eax, DWORD PTR _lkPlace$[ebp]
	mov	ecx, DWORD PTR [eax]
	mov	DWORD PTR [edx], ecx

; 290  :     (lkPlace->next)->prev = lkNew;

	mov	edx, DWORD PTR _lkPlace$[ebp]
	mov	eax, DWORD PTR [edx]
	mov	ecx, DWORD PTR _lkNew$[ebp]
	mov	DWORD PTR [eax+4], ecx

; 291  :     lkPlace->next = lkNew;

	mov	edx, DWORD PTR _lkPlace$[ebp]
	mov	eax, DWORD PTR _lkNew$[ebp]
	mov	DWORD PTR [edx], eax

; 292  :     lkNew->prev = lkPlace;

	mov	ecx, DWORD PTR _lkNew$[ebp]
	mov	edx, DWORD PTR _lkPlace$[ebp]
	mov	DWORD PTR [ecx+4], edx

; 293  :     return 0;

	xor	eax, eax
$LN1@xmlListIns:

; 294  : }

	pop	esi
	add	esp, 8
	cmp	ebp, esp
	call	__RTC_CheckEsp
	mov	esp, ebp
	pop	ebp
	ret	0
_xmlListInsert ENDP
_TEXT	ENDS
; Function compile flags: /Odtp /RTCsu
; File c:\users\dag\documents\_clients\codeproject authors group\windows on arm\libxml2\libxml2-2.9.9\list.c
;	COMDAT _xmlListReverseSearch
_TEXT	SEGMENT
_lk$ = -4						; size = 4
_l$ = 8							; size = 4
_data$ = 12						; size = 4
_xmlListReverseSearch PROC				; COMDAT

; 253  : {

	push	ebp
	mov	ebp, esp
	push	ecx
	mov	DWORD PTR [ebp-4], -858993460		; ccccccccH
	mov	ecx, OFFSET __C9B4D122_list@c
	call	@__CheckForDebuggerJustMyCode@4

; 254  :     xmlLinkPtr lk;
; 255  :     if (l == NULL)

	cmp	DWORD PTR _l$[ebp], 0
	jne	SHORT $LN2@xmlListRev

; 256  :         return(NULL);

	xor	eax, eax
	jmp	SHORT $LN1@xmlListRev
$LN2@xmlListRev:

; 257  :     lk = xmlListLinkReverseSearch(l, data);

	mov	eax, DWORD PTR _data$[ebp]
	push	eax
	mov	ecx, DWORD PTR _l$[ebp]
	push	ecx
	call	_xmlListLinkReverseSearch
	add	esp, 8
	mov	DWORD PTR _lk$[ebp], eax

; 258  :     if (lk)

	cmp	DWORD PTR _lk$[ebp], 0
	je	SHORT $LN3@xmlListRev

; 259  :         return (lk->data);

	mov	edx, DWORD PTR _lk$[ebp]
	mov	eax, DWORD PTR [edx+8]
	jmp	SHORT $LN1@xmlListRev
$LN3@xmlListRev:

; 260  :     return NULL;

	xor	eax, eax
$LN1@xmlListRev:

; 261  : }

	add	esp, 4
	cmp	ebp, esp
	call	__RTC_CheckEsp
	mov	esp, ebp
	pop	ebp
	ret	0
_xmlListReverseSearch ENDP
_TEXT	ENDS
; Function compile flags: /Odtp /RTCsu
; File c:\users\dag\documents\_clients\codeproject authors group\windows on arm\libxml2\libxml2-2.9.9\list.c
;	COMDAT _xmlListSearch
_TEXT	SEGMENT
_lk$ = -4						; size = 4
_l$ = 8							; size = 4
_data$ = 12						; size = 4
_xmlListSearch PROC					; COMDAT

; 232  : {

	push	ebp
	mov	ebp, esp
	push	ecx
	mov	DWORD PTR [ebp-4], -858993460		; ccccccccH
	mov	ecx, OFFSET __C9B4D122_list@c
	call	@__CheckForDebuggerJustMyCode@4

; 233  :     xmlLinkPtr lk;
; 234  :     if (l == NULL)

	cmp	DWORD PTR _l$[ebp], 0
	jne	SHORT $LN2@xmlListSea

; 235  :         return(NULL);

	xor	eax, eax
	jmp	SHORT $LN1@xmlListSea
$LN2@xmlListSea:

; 236  :     lk = xmlListLinkSearch(l, data);

	mov	eax, DWORD PTR _data$[ebp]
	push	eax
	mov	ecx, DWORD PTR _l$[ebp]
	push	ecx
	call	_xmlListLinkSearch
	add	esp, 8
	mov	DWORD PTR _lk$[ebp], eax

; 237  :     if (lk)

	cmp	DWORD PTR _lk$[ebp], 0
	je	SHORT $LN3@xmlListSea

; 238  :         return (lk->data);

	mov	edx, DWORD PTR _lk$[ebp]
	mov	eax, DWORD PTR [edx+8]
	jmp	SHORT $LN1@xmlListSea
$LN3@xmlListSea:

; 239  :     return NULL;

	xor	eax, eax
$LN1@xmlListSea:

; 240  : }

	add	esp, 4
	cmp	ebp, esp
	call	__RTC_CheckEsp
	mov	esp, ebp
	pop	ebp
	ret	0
_xmlListSearch ENDP
_TEXT	ENDS
; Function compile flags: /Odtp /RTCsu
; File c:\users\dag\documents\_clients\codeproject authors group\windows on arm\libxml2\libxml2-2.9.9\list.c
;	COMDAT _xmlListDelete
_TEXT	SEGMENT
_l$ = 8							; size = 4
_xmlListDelete PROC					; COMDAT

; 334  : {

	push	ebp
	mov	ebp, esp
	push	esi
	mov	ecx, OFFSET __C9B4D122_list@c
	call	@__CheckForDebuggerJustMyCode@4

; 335  :     if (l == NULL)

	cmp	DWORD PTR _l$[ebp], 0
	jne	SHORT $LN2@xmlListDel

; 336  :         return;

	jmp	SHORT $LN1@xmlListDel
$LN2@xmlListDel:

; 337  : 
; 338  :     xmlListClear(l);

	mov	eax, DWORD PTR _l$[ebp]
	push	eax
	call	_xmlListClear
	add	esp, 4

; 339  :     xmlFree(l->sentinel);

	mov	esi, esp
	mov	ecx, DWORD PTR _l$[ebp]
	mov	edx, DWORD PTR [ecx]
	push	edx
	call	DWORD PTR _xmlFree
	add	esp, 4
	cmp	esi, esp
	call	__RTC_CheckEsp

; 340  :     xmlFree(l);

	mov	esi, esp
	mov	eax, DWORD PTR _l$[ebp]
	push	eax
	call	DWORD PTR _xmlFree
	add	esp, 4
	cmp	esi, esp
	call	__RTC_CheckEsp
$LN1@xmlListDel:

; 341  : }

	pop	esi
	cmp	ebp, esp
	call	__RTC_CheckEsp
	pop	ebp
	ret	0
_xmlListDelete ENDP
_TEXT	ENDS
; Function compile flags: /Odtp /RTCsu
; File c:\users\dag\documents\_clients\codeproject authors group\windows on arm\libxml2\libxml2-2.9.9\list.c
;	COMDAT _xmlListCreate
_TEXT	SEGMENT
tv75 = -8						; size = 4
_l$ = -4						; size = 4
_deallocator$ = 8					; size = 4
_compare$ = 12						; size = 4
_xmlListCreate PROC					; COMDAT

; 189  : {

	push	ebp
	mov	ebp, esp
	sub	esp, 8
	push	esi
	mov	DWORD PTR [ebp-8], -858993460		; ccccccccH
	mov	DWORD PTR [ebp-4], -858993460		; ccccccccH
	mov	ecx, OFFSET __C9B4D122_list@c
	call	@__CheckForDebuggerJustMyCode@4

; 190  :     xmlListPtr l;
; 191  :     if (NULL == (l = (xmlListPtr )xmlMalloc( sizeof(xmlList)))) {

	mov	esi, esp
	push	12					; 0000000cH
	call	DWORD PTR _xmlMalloc
	add	esp, 4
	cmp	esi, esp
	call	__RTC_CheckEsp
	mov	DWORD PTR _l$[ebp], eax
	cmp	DWORD PTR _l$[ebp], 0
	jne	SHORT $LN2@xmlListCre

; 192  :         xmlGenericError(xmlGenericErrorContext,

	mov	esi, esp
	push	OFFSET ??_C@_0CC@PEFKPBME@Cannot?5initialize?5memory?5for?5li@
	call	___xmlGenericErrorContext
	mov	eax, DWORD PTR [eax]
	push	eax
	call	___xmlGenericError
	mov	ecx, DWORD PTR [eax]
	call	ecx
	add	esp, 8
	cmp	esi, esp
	call	__RTC_CheckEsp

; 193  : 		        "Cannot initialize memory for list");
; 194  :         return (NULL);

	xor	eax, eax
	jmp	$LN1@xmlListCre
$LN2@xmlListCre:

; 195  :     }
; 196  :     /* Initialize the list to NULL */
; 197  :     memset(l, 0, sizeof(xmlList));

	xor	edx, edx
	mov	eax, DWORD PTR _l$[ebp]
	mov	DWORD PTR [eax], edx
	mov	DWORD PTR [eax+4], edx
	mov	DWORD PTR [eax+8], edx

; 198  : 
; 199  :     /* Add the sentinel */
; 200  :     if (NULL ==(l->sentinel = (xmlLinkPtr )xmlMalloc(sizeof(xmlLink)))) {

	mov	esi, esp
	push	12					; 0000000cH
	call	DWORD PTR _xmlMalloc
	add	esp, 4
	cmp	esi, esp
	call	__RTC_CheckEsp
	mov	DWORD PTR tv75[ebp], eax
	mov	ecx, DWORD PTR _l$[ebp]
	mov	edx, DWORD PTR tv75[ebp]
	mov	DWORD PTR [ecx], edx
	cmp	DWORD PTR tv75[ebp], 0
	jne	SHORT $LN3@xmlListCre

; 201  :         xmlGenericError(xmlGenericErrorContext,

	mov	esi, esp
	push	OFFSET ??_C@_0CG@FNPNDOOA@Cannot?5initialize?5memory?5for?5se@
	call	___xmlGenericErrorContext
	mov	eax, DWORD PTR [eax]
	push	eax
	call	___xmlGenericError
	mov	ecx, DWORD PTR [eax]
	call	ecx
	add	esp, 8
	cmp	esi, esp
	call	__RTC_CheckEsp

; 202  : 		        "Cannot initialize memory for sentinel");
; 203  : 	xmlFree(l);

	mov	esi, esp
	mov	edx, DWORD PTR _l$[ebp]
	push	edx
	call	DWORD PTR _xmlFree
	add	esp, 4
	cmp	esi, esp
	call	__RTC_CheckEsp

; 204  :         return (NULL);

	xor	eax, eax
	jmp	SHORT $LN1@xmlListCre
$LN3@xmlListCre:

; 205  :     }
; 206  :     l->sentinel->next = l->sentinel;

	mov	eax, DWORD PTR _l$[ebp]
	mov	ecx, DWORD PTR [eax]
	mov	edx, DWORD PTR _l$[ebp]
	mov	eax, DWORD PTR [edx]
	mov	DWORD PTR [ecx], eax

; 207  :     l->sentinel->prev = l->sentinel;

	mov	ecx, DWORD PTR _l$[ebp]
	mov	edx, DWORD PTR [ecx]
	mov	eax, DWORD PTR _l$[ebp]
	mov	ecx, DWORD PTR [eax]
	mov	DWORD PTR [edx+4], ecx

; 208  :     l->sentinel->data = NULL;

	mov	edx, DWORD PTR _l$[ebp]
	mov	eax, DWORD PTR [edx]
	mov	DWORD PTR [eax+8], 0

; 209  : 
; 210  :     /* If there is a link deallocator, use it */
; 211  :     if (deallocator != NULL)

	cmp	DWORD PTR _deallocator$[ebp], 0
	je	SHORT $LN4@xmlListCre

; 212  :         l->linkDeallocator = deallocator;

	mov	ecx, DWORD PTR _l$[ebp]
	mov	edx, DWORD PTR _deallocator$[ebp]
	mov	DWORD PTR [ecx+4], edx
$LN4@xmlListCre:

; 213  :     /* If there is a link comparator, use it */
; 214  :     if (compare != NULL)

	cmp	DWORD PTR _compare$[ebp], 0
	je	SHORT $LN5@xmlListCre

; 215  :         l->linkCompare = compare;

	mov	eax, DWORD PTR _l$[ebp]
	mov	ecx, DWORD PTR _compare$[ebp]
	mov	DWORD PTR [eax+8], ecx
	jmp	SHORT $LN6@xmlListCre
$LN5@xmlListCre:

; 216  :     else /* Use our own */
; 217  :         l->linkCompare = xmlLinkCompare;

	mov	edx, DWORD PTR _l$[ebp]
	mov	DWORD PTR [edx+8], OFFSET _xmlLinkCompare
$LN6@xmlListCre:

; 218  :     return l;

	mov	eax, DWORD PTR _l$[ebp]
$LN1@xmlListCre:

; 219  : }

	pop	esi
	add	esp, 8
	cmp	ebp, esp
	call	__RTC_CheckEsp
	mov	esp, ebp
	pop	ebp
	ret	0
_xmlListCreate ENDP
_TEXT	ENDS
END
