; Listing generated by Microsoft (R) Optimizing Compiler Version 19.16.27027.1 

	TITLE	C:\Users\DAG\Documents\_Clients\CodeProject Authors Group\Windows on ARM\libxml2\libxml2-2.9.9\parser.c
	.686P
	.XMM
	include listing.inc
	.model	flat

INCLUDELIB MSVCRTD
INCLUDELIB OLDNAMES

PUBLIC	_xmlParserMaxDepth
PUBLIC	??_C@_0P@HPOCOPDB@xml?9stylesheet@		; `string'
PUBLIC	??_C@_09OBPBGIJC@xml?9model@			; `string'
_DATA	SEGMENT
COMM	_xmlMalloc:DWORD
COMM	_xmlMallocAtomic:DWORD
COMM	_xmlRealloc:DWORD
COMM	_xmlFree:DWORD
COMM	_xmlMemStrdup:DWORD
COMM	_xmlIsBaseCharGroup:BYTE:010H
COMM	_xmlIsCharGroup:BYTE:010H
COMM	_xmlIsCombiningGroup:BYTE:010H
COMM	_xmlIsDigitGroup:BYTE:010H
COMM	_xmlIsExtenderGroup:BYTE:010H
COMM	_xmlIsIdeographicGroup:BYTE:010H
COMM	_xmlIsPubidChar_tab:BYTE:0100H
COMM	_xmlXPathNAN:QWORD
COMM	_xmlXPathPINF:QWORD
COMM	_xmlXPathNINF:QWORD
COMM	_forbiddenExp:DWORD
COMM	_emptyExp:DWORD
_DATA	ENDS
CONST	SEGMENT
_test_char_data DB 00H
	DB	00H
	DB	00H
	DB	00H
	DB	00H
	DB	00H
	DB	00H
	DB	00H
	DB	00H
	DB	09H
	DB	00H
	DB	00H
	DB	00H
	DB	00H
	DB	00H
	DB	00H
	DB	00H
	DB	00H
	DB	00H
	DB	00H
	DB	00H
	DB	00H
	DB	00H
	DB	00H
	DB	00H
	DB	00H
	DB	00H
	DB	00H
	DB	00H
	DB	00H
	DB	00H
	DB	00H
	DB	020H
	DB	021H
	DB	022H
	DB	023H
	DB	024H
	DB	025H
	DB	00H
	DB	027H
	DB	028H
	DB	029H
	DB	02aH
	DB	02bH
	DB	02cH
	DB	02dH
	DB	02eH
	DB	02fH
	DB	030H
	DB	031H
	DB	032H
	DB	033H
	DB	034H
	DB	035H
	DB	036H
	DB	037H
	DB	038H
	DB	039H
	DB	03aH
	DB	03bH
	DB	00H
	DB	03dH
	DB	03eH
	DB	03fH
	DB	040H
	DB	041H
	DB	042H
	DB	043H
	DB	044H
	DB	045H
	DB	046H
	DB	047H
	DB	048H
	DB	049H
	DB	04aH
	DB	04bH
	DB	04cH
	DB	04dH
	DB	04eH
	DB	04fH
	DB	050H
	DB	051H
	DB	052H
	DB	053H
	DB	054H
	DB	055H
	DB	056H
	DB	057H
	DB	058H
	DB	059H
	DB	05aH
	DB	05bH
	DB	05cH
	DB	00H
	DB	05eH
	DB	05fH
	DB	060H
	DB	061H
	DB	062H
	DB	063H
	DB	064H
	DB	065H
	DB	066H
	DB	067H
	DB	068H
	DB	069H
	DB	06aH
	DB	06bH
	DB	06cH
	DB	06dH
	DB	06eH
	DB	06fH
	DB	070H
	DB	071H
	DB	072H
	DB	073H
	DB	074H
	DB	075H
	DB	076H
	DB	077H
	DB	078H
	DB	079H
	DB	07aH
	DB	07bH
	DB	07cH
	DB	07dH
	DB	07eH
	DB	07fH
	DB	00H
	DB	00H
	DB	00H
	DB	00H
	DB	00H
	DB	00H
	DB	00H
	DB	00H
	DB	00H
	DB	00H
	DB	00H
	DB	00H
	DB	00H
	DB	00H
	DB	00H
	DB	00H
	DB	00H
	DB	00H
	DB	00H
	DB	00H
	DB	00H
	DB	00H
	DB	00H
	DB	00H
	DB	00H
	DB	00H
	DB	00H
	DB	00H
	DB	00H
	DB	00H
	DB	00H
	DB	00H
	DB	00H
	DB	00H
	DB	00H
	DB	00H
	DB	00H
	DB	00H
	DB	00H
	DB	00H
	DB	00H
	DB	00H
	DB	00H
	DB	00H
	DB	00H
	DB	00H
	DB	00H
	DB	00H
	DB	00H
	DB	00H
	DB	00H
	DB	00H
	DB	00H
	DB	00H
	DB	00H
	DB	00H
	DB	00H
	DB	00H
	DB	00H
	DB	00H
	DB	00H
	DB	00H
	DB	00H
	DB	00H
	DB	00H
	DB	00H
	DB	00H
	DB	00H
	DB	00H
	DB	00H
	DB	00H
	DB	00H
	DB	00H
	DB	00H
	DB	00H
	DB	00H
	DB	00H
	DB	00H
	DB	00H
	DB	00H
	DB	00H
	DB	00H
	DB	00H
	DB	00H
	DB	00H
	DB	00H
	DB	00H
	DB	00H
	DB	00H
	DB	00H
	DB	00H
	DB	00H
	DB	00H
	DB	00H
	DB	00H
	DB	00H
	DB	00H
	DB	00H
	DB	00H
	DB	00H
	DB	00H
	DB	00H
	DB	00H
	DB	00H
	DB	00H
	DB	00H
	DB	00H
	DB	00H
	DB	00H
	DB	00H
	DB	00H
	DB	00H
	DB	00H
	DB	00H
	DB	00H
	DB	00H
	DB	00H
	DB	00H
	DB	00H
	DB	00H
	DB	00H
	DB	00H
	DB	00H
	DB	00H
	DB	00H
	DB	00H
	DB	00H
	DB	00H
CONST	ENDS
msvcjmc	SEGMENT
__188180DA_corecrt_math@h DB 01H
__2CC6E67D_corecrt_stdio_config@h DB 01H
__05476D76_corecrt_wstdio@h DB 01H
__A452D4A0_stdio@h DB 01H
__4384A2D9_corecrt_memcpy_s@h DB 01H
__4E51A221_corecrt_wstring@h DB 01H
__2140C079_string@h DB 01H
__7B7A869E_ctype@h DB 01H
__A40A425D_stat@h DB 01H
__B9AC27D5_parser@c DB 01H
msvcjmc	ENDS
;	COMDAT ??_C@_09OBPBGIJC@xml?9model@
CONST	SEGMENT
??_C@_09OBPBGIJC@xml?9model@ DB 'xml-model', 00H	; `string'
CONST	ENDS
;	COMDAT ??_C@_0P@HPOCOPDB@xml?9stylesheet@
CONST	SEGMENT
??_C@_0P@HPOCOPDB@xml?9stylesheet@ DB 'xml-stylesheet', 00H ; `string'
CONST	ENDS
_DATA	SEGMENT
_xmlParserMaxDepth DD 0100H
_DATA	ENDS
PUBLIC	___local_stdio_printf_options
PUBLIC	_snprintf
PUBLIC	_xmlInitParser
PUBLIC	_xmlCleanupParser
PUBLIC	_xmlParseDoc
PUBLIC	_xmlParseFile
PUBLIC	_xmlParseMemory
PUBLIC	_xmlStopParser
PUBLIC	_xmlRecoverDoc
PUBLIC	_xmlRecoverMemory
PUBLIC	_xmlRecoverFile
PUBLIC	_xmlParseDocument
PUBLIC	_xmlParseExtParsedEnt
PUBLIC	_xmlSAXUserParseFile
PUBLIC	_xmlSAXUserParseMemory
PUBLIC	_xmlSAXParseDoc
PUBLIC	_xmlSAXParseMemory
PUBLIC	_xmlSAXParseMemoryWithData
PUBLIC	_xmlSAXParseFile
PUBLIC	_xmlSAXParseFileWithData
PUBLIC	_xmlSAXParseEntity
PUBLIC	_xmlParseEntity
PUBLIC	_xmlSAXParseDTD
PUBLIC	_xmlParseDTD
PUBLIC	_xmlIOParseDTD
PUBLIC	_xmlParseBalancedChunkMemory
PUBLIC	_xmlParseInNodeContext
PUBLIC	_xmlParseBalancedChunkMemoryRecover
PUBLIC	_xmlParseExternalEntity
PUBLIC	_xmlParseCtxtExternalEntity
PUBLIC	_xmlSetupParserForBuffer
PUBLIC	_xmlCreateDocParserCtxt
PUBLIC	_xmlCreatePushParserCtxt
PUBLIC	_xmlParseChunk
PUBLIC	_xmlCreateIOParserCtxt
PUBLIC	_xmlCtxtReset
PUBLIC	_xmlCtxtResetPush
PUBLIC	_xmlCtxtUseOptions
PUBLIC	_xmlReadDoc
PUBLIC	_xmlReadFile
PUBLIC	_xmlReadMemory
PUBLIC	_xmlReadFd
PUBLIC	_xmlReadIO
PUBLIC	_xmlCtxtReadDoc
PUBLIC	_xmlCtxtReadFile
PUBLIC	_xmlCtxtReadMemory
PUBLIC	_xmlCtxtReadFd
PUBLIC	_xmlCtxtReadIO
PUBLIC	_xmlHasFeature
PUBLIC	_xmlCreateFileParserCtxt
PUBLIC	_xmlCreateURLParserCtxt
PUBLIC	_xmlCreateMemoryParserCtxt
PUBLIC	_xmlCreateEntityParserCtxt
PUBLIC	_xmlPushInput
PUBLIC	_xmlPopInput
PUBLIC	_xmlSplitQName
PUBLIC	_xmlParseName
PUBLIC	_xmlParseNmtoken
PUBLIC	_xmlParseEntityValue
PUBLIC	_xmlParseAttValue
PUBLIC	_xmlParseSystemLiteral
PUBLIC	_xmlParsePubidLiteral
PUBLIC	_xmlParseCharData
PUBLIC	_xmlParseExternalID
PUBLIC	_xmlParseComment
PUBLIC	_xmlParsePITarget
PUBLIC	_xmlParsePI
PUBLIC	_xmlParseNotationDecl
PUBLIC	_xmlParseEntityDecl
PUBLIC	_xmlParseDefaultDecl
PUBLIC	_xmlParseNotationType
PUBLIC	_xmlParseEnumerationType
PUBLIC	_xmlParseEnumeratedType
PUBLIC	_xmlParseAttributeType
PUBLIC	_xmlParseAttributeListDecl
PUBLIC	_xmlParseElementMixedContentDecl
PUBLIC	_xmlParseElementChildrenContentDecl
PUBLIC	_xmlParseElementContentDecl
PUBLIC	_xmlParseElementDecl
PUBLIC	_xmlParseMarkupDecl
PUBLIC	_xmlParseCharRef
PUBLIC	_xmlParseEntityRef
PUBLIC	_xmlParseReference
PUBLIC	_xmlParsePEReference
PUBLIC	_xmlParseDocTypeDecl
PUBLIC	_xmlParseAttribute
PUBLIC	_xmlParseStartTag
PUBLIC	_xmlParseEndTag
PUBLIC	_xmlParseCDSect
PUBLIC	_xmlParseContent
PUBLIC	_xmlParseElement
PUBLIC	_xmlParseVersionNum
PUBLIC	_xmlParseVersionInfo
PUBLIC	_xmlParseEncName
PUBLIC	_xmlParseEncodingDecl
PUBLIC	_xmlParseSDDecl
PUBLIC	_xmlParseXMLDecl
PUBLIC	_xmlParseTextDecl
PUBLIC	_xmlParseMisc
PUBLIC	_xmlParseExternalSubset
PUBLIC	_xmlStringDecodeEntities
PUBLIC	_xmlStringLenDecodeEntities
PUBLIC	_nodePush
PUBLIC	_nodePop
PUBLIC	_inputPush
PUBLIC	_inputPop
PUBLIC	_namePop
PUBLIC	_namePush
PUBLIC	_xmlSkipBlankChars
PUBLIC	_xmlParserHandlePEReference
PUBLIC	_xmlCheckLanguageID
PUBLIC	_xmlSetEntityReferenceFunc
PUBLIC	__JustMyCode_Default
PUBLIC	??_C@_0BI@LJKBJNKP@Attribute?5?$CFs?5redefined?6@ ; `string'
PUBLIC	??_C@_0BL@GJOEMOIC@Attribute?5?$CFs?3?$CFs?5redefined?6@ ; `string'
PUBLIC	??_C@_0CD@IIBKOMHK@CharRef?3?5invalid?5hexadecimal?5va@ ; `string'
PUBLIC	??_C@_0BP@DEJKBBIB@CharRef?3?5invalid?5decimal?5value@ ; `string'
PUBLIC	??_C@_0BH@OCLALBPG@CharRef?3?5invalid?5value@	; `string'
PUBLIC	??_C@_0P@LPIEGNHB@internal?5error@		; `string'
PUBLIC	??_C@_0BP@MALDLPDI@PEReference?5at?5end?5of?5document@ ; `string'
PUBLIC	??_C@_0BG@GLMIGPKG@PEReference?5in?5prolog@	; `string'
PUBLIC	??_C@_0BG@JMKGIIGE@PEReference?5in?5epilog@	; `string'
PUBLIC	??_C@_0BF@DCHKIALM@PEReference?3?5no?5name@	; `string'
PUBLIC	??_C@_0BL@PFALGNCI@PEReference?3?5expecting?5?8?$DL?8@ ; `string'
PUBLIC	??_C@_0CC@LFHGNGFD@Detected?5an?5entity?5reference?5lo@ ; `string'
PUBLIC	??_C@_0BN@DPACNJHE@EntityValue?3?5?$CC?5or?5?8?5expected@ ; `string'
PUBLIC	??_C@_0CK@GAJOCPOL@PEReferences?5forbidden?5in?5inter@ ; `string'
PUBLIC	??_C@_0BK@ELBMECGA@AttValue?3?5?$CC?5or?5?8?5expected@ ; `string'
PUBLIC	??_C@_0CP@FNIFNHDI@Unescaped?5?8?$DM?8?5not?5allowed?5in?5at@ ; `string'
PUBLIC	??_C@_0BO@NINNHDOL@SystemLiteral?5?$CC?5or?5?8?5expected@ ; `string'
PUBLIC	??_C@_0CP@PIPOCKJD@Unfinished?5System?5or?5Public?5ID?5@ ; `string'
PUBLIC	??_C@_0CG@PLPMIKHI@Sequence?5?8?$FN?$FN?$DO?8?5not?5allowed?5in?5c@ ; `string'
PUBLIC	??_C@_0CF@GDPMMHJJ@SYSTEM?5or?5PUBLIC?0?5the?5URI?5is?5mi@ ; `string'
PUBLIC	??_C@_0CJ@ICNPKBIN@PUBLIC?0?5the?5Public?5Identifier?5i@ ; `string'
PUBLIC	??_C@_0CO@IKEFGBAE@Comment?5must?5not?5contain?5?8?9?9?8?5?$CI@ ; `string'
PUBLIC	??_C@_0BM@HPBPCNCM@xmlParsePI?5?3?5no?5target?5name@ ; `string'
PUBLIC	??_C@_0BA@KMPMBNCM@Invalid?5PI?5name@		; `string'
PUBLIC	??_C@_0BN@HECCFNBP@NOTATION?3?5Name?5expected?5here@ ; `string'
PUBLIC	??_C@_0CL@MHMGOJAD@?8?$DO?8?5required?5to?5close?5NOTATION?5@ ; `string'
PUBLIC	??_C@_0BG@LMNHCPFE@Entity?5value?5required@	; `string'
PUBLIC	??_C@_0BF@DMGJOFPK@Fragment?5not?5allowed@	; `string'
PUBLIC	??_C@_0CK@NNFMCGNH@?8?$CI?8?5required?5to?5start?5ATTLIST?5e@ ; `string'
PUBLIC	??_C@_0CI@EHCBGKID@NmToken?5expected?5in?5ATTLIST?5enu@ ; `string'
PUBLIC	??_C@_0CL@KPIIIINI@?8?$CJ?8?5required?5to?5finish?5ATTLIST?5@ ; `string'
PUBLIC	??_C@_0CI@LOAMKAA@MixedContentDecl?5?3?5?8?$HM?8?5or?5?8?$CJ?$CK?8?5@ ; `string'
PUBLIC	??_C@_0CG@HEHENOGB@MixedContentDecl?5?3?5?8?$CDPCDATA?8?5ex@ ; `string'
PUBLIC	??_C@_0CD@NHADBOBB@ContentDecl?5?3?5Name?5or?5?8?$CI?8?5expec@ ; `string'
PUBLIC	??_C@_0CG@EHNJPHMB@ContentDecl?5?3?5?8?0?8?5?8?$HM?8?5or?5?8?$CJ?8?5ex@ ; `string'
PUBLIC	??_C@_0DN@CEDHFOGD@PEReference?3?5forbidden?5within?5m@ ; `string'
PUBLIC	??_C@_0N@HPGHEIE@expected?5?8?$DO?8@		; `string'
PUBLIC	??_C@_0CF@GGBMHDE@XML?5conditional?5section?5?8?$FL?8?5exp@ ; `string'
PUBLIC	??_C@_0CF@HHCGNGIK@Content?5error?5in?5the?5external?5s@ ; `string'
PUBLIC	??_C@_0DH@JDEKAAA@conditional?5section?5INCLUDE?5or?5@ ; `string'
PUBLIC	??_C@_0CD@OHPJFFIN@XML?5conditional?5section?5not?5clo@ ; `string'
PUBLIC	??_C@_0CC@HHECNJCA@Text?5declaration?5?8?$DM?$DPxml?8?5requir@ ; `string'
PUBLIC	??_C@_0CH@DOCCAFM@parsing?5XML?5declaration?3?5?8?$DP?$DO?8?5e@ ; `string'
PUBLIC	??_C@_0CO@LJALGGHL@external?5parsed?5entities?5cannot@ ; `string'
PUBLIC	??_C@_0BJ@KLEMOBLL@EntityRef?3?5expecting?5?8?$DL?8@ ; `string'
PUBLIC	??_C@_0BO@NIFLODD@DOCTYPE?5improperly?5terminated@ ; `string'
PUBLIC	??_C@_0BH@ELMJBAIC@EndTag?3?5?8?$DM?1?8?5not?5found@ ; `string'
PUBLIC	??_C@_0N@FLAMKNN@expected?5?8?$DN?8@		; `string'
PUBLIC	??_C@_0CD@GLDIEMIA@String?5not?5closed?5expecting?5?$CC?5o@ ; `string'
PUBLIC	??_C@_0CE@EGHHEGNE@String?5not?5started?5expecting?5?8?5@ ; `string'
PUBLIC	??_C@_0BK@CMOJKGNC@Invalid?5XML?5encoding?5name@ ; `string'
PUBLIC	??_C@_0CG@MBLHCBEE@standalone?5accepts?5only?5?8yes?8?5o@ ; `string'
PUBLIC	??_C@_0BC@LDMJLCHP@Document?5is?5empty@		; `string'
PUBLIC	??_C@_0CJ@JKANOFNI@Extra?5content?5at?5the?5end?5of?5the@ ; `string'
PUBLIC	??_C@_0BL@EKLHFGHK@chunk?5is?5not?5well?5balanced@ ; `string'
PUBLIC	??_C@_0DA@BPKCCNLP@extra?5content?5at?5the?5end?5of?5wel@ ; `string'
PUBLIC	??_C@_0CI@FHFOLBEM@Malformed?5declaration?5expecting@ ; `string'
PUBLIC	??_C@_0CI@CJGDNBNK@Name?5too?5long?5use?5XML_PARSE_HUG@ ; `string'
PUBLIC	??_C@_0BL@COECCIID@Unregistered?5error?5message@ ; `string'
PUBLIC	??_C@_03OFAPEBGM@?$CFs?6@			; `string'
PUBLIC	??_C@_07KJFPOMFC@?$CFs?3?5?$CFs?6@		; `string'
PUBLIC	??_C@_02DKCKIIND@?$CFs@				; `string'
PUBLIC	??_C@_03PJHHNEEI@xml@				; `string'
PUBLIC	??_C@_05PPEFOGKI@xmlns@				; `string'
PUBLIC	??_C@_0CF@GLDAAHFK@http?3?1?1www?4w3?4org?1XML?11998?1name@ ; `string'
PUBLIC	??_C@_08OIBPHJGN@external@			; `string'
PUBLIC	??_C@_0BD@KIFBOAFI@Pbm?5popping?5?$CFd?5NS?6@	; `string'
PUBLIC	??_C@_0DL@HADOBDDE@Excessive?5depth?5in?5document?3?5?$CFd@ ; `string'
PUBLIC	??_C@_0BC@BAMNGBKO@Huge?5input?5lookup@		; `string'
PUBLIC	??_C@_0BH@JOKBAJC@cur?5index?5out?5of?5bound@	; `string'
PUBLIC	??_C@_0BC@LEKDBCEK@Popping?5input?5?$CFd?6@	; `string'
PUBLIC	??_C@_0CC@JODEMIEP@Unfinished?5entity?5outside?5the?5D@ ; `string'
PUBLIC	??_C@_08FFIMCMGN@?$CFs?$CI?$CFd?$CJ?3?5@	; `string'
PUBLIC	??_C@_0BK@IPLLKNJK@Pushing?5input?5?$CFd?5?3?5?$CF?430s?6@ ; `string'
PUBLIC	??_C@_0CL@KEGPHPPF@xmlParseCharRef?3?5invalid?5xmlCha@ ; `string'
PUBLIC	??_C@_0DB@EJFBNJEE@xmlParseStringCharRef?3?5invalid?5@ ; `string'
PUBLIC	??_C@_0CJ@JICBMJMM@String?5decoding?5Entity?5Referenc@ ; `string'
PUBLIC	??_C@_0CC@KGDPFIJL@predefined?5entity?5has?5no?5conten@ ; `string'
PUBLIC	??_C@_0CF@DIAKJGNK@String?5decoding?5PE?5Reference?3?5?$CF@ ; `string'
PUBLIC	??_C@_0DH@IENLJLFO@not?5validating?5will?5not?5read?5co@ ; `string'
PUBLIC	??_C@_00CNPNBAHC@@				; `string'
PUBLIC	??_C@_0CI@GHNHPHHB@Name?5?$CFs?5is?5not?5XML?5Namespace?5co@ ; `string'
PUBLIC	??_C@_04FABLJDN@Name@				; `string'
PUBLIC	??_C@_0CC@JIBKNHBD@unexpected?5change?5of?5input?5buff@ ; `string'
PUBLIC	??_C@_06MDLHOHLI@NCName@			; `string'
PUBLIC	??_C@_07JJJDEIPB@NmToken@			; `string'
PUBLIC	??_C@_0DM@GJGLHMKL@EntityValue?3?5?8?$CFc?8?5forbidden?5exc@ ; `string'
PUBLIC	??_C@_0BK@JCFIEKOP@AttValue?5length?5too?5long?6@ ; `string'
PUBLIC	??_C@_0CG@LEIKKIHB@invalid?5character?5in?5attribute?5@ ; `string'
PUBLIC	??_C@_0BG@NKOFEMFC@AttValue?3?5?8?5expected?6@	; `string'
PUBLIC	??_C@_0O@CPJEEBHF@SystemLiteral@		; `string'
PUBLIC	??_C@_09HLIINGHD@Public?5ID@			; `string'
PUBLIC	??_C@_0BO@IODKMKKF@PCDATA?5invalid?5Char?5value?5?$CFd?6@ ; `string'
PUBLIC	??_C@_0BP@CCMMHADN@Space?5required?5after?5?8SYSTEM?8?6@ ; `string'
PUBLIC	??_C@_0BP@EHONNEAJ@Space?5required?5after?5?8PUBLIC?8?6@ ; `string'
PUBLIC	??_C@_0CM@PJLPICDD@Space?5required?5after?5the?5Public@ ; `string'
PUBLIC	??_C@_0CL@FHECENFI@xmlParseComment?3?5invalid?5xmlCha@ ; `string'
PUBLIC	??_C@_0BG@BAOBDEOI@Comment?5too?5big?5found@	; `string'
PUBLIC	??_C@_0CD@MHPLKFMN@Comment?5not?5terminated?5?6?$DM?$CB?9?9?$CF?45@ ; `string'
PUBLIC	??_C@_0DD@BIJIOHJJ@Comment?5doesn?8t?5start?5and?5stop?5@ ; `string'
PUBLIC	??_C@_0BI@ELKFFAAB@Comment?5not?5terminated?6@	; `string'
PUBLIC	??_C@_0DD@DDHAOEGP@comment?5doesn?8t?5start?5and?5stop?5@ ; `string'
PUBLIC	??_C@_0CJ@CBOBCJAG@Double?5hyphen?5within?5comment?3?5?$DM@ ; `string'
PUBLIC	??_C@_0BO@PENANJHM@Double?5hyphen?5within?5comment?6@ ; `string'
PUBLIC	??_C@_0DL@PMHMGOPA@XML?5declaration?5allowed?5only?5at@ ; `string'
PUBLIC	??_C@_0CN@KJOCGNCM@xmlParsePITarget?3?5invalid?5name?5@ ; `string'
PUBLIC	??_C@_0CJ@KOKAGEDL@colons?5are?5forbidden?5from?5PI?5na@ ; `string'
PUBLIC	??_C@_07MFFOOIHD@catalog@			; `string'
PUBLIC	??_C@_0BN@MALFACIE@Catalog?5PI?5syntax?5error?3?5?$CFs?6@ ; `string'
PUBLIC	??_C@_0DK@LAKAFNGA@PI?5declaration?5doesn?8t?5start?5an@ ; `string'
PUBLIC	??_C@_0BP@KBNJPEOK@ParsePI?3?5PI?5?$CFs?5space?5expected?6@ ; `string'
PUBLIC	??_C@_0BE@KDNCGJGM@PI?5?$CFs?5too?5big?5found@	; `string'
PUBLIC	??_C@_0BO@OGPJFKEP@ParsePI?3?5PI?5?$CFs?5never?5end?5?4?4?4?6@ ; `string'
PUBLIC	??_C@_0BC@IDENENGP@oasis?9xml?9catalog@		; `string'
PUBLIC	??_C@_0CD@ILKLDDEI@Space?5required?5after?5?8?$DM?$CBNOTATIO@ ; `string'
PUBLIC	??_C@_0CP@BOHPCDLP@colons?5are?5forbidden?5from?5notat@ ; `string'
PUBLIC	??_C@_0CJ@PMDGLIHG@Space?5required?5after?5the?5NOTATI@ ; `string'
PUBLIC	??_C@_0EA@DCHCOJDP@Notation?5declaration?5doesn?8t?5st@ ; `string'
PUBLIC	??_C@_0CB@NEOBPNBE@Space?5required?5after?5?8?$DM?$CBENTITY?8@ ; `string'
PUBLIC	??_C@_0BL@KGADBCMF@Space?5required?5after?5?8?$CF?$CF?8?6@ ; `string'
PUBLIC	??_C@_0BN@GJOFDJCB@xmlParseEntityDecl?3?5no?5name?6@ ; `string'
PUBLIC	??_C@_0CP@IEOCAMEB@colons?5are?5forbidden?5from?5entit@ ; `string'
PUBLIC	??_C@_0CG@IGJCKADK@Space?5required?5after?5the?5entity@ ; `string'
PUBLIC	??_C@_0BB@JHEINHI@Invalid?5URI?3?5?$CFs?6@	; `string'
PUBLIC	??_C@_0CA@CHJJOFGL@SAX?5compatibility?5mode?5document@ ; `string'
PUBLIC	??_C@_0P@IDBIGKBI@New?5Doc?5failed@		; `string'
PUBLIC	??_C@_04PADNKBEK@fake@				; `string'
PUBLIC	??_C@_0BP@NPDMAEIM@Space?5required?5before?5?8NDATA?8?6@ ; `string'
PUBLIC	??_C@_0BO@GLBCJEIC@Space?5required?5after?5?8NDATA?8?6@ ; `string'
PUBLIC	??_C@_0CO@GFOAPJBJ@xmlParseEntityDecl?3?5entity?5?$CFs?5n@ ; `string'
PUBLIC	??_C@_0DO@BLCODNOK@Entity?5declaration?5doesn?8t?5star@ ; `string'
PUBLIC	??_C@_0BP@LOJANMBO@Space?5required?5after?5?8?$CDFIXED?8?6@ ; `string'
PUBLIC	??_C@_0CL@MHGJEBGE@Attribute?5default?5value?5declara@ ; `string'
PUBLIC	??_C@_0CH@MHDABFNP@Name?5expected?5in?5NOTATION?5decla@ ; `string'
PUBLIC	??_C@_0DK@HOPAGHFB@standalone?3?5attribute?5notation?5@ ; `string'
PUBLIC	??_C@_0DN@GKJDABEM@standalone?3?5attribute?5enumerati@ ; `string'
PUBLIC	??_C@_0CB@FOEKPMO@Space?5required?5after?5?8NOTATION?8@ ; `string'
PUBLIC	??_C@_0CC@DODLEJBN@Space?5required?5after?5?8?$DM?$CBATTLIST@ ; `string'
PUBLIC	??_C@_0BO@PIKFFONH@ATTLIST?3?5no?5name?5for?5Element?6@ ; `string'
PUBLIC	??_C@_0CA@GKDLKFPE@ATTLIST?3?5no?5name?5for?5Attribute?6@ ; `string'
PUBLIC	??_C@_0CJ@BMNHNBNL@Space?5required?5after?5the?5attrib@ ; `string'
PUBLIC	??_C@_0CJ@EMHJKDCH@Space?5required?5after?5the?5attrib@ ; `string'
PUBLIC	??_C@_0DC@NGABIAJF@Space?5required?5after?5the?5attrib@ ; `string'
PUBLIC	??_C@_0EG@JGLJABBC@Attribute?5list?5declaration?5does@ ; `string'
PUBLIC	??_C@_0EH@KGLJHJPD@Element?5content?5declaration?5doe@ ; `string'
PUBLIC	??_C@_0DB@BEFMOJIK@xmlParseElementMixedContentDecl@ ; `string'
PUBLIC	??_C@_0EM@OINCFINP@xmlParseElementChildrenContentD@ ; `string'
PUBLIC	??_C@_0DE@IJONAOBP@xmlParseElementChildrenContentD@ ; `string'
PUBLIC	??_C@_0CO@FLMKOMHK@xmlParseElementContentDecl?5?3?5?$CFs@ ; `string'
PUBLIC	??_C@_0CA@CIGPNPNK@Space?5required?5after?5?8ELEMENT?8?6@ ; `string'
PUBLIC	??_C@_0CK@LMDMNJGO@xmlParseElementDecl?3?5no?5name?5fo@ ; `string'
PUBLIC	??_C@_0CH@MFBAJJC@Space?5required?5after?5the?5elemen@ ; `string'
PUBLIC	??_C@_0DO@COHAOPDG@PEReference?3?5forbidden?5within?5m@ ; `string'
PUBLIC	??_C@_0DF@CHNHOLDO@xmlParseElementDecl?3?5?8EMPTY?8?0?5?8@ ; `string'
PUBLIC	??_C@_0DP@KIKIPMFE@Element?5declaration?5doesn?8t?5sta@ ; `string'
PUBLIC	??_C@_0EB@LPINKGGA@All?5markup?5of?5the?5conditional?5s@ ; `string'
PUBLIC	??_C@_0CG@FMCBAD@Entering?5INCLUDE?5Conditional?5Se@ ; `string'
PUBLIC	??_C@_0CF@KBFPDCLM@Leaving?5INCLUDE?5Conditional?5Sec@ ; `string'
PUBLIC	??_C@_0CF@BNLECKJM@Entering?5IGNORE?5Conditional?5Sec@ ; `string'
PUBLIC	??_C@_0CE@MPDEOLDN@Leaving?5IGNORE?5Conditional?5Sect@ ; `string'
PUBLIC	??_C@_0BM@OIPNJGND@Space?5needed?5after?5?8?$DM?$DPxml?8?6@ ; `string'
PUBLIC	??_C@_03HLLJOCDO@1?40@				; `string'
PUBLIC	??_C@_0BD@LJKHCJDH@Space?5needed?5here?6@	; `string'
PUBLIC	??_C@_0CG@OFFEFIEL@Missing?5encoding?5in?5text?5declar@ ; `string'
PUBLIC	??_C@_04FNNDIGBC@?$CDx?$CFX@			; `string'
PUBLIC	??_C@_03FDCLAKJL@?$CD?$CFd@			; `string'
PUBLIC	??_C@_0BL@EBFCDHBG@invalid?5entity?5type?5found?6@ ; `string'
PUBLIC	??_C@_0BN@EOPGEOPH@Entity?5?8?$CFs?8?5failed?5to?5parse?6@ ; `string'
PUBLIC	??_C@_07DALNPEGO@nbktext@			; `string'
PUBLIC	??_C@_0BM@NMGBIIDP@xmlParseEntityRef?3?5no?5name?6@ ; `string'
PUBLIC	??_C@_0BJ@KIKIJMLK@Entity?5?8?$CFs?8?5not?5defined?6@ ; `string'
PUBLIC	??_C@_0CI@ILCMJJAO@Entity?5reference?5to?5unparsed?5en@ ; `string'
PUBLIC	??_C@_0CL@HLODLGOA@Attribute?5references?5external?5e@ ; `string'
PUBLIC	??_C@_0DI@FDECCCAO@?8?$DM?8?5in?5entity?5?8?$CFs?8?5is?5not?5allow@ ; `string'
PUBLIC	??_C@_0DA@CCPGIFBP@Attempt?5to?5reference?5the?5parame@ ; `string'
PUBLIC	??_C@_0CC@PKJKLMCM@xmlParseStringEntityRef?3?5no?5nam@ ; `string'
PUBLIC	??_C@_0BG@DIAKGNKN@PEReference?3?5no?5name?6@	; `string'
PUBLIC	??_C@_0BB@MFPJKDDB@PEReference?3?5?$CFs?6@	; `string'
PUBLIC	??_C@_0BO@KINMDPMC@PEReference?3?5?$CF?$CF?$CFs?$DL?5not?5found?6@ ; `string'
PUBLIC	??_C@_0CL@BLGDJGPF@Internal?3?5?$CF?$CF?$CFs?$DL?5is?5not?5a?5parame@ ; `string'
PUBLIC	??_C@_0CF@PMEPEHIL@xmlLoadEntityContent?5parameter?5@ ; `string'
PUBLIC	??_C@_0CB@NCAMLBBH@Reading?5?$CFs?5entity?5content?5input@ ; `string'
PUBLIC	??_C@_0CB@HEAOEFBK@xmlLoadEntityContent?5input?5erro@ ; `string'
PUBLIC	??_C@_0CN@NHLEKBNA@xmlLoadEntityContent?3?5invalid?5c@ ; `string'
PUBLIC	??_C@_0CE@PLGLFALL@xmlParseStringPEReference?3?5no?5n@ ; `string'
PUBLIC	??_C@_0CB@HMFAEMHO@?$CF?$CF?$CFs?$DL?5is?5not?5a?5parameter?5entity@ ; `string'
PUBLIC	??_C@_0CJ@JPAMJNGL@xmlParseDocTypeDecl?5?3?5no?5DOCTYP@ ; `string'
PUBLIC	??_C@_0DO@IJLBCNCA@xmlParseInternalSubset?3?5error?5d@ ; `string'
PUBLIC	??_C@_0BO@BHLKDNI@error?5parsing?5attribute?5name?6@ ; `string'
PUBLIC	??_C@_0CP@LHHGCLP@Specification?5mandates?5value?5fo@ ; `string'
PUBLIC	??_C@_08EHDJCMMM@xml?3lang@			; `string'
PUBLIC	??_C@_0CD@OAOAJGL@Malformed?5value?5for?5xml?3lang?5?3?5@ ; `string'
PUBLIC	??_C@_09HKHFJOKD@xml?3space@			; `string'
PUBLIC	??_C@_07DLHCIBDH@default@			; `string'
PUBLIC	??_C@_08ILAKLJGO@preserve@			; `string'
PUBLIC	??_C@_0EF@GNALPKCP@Invalid?5value?5?$CC?$CFs?$CC?5for?5xml?3spac@ ; `string'
PUBLIC	??_C@_0CI@FEOPKDBB@xmlParseStartTag?3?5invalid?5eleme@ ; `string'
PUBLIC	??_C@_0BM@FKPAGOOK@attributes?5construct?5error?6@ ; `string'
PUBLIC	??_C@_0CO@KAECIKGE@xmlParseStartTag?3?5problem?5parsi@ ; `string'
PUBLIC	??_C@_0CA@PJGJPBIH@xmlParseEndTag?3?5?8?$DM?1?8?5not?5found?6@ ; `string'
PUBLIC	??_C@_0M@IAMGGMFE@unparseable@			; `string'
PUBLIC	??_C@_0DE@OCMDIBAP@Opening?5and?5ending?5tag?5mismatch@ ; `string'
PUBLIC	??_C@_0BM@DBJGDKCH@Failed?5to?5parse?5QName?5?8?$CFs?8?6@ ; `string'
PUBLIC	??_C@_0BN@MNDCJBCK@Failed?5to?5parse?5QName?5?8?$CFs?3?8?6@ ; `string'
PUBLIC	??_C@_0CA@HECGKKLP@Failed?5to?5parse?5QName?5?8?$CFs?3?$CFs?3?8?6@ ; `string'
PUBLIC	??_C@_04IOHABJIC@lang@				; `string'
PUBLIC	??_C@_05OLNILLAB@space@				; `string'
PUBLIC	??_C@_0CA@LKOHNLNN@StartTag?3?5invalid?5element?5name?6@ ; `string'
PUBLIC	??_C@_0BO@NHFMDAKF@dictionary?5allocation?5failure@ ; `string'
PUBLIC	??_C@_0CA@IPMJMNFH@xmlns?3?5?8?$CFs?8?5is?5not?5a?5valid?5URI?6@ ; `string'
PUBLIC	??_C@_0BP@JFBGAFGI@xmlns?3?5URI?5?$CFs?5is?5not?5absolute?6@ ; `string'
PUBLIC	??_C@_0DD@IPHAILAA@xml?5namespace?5URI?5cannot?5be?5the@ ; `string'
PUBLIC	??_C@_0BO@GBJIDPIB@http?3?1?1www?4w3?4org?12000?1xmlns?1@ ; `string'
PUBLIC	??_C@_0DA@DPCHHACL@reuse?5of?5the?5xmlns?5namespace?5na@ ; `string'
PUBLIC	??_C@_0CK@HOGKMNCM@xml?5namespace?5prefix?5mapped?5to?5@ ; `string'
PUBLIC	??_C@_0CK@HFNNIPGF@xml?5namespace?5URI?5mapped?5to?5wro@ ; `string'
PUBLIC	??_C@_0CP@FCHEBDCM@redefinition?5of?5the?5xmlns?5prefi@ ; `string'
PUBLIC	??_C@_0CO@JLGJJKB@xmlns?3?$CFs?3?5Empty?5XML?5namespace?5i@ ; `string'
PUBLIC	??_C@_0CD@IMLPGLBN@xmlns?3?$CFs?3?5?8?$CFs?8?5is?5not?5a?5valid?5U@ ; `string'
PUBLIC	??_C@_0CC@FFFCEDOK@xmlns?3?$CFs?3?5URI?5?$CFs?5is?5not?5absolut@ ; `string'
PUBLIC	??_C@_0BM@HDEBIHCG@Unexpected?5change?5of?5input?6@ ; `string'
PUBLIC	??_C@_0DP@KFNFGALP@standalone?3?5attribute?5?$CFs?5on?5?$CFs?5@ ; `string'
PUBLIC	??_C@_0DB@GMKAHOEK@Namespace?5prefix?5?$CFs?5for?5?$CFs?5on?5?$CF@ ; `string'
PUBLIC	??_C@_0CL@BDHHCEFP@Namespaced?5Attribute?5?$CFs?5in?5?8?$CFs?8@ ; `string'
PUBLIC	??_C@_0CK@EJLCFGPG@Namespace?5prefix?5?$CFs?5on?5?$CFs?5is?5no@ ; `string'
PUBLIC	??_C@_0BM@HGOGNNNB@CData?5section?5too?5big?5found@ ; `string'
PUBLIC	??_C@_0CC@HAEHMHLE@CData?5section?5not?5finished?6?$CF?450@ ; `string'
PUBLIC	??_C@_0CG@FCFCBOFE@detected?5an?5error?5in?5element?5co@ ; `string'
PUBLIC	??_C@_0CL@LKDFGLKB@Couldn?8t?5find?5end?5of?5Start?5Tag?5@ ; `string'
PUBLIC	??_C@_0CJ@JPBGMEM@Premature?5end?5of?5data?5in?5tag?5?$CFs@ ; `string'
PUBLIC	??_C@_06KNDPGIKI@UTF?916@			; `string'
PUBLIC	??_C@_05MNCHLHCA@UTF16@				; `string'
PUBLIC	??_C@_0DA@MEEPFAA@Document?5labelled?5UTF?916?5but?5ha@ ; `string'
PUBLIC	??_C@_05EGJIMALK@UTF?98@			; `string'
PUBLIC	??_C@_04OOMJJNCF@UTF8@				; `string'
PUBLIC	??_C@_0BJ@FCHADMKI@Unsupported?5encoding?5?$CFs?6@ ; `string'
PUBLIC	??_C@_0BM@BPKNILCI@Blank?5needed?5after?5?8?$DM?$DPxml?8?6@ ; `string'
PUBLIC	??_C@_0BK@MGCDLOCB@Unsupported?5version?5?8?$CFs?8?6@ ; `string'
PUBLIC	??_C@_0BD@KLGEONFL@Blank?5needed?5here?6@	; `string'
PUBLIC	??_C@_0CD@NCHPNICC@Start?5tag?5expected?0?5?8?$DM?8?5not?5fou@ ; `string'
PUBLIC	??_C@_0CC@HDEJLGKL@Internal?5error?3?5xmlParseGetLast@ ; `string'
PUBLIC	??_C@_0CD@HIMAKCPA@Couldn?8t?5find?5end?5of?5Start?5Tag?5@ ; `string'
PUBLIC	??_C@_09BLLNCBLF@?$DM?$CB?$FLCDATA?$FL@		; `string'
PUBLIC	??_C@_0CG@PHGFCMFA@PP?3?5internal?5error?0?5state?5?$DN?$DN?5CO@ ; `string'
PUBLIC	??_C@_0CE@CFNIBLKF@PP?3?5internal?5error?0?5state?5?$DN?$DN?5IG@ ; `string'
PUBLIC	??_C@_0CB@LNKCECMO@PP?3?5internal?5error?0?5state?5?$DN?$DN?5PI@ ; `string'
PUBLIC	??_C@_0CK@EGFEGMNP@PP?3?5internal?5error?0?5state?5?$DN?$DN?5EN@ ; `string'
PUBLIC	??_C@_0CL@FDJCPJGL@PP?3?5internal?5error?0?5state?5?$DN?$DN?5EN@ ; `string'
PUBLIC	??_C@_0CO@BNGPOFIK@PP?3?5internal?5error?0?5state?5?$DN?$DN?5AT@ ; `string'
PUBLIC	??_C@_0CN@JHJPBNDP@PP?3?5internal?5error?0?5state?5?$DN?$DN?5SY@ ; `string'
PUBLIC	??_C@_0CN@LJGHMOAD@PP?3?5internal?5error?0?5state?5?$DN?$DN?5PU@ ; `string'
PUBLIC	??_C@_0CE@KHMCMEAC@Bytes?3?50x?$CF02X?50x?$CF02X?50x?$CF02X?50x?$CF@ ; `string'
PUBLIC	??_C@_0DC@POFOFIG@Input?5is?5not?5proper?5UTF?98?0?5indi@ ; `string'
PUBLIC	??_C@_05FPCKGDIJ@UCS?94@			; `string'
PUBLIC	??_C@_04JFFPNMJE@UCS4@				; `string'
PUBLIC	??_C@_0BO@IBAMLEHI@xmlParseChunk?3?5encoder?5error?6@ ; `string'
PUBLIC	??_C@_01LIIJDEN@?$AN@				; `string'
PUBLIC	??_C@_0CA@CCOLJACP@creating?5parser?3?5out?5of?5memory?6@ ; `string'
PUBLIC	??_C@_04CGFJFPFD@none@				; `string'
PUBLIC	??_C@_0L@OLLEMIAI@pseudoroot@			; `string'
PUBLIC	??_C@_0CO@FDJENMMD@Version?5mismatch?5between?5docume@ ; `string'
PUBLIC	??_C@_0BP@IGCIIMIK@cannot?5allocate?5parser?5context@ ; `string'
PUBLIC	??_C@_0CD@FOJADJIB@parsing?5new?5buffer?3?5out?5of?5memo@ ; `string'
EXTRN	_xmlStrdup:PROC
EXTRN	_xmlStrndup:PROC
EXTRN	_xmlCharStrdup:PROC
EXTRN	_xmlStrchr:PROC
EXTRN	_xmlStrcasestr:PROC
EXTRN	_xmlStrncmp:PROC
EXTRN	_xmlStrcasecmp:PROC
EXTRN	_xmlStrEqual:PROC
EXTRN	_xmlStrlen:PROC
EXTRN	__imp____stdio_common_vsprintf:PROC
EXTRN	___htmlParseContent:PROC
EXTRN	___xmlGlobalInitMutexLock:PROC
EXTRN	___xmlGlobalInitMutexUnlock:PROC
EXTRN	_xmlInputReadCallbackNop:PROC
EXTRN	__imp__strncmp:PROC
EXTRN	_xmlInitMemory:PROC
EXTRN	_xmlCleanupMemory:PROC
EXTRN	_xmlBufContent:PROC
EXTRN	_xmlBufUse:PROC
EXTRN	_xmlInitializeDict:PROC
EXTRN	_xmlDictSetLimit:PROC
EXTRN	_xmlDictReference:PROC
EXTRN	_xmlDictFree:PROC
EXTRN	_xmlDictLookup:PROC
EXTRN	_xmlDictOwns:PROC
EXTRN	_xmlDictCleanup:PROC
EXTRN	_xmlBuildQName:PROC
EXTRN	_xmlSplitQName3:PROC
EXTRN	_xmlBufferCreate:PROC
EXTRN	_xmlBufferFree:PROC
EXTRN	_xmlBufferAdd:PROC
EXTRN	_xmlCreateIntSubset:PROC
EXTRN	_xmlNewDtd:PROC
EXTRN	_xmlNewDoc:PROC
EXTRN	_xmlFreeDoc:PROC
EXTRN	_xmlNewDocNode:PROC
EXTRN	_xmlNewComment:PROC
EXTRN	_xmlDocCopyNode:PROC
EXTRN	_xmlGetLastChild:PROC
EXTRN	_xmlNodeIsText:PROC
EXTRN	_xmlAddChild:PROC
EXTRN	_xmlAddChildList:PROC
EXTRN	_xmlUnlinkNode:PROC
EXTRN	_xmlFreeNodeList:PROC
EXTRN	_xmlFreeNode:PROC
EXTRN	_xmlSetTreeDoc:PROC
EXTRN	_xmlSearchNsByHref:PROC
EXTRN	_xmlHashCreateDict:PROC
EXTRN	_xmlHashFree:PROC
EXTRN	_xmlHashDefaultDeallocator:PROC
EXTRN	_xmlHashAddEntry2:PROC
EXTRN	_xmlHashUpdateEntry2:PROC
EXTRN	_xmlHashRemoveEntry2:PROC
EXTRN	_xmlHashLookup2:PROC
EXTRN	_xmlHashQLookup2:PROC
EXTRN	_xmlHashSize:PROC
EXTRN	_xmlHashScanFull:PROC
EXTRN	_initGenericErrorDefaultFunc:PROC
EXTRN	_xmlResetLastError:PROC
EXTRN	_xmlResetError:PROC
EXTRN	_xmlCopyError:PROC
EXTRN	___xmlRaiseError:PROC
EXTRN	_xmlNewDocElementContent:PROC
EXTRN	_xmlFreeDocElementContent:PROC
EXTRN	_xmlCreateEnumeration:PROC
EXTRN	_xmlFreeEnumeration:PROC
EXTRN	_xmlValidateRoot:PROC
EXTRN	_xmlValidateElement:PROC
EXTRN	_xmlIsMixedElement:PROC
EXTRN	_xmlGetPredefinedEntity:PROC
EXTRN	_xmlInitCharEncodingHandlers:PROC
EXTRN	_xmlCleanupCharEncodingHandlers:PROC
EXTRN	_xmlFindCharEncodingHandler:PROC
EXTRN	_xmlDetectCharEncoding:PROC
EXTRN	_xmlCleanupInputCallbacks:PROC
EXTRN	_xmlRegisterDefaultInputCallbacks:PROC
EXTRN	_xmlAllocParserInputBuffer:PROC
EXTRN	_xmlParserInputBufferCreateFd:PROC
EXTRN	_xmlParserInputBufferCreateMem:PROC
EXTRN	_xmlParserInputBufferCreateIO:PROC
EXTRN	_xmlParserInputBufferPush:PROC
EXTRN	_xmlFreeParserInputBuffer:PROC
EXTRN	_xmlParserGetDirectory:PROC
EXTRN	_xmlCleanupOutputCallbacks:PROC
EXTRN	_xmlRegisterDefaultOutputCallbacks:PROC
EXTRN	_xmlParserInputGrow:PROC
EXTRN	_xmlNewParserCtxt:PROC
EXTRN	_xmlClearParserCtxt:PROC
EXTRN	_xmlFreeParserCtxt:PROC
EXTRN	_xmlNewIOInputStream:PROC
EXTRN	_xmlInitNodeInfoSeq:PROC
EXTRN	_xmlParserAddNodeInfo:PROC
EXTRN	_xmlLoadExternalEntity:PROC
EXTRN	_xmlSAX2GetEntity:PROC
EXTRN	_xmlSAX2EntityDecl:PROC
EXTRN	_xmlSAX2StartElement:PROC
EXTRN	_xmlSAX2EndElement:PROC
EXTRN	_xmlSAX2IgnorableWhitespace:PROC
EXTRN	_htmlDefaultSAXHandlerInit:PROC
EXTRN	_xmlDefaultSAXHandlerInit:PROC
EXTRN	_xmlInitGlobals:PROC
EXTRN	_xmlCleanupGlobals:PROC
EXTRN	___xmlDefaultSAXHandler:PROC
EXTRN	___xmlDefaultSAXLocator:PROC
EXTRN	___xmlGenericError:PROC
EXTRN	___xmlGenericErrorContext:PROC
EXTRN	___xmlParserDebugEntities:PROC
EXTRN	_xmlInitThreads:PROC
EXTRN	_xmlCleanupThreads:PROC
EXTRN	_htmlCreateMemoryParserCtxt:PROC
EXTRN	_xmlCharInRange:PROC
EXTRN	_xmlSwitchEncoding:PROC
EXTRN	_xmlSwitchToEncoding:PROC
EXTRN	___xmlErrEncoding:PROC
EXTRN	_xmlNewStringInputStream:PROC
EXTRN	_xmlNewEntityInputStream:PROC
EXTRN	_xmlFreeInputStream:PROC
EXTRN	_xmlNewInputStream:PROC
EXTRN	_xmlStringCurrentChar:PROC
EXTRN	_xmlCurrentChar:PROC
EXTRN	_xmlCopyCharMultiByte:PROC
EXTRN	_xmlCopyChar:PROC
EXTRN	_xmlNextChar:PROC
EXTRN	_xmlParserInputShrink:PROC
EXTRN	_htmlInitAutoClose:PROC
EXTRN	_xmlErrMemory:PROC
EXTRN	_xmlBuildURI:PROC
EXTRN	_xmlParseURI:PROC
EXTRN	_xmlFreeURI:PROC
EXTRN	_xmlCanonicPath:PROC
EXTRN	_xmlCatalogCleanup:PROC
EXTRN	_xmlCatalogFreeLocal:PROC
EXTRN	_xmlCatalogAddLocal:PROC
EXTRN	_xmlCatalogGetDefaults:PROC
EXTRN	_xmlSchemaCleanupTypes:PROC
EXTRN	_xmlRelaxNGCleanupTypes:PROC
EXTRN	_xmlBufIsEmpty:PROC
EXTRN	_xmlBufResetInput:PROC
EXTRN	_xmlBufGetInputBase:PROC
EXTRN	_xmlBufSetInputBaseCur:PROC
EXTRN	_xmlCharEncInput:PROC
EXTRN	_xmlXPathInit:PROC
EXTRN	_xmlGenericErrorDefaultFunc:PROC
EXTRN	@_RTC_CheckStackVars@8:PROC
EXTRN	@__CheckForDebuggerJustMyCode@4:PROC
EXTRN	__RTC_CheckEsp:PROC
EXTRN	__RTC_InitBase:PROC
EXTRN	__RTC_Shutdown:PROC
EXTRN	__RTC_UninitUse:PROC
EXTRN	_memchr:PROC
EXTRN	_memcpy:PROC
EXTRN	_memmove:PROC
EXTRN	_memset:PROC
_DATA	SEGMENT
COMM	?_OptionsStorage@?1??__local_stdio_printf_options@@9@9:QWORD							; `__local_stdio_printf_options'::`2'::_OptionsStorage
_DATA	ENDS
_BSS	SEGMENT
_xmlEntityRefFunc DD 01H DUP (?)
_xmlParserInitialized DD 01H DUP (?)
_BSS	ENDS
;	COMDAT rtc$TMZ
rtc$TMZ	SEGMENT
__RTC_Shutdown.rtc$TMZ DD FLAT:__RTC_Shutdown
rtc$TMZ	ENDS
;	COMDAT rtc$IMZ
rtc$IMZ	SEGMENT
__RTC_InitBase.rtc$IMZ DD FLAT:__RTC_InitBase
rtc$IMZ	ENDS
;	COMDAT ??_C@_0CD@FOJADJIB@parsing?5new?5buffer?3?5out?5of?5memo@
CONST	SEGMENT
??_C@_0CD@FOJADJIB@parsing?5new?5buffer?3?5out?5of?5memo@ DB 'parsing new'
	DB	' buffer: out of memory', 0aH, 00H		; `string'
CONST	ENDS
;	COMDAT ??_C@_0BP@IGCIIMIK@cannot?5allocate?5parser?5context@
CONST	SEGMENT
??_C@_0BP@IGCIIMIK@cannot?5allocate?5parser?5context@ DB 'cannot allocate'
	DB	' parser context', 00H			; `string'
CONST	ENDS
;	COMDAT ??_C@_0CO@FDJENMMD@Version?5mismatch?5between?5docume@
CONST	SEGMENT
??_C@_0CO@FDJENMMD@Version?5mismatch?5between?5docume@ DB 'Version mismat'
	DB	'ch between document and entity', 0aH, 00H	; `string'
CONST	ENDS
;	COMDAT ??_C@_0L@OLLEMIAI@pseudoroot@
CONST	SEGMENT
??_C@_0L@OLLEMIAI@pseudoroot@ DB 'pseudoroot', 00H	; `string'
CONST	ENDS
;	COMDAT ??_C@_04CGFJFPFD@none@
CONST	SEGMENT
??_C@_04CGFJFPFD@none@ DB 'none', 00H			; `string'
CONST	ENDS
;	COMDAT ??_C@_0CA@CCOLJACP@creating?5parser?3?5out?5of?5memory?6@
CONST	SEGMENT
??_C@_0CA@CCOLJACP@creating?5parser?3?5out?5of?5memory?6@ DB 'creating pa'
	DB	'rser: out of memory', 0aH, 00H		; `string'
CONST	ENDS
;	COMDAT ??_C@_01LIIJDEN@?$AN@
CONST	SEGMENT
??_C@_01LIIJDEN@?$AN@ DB 0dH, 00H			; `string'
CONST	ENDS
;	COMDAT ??_C@_0BO@IBAMLEHI@xmlParseChunk?3?5encoder?5error?6@
CONST	SEGMENT
??_C@_0BO@IBAMLEHI@xmlParseChunk?3?5encoder?5error?6@ DB 'xmlParseChunk: '
	DB	'encoder error', 0aH, 00H			; `string'
CONST	ENDS
;	COMDAT ??_C@_04JFFPNMJE@UCS4@
CONST	SEGMENT
??_C@_04JFFPNMJE@UCS4@ DB 'UCS4', 00H			; `string'
CONST	ENDS
;	COMDAT ??_C@_05FPCKGDIJ@UCS?94@
CONST	SEGMENT
??_C@_05FPCKGDIJ@UCS?94@ DB 'UCS-4', 00H		; `string'
CONST	ENDS
;	COMDAT ??_C@_0DC@POFOFIG@Input?5is?5not?5proper?5UTF?98?0?5indi@
CONST	SEGMENT
??_C@_0DC@POFOFIG@Input?5is?5not?5proper?5UTF?98?0?5indi@ DB 'Input is no'
	DB	't proper UTF-8, indicate encoding !', 0aH, '%s', 00H ; `string'
CONST	ENDS
;	COMDAT ??_C@_0CE@KHMCMEAC@Bytes?3?50x?$CF02X?50x?$CF02X?50x?$CF02X?50x?$CF@
CONST	SEGMENT
??_C@_0CE@KHMCMEAC@Bytes?3?50x?$CF02X?50x?$CF02X?50x?$CF02X?50x?$CF@ DB 'B'
	DB	'ytes: 0x%02X 0x%02X 0x%02X 0x%02X', 0aH, 00H ; `string'
CONST	ENDS
;	COMDAT ??_C@_0CN@LJGHMOAD@PP?3?5internal?5error?0?5state?5?$DN?$DN?5PU@
CONST	SEGMENT
??_C@_0CN@LJGHMOAD@PP?3?5internal?5error?0?5state?5?$DN?$DN?5PU@ DB 'PP: '
	DB	'internal error, state == PUBLIC_LITERAL', 0aH, 00H ; `string'
CONST	ENDS
;	COMDAT ??_C@_0CN@JHJPBNDP@PP?3?5internal?5error?0?5state?5?$DN?$DN?5SY@
CONST	SEGMENT
??_C@_0CN@JHJPBNDP@PP?3?5internal?5error?0?5state?5?$DN?$DN?5SY@ DB 'PP: '
	DB	'internal error, state == SYSTEM_LITERAL', 0aH, 00H ; `string'
CONST	ENDS
;	COMDAT ??_C@_0CO@BNGPOFIK@PP?3?5internal?5error?0?5state?5?$DN?$DN?5AT@
CONST	SEGMENT
??_C@_0CO@BNGPOFIK@PP?3?5internal?5error?0?5state?5?$DN?$DN?5AT@ DB 'PP: '
	DB	'internal error, state == ATTRIBUTE_VALUE', 0aH, 00H ; `string'
CONST	ENDS
;	COMDAT ??_C@_0CL@FDJCPJGL@PP?3?5internal?5error?0?5state?5?$DN?$DN?5EN@
CONST	SEGMENT
??_C@_0CL@FDJCPJGL@PP?3?5internal?5error?0?5state?5?$DN?$DN?5EN@ DB 'PP: '
	DB	'internal error, state == ENTITY_VALUE', 0aH, 00H ; `string'
CONST	ENDS
;	COMDAT ??_C@_0CK@EGFEGMNP@PP?3?5internal?5error?0?5state?5?$DN?$DN?5EN@
CONST	SEGMENT
??_C@_0CK@EGFEGMNP@PP?3?5internal?5error?0?5state?5?$DN?$DN?5EN@ DB 'PP: '
	DB	'internal error, state == ENTITY_DECL', 0aH, 00H ; `string'
CONST	ENDS
;	COMDAT ??_C@_0CB@LNKCECMO@PP?3?5internal?5error?0?5state?5?$DN?$DN?5PI@
CONST	SEGMENT
??_C@_0CB@LNKCECMO@PP?3?5internal?5error?0?5state?5?$DN?$DN?5PI@ DB 'PP: '
	DB	'internal error, state == PI', 0aH, 00H	; `string'
CONST	ENDS
;	COMDAT ??_C@_0CE@CFNIBLKF@PP?3?5internal?5error?0?5state?5?$DN?$DN?5IG@
CONST	SEGMENT
??_C@_0CE@CFNIBLKF@PP?3?5internal?5error?0?5state?5?$DN?$DN?5IG@ DB 'PP: '
	DB	'internal error, state == IGNORE', 00H	; `string'
CONST	ENDS
;	COMDAT ??_C@_0CG@PHGFCMFA@PP?3?5internal?5error?0?5state?5?$DN?$DN?5CO@
CONST	SEGMENT
??_C@_0CG@PHGFCMFA@PP?3?5internal?5error?0?5state?5?$DN?$DN?5CO@ DB 'PP: '
	DB	'internal error, state == COMMENT', 0aH, 00H	; `string'
CONST	ENDS
;	COMDAT ??_C@_09BLLNCBLF@?$DM?$CB?$FLCDATA?$FL@
CONST	SEGMENT
??_C@_09BLLNCBLF@?$DM?$CB?$FLCDATA?$FL@ DB '<![CDATA[', 00H ; `string'
CONST	ENDS
;	COMDAT ??_C@_0CD@HIMAKCPA@Couldn?8t?5find?5end?5of?5Start?5Tag?5@
CONST	SEGMENT
??_C@_0CD@HIMAKCPA@Couldn?8t?5find?5end?5of?5Start?5Tag?5@ DB 'Couldn''t '
	DB	'find end of Start Tag %s', 0aH, 00H		; `string'
CONST	ENDS
;	COMDAT ??_C@_0CC@HDEJLGKL@Internal?5error?3?5xmlParseGetLast@
CONST	SEGMENT
??_C@_0CC@HDEJLGKL@Internal?5error?3?5xmlParseGetLast@ DB 'Internal error'
	DB	': xmlParseGetLasts', 0aH, 00H		; `string'
CONST	ENDS
;	COMDAT ??_C@_0CD@NCHPNICC@Start?5tag?5expected?0?5?8?$DM?8?5not?5fou@
CONST	SEGMENT
??_C@_0CD@NCHPNICC@Start?5tag?5expected?0?5?8?$DM?8?5not?5fou@ DB 'Start '
	DB	'tag expected, ''<'' not found', 0aH, 00H	; `string'
CONST	ENDS
;	COMDAT ??_C@_0BD@KLGEONFL@Blank?5needed?5here?6@
CONST	SEGMENT
??_C@_0BD@KLGEONFL@Blank?5needed?5here?6@ DB 'Blank needed here', 0aH, 00H ; `string'
CONST	ENDS
;	COMDAT ??_C@_0BK@MGCDLOCB@Unsupported?5version?5?8?$CFs?8?6@
CONST	SEGMENT
??_C@_0BK@MGCDLOCB@Unsupported?5version?5?8?$CFs?8?6@ DB 'Unsupported ver'
	DB	'sion ''%s''', 0aH, 00H			; `string'
CONST	ENDS
;	COMDAT ??_C@_0BM@BPKNILCI@Blank?5needed?5after?5?8?$DM?$DPxml?8?6@
CONST	SEGMENT
??_C@_0BM@BPKNILCI@Blank?5needed?5after?5?8?$DM?$DPxml?8?6@ DB 'Blank nee'
	DB	'ded after ''<?xml''', 0aH, 00H		; `string'
CONST	ENDS
;	COMDAT ??_C@_0BJ@FCHADMKI@Unsupported?5encoding?5?$CFs?6@
CONST	SEGMENT
??_C@_0BJ@FCHADMKI@Unsupported?5encoding?5?$CFs?6@ DB 'Unsupported encodi'
	DB	'ng %s', 0aH, 00H				; `string'
CONST	ENDS
;	COMDAT ??_C@_04OOMJJNCF@UTF8@
CONST	SEGMENT
??_C@_04OOMJJNCF@UTF8@ DB 'UTF8', 00H			; `string'
CONST	ENDS
;	COMDAT ??_C@_05EGJIMALK@UTF?98@
CONST	SEGMENT
??_C@_05EGJIMALK@UTF?98@ DB 'UTF-8', 00H		; `string'
CONST	ENDS
;	COMDAT ??_C@_0DA@MEEPFAA@Document?5labelled?5UTF?916?5but?5ha@
CONST	SEGMENT
??_C@_0DA@MEEPFAA@Document?5labelled?5UTF?916?5but?5ha@ DB 'Document labe'
	DB	'lled UTF-16 but has UTF-8 content', 0aH, 00H ; `string'
CONST	ENDS
;	COMDAT ??_C@_05MNCHLHCA@UTF16@
CONST	SEGMENT
??_C@_05MNCHLHCA@UTF16@ DB 'UTF16', 00H			; `string'
CONST	ENDS
;	COMDAT ??_C@_06KNDPGIKI@UTF?916@
CONST	SEGMENT
??_C@_06KNDPGIKI@UTF?916@ DB 'UTF-16', 00H		; `string'
CONST	ENDS
;	COMDAT ??_C@_0CJ@JPBGMEM@Premature?5end?5of?5data?5in?5tag?5?$CFs@
CONST	SEGMENT
??_C@_0CJ@JPBGMEM@Premature?5end?5of?5data?5in?5tag?5?$CFs@ DB 'Premature'
	DB	' end of data in tag %s line %d', 0aH, 00H	; `string'
CONST	ENDS
;	COMDAT ??_C@_0CL@LKDFGLKB@Couldn?8t?5find?5end?5of?5Start?5Tag?5@
CONST	SEGMENT
??_C@_0CL@LKDFGLKB@Couldn?8t?5find?5end?5of?5Start?5Tag?5@ DB 'Couldn''t '
	DB	'find end of Start Tag %s line %d', 0aH, 00H	; `string'
CONST	ENDS
;	COMDAT ??_C@_0CG@FCFCBOFE@detected?5an?5error?5in?5element?5co@
CONST	SEGMENT
??_C@_0CG@FCFCBOFE@detected?5an?5error?5in?5element?5co@ DB 'detected an '
	DB	'error in element content', 0aH, 00H		; `string'
CONST	ENDS
;	COMDAT ??_C@_0CC@HAEHMHLE@CData?5section?5not?5finished?6?$CF?450@
CONST	SEGMENT
??_C@_0CC@HAEHMHLE@CData?5section?5not?5finished?6?$CF?450@ DB 'CData sec'
	DB	'tion not finished', 0aH, '%.50s', 0aH, 00H	; `string'
CONST	ENDS
;	COMDAT ??_C@_0BM@HGOGNNNB@CData?5section?5too?5big?5found@
CONST	SEGMENT
??_C@_0BM@HGOGNNNB@CData?5section?5too?5big?5found@ DB 'CData section too'
	DB	' big found', 00H				; `string'
CONST	ENDS
;	COMDAT ??_C@_0CK@EJLCFGPG@Namespace?5prefix?5?$CFs?5on?5?$CFs?5is?5no@
CONST	SEGMENT
??_C@_0CK@EJLCFGPG@Namespace?5prefix?5?$CFs?5on?5?$CFs?5is?5no@ DB 'Names'
	DB	'pace prefix %s on %s is not defined', 0aH, 00H ; `string'
CONST	ENDS
;	COMDAT ??_C@_0CL@BDHHCEFP@Namespaced?5Attribute?5?$CFs?5in?5?8?$CFs?8@
CONST	SEGMENT
??_C@_0CL@BDHHCEFP@Namespaced?5Attribute?5?$CFs?5in?5?8?$CFs?8@ DB 'Names'
	DB	'paced Attribute %s in ''%s'' redefined', 0aH, 00H ; `string'
CONST	ENDS
;	COMDAT ??_C@_0DB@GMKAHOEK@Namespace?5prefix?5?$CFs?5for?5?$CFs?5on?5?$CF@
CONST	SEGMENT
??_C@_0DB@GMKAHOEK@Namespace?5prefix?5?$CFs?5for?5?$CFs?5on?5?$CF@ DB 'Na'
	DB	'mespace prefix %s for %s on %s is not defined', 0aH, 00H ; `string'
CONST	ENDS
;	COMDAT ??_C@_0DP@KFNFGALP@standalone?3?5attribute?5?$CFs?5on?5?$CFs?5@
CONST	SEGMENT
??_C@_0DP@KFNFGALP@standalone?3?5attribute?5?$CFs?5on?5?$CFs?5@ DB 'stand'
	DB	'alone: attribute %s on %s defaulted from external subset', 0aH
	DB	00H						; `string'
CONST	ENDS
;	COMDAT ??_C@_0BM@HDEBIHCG@Unexpected?5change?5of?5input?6@
CONST	SEGMENT
??_C@_0BM@HDEBIHCG@Unexpected?5change?5of?5input?6@ DB 'Unexpected change'
	DB	' of input', 0aH, 00H			; `string'
CONST	ENDS
;	COMDAT ??_C@_0CC@FFFCEDOK@xmlns?3?$CFs?3?5URI?5?$CFs?5is?5not?5absolut@
CONST	SEGMENT
??_C@_0CC@FFFCEDOK@xmlns?3?$CFs?3?5URI?5?$CFs?5is?5not?5absolut@ DB 'xmln'
	DB	's:%s: URI %s is not absolute', 0aH, 00H	; `string'
CONST	ENDS
;	COMDAT ??_C@_0CD@IMLPGLBN@xmlns?3?$CFs?3?5?8?$CFs?8?5is?5not?5a?5valid?5U@
CONST	SEGMENT
??_C@_0CD@IMLPGLBN@xmlns?3?$CFs?3?5?8?$CFs?8?5is?5not?5a?5valid?5U@ DB 'x'
	DB	'mlns:%s: ''%s'' is not a valid URI', 0aH, 00H ; `string'
CONST	ENDS
;	COMDAT ??_C@_0CO@JLGJJKB@xmlns?3?$CFs?3?5Empty?5XML?5namespace?5i@
CONST	SEGMENT
??_C@_0CO@JLGJJKB@xmlns?3?$CFs?3?5Empty?5XML?5namespace?5i@ DB 'xmlns:%s:'
	DB	' Empty XML namespace is not allowed', 0aH, 00H ; `string'
CONST	ENDS
;	COMDAT ??_C@_0CP@FCHEBDCM@redefinition?5of?5the?5xmlns?5prefi@
CONST	SEGMENT
??_C@_0CP@FCHEBDCM@redefinition?5of?5the?5xmlns?5prefi@ DB 'redefinition '
	DB	'of the xmlns prefix is forbidden', 0aH, 00H	; `string'
CONST	ENDS
;	COMDAT ??_C@_0CK@HFNNIPGF@xml?5namespace?5URI?5mapped?5to?5wro@
CONST	SEGMENT
??_C@_0CK@HFNNIPGF@xml?5namespace?5URI?5mapped?5to?5wro@ DB 'xml namespac'
	DB	'e URI mapped to wrong prefix', 0aH, 00H	; `string'
CONST	ENDS
;	COMDAT ??_C@_0CK@HOGKMNCM@xml?5namespace?5prefix?5mapped?5to?5@
CONST	SEGMENT
??_C@_0CK@HOGKMNCM@xml?5namespace?5prefix?5mapped?5to?5@ DB 'xml namespac'
	DB	'e prefix mapped to wrong URI', 0aH, 00H	; `string'
CONST	ENDS
;	COMDAT ??_C@_0DA@DPCHHACL@reuse?5of?5the?5xmlns?5namespace?5na@
CONST	SEGMENT
??_C@_0DA@DPCHHACL@reuse?5of?5the?5xmlns?5namespace?5na@ DB 'reuse of the'
	DB	' xmlns namespace name is forbidden', 0aH, 00H ; `string'
CONST	ENDS
;	COMDAT ??_C@_0BO@GBJIDPIB@http?3?1?1www?4w3?4org?12000?1xmlns?1@
CONST	SEGMENT
??_C@_0BO@GBJIDPIB@http?3?1?1www?4w3?4org?12000?1xmlns?1@ DB 'http://www.'
	DB	'w3.org/2000/xmlns/', 00H			; `string'
CONST	ENDS
;	COMDAT ??_C@_0DD@IPHAILAA@xml?5namespace?5URI?5cannot?5be?5the@
CONST	SEGMENT
??_C@_0DD@IPHAILAA@xml?5namespace?5URI?5cannot?5be?5the@ DB 'xml namespac'
	DB	'e URI cannot be the default namespace', 0aH, 00H ; `string'
CONST	ENDS
;	COMDAT ??_C@_0BP@JFBGAFGI@xmlns?3?5URI?5?$CFs?5is?5not?5absolute?6@
CONST	SEGMENT
??_C@_0BP@JFBGAFGI@xmlns?3?5URI?5?$CFs?5is?5not?5absolute?6@ DB 'xmlns: U'
	DB	'RI %s is not absolute', 0aH, 00H		; `string'
CONST	ENDS
;	COMDAT ??_C@_0CA@IPMJMNFH@xmlns?3?5?8?$CFs?8?5is?5not?5a?5valid?5URI?6@
CONST	SEGMENT
??_C@_0CA@IPMJMNFH@xmlns?3?5?8?$CFs?8?5is?5not?5a?5valid?5URI?6@ DB 'xmln'
	DB	's: ''%s'' is not a valid URI', 0aH, 00H	; `string'
CONST	ENDS
;	COMDAT ??_C@_0BO@NHFMDAKF@dictionary?5allocation?5failure@
CONST	SEGMENT
??_C@_0BO@NHFMDAKF@dictionary?5allocation?5failure@ DB 'dictionary alloca'
	DB	'tion failure', 00H				; `string'
CONST	ENDS
;	COMDAT ??_C@_0CA@LKOHNLNN@StartTag?3?5invalid?5element?5name?6@
CONST	SEGMENT
??_C@_0CA@LKOHNLNN@StartTag?3?5invalid?5element?5name?6@ DB 'StartTag: in'
	DB	'valid element name', 0aH, 00H		; `string'
CONST	ENDS
;	COMDAT ??_C@_05OLNILLAB@space@
CONST	SEGMENT
??_C@_05OLNILLAB@space@ DB 'space', 00H			; `string'
CONST	ENDS
;	COMDAT ??_C@_04IOHABJIC@lang@
CONST	SEGMENT
??_C@_04IOHABJIC@lang@ DB 'lang', 00H			; `string'
CONST	ENDS
;	COMDAT ??_C@_0CA@HECGKKLP@Failed?5to?5parse?5QName?5?8?$CFs?3?$CFs?3?8?6@
CONST	SEGMENT
??_C@_0CA@HECGKKLP@Failed?5to?5parse?5QName?5?8?$CFs?3?$CFs?3?8?6@ DB 'Fa'
	DB	'iled to parse QName ''%s:%s:''', 0aH, 00H	; `string'
CONST	ENDS
;	COMDAT ??_C@_0BN@MNDCJBCK@Failed?5to?5parse?5QName?5?8?$CFs?3?8?6@
CONST	SEGMENT
??_C@_0BN@MNDCJBCK@Failed?5to?5parse?5QName?5?8?$CFs?3?8?6@ DB 'Failed to'
	DB	' parse QName ''%s:''', 0aH, 00H		; `string'
CONST	ENDS
;	COMDAT ??_C@_0BM@DBJGDKCH@Failed?5to?5parse?5QName?5?8?$CFs?8?6@
CONST	SEGMENT
??_C@_0BM@DBJGDKCH@Failed?5to?5parse?5QName?5?8?$CFs?8?6@ DB 'Failed to p'
	DB	'arse QName ''%s''', 0aH, 00H		; `string'
CONST	ENDS
;	COMDAT ??_C@_0DE@OCMDIBAP@Opening?5and?5ending?5tag?5mismatch@
CONST	SEGMENT
??_C@_0DE@OCMDIBAP@Opening?5and?5ending?5tag?5mismatch@ DB 'Opening and e'
	DB	'nding tag mismatch: %s line %d and %s', 0aH, 00H ; `string'
CONST	ENDS
;	COMDAT ??_C@_0M@IAMGGMFE@unparseable@
CONST	SEGMENT
??_C@_0M@IAMGGMFE@unparseable@ DB 'unparseable', 00H	; `string'
CONST	ENDS
;	COMDAT ??_C@_0CA@PJGJPBIH@xmlParseEndTag?3?5?8?$DM?1?8?5not?5found?6@
CONST	SEGMENT
??_C@_0CA@PJGJPBIH@xmlParseEndTag?3?5?8?$DM?1?8?5not?5found?6@ DB 'xmlPar'
	DB	'seEndTag: ''</'' not found', 0aH, 00H	; `string'
CONST	ENDS
;	COMDAT ??_C@_0CO@KAECIKGE@xmlParseStartTag?3?5problem?5parsi@
CONST	SEGMENT
??_C@_0CO@KAECIKGE@xmlParseStartTag?3?5problem?5parsi@ DB 'xmlParseStartT'
	DB	'ag: problem parsing attributes', 0aH, 00H	; `string'
CONST	ENDS
;	COMDAT ??_C@_0BM@FKPAGOOK@attributes?5construct?5error?6@
CONST	SEGMENT
??_C@_0BM@FKPAGOOK@attributes?5construct?5error?6@ DB 'attributes constru'
	DB	'ct error', 0aH, 00H				; `string'
CONST	ENDS
;	COMDAT ??_C@_0CI@FEOPKDBB@xmlParseStartTag?3?5invalid?5eleme@
CONST	SEGMENT
??_C@_0CI@FEOPKDBB@xmlParseStartTag?3?5invalid?5eleme@ DB 'xmlParseStartT'
	DB	'ag: invalid element name', 0aH, 00H		; `string'
CONST	ENDS
;	COMDAT ??_C@_0EF@GNALPKCP@Invalid?5value?5?$CC?$CFs?$CC?5for?5xml?3spac@
CONST	SEGMENT
??_C@_0EF@GNALPKCP@Invalid?5value?5?$CC?$CFs?$CC?5for?5xml?3spac@ DB 'Inv'
	DB	'alid value "%s" for xml:space : "default" or "preserve" expec'
	DB	'ted', 0aH, 00H				; `string'
CONST	ENDS
;	COMDAT ??_C@_08ILAKLJGO@preserve@
CONST	SEGMENT
??_C@_08ILAKLJGO@preserve@ DB 'preserve', 00H		; `string'
CONST	ENDS
;	COMDAT ??_C@_07DLHCIBDH@default@
CONST	SEGMENT
??_C@_07DLHCIBDH@default@ DB 'default', 00H		; `string'
CONST	ENDS
;	COMDAT ??_C@_09HKHFJOKD@xml?3space@
CONST	SEGMENT
??_C@_09HKHFJOKD@xml?3space@ DB 'xml:space', 00H	; `string'
CONST	ENDS
;	COMDAT ??_C@_0CD@OAOAJGL@Malformed?5value?5for?5xml?3lang?5?3?5@
CONST	SEGMENT
??_C@_0CD@OAOAJGL@Malformed?5value?5for?5xml?3lang?5?3?5@ DB 'Malformed v'
	DB	'alue for xml:lang : %s', 0aH, 00H		; `string'
CONST	ENDS
;	COMDAT ??_C@_08EHDJCMMM@xml?3lang@
CONST	SEGMENT
??_C@_08EHDJCMMM@xml?3lang@ DB 'xml:lang', 00H		; `string'
CONST	ENDS
;	COMDAT ??_C@_0CP@LHHGCLP@Specification?5mandates?5value?5fo@
CONST	SEGMENT
??_C@_0CP@LHHGCLP@Specification?5mandates?5value?5fo@ DB 'Specification m'
	DB	'andates value for attribute %s', 0aH, 00H	; `string'
CONST	ENDS
;	COMDAT ??_C@_0BO@BHLKDNI@error?5parsing?5attribute?5name?6@
CONST	SEGMENT
??_C@_0BO@BHLKDNI@error?5parsing?5attribute?5name?6@ DB 'error parsing at'
	DB	'tribute name', 0aH, 00H			; `string'
CONST	ENDS
;	COMDAT ??_C@_0DO@IJLBCNCA@xmlParseInternalSubset?3?5error?5d@
CONST	SEGMENT
??_C@_0DO@IJLBCNCA@xmlParseInternalSubset?3?5error?5d@ DB 'xmlParseIntern'
	DB	'alSubset: error detected in Markup declaration', 0aH, 00H ; `string'
CONST	ENDS
;	COMDAT ??_C@_0CJ@JPAMJNGL@xmlParseDocTypeDecl?5?3?5no?5DOCTYP@
CONST	SEGMENT
??_C@_0CJ@JPAMJNGL@xmlParseDocTypeDecl?5?3?5no?5DOCTYP@ DB 'xmlParseDocTy'
	DB	'peDecl : no DOCTYPE name !', 0aH, 00H	; `string'
CONST	ENDS
;	COMDAT ??_C@_0CB@HMFAEMHO@?$CF?$CF?$CFs?$DL?5is?5not?5a?5parameter?5entity@
CONST	SEGMENT
??_C@_0CB@HMFAEMHO@?$CF?$CF?$CFs?$DL?5is?5not?5a?5parameter?5entity@ DB '%'
	DB	'%%s; is not a parameter entity', 0aH, 00H	; `string'
CONST	ENDS
;	COMDAT ??_C@_0CE@PLGLFALL@xmlParseStringPEReference?3?5no?5n@
CONST	SEGMENT
??_C@_0CE@PLGLFALL@xmlParseStringPEReference?3?5no?5n@ DB 'xmlParseString'
	DB	'PEReference: no name', 0aH, 00H		; `string'
CONST	ENDS
;	COMDAT ??_C@_0CN@NHLEKBNA@xmlLoadEntityContent?3?5invalid?5c@
CONST	SEGMENT
??_C@_0CN@NHLEKBNA@xmlLoadEntityContent?3?5invalid?5c@ DB 'xmlLoadEntityC'
	DB	'ontent: invalid char value %d', 0aH, 00H	; `string'
CONST	ENDS
;	COMDAT ??_C@_0CB@HEAOEFBK@xmlLoadEntityContent?5input?5erro@
CONST	SEGMENT
??_C@_0CB@HEAOEFBK@xmlLoadEntityContent?5input?5erro@ DB 'xmlLoadEntityCo'
	DB	'ntent input error', 00H			; `string'
CONST	ENDS
;	COMDAT ??_C@_0CB@NCAMLBBH@Reading?5?$CFs?5entity?5content?5input@
CONST	SEGMENT
??_C@_0CB@NCAMLBBH@Reading?5?$CFs?5entity?5content?5input@ DB 'Reading %s'
	DB	' entity content input', 0aH, 00H		; `string'
CONST	ENDS
;	COMDAT ??_C@_0CF@PMEPEHIL@xmlLoadEntityContent?5parameter?5@
CONST	SEGMENT
??_C@_0CF@PMEPEHIL@xmlLoadEntityContent?5parameter?5@ DB 'xmlLoadEntityCo'
	DB	'ntent parameter error', 00H			; `string'
CONST	ENDS
;	COMDAT ??_C@_0CL@BLGDJGPF@Internal?3?5?$CF?$CF?$CFs?$DL?5is?5not?5a?5parame@
CONST	SEGMENT
??_C@_0CL@BLGDJGPF@Internal?3?5?$CF?$CF?$CFs?$DL?5is?5not?5a?5parame@ DB 'I'
	DB	'nternal: %%%s; is not a parameter entity', 0aH, 00H ; `string'
CONST	ENDS
;	COMDAT ??_C@_0BO@KINMDPMC@PEReference?3?5?$CF?$CF?$CFs?$DL?5not?5found?6@
CONST	SEGMENT
??_C@_0BO@KINMDPMC@PEReference?3?5?$CF?$CF?$CFs?$DL?5not?5found?6@ DB 'PE'
	DB	'Reference: %%%s; not found', 0aH, 00H	; `string'
CONST	ENDS
;	COMDAT ??_C@_0BB@MFPJKDDB@PEReference?3?5?$CFs?6@
CONST	SEGMENT
??_C@_0BB@MFPJKDDB@PEReference?3?5?$CFs?6@ DB 'PEReference: %s', 0aH, 00H ; `string'
CONST	ENDS
;	COMDAT ??_C@_0BG@DIAKGNKN@PEReference?3?5no?5name?6@
CONST	SEGMENT
??_C@_0BG@DIAKGNKN@PEReference?3?5no?5name?6@ DB 'PEReference: no name', 0aH
	DB	00H						; `string'
CONST	ENDS
;	COMDAT ??_C@_0CC@PKJKLMCM@xmlParseStringEntityRef?3?5no?5nam@
CONST	SEGMENT
??_C@_0CC@PKJKLMCM@xmlParseStringEntityRef?3?5no?5nam@ DB 'xmlParseString'
	DB	'EntityRef: no name', 0aH, 00H		; `string'
CONST	ENDS
;	COMDAT ??_C@_0DA@CCPGIFBP@Attempt?5to?5reference?5the?5parame@
CONST	SEGMENT
??_C@_0DA@CCPGIFBP@Attempt?5to?5reference?5the?5parame@ DB 'Attempt to re'
	DB	'ference the parameter entity ''%s''', 0aH, 00H ; `string'
CONST	ENDS
;	COMDAT ??_C@_0DI@FDECCCAO@?8?$DM?8?5in?5entity?5?8?$CFs?8?5is?5not?5allow@
CONST	SEGMENT
??_C@_0DI@FDECCCAO@?8?$DM?8?5in?5entity?5?8?$CFs?8?5is?5not?5allow@ DB ''''
	DB	'<'' in entity ''%s'' is not allowed in attributes values', 0aH
	DB	00H						; `string'
CONST	ENDS
;	COMDAT ??_C@_0CL@HLODLGOA@Attribute?5references?5external?5e@
CONST	SEGMENT
??_C@_0CL@HLODLGOA@Attribute?5references?5external?5e@ DB 'Attribute refe'
	DB	'rences external entity ''%s''', 0aH, 00H	; `string'
CONST	ENDS
;	COMDAT ??_C@_0CI@ILCMJJAO@Entity?5reference?5to?5unparsed?5en@
CONST	SEGMENT
??_C@_0CI@ILCMJJAO@Entity?5reference?5to?5unparsed?5en@ DB 'Entity refere'
	DB	'nce to unparsed entity %s', 0aH, 00H	; `string'
CONST	ENDS
;	COMDAT ??_C@_0BJ@KIKIJMLK@Entity?5?8?$CFs?8?5not?5defined?6@
CONST	SEGMENT
??_C@_0BJ@KIKIJMLK@Entity?5?8?$CFs?8?5not?5defined?6@ DB 'Entity ''%s'' n'
	DB	'ot defined', 0aH, 00H			; `string'
CONST	ENDS
;	COMDAT ??_C@_0BM@NMGBIIDP@xmlParseEntityRef?3?5no?5name?6@
CONST	SEGMENT
??_C@_0BM@NMGBIIDP@xmlParseEntityRef?3?5no?5name?6@ DB 'xmlParseEntityRef'
	DB	': no name', 0aH, 00H			; `string'
CONST	ENDS
;	COMDAT ??_C@_07DALNPEGO@nbktext@
CONST	SEGMENT
??_C@_07DALNPEGO@nbktext@ DB 'nbktext', 00H		; `string'
CONST	ENDS
;	COMDAT ??_C@_0BN@EOPGEOPH@Entity?5?8?$CFs?8?5failed?5to?5parse?6@
CONST	SEGMENT
??_C@_0BN@EOPGEOPH@Entity?5?8?$CFs?8?5failed?5to?5parse?6@ DB 'Entity ''%'
	DB	's'' failed to parse', 0aH, 00H		; `string'
CONST	ENDS
;	COMDAT ??_C@_0BL@EBFCDHBG@invalid?5entity?5type?5found?6@
CONST	SEGMENT
??_C@_0BL@EBFCDHBG@invalid?5entity?5type?5found?6@ DB 'invalid entity typ'
	DB	'e found', 0aH, 00H				; `string'
CONST	ENDS
;	COMDAT ??_C@_03FDCLAKJL@?$CD?$CFd@
CONST	SEGMENT
??_C@_03FDCLAKJL@?$CD?$CFd@ DB '#%d', 00H		; `string'
CONST	ENDS
;	COMDAT ??_C@_04FNNDIGBC@?$CDx?$CFX@
CONST	SEGMENT
??_C@_04FNNDIGBC@?$CDx?$CFX@ DB '#x%X', 00H		; `string'
CONST	ENDS
;	COMDAT ??_C@_0CG@OFFEFIEL@Missing?5encoding?5in?5text?5declar@
CONST	SEGMENT
??_C@_0CG@OFFEFIEL@Missing?5encoding?5in?5text?5declar@ DB 'Missing encod'
	DB	'ing in text declaration', 0aH, 00H		; `string'
CONST	ENDS
;	COMDAT ??_C@_0BD@LJKHCJDH@Space?5needed?5here?6@
CONST	SEGMENT
??_C@_0BD@LJKHCJDH@Space?5needed?5here?6@ DB 'Space needed here', 0aH, 00H ; `string'
CONST	ENDS
;	COMDAT ??_C@_03HLLJOCDO@1?40@
CONST	SEGMENT
??_C@_03HLLJOCDO@1?40@ DB '1.0', 00H			; `string'
CONST	ENDS
;	COMDAT ??_C@_0BM@OIPNJGND@Space?5needed?5after?5?8?$DM?$DPxml?8?6@
CONST	SEGMENT
??_C@_0BM@OIPNJGND@Space?5needed?5after?5?8?$DM?$DPxml?8?6@ DB 'Space nee'
	DB	'ded after ''<?xml''', 0aH, 00H		; `string'
CONST	ENDS
;	COMDAT ??_C@_0CE@MPDEOLDN@Leaving?5IGNORE?5Conditional?5Sect@
CONST	SEGMENT
??_C@_0CE@MPDEOLDN@Leaving?5IGNORE?5Conditional?5Sect@ DB 'Leaving IGNORE'
	DB	' Conditional Section', 0aH, 00H		; `string'
CONST	ENDS
;	COMDAT ??_C@_0CF@BNLECKJM@Entering?5IGNORE?5Conditional?5Sec@
CONST	SEGMENT
??_C@_0CF@BNLECKJM@Entering?5IGNORE?5Conditional?5Sec@ DB 'Entering IGNOR'
	DB	'E Conditional Section', 0aH, 00H		; `string'
CONST	ENDS
;	COMDAT ??_C@_0CF@KBFPDCLM@Leaving?5INCLUDE?5Conditional?5Sec@
CONST	SEGMENT
??_C@_0CF@KBFPDCLM@Leaving?5INCLUDE?5Conditional?5Sec@ DB 'Leaving INCLUD'
	DB	'E Conditional Section', 0aH, 00H		; `string'
CONST	ENDS
;	COMDAT ??_C@_0CG@FMCBAD@Entering?5INCLUDE?5Conditional?5Se@
CONST	SEGMENT
??_C@_0CG@FMCBAD@Entering?5INCLUDE?5Conditional?5Se@ DB 'Entering INCLUDE'
	DB	' Conditional Section', 0aH, 00H		; `string'
CONST	ENDS
;	COMDAT ??_C@_0EB@LPINKGGA@All?5markup?5of?5the?5conditional?5s@
CONST	SEGMENT
??_C@_0EB@LPINKGGA@All?5markup?5of?5the?5conditional?5s@ DB 'All markup o'
	DB	'f the conditional section is not in the same entity', 0aH, 00H ; `string'
CONST	ENDS
;	COMDAT ??_C@_0DP@KIKIPMFE@Element?5declaration?5doesn?8t?5sta@
CONST	SEGMENT
??_C@_0DP@KIKIPMFE@Element?5declaration?5doesn?8t?5sta@ DB 'Element decla'
	DB	'ration doesn''t start and stop in the same entity', 0aH, 00H ; `string'
CONST	ENDS
;	COMDAT ??_C@_0DF@CHNHOLDO@xmlParseElementDecl?3?5?8EMPTY?8?0?5?8@
CONST	SEGMENT
??_C@_0DF@CHNHOLDO@xmlParseElementDecl?3?5?8EMPTY?8?0?5?8@ DB 'xmlParseEl'
	DB	'ementDecl: ''EMPTY'', ''ANY'' or ''('' expected', 0aH, 00H ; `string'
CONST	ENDS
;	COMDAT ??_C@_0DO@COHAOPDG@PEReference?3?5forbidden?5within?5m@
CONST	SEGMENT
??_C@_0DO@COHAOPDG@PEReference?3?5forbidden?5within?5m@ DB 'PEReference: '
	DB	'forbidden within markup decl in internal subset', 0aH, 00H ; `string'
CONST	ENDS
;	COMDAT ??_C@_0CH@MFBAJJC@Space?5required?5after?5the?5elemen@
CONST	SEGMENT
??_C@_0CH@MFBAJJC@Space?5required?5after?5the?5elemen@ DB 'Space required'
	DB	' after the element name', 0aH, 00H		; `string'
CONST	ENDS
;	COMDAT ??_C@_0CK@LMDMNJGO@xmlParseElementDecl?3?5no?5name?5fo@
CONST	SEGMENT
??_C@_0CK@LMDMNJGO@xmlParseElementDecl?3?5no?5name?5fo@ DB 'xmlParseEleme'
	DB	'ntDecl: no name for Element', 0aH, 00H	; `string'
CONST	ENDS
;	COMDAT ??_C@_0CA@CIGPNPNK@Space?5required?5after?5?8ELEMENT?8?6@
CONST	SEGMENT
??_C@_0CA@CIGPNPNK@Space?5required?5after?5?8ELEMENT?8?6@ DB 'Space requi'
	DB	'red after ''ELEMENT''', 0aH, 00H		; `string'
CONST	ENDS
;	COMDAT ??_C@_0CO@FLMKOMHK@xmlParseElementContentDecl?5?3?5?$CFs@
CONST	SEGMENT
??_C@_0CO@FLMKOMHK@xmlParseElementContentDecl?5?3?5?$CFs@ DB 'xmlParseEle'
	DB	'mentContentDecl : %s ''('' expected', 0aH, 00H ; `string'
CONST	ENDS
;	COMDAT ??_C@_0DE@IJONAOBP@xmlParseElementChildrenContentD@
CONST	SEGMENT
??_C@_0DE@IJONAOBP@xmlParseElementChildrenContentD@ DB 'xmlParseElementCh'
	DB	'ildrenContentDecl : ''%c'' expected', 0aH, 00H ; `string'
CONST	ENDS
;	COMDAT ??_C@_0EM@OINCFINP@xmlParseElementChildrenContentD@
CONST	SEGMENT
??_C@_0EM@OINCFINP@xmlParseElementChildrenContentD@ DB 'xmlParseElementCh'
	DB	'ildrenContentDecl : depth %d too deep, use XML_PARSE_HUGE', 0aH
	DB	00H						; `string'
CONST	ENDS
;	COMDAT ??_C@_0DB@BEFMOJIK@xmlParseElementMixedContentDecl@
CONST	SEGMENT
??_C@_0DB@BEFMOJIK@xmlParseElementMixedContentDecl@ DB 'xmlParseElementMi'
	DB	'xedContentDecl : Name expected', 0aH, 00H	; `string'
CONST	ENDS
;	COMDAT ??_C@_0EH@KGLJHJPD@Element?5content?5declaration?5doe@
CONST	SEGMENT
??_C@_0EH@KGLJHJPD@Element?5content?5declaration?5doe@ DB 'Element conten'
	DB	't declaration doesn''t start and stop in the same entity', 0aH
	DB	00H						; `string'
CONST	ENDS
;	COMDAT ??_C@_0EG@JGLJABBC@Attribute?5list?5declaration?5does@
CONST	SEGMENT
??_C@_0EG@JGLJABBC@Attribute?5list?5declaration?5does@ DB 'Attribute list'
	DB	' declaration doesn''t start and stop in the same entity', 0aH
	DB	00H						; `string'
CONST	ENDS
;	COMDAT ??_C@_0DC@NGABIAJF@Space?5required?5after?5the?5attrib@
CONST	SEGMENT
??_C@_0DC@NGABIAJF@Space?5required?5after?5the?5attrib@ DB 'Space require'
	DB	'd after the attribute default value', 0aH, 00H ; `string'
CONST	ENDS
;	COMDAT ??_C@_0CJ@EMHJKDCH@Space?5required?5after?5the?5attrib@
CONST	SEGMENT
??_C@_0CJ@EMHJKDCH@Space?5required?5after?5the?5attrib@ DB 'Space require'
	DB	'd after the attribute type', 0aH, 00H	; `string'
CONST	ENDS
;	COMDAT ??_C@_0CJ@BMNHNBNL@Space?5required?5after?5the?5attrib@
CONST	SEGMENT
??_C@_0CJ@BMNHNBNL@Space?5required?5after?5the?5attrib@ DB 'Space require'
	DB	'd after the attribute name', 0aH, 00H	; `string'
CONST	ENDS
;	COMDAT ??_C@_0CA@GKDLKFPE@ATTLIST?3?5no?5name?5for?5Attribute?6@
CONST	SEGMENT
??_C@_0CA@GKDLKFPE@ATTLIST?3?5no?5name?5for?5Attribute?6@ DB 'ATTLIST: no'
	DB	' name for Attribute', 0aH, 00H		; `string'
CONST	ENDS
;	COMDAT ??_C@_0BO@PIKFFONH@ATTLIST?3?5no?5name?5for?5Element?6@
CONST	SEGMENT
??_C@_0BO@PIKFFONH@ATTLIST?3?5no?5name?5for?5Element?6@ DB 'ATTLIST: no n'
	DB	'ame for Element', 0aH, 00H			; `string'
CONST	ENDS
;	COMDAT ??_C@_0CC@DODLEJBN@Space?5required?5after?5?8?$DM?$CBATTLIST@
CONST	SEGMENT
??_C@_0CC@DODLEJBN@Space?5required?5after?5?8?$DM?$CBATTLIST@ DB 'Space r'
	DB	'equired after ''<!ATTLIST''', 0aH, 00H	; `string'
CONST	ENDS
;	COMDAT ??_C@_0CB@FOEKPMO@Space?5required?5after?5?8NOTATION?8@
CONST	SEGMENT
??_C@_0CB@FOEKPMO@Space?5required?5after?5?8NOTATION?8@ DB 'Space require'
	DB	'd after ''NOTATION''', 0aH, 00H		; `string'
CONST	ENDS
;	COMDAT ??_C@_0DN@GKJDABEM@standalone?3?5attribute?5enumerati@
CONST	SEGMENT
??_C@_0DN@GKJDABEM@standalone?3?5attribute?5enumerati@ DB 'standalone: at'
	DB	'tribute enumeration value token %s duplicated', 0aH, 00H ; `string'
CONST	ENDS
;	COMDAT ??_C@_0DK@HOPAGHFB@standalone?3?5attribute?5notation?5@
CONST	SEGMENT
??_C@_0DK@HOPAGHFB@standalone?3?5attribute?5notation?5@ DB 'standalone: a'
	DB	'ttribute notation value token %s duplicated', 0aH, 00H ; `string'
CONST	ENDS
;	COMDAT ??_C@_0CH@MHDABFNP@Name?5expected?5in?5NOTATION?5decla@
CONST	SEGMENT
??_C@_0CH@MHDABFNP@Name?5expected?5in?5NOTATION?5decla@ DB 'Name expected'
	DB	' in NOTATION declaration', 0aH, 00H		; `string'
CONST	ENDS
;	COMDAT ??_C@_0CL@MHGJEBGE@Attribute?5default?5value?5declara@
CONST	SEGMENT
??_C@_0CL@MHGJEBGE@Attribute?5default?5value?5declara@ DB 'Attribute defa'
	DB	'ult value declaration error', 0aH, 00H	; `string'
CONST	ENDS
;	COMDAT ??_C@_0BP@LOJANMBO@Space?5required?5after?5?8?$CDFIXED?8?6@
CONST	SEGMENT
??_C@_0BP@LOJANMBO@Space?5required?5after?5?8?$CDFIXED?8?6@ DB 'Space req'
	DB	'uired after ''#FIXED''', 0aH, 00H		; `string'
CONST	ENDS
;	COMDAT ??_C@_0DO@BLCODNOK@Entity?5declaration?5doesn?8t?5star@
CONST	SEGMENT
??_C@_0DO@BLCODNOK@Entity?5declaration?5doesn?8t?5star@ DB 'Entity declar'
	DB	'ation doesn''t start and stop in the same entity', 0aH, 00H ; `string'
CONST	ENDS
;	COMDAT ??_C@_0CO@GFOAPJBJ@xmlParseEntityDecl?3?5entity?5?$CFs?5n@
CONST	SEGMENT
??_C@_0CO@GFOAPJBJ@xmlParseEntityDecl?3?5entity?5?$CFs?5n@ DB 'xmlParseEn'
	DB	'tityDecl: entity %s not terminated', 0aH, 00H ; `string'
CONST	ENDS
;	COMDAT ??_C@_0BO@GLBCJEIC@Space?5required?5after?5?8NDATA?8?6@
CONST	SEGMENT
??_C@_0BO@GLBCJEIC@Space?5required?5after?5?8NDATA?8?6@ DB 'Space require'
	DB	'd after ''NDATA''', 0aH, 00H		; `string'
CONST	ENDS
;	COMDAT ??_C@_0BP@NPDMAEIM@Space?5required?5before?5?8NDATA?8?6@
CONST	SEGMENT
??_C@_0BP@NPDMAEIM@Space?5required?5before?5?8NDATA?8?6@ DB 'Space requir'
	DB	'ed before ''NDATA''', 0aH, 00H		; `string'
CONST	ENDS
;	COMDAT ??_C@_04PADNKBEK@fake@
CONST	SEGMENT
??_C@_04PADNKBEK@fake@ DB 'fake', 00H			; `string'
CONST	ENDS
;	COMDAT ??_C@_0P@IDBIGKBI@New?5Doc?5failed@
CONST	SEGMENT
??_C@_0P@IDBIGKBI@New?5Doc?5failed@ DB 'New Doc failed', 00H ; `string'
CONST	ENDS
;	COMDAT ??_C@_0CA@CHJJOFGL@SAX?5compatibility?5mode?5document@
CONST	SEGMENT
??_C@_0CA@CHJJOFGL@SAX?5compatibility?5mode?5document@ DB 'SAX compatibil'
	DB	'ity mode document', 00H			; `string'
CONST	ENDS
;	COMDAT ??_C@_0BB@JHEINHI@Invalid?5URI?3?5?$CFs?6@
CONST	SEGMENT
??_C@_0BB@JHEINHI@Invalid?5URI?3?5?$CFs?6@ DB 'Invalid URI: %s', 0aH, 00H ; `string'
CONST	ENDS
;	COMDAT ??_C@_0CG@IGJCKADK@Space?5required?5after?5the?5entity@
CONST	SEGMENT
??_C@_0CG@IGJCKADK@Space?5required?5after?5the?5entity@ DB 'Space require'
	DB	'd after the entity name', 0aH, 00H		; `string'
CONST	ENDS
;	COMDAT ??_C@_0CP@IEOCAMEB@colons?5are?5forbidden?5from?5entit@
CONST	SEGMENT
??_C@_0CP@IEOCAMEB@colons?5are?5forbidden?5from?5entit@ DB 'colons are fo'
	DB	'rbidden from entities names ''%s''', 0aH, 00H ; `string'
CONST	ENDS
;	COMDAT ??_C@_0BN@GJOFDJCB@xmlParseEntityDecl?3?5no?5name?6@
CONST	SEGMENT
??_C@_0BN@GJOFDJCB@xmlParseEntityDecl?3?5no?5name?6@ DB 'xmlParseEntityDe'
	DB	'cl: no name', 0aH, 00H			; `string'
CONST	ENDS
;	COMDAT ??_C@_0BL@KGADBCMF@Space?5required?5after?5?8?$CF?$CF?8?6@
CONST	SEGMENT
??_C@_0BL@KGADBCMF@Space?5required?5after?5?8?$CF?$CF?8?6@ DB 'Space requ'
	DB	'ired after ''%%''', 0aH, 00H		; `string'
CONST	ENDS
;	COMDAT ??_C@_0CB@NEOBPNBE@Space?5required?5after?5?8?$DM?$CBENTITY?8@
CONST	SEGMENT
??_C@_0CB@NEOBPNBE@Space?5required?5after?5?8?$DM?$CBENTITY?8@ DB 'Space '
	DB	'required after ''<!ENTITY''', 0aH, 00H	; `string'
CONST	ENDS
;	COMDAT ??_C@_0EA@DCHCOJDP@Notation?5declaration?5doesn?8t?5st@
CONST	SEGMENT
??_C@_0EA@DCHCOJDP@Notation?5declaration?5doesn?8t?5st@ DB 'Notation decl'
	DB	'aration doesn''t start and stop in the same entity', 0aH, 00H ; `string'
CONST	ENDS
;	COMDAT ??_C@_0CJ@PMDGLIHG@Space?5required?5after?5the?5NOTATI@
CONST	SEGMENT
??_C@_0CJ@PMDGLIHG@Space?5required?5after?5the?5NOTATI@ DB 'Space require'
	DB	'd after the NOTATION name''', 0aH, 00H	; `string'
CONST	ENDS
;	COMDAT ??_C@_0CP@BOHPCDLP@colons?5are?5forbidden?5from?5notat@
CONST	SEGMENT
??_C@_0CP@BOHPCDLP@colons?5are?5forbidden?5from?5notat@ DB 'colons are fo'
	DB	'rbidden from notation names ''%s''', 0aH, 00H ; `string'
CONST	ENDS
;	COMDAT ??_C@_0CD@ILKLDDEI@Space?5required?5after?5?8?$DM?$CBNOTATIO@
CONST	SEGMENT
??_C@_0CD@ILKLDDEI@Space?5required?5after?5?8?$DM?$CBNOTATIO@ DB 'Space r'
	DB	'equired after ''<!NOTATION''', 0aH, 00H	; `string'
CONST	ENDS
;	COMDAT ??_C@_0BC@IDENENGP@oasis?9xml?9catalog@
CONST	SEGMENT
??_C@_0BC@IDENENGP@oasis?9xml?9catalog@ DB 'oasis-xml-catalog', 00H ; `string'
CONST	ENDS
;	COMDAT ??_C@_0BO@OGPJFKEP@ParsePI?3?5PI?5?$CFs?5never?5end?5?4?4?4?6@
CONST	SEGMENT
??_C@_0BO@OGPJFKEP@ParsePI?3?5PI?5?$CFs?5never?5end?5?4?4?4?6@ DB 'ParseP'
	DB	'I: PI %s never end ...', 0aH, 00H		; `string'
CONST	ENDS
;	COMDAT ??_C@_0BE@KDNCGJGM@PI?5?$CFs?5too?5big?5found@
CONST	SEGMENT
??_C@_0BE@KDNCGJGM@PI?5?$CFs?5too?5big?5found@ DB 'PI %s too big found', 00H ; `string'
CONST	ENDS
;	COMDAT ??_C@_0BP@KBNJPEOK@ParsePI?3?5PI?5?$CFs?5space?5expected?6@
CONST	SEGMENT
??_C@_0BP@KBNJPEOK@ParsePI?3?5PI?5?$CFs?5space?5expected?6@ DB 'ParsePI: '
	DB	'PI %s space expected', 0aH, 00H		; `string'
CONST	ENDS
;	COMDAT ??_C@_0DK@LAKAFNGA@PI?5declaration?5doesn?8t?5start?5an@
CONST	SEGMENT
??_C@_0DK@LAKAFNGA@PI?5declaration?5doesn?8t?5start?5an@ DB 'PI declarati'
	DB	'on doesn''t start and stop in the same entity', 0aH, 00H ; `string'
CONST	ENDS
;	COMDAT ??_C@_0BN@MALFACIE@Catalog?5PI?5syntax?5error?3?5?$CFs?6@
CONST	SEGMENT
??_C@_0BN@MALFACIE@Catalog?5PI?5syntax?5error?3?5?$CFs?6@ DB 'Catalog PI '
	DB	'syntax error: %s', 0aH, 00H			; `string'
CONST	ENDS
;	COMDAT ??_C@_07MFFOOIHD@catalog@
CONST	SEGMENT
??_C@_07MFFOOIHD@catalog@ DB 'catalog', 00H		; `string'
CONST	ENDS
;	COMDAT ??_C@_0CJ@KOKAGEDL@colons?5are?5forbidden?5from?5PI?5na@
CONST	SEGMENT
??_C@_0CJ@KOKAGEDL@colons?5are?5forbidden?5from?5PI?5na@ DB 'colons are f'
	DB	'orbidden from PI names ''%s''', 0aH, 00H	; `string'
CONST	ENDS
;	COMDAT ??_C@_0CN@KJOCGNCM@xmlParsePITarget?3?5invalid?5name?5@
CONST	SEGMENT
??_C@_0CN@KJOCGNCM@xmlParsePITarget?3?5invalid?5name?5@ DB 'xmlParsePITar'
	DB	'get: invalid name prefix ''xml''', 0aH, 00H	; `string'
CONST	ENDS
;	COMDAT ??_C@_0DL@PMHMGOPA@XML?5declaration?5allowed?5only?5at@
CONST	SEGMENT
??_C@_0DL@PMHMGOPA@XML?5declaration?5allowed?5only?5at@ DB 'XML declarati'
	DB	'on allowed only at the start of the document', 0aH, 00H ; `string'
CONST	ENDS
;	COMDAT ??_C@_0BO@PENANJHM@Double?5hyphen?5within?5comment?6@
CONST	SEGMENT
??_C@_0BO@PENANJHM@Double?5hyphen?5within?5comment?6@ DB 'Double hyphen w'
	DB	'ithin comment', 0aH, 00H			; `string'
CONST	ENDS
;	COMDAT ??_C@_0CJ@CBOBCJAG@Double?5hyphen?5within?5comment?3?5?$DM@
CONST	SEGMENT
??_C@_0CJ@CBOBCJAG@Double?5hyphen?5within?5comment?3?5?$DM@ DB 'Double hy'
	DB	'phen within comment: <!--%.50s', 0aH, 00H	; `string'
CONST	ENDS
;	COMDAT ??_C@_0DD@DDHAOEGP@comment?5doesn?8t?5start?5and?5stop?5@
CONST	SEGMENT
??_C@_0DD@DDHAOEGP@comment?5doesn?8t?5start?5and?5stop?5@ DB 'comment doe'
	DB	'sn''t start and stop in the same entity', 0aH, 00H ; `string'
CONST	ENDS
;	COMDAT ??_C@_0BI@ELKFFAAB@Comment?5not?5terminated?6@
CONST	SEGMENT
??_C@_0BI@ELKFFAAB@Comment?5not?5terminated?6@ DB 'Comment not terminated'
	DB	0aH, 00H					; `string'
CONST	ENDS
;	COMDAT ??_C@_0DD@BIJIOHJJ@Comment?5doesn?8t?5start?5and?5stop?5@
CONST	SEGMENT
??_C@_0DD@BIJIOHJJ@Comment?5doesn?8t?5start?5and?5stop?5@ DB 'Comment doe'
	DB	'sn''t start and stop in the same entity', 0aH, 00H ; `string'
CONST	ENDS
;	COMDAT ??_C@_0CD@MHPLKFMN@Comment?5not?5terminated?5?6?$DM?$CB?9?9?$CF?45@
CONST	SEGMENT
??_C@_0CD@MHPLKFMN@Comment?5not?5terminated?5?6?$DM?$CB?9?9?$CF?45@ DB 'C'
	DB	'omment not terminated ', 0aH, '<!--%.50s', 0aH, 00H ; `string'
CONST	ENDS
;	COMDAT ??_C@_0BG@BAOBDEOI@Comment?5too?5big?5found@
CONST	SEGMENT
??_C@_0BG@BAOBDEOI@Comment?5too?5big?5found@ DB 'Comment too big found', 00H ; `string'
CONST	ENDS
;	COMDAT ??_C@_0CL@FHECENFI@xmlParseComment?3?5invalid?5xmlCha@
CONST	SEGMENT
??_C@_0CL@FHECENFI@xmlParseComment?3?5invalid?5xmlCha@ DB 'xmlParseCommen'
	DB	't: invalid xmlChar value %d', 0aH, 00H	; `string'
CONST	ENDS
;	COMDAT ??_C@_0CM@PJLPICDD@Space?5required?5after?5the?5Public@
CONST	SEGMENT
??_C@_0CM@PJLPICDD@Space?5required?5after?5the?5Public@ DB 'Space require'
	DB	'd after the Public Identifier', 0aH, 00H	; `string'
CONST	ENDS
;	COMDAT ??_C@_0BP@EHONNEAJ@Space?5required?5after?5?8PUBLIC?8?6@
CONST	SEGMENT
??_C@_0BP@EHONNEAJ@Space?5required?5after?5?8PUBLIC?8?6@ DB 'Space requir'
	DB	'ed after ''PUBLIC''', 0aH, 00H		; `string'
CONST	ENDS
;	COMDAT ??_C@_0BP@CCMMHADN@Space?5required?5after?5?8SYSTEM?8?6@
CONST	SEGMENT
??_C@_0BP@CCMMHADN@Space?5required?5after?5?8SYSTEM?8?6@ DB 'Space requir'
	DB	'ed after ''SYSTEM''', 0aH, 00H		; `string'
CONST	ENDS
;	COMDAT ??_C@_0BO@IODKMKKF@PCDATA?5invalid?5Char?5value?5?$CFd?6@
CONST	SEGMENT
??_C@_0BO@IODKMKKF@PCDATA?5invalid?5Char?5value?5?$CFd?6@ DB 'PCDATA inva'
	DB	'lid Char value %d', 0aH, 00H		; `string'
CONST	ENDS
;	COMDAT ??_C@_09HLIINGHD@Public?5ID@
CONST	SEGMENT
??_C@_09HLIINGHD@Public?5ID@ DB 'Public ID', 00H	; `string'
CONST	ENDS
;	COMDAT ??_C@_0O@CPJEEBHF@SystemLiteral@
CONST	SEGMENT
??_C@_0O@CPJEEBHF@SystemLiteral@ DB 'SystemLiteral', 00H ; `string'
CONST	ENDS
;	COMDAT ??_C@_0BG@NKOFEMFC@AttValue?3?5?8?5expected?6@
CONST	SEGMENT
??_C@_0BG@NKOFEMFC@AttValue?3?5?8?5expected?6@ DB 'AttValue: '' expected', 0aH
	DB	00H						; `string'
CONST	ENDS
;	COMDAT ??_C@_0CG@LEIKKIHB@invalid?5character?5in?5attribute?5@
CONST	SEGMENT
??_C@_0CG@LEIKKIHB@invalid?5character?5in?5attribute?5@ DB 'invalid chara'
	DB	'cter in attribute value', 0aH, 00H		; `string'
CONST	ENDS
;	COMDAT ??_C@_0BK@JCFIEKOP@AttValue?5length?5too?5long?6@
CONST	SEGMENT
??_C@_0BK@JCFIEKOP@AttValue?5length?5too?5long?6@ DB 'AttValue length too'
	DB	' long', 0aH, 00H				; `string'
CONST	ENDS
;	COMDAT ??_C@_0DM@GJGLHMKL@EntityValue?3?5?8?$CFc?8?5forbidden?5exc@
CONST	SEGMENT
??_C@_0DM@GJGLHMKL@EntityValue?3?5?8?$CFc?8?5forbidden?5exc@ DB 'EntityVa'
	DB	'lue: ''%c'' forbidden except for entities references', 0aH, 00H ; `string'
CONST	ENDS
;	COMDAT ??_C@_07JJJDEIPB@NmToken@
CONST	SEGMENT
??_C@_07JJJDEIPB@NmToken@ DB 'NmToken', 00H		; `string'
CONST	ENDS
;	COMDAT ??_C@_06MDLHOHLI@NCName@
CONST	SEGMENT
??_C@_06MDLHOHLI@NCName@ DB 'NCName', 00H		; `string'
CONST	ENDS
;	COMDAT ??_C@_0CC@JIBKNHBD@unexpected?5change?5of?5input?5buff@
CONST	SEGMENT
??_C@_0CC@JIBKNHBD@unexpected?5change?5of?5input?5buff@ DB 'unexpected ch'
	DB	'ange of input buffer', 00H			; `string'
CONST	ENDS
;	COMDAT ??_C@_04FABLJDN@Name@
CONST	SEGMENT
??_C@_04FABLJDN@Name@ DB 'Name', 00H			; `string'
CONST	ENDS
;	COMDAT ??_C@_0CI@GHNHPHHB@Name?5?$CFs?5is?5not?5XML?5Namespace?5co@
CONST	SEGMENT
??_C@_0CI@GHNHPHHB@Name?5?$CFs?5is?5not?5XML?5Namespace?5co@ DB 'Name %s '
	DB	'is not XML Namespace compliant', 0aH, 00H	; `string'
CONST	ENDS
;	COMDAT ??_C@_00CNPNBAHC@@
CONST	SEGMENT
??_C@_00CNPNBAHC@@ DB 00H				; `string'
CONST	ENDS
;	COMDAT ??_C@_0DH@IENLJLFO@not?5validating?5will?5not?5read?5co@
CONST	SEGMENT
??_C@_0DH@IENLJLFO@not?5validating?5will?5not?5read?5co@ DB 'not validati'
	DB	'ng will not read content for PE entity %s', 0aH, 00H ; `string'
CONST	ENDS
;	COMDAT ??_C@_0CF@DIAKJGNK@String?5decoding?5PE?5Reference?3?5?$CF@
CONST	SEGMENT
??_C@_0CF@DIAKJGNK@String?5decoding?5PE?5Reference?3?5?$CF@ DB 'String de'
	DB	'coding PE Reference: %.30s', 0aH, 00H	; `string'
CONST	ENDS
;	COMDAT ??_C@_0CC@KGDPFIJL@predefined?5entity?5has?5no?5conten@
CONST	SEGMENT
??_C@_0CC@KGDPFIJL@predefined?5entity?5has?5no?5conten@ DB 'predefined en'
	DB	'tity has no content', 0aH, 00H		; `string'
CONST	ENDS
;	COMDAT ??_C@_0CJ@JICBMJMM@String?5decoding?5Entity?5Referenc@
CONST	SEGMENT
??_C@_0CJ@JICBMJMM@String?5decoding?5Entity?5Referenc@ DB 'String decodin'
	DB	'g Entity Reference: %.30s', 0aH, 00H	; `string'
CONST	ENDS
;	COMDAT ??_C@_0DB@EJFBNJEE@xmlParseStringCharRef?3?5invalid?5@
CONST	SEGMENT
??_C@_0DB@EJFBNJEE@xmlParseStringCharRef?3?5invalid?5@ DB 'xmlParseString'
	DB	'CharRef: invalid xmlChar value %d', 0aH, 00H ; `string'
CONST	ENDS
;	COMDAT ??_C@_0CL@KEGPHPPF@xmlParseCharRef?3?5invalid?5xmlCha@
CONST	SEGMENT
??_C@_0CL@KEGPHPPF@xmlParseCharRef?3?5invalid?5xmlCha@ DB 'xmlParseCharRe'
	DB	'f: invalid xmlChar value %d', 0aH, 00H	; `string'
CONST	ENDS
;	COMDAT ??_C@_0BK@IPLLKNJK@Pushing?5input?5?$CFd?5?3?5?$CF?430s?6@
CONST	SEGMENT
??_C@_0BK@IPLLKNJK@Pushing?5input?5?$CFd?5?3?5?$CF?430s?6@ DB 'Pushing in'
	DB	'put %d : %.30s', 0aH, 00H			; `string'
CONST	ENDS
;	COMDAT ??_C@_08FFIMCMGN@?$CFs?$CI?$CFd?$CJ?3?5@
CONST	SEGMENT
??_C@_08FFIMCMGN@?$CFs?$CI?$CFd?$CJ?3?5@ DB '%s(%d): ', 00H ; `string'
CONST	ENDS
;	COMDAT ??_C@_0CC@JODEMIEP@Unfinished?5entity?5outside?5the?5D@
CONST	SEGMENT
??_C@_0CC@JODEMIEP@Unfinished?5entity?5outside?5the?5D@ DB 'Unfinished en'
	DB	'tity outside the DTD', 00H			; `string'
CONST	ENDS
;	COMDAT ??_C@_0BC@LEKDBCEK@Popping?5input?5?$CFd?6@
CONST	SEGMENT
??_C@_0BC@LEKDBCEK@Popping?5input?5?$CFd?6@ DB 'Popping input %d', 0aH, 00H ; `string'
CONST	ENDS
;	COMDAT ??_C@_0BH@JOKBAJC@cur?5index?5out?5of?5bound@
CONST	SEGMENT
??_C@_0BH@JOKBAJC@cur?5index?5out?5of?5bound@ DB 'cur index out of bound', 00H ; `string'
CONST	ENDS
;	COMDAT ??_C@_0BC@BAMNGBKO@Huge?5input?5lookup@
CONST	SEGMENT
??_C@_0BC@BAMNGBKO@Huge?5input?5lookup@ DB 'Huge input lookup', 00H ; `string'
CONST	ENDS
;	COMDAT ??_C@_0DL@HADOBDDE@Excessive?5depth?5in?5document?3?5?$CFd@
CONST	SEGMENT
??_C@_0DL@HADOBDDE@Excessive?5depth?5in?5document?3?5?$CFd@ DB 'Excessive'
	DB	' depth in document: %d use XML_PARSE_HUGE option', 0aH, 00H ; `string'
CONST	ENDS
;	COMDAT ??_C@_0BD@KIFBOAFI@Pbm?5popping?5?$CFd?5NS?6@
CONST	SEGMENT
??_C@_0BD@KIFBOAFI@Pbm?5popping?5?$CFd?5NS?6@ DB 'Pbm popping %d NS', 0aH
	DB	00H						; `string'
CONST	ENDS
;	COMDAT ??_C@_08OIBPHJGN@external@
CONST	SEGMENT
??_C@_08OIBPHJGN@external@ DB 'external', 00H		; `string'
CONST	ENDS
;	COMDAT ??_C@_0CF@GLDAAHFK@http?3?1?1www?4w3?4org?1XML?11998?1name@
CONST	SEGMENT
??_C@_0CF@GLDAAHFK@http?3?1?1www?4w3?4org?1XML?11998?1name@ DB 'http://ww'
	DB	'w.w3.org/XML/1998/namespace', 00H		; `string'
CONST	ENDS
;	COMDAT ??_C@_05PPEFOGKI@xmlns@
CONST	SEGMENT
??_C@_05PPEFOGKI@xmlns@ DB 'xmlns', 00H			; `string'
CONST	ENDS
;	COMDAT ??_C@_03PJHHNEEI@xml@
CONST	SEGMENT
??_C@_03PJHHNEEI@xml@ DB 'xml', 00H			; `string'
CONST	ENDS
;	COMDAT ??_C@_02DKCKIIND@?$CFs@
CONST	SEGMENT
??_C@_02DKCKIIND@?$CFs@ DB '%s', 00H			; `string'
CONST	ENDS
;	COMDAT ??_C@_07KJFPOMFC@?$CFs?3?5?$CFs?6@
CONST	SEGMENT
??_C@_07KJFPOMFC@?$CFs?3?5?$CFs?6@ DB '%s: %s', 0aH, 00H ; `string'
CONST	ENDS
;	COMDAT ??_C@_03OFAPEBGM@?$CFs?6@
CONST	SEGMENT
??_C@_03OFAPEBGM@?$CFs?6@ DB '%s', 0aH, 00H		; `string'
CONST	ENDS
;	COMDAT ??_C@_0BL@COECCIID@Unregistered?5error?5message@
CONST	SEGMENT
??_C@_0BL@COECCIID@Unregistered?5error?5message@ DB 'Unregistered error m'
	DB	'essage', 00H				; `string'
CONST	ENDS
;	COMDAT ??_C@_0CI@CJGDNBNK@Name?5too?5long?5use?5XML_PARSE_HUG@
CONST	SEGMENT
??_C@_0CI@CJGDNBNK@Name?5too?5long?5use?5XML_PARSE_HUG@ DB 'Name too long'
	DB	' use XML_PARSE_HUGE option', 00H		; `string'
CONST	ENDS
;	COMDAT ??_C@_0CI@FHFOLBEM@Malformed?5declaration?5expecting@
CONST	SEGMENT
??_C@_0CI@FHFOLBEM@Malformed?5declaration?5expecting@ DB 'Malformed decla'
	DB	'ration expecting version', 00H		; `string'
CONST	ENDS
;	COMDAT ??_C@_0DA@BPKCCNLP@extra?5content?5at?5the?5end?5of?5wel@
CONST	SEGMENT
??_C@_0DA@BPKCCNLP@extra?5content?5at?5the?5end?5of?5wel@ DB 'extra conte'
	DB	'nt at the end of well balanced chunk', 00H	; `string'
CONST	ENDS
;	COMDAT ??_C@_0BL@EKLHFGHK@chunk?5is?5not?5well?5balanced@
CONST	SEGMENT
??_C@_0BL@EKLHFGHK@chunk?5is?5not?5well?5balanced@ DB 'chunk is not well '
	DB	'balanced', 00H				; `string'
CONST	ENDS
;	COMDAT ??_C@_0CJ@JKANOFNI@Extra?5content?5at?5the?5end?5of?5the@
CONST	SEGMENT
??_C@_0CJ@JKANOFNI@Extra?5content?5at?5the?5end?5of?5the@ DB 'Extra conte'
	DB	'nt at the end of the document', 00H		; `string'
CONST	ENDS
;	COMDAT ??_C@_0BC@LDMJLCHP@Document?5is?5empty@
CONST	SEGMENT
??_C@_0BC@LDMJLCHP@Document?5is?5empty@ DB 'Document is empty', 00H ; `string'
CONST	ENDS
;	COMDAT ??_C@_0CG@MBLHCBEE@standalone?5accepts?5only?5?8yes?8?5o@
CONST	SEGMENT
??_C@_0CG@MBLHCBEE@standalone?5accepts?5only?5?8yes?8?5o@ DB 'standalone '
	DB	'accepts only ''yes'' or ''no''', 00H	; `string'
CONST	ENDS
;	COMDAT ??_C@_0BK@CMOJKGNC@Invalid?5XML?5encoding?5name@
CONST	SEGMENT
??_C@_0BK@CMOJKGNC@Invalid?5XML?5encoding?5name@ DB 'Invalid XML encoding'
	DB	' name', 00H					; `string'
CONST	ENDS
;	COMDAT ??_C@_0CE@EGHHEGNE@String?5not?5started?5expecting?5?8?5@
CONST	SEGMENT
??_C@_0CE@EGHHEGNE@String?5not?5started?5expecting?5?8?5@ DB 'String not '
	DB	'started expecting '' or "', 00H		; `string'
CONST	ENDS
;	COMDAT ??_C@_0CD@GLDIEMIA@String?5not?5closed?5expecting?5?$CC?5o@
CONST	SEGMENT
??_C@_0CD@GLDIEMIA@String?5not?5closed?5expecting?5?$CC?5o@ DB 'String no'
	DB	't closed expecting " or ''', 00H		; `string'
CONST	ENDS
;	COMDAT ??_C@_0N@FLAMKNN@expected?5?8?$DN?8@
CONST	SEGMENT
??_C@_0N@FLAMKNN@expected?5?8?$DN?8@ DB 'expected ''=''', 00H ; `string'
CONST	ENDS
;	COMDAT ??_C@_0BH@ELMJBAIC@EndTag?3?5?8?$DM?1?8?5not?5found@
CONST	SEGMENT
??_C@_0BH@ELMJBAIC@EndTag?3?5?8?$DM?1?8?5not?5found@ DB 'EndTag: ''</'' n'
	DB	'ot found', 00H				; `string'
CONST	ENDS
;	COMDAT ??_C@_0BO@NIFLODD@DOCTYPE?5improperly?5terminated@
CONST	SEGMENT
??_C@_0BO@NIFLODD@DOCTYPE?5improperly?5terminated@ DB 'DOCTYPE improperly'
	DB	' terminated', 00H				; `string'
CONST	ENDS
;	COMDAT ??_C@_0BJ@KLEMOBLL@EntityRef?3?5expecting?5?8?$DL?8@
CONST	SEGMENT
??_C@_0BJ@KLEMOBLL@EntityRef?3?5expecting?5?8?$DL?8@ DB 'EntityRef: expec'
	DB	'ting '';''', 00H				; `string'
CONST	ENDS
;	COMDAT ??_C@_0CO@LJALGGHL@external?5parsed?5entities?5cannot@
CONST	SEGMENT
??_C@_0CO@LJALGGHL@external?5parsed?5entities?5cannot@ DB 'external parse'
	DB	'd entities cannot be standalone', 00H	; `string'
CONST	ENDS
;	COMDAT ??_C@_0CH@DOCCAFM@parsing?5XML?5declaration?3?5?8?$DP?$DO?8?5e@
CONST	SEGMENT
??_C@_0CH@DOCCAFM@parsing?5XML?5declaration?3?5?8?$DP?$DO?8?5e@ DB 'parsi'
	DB	'ng XML declaration: ''?>'' expected', 00H	; `string'
CONST	ENDS
;	COMDAT ??_C@_0CC@HHECNJCA@Text?5declaration?5?8?$DM?$DPxml?8?5requir@
CONST	SEGMENT
??_C@_0CC@HHECNJCA@Text?5declaration?5?8?$DM?$DPxml?8?5requir@ DB 'Text d'
	DB	'eclaration ''<?xml'' required', 00H		; `string'
CONST	ENDS
;	COMDAT ??_C@_0CD@OHPJFFIN@XML?5conditional?5section?5not?5clo@
CONST	SEGMENT
??_C@_0CD@OHPJFFIN@XML?5conditional?5section?5not?5clo@ DB 'XML condition'
	DB	'al section not closed', 00H			; `string'
CONST	ENDS
;	COMDAT ??_C@_0DH@JDEKAAA@conditional?5section?5INCLUDE?5or?5@
CONST	SEGMENT
??_C@_0DH@JDEKAAA@conditional?5section?5INCLUDE?5or?5@ DB 'conditional se'
	DB	'ction INCLUDE or IGNORE keyword expected', 00H ; `string'
CONST	ENDS
;	COMDAT ??_C@_0CF@HHCGNGIK@Content?5error?5in?5the?5external?5s@
CONST	SEGMENT
??_C@_0CF@HHCGNGIK@Content?5error?5in?5the?5external?5s@ DB 'Content erro'
	DB	'r in the external subset', 00H		; `string'
CONST	ENDS
;	COMDAT ??_C@_0CF@GGBMHDE@XML?5conditional?5section?5?8?$FL?8?5exp@
CONST	SEGMENT
??_C@_0CF@GGBMHDE@XML?5conditional?5section?5?8?$FL?8?5exp@ DB 'XML condi'
	DB	'tional section ''['' expected', 00H		; `string'
CONST	ENDS
;	COMDAT ??_C@_0N@HPGHEIE@expected?5?8?$DO?8@
CONST	SEGMENT
??_C@_0N@HPGHEIE@expected?5?8?$DO?8@ DB 'expected ''>''', 00H ; `string'
CONST	ENDS
;	COMDAT ??_C@_0DN@CEDHFOGD@PEReference?3?5forbidden?5within?5m@
CONST	SEGMENT
??_C@_0DN@CEDHFOGD@PEReference?3?5forbidden?5within?5m@ DB 'PEReference: '
	DB	'forbidden within markup decl in internal subset', 00H ; `string'
CONST	ENDS
;	COMDAT ??_C@_0CG@EHNJPHMB@ContentDecl?5?3?5?8?0?8?5?8?$HM?8?5or?5?8?$CJ?8?5ex@
CONST	SEGMENT
??_C@_0CG@EHNJPHMB@ContentDecl?5?3?5?8?0?8?5?8?$HM?8?5or?5?8?$CJ?8?5ex@ DB 'C'
	DB	'ontentDecl : '','' ''|'' or '')'' expected', 00H ; `string'
CONST	ENDS
;	COMDAT ??_C@_0CD@NHADBOBB@ContentDecl?5?3?5Name?5or?5?8?$CI?8?5expec@
CONST	SEGMENT
??_C@_0CD@NHADBOBB@ContentDecl?5?3?5Name?5or?5?8?$CI?8?5expec@ DB 'Conten'
	DB	'tDecl : Name or ''('' expected', 00H	; `string'
CONST	ENDS
;	COMDAT ??_C@_0CG@HEHENOGB@MixedContentDecl?5?3?5?8?$CDPCDATA?8?5ex@
CONST	SEGMENT
??_C@_0CG@HEHENOGB@MixedContentDecl?5?3?5?8?$CDPCDATA?8?5ex@ DB 'MixedCon'
	DB	'tentDecl : ''#PCDATA'' expected', 00H	; `string'
CONST	ENDS
;	COMDAT ??_C@_0CI@LOAMKAA@MixedContentDecl?5?3?5?8?$HM?8?5or?5?8?$CJ?$CK?8?5@
CONST	SEGMENT
??_C@_0CI@LOAMKAA@MixedContentDecl?5?3?5?8?$HM?8?5or?5?8?$CJ?$CK?8?5@ DB 'M'
	DB	'ixedContentDecl : ''|'' or '')*'' expected', 00H ; `string'
CONST	ENDS
;	COMDAT ??_C@_0CL@KPIIIINI@?8?$CJ?8?5required?5to?5finish?5ATTLIST?5@
CONST	SEGMENT
??_C@_0CL@KPIIIINI@?8?$CJ?8?5required?5to?5finish?5ATTLIST?5@ DB ''')'' r'
	DB	'equired to finish ATTLIST enumeration', 00H	; `string'
CONST	ENDS
;	COMDAT ??_C@_0CI@EHCBGKID@NmToken?5expected?5in?5ATTLIST?5enu@
CONST	SEGMENT
??_C@_0CI@EHCBGKID@NmToken?5expected?5in?5ATTLIST?5enu@ DB 'NmToken expec'
	DB	'ted in ATTLIST enumeration', 00H		; `string'
CONST	ENDS
;	COMDAT ??_C@_0CK@NNFMCGNH@?8?$CI?8?5required?5to?5start?5ATTLIST?5e@
CONST	SEGMENT
??_C@_0CK@NNFMCGNH@?8?$CI?8?5required?5to?5start?5ATTLIST?5e@ DB '''('' r'
	DB	'equired to start ATTLIST enumeration', 00H	; `string'
CONST	ENDS
;	COMDAT ??_C@_0BF@DMGJOFPK@Fragment?5not?5allowed@
CONST	SEGMENT
??_C@_0BF@DMGJOFPK@Fragment?5not?5allowed@ DB 'Fragment not allowed', 00H ; `string'
CONST	ENDS
;	COMDAT ??_C@_0BG@LMNHCPFE@Entity?5value?5required@
CONST	SEGMENT
??_C@_0BG@LMNHCPFE@Entity?5value?5required@ DB 'Entity value required', 00H ; `string'
CONST	ENDS
;	COMDAT ??_C@_0CL@MHMGOJAD@?8?$DO?8?5required?5to?5close?5NOTATION?5@
CONST	SEGMENT
??_C@_0CL@MHMGOJAD@?8?$DO?8?5required?5to?5close?5NOTATION?5@ DB '''>'' r'
	DB	'equired to close NOTATION declaration', 00H	; `string'
CONST	ENDS
;	COMDAT ??_C@_0BN@HECCFNBP@NOTATION?3?5Name?5expected?5here@
CONST	SEGMENT
??_C@_0BN@HECCFNBP@NOTATION?3?5Name?5expected?5here@ DB 'NOTATION: Name e'
	DB	'xpected here', 00H				; `string'
CONST	ENDS
;	COMDAT ??_C@_0BA@KMPMBNCM@Invalid?5PI?5name@
CONST	SEGMENT
??_C@_0BA@KMPMBNCM@Invalid?5PI?5name@ DB 'Invalid PI name', 00H ; `string'
CONST	ENDS
;	COMDAT ??_C@_0BM@HPBPCNCM@xmlParsePI?5?3?5no?5target?5name@
CONST	SEGMENT
??_C@_0BM@HPBPCNCM@xmlParsePI?5?3?5no?5target?5name@ DB 'xmlParsePI : no '
	DB	'target name', 00H				; `string'
CONST	ENDS
;	COMDAT ??_C@_0CO@IKEFGBAE@Comment?5must?5not?5contain?5?8?9?9?8?5?$CI@
CONST	SEGMENT
??_C@_0CO@IKEFGBAE@Comment?5must?5not?5contain?5?8?9?9?8?5?$CI@ DB 'Comme'
	DB	'nt must not contain ''--'' (double-hyphen)', 00H ; `string'
CONST	ENDS
;	COMDAT ??_C@_0CJ@ICNPKBIN@PUBLIC?0?5the?5Public?5Identifier?5i@
CONST	SEGMENT
??_C@_0CJ@ICNPKBIN@PUBLIC?0?5the?5Public?5Identifier?5i@ DB 'PUBLIC, the '
	DB	'Public Identifier is missing', 00H		; `string'
CONST	ENDS
;	COMDAT ??_C@_0CF@GDPMMHJJ@SYSTEM?5or?5PUBLIC?0?5the?5URI?5is?5mi@
CONST	SEGMENT
??_C@_0CF@GDPMMHJJ@SYSTEM?5or?5PUBLIC?0?5the?5URI?5is?5mi@ DB 'SYSTEM or '
	DB	'PUBLIC, the URI is missing', 00H		; `string'
CONST	ENDS
;	COMDAT ??_C@_0CG@PLPMIKHI@Sequence?5?8?$FN?$FN?$DO?8?5not?5allowed?5in?5c@
CONST	SEGMENT
??_C@_0CG@PLPMIKHI@Sequence?5?8?$FN?$FN?$DO?8?5not?5allowed?5in?5c@ DB 'S'
	DB	'equence '']]>'' not allowed in content', 00H ; `string'
CONST	ENDS
;	COMDAT ??_C@_0CP@PIPOCKJD@Unfinished?5System?5or?5Public?5ID?5@
CONST	SEGMENT
??_C@_0CP@PIPOCKJD@Unfinished?5System?5or?5Public?5ID?5@ DB 'Unfinished S'
	DB	'ystem or Public ID " or '' expected', 00H	; `string'
CONST	ENDS
;	COMDAT ??_C@_0BO@NINNHDOL@SystemLiteral?5?$CC?5or?5?8?5expected@
CONST	SEGMENT
??_C@_0BO@NINNHDOL@SystemLiteral?5?$CC?5or?5?8?5expected@ DB 'SystemLiter'
	DB	'al " or '' expected', 00H			; `string'
CONST	ENDS
;	COMDAT ??_C@_0CP@FNIFNHDI@Unescaped?5?8?$DM?8?5not?5allowed?5in?5at@
CONST	SEGMENT
??_C@_0CP@FNIFNHDI@Unescaped?5?8?$DM?8?5not?5allowed?5in?5at@ DB 'Unescap'
	DB	'ed ''<'' not allowed in attributes values', 00H ; `string'
CONST	ENDS
;	COMDAT ??_C@_0BK@ELBMECGA@AttValue?3?5?$CC?5or?5?8?5expected@
CONST	SEGMENT
??_C@_0BK@ELBMECGA@AttValue?3?5?$CC?5or?5?8?5expected@ DB 'AttValue: " or'
	DB	' '' expected', 00H				; `string'
CONST	ENDS
;	COMDAT ??_C@_0CK@GAJOCPOL@PEReferences?5forbidden?5in?5inter@
CONST	SEGMENT
??_C@_0CK@GAJOCPOL@PEReferences?5forbidden?5in?5inter@ DB 'PEReferences f'
	DB	'orbidden in internal subset', 00H		; `string'
CONST	ENDS
;	COMDAT ??_C@_0BN@DPACNJHE@EntityValue?3?5?$CC?5or?5?8?5expected@
CONST	SEGMENT
??_C@_0BN@DPACNJHE@EntityValue?3?5?$CC?5or?5?8?5expected@ DB 'EntityValue'
	DB	': " or '' expected', 00H			; `string'
CONST	ENDS
;	COMDAT ??_C@_0CC@LFHGNGFD@Detected?5an?5entity?5reference?5lo@
CONST	SEGMENT
??_C@_0CC@LFHGNGFD@Detected?5an?5entity?5reference?5lo@ DB 'Detected an e'
	DB	'ntity reference loop', 00H			; `string'
CONST	ENDS
;	COMDAT ??_C@_0BL@PFALGNCI@PEReference?3?5expecting?5?8?$DL?8@
CONST	SEGMENT
??_C@_0BL@PFALGNCI@PEReference?3?5expecting?5?8?$DL?8@ DB 'PEReference: e'
	DB	'xpecting '';''', 00H			; `string'
CONST	ENDS
;	COMDAT ??_C@_0BF@DCHKIALM@PEReference?3?5no?5name@
CONST	SEGMENT
??_C@_0BF@DCHKIALM@PEReference?3?5no?5name@ DB 'PEReference: no name', 00H ; `string'
CONST	ENDS
;	COMDAT ??_C@_0BG@JMKGIIGE@PEReference?5in?5epilog@
CONST	SEGMENT
??_C@_0BG@JMKGIIGE@PEReference?5in?5epilog@ DB 'PEReference in epilog', 00H ; `string'
CONST	ENDS
;	COMDAT ??_C@_0BG@GLMIGPKG@PEReference?5in?5prolog@
CONST	SEGMENT
??_C@_0BG@GLMIGPKG@PEReference?5in?5prolog@ DB 'PEReference in prolog', 00H ; `string'
CONST	ENDS
;	COMDAT ??_C@_0BP@MALDLPDI@PEReference?5at?5end?5of?5document@
CONST	SEGMENT
??_C@_0BP@MALDLPDI@PEReference?5at?5end?5of?5document@ DB 'PEReference at'
	DB	' end of document', 00H			; `string'
CONST	ENDS
;	COMDAT ??_C@_0P@LPIEGNHB@internal?5error@
CONST	SEGMENT
??_C@_0P@LPIEGNHB@internal?5error@ DB 'internal error', 00H ; `string'
CONST	ENDS
;	COMDAT ??_C@_0BH@OCLALBPG@CharRef?3?5invalid?5value@
CONST	SEGMENT
??_C@_0BH@OCLALBPG@CharRef?3?5invalid?5value@ DB 'CharRef: invalid value', 00H ; `string'
CONST	ENDS
;	COMDAT ??_C@_0BP@DEJKBBIB@CharRef?3?5invalid?5decimal?5value@
CONST	SEGMENT
??_C@_0BP@DEJKBBIB@CharRef?3?5invalid?5decimal?5value@ DB 'CharRef: inval'
	DB	'id decimal value', 00H			; `string'
CONST	ENDS
;	COMDAT ??_C@_0CD@IIBKOMHK@CharRef?3?5invalid?5hexadecimal?5va@
CONST	SEGMENT
??_C@_0CD@IIBKOMHK@CharRef?3?5invalid?5hexadecimal?5va@ DB 'CharRef: inva'
	DB	'lid hexadecimal value', 00H			; `string'
CONST	ENDS
;	COMDAT ??_C@_0BL@GJOEMOIC@Attribute?5?$CFs?3?$CFs?5redefined?6@
CONST	SEGMENT
??_C@_0BL@GJOEMOIC@Attribute?5?$CFs?3?$CFs?5redefined?6@ DB 'Attribute %s'
	DB	':%s redefined', 0aH, 00H			; `string'
CONST	ENDS
;	COMDAT ??_C@_0BI@LJKBJNKP@Attribute?5?$CFs?5redefined?6@
CONST	SEGMENT
??_C@_0BI@LJKBJNKP@Attribute?5?$CFs?5redefined?6@ DB 'Attribute %s redefi'
	DB	'ned', 0aH, 00H				; `string'
CONST	ENDS
_DATA	SEGMENT
_xmlW3CPIs DD	FLAT:??_C@_0P@HPOCOPDB@xml?9stylesheet@
	DD	FLAT:??_C@_09OBPBGIJC@xml?9model@
	DD	00H
_DATA	ENDS
; Function compile flags: /Odt
;	COMDAT __JustMyCode_Default
_TEXT	SEGMENT
__JustMyCode_Default PROC				; COMDAT
	push	ebp
	mov	ebp, esp
	pop	ebp
	ret	0
__JustMyCode_Default ENDP
_TEXT	ENDS
; Function compile flags: /Odtp /RTCsu
; File c:\users\dag\documents\_clients\codeproject authors group\windows on arm\libxml2\libxml2-2.9.9\parser.c
;	COMDAT _xmlDoRead
_TEXT	SEGMENT
_hdlr$1 = -8						; size = 4
_ret$ = -4						; size = 4
_ctxt$ = 8						; size = 4
_URL$ = 12						; size = 4
_encoding$ = 16						; size = 4
_options$ = 20						; size = 4
_reuse$ = 24						; size = 4
_xmlDoRead PROC						; COMDAT

; 15184: {

	push	ebp
	mov	ebp, esp
	sub	esp, 8
	mov	DWORD PTR [ebp-8], -858993460		; ccccccccH
	mov	DWORD PTR [ebp-4], -858993460		; ccccccccH
	mov	ecx, OFFSET __B9AC27D5_parser@c
	call	@__CheckForDebuggerJustMyCode@4

; 15185:     xmlDocPtr ret;
; 15186: 
; 15187:     xmlCtxtUseOptionsInternal(ctxt, options, encoding);

	mov	eax, DWORD PTR _encoding$[ebp]
	push	eax
	mov	ecx, DWORD PTR _options$[ebp]
	push	ecx
	mov	edx, DWORD PTR _ctxt$[ebp]
	push	edx
	call	_xmlCtxtUseOptionsInternal
	add	esp, 12					; 0000000cH

; 15188:     if (encoding != NULL) {

	cmp	DWORD PTR _encoding$[ebp], 0
	je	SHORT $LN2@xmlDoRead

; 15189:         xmlCharEncodingHandlerPtr hdlr;
; 15190: 
; 15191: 	hdlr = xmlFindCharEncodingHandler(encoding);

	mov	eax, DWORD PTR _encoding$[ebp]
	push	eax
	call	_xmlFindCharEncodingHandler
	add	esp, 4
	mov	DWORD PTR _hdlr$1[ebp], eax

; 15192: 	if (hdlr != NULL)

	cmp	DWORD PTR _hdlr$1[ebp], 0
	je	SHORT $LN2@xmlDoRead

; 15193: 	    xmlSwitchToEncoding(ctxt, hdlr);

	mov	ecx, DWORD PTR _hdlr$1[ebp]
	push	ecx
	mov	edx, DWORD PTR _ctxt$[ebp]
	push	edx
	call	_xmlSwitchToEncoding
	add	esp, 8
$LN2@xmlDoRead:

; 15194:     }
; 15195:     if ((URL != NULL) && (ctxt->input != NULL) &&

	cmp	DWORD PTR _URL$[ebp], 0
	je	SHORT $LN4@xmlDoRead
	mov	eax, DWORD PTR _ctxt$[ebp]
	cmp	DWORD PTR [eax+36], 0
	je	SHORT $LN4@xmlDoRead
	mov	ecx, DWORD PTR _ctxt$[ebp]
	mov	edx, DWORD PTR [ecx+36]
	cmp	DWORD PTR [edx+4], 0
	jne	SHORT $LN4@xmlDoRead

; 15196:         (ctxt->input->filename == NULL))
; 15197:         ctxt->input->filename = (char *) xmlStrdup((const xmlChar *) URL);

	mov	eax, DWORD PTR _URL$[ebp]
	push	eax
	call	_xmlStrdup
	add	esp, 4
	mov	ecx, DWORD PTR _ctxt$[ebp]
	mov	edx, DWORD PTR [ecx+36]
	mov	DWORD PTR [edx+4], eax
$LN4@xmlDoRead:

; 15198:     xmlParseDocument(ctxt);

	mov	eax, DWORD PTR _ctxt$[ebp]
	push	eax
	call	_xmlParseDocument
	add	esp, 4

; 15199:     if ((ctxt->wellFormed) || ctxt->recovery)

	mov	ecx, DWORD PTR _ctxt$[ebp]
	cmp	DWORD PTR [ecx+12], 0
	jne	SHORT $LN7@xmlDoRead
	mov	edx, DWORD PTR _ctxt$[ebp]
	cmp	DWORD PTR [edx+288], 0
	je	SHORT $LN5@xmlDoRead
$LN7@xmlDoRead:

; 15200:         ret = ctxt->myDoc;

	mov	eax, DWORD PTR _ctxt$[ebp]
	mov	ecx, DWORD PTR [eax+8]
	mov	DWORD PTR _ret$[ebp], ecx
	jmp	SHORT $LN6@xmlDoRead
$LN5@xmlDoRead:

; 15201:     else {
; 15202:         ret = NULL;

	mov	DWORD PTR _ret$[ebp], 0

; 15203: 	if (ctxt->myDoc != NULL) {

	mov	edx, DWORD PTR _ctxt$[ebp]
	cmp	DWORD PTR [edx+8], 0
	je	SHORT $LN6@xmlDoRead

; 15204: 	    xmlFreeDoc(ctxt->myDoc);

	mov	eax, DWORD PTR _ctxt$[ebp]
	mov	ecx, DWORD PTR [eax+8]
	push	ecx
	call	_xmlFreeDoc
	add	esp, 4
$LN6@xmlDoRead:

; 15205: 	}
; 15206:     }
; 15207:     ctxt->myDoc = NULL;

	mov	edx, DWORD PTR _ctxt$[ebp]
	mov	DWORD PTR [edx+8], 0

; 15208:     if (!reuse) {

	cmp	DWORD PTR _reuse$[ebp], 0
	jne	SHORT $LN9@xmlDoRead

; 15209: 	xmlFreeParserCtxt(ctxt);

	mov	eax, DWORD PTR _ctxt$[ebp]
	push	eax
	call	_xmlFreeParserCtxt
	add	esp, 4
$LN9@xmlDoRead:

; 15210:     }
; 15211: 
; 15212:     return (ret);

	mov	eax, DWORD PTR _ret$[ebp]

; 15213: }

	add	esp, 8
	cmp	ebp, esp
	call	__RTC_CheckEsp
	mov	esp, ebp
	pop	ebp
	ret	0
_xmlDoRead ENDP
_TEXT	ENDS
; Function compile flags: /Odtp /RTCsu
; File c:\users\dag\documents\_clients\codeproject authors group\windows on arm\libxml2\libxml2-2.9.9\parser.c
;	COMDAT _xmlParseCheckTransition
_TEXT	SEGMENT
tv147 = -24						; size = 4
tv137 = -20						; size = 4
tv129 = -16						; size = 4
tv89 = -12						; size = 4
tv81 = -8						; size = 4
tv73 = -4						; size = 4
_ctxt$ = 8						; size = 4
_chunk$ = 12						; size = 4
_size$ = 16						; size = 4
_xmlParseCheckTransition PROC				; COMDAT

; 12084: xmlParseCheckTransition(xmlParserCtxtPtr ctxt, const char *chunk, int size) {

	push	ebp
	mov	ebp, esp
	sub	esp, 24					; 00000018H
	mov	eax, -858993460				; ccccccccH
	mov	DWORD PTR [ebp-24], eax
	mov	DWORD PTR [ebp-20], eax
	mov	DWORD PTR [ebp-16], eax
	mov	DWORD PTR [ebp-12], eax
	mov	DWORD PTR [ebp-8], eax
	mov	DWORD PTR [ebp-4], eax
	mov	ecx, OFFSET __B9AC27D5_parser@c
	call	@__CheckForDebuggerJustMyCode@4

; 12085:     if ((ctxt == NULL) || (chunk == NULL) || (size < 0))

	cmp	DWORD PTR _ctxt$[ebp], 0
	je	SHORT $LN3@xmlParseCh
	cmp	DWORD PTR _chunk$[ebp], 0
	je	SHORT $LN3@xmlParseCh
	cmp	DWORD PTR _size$[ebp], 0
	jge	SHORT $LN2@xmlParseCh
$LN3@xmlParseCh:

; 12086:         return(-1);

	or	eax, -1
	jmp	$LN1@xmlParseCh
$LN2@xmlParseCh:

; 12087:     if (ctxt->instate == XML_PARSER_START_TAG) {

	mov	eax, DWORD PTR _ctxt$[ebp]
	cmp	DWORD PTR [eax+172], 6
	jne	SHORT $LN4@xmlParseCh

; 12088:         if (memchr(chunk, '>', size) != NULL)

	mov	ecx, DWORD PTR _size$[ebp]
	push	ecx
	push	62					; 0000003eH
	mov	edx, DWORD PTR _chunk$[ebp]
	push	edx
	call	_memchr
	add	esp, 12					; 0000000cH
	mov	DWORD PTR tv73[ebp], eax
	cmp	DWORD PTR tv73[ebp], 0
	je	SHORT $LN5@xmlParseCh

; 12089:             return(1);

	mov	eax, 1
	jmp	$LN1@xmlParseCh
$LN5@xmlParseCh:

; 12090:         return(0);

	xor	eax, eax
	jmp	$LN1@xmlParseCh
$LN4@xmlParseCh:

; 12091:     }
; 12092:     if (ctxt->progressive == XML_PARSER_COMMENT) {

	mov	eax, DWORD PTR _ctxt$[ebp]
	cmp	DWORD PTR [eax+292], 5
	jne	SHORT $LN6@xmlParseCh

; 12093:         if (memchr(chunk, '>', size) != NULL)

	mov	ecx, DWORD PTR _size$[ebp]
	push	ecx
	push	62					; 0000003eH
	mov	edx, DWORD PTR _chunk$[ebp]
	push	edx
	call	_memchr
	add	esp, 12					; 0000000cH
	mov	DWORD PTR tv81[ebp], eax
	cmp	DWORD PTR tv81[ebp], 0
	je	SHORT $LN7@xmlParseCh

; 12094:             return(1);

	mov	eax, 1
	jmp	$LN1@xmlParseCh
$LN7@xmlParseCh:

; 12095:         return(0);

	xor	eax, eax
	jmp	$LN1@xmlParseCh
$LN6@xmlParseCh:

; 12096:     }
; 12097:     if (ctxt->instate == XML_PARSER_CDATA_SECTION) {

	mov	eax, DWORD PTR _ctxt$[ebp]
	cmp	DWORD PTR [eax+172], 8
	jne	SHORT $LN8@xmlParseCh

; 12098:         if (memchr(chunk, '>', size) != NULL)

	mov	ecx, DWORD PTR _size$[ebp]
	push	ecx
	push	62					; 0000003eH
	mov	edx, DWORD PTR _chunk$[ebp]
	push	edx
	call	_memchr
	add	esp, 12					; 0000000cH
	mov	DWORD PTR tv89[ebp], eax
	cmp	DWORD PTR tv89[ebp], 0
	je	SHORT $LN9@xmlParseCh

; 12099:             return(1);

	mov	eax, 1
	jmp	$LN1@xmlParseCh
$LN9@xmlParseCh:

; 12100:         return(0);

	xor	eax, eax
	jmp	$LN1@xmlParseCh
$LN8@xmlParseCh:

; 12101:     }
; 12102:     if (ctxt->progressive == XML_PARSER_PI) {

	mov	eax, DWORD PTR _ctxt$[ebp]
	cmp	DWORD PTR [eax+292], 2
	jne	SHORT $LN10@xmlParseCh

; 12103:         if (memchr(chunk, '>', size) != NULL)

	mov	ecx, DWORD PTR _size$[ebp]
	push	ecx
	push	62					; 0000003eH
	mov	edx, DWORD PTR _chunk$[ebp]
	push	edx
	call	_memchr
	add	esp, 12					; 0000000cH
	mov	DWORD PTR tv129[ebp], eax
	cmp	DWORD PTR tv129[ebp], 0
	je	SHORT $LN11@xmlParseCh

; 12104:             return(1);

	mov	eax, 1
	jmp	SHORT $LN1@xmlParseCh
$LN11@xmlParseCh:

; 12105:         return(0);

	xor	eax, eax
	jmp	SHORT $LN1@xmlParseCh
$LN10@xmlParseCh:

; 12106:     }
; 12107:     if (ctxt->instate == XML_PARSER_END_TAG) {

	mov	eax, DWORD PTR _ctxt$[ebp]
	cmp	DWORD PTR [eax+172], 9
	jne	SHORT $LN12@xmlParseCh

; 12108:         if (memchr(chunk, '>', size) != NULL)

	mov	ecx, DWORD PTR _size$[ebp]
	push	ecx
	push	62					; 0000003eH
	mov	edx, DWORD PTR _chunk$[ebp]
	push	edx
	call	_memchr
	add	esp, 12					; 0000000cH
	mov	DWORD PTR tv137[ebp], eax
	cmp	DWORD PTR tv137[ebp], 0
	je	SHORT $LN13@xmlParseCh

; 12109:             return(1);

	mov	eax, 1
	jmp	SHORT $LN1@xmlParseCh
$LN13@xmlParseCh:

; 12110:         return(0);

	xor	eax, eax
	jmp	SHORT $LN1@xmlParseCh
$LN12@xmlParseCh:

; 12111:     }
; 12112:     if ((ctxt->progressive == XML_PARSER_DTD) ||

	mov	eax, DWORD PTR _ctxt$[ebp]
	cmp	DWORD PTR [eax+292], 3
	je	SHORT $LN15@xmlParseCh
	mov	ecx, DWORD PTR _ctxt$[ebp]
	cmp	DWORD PTR [ecx+172], 3
	jne	SHORT $LN14@xmlParseCh
$LN15@xmlParseCh:

; 12113:         (ctxt->instate == XML_PARSER_DTD)) {
; 12114:         if (memchr(chunk, '>', size) != NULL)

	mov	edx, DWORD PTR _size$[ebp]
	push	edx
	push	62					; 0000003eH
	mov	eax, DWORD PTR _chunk$[ebp]
	push	eax
	call	_memchr
	add	esp, 12					; 0000000cH
	mov	DWORD PTR tv147[ebp], eax
	cmp	DWORD PTR tv147[ebp], 0
	je	SHORT $LN16@xmlParseCh

; 12115:             return(1);

	mov	eax, 1
	jmp	SHORT $LN1@xmlParseCh
$LN16@xmlParseCh:

; 12116:         return(0);

	xor	eax, eax
	jmp	SHORT $LN1@xmlParseCh
$LN14@xmlParseCh:

; 12117:     }
; 12118:     return(1);

	mov	eax, 1
$LN1@xmlParseCh:

; 12119: }

	add	esp, 24					; 00000018H
	cmp	ebp, esp
	call	__RTC_CheckEsp
	mov	esp, ebp
	pop	ebp
	ret	0
_xmlParseCheckTransition ENDP
_TEXT	ENDS
; Function compile flags: /Odtp /RTCsu
; File c:\users\dag\documents\_clients\codeproject authors group\windows on arm\libxml2\libxml2-2.9.9\parser.c
;	COMDAT _xmlParseTryOrFinish
_TEXT	SEGMENT
tv180 = -324						; size = 4
_buffer$1 = -316					; size = 150
_found$2 = -160						; size = 4
_use$3 = -156						; size = 4
_quote$4 = -149						; size = 1
_buf$5 = -148						; size = 4
_i$6 = -144						; size = 4
_base$7 = -140						; size = 4
_skipl$8 = -136						; size = 4
_tmp$9 = -132						; size = 4
_skipl$10 = -128					; size = 4
_tmp$11 = -124						; size = 4
_base$12 = -120						; size = 4
_term$13 = -116						; size = 4
_cons$14 = -112						; size = 4
_test$15 = -108						; size = 4
_nsNr$16 = -104						; size = 4
_URI$17 = -96						; size = 4
_prefix$18 = -84					; size = 4
_name$19 = -76						; size = 4
_enc$20 = -72						; size = 4
_start$21 = -64						; size = 4
_current$22 = -56					; size = 4
_base$23 = -52						; size = 4
_lastgt$ = -44						; size = 4
_lastlt$ = -32						; size = 4
_next$ = -22						; size = 1
_cur$ = -21						; size = 1
_tlen$ = -16						; size = 4
_avail$ = -8						; size = 4
_ret$ = -4						; size = 4
_ctxt$ = 8						; size = 4
_terminate$ = 12					; size = 4
_xmlParseTryOrFinish PROC				; COMDAT

; 11089: xmlParseTryOrFinish(xmlParserCtxtPtr ctxt, int terminate) {

	push	ebp
	mov	ebp, esp
	sub	esp, 324				; 00000144H
	push	esi
	push	edi
	lea	edi, DWORD PTR [ebp-324]
	mov	ecx, 81					; 00000051H
	mov	eax, -858993460				; ccccccccH
	rep stosd
	mov	ecx, OFFSET __B9AC27D5_parser@c
	call	@__CheckForDebuggerJustMyCode@4

; 11090:     int ret = 0;

	mov	DWORD PTR _ret$[ebp], 0

; 11091:     int avail, tlen;
; 11092:     xmlChar cur, next;
; 11093:     const xmlChar *lastlt, *lastgt;
; 11094: 
; 11095:     if (ctxt->input == NULL)

	mov	eax, DWORD PTR _ctxt$[ebp]
	cmp	DWORD PTR [eax+36], 0
	jne	SHORT $LN33@xmlParseTr

; 11096:         return(0);

	xor	eax, eax
	jmp	$LN1@xmlParseTr
$LN33@xmlParseTr:

; 11097: 
; 11098: #ifdef DEBUG_PUSH
; 11099:     switch (ctxt->instate) {
; 11100: 	case XML_PARSER_EOF:
; 11101: 	    xmlGenericError(xmlGenericErrorContext,
; 11102: 		    "PP: try EOF\n"); break;
; 11103: 	case XML_PARSER_START:
; 11104: 	    xmlGenericError(xmlGenericErrorContext,
; 11105: 		    "PP: try START\n"); break;
; 11106: 	case XML_PARSER_MISC:
; 11107: 	    xmlGenericError(xmlGenericErrorContext,
; 11108: 		    "PP: try MISC\n");break;
; 11109: 	case XML_PARSER_COMMENT:
; 11110: 	    xmlGenericError(xmlGenericErrorContext,
; 11111: 		    "PP: try COMMENT\n");break;
; 11112: 	case XML_PARSER_PROLOG:
; 11113: 	    xmlGenericError(xmlGenericErrorContext,
; 11114: 		    "PP: try PROLOG\n");break;
; 11115: 	case XML_PARSER_START_TAG:
; 11116: 	    xmlGenericError(xmlGenericErrorContext,
; 11117: 		    "PP: try START_TAG\n");break;
; 11118: 	case XML_PARSER_CONTENT:
; 11119: 	    xmlGenericError(xmlGenericErrorContext,
; 11120: 		    "PP: try CONTENT\n");break;
; 11121: 	case XML_PARSER_CDATA_SECTION:
; 11122: 	    xmlGenericError(xmlGenericErrorContext,
; 11123: 		    "PP: try CDATA_SECTION\n");break;
; 11124: 	case XML_PARSER_END_TAG:
; 11125: 	    xmlGenericError(xmlGenericErrorContext,
; 11126: 		    "PP: try END_TAG\n");break;
; 11127: 	case XML_PARSER_ENTITY_DECL:
; 11128: 	    xmlGenericError(xmlGenericErrorContext,
; 11129: 		    "PP: try ENTITY_DECL\n");break;
; 11130: 	case XML_PARSER_ENTITY_VALUE:
; 11131: 	    xmlGenericError(xmlGenericErrorContext,
; 11132: 		    "PP: try ENTITY_VALUE\n");break;
; 11133: 	case XML_PARSER_ATTRIBUTE_VALUE:
; 11134: 	    xmlGenericError(xmlGenericErrorContext,
; 11135: 		    "PP: try ATTRIBUTE_VALUE\n");break;
; 11136: 	case XML_PARSER_DTD:
; 11137: 	    xmlGenericError(xmlGenericErrorContext,
; 11138: 		    "PP: try DTD\n");break;
; 11139: 	case XML_PARSER_EPILOG:
; 11140: 	    xmlGenericError(xmlGenericErrorContext,
; 11141: 		    "PP: try EPILOG\n");break;
; 11142: 	case XML_PARSER_PI:
; 11143: 	    xmlGenericError(xmlGenericErrorContext,
; 11144: 		    "PP: try PI\n");break;
; 11145:         case XML_PARSER_IGNORE:
; 11146:             xmlGenericError(xmlGenericErrorContext,
; 11147: 		    "PP: try IGNORE\n");break;
; 11148:     }
; 11149: #endif
; 11150: 
; 11151:     if ((ctxt->input != NULL) &&

	mov	ecx, DWORD PTR _ctxt$[ebp]
	cmp	DWORD PTR [ecx+36], 0
	je	SHORT $LN34@xmlParseTr
	mov	edx, DWORD PTR _ctxt$[ebp]
	mov	eax, DWORD PTR [edx+36]
	mov	ecx, DWORD PTR _ctxt$[ebp]
	mov	edx, DWORD PTR [ecx+36]
	mov	eax, DWORD PTR [eax+16]
	sub	eax, DWORD PTR [edx+12]
	cmp	eax, 4096				; 00001000H
	jle	SHORT $LN34@xmlParseTr

; 11152:         (ctxt->input->cur - ctxt->input->base > 4096)) {
; 11153: 	xmlSHRINK(ctxt);

	mov	ecx, DWORD PTR _ctxt$[ebp]
	push	ecx
	call	_xmlSHRINK
	add	esp, 4

; 11154: 	ctxt->checkIndex = 0;

	mov	edx, DWORD PTR _ctxt$[ebp]
	mov	DWORD PTR [edx+204], 0
$LN34@xmlParseTr:

; 11155:     }
; 11156:     xmlParseGetLasts(ctxt, &lastlt, &lastgt);

	lea	eax, DWORD PTR _lastgt$[ebp]
	push	eax
	lea	ecx, DWORD PTR _lastlt$[ebp]
	push	ecx
	mov	edx, DWORD PTR _ctxt$[ebp]
	push	edx
	call	_xmlParseGetLasts
	add	esp, 12					; 0000000cH
$LN2@xmlParseTr:

; 11157: 
; 11158:     while (ctxt->instate != XML_PARSER_EOF) {

	mov	eax, DWORD PTR _ctxt$[ebp]
	cmp	DWORD PTR [eax+172], -1
	je	$done$260

; 11159: 	if ((ctxt->errNo != XML_ERR_OK) && (ctxt->disableSAX == 1))

	mov	ecx, DWORD PTR _ctxt$[ebp]
	cmp	DWORD PTR [ecx+84], 0
	je	SHORT $LN35@xmlParseTr
	mov	edx, DWORD PTR _ctxt$[ebp]
	cmp	DWORD PTR [edx+212], 1
	jne	SHORT $LN35@xmlParseTr

; 11160: 	    return(0);

	xor	eax, eax
	jmp	$LN1@xmlParseTr
$LN35@xmlParseTr:

; 11161: 
; 11162: 	if (ctxt->input == NULL) break;

	mov	eax, DWORD PTR _ctxt$[ebp]
	cmp	DWORD PTR [eax+36], 0
	jne	SHORT $LN36@xmlParseTr
	jmp	$done$260
$LN36@xmlParseTr:

; 11163: 	if (ctxt->input->buf == NULL)

	mov	ecx, DWORD PTR _ctxt$[ebp]
	mov	edx, DWORD PTR [ecx+36]
	cmp	DWORD PTR [edx], 0
	jne	SHORT $LN37@xmlParseTr

; 11164: 	    avail = ctxt->input->length -

	mov	eax, DWORD PTR _ctxt$[ebp]
	mov	ecx, DWORD PTR [eax+36]
	mov	edx, DWORD PTR _ctxt$[ebp]
	mov	eax, DWORD PTR [edx+36]
	mov	edx, DWORD PTR _ctxt$[ebp]
	mov	edx, DWORD PTR [edx+36]
	mov	eax, DWORD PTR [eax+16]
	sub	eax, DWORD PTR [edx+12]
	mov	ecx, DWORD PTR [ecx+24]
	sub	ecx, eax
	mov	DWORD PTR _avail$[ebp], ecx
	jmp	$LN38@xmlParseTr
$LN37@xmlParseTr:

; 11165: 	            (ctxt->input->cur - ctxt->input->base);
; 11166: 	else {
; 11167: 	    /*
; 11168: 	     * If we are operating on converted input, try to flush
; 11169: 	     * remainng chars to avoid them stalling in the non-converted
; 11170: 	     * buffer. But do not do this in document start where
; 11171: 	     * encoding="..." may not have been read and we work on a
; 11172: 	     * guessed encoding.
; 11173: 	     */
; 11174: 	    if ((ctxt->instate != XML_PARSER_START) &&
; 11175: 	        (ctxt->input->buf->raw != NULL) &&

	mov	edx, DWORD PTR _ctxt$[ebp]
	cmp	DWORD PTR [edx+172], 0
	je	$LN39@xmlParseTr
	mov	eax, DWORD PTR _ctxt$[ebp]
	mov	ecx, DWORD PTR [eax+36]
	mov	edx, DWORD PTR [ecx]
	cmp	DWORD PTR [edx+20], 0
	je	$LN39@xmlParseTr
	mov	eax, DWORD PTR _ctxt$[ebp]
	mov	ecx, DWORD PTR [eax+36]
	mov	edx, DWORD PTR [ecx]
	mov	eax, DWORD PTR [edx+20]
	push	eax
	call	_xmlBufIsEmpty
	add	esp, 4
	test	eax, eax
	jne	SHORT $LN39@xmlParseTr

; 11176: 		(xmlBufIsEmpty(ctxt->input->buf->raw) == 0)) {
; 11177:                 size_t base = xmlBufGetInputBase(ctxt->input->buf->buffer,

	mov	ecx, DWORD PTR _ctxt$[ebp]
	mov	edx, DWORD PTR [ecx+36]
	push	edx
	mov	eax, DWORD PTR _ctxt$[ebp]
	mov	ecx, DWORD PTR [eax+36]
	mov	edx, DWORD PTR [ecx]
	mov	eax, DWORD PTR [edx+16]
	push	eax
	call	_xmlBufGetInputBase
	add	esp, 8
	mov	DWORD PTR _base$23[ebp], eax

; 11178:                                                  ctxt->input);
; 11179: 		size_t current = ctxt->input->cur - ctxt->input->base;

	mov	ecx, DWORD PTR _ctxt$[ebp]
	mov	edx, DWORD PTR [ecx+36]
	mov	eax, DWORD PTR _ctxt$[ebp]
	mov	ecx, DWORD PTR [eax+36]
	mov	edx, DWORD PTR [edx+16]
	sub	edx, DWORD PTR [ecx+12]
	mov	DWORD PTR _current$22[ebp], edx

; 11180: 
; 11181: 		xmlParserInputBufferPush(ctxt->input->buf, 0, "");

	push	OFFSET ??_C@_00CNPNBAHC@@
	push	0
	mov	eax, DWORD PTR _ctxt$[ebp]
	mov	ecx, DWORD PTR [eax+36]
	mov	edx, DWORD PTR [ecx]
	push	edx
	call	_xmlParserInputBufferPush
	add	esp, 12					; 0000000cH

; 11182:                 xmlBufSetInputBaseCur(ctxt->input->buf->buffer, ctxt->input,

	mov	eax, DWORD PTR _current$22[ebp]
	push	eax
	mov	ecx, DWORD PTR _base$23[ebp]
	push	ecx
	mov	edx, DWORD PTR _ctxt$[ebp]
	mov	eax, DWORD PTR [edx+36]
	push	eax
	mov	ecx, DWORD PTR _ctxt$[ebp]
	mov	edx, DWORD PTR [ecx+36]
	mov	eax, DWORD PTR [edx]
	mov	ecx, DWORD PTR [eax+16]
	push	ecx
	call	_xmlBufSetInputBaseCur
	add	esp, 16					; 00000010H
$LN39@xmlParseTr:

; 11183:                                       base, current);
; 11184: 	    }
; 11185: 	    avail = xmlBufUse(ctxt->input->buf->buffer) -

	mov	edx, DWORD PTR _ctxt$[ebp]
	mov	eax, DWORD PTR [edx+36]
	mov	ecx, DWORD PTR [eax]
	mov	edx, DWORD PTR [ecx+16]
	push	edx
	call	_xmlBufUse
	add	esp, 4
	mov	ecx, DWORD PTR _ctxt$[ebp]
	mov	edx, DWORD PTR [ecx+36]
	mov	ecx, DWORD PTR _ctxt$[ebp]
	mov	ecx, DWORD PTR [ecx+36]
	mov	edx, DWORD PTR [edx+16]
	sub	edx, DWORD PTR [ecx+12]
	sub	eax, edx
	mov	DWORD PTR _avail$[ebp], eax
$LN38@xmlParseTr:

; 11186: 		    (ctxt->input->cur - ctxt->input->base);
; 11187: 	}
; 11188:         if (avail < 1)

	cmp	DWORD PTR _avail$[ebp], 1
	jge	SHORT $LN40@xmlParseTr

; 11189: 	    goto done;

	jmp	$done$260
$LN40@xmlParseTr:

; 11190:         switch (ctxt->instate) {

	mov	eax, DWORD PTR _ctxt$[ebp]
	mov	ecx, DWORD PTR [eax+172]
	mov	DWORD PTR tv180[ebp], ecx
	mov	edx, DWORD PTR tv180[ebp]
	add	edx, 1
	mov	DWORD PTR tv180[ebp], edx
	cmp	DWORD PTR tv180[ebp], 17		; 00000011H
	ja	$LN4@xmlParseTr
	mov	eax, DWORD PTR tv180[ebp]
	jmp	DWORD PTR $LN259@xmlParseTr[eax*4]
$LN41@xmlParseTr:

; 11191:             case XML_PARSER_EOF:
; 11192: 	        /*
; 11193: 		 * Document parsing is done !
; 11194: 		 */
; 11195: 	        goto done;

	jmp	$done$260
$LN42@xmlParseTr:

; 11196:             case XML_PARSER_START:
; 11197: 		if (ctxt->charset == XML_CHAR_ENCODING_NONE) {

	mov	ecx, DWORD PTR _ctxt$[ebp]
	cmp	DWORD PTR [ecx+256], 0
	jne	$LN43@xmlParseTr

; 11198: 		    xmlChar start[4];
; 11199: 		    xmlCharEncoding enc;
; 11200: 
; 11201: 		    /*
; 11202: 		     * Very first chars read from the document flow.
; 11203: 		     */
; 11204: 		    if (avail < 4)

	cmp	DWORD PTR _avail$[ebp], 4
	jge	SHORT $LN44@xmlParseTr

; 11205: 			goto done;

	jmp	$done$260
$LN44@xmlParseTr:

; 11206: 
; 11207: 		    /*
; 11208: 		     * Get the 4 first bytes and decode the charset
; 11209: 		     * if enc != XML_CHAR_ENCODING_NONE
; 11210: 		     * plug some encoding conversion routines,
; 11211: 		     * else xmlSwitchEncoding will set to (default)
; 11212: 		     * UTF8.
; 11213: 		     */
; 11214: 		    start[0] = RAW;

	mov	edx, DWORD PTR _ctxt$[ebp]
	mov	eax, DWORD PTR [edx+36]
	mov	ecx, DWORD PTR [eax+16]
	mov	edx, 1
	imul	eax, edx, 0
	mov	cl, BYTE PTR [ecx]
	mov	BYTE PTR _start$21[ebp+eax], cl

; 11215: 		    start[1] = NXT(1);

	mov	edx, DWORD PTR _ctxt$[ebp]
	mov	eax, DWORD PTR [edx+36]
	mov	ecx, 1
	shl	ecx, 0
	mov	edx, DWORD PTR [eax+16]
	mov	eax, 1
	shl	eax, 0
	mov	cl, BYTE PTR [ecx+edx]
	mov	BYTE PTR _start$21[ebp+eax], cl

; 11216: 		    start[2] = NXT(2);

	mov	edx, DWORD PTR _ctxt$[ebp]
	mov	eax, DWORD PTR [edx+36]
	mov	ecx, 1
	shl	ecx, 1
	mov	edx, DWORD PTR [eax+16]
	mov	eax, 1
	shl	eax, 1
	mov	cl, BYTE PTR [ecx+edx]
	mov	BYTE PTR _start$21[ebp+eax], cl

; 11217: 		    start[3] = NXT(3);

	mov	edx, DWORD PTR _ctxt$[ebp]
	mov	eax, DWORD PTR [edx+36]
	mov	ecx, 1
	imul	edx, ecx, 3
	mov	eax, DWORD PTR [eax+16]
	mov	ecx, 1
	imul	ecx, ecx, 3
	mov	dl, BYTE PTR [edx+eax]
	mov	BYTE PTR _start$21[ebp+ecx], dl

; 11218: 		    enc = xmlDetectCharEncoding(start, 4);

	push	4
	lea	eax, DWORD PTR _start$21[ebp]
	push	eax
	call	_xmlDetectCharEncoding
	add	esp, 8
	mov	DWORD PTR _enc$20[ebp], eax

; 11219: 		    xmlSwitchEncoding(ctxt, enc);

	mov	ecx, DWORD PTR _enc$20[ebp]
	push	ecx
	mov	edx, DWORD PTR _ctxt$[ebp]
	push	edx
	call	_xmlSwitchEncoding
	add	esp, 8

; 11220: 		    break;

	jmp	$LN4@xmlParseTr
$LN43@xmlParseTr:

; 11221: 		}
; 11222: 
; 11223: 		if (avail < 2)

	cmp	DWORD PTR _avail$[ebp], 2
	jge	SHORT $LN45@xmlParseTr

; 11224: 		    goto done;

	jmp	$done$260
$LN45@xmlParseTr:

; 11225: 		cur = ctxt->input->cur[0];

	mov	eax, DWORD PTR _ctxt$[ebp]
	mov	ecx, DWORD PTR [eax+36]
	mov	edx, 1
	imul	eax, edx, 0
	mov	ecx, DWORD PTR [ecx+16]
	mov	dl, BYTE PTR [eax+ecx]
	mov	BYTE PTR _cur$[ebp], dl

; 11226: 		next = ctxt->input->cur[1];

	mov	eax, DWORD PTR _ctxt$[ebp]
	mov	ecx, DWORD PTR [eax+36]
	mov	edx, 1
	shl	edx, 0
	mov	eax, DWORD PTR [ecx+16]
	mov	cl, BYTE PTR [edx+eax]
	mov	BYTE PTR _next$[ebp], cl

; 11227: 		if (cur == 0) {

	movzx	edx, BYTE PTR _cur$[ebp]
	test	edx, edx
	jne	$LN46@xmlParseTr

; 11228: 		    if ((ctxt->sax) && (ctxt->sax->setDocumentLocator))

	mov	eax, DWORD PTR _ctxt$[ebp]
	cmp	DWORD PTR [eax], 0
	je	SHORT $LN47@xmlParseTr
	mov	ecx, DWORD PTR _ctxt$[ebp]
	mov	edx, DWORD PTR [ecx]
	cmp	DWORD PTR [edx+44], 0
	je	SHORT $LN47@xmlParseTr

; 11229: 			ctxt->sax->setDocumentLocator(ctxt->userData,

	call	___xmlDefaultSAXLocator
	mov	esi, esp
	push	eax
	mov	eax, DWORD PTR _ctxt$[ebp]
	mov	ecx, DWORD PTR [eax+4]
	push	ecx
	mov	edx, DWORD PTR _ctxt$[ebp]
	mov	eax, DWORD PTR [edx]
	mov	ecx, DWORD PTR [eax+44]
	call	ecx
	add	esp, 8
	cmp	esi, esp
	call	__RTC_CheckEsp
$LN47@xmlParseTr:

; 11230: 						      &xmlDefaultSAXLocator);
; 11231: 		    xmlFatalErr(ctxt, XML_ERR_DOCUMENT_EMPTY, NULL);

	push	0
	push	4
	mov	edx, DWORD PTR _ctxt$[ebp]
	push	edx
	call	_xmlFatalErr
	add	esp, 12					; 0000000cH

; 11232: 		    xmlHaltParser(ctxt);

	mov	eax, DWORD PTR _ctxt$[ebp]
	push	eax
	call	_xmlHaltParser
	add	esp, 4

; 11233: #ifdef DEBUG_PUSH
; 11234: 		    xmlGenericError(xmlGenericErrorContext,
; 11235: 			    "PP: entering EOF\n");
; 11236: #endif
; 11237: 		    if ((ctxt->sax) && (ctxt->sax->endDocument != NULL))

	mov	ecx, DWORD PTR _ctxt$[ebp]
	cmp	DWORD PTR [ecx], 0
	je	SHORT $LN48@xmlParseTr
	mov	edx, DWORD PTR _ctxt$[ebp]
	mov	eax, DWORD PTR [edx]
	cmp	DWORD PTR [eax+52], 0
	je	SHORT $LN48@xmlParseTr

; 11238: 			ctxt->sax->endDocument(ctxt->userData);

	mov	esi, esp
	mov	ecx, DWORD PTR _ctxt$[ebp]
	mov	edx, DWORD PTR [ecx+4]
	push	edx
	mov	eax, DWORD PTR _ctxt$[ebp]
	mov	ecx, DWORD PTR [eax]
	mov	edx, DWORD PTR [ecx+52]
	call	edx
	add	esp, 4
	cmp	esi, esp
	call	__RTC_CheckEsp
$LN48@xmlParseTr:

; 11239: 		    goto done;

	jmp	$done$260
$LN46@xmlParseTr:

; 11240: 		}
; 11241: 	        if ((cur == '<') && (next == '?')) {

	movzx	eax, BYTE PTR _cur$[ebp]
	cmp	eax, 60					; 0000003cH
	jne	$LN49@xmlParseTr
	movzx	ecx, BYTE PTR _next$[ebp]
	cmp	ecx, 63					; 0000003fH
	jne	$LN49@xmlParseTr

; 11242: 		    /* PI or XML decl */
; 11243: 		    if (avail < 5) return(ret);

	cmp	DWORD PTR _avail$[ebp], 5
	jge	SHORT $LN51@xmlParseTr
	mov	eax, DWORD PTR _ret$[ebp]
	jmp	$LN1@xmlParseTr
$LN51@xmlParseTr:

; 11244: 		    if ((!terminate) &&

	cmp	DWORD PTR _terminate$[ebp], 0
	jne	SHORT $LN52@xmlParseTr
	push	0
	push	62					; 0000003eH
	push	63					; 0000003fH
	mov	edx, DWORD PTR _ctxt$[ebp]
	push	edx
	call	_xmlParseLookupSequence
	add	esp, 16					; 00000010H
	test	eax, eax
	jge	SHORT $LN52@xmlParseTr

; 11245: 		        (xmlParseLookupSequence(ctxt, '?', '>', 0) < 0))
; 11246: 			return(ret);

	mov	eax, DWORD PTR _ret$[ebp]
	jmp	$LN1@xmlParseTr
$LN52@xmlParseTr:

; 11247: 		    if ((ctxt->sax) && (ctxt->sax->setDocumentLocator))

	mov	eax, DWORD PTR _ctxt$[ebp]
	cmp	DWORD PTR [eax], 0
	je	SHORT $LN53@xmlParseTr
	mov	ecx, DWORD PTR _ctxt$[ebp]
	mov	edx, DWORD PTR [ecx]
	cmp	DWORD PTR [edx+44], 0
	je	SHORT $LN53@xmlParseTr

; 11248: 			ctxt->sax->setDocumentLocator(ctxt->userData,

	call	___xmlDefaultSAXLocator
	mov	esi, esp
	push	eax
	mov	eax, DWORD PTR _ctxt$[ebp]
	mov	ecx, DWORD PTR [eax+4]
	push	ecx
	mov	edx, DWORD PTR _ctxt$[ebp]
	mov	eax, DWORD PTR [edx]
	mov	ecx, DWORD PTR [eax+44]
	call	ecx
	add	esp, 8
	cmp	esi, esp
	call	__RTC_CheckEsp
$LN53@xmlParseTr:

; 11249: 						      &xmlDefaultSAXLocator);
; 11250: 		    if ((ctxt->input->cur[2] == 'x') &&
; 11251: 			(ctxt->input->cur[3] == 'm') &&
; 11252: 			(ctxt->input->cur[4] == 'l') &&

	mov	edx, DWORD PTR _ctxt$[ebp]
	mov	eax, DWORD PTR [edx+36]
	mov	ecx, 1
	shl	ecx, 1
	mov	edx, DWORD PTR [eax+16]
	movzx	eax, BYTE PTR [edx+ecx]
	cmp	eax, 120				; 00000078H
	jne	$LN54@xmlParseTr
	mov	ecx, DWORD PTR _ctxt$[ebp]
	mov	edx, DWORD PTR [ecx+36]
	mov	eax, 1
	imul	ecx, eax, 3
	mov	edx, DWORD PTR [edx+16]
	movzx	eax, BYTE PTR [edx+ecx]
	cmp	eax, 109				; 0000006dH
	jne	$LN54@xmlParseTr
	mov	ecx, DWORD PTR _ctxt$[ebp]
	mov	edx, DWORD PTR [ecx+36]
	mov	eax, 1
	shl	eax, 2
	mov	ecx, DWORD PTR [edx+16]
	movzx	edx, BYTE PTR [ecx+eax]
	cmp	edx, 108				; 0000006cH
	jne	$LN54@xmlParseTr
	mov	eax, DWORD PTR _ctxt$[ebp]
	mov	ecx, DWORD PTR [eax+36]
	mov	edx, 1
	imul	eax, edx, 5
	mov	ecx, DWORD PTR [ecx+16]
	movzx	edx, BYTE PTR [ecx+eax]
	cmp	edx, 32					; 00000020H
	je	SHORT $LN56@xmlParseTr
	mov	eax, DWORD PTR _ctxt$[ebp]
	mov	ecx, DWORD PTR [eax+36]
	mov	edx, 1
	imul	eax, edx, 5
	mov	ecx, DWORD PTR [ecx+16]
	movzx	edx, BYTE PTR [ecx+eax]
	cmp	edx, 9
	jl	SHORT $LN57@xmlParseTr
	mov	eax, DWORD PTR _ctxt$[ebp]
	mov	ecx, DWORD PTR [eax+36]
	mov	edx, 1
	imul	eax, edx, 5
	mov	ecx, DWORD PTR [ecx+16]
	movzx	edx, BYTE PTR [ecx+eax]
	cmp	edx, 10					; 0000000aH
	jle	SHORT $LN56@xmlParseTr
$LN57@xmlParseTr:
	mov	eax, DWORD PTR _ctxt$[ebp]
	mov	ecx, DWORD PTR [eax+36]
	mov	edx, 1
	imul	eax, edx, 5
	mov	ecx, DWORD PTR [ecx+16]
	movzx	edx, BYTE PTR [ecx+eax]
	cmp	edx, 13					; 0000000dH
	jne	$LN54@xmlParseTr
$LN56@xmlParseTr:

; 11253: 			(IS_BLANK_CH(ctxt->input->cur[5]))) {
; 11254: 			ret += 5;

	mov	eax, DWORD PTR _ret$[ebp]
	add	eax, 5
	mov	DWORD PTR _ret$[ebp], eax

; 11255: #ifdef DEBUG_PUSH
; 11256: 			xmlGenericError(xmlGenericErrorContext,
; 11257: 				"PP: Parsing XML Decl\n");
; 11258: #endif
; 11259: 			xmlParseXMLDecl(ctxt);

	mov	ecx, DWORD PTR _ctxt$[ebp]
	push	ecx
	call	_xmlParseXMLDecl
	add	esp, 4

; 11260: 			if (ctxt->errNo == XML_ERR_UNSUPPORTED_ENCODING) {

	mov	edx, DWORD PTR _ctxt$[ebp]
	cmp	DWORD PTR [edx+84], 32			; 00000020H
	jne	SHORT $LN58@xmlParseTr

; 11261: 			    /*
; 11262: 			     * The XML REC instructs us to stop parsing right
; 11263: 			     * here
; 11264: 			     */
; 11265: 			    xmlHaltParser(ctxt);

	mov	eax, DWORD PTR _ctxt$[ebp]
	push	eax
	call	_xmlHaltParser
	add	esp, 4

; 11266: 			    return(0);

	xor	eax, eax
	jmp	$LN1@xmlParseTr
$LN58@xmlParseTr:

; 11267: 			}
; 11268: 			ctxt->standalone = ctxt->input->standalone;

	mov	ecx, DWORD PTR _ctxt$[ebp]
	mov	edx, DWORD PTR [ecx+36]
	mov	eax, DWORD PTR _ctxt$[ebp]
	mov	ecx, DWORD PTR [edx+52]
	mov	DWORD PTR [eax+28], ecx

; 11269: 			if ((ctxt->encoding == NULL) &&

	mov	edx, DWORD PTR _ctxt$[ebp]
	cmp	DWORD PTR [edx+24], 0
	jne	SHORT $LN59@xmlParseTr
	mov	eax, DWORD PTR _ctxt$[ebp]
	mov	ecx, DWORD PTR [eax+36]
	cmp	DWORD PTR [ecx+44], 0
	je	SHORT $LN59@xmlParseTr

; 11270: 			    (ctxt->input->encoding != NULL))
; 11271: 			    ctxt->encoding = xmlStrdup(ctxt->input->encoding);

	mov	edx, DWORD PTR _ctxt$[ebp]
	mov	eax, DWORD PTR [edx+36]
	mov	ecx, DWORD PTR [eax+44]
	push	ecx
	call	_xmlStrdup
	add	esp, 4
	mov	edx, DWORD PTR _ctxt$[ebp]
	mov	DWORD PTR [edx+24], eax
$LN59@xmlParseTr:

; 11272: 			if ((ctxt->sax) && (ctxt->sax->startDocument) &&

	mov	eax, DWORD PTR _ctxt$[ebp]
	cmp	DWORD PTR [eax], 0
	je	SHORT $LN60@xmlParseTr
	mov	ecx, DWORD PTR _ctxt$[ebp]
	mov	edx, DWORD PTR [ecx]
	cmp	DWORD PTR [edx+48], 0
	je	SHORT $LN60@xmlParseTr
	mov	eax, DWORD PTR _ctxt$[ebp]
	cmp	DWORD PTR [eax+212], 0
	jne	SHORT $LN60@xmlParseTr

; 11273: 			    (!ctxt->disableSAX))
; 11274: 			    ctxt->sax->startDocument(ctxt->userData);

	mov	esi, esp
	mov	ecx, DWORD PTR _ctxt$[ebp]
	mov	edx, DWORD PTR [ecx+4]
	push	edx
	mov	eax, DWORD PTR _ctxt$[ebp]
	mov	ecx, DWORD PTR [eax]
	mov	edx, DWORD PTR [ecx+48]
	call	edx
	add	esp, 4
	cmp	esi, esp
	call	__RTC_CheckEsp
$LN60@xmlParseTr:

; 11275: 			ctxt->instate = XML_PARSER_MISC;

	mov	eax, DWORD PTR _ctxt$[ebp]
	mov	DWORD PTR [eax+172], 1

; 11276: #ifdef DEBUG_PUSH
; 11277: 			xmlGenericError(xmlGenericErrorContext,
; 11278: 				"PP: entering MISC\n");
; 11279: #endif
; 11280: 		    } else {

	jmp	SHORT $LN55@xmlParseTr
$LN54@xmlParseTr:

; 11281: 			ctxt->version = xmlCharStrdup(XML_DEFAULT_VERSION);

	push	OFFSET ??_C@_03HLLJOCDO@1?40@
	call	_xmlCharStrdup
	add	esp, 4
	mov	ecx, DWORD PTR _ctxt$[ebp]
	mov	DWORD PTR [ecx+20], eax

; 11282: 			if ((ctxt->sax) && (ctxt->sax->startDocument) &&

	mov	edx, DWORD PTR _ctxt$[ebp]
	cmp	DWORD PTR [edx], 0
	je	SHORT $LN61@xmlParseTr
	mov	eax, DWORD PTR _ctxt$[ebp]
	mov	ecx, DWORD PTR [eax]
	cmp	DWORD PTR [ecx+48], 0
	je	SHORT $LN61@xmlParseTr
	mov	edx, DWORD PTR _ctxt$[ebp]
	cmp	DWORD PTR [edx+212], 0
	jne	SHORT $LN61@xmlParseTr

; 11283: 			    (!ctxt->disableSAX))
; 11284: 			    ctxt->sax->startDocument(ctxt->userData);

	mov	esi, esp
	mov	eax, DWORD PTR _ctxt$[ebp]
	mov	ecx, DWORD PTR [eax+4]
	push	ecx
	mov	edx, DWORD PTR _ctxt$[ebp]
	mov	eax, DWORD PTR [edx]
	mov	ecx, DWORD PTR [eax+48]
	call	ecx
	add	esp, 4
	cmp	esi, esp
	call	__RTC_CheckEsp
$LN61@xmlParseTr:

; 11285: 			ctxt->instate = XML_PARSER_MISC;

	mov	edx, DWORD PTR _ctxt$[ebp]
	mov	DWORD PTR [edx+172], 1
$LN55@xmlParseTr:

; 11286: #ifdef DEBUG_PUSH
; 11287: 			xmlGenericError(xmlGenericErrorContext,
; 11288: 				"PP: entering MISC\n");
; 11289: #endif
; 11290: 		    }
; 11291: 		} else {

	jmp	$LN50@xmlParseTr
$LN49@xmlParseTr:

; 11292: 		    if ((ctxt->sax) && (ctxt->sax->setDocumentLocator))

	mov	eax, DWORD PTR _ctxt$[ebp]
	cmp	DWORD PTR [eax], 0
	je	SHORT $LN62@xmlParseTr
	mov	ecx, DWORD PTR _ctxt$[ebp]
	mov	edx, DWORD PTR [ecx]
	cmp	DWORD PTR [edx+44], 0
	je	SHORT $LN62@xmlParseTr

; 11293: 			ctxt->sax->setDocumentLocator(ctxt->userData,

	call	___xmlDefaultSAXLocator
	mov	esi, esp
	push	eax
	mov	eax, DWORD PTR _ctxt$[ebp]
	mov	ecx, DWORD PTR [eax+4]
	push	ecx
	mov	edx, DWORD PTR _ctxt$[ebp]
	mov	eax, DWORD PTR [edx]
	mov	ecx, DWORD PTR [eax+44]
	call	ecx
	add	esp, 8
	cmp	esi, esp
	call	__RTC_CheckEsp
$LN62@xmlParseTr:

; 11294: 						      &xmlDefaultSAXLocator);
; 11295: 		    ctxt->version = xmlCharStrdup(XML_DEFAULT_VERSION);

	push	OFFSET ??_C@_03HLLJOCDO@1?40@
	call	_xmlCharStrdup
	add	esp, 4
	mov	edx, DWORD PTR _ctxt$[ebp]
	mov	DWORD PTR [edx+20], eax

; 11296: 		    if (ctxt->version == NULL) {

	mov	eax, DWORD PTR _ctxt$[ebp]
	cmp	DWORD PTR [eax+20], 0
	jne	SHORT $LN63@xmlParseTr

; 11297: 		        xmlErrMemory(ctxt, NULL);

	push	0
	mov	ecx, DWORD PTR _ctxt$[ebp]
	push	ecx
	call	_xmlErrMemory
	add	esp, 8

; 11298: 			break;

	jmp	$LN4@xmlParseTr
$LN63@xmlParseTr:

; 11299: 		    }
; 11300: 		    if ((ctxt->sax) && (ctxt->sax->startDocument) &&

	mov	edx, DWORD PTR _ctxt$[ebp]
	cmp	DWORD PTR [edx], 0
	je	SHORT $LN64@xmlParseTr
	mov	eax, DWORD PTR _ctxt$[ebp]
	mov	ecx, DWORD PTR [eax]
	cmp	DWORD PTR [ecx+48], 0
	je	SHORT $LN64@xmlParseTr
	mov	edx, DWORD PTR _ctxt$[ebp]
	cmp	DWORD PTR [edx+212], 0
	jne	SHORT $LN64@xmlParseTr

; 11301: 		        (!ctxt->disableSAX))
; 11302: 			ctxt->sax->startDocument(ctxt->userData);

	mov	esi, esp
	mov	eax, DWORD PTR _ctxt$[ebp]
	mov	ecx, DWORD PTR [eax+4]
	push	ecx
	mov	edx, DWORD PTR _ctxt$[ebp]
	mov	eax, DWORD PTR [edx]
	mov	ecx, DWORD PTR [eax+48]
	call	ecx
	add	esp, 4
	cmp	esi, esp
	call	__RTC_CheckEsp
$LN64@xmlParseTr:

; 11303: 		    ctxt->instate = XML_PARSER_MISC;

	mov	edx, DWORD PTR _ctxt$[ebp]
	mov	DWORD PTR [edx+172], 1
$LN50@xmlParseTr:

; 11304: #ifdef DEBUG_PUSH
; 11305: 		    xmlGenericError(xmlGenericErrorContext,
; 11306: 			    "PP: entering MISC\n");
; 11307: #endif
; 11308: 		}
; 11309: 		break;

	jmp	$LN4@xmlParseTr
$LN65@xmlParseTr:

; 11310:             case XML_PARSER_START_TAG: {
; 11311: 	        const xmlChar *name;
; 11312: 		const xmlChar *prefix = NULL;

	mov	DWORD PTR _prefix$18[ebp], 0

; 11313: 		const xmlChar *URI = NULL;

	mov	DWORD PTR _URI$17[ebp], 0

; 11314: 		int nsNr = ctxt->nsNr;

	mov	eax, DWORD PTR _ctxt$[ebp]
	mov	ecx, DWORD PTR [eax+328]
	mov	DWORD PTR _nsNr$16[ebp], ecx

; 11315: 
; 11316: 		if ((avail < 2) && (ctxt->inputNr == 1))

	cmp	DWORD PTR _avail$[ebp], 2
	jge	SHORT $LN66@xmlParseTr
	mov	edx, DWORD PTR _ctxt$[ebp]
	cmp	DWORD PTR [edx+40], 1
	jne	SHORT $LN66@xmlParseTr

; 11317: 		    goto done;

	jmp	$done$260
$LN66@xmlParseTr:

; 11318: 		cur = ctxt->input->cur[0];

	mov	eax, DWORD PTR _ctxt$[ebp]
	mov	ecx, DWORD PTR [eax+36]
	mov	edx, 1
	imul	eax, edx, 0
	mov	ecx, DWORD PTR [ecx+16]
	mov	dl, BYTE PTR [eax+ecx]
	mov	BYTE PTR _cur$[ebp], dl

; 11319: 	        if (cur != '<') {

	movzx	eax, BYTE PTR _cur$[ebp]
	cmp	eax, 60					; 0000003cH
	je	SHORT $LN67@xmlParseTr

; 11320: 		    xmlFatalErr(ctxt, XML_ERR_DOCUMENT_EMPTY, NULL);

	push	0
	push	4
	mov	ecx, DWORD PTR _ctxt$[ebp]
	push	ecx
	call	_xmlFatalErr
	add	esp, 12					; 0000000cH

; 11321: 		    xmlHaltParser(ctxt);

	mov	edx, DWORD PTR _ctxt$[ebp]
	push	edx
	call	_xmlHaltParser
	add	esp, 4

; 11322: 		    if ((ctxt->sax) && (ctxt->sax->endDocument != NULL))

	mov	eax, DWORD PTR _ctxt$[ebp]
	cmp	DWORD PTR [eax], 0
	je	SHORT $LN68@xmlParseTr
	mov	ecx, DWORD PTR _ctxt$[ebp]
	mov	edx, DWORD PTR [ecx]
	cmp	DWORD PTR [edx+52], 0
	je	SHORT $LN68@xmlParseTr

; 11323: 			ctxt->sax->endDocument(ctxt->userData);

	mov	esi, esp
	mov	eax, DWORD PTR _ctxt$[ebp]
	mov	ecx, DWORD PTR [eax+4]
	push	ecx
	mov	edx, DWORD PTR _ctxt$[ebp]
	mov	eax, DWORD PTR [edx]
	mov	ecx, DWORD PTR [eax+52]
	call	ecx
	add	esp, 4
	cmp	esi, esp
	call	__RTC_CheckEsp
$LN68@xmlParseTr:

; 11324: 		    goto done;

	jmp	$done$260
$LN67@xmlParseTr:

; 11325: 		}
; 11326: 		if (!terminate) {

	cmp	DWORD PTR _terminate$[ebp], 0
	jne	SHORT $LN69@xmlParseTr

; 11327: 		    if (ctxt->progressive) {

	mov	edx, DWORD PTR _ctxt$[ebp]
	cmp	DWORD PTR [edx+292], 0
	je	SHORT $LN70@xmlParseTr

; 11328: 		        /* > can be found unescaped in attribute values */
; 11329: 		        if ((lastgt == NULL) || (ctxt->input->cur >= lastgt))

	cmp	DWORD PTR _lastgt$[ebp], 0
	je	SHORT $LN73@xmlParseTr
	mov	eax, DWORD PTR _ctxt$[ebp]
	mov	ecx, DWORD PTR [eax+36]
	mov	edx, DWORD PTR [ecx+16]
	cmp	edx, DWORD PTR _lastgt$[ebp]
	jb	SHORT $LN72@xmlParseTr
$LN73@xmlParseTr:

; 11330: 			    goto done;

	jmp	$done$260
$LN72@xmlParseTr:

; 11331: 		    } else if (xmlParseLookupSequence(ctxt, '>', 0, 0) < 0) {

	jmp	SHORT $LN69@xmlParseTr
$LN70@xmlParseTr:
	push	0
	push	0
	push	62					; 0000003eH
	mov	eax, DWORD PTR _ctxt$[ebp]
	push	eax
	call	_xmlParseLookupSequence
	add	esp, 16					; 00000010H
	test	eax, eax
	jge	SHORT $LN69@xmlParseTr

; 11332: 			goto done;

	jmp	$done$260
$LN69@xmlParseTr:

; 11333: 		    }
; 11334: 		}
; 11335: 		if (ctxt->spaceNr == 0)

	mov	ecx, DWORD PTR _ctxt$[ebp]
	cmp	DWORD PTR [ecx+236], 0
	jne	SHORT $LN75@xmlParseTr

; 11336: 		    spacePush(ctxt, -1);

	push	-1
	mov	edx, DWORD PTR _ctxt$[ebp]
	push	edx
	call	_spacePush
	add	esp, 8
	jmp	SHORT $LN76@xmlParseTr
$LN75@xmlParseTr:

; 11337: 		else if (*ctxt->space == -2)

	mov	eax, DWORD PTR _ctxt$[ebp]
	mov	ecx, DWORD PTR [eax+232]
	cmp	DWORD PTR [ecx], -2			; fffffffeH
	jne	SHORT $LN77@xmlParseTr

; 11338: 		    spacePush(ctxt, -1);

	push	-1
	mov	edx, DWORD PTR _ctxt$[ebp]
	push	edx
	call	_spacePush
	add	esp, 8
	jmp	SHORT $LN76@xmlParseTr
$LN77@xmlParseTr:

; 11339: 		else
; 11340: 		    spacePush(ctxt, *ctxt->space);

	mov	eax, DWORD PTR _ctxt$[ebp]
	mov	ecx, DWORD PTR [eax+232]
	mov	edx, DWORD PTR [ecx]
	push	edx
	mov	eax, DWORD PTR _ctxt$[ebp]
	push	eax
	call	_spacePush
	add	esp, 8
$LN76@xmlParseTr:

; 11341: #ifdef LIBXML_SAX1_ENABLED
; 11342: 		if (ctxt->sax2)

	mov	ecx, DWORD PTR _ctxt$[ebp]
	cmp	DWORD PTR [ecx+324], 0
	je	SHORT $LN79@xmlParseTr

; 11343: #endif /* LIBXML_SAX1_ENABLED */
; 11344: 		    name = xmlParseStartTag2(ctxt, &prefix, &URI, &tlen);

	lea	edx, DWORD PTR _tlen$[ebp]
	push	edx
	lea	eax, DWORD PTR _URI$17[ebp]
	push	eax
	lea	ecx, DWORD PTR _prefix$18[ebp]
	push	ecx
	mov	edx, DWORD PTR _ctxt$[ebp]
	push	edx
	call	_xmlParseStartTag2
	add	esp, 16					; 00000010H
	mov	DWORD PTR _name$19[ebp], eax
	jmp	SHORT $LN80@xmlParseTr
$LN79@xmlParseTr:

; 11345: #ifdef LIBXML_SAX1_ENABLED
; 11346: 		else
; 11347: 		    name = xmlParseStartTag(ctxt);

	mov	eax, DWORD PTR _ctxt$[ebp]
	push	eax
	call	_xmlParseStartTag
	add	esp, 4
	mov	DWORD PTR _name$19[ebp], eax
$LN80@xmlParseTr:

; 11348: #endif /* LIBXML_SAX1_ENABLED */
; 11349: 		if (ctxt->instate == XML_PARSER_EOF)

	mov	ecx, DWORD PTR _ctxt$[ebp]
	cmp	DWORD PTR [ecx+172], -1
	jne	SHORT $LN81@xmlParseTr

; 11350: 		    goto done;

	jmp	$done$260
$LN81@xmlParseTr:

; 11351: 		if (name == NULL) {

	cmp	DWORD PTR _name$19[ebp], 0
	jne	SHORT $LN82@xmlParseTr

; 11352: 		    spacePop(ctxt);

	mov	edx, DWORD PTR _ctxt$[ebp]
	push	edx
	call	_spacePop
	add	esp, 4

; 11353: 		    xmlHaltParser(ctxt);

	mov	eax, DWORD PTR _ctxt$[ebp]
	push	eax
	call	_xmlHaltParser
	add	esp, 4

; 11354: 		    if ((ctxt->sax) && (ctxt->sax->endDocument != NULL))

	mov	ecx, DWORD PTR _ctxt$[ebp]
	cmp	DWORD PTR [ecx], 0
	je	SHORT $LN83@xmlParseTr
	mov	edx, DWORD PTR _ctxt$[ebp]
	mov	eax, DWORD PTR [edx]
	cmp	DWORD PTR [eax+52], 0
	je	SHORT $LN83@xmlParseTr

; 11355: 			ctxt->sax->endDocument(ctxt->userData);

	mov	esi, esp
	mov	ecx, DWORD PTR _ctxt$[ebp]
	mov	edx, DWORD PTR [ecx+4]
	push	edx
	mov	eax, DWORD PTR _ctxt$[ebp]
	mov	ecx, DWORD PTR [eax]
	mov	edx, DWORD PTR [ecx+52]
	call	edx
	add	esp, 4
	cmp	esi, esp
	call	__RTC_CheckEsp
$LN83@xmlParseTr:

; 11356: 		    goto done;

	jmp	$done$260
$LN82@xmlParseTr:

; 11357: 		}
; 11358: #ifdef LIBXML_VALID_ENABLED
; 11359: 		/*
; 11360: 		 * [ VC: Root Element Type ]
; 11361: 		 * The Name in the document type declaration must match
; 11362: 		 * the element type of the root element.
; 11363: 		 */
; 11364: 		if (ctxt->validate && ctxt->wellFormed && ctxt->myDoc &&
; 11365: 		    ctxt->node && (ctxt->node == ctxt->myDoc->children))

	mov	eax, DWORD PTR _ctxt$[ebp]
	cmp	DWORD PTR [eax+104], 0
	je	SHORT $LN84@xmlParseTr
	mov	ecx, DWORD PTR _ctxt$[ebp]
	cmp	DWORD PTR [ecx+12], 0
	je	SHORT $LN84@xmlParseTr
	mov	edx, DWORD PTR _ctxt$[ebp]
	cmp	DWORD PTR [edx+8], 0
	je	SHORT $LN84@xmlParseTr
	mov	eax, DWORD PTR _ctxt$[ebp]
	cmp	DWORD PTR [eax+52], 0
	je	SHORT $LN84@xmlParseTr
	mov	ecx, DWORD PTR _ctxt$[ebp]
	mov	edx, DWORD PTR [ecx+8]
	mov	eax, DWORD PTR _ctxt$[ebp]
	mov	ecx, DWORD PTR [eax+52]
	cmp	ecx, DWORD PTR [edx+12]
	jne	SHORT $LN84@xmlParseTr

; 11366: 		    ctxt->valid &= xmlValidateRoot(&ctxt->vctxt, ctxt->myDoc);

	mov	edx, DWORD PTR _ctxt$[ebp]
	mov	eax, DWORD PTR [edx+8]
	push	eax
	mov	ecx, DWORD PTR _ctxt$[ebp]
	add	ecx, 108				; 0000006cH
	push	ecx
	call	_xmlValidateRoot
	add	esp, 8
	mov	edx, DWORD PTR _ctxt$[ebp]
	and	eax, DWORD PTR [edx+100]
	mov	ecx, DWORD PTR _ctxt$[ebp]
	mov	DWORD PTR [ecx+100], eax
$LN84@xmlParseTr:

; 11367: #endif /* LIBXML_VALID_ENABLED */
; 11368: 
; 11369: 		/*
; 11370: 		 * Check for an Empty Element.
; 11371: 		 */
; 11372: 		if ((RAW == '/') && (NXT(1) == '>')) {

	mov	edx, DWORD PTR _ctxt$[ebp]
	mov	eax, DWORD PTR [edx+36]
	mov	ecx, DWORD PTR [eax+16]
	movzx	edx, BYTE PTR [ecx]
	cmp	edx, 47					; 0000002fH
	jne	$LN85@xmlParseTr
	mov	eax, DWORD PTR _ctxt$[ebp]
	mov	ecx, DWORD PTR [eax+36]
	mov	edx, 1
	shl	edx, 0
	mov	eax, DWORD PTR [ecx+16]
	movzx	ecx, BYTE PTR [eax+edx]
	cmp	ecx, 62					; 0000003eH
	jne	$LN85@xmlParseTr
$LN8@xmlParseTr:

; 11373: 		    SKIP(2);

	mov	edx, DWORD PTR _ctxt$[ebp]
	mov	eax, DWORD PTR [edx+200]
	add	eax, 2
	mov	ecx, DWORD PTR _ctxt$[ebp]
	mov	DWORD PTR [ecx+200], eax
	mov	edx, DWORD PTR _ctxt$[ebp]
	mov	eax, DWORD PTR [edx+36]
	mov	ecx, DWORD PTR [eax+16]
	add	ecx, 2
	mov	edx, DWORD PTR _ctxt$[ebp]
	mov	eax, DWORD PTR [edx+36]
	mov	DWORD PTR [eax+16], ecx
	mov	ecx, DWORD PTR _ctxt$[ebp]
	mov	edx, DWORD PTR [ecx+36]
	mov	eax, DWORD PTR [edx+32]
	add	eax, 2
	mov	ecx, DWORD PTR _ctxt$[ebp]
	mov	edx, DWORD PTR [ecx+36]
	mov	DWORD PTR [edx+32], eax
	mov	eax, DWORD PTR _ctxt$[ebp]
	mov	ecx, DWORD PTR [eax+36]
	mov	edx, DWORD PTR [ecx+16]
	movzx	eax, BYTE PTR [edx]
	test	eax, eax
	jne	SHORT $LN6@xmlParseTr
	push	250					; 000000faH
	mov	ecx, DWORD PTR _ctxt$[ebp]
	mov	edx, DWORD PTR [ecx+36]
	push	edx
	call	_xmlParserInputGrow
	add	esp, 8
$LN6@xmlParseTr:
	xor	eax, eax
	jne	SHORT $LN8@xmlParseTr

; 11374: 
; 11375: 		    if (ctxt->sax2) {

	mov	ecx, DWORD PTR _ctxt$[ebp]
	cmp	DWORD PTR [ecx+324], 0
	je	SHORT $LN87@xmlParseTr

; 11376: 			if ((ctxt->sax != NULL) &&
; 11377: 			    (ctxt->sax->endElementNs != NULL) &&

	mov	edx, DWORD PTR _ctxt$[ebp]
	cmp	DWORD PTR [edx], 0
	je	SHORT $LN89@xmlParseTr
	mov	eax, DWORD PTR _ctxt$[ebp]
	mov	ecx, DWORD PTR [eax]
	cmp	DWORD PTR [ecx+120], 0
	je	SHORT $LN89@xmlParseTr
	mov	edx, DWORD PTR _ctxt$[ebp]
	cmp	DWORD PTR [edx+212], 0
	jne	SHORT $LN89@xmlParseTr

; 11378: 			    (!ctxt->disableSAX))
; 11379: 			    ctxt->sax->endElementNs(ctxt->userData, name,

	mov	esi, esp
	mov	eax, DWORD PTR _URI$17[ebp]
	push	eax
	mov	ecx, DWORD PTR _prefix$18[ebp]
	push	ecx
	mov	edx, DWORD PTR _name$19[ebp]
	push	edx
	mov	eax, DWORD PTR _ctxt$[ebp]
	mov	ecx, DWORD PTR [eax+4]
	push	ecx
	mov	edx, DWORD PTR _ctxt$[ebp]
	mov	eax, DWORD PTR [edx]
	mov	ecx, DWORD PTR [eax+120]
	call	ecx
	add	esp, 16					; 00000010H
	cmp	esi, esp
	call	__RTC_CheckEsp
$LN89@xmlParseTr:

; 11380: 			                            prefix, URI);
; 11381: 			if (ctxt->nsNr - nsNr > 0)

	mov	edx, DWORD PTR _ctxt$[ebp]
	mov	eax, DWORD PTR [edx+328]
	sub	eax, DWORD PTR _nsNr$16[ebp]
	test	eax, eax
	jle	SHORT $LN90@xmlParseTr

; 11382: 			    nsPop(ctxt, ctxt->nsNr - nsNr);

	mov	ecx, DWORD PTR _ctxt$[ebp]
	mov	edx, DWORD PTR [ecx+328]
	sub	edx, DWORD PTR _nsNr$16[ebp]
	push	edx
	mov	eax, DWORD PTR _ctxt$[ebp]
	push	eax
	call	_nsPop
	add	esp, 8
$LN90@xmlParseTr:

; 11383: #ifdef LIBXML_SAX1_ENABLED
; 11384: 		    } else {

	jmp	SHORT $LN88@xmlParseTr
$LN87@xmlParseTr:

; 11385: 			if ((ctxt->sax != NULL) &&
; 11386: 			    (ctxt->sax->endElement != NULL) &&

	mov	ecx, DWORD PTR _ctxt$[ebp]
	cmp	DWORD PTR [ecx], 0
	je	SHORT $LN88@xmlParseTr
	mov	edx, DWORD PTR _ctxt$[ebp]
	mov	eax, DWORD PTR [edx]
	cmp	DWORD PTR [eax+60], 0
	je	SHORT $LN88@xmlParseTr
	mov	ecx, DWORD PTR _ctxt$[ebp]
	cmp	DWORD PTR [ecx+212], 0
	jne	SHORT $LN88@xmlParseTr

; 11387: 			    (!ctxt->disableSAX))
; 11388: 			    ctxt->sax->endElement(ctxt->userData, name);

	mov	esi, esp
	mov	edx, DWORD PTR _name$19[ebp]
	push	edx
	mov	eax, DWORD PTR _ctxt$[ebp]
	mov	ecx, DWORD PTR [eax+4]
	push	ecx
	mov	edx, DWORD PTR _ctxt$[ebp]
	mov	eax, DWORD PTR [edx]
	mov	ecx, DWORD PTR [eax+60]
	call	ecx
	add	esp, 8
	cmp	esi, esp
	call	__RTC_CheckEsp
$LN88@xmlParseTr:

; 11389: #endif /* LIBXML_SAX1_ENABLED */
; 11390: 		    }
; 11391: 		    if (ctxt->instate == XML_PARSER_EOF)

	mov	edx, DWORD PTR _ctxt$[ebp]
	cmp	DWORD PTR [edx+172], -1
	jne	SHORT $LN92@xmlParseTr

; 11392: 			goto done;

	jmp	$done$260
$LN92@xmlParseTr:

; 11393: 		    spacePop(ctxt);

	mov	eax, DWORD PTR _ctxt$[ebp]
	push	eax
	call	_spacePop
	add	esp, 4

; 11394: 		    if (ctxt->nameNr == 0) {

	mov	ecx, DWORD PTR _ctxt$[ebp]
	cmp	DWORD PTR [ecx+188], 0
	jne	SHORT $LN93@xmlParseTr

; 11395: 			ctxt->instate = XML_PARSER_EPILOG;

	mov	edx, DWORD PTR _ctxt$[ebp]
	mov	DWORD PTR [edx+172], 14			; 0000000eH

; 11396: 		    } else {

	jmp	SHORT $LN94@xmlParseTr
$LN93@xmlParseTr:

; 11397: 			ctxt->instate = XML_PARSER_CONTENT;

	mov	eax, DWORD PTR _ctxt$[ebp]
	mov	DWORD PTR [eax+172], 7
$LN94@xmlParseTr:

; 11398: 		    }
; 11399:                     ctxt->progressive = 1;

	mov	ecx, DWORD PTR _ctxt$[ebp]
	mov	DWORD PTR [ecx+292], 1

; 11400: 		    break;

	jmp	$LN4@xmlParseTr
$LN85@xmlParseTr:

; 11401: 		}
; 11402: 		if (RAW == '>') {

	mov	edx, DWORD PTR _ctxt$[ebp]
	mov	eax, DWORD PTR [edx+36]
	mov	ecx, DWORD PTR [eax+16]
	movzx	edx, BYTE PTR [ecx]
	cmp	edx, 62					; 0000003eH
	jne	SHORT $LN95@xmlParseTr

; 11403: 		    NEXT;

	mov	eax, DWORD PTR _ctxt$[ebp]
	push	eax
	call	_xmlNextChar
	add	esp, 4

; 11404: 		} else {

	jmp	SHORT $LN96@xmlParseTr
$LN95@xmlParseTr:

; 11405: 		    xmlFatalErrMsgStr(ctxt, XML_ERR_GT_REQUIRED,

	mov	ecx, DWORD PTR _name$19[ebp]
	push	ecx
	push	OFFSET ??_C@_0CD@HIMAKCPA@Couldn?8t?5find?5end?5of?5Start?5Tag?5@
	push	73					; 00000049H
	mov	edx, DWORD PTR _ctxt$[ebp]
	push	edx
	call	_xmlFatalErrMsgStr
	add	esp, 16					; 00000010H

; 11406: 					 "Couldn't find end of Start Tag %s\n",
; 11407: 					 name);
; 11408: 		    nodePop(ctxt);

	mov	eax, DWORD PTR _ctxt$[ebp]
	push	eax
	call	_nodePop
	add	esp, 4

; 11409: 		    spacePop(ctxt);

	mov	ecx, DWORD PTR _ctxt$[ebp]
	push	ecx
	call	_spacePop
	add	esp, 4
$LN96@xmlParseTr:

; 11410: 		}
; 11411: 		if (ctxt->sax2)

	mov	edx, DWORD PTR _ctxt$[ebp]
	cmp	DWORD PTR [edx+324], 0
	je	SHORT $LN97@xmlParseTr

; 11412: 		    nameNsPush(ctxt, name, prefix, URI, ctxt->nsNr - nsNr);

	mov	eax, DWORD PTR _ctxt$[ebp]
	mov	ecx, DWORD PTR [eax+328]
	sub	ecx, DWORD PTR _nsNr$16[ebp]
	push	ecx
	mov	edx, DWORD PTR _URI$17[ebp]
	push	edx
	mov	eax, DWORD PTR _prefix$18[ebp]
	push	eax
	mov	ecx, DWORD PTR _name$19[ebp]
	push	ecx
	mov	edx, DWORD PTR _ctxt$[ebp]
	push	edx
	call	_nameNsPush
	add	esp, 20					; 00000014H
	jmp	SHORT $LN98@xmlParseTr
$LN97@xmlParseTr:

; 11413: #ifdef LIBXML_SAX1_ENABLED
; 11414: 		else
; 11415: 		    namePush(ctxt, name);

	mov	eax, DWORD PTR _name$19[ebp]
	push	eax
	mov	ecx, DWORD PTR _ctxt$[ebp]
	push	ecx
	call	_namePush
	add	esp, 8
$LN98@xmlParseTr:

; 11416: #endif /* LIBXML_SAX1_ENABLED */
; 11417: 
; 11418: 		ctxt->instate = XML_PARSER_CONTENT;

	mov	edx, DWORD PTR _ctxt$[ebp]
	mov	DWORD PTR [edx+172], 7

; 11419:                 ctxt->progressive = 1;

	mov	eax, DWORD PTR _ctxt$[ebp]
	mov	DWORD PTR [eax+292], 1

; 11420:                 break;

	jmp	$LN4@xmlParseTr
$LN99@xmlParseTr:

; 11421: 	    }
; 11422:             case XML_PARSER_CONTENT: {
; 11423: 		const xmlChar *test;
; 11424: 		unsigned int cons;
; 11425: 		if ((avail < 2) && (ctxt->inputNr == 1))

	cmp	DWORD PTR _avail$[ebp], 2
	jge	SHORT $LN100@xmlParseTr
	mov	ecx, DWORD PTR _ctxt$[ebp]
	cmp	DWORD PTR [ecx+40], 1
	jne	SHORT $LN100@xmlParseTr

; 11426: 		    goto done;

	jmp	$done$260
$LN100@xmlParseTr:

; 11427: 		cur = ctxt->input->cur[0];

	mov	edx, DWORD PTR _ctxt$[ebp]
	mov	eax, DWORD PTR [edx+36]
	mov	ecx, 1
	imul	edx, ecx, 0
	mov	eax, DWORD PTR [eax+16]
	mov	cl, BYTE PTR [edx+eax]
	mov	BYTE PTR _cur$[ebp], cl

; 11428: 		next = ctxt->input->cur[1];

	mov	edx, DWORD PTR _ctxt$[ebp]
	mov	eax, DWORD PTR [edx+36]
	mov	ecx, 1
	shl	ecx, 0
	mov	edx, DWORD PTR [eax+16]
	mov	al, BYTE PTR [ecx+edx]
	mov	BYTE PTR _next$[ebp], al

; 11429: 
; 11430: 		test = CUR_PTR;

	mov	ecx, DWORD PTR _ctxt$[ebp]
	mov	edx, DWORD PTR [ecx+36]
	mov	eax, DWORD PTR [edx+16]
	mov	DWORD PTR _test$15[ebp], eax

; 11431: 	        cons = ctxt->input->consumed;

	mov	ecx, DWORD PTR _ctxt$[ebp]
	mov	edx, DWORD PTR [ecx+36]
	mov	eax, DWORD PTR [edx+36]
	mov	DWORD PTR _cons$14[ebp], eax

; 11432: 		if ((cur == '<') && (next == '/')) {

	movzx	ecx, BYTE PTR _cur$[ebp]
	cmp	ecx, 60					; 0000003cH
	jne	SHORT $LN101@xmlParseTr
	movzx	edx, BYTE PTR _next$[ebp]
	cmp	edx, 47					; 0000002fH
	jne	SHORT $LN101@xmlParseTr

; 11433: 		    ctxt->instate = XML_PARSER_END_TAG;

	mov	eax, DWORD PTR _ctxt$[ebp]
	mov	DWORD PTR [eax+172], 9

; 11434: 		    break;

	jmp	$LN4@xmlParseTr
	jmp	$LN102@xmlParseTr
$LN101@xmlParseTr:

; 11435: 	        } else if ((cur == '<') && (next == '?')) {

	movzx	ecx, BYTE PTR _cur$[ebp]
	cmp	ecx, 60					; 0000003cH
	jne	SHORT $LN103@xmlParseTr
	movzx	edx, BYTE PTR _next$[ebp]
	cmp	edx, 63					; 0000003fH
	jne	SHORT $LN103@xmlParseTr

; 11436: 		    if ((!terminate) &&

	cmp	DWORD PTR _terminate$[ebp], 0
	jne	SHORT $LN105@xmlParseTr
	push	0
	push	62					; 0000003eH
	push	63					; 0000003fH
	mov	eax, DWORD PTR _ctxt$[ebp]
	push	eax
	call	_xmlParseLookupSequence
	add	esp, 16					; 00000010H
	test	eax, eax
	jge	SHORT $LN105@xmlParseTr

; 11437: 		        (xmlParseLookupSequence(ctxt, '?', '>', 0) < 0)) {
; 11438:                         ctxt->progressive = XML_PARSER_PI;

	mov	ecx, DWORD PTR _ctxt$[ebp]
	mov	DWORD PTR [ecx+292], 2

; 11439: 			goto done;

	jmp	$done$260
$LN105@xmlParseTr:

; 11440:                     }
; 11441: 		    xmlParsePI(ctxt);

	mov	edx, DWORD PTR _ctxt$[ebp]
	push	edx
	call	_xmlParsePI
	add	esp, 4

; 11442: 		    ctxt->instate = XML_PARSER_CONTENT;

	mov	eax, DWORD PTR _ctxt$[ebp]
	mov	DWORD PTR [eax+172], 7

; 11443:                     ctxt->progressive = 1;

	mov	ecx, DWORD PTR _ctxt$[ebp]
	mov	DWORD PTR [ecx+292], 1
	jmp	$LN102@xmlParseTr
$LN103@xmlParseTr:

; 11444: 		} else if ((cur == '<') && (next != '!')) {

	movzx	edx, BYTE PTR _cur$[ebp]
	cmp	edx, 60					; 0000003cH
	jne	SHORT $LN106@xmlParseTr
	movzx	eax, BYTE PTR _next$[ebp]
	cmp	eax, 33					; 00000021H
	je	SHORT $LN106@xmlParseTr

; 11445: 		    ctxt->instate = XML_PARSER_START_TAG;

	mov	ecx, DWORD PTR _ctxt$[ebp]
	mov	DWORD PTR [ecx+172], 6

; 11446: 		    break;

	jmp	$LN4@xmlParseTr

; 11447: 		} else if ((cur == '<') && (next == '!') &&

	jmp	$LN102@xmlParseTr
$LN106@xmlParseTr:

; 11448: 		           (ctxt->input->cur[2] == '-') &&

	movzx	edx, BYTE PTR _cur$[ebp]
	cmp	edx, 60					; 0000003cH
	jne	$LN108@xmlParseTr
	movzx	eax, BYTE PTR _next$[ebp]
	cmp	eax, 33					; 00000021H
	jne	$LN108@xmlParseTr
	mov	ecx, DWORD PTR _ctxt$[ebp]
	mov	edx, DWORD PTR [ecx+36]
	mov	eax, 1
	shl	eax, 1
	mov	ecx, DWORD PTR [edx+16]
	movzx	edx, BYTE PTR [ecx+eax]
	cmp	edx, 45					; 0000002dH
	jne	$LN108@xmlParseTr
	mov	eax, DWORD PTR _ctxt$[ebp]
	mov	ecx, DWORD PTR [eax+36]
	mov	edx, 1
	imul	eax, edx, 3
	mov	ecx, DWORD PTR [ecx+16]
	movzx	edx, BYTE PTR [ecx+eax]
	cmp	edx, 45					; 0000002dH
	jne	$LN108@xmlParseTr

; 11449: 			   (ctxt->input->cur[3] == '-')) {
; 11450: 		    int term;
; 11451: 
; 11452: 	            if (avail < 4)

	cmp	DWORD PTR _avail$[ebp], 4
	jge	SHORT $LN110@xmlParseTr

; 11453: 		        goto done;

	jmp	$done$260
$LN110@xmlParseTr:

; 11454: 		    ctxt->input->cur += 4;

	mov	eax, DWORD PTR _ctxt$[ebp]
	mov	ecx, DWORD PTR [eax+36]
	mov	edx, DWORD PTR [ecx+16]
	add	edx, 4
	mov	eax, DWORD PTR _ctxt$[ebp]
	mov	ecx, DWORD PTR [eax+36]
	mov	DWORD PTR [ecx+16], edx

; 11455: 		    term = xmlParseLookupSequence(ctxt, '-', '-', '>');

	push	62					; 0000003eH
	push	45					; 0000002dH
	push	45					; 0000002dH
	mov	edx, DWORD PTR _ctxt$[ebp]
	push	edx
	call	_xmlParseLookupSequence
	add	esp, 16					; 00000010H
	mov	DWORD PTR _term$13[ebp], eax

; 11456: 		    ctxt->input->cur -= 4;

	mov	eax, DWORD PTR _ctxt$[ebp]
	mov	ecx, DWORD PTR [eax+36]
	mov	edx, DWORD PTR [ecx+16]
	sub	edx, 4
	mov	eax, DWORD PTR _ctxt$[ebp]
	mov	ecx, DWORD PTR [eax+36]
	mov	DWORD PTR [ecx+16], edx

; 11457: 		    if ((!terminate) && (term < 0)) {

	cmp	DWORD PTR _terminate$[ebp], 0
	jne	SHORT $LN111@xmlParseTr
	cmp	DWORD PTR _term$13[ebp], 0
	jge	SHORT $LN111@xmlParseTr

; 11458:                         ctxt->progressive = XML_PARSER_COMMENT;

	mov	edx, DWORD PTR _ctxt$[ebp]
	mov	DWORD PTR [edx+292], 5

; 11459: 			goto done;

	jmp	$done$260
$LN111@xmlParseTr:

; 11460:                     }
; 11461: 		    xmlParseComment(ctxt);

	mov	eax, DWORD PTR _ctxt$[ebp]
	push	eax
	call	_xmlParseComment
	add	esp, 4

; 11462: 		    ctxt->instate = XML_PARSER_CONTENT;

	mov	ecx, DWORD PTR _ctxt$[ebp]
	mov	DWORD PTR [ecx+172], 7

; 11463:                     ctxt->progressive = 1;

	mov	edx, DWORD PTR _ctxt$[ebp]
	mov	DWORD PTR [edx+292], 1

; 11464: 		} else if ((cur == '<') && (ctxt->input->cur[1] == '!') &&

	jmp	$LN102@xmlParseTr
$LN108@xmlParseTr:

; 11465: 		    (ctxt->input->cur[2] == '[') &&
; 11466: 		    (ctxt->input->cur[3] == 'C') &&
; 11467: 		    (ctxt->input->cur[4] == 'D') &&
; 11468: 		    (ctxt->input->cur[5] == 'A') &&
; 11469: 		    (ctxt->input->cur[6] == 'T') &&
; 11470: 		    (ctxt->input->cur[7] == 'A') &&

	movzx	eax, BYTE PTR _cur$[ebp]
	cmp	eax, 60					; 0000003cH
	jne	$LN112@xmlParseTr
	mov	ecx, DWORD PTR _ctxt$[ebp]
	mov	edx, DWORD PTR [ecx+36]
	mov	eax, 1
	shl	eax, 0
	mov	ecx, DWORD PTR [edx+16]
	movzx	edx, BYTE PTR [ecx+eax]
	cmp	edx, 33					; 00000021H
	jne	$LN112@xmlParseTr
	mov	eax, DWORD PTR _ctxt$[ebp]
	mov	ecx, DWORD PTR [eax+36]
	mov	edx, 1
	shl	edx, 1
	mov	eax, DWORD PTR [ecx+16]
	movzx	ecx, BYTE PTR [eax+edx]
	cmp	ecx, 91					; 0000005bH
	jne	$LN112@xmlParseTr
	mov	edx, DWORD PTR _ctxt$[ebp]
	mov	eax, DWORD PTR [edx+36]
	mov	ecx, 1
	imul	edx, ecx, 3
	mov	eax, DWORD PTR [eax+16]
	movzx	ecx, BYTE PTR [eax+edx]
	cmp	ecx, 67					; 00000043H
	jne	$LN112@xmlParseTr
	mov	edx, DWORD PTR _ctxt$[ebp]
	mov	eax, DWORD PTR [edx+36]
	mov	ecx, 1
	shl	ecx, 2
	mov	edx, DWORD PTR [eax+16]
	movzx	eax, BYTE PTR [edx+ecx]
	cmp	eax, 68					; 00000044H
	jne	$LN112@xmlParseTr
	mov	ecx, DWORD PTR _ctxt$[ebp]
	mov	edx, DWORD PTR [ecx+36]
	mov	eax, 1
	imul	ecx, eax, 5
	mov	edx, DWORD PTR [edx+16]
	movzx	eax, BYTE PTR [edx+ecx]
	cmp	eax, 65					; 00000041H
	jne	$LN112@xmlParseTr
	mov	ecx, DWORD PTR _ctxt$[ebp]
	mov	edx, DWORD PTR [ecx+36]
	mov	eax, 1
	imul	ecx, eax, 6
	mov	edx, DWORD PTR [edx+16]
	movzx	eax, BYTE PTR [edx+ecx]
	cmp	eax, 84					; 00000054H
	jne	$LN112@xmlParseTr
	mov	ecx, DWORD PTR _ctxt$[ebp]
	mov	edx, DWORD PTR [ecx+36]
	mov	eax, 1
	imul	ecx, eax, 7
	mov	edx, DWORD PTR [edx+16]
	movzx	eax, BYTE PTR [edx+ecx]
	cmp	eax, 65					; 00000041H
	jne	$LN112@xmlParseTr
	mov	ecx, DWORD PTR _ctxt$[ebp]
	mov	edx, DWORD PTR [ecx+36]
	mov	eax, 1
	shl	eax, 3
	mov	ecx, DWORD PTR [edx+16]
	movzx	edx, BYTE PTR [ecx+eax]
	cmp	edx, 91					; 0000005bH
	jne	SHORT $LN112@xmlParseTr
$LN11@xmlParseTr:

; 11471: 		    (ctxt->input->cur[8] == '[')) {
; 11472: 		    SKIP(9);

	mov	eax, DWORD PTR _ctxt$[ebp]
	mov	ecx, DWORD PTR [eax+200]
	add	ecx, 9
	mov	edx, DWORD PTR _ctxt$[ebp]
	mov	DWORD PTR [edx+200], ecx
	mov	eax, DWORD PTR _ctxt$[ebp]
	mov	ecx, DWORD PTR [eax+36]
	mov	edx, DWORD PTR [ecx+16]
	add	edx, 9
	mov	eax, DWORD PTR _ctxt$[ebp]
	mov	ecx, DWORD PTR [eax+36]
	mov	DWORD PTR [ecx+16], edx
	mov	edx, DWORD PTR _ctxt$[ebp]
	mov	eax, DWORD PTR [edx+36]
	mov	ecx, DWORD PTR [eax+32]
	add	ecx, 9
	mov	edx, DWORD PTR _ctxt$[ebp]
	mov	eax, DWORD PTR [edx+36]
	mov	DWORD PTR [eax+32], ecx
	mov	ecx, DWORD PTR _ctxt$[ebp]
	mov	edx, DWORD PTR [ecx+36]
	mov	eax, DWORD PTR [edx+16]
	movzx	ecx, BYTE PTR [eax]
	test	ecx, ecx
	jne	SHORT $LN9@xmlParseTr
	push	250					; 000000faH
	mov	edx, DWORD PTR _ctxt$[ebp]
	mov	eax, DWORD PTR [edx+36]
	push	eax
	call	_xmlParserInputGrow
	add	esp, 8
$LN9@xmlParseTr:
	xor	ecx, ecx
	jne	SHORT $LN11@xmlParseTr

; 11473: 		    ctxt->instate = XML_PARSER_CDATA_SECTION;

	mov	edx, DWORD PTR _ctxt$[ebp]
	mov	DWORD PTR [edx+172], 8

; 11474: 		    break;

	jmp	$LN4@xmlParseTr
	jmp	$LN102@xmlParseTr
$LN112@xmlParseTr:

; 11475: 		} else if ((cur == '<') && (next == '!') &&

	movzx	eax, BYTE PTR _cur$[ebp]
	cmp	eax, 60					; 0000003cH
	jne	SHORT $LN115@xmlParseTr
	movzx	ecx, BYTE PTR _next$[ebp]
	cmp	ecx, 33					; 00000021H
	jne	SHORT $LN115@xmlParseTr
	cmp	DWORD PTR _avail$[ebp], 9
	jge	SHORT $LN115@xmlParseTr

; 11476: 		           (avail < 9)) {
; 11477: 		    goto done;

	jmp	$done$260
	jmp	$LN102@xmlParseTr
$LN115@xmlParseTr:

; 11478: 		} else if (cur == '&') {

	movzx	edx, BYTE PTR _cur$[ebp]
	cmp	edx, 38					; 00000026H
	jne	SHORT $LN117@xmlParseTr

; 11479: 		    if ((!terminate) &&

	cmp	DWORD PTR _terminate$[ebp], 0
	jne	SHORT $LN119@xmlParseTr
	push	0
	push	0
	push	59					; 0000003bH
	mov	eax, DWORD PTR _ctxt$[ebp]
	push	eax
	call	_xmlParseLookupSequence
	add	esp, 16					; 00000010H
	test	eax, eax
	jge	SHORT $LN119@xmlParseTr

; 11480: 		        (xmlParseLookupSequence(ctxt, ';', 0, 0) < 0))
; 11481: 			goto done;

	jmp	$done$260
$LN119@xmlParseTr:

; 11482: 		    xmlParseReference(ctxt);

	mov	ecx, DWORD PTR _ctxt$[ebp]
	push	ecx
	call	_xmlParseReference
	add	esp, 4

; 11483: 		} else {

	jmp	SHORT $LN102@xmlParseTr
$LN117@xmlParseTr:

; 11484: 		    /* TODO Avoid the extra copy, handle directly !!! */
; 11485: 		    /*
; 11486: 		     * Goal of the following test is:
; 11487: 		     *  - minimize calls to the SAX 'character' callback
; 11488: 		     *    when they are mergeable
; 11489: 		     *  - handle an problem for isBlank when we only parse
; 11490: 		     *    a sequence of blank chars and the next one is
; 11491: 		     *    not available to check against '<' presence.
; 11492: 		     *  - tries to homogenize the differences in SAX
; 11493: 		     *    callbacks between the push and pull versions
; 11494: 		     *    of the parser.
; 11495: 		     */
; 11496: 		    if ((ctxt->inputNr == 1) &&

	mov	edx, DWORD PTR _ctxt$[ebp]
	cmp	DWORD PTR [edx+40], 1
	jne	SHORT $LN120@xmlParseTr
	cmp	DWORD PTR _avail$[ebp], 300		; 0000012cH
	jge	SHORT $LN120@xmlParseTr

; 11497: 		        (avail < XML_PARSER_BIG_BUFFER_SIZE)) {
; 11498: 			if (!terminate) {

	cmp	DWORD PTR _terminate$[ebp], 0
	jne	SHORT $LN120@xmlParseTr

; 11499: 			    if (ctxt->progressive) {

	mov	eax, DWORD PTR _ctxt$[ebp]
	cmp	DWORD PTR [eax+292], 0
	je	SHORT $LN122@xmlParseTr

; 11500: 				if ((lastlt == NULL) ||

	cmp	DWORD PTR _lastlt$[ebp], 0
	je	SHORT $LN125@xmlParseTr
	mov	ecx, DWORD PTR _ctxt$[ebp]
	mov	edx, DWORD PTR [ecx+36]
	mov	eax, DWORD PTR [edx+16]
	cmp	eax, DWORD PTR _lastlt$[ebp]
	jbe	SHORT $LN124@xmlParseTr
$LN125@xmlParseTr:

; 11501: 				    (ctxt->input->cur > lastlt))
; 11502: 				    goto done;

	jmp	$done$260
$LN124@xmlParseTr:

; 11503: 			    } else if (xmlParseLookupSequence(ctxt,

	jmp	SHORT $LN120@xmlParseTr
$LN122@xmlParseTr:

; 11504: 			                                      '<', 0, 0) < 0) {

	push	0
	push	0
	push	60					; 0000003cH
	mov	ecx, DWORD PTR _ctxt$[ebp]
	push	ecx
	call	_xmlParseLookupSequence
	add	esp, 16					; 00000010H
	test	eax, eax
	jge	SHORT $LN120@xmlParseTr

; 11505: 				goto done;

	jmp	$done$260
$LN120@xmlParseTr:

; 11506: 			    }
; 11507: 			}
; 11508:                     }
; 11509: 		    ctxt->checkIndex = 0;

	mov	edx, DWORD PTR _ctxt$[ebp]
	mov	DWORD PTR [edx+204], 0

; 11510: 		    xmlParseCharData(ctxt, 0);

	push	0
	mov	eax, DWORD PTR _ctxt$[ebp]
	push	eax
	call	_xmlParseCharData
	add	esp, 8
$LN102@xmlParseTr:

; 11511: 		}
; 11512: 		if ((cons == ctxt->input->consumed) && (test == CUR_PTR)) {

	mov	ecx, DWORD PTR _ctxt$[ebp]
	mov	edx, DWORD PTR [ecx+36]
	mov	eax, DWORD PTR _cons$14[ebp]
	cmp	eax, DWORD PTR [edx+36]
	jne	SHORT $LN127@xmlParseTr
	mov	ecx, DWORD PTR _ctxt$[ebp]
	mov	edx, DWORD PTR [ecx+36]
	mov	eax, DWORD PTR _test$15[ebp]
	cmp	eax, DWORD PTR [edx+16]
	jne	SHORT $LN127@xmlParseTr

; 11513: 		    xmlFatalErr(ctxt, XML_ERR_INTERNAL_ERROR,

	push	OFFSET ??_C@_0CG@FCFCBOFE@detected?5an?5error?5in?5element?5co@
	push	1
	mov	ecx, DWORD PTR _ctxt$[ebp]
	push	ecx
	call	_xmlFatalErr
	add	esp, 12					; 0000000cH

; 11514: 		                "detected an error in element content\n");
; 11515: 		    xmlHaltParser(ctxt);

	mov	edx, DWORD PTR _ctxt$[ebp]
	push	edx
	call	_xmlHaltParser
	add	esp, 4

; 11516: 		    break;

	jmp	$LN4@xmlParseTr
$LN127@xmlParseTr:

; 11517: 		}
; 11518: 		break;

	jmp	$LN4@xmlParseTr
$LN128@xmlParseTr:

; 11519: 	    }
; 11520:             case XML_PARSER_END_TAG:
; 11521: 		if (avail < 2)

	cmp	DWORD PTR _avail$[ebp], 2
	jge	SHORT $LN129@xmlParseTr

; 11522: 		    goto done;

	jmp	$done$260
$LN129@xmlParseTr:

; 11523: 		if (!terminate) {

	cmp	DWORD PTR _terminate$[ebp], 0
	jne	SHORT $LN130@xmlParseTr

; 11524: 		    if (ctxt->progressive) {

	mov	eax, DWORD PTR _ctxt$[ebp]
	cmp	DWORD PTR [eax+292], 0
	je	SHORT $LN131@xmlParseTr

; 11525: 		        /* > can be found unescaped in attribute values */
; 11526: 		        if ((lastgt == NULL) || (ctxt->input->cur >= lastgt))

	cmp	DWORD PTR _lastgt$[ebp], 0
	je	SHORT $LN134@xmlParseTr
	mov	ecx, DWORD PTR _ctxt$[ebp]
	mov	edx, DWORD PTR [ecx+36]
	mov	eax, DWORD PTR [edx+16]
	cmp	eax, DWORD PTR _lastgt$[ebp]
	jb	SHORT $LN133@xmlParseTr
$LN134@xmlParseTr:

; 11527: 			    goto done;

	jmp	$done$260
$LN133@xmlParseTr:

; 11528: 		    } else if (xmlParseLookupSequence(ctxt, '>', 0, 0) < 0) {

	jmp	SHORT $LN130@xmlParseTr
$LN131@xmlParseTr:
	push	0
	push	0
	push	62					; 0000003eH
	mov	ecx, DWORD PTR _ctxt$[ebp]
	push	ecx
	call	_xmlParseLookupSequence
	add	esp, 16					; 00000010H
	test	eax, eax
	jge	SHORT $LN130@xmlParseTr

; 11529: 			goto done;

	jmp	$done$260
$LN130@xmlParseTr:

; 11530: 		    }
; 11531: 		}
; 11532: 		if (ctxt->sax2) {

	mov	edx, DWORD PTR _ctxt$[ebp]
	cmp	DWORD PTR [edx+324], 0
	je	SHORT $LN136@xmlParseTr

; 11533: 		    xmlParseEndTag2(ctxt,

	push	0
	mov	eax, DWORD PTR _ctxt$[ebp]
	imul	ecx, DWORD PTR [eax+188], 3
	mov	edx, DWORD PTR _ctxt$[ebp]
	mov	eax, DWORD PTR [edx+344]
	mov	ecx, DWORD PTR [eax+ecx*4-4]
	push	ecx
	push	0
	mov	edx, DWORD PTR _ctxt$[ebp]
	imul	eax, DWORD PTR [edx+188], 3
	mov	ecx, DWORD PTR _ctxt$[ebp]
	mov	edx, DWORD PTR [ecx+344]
	mov	eax, DWORD PTR [edx+eax*4-8]
	push	eax
	mov	ecx, DWORD PTR _ctxt$[ebp]
	imul	edx, DWORD PTR [ecx+188], 3
	mov	eax, DWORD PTR _ctxt$[ebp]
	mov	ecx, DWORD PTR [eax+344]
	mov	edx, DWORD PTR [ecx+edx*4-12]
	push	edx
	mov	eax, DWORD PTR _ctxt$[ebp]
	push	eax
	call	_xmlParseEndTag2
	add	esp, 24					; 00000018H

; 11534: 		            (void *) ctxt->pushTab[ctxt->nameNr * 3 - 3],
; 11535: 		            (void *) ctxt->pushTab[ctxt->nameNr * 3 - 2], 0,
; 11536: 		            (int) (ptrdiff_t)
; 11537:                                 ctxt->pushTab[ctxt->nameNr * 3 - 1], 0);
; 11538: 		    nameNsPop(ctxt);

	mov	ecx, DWORD PTR _ctxt$[ebp]
	push	ecx
	call	_nameNsPop
	add	esp, 4

; 11539: 		}

	jmp	SHORT $LN137@xmlParseTr
$LN136@xmlParseTr:

; 11540: #ifdef LIBXML_SAX1_ENABLED
; 11541: 		  else
; 11542: 		    xmlParseEndTag1(ctxt, 0);

	push	0
	mov	edx, DWORD PTR _ctxt$[ebp]
	push	edx
	call	_xmlParseEndTag1
	add	esp, 8
$LN137@xmlParseTr:

; 11543: #endif /* LIBXML_SAX1_ENABLED */
; 11544: 		if (ctxt->instate == XML_PARSER_EOF) {

	mov	eax, DWORD PTR _ctxt$[ebp]
	cmp	DWORD PTR [eax+172], -1
	jne	SHORT $LN138@xmlParseTr
	jmp	SHORT $LN139@xmlParseTr
$LN138@xmlParseTr:

; 11545: 		    /* Nothing */
; 11546: 		} else if (ctxt->nameNr == 0) {

	mov	ecx, DWORD PTR _ctxt$[ebp]
	cmp	DWORD PTR [ecx+188], 0
	jne	SHORT $LN140@xmlParseTr

; 11547: 		    ctxt->instate = XML_PARSER_EPILOG;

	mov	edx, DWORD PTR _ctxt$[ebp]
	mov	DWORD PTR [edx+172], 14			; 0000000eH

; 11548: 		} else {

	jmp	SHORT $LN139@xmlParseTr
$LN140@xmlParseTr:

; 11549: 		    ctxt->instate = XML_PARSER_CONTENT;

	mov	eax, DWORD PTR _ctxt$[ebp]
	mov	DWORD PTR [eax+172], 7
$LN139@xmlParseTr:

; 11550: 		}
; 11551: 		break;

	jmp	$LN4@xmlParseTr
$LN142@xmlParseTr:

; 11552:             case XML_PARSER_CDATA_SECTION: {
; 11553: 	        /*
; 11554: 		 * The Push mode need to have the SAX callback for
; 11555: 		 * cdataBlock merge back contiguous callbacks.
; 11556: 		 */
; 11557: 		int base;
; 11558: 
; 11559: 		base = xmlParseLookupSequence(ctxt, ']', ']', '>');

	push	62					; 0000003eH
	push	93					; 0000005dH
	push	93					; 0000005dH
	mov	ecx, DWORD PTR _ctxt$[ebp]
	push	ecx
	call	_xmlParseLookupSequence
	add	esp, 16					; 00000010H
	mov	DWORD PTR _base$12[ebp], eax

; 11560: 		if (base < 0) {

	cmp	DWORD PTR _base$12[ebp], 0
	jge	$LN143@xmlParseTr

; 11561: 		    if (avail >= XML_PARSER_BIG_BUFFER_SIZE + 2) {

	cmp	DWORD PTR _avail$[ebp], 302		; 0000012eH
	jl	$LN145@xmlParseTr

; 11562: 		        int tmp;
; 11563: 
; 11564: 			tmp = xmlCheckCdataPush(ctxt->input->cur,

	push	0
	push	300					; 0000012cH
	mov	edx, DWORD PTR _ctxt$[ebp]
	mov	eax, DWORD PTR [edx+36]
	mov	ecx, DWORD PTR [eax+16]
	push	ecx
	call	_xmlCheckCdataPush
	add	esp, 12					; 0000000cH
	mov	DWORD PTR _tmp$11[ebp], eax

; 11565: 			                        XML_PARSER_BIG_BUFFER_SIZE, 0);
; 11566: 			if (tmp < 0) {

	cmp	DWORD PTR _tmp$11[ebp], 0
	jge	SHORT $LN146@xmlParseTr

; 11567: 			    tmp = -tmp;

	mov	edx, DWORD PTR _tmp$11[ebp]
	neg	edx
	mov	DWORD PTR _tmp$11[ebp], edx

; 11568: 			    ctxt->input->cur += tmp;

	mov	eax, DWORD PTR _ctxt$[ebp]
	mov	ecx, DWORD PTR [eax+36]
	mov	edx, DWORD PTR [ecx+16]
	add	edx, DWORD PTR _tmp$11[ebp]
	mov	eax, DWORD PTR _ctxt$[ebp]
	mov	ecx, DWORD PTR [eax+36]
	mov	DWORD PTR [ecx+16], edx

; 11569: 			    goto encoding_error;

	jmp	$encoding_error$261
$LN146@xmlParseTr:

; 11570: 			}
; 11571: 			if ((ctxt->sax != NULL) && (!ctxt->disableSAX)) {

	mov	edx, DWORD PTR _ctxt$[ebp]
	cmp	DWORD PTR [edx], 0
	je	SHORT $LN147@xmlParseTr
	mov	eax, DWORD PTR _ctxt$[ebp]
	cmp	DWORD PTR [eax+212], 0
	jne	SHORT $LN147@xmlParseTr

; 11572: 			    if (ctxt->sax->cdataBlock != NULL)

	mov	ecx, DWORD PTR _ctxt$[ebp]
	mov	edx, DWORD PTR [ecx]
	cmp	DWORD PTR [edx+100], 0
	je	SHORT $LN148@xmlParseTr

; 11573: 				ctxt->sax->cdataBlock(ctxt->userData,

	mov	esi, esp
	mov	eax, DWORD PTR _tmp$11[ebp]
	push	eax
	mov	ecx, DWORD PTR _ctxt$[ebp]
	mov	edx, DWORD PTR [ecx+36]
	mov	eax, DWORD PTR [edx+16]
	push	eax
	mov	ecx, DWORD PTR _ctxt$[ebp]
	mov	edx, DWORD PTR [ecx+4]
	push	edx
	mov	eax, DWORD PTR _ctxt$[ebp]
	mov	ecx, DWORD PTR [eax]
	mov	edx, DWORD PTR [ecx+100]
	call	edx
	add	esp, 12					; 0000000cH
	cmp	esi, esp
	call	__RTC_CheckEsp
	jmp	SHORT $LN147@xmlParseTr
$LN148@xmlParseTr:

; 11574: 				                      ctxt->input->cur, tmp);
; 11575: 			    else if (ctxt->sax->characters != NULL)

	mov	eax, DWORD PTR _ctxt$[ebp]
	mov	ecx, DWORD PTR [eax]
	cmp	DWORD PTR [ecx+68], 0
	je	SHORT $LN147@xmlParseTr

; 11576: 				ctxt->sax->characters(ctxt->userData,

	mov	esi, esp
	mov	edx, DWORD PTR _tmp$11[ebp]
	push	edx
	mov	eax, DWORD PTR _ctxt$[ebp]
	mov	ecx, DWORD PTR [eax+36]
	mov	edx, DWORD PTR [ecx+16]
	push	edx
	mov	eax, DWORD PTR _ctxt$[ebp]
	mov	ecx, DWORD PTR [eax+4]
	push	ecx
	mov	edx, DWORD PTR _ctxt$[ebp]
	mov	eax, DWORD PTR [edx]
	mov	ecx, DWORD PTR [eax+68]
	call	ecx
	add	esp, 12					; 0000000cH
	cmp	esi, esp
	call	__RTC_CheckEsp
$LN147@xmlParseTr:

; 11577: 				                      ctxt->input->cur, tmp);
; 11578: 			}
; 11579: 			if (ctxt->instate == XML_PARSER_EOF)

	mov	edx, DWORD PTR _ctxt$[ebp]
	cmp	DWORD PTR [edx+172], -1
	jne	SHORT $LN14@xmlParseTr

; 11580: 			    goto done;

	jmp	$done$260
$LN14@xmlParseTr:

; 11581: 			SKIPL(tmp);

	mov	DWORD PTR _skipl$10[ebp], 0
	jmp	SHORT $LN17@xmlParseTr
$LN15@xmlParseTr:
	mov	eax, DWORD PTR _skipl$10[ebp]
	add	eax, 1
	mov	DWORD PTR _skipl$10[ebp], eax
$LN17@xmlParseTr:
	mov	ecx, DWORD PTR _skipl$10[ebp]
	cmp	ecx, DWORD PTR _tmp$11[ebp]
	jge	SHORT $LN16@xmlParseTr
	mov	edx, DWORD PTR _ctxt$[ebp]
	mov	eax, DWORD PTR [edx+36]
	mov	ecx, DWORD PTR [eax+16]
	movzx	edx, BYTE PTR [ecx]
	cmp	edx, 10					; 0000000aH
	jne	SHORT $LN152@xmlParseTr
	mov	eax, DWORD PTR _ctxt$[ebp]
	mov	ecx, DWORD PTR [eax+36]
	mov	edx, DWORD PTR [ecx+28]
	add	edx, 1
	mov	eax, DWORD PTR _ctxt$[ebp]
	mov	ecx, DWORD PTR [eax+36]
	mov	DWORD PTR [ecx+28], edx
	mov	edx, DWORD PTR _ctxt$[ebp]
	mov	eax, DWORD PTR [edx+36]
	mov	DWORD PTR [eax+32], 1
	jmp	SHORT $LN153@xmlParseTr
$LN152@xmlParseTr:
	mov	ecx, DWORD PTR _ctxt$[ebp]
	mov	edx, DWORD PTR [ecx+36]
	mov	eax, DWORD PTR [edx+32]
	add	eax, 1
	mov	ecx, DWORD PTR _ctxt$[ebp]
	mov	edx, DWORD PTR [ecx+36]
	mov	DWORD PTR [edx+32], eax
$LN153@xmlParseTr:
	mov	eax, DWORD PTR _ctxt$[ebp]
	mov	ecx, DWORD PTR [eax+200]
	add	ecx, 1
	mov	edx, DWORD PTR _ctxt$[ebp]
	mov	DWORD PTR [edx+200], ecx
	mov	eax, DWORD PTR _ctxt$[ebp]
	mov	ecx, DWORD PTR [eax+36]
	mov	edx, DWORD PTR [ecx+16]
	add	edx, 1
	mov	eax, DWORD PTR _ctxt$[ebp]
	mov	ecx, DWORD PTR [eax+36]
	mov	DWORD PTR [ecx+16], edx
	jmp	$LN15@xmlParseTr
$LN16@xmlParseTr:
	mov	edx, DWORD PTR _ctxt$[ebp]
	mov	eax, DWORD PTR [edx+36]
	mov	ecx, DWORD PTR [eax+16]
	movzx	edx, BYTE PTR [ecx]
	test	edx, edx
	jne	SHORT $LN12@xmlParseTr
	push	250					; 000000faH
	mov	eax, DWORD PTR _ctxt$[ebp]
	mov	ecx, DWORD PTR [eax+36]
	push	ecx
	call	_xmlParserInputGrow
	add	esp, 8
$LN12@xmlParseTr:
	xor	edx, edx
	jne	$LN14@xmlParseTr

; 11582: 			ctxt->checkIndex = 0;

	mov	eax, DWORD PTR _ctxt$[ebp]
	mov	DWORD PTR [eax+204], 0
$LN145@xmlParseTr:

; 11583: 		    }
; 11584: 		    goto done;

	jmp	$done$260

; 11585: 		} else {

	jmp	$LN144@xmlParseTr
$LN143@xmlParseTr:

; 11586: 		    int tmp;
; 11587: 
; 11588: 		    tmp = xmlCheckCdataPush(ctxt->input->cur, base, 1);

	push	1
	mov	ecx, DWORD PTR _base$12[ebp]
	push	ecx
	mov	edx, DWORD PTR _ctxt$[ebp]
	mov	eax, DWORD PTR [edx+36]
	mov	ecx, DWORD PTR [eax+16]
	push	ecx
	call	_xmlCheckCdataPush
	add	esp, 12					; 0000000cH
	mov	DWORD PTR _tmp$9[ebp], eax

; 11589: 		    if ((tmp < 0) || (tmp != base)) {

	cmp	DWORD PTR _tmp$9[ebp], 0
	jl	SHORT $LN156@xmlParseTr
	mov	edx, DWORD PTR _tmp$9[ebp]
	cmp	edx, DWORD PTR _base$12[ebp]
	je	SHORT $LN155@xmlParseTr
$LN156@xmlParseTr:

; 11590: 			tmp = -tmp;

	mov	eax, DWORD PTR _tmp$9[ebp]
	neg	eax
	mov	DWORD PTR _tmp$9[ebp], eax

; 11591: 			ctxt->input->cur += tmp;

	mov	ecx, DWORD PTR _ctxt$[ebp]
	mov	edx, DWORD PTR [ecx+36]
	mov	eax, DWORD PTR [edx+16]
	add	eax, DWORD PTR _tmp$9[ebp]
	mov	ecx, DWORD PTR _ctxt$[ebp]
	mov	edx, DWORD PTR [ecx+36]
	mov	DWORD PTR [edx+16], eax

; 11592: 			goto encoding_error;

	jmp	$encoding_error$261
$LN155@xmlParseTr:

; 11593: 		    }
; 11594: 		    if ((ctxt->sax != NULL) && (base == 0) &&
; 11595: 		        (ctxt->sax->cdataBlock != NULL) &&

	mov	eax, DWORD PTR _ctxt$[ebp]
	cmp	DWORD PTR [eax], 0
	je	$LN157@xmlParseTr
	cmp	DWORD PTR _base$12[ebp], 0
	jne	$LN157@xmlParseTr
	mov	ecx, DWORD PTR _ctxt$[ebp]
	mov	edx, DWORD PTR [ecx]
	cmp	DWORD PTR [edx+100], 0
	je	SHORT $LN157@xmlParseTr
	mov	eax, DWORD PTR _ctxt$[ebp]
	cmp	DWORD PTR [eax+212], 0
	jne	SHORT $LN157@xmlParseTr

; 11596: 		        (!ctxt->disableSAX)) {
; 11597: 			/*
; 11598: 			 * Special case to provide identical behaviour
; 11599: 			 * between pull and push parsers on enpty CDATA
; 11600: 			 * sections
; 11601: 			 */
; 11602: 			 if ((ctxt->input->cur - ctxt->input->base >= 9) &&

	mov	ecx, DWORD PTR _ctxt$[ebp]
	mov	edx, DWORD PTR [ecx+36]
	mov	eax, DWORD PTR _ctxt$[ebp]
	mov	ecx, DWORD PTR [eax+36]
	mov	edx, DWORD PTR [edx+16]
	sub	edx, DWORD PTR [ecx+12]
	cmp	edx, 9
	jl	SHORT $LN159@xmlParseTr
	mov	esi, esp
	push	9
	push	OFFSET ??_C@_09BLLNCBLF@?$DM?$CB?$FLCDATA?$FL@
	mov	eax, DWORD PTR _ctxt$[ebp]
	mov	ecx, DWORD PTR [eax+36]
	mov	edx, 1
	imul	eax, edx, -9
	add	eax, DWORD PTR [ecx+16]
	push	eax
	call	DWORD PTR __imp__strncmp
	add	esp, 12					; 0000000cH
	cmp	esi, esp
	call	__RTC_CheckEsp
	test	eax, eax
	jne	SHORT $LN159@xmlParseTr

; 11603: 			     (!strncmp((const char *)&ctxt->input->cur[-9],
; 11604: 			               "<![CDATA[", 9)))
; 11605: 			     ctxt->sax->cdataBlock(ctxt->userData,

	mov	esi, esp
	push	0
	push	OFFSET ??_C@_00CNPNBAHC@@
	mov	ecx, DWORD PTR _ctxt$[ebp]
	mov	edx, DWORD PTR [ecx+4]
	push	edx
	mov	eax, DWORD PTR _ctxt$[ebp]
	mov	ecx, DWORD PTR [eax]
	mov	edx, DWORD PTR [ecx+100]
	call	edx
	add	esp, 12					; 0000000cH
	cmp	esi, esp
	call	__RTC_CheckEsp
$LN159@xmlParseTr:

; 11606: 			                           BAD_CAST "", 0);
; 11607: 		    } else if ((ctxt->sax != NULL) && (base > 0) &&

	jmp	$LN158@xmlParseTr
$LN157@xmlParseTr:
	mov	eax, DWORD PTR _ctxt$[ebp]
	cmp	DWORD PTR [eax], 0
	je	$LN158@xmlParseTr
	cmp	DWORD PTR _base$12[ebp], 0
	jle	SHORT $LN158@xmlParseTr
	mov	ecx, DWORD PTR _ctxt$[ebp]
	cmp	DWORD PTR [ecx+212], 0
	jne	SHORT $LN158@xmlParseTr

; 11608: 			(!ctxt->disableSAX)) {
; 11609: 			if (ctxt->sax->cdataBlock != NULL)

	mov	edx, DWORD PTR _ctxt$[ebp]
	mov	eax, DWORD PTR [edx]
	cmp	DWORD PTR [eax+100], 0
	je	SHORT $LN161@xmlParseTr

; 11610: 			    ctxt->sax->cdataBlock(ctxt->userData,

	mov	esi, esp
	mov	ecx, DWORD PTR _base$12[ebp]
	push	ecx
	mov	edx, DWORD PTR _ctxt$[ebp]
	mov	eax, DWORD PTR [edx+36]
	mov	ecx, DWORD PTR [eax+16]
	push	ecx
	mov	edx, DWORD PTR _ctxt$[ebp]
	mov	eax, DWORD PTR [edx+4]
	push	eax
	mov	ecx, DWORD PTR _ctxt$[ebp]
	mov	edx, DWORD PTR [ecx]
	mov	eax, DWORD PTR [edx+100]
	call	eax
	add	esp, 12					; 0000000cH
	cmp	esi, esp
	call	__RTC_CheckEsp
	jmp	SHORT $LN158@xmlParseTr
$LN161@xmlParseTr:

; 11611: 						  ctxt->input->cur, base);
; 11612: 			else if (ctxt->sax->characters != NULL)

	mov	ecx, DWORD PTR _ctxt$[ebp]
	mov	edx, DWORD PTR [ecx]
	cmp	DWORD PTR [edx+68], 0
	je	SHORT $LN158@xmlParseTr

; 11613: 			    ctxt->sax->characters(ctxt->userData,

	mov	esi, esp
	mov	eax, DWORD PTR _base$12[ebp]
	push	eax
	mov	ecx, DWORD PTR _ctxt$[ebp]
	mov	edx, DWORD PTR [ecx+36]
	mov	eax, DWORD PTR [edx+16]
	push	eax
	mov	ecx, DWORD PTR _ctxt$[ebp]
	mov	edx, DWORD PTR [ecx+4]
	push	edx
	mov	eax, DWORD PTR _ctxt$[ebp]
	mov	ecx, DWORD PTR [eax]
	mov	edx, DWORD PTR [ecx+68]
	call	edx
	add	esp, 12					; 0000000cH
	cmp	esi, esp
	call	__RTC_CheckEsp
$LN158@xmlParseTr:

; 11614: 						  ctxt->input->cur, base);
; 11615: 		    }
; 11616: 		    if (ctxt->instate == XML_PARSER_EOF)

	mov	eax, DWORD PTR _ctxt$[ebp]
	cmp	DWORD PTR [eax+172], -1
	jne	SHORT $LN20@xmlParseTr

; 11617: 			goto done;

	jmp	$done$260
$LN20@xmlParseTr:

; 11618: 		    SKIPL(base + 3);

	mov	DWORD PTR _skipl$8[ebp], 0
	jmp	SHORT $LN23@xmlParseTr
$LN21@xmlParseTr:
	mov	ecx, DWORD PTR _skipl$8[ebp]
	add	ecx, 1
	mov	DWORD PTR _skipl$8[ebp], ecx
$LN23@xmlParseTr:
	mov	edx, DWORD PTR _base$12[ebp]
	add	edx, 3
	cmp	DWORD PTR _skipl$8[ebp], edx
	jge	SHORT $LN22@xmlParseTr
	mov	eax, DWORD PTR _ctxt$[ebp]
	mov	ecx, DWORD PTR [eax+36]
	mov	edx, DWORD PTR [ecx+16]
	movzx	eax, BYTE PTR [edx]
	cmp	eax, 10					; 0000000aH
	jne	SHORT $LN165@xmlParseTr
	mov	ecx, DWORD PTR _ctxt$[ebp]
	mov	edx, DWORD PTR [ecx+36]
	mov	eax, DWORD PTR [edx+28]
	add	eax, 1
	mov	ecx, DWORD PTR _ctxt$[ebp]
	mov	edx, DWORD PTR [ecx+36]
	mov	DWORD PTR [edx+28], eax
	mov	eax, DWORD PTR _ctxt$[ebp]
	mov	ecx, DWORD PTR [eax+36]
	mov	DWORD PTR [ecx+32], 1
	jmp	SHORT $LN166@xmlParseTr
$LN165@xmlParseTr:
	mov	edx, DWORD PTR _ctxt$[ebp]
	mov	eax, DWORD PTR [edx+36]
	mov	ecx, DWORD PTR [eax+32]
	add	ecx, 1
	mov	edx, DWORD PTR _ctxt$[ebp]
	mov	eax, DWORD PTR [edx+36]
	mov	DWORD PTR [eax+32], ecx
$LN166@xmlParseTr:
	mov	ecx, DWORD PTR _ctxt$[ebp]
	mov	edx, DWORD PTR [ecx+200]
	add	edx, 1
	mov	eax, DWORD PTR _ctxt$[ebp]
	mov	DWORD PTR [eax+200], edx
	mov	ecx, DWORD PTR _ctxt$[ebp]
	mov	edx, DWORD PTR [ecx+36]
	mov	eax, DWORD PTR [edx+16]
	add	eax, 1
	mov	ecx, DWORD PTR _ctxt$[ebp]
	mov	edx, DWORD PTR [ecx+36]
	mov	DWORD PTR [edx+16], eax
	jmp	$LN21@xmlParseTr
$LN22@xmlParseTr:
	mov	eax, DWORD PTR _ctxt$[ebp]
	mov	ecx, DWORD PTR [eax+36]
	mov	edx, DWORD PTR [ecx+16]
	movzx	eax, BYTE PTR [edx]
	test	eax, eax
	jne	SHORT $LN18@xmlParseTr
	push	250					; 000000faH
	mov	ecx, DWORD PTR _ctxt$[ebp]
	mov	edx, DWORD PTR [ecx+36]
	push	edx
	call	_xmlParserInputGrow
	add	esp, 8
$LN18@xmlParseTr:
	xor	eax, eax
	jne	$LN20@xmlParseTr

; 11619: 		    ctxt->checkIndex = 0;

	mov	ecx, DWORD PTR _ctxt$[ebp]
	mov	DWORD PTR [ecx+204], 0

; 11620: 		    ctxt->instate = XML_PARSER_CONTENT;

	mov	edx, DWORD PTR _ctxt$[ebp]
	mov	DWORD PTR [edx+172], 7
$LN144@xmlParseTr:

; 11621: #ifdef DEBUG_PUSH
; 11622: 		    xmlGenericError(xmlGenericErrorContext,
; 11623: 			    "PP: entering CONTENT\n");
; 11624: #endif
; 11625: 		}
; 11626: 		break;

	jmp	$LN4@xmlParseTr
$LN168@xmlParseTr:

; 11627: 	    }
; 11628:             case XML_PARSER_MISC:
; 11629: 		SKIP_BLANKS;

	mov	eax, DWORD PTR _ctxt$[ebp]
	push	eax
	call	_xmlSkipBlankChars
	add	esp, 4

; 11630: 		if (ctxt->input->buf == NULL)

	mov	ecx, DWORD PTR _ctxt$[ebp]
	mov	edx, DWORD PTR [ecx+36]
	cmp	DWORD PTR [edx], 0
	jne	SHORT $LN169@xmlParseTr

; 11631: 		    avail = ctxt->input->length -

	mov	eax, DWORD PTR _ctxt$[ebp]
	mov	ecx, DWORD PTR [eax+36]
	mov	edx, DWORD PTR _ctxt$[ebp]
	mov	eax, DWORD PTR [edx+36]
	mov	edx, DWORD PTR _ctxt$[ebp]
	mov	edx, DWORD PTR [edx+36]
	mov	eax, DWORD PTR [eax+16]
	sub	eax, DWORD PTR [edx+12]
	mov	ecx, DWORD PTR [ecx+24]
	sub	ecx, eax
	mov	DWORD PTR _avail$[ebp], ecx
	jmp	SHORT $LN170@xmlParseTr
$LN169@xmlParseTr:

; 11632: 		            (ctxt->input->cur - ctxt->input->base);
; 11633: 		else
; 11634: 		    avail = xmlBufUse(ctxt->input->buf->buffer) -

	mov	edx, DWORD PTR _ctxt$[ebp]
	mov	eax, DWORD PTR [edx+36]
	mov	ecx, DWORD PTR [eax]
	mov	edx, DWORD PTR [ecx+16]
	push	edx
	call	_xmlBufUse
	add	esp, 4
	mov	ecx, DWORD PTR _ctxt$[ebp]
	mov	edx, DWORD PTR [ecx+36]
	mov	ecx, DWORD PTR _ctxt$[ebp]
	mov	ecx, DWORD PTR [ecx+36]
	mov	edx, DWORD PTR [edx+16]
	sub	edx, DWORD PTR [ecx+12]
	sub	eax, edx
	mov	DWORD PTR _avail$[ebp], eax
$LN170@xmlParseTr:

; 11635: 		            (ctxt->input->cur - ctxt->input->base);
; 11636: 		if (avail < 2)

	cmp	DWORD PTR _avail$[ebp], 2
	jge	SHORT $LN171@xmlParseTr

; 11637: 		    goto done;

	jmp	$done$260
$LN171@xmlParseTr:

; 11638: 		cur = ctxt->input->cur[0];

	mov	eax, DWORD PTR _ctxt$[ebp]
	mov	ecx, DWORD PTR [eax+36]
	mov	edx, 1
	imul	eax, edx, 0
	mov	ecx, DWORD PTR [ecx+16]
	mov	dl, BYTE PTR [eax+ecx]
	mov	BYTE PTR _cur$[ebp], dl

; 11639: 		next = ctxt->input->cur[1];

	mov	eax, DWORD PTR _ctxt$[ebp]
	mov	ecx, DWORD PTR [eax+36]
	mov	edx, 1
	shl	edx, 0
	mov	eax, DWORD PTR [ecx+16]
	mov	cl, BYTE PTR [edx+eax]
	mov	BYTE PTR _next$[ebp], cl

; 11640: 	        if ((cur == '<') && (next == '?')) {

	movzx	edx, BYTE PTR _cur$[ebp]
	cmp	edx, 60					; 0000003cH
	jne	$LN172@xmlParseTr
	movzx	eax, BYTE PTR _next$[ebp]
	cmp	eax, 63					; 0000003fH
	jne	SHORT $LN172@xmlParseTr

; 11641: 		    if ((!terminate) &&

	cmp	DWORD PTR _terminate$[ebp], 0
	jne	SHORT $LN174@xmlParseTr
	push	0
	push	62					; 0000003eH
	push	63					; 0000003fH
	mov	ecx, DWORD PTR _ctxt$[ebp]
	push	ecx
	call	_xmlParseLookupSequence
	add	esp, 16					; 00000010H
	test	eax, eax
	jge	SHORT $LN174@xmlParseTr

; 11642: 		        (xmlParseLookupSequence(ctxt, '?', '>', 0) < 0)) {
; 11643:                         ctxt->progressive = XML_PARSER_PI;

	mov	edx, DWORD PTR _ctxt$[ebp]
	mov	DWORD PTR [edx+292], 2

; 11644: 			goto done;

	jmp	$done$260
$LN174@xmlParseTr:

; 11645:                     }
; 11646: #ifdef DEBUG_PUSH
; 11647: 		    xmlGenericError(xmlGenericErrorContext,
; 11648: 			    "PP: Parsing PI\n");
; 11649: #endif
; 11650: 		    xmlParsePI(ctxt);

	mov	eax, DWORD PTR _ctxt$[ebp]
	push	eax
	call	_xmlParsePI
	add	esp, 4

; 11651: 		    if (ctxt->instate == XML_PARSER_EOF)

	mov	ecx, DWORD PTR _ctxt$[ebp]
	cmp	DWORD PTR [ecx+172], -1
	jne	SHORT $LN175@xmlParseTr

; 11652: 			goto done;

	jmp	$done$260
$LN175@xmlParseTr:

; 11653: 		    ctxt->instate = XML_PARSER_MISC;

	mov	edx, DWORD PTR _ctxt$[ebp]
	mov	DWORD PTR [edx+172], 1

; 11654:                     ctxt->progressive = 1;

	mov	eax, DWORD PTR _ctxt$[ebp]
	mov	DWORD PTR [eax+292], 1

; 11655: 		    ctxt->checkIndex = 0;

	mov	ecx, DWORD PTR _ctxt$[ebp]
	mov	DWORD PTR [ecx+204], 0

; 11656: 		} else if ((cur == '<') && (next == '!') &&

	jmp	$LN173@xmlParseTr
$LN172@xmlParseTr:

; 11657: 		    (ctxt->input->cur[2] == '-') &&

	movzx	edx, BYTE PTR _cur$[ebp]
	cmp	edx, 60					; 0000003cH
	jne	$LN176@xmlParseTr
	movzx	eax, BYTE PTR _next$[ebp]
	cmp	eax, 33					; 00000021H
	jne	$LN176@xmlParseTr
	mov	ecx, DWORD PTR _ctxt$[ebp]
	mov	edx, DWORD PTR [ecx+36]
	mov	eax, 1
	shl	eax, 1
	mov	ecx, DWORD PTR [edx+16]
	movzx	edx, BYTE PTR [ecx+eax]
	cmp	edx, 45					; 0000002dH
	jne	$LN176@xmlParseTr
	mov	eax, DWORD PTR _ctxt$[ebp]
	mov	ecx, DWORD PTR [eax+36]
	mov	edx, 1
	imul	eax, edx, 3
	mov	ecx, DWORD PTR [ecx+16]
	movzx	edx, BYTE PTR [ecx+eax]
	cmp	edx, 45					; 0000002dH
	jne	SHORT $LN176@xmlParseTr

; 11658: 		    (ctxt->input->cur[3] == '-')) {
; 11659: 		    if ((!terminate) &&

	cmp	DWORD PTR _terminate$[ebp], 0
	jne	SHORT $LN178@xmlParseTr
	push	62					; 0000003eH
	push	45					; 0000002dH
	push	45					; 0000002dH
	mov	eax, DWORD PTR _ctxt$[ebp]
	push	eax
	call	_xmlParseLookupSequence
	add	esp, 16					; 00000010H
	test	eax, eax
	jge	SHORT $LN178@xmlParseTr

; 11660: 		        (xmlParseLookupSequence(ctxt, '-', '-', '>') < 0)) {
; 11661:                         ctxt->progressive = XML_PARSER_COMMENT;

	mov	ecx, DWORD PTR _ctxt$[ebp]
	mov	DWORD PTR [ecx+292], 5

; 11662: 			goto done;

	jmp	$done$260
$LN178@xmlParseTr:

; 11663:                     }
; 11664: #ifdef DEBUG_PUSH
; 11665: 		    xmlGenericError(xmlGenericErrorContext,
; 11666: 			    "PP: Parsing Comment\n");
; 11667: #endif
; 11668: 		    xmlParseComment(ctxt);

	mov	edx, DWORD PTR _ctxt$[ebp]
	push	edx
	call	_xmlParseComment
	add	esp, 4

; 11669: 		    if (ctxt->instate == XML_PARSER_EOF)

	mov	eax, DWORD PTR _ctxt$[ebp]
	cmp	DWORD PTR [eax+172], -1
	jne	SHORT $LN179@xmlParseTr

; 11670: 			goto done;

	jmp	$done$260
$LN179@xmlParseTr:

; 11671: 		    ctxt->instate = XML_PARSER_MISC;

	mov	ecx, DWORD PTR _ctxt$[ebp]
	mov	DWORD PTR [ecx+172], 1

; 11672:                     ctxt->progressive = 1;

	mov	edx, DWORD PTR _ctxt$[ebp]
	mov	DWORD PTR [edx+292], 1

; 11673: 		    ctxt->checkIndex = 0;

	mov	eax, DWORD PTR _ctxt$[ebp]
	mov	DWORD PTR [eax+204], 0

; 11674: 		} else if ((cur == '<') && (next == '!') &&

	jmp	$LN173@xmlParseTr
$LN176@xmlParseTr:

; 11675: 		    (ctxt->input->cur[2] == 'D') &&
; 11676: 		    (ctxt->input->cur[3] == 'O') &&
; 11677: 		    (ctxt->input->cur[4] == 'C') &&
; 11678: 		    (ctxt->input->cur[5] == 'T') &&
; 11679: 		    (ctxt->input->cur[6] == 'Y') &&
; 11680: 		    (ctxt->input->cur[7] == 'P') &&

	movzx	ecx, BYTE PTR _cur$[ebp]
	cmp	ecx, 60					; 0000003cH
	jne	$LN180@xmlParseTr
	movzx	edx, BYTE PTR _next$[ebp]
	cmp	edx, 33					; 00000021H
	jne	$LN180@xmlParseTr
	mov	eax, DWORD PTR _ctxt$[ebp]
	mov	ecx, DWORD PTR [eax+36]
	mov	edx, 1
	shl	edx, 1
	mov	eax, DWORD PTR [ecx+16]
	movzx	ecx, BYTE PTR [eax+edx]
	cmp	ecx, 68					; 00000044H
	jne	$LN180@xmlParseTr
	mov	edx, DWORD PTR _ctxt$[ebp]
	mov	eax, DWORD PTR [edx+36]
	mov	ecx, 1
	imul	edx, ecx, 3
	mov	eax, DWORD PTR [eax+16]
	movzx	ecx, BYTE PTR [eax+edx]
	cmp	ecx, 79					; 0000004fH
	jne	$LN180@xmlParseTr
	mov	edx, DWORD PTR _ctxt$[ebp]
	mov	eax, DWORD PTR [edx+36]
	mov	ecx, 1
	shl	ecx, 2
	mov	edx, DWORD PTR [eax+16]
	movzx	eax, BYTE PTR [edx+ecx]
	cmp	eax, 67					; 00000043H
	jne	$LN180@xmlParseTr
	mov	ecx, DWORD PTR _ctxt$[ebp]
	mov	edx, DWORD PTR [ecx+36]
	mov	eax, 1
	imul	ecx, eax, 5
	mov	edx, DWORD PTR [edx+16]
	movzx	eax, BYTE PTR [edx+ecx]
	cmp	eax, 84					; 00000054H
	jne	$LN180@xmlParseTr
	mov	ecx, DWORD PTR _ctxt$[ebp]
	mov	edx, DWORD PTR [ecx+36]
	mov	eax, 1
	imul	ecx, eax, 6
	mov	edx, DWORD PTR [edx+16]
	movzx	eax, BYTE PTR [edx+ecx]
	cmp	eax, 89					; 00000059H
	jne	$LN180@xmlParseTr
	mov	ecx, DWORD PTR _ctxt$[ebp]
	mov	edx, DWORD PTR [ecx+36]
	mov	eax, 1
	imul	ecx, eax, 7
	mov	edx, DWORD PTR [edx+16]
	movzx	eax, BYTE PTR [edx+ecx]
	cmp	eax, 80					; 00000050H
	jne	$LN180@xmlParseTr
	mov	ecx, DWORD PTR _ctxt$[ebp]
	mov	edx, DWORD PTR [ecx+36]
	mov	eax, 1
	shl	eax, 3
	mov	ecx, DWORD PTR [edx+16]
	movzx	edx, BYTE PTR [ecx+eax]
	cmp	edx, 69					; 00000045H
	jne	$LN180@xmlParseTr

; 11681: 		    (ctxt->input->cur[8] == 'E')) {
; 11682: 		    if ((!terminate) &&

	cmp	DWORD PTR _terminate$[ebp], 0
	jne	SHORT $LN182@xmlParseTr
	push	0
	push	0
	push	62					; 0000003eH
	mov	eax, DWORD PTR _ctxt$[ebp]
	push	eax
	call	_xmlParseLookupSequence
	add	esp, 16					; 00000010H
	test	eax, eax
	jge	SHORT $LN182@xmlParseTr

; 11683: 		        (xmlParseLookupSequence(ctxt, '>', 0, 0) < 0)) {
; 11684:                         ctxt->progressive = XML_PARSER_DTD;

	mov	ecx, DWORD PTR _ctxt$[ebp]
	mov	DWORD PTR [ecx+292], 3

; 11685: 			goto done;

	jmp	$done$260
$LN182@xmlParseTr:

; 11686:                     }
; 11687: #ifdef DEBUG_PUSH
; 11688: 		    xmlGenericError(xmlGenericErrorContext,
; 11689: 			    "PP: Parsing internal subset\n");
; 11690: #endif
; 11691: 		    ctxt->inSubset = 1;

	mov	edx, DWORD PTR _ctxt$[ebp]
	mov	DWORD PTR [edx+216], 1

; 11692:                     ctxt->progressive = 0;

	mov	eax, DWORD PTR _ctxt$[ebp]
	mov	DWORD PTR [eax+292], 0

; 11693: 		    ctxt->checkIndex = 0;

	mov	ecx, DWORD PTR _ctxt$[ebp]
	mov	DWORD PTR [ecx+204], 0

; 11694: 		    xmlParseDocTypeDecl(ctxt);

	mov	edx, DWORD PTR _ctxt$[ebp]
	push	edx
	call	_xmlParseDocTypeDecl
	add	esp, 4

; 11695: 		    if (ctxt->instate == XML_PARSER_EOF)

	mov	eax, DWORD PTR _ctxt$[ebp]
	cmp	DWORD PTR [eax+172], -1
	jne	SHORT $LN183@xmlParseTr

; 11696: 			goto done;

	jmp	$done$260
$LN183@xmlParseTr:

; 11697: 		    if (RAW == '[') {

	mov	ecx, DWORD PTR _ctxt$[ebp]
	mov	edx, DWORD PTR [ecx+36]
	mov	eax, DWORD PTR [edx+16]
	movzx	ecx, BYTE PTR [eax]
	cmp	ecx, 91					; 0000005bH
	jne	SHORT $LN184@xmlParseTr

; 11698: 			ctxt->instate = XML_PARSER_DTD;

	mov	edx, DWORD PTR _ctxt$[ebp]
	mov	DWORD PTR [edx+172], 3

; 11699: #ifdef DEBUG_PUSH
; 11700: 			xmlGenericError(xmlGenericErrorContext,
; 11701: 				"PP: entering DTD\n");
; 11702: #endif
; 11703: 		    } else {

	jmp	$LN185@xmlParseTr
$LN184@xmlParseTr:

; 11704: 			/*
; 11705: 			 * Create and update the external subset.
; 11706: 			 */
; 11707: 			ctxt->inSubset = 2;

	mov	eax, DWORD PTR _ctxt$[ebp]
	mov	DWORD PTR [eax+216], 2

; 11708: 			if ((ctxt->sax != NULL) && (!ctxt->disableSAX) &&

	mov	ecx, DWORD PTR _ctxt$[ebp]
	cmp	DWORD PTR [ecx], 0
	je	SHORT $LN186@xmlParseTr
	mov	edx, DWORD PTR _ctxt$[ebp]
	cmp	DWORD PTR [edx+212], 0
	jne	SHORT $LN186@xmlParseTr
	mov	eax, DWORD PTR _ctxt$[ebp]
	mov	ecx, DWORD PTR [eax]
	cmp	DWORD PTR [ecx+104], 0
	je	SHORT $LN186@xmlParseTr

; 11709: 			    (ctxt->sax->externalSubset != NULL))
; 11710: 			    ctxt->sax->externalSubset(ctxt->userData,

	mov	esi, esp
	mov	edx, DWORD PTR _ctxt$[ebp]
	mov	eax, DWORD PTR [edx+224]
	push	eax
	mov	ecx, DWORD PTR _ctxt$[ebp]
	mov	edx, DWORD PTR [ecx+228]
	push	edx
	mov	eax, DWORD PTR _ctxt$[ebp]
	mov	ecx, DWORD PTR [eax+220]
	push	ecx
	mov	edx, DWORD PTR _ctxt$[ebp]
	mov	eax, DWORD PTR [edx+4]
	push	eax
	mov	ecx, DWORD PTR _ctxt$[ebp]
	mov	edx, DWORD PTR [ecx]
	mov	eax, DWORD PTR [edx+104]
	call	eax
	add	esp, 16					; 00000010H
	cmp	esi, esp
	call	__RTC_CheckEsp
$LN186@xmlParseTr:

; 11711: 				    ctxt->intSubName, ctxt->extSubSystem,
; 11712: 				    ctxt->extSubURI);
; 11713: 			ctxt->inSubset = 0;

	mov	ecx, DWORD PTR _ctxt$[ebp]
	mov	DWORD PTR [ecx+216], 0

; 11714: 			xmlCleanSpecialAttr(ctxt);

	mov	edx, DWORD PTR _ctxt$[ebp]
	push	edx
	call	_xmlCleanSpecialAttr
	add	esp, 4

; 11715: 			ctxt->instate = XML_PARSER_PROLOG;

	mov	eax, DWORD PTR _ctxt$[ebp]
	mov	DWORD PTR [eax+172], 4
$LN185@xmlParseTr:

; 11716: #ifdef DEBUG_PUSH
; 11717: 			xmlGenericError(xmlGenericErrorContext,
; 11718: 				"PP: entering PROLOG\n");
; 11719: #endif
; 11720: 		    }

	jmp	SHORT $LN173@xmlParseTr
$LN180@xmlParseTr:

; 11721: 		} else if ((cur == '<') && (next == '!') &&

	movzx	ecx, BYTE PTR _cur$[ebp]
	cmp	ecx, 60					; 0000003cH
	jne	SHORT $LN187@xmlParseTr
	movzx	edx, BYTE PTR _next$[ebp]
	cmp	edx, 33					; 00000021H
	jne	SHORT $LN187@xmlParseTr
	cmp	DWORD PTR _avail$[ebp], 9
	jge	SHORT $LN187@xmlParseTr

; 11722: 		           (avail < 9)) {
; 11723: 		    goto done;

	jmp	$done$260

; 11724: 		} else {

	jmp	SHORT $LN173@xmlParseTr
$LN187@xmlParseTr:

; 11725: 		    ctxt->instate = XML_PARSER_START_TAG;

	mov	eax, DWORD PTR _ctxt$[ebp]
	mov	DWORD PTR [eax+172], 6

; 11726: 		    ctxt->progressive = XML_PARSER_START_TAG;

	mov	ecx, DWORD PTR _ctxt$[ebp]
	mov	DWORD PTR [ecx+292], 6

; 11727: 		    xmlParseGetLasts(ctxt, &lastlt, &lastgt);

	lea	edx, DWORD PTR _lastgt$[ebp]
	push	edx
	lea	eax, DWORD PTR _lastlt$[ebp]
	push	eax
	mov	ecx, DWORD PTR _ctxt$[ebp]
	push	ecx
	call	_xmlParseGetLasts
	add	esp, 12					; 0000000cH
$LN173@xmlParseTr:

; 11728: #ifdef DEBUG_PUSH
; 11729: 		    xmlGenericError(xmlGenericErrorContext,
; 11730: 			    "PP: entering START_TAG\n");
; 11731: #endif
; 11732: 		}
; 11733: 		break;

	jmp	$LN4@xmlParseTr
$LN189@xmlParseTr:

; 11734:             case XML_PARSER_PROLOG:
; 11735: 		SKIP_BLANKS;

	mov	edx, DWORD PTR _ctxt$[ebp]
	push	edx
	call	_xmlSkipBlankChars
	add	esp, 4

; 11736: 		if (ctxt->input->buf == NULL)

	mov	eax, DWORD PTR _ctxt$[ebp]
	mov	ecx, DWORD PTR [eax+36]
	cmp	DWORD PTR [ecx], 0
	jne	SHORT $LN190@xmlParseTr

; 11737: 		    avail = ctxt->input->length - (ctxt->input->cur - ctxt->input->base);

	mov	edx, DWORD PTR _ctxt$[ebp]
	mov	eax, DWORD PTR [edx+36]
	mov	ecx, DWORD PTR _ctxt$[ebp]
	mov	edx, DWORD PTR [ecx+36]
	mov	ecx, DWORD PTR _ctxt$[ebp]
	mov	ecx, DWORD PTR [ecx+36]
	mov	edx, DWORD PTR [edx+16]
	sub	edx, DWORD PTR [ecx+12]
	mov	eax, DWORD PTR [eax+24]
	sub	eax, edx
	mov	DWORD PTR _avail$[ebp], eax
	jmp	SHORT $LN191@xmlParseTr
$LN190@xmlParseTr:

; 11738: 		else
; 11739: 		    avail = xmlBufUse(ctxt->input->buf->buffer) -

	mov	ecx, DWORD PTR _ctxt$[ebp]
	mov	edx, DWORD PTR [ecx+36]
	mov	eax, DWORD PTR [edx]
	mov	ecx, DWORD PTR [eax+16]
	push	ecx
	call	_xmlBufUse
	add	esp, 4
	mov	edx, DWORD PTR _ctxt$[ebp]
	mov	ecx, DWORD PTR [edx+36]
	mov	edx, DWORD PTR _ctxt$[ebp]
	mov	edx, DWORD PTR [edx+36]
	mov	ecx, DWORD PTR [ecx+16]
	sub	ecx, DWORD PTR [edx+12]
	sub	eax, ecx
	mov	DWORD PTR _avail$[ebp], eax
$LN191@xmlParseTr:

; 11740:                             (ctxt->input->cur - ctxt->input->base);
; 11741: 		if (avail < 2)

	cmp	DWORD PTR _avail$[ebp], 2
	jge	SHORT $LN192@xmlParseTr

; 11742: 		    goto done;

	jmp	$done$260
$LN192@xmlParseTr:

; 11743: 		cur = ctxt->input->cur[0];

	mov	edx, DWORD PTR _ctxt$[ebp]
	mov	eax, DWORD PTR [edx+36]
	mov	ecx, 1
	imul	edx, ecx, 0
	mov	eax, DWORD PTR [eax+16]
	mov	cl, BYTE PTR [edx+eax]
	mov	BYTE PTR _cur$[ebp], cl

; 11744: 		next = ctxt->input->cur[1];

	mov	edx, DWORD PTR _ctxt$[ebp]
	mov	eax, DWORD PTR [edx+36]
	mov	ecx, 1
	shl	ecx, 0
	mov	edx, DWORD PTR [eax+16]
	mov	al, BYTE PTR [ecx+edx]
	mov	BYTE PTR _next$[ebp], al

; 11745: 	        if ((cur == '<') && (next == '?')) {

	movzx	ecx, BYTE PTR _cur$[ebp]
	cmp	ecx, 60					; 0000003cH
	jne	SHORT $LN193@xmlParseTr
	movzx	edx, BYTE PTR _next$[ebp]
	cmp	edx, 63					; 0000003fH
	jne	SHORT $LN193@xmlParseTr

; 11746: 		    if ((!terminate) &&

	cmp	DWORD PTR _terminate$[ebp], 0
	jne	SHORT $LN195@xmlParseTr
	push	0
	push	62					; 0000003eH
	push	63					; 0000003fH
	mov	eax, DWORD PTR _ctxt$[ebp]
	push	eax
	call	_xmlParseLookupSequence
	add	esp, 16					; 00000010H
	test	eax, eax
	jge	SHORT $LN195@xmlParseTr

; 11747: 		        (xmlParseLookupSequence(ctxt, '?', '>', 0) < 0)) {
; 11748:                         ctxt->progressive = XML_PARSER_PI;

	mov	ecx, DWORD PTR _ctxt$[ebp]
	mov	DWORD PTR [ecx+292], 2

; 11749: 			goto done;

	jmp	$done$260
$LN195@xmlParseTr:

; 11750:                     }
; 11751: #ifdef DEBUG_PUSH
; 11752: 		    xmlGenericError(xmlGenericErrorContext,
; 11753: 			    "PP: Parsing PI\n");
; 11754: #endif
; 11755: 		    xmlParsePI(ctxt);

	mov	edx, DWORD PTR _ctxt$[ebp]
	push	edx
	call	_xmlParsePI
	add	esp, 4

; 11756: 		    if (ctxt->instate == XML_PARSER_EOF)

	mov	eax, DWORD PTR _ctxt$[ebp]
	cmp	DWORD PTR [eax+172], -1
	jne	SHORT $LN196@xmlParseTr

; 11757: 			goto done;

	jmp	$done$260
$LN196@xmlParseTr:

; 11758: 		    ctxt->instate = XML_PARSER_PROLOG;

	mov	ecx, DWORD PTR _ctxt$[ebp]
	mov	DWORD PTR [ecx+172], 4

; 11759:                     ctxt->progressive = 1;

	mov	edx, DWORD PTR _ctxt$[ebp]
	mov	DWORD PTR [edx+292], 1

; 11760: 		} else if ((cur == '<') && (next == '!') &&

	jmp	$LN194@xmlParseTr
$LN193@xmlParseTr:

; 11761: 		    (ctxt->input->cur[2] == '-') && (ctxt->input->cur[3] == '-')) {

	movzx	eax, BYTE PTR _cur$[ebp]
	cmp	eax, 60					; 0000003cH
	jne	$LN197@xmlParseTr
	movzx	ecx, BYTE PTR _next$[ebp]
	cmp	ecx, 33					; 00000021H
	jne	$LN197@xmlParseTr
	mov	edx, DWORD PTR _ctxt$[ebp]
	mov	eax, DWORD PTR [edx+36]
	mov	ecx, 1
	shl	ecx, 1
	mov	edx, DWORD PTR [eax+16]
	movzx	eax, BYTE PTR [edx+ecx]
	cmp	eax, 45					; 0000002dH
	jne	$LN197@xmlParseTr
	mov	ecx, DWORD PTR _ctxt$[ebp]
	mov	edx, DWORD PTR [ecx+36]
	mov	eax, 1
	imul	ecx, eax, 3
	mov	edx, DWORD PTR [edx+16]
	movzx	eax, BYTE PTR [edx+ecx]
	cmp	eax, 45					; 0000002dH
	jne	SHORT $LN197@xmlParseTr

; 11762: 		    if ((!terminate) &&

	cmp	DWORD PTR _terminate$[ebp], 0
	jne	SHORT $LN199@xmlParseTr
	push	62					; 0000003eH
	push	45					; 0000002dH
	push	45					; 0000002dH
	mov	ecx, DWORD PTR _ctxt$[ebp]
	push	ecx
	call	_xmlParseLookupSequence
	add	esp, 16					; 00000010H
	test	eax, eax
	jge	SHORT $LN199@xmlParseTr

; 11763: 		        (xmlParseLookupSequence(ctxt, '-', '-', '>') < 0)) {
; 11764:                         ctxt->progressive = XML_PARSER_COMMENT;

	mov	edx, DWORD PTR _ctxt$[ebp]
	mov	DWORD PTR [edx+292], 5

; 11765: 			goto done;

	jmp	$done$260
$LN199@xmlParseTr:

; 11766:                     }
; 11767: #ifdef DEBUG_PUSH
; 11768: 		    xmlGenericError(xmlGenericErrorContext,
; 11769: 			    "PP: Parsing Comment\n");
; 11770: #endif
; 11771: 		    xmlParseComment(ctxt);

	mov	eax, DWORD PTR _ctxt$[ebp]
	push	eax
	call	_xmlParseComment
	add	esp, 4

; 11772: 		    if (ctxt->instate == XML_PARSER_EOF)

	mov	ecx, DWORD PTR _ctxt$[ebp]
	cmp	DWORD PTR [ecx+172], -1
	jne	SHORT $LN200@xmlParseTr

; 11773: 			goto done;

	jmp	$done$260
$LN200@xmlParseTr:

; 11774: 		    ctxt->instate = XML_PARSER_PROLOG;

	mov	edx, DWORD PTR _ctxt$[ebp]
	mov	DWORD PTR [edx+172], 4

; 11775:                     ctxt->progressive = 1;

	mov	eax, DWORD PTR _ctxt$[ebp]
	mov	DWORD PTR [eax+292], 1
	jmp	SHORT $LN194@xmlParseTr
$LN197@xmlParseTr:

; 11776: 		} else if ((cur == '<') && (next == '!') &&

	movzx	ecx, BYTE PTR _cur$[ebp]
	cmp	ecx, 60					; 0000003cH
	jne	SHORT $LN201@xmlParseTr
	movzx	edx, BYTE PTR _next$[ebp]
	cmp	edx, 33					; 00000021H
	jne	SHORT $LN201@xmlParseTr
	cmp	DWORD PTR _avail$[ebp], 4
	jge	SHORT $LN201@xmlParseTr

; 11777: 		           (avail < 4)) {
; 11778: 		    goto done;

	jmp	$done$260

; 11779: 		} else {

	jmp	SHORT $LN194@xmlParseTr
$LN201@xmlParseTr:

; 11780: 		    ctxt->instate = XML_PARSER_START_TAG;

	mov	eax, DWORD PTR _ctxt$[ebp]
	mov	DWORD PTR [eax+172], 6

; 11781: 		    if (ctxt->progressive == 0)

	mov	ecx, DWORD PTR _ctxt$[ebp]
	cmp	DWORD PTR [ecx+292], 0
	jne	SHORT $LN203@xmlParseTr

; 11782: 			ctxt->progressive = XML_PARSER_START_TAG;

	mov	edx, DWORD PTR _ctxt$[ebp]
	mov	DWORD PTR [edx+292], 6
$LN203@xmlParseTr:

; 11783: 		    xmlParseGetLasts(ctxt, &lastlt, &lastgt);

	lea	eax, DWORD PTR _lastgt$[ebp]
	push	eax
	lea	ecx, DWORD PTR _lastlt$[ebp]
	push	ecx
	mov	edx, DWORD PTR _ctxt$[ebp]
	push	edx
	call	_xmlParseGetLasts
	add	esp, 12					; 0000000cH
$LN194@xmlParseTr:

; 11784: #ifdef DEBUG_PUSH
; 11785: 		    xmlGenericError(xmlGenericErrorContext,
; 11786: 			    "PP: entering START_TAG\n");
; 11787: #endif
; 11788: 		}
; 11789: 		break;

	jmp	$LN4@xmlParseTr
$LN204@xmlParseTr:

; 11790:             case XML_PARSER_EPILOG:
; 11791: 		SKIP_BLANKS;

	mov	eax, DWORD PTR _ctxt$[ebp]
	push	eax
	call	_xmlSkipBlankChars
	add	esp, 4

; 11792: 		if (ctxt->input->buf == NULL)

	mov	ecx, DWORD PTR _ctxt$[ebp]
	mov	edx, DWORD PTR [ecx+36]
	cmp	DWORD PTR [edx], 0
	jne	SHORT $LN205@xmlParseTr

; 11793: 		    avail = ctxt->input->length - (ctxt->input->cur - ctxt->input->base);

	mov	eax, DWORD PTR _ctxt$[ebp]
	mov	ecx, DWORD PTR [eax+36]
	mov	edx, DWORD PTR _ctxt$[ebp]
	mov	eax, DWORD PTR [edx+36]
	mov	edx, DWORD PTR _ctxt$[ebp]
	mov	edx, DWORD PTR [edx+36]
	mov	eax, DWORD PTR [eax+16]
	sub	eax, DWORD PTR [edx+12]
	mov	ecx, DWORD PTR [ecx+24]
	sub	ecx, eax
	mov	DWORD PTR _avail$[ebp], ecx
	jmp	SHORT $LN206@xmlParseTr
$LN205@xmlParseTr:

; 11794: 		else
; 11795: 		    avail = xmlBufUse(ctxt->input->buf->buffer) -

	mov	edx, DWORD PTR _ctxt$[ebp]
	mov	eax, DWORD PTR [edx+36]
	mov	ecx, DWORD PTR [eax]
	mov	edx, DWORD PTR [ecx+16]
	push	edx
	call	_xmlBufUse
	add	esp, 4
	mov	ecx, DWORD PTR _ctxt$[ebp]
	mov	edx, DWORD PTR [ecx+36]
	mov	ecx, DWORD PTR _ctxt$[ebp]
	mov	ecx, DWORD PTR [ecx+36]
	mov	edx, DWORD PTR [edx+16]
	sub	edx, DWORD PTR [ecx+12]
	sub	eax, edx
	mov	DWORD PTR _avail$[ebp], eax
$LN206@xmlParseTr:

; 11796:                             (ctxt->input->cur - ctxt->input->base);
; 11797: 		if (avail < 2)

	cmp	DWORD PTR _avail$[ebp], 2
	jge	SHORT $LN207@xmlParseTr

; 11798: 		    goto done;

	jmp	$done$260
$LN207@xmlParseTr:

; 11799: 		cur = ctxt->input->cur[0];

	mov	eax, DWORD PTR _ctxt$[ebp]
	mov	ecx, DWORD PTR [eax+36]
	mov	edx, 1
	imul	eax, edx, 0
	mov	ecx, DWORD PTR [ecx+16]
	mov	dl, BYTE PTR [eax+ecx]
	mov	BYTE PTR _cur$[ebp], dl

; 11800: 		next = ctxt->input->cur[1];

	mov	eax, DWORD PTR _ctxt$[ebp]
	mov	ecx, DWORD PTR [eax+36]
	mov	edx, 1
	shl	edx, 0
	mov	eax, DWORD PTR [ecx+16]
	mov	cl, BYTE PTR [edx+eax]
	mov	BYTE PTR _next$[ebp], cl

; 11801: 	        if ((cur == '<') && (next == '?')) {

	movzx	edx, BYTE PTR _cur$[ebp]
	cmp	edx, 60					; 0000003cH
	jne	SHORT $LN208@xmlParseTr
	movzx	eax, BYTE PTR _next$[ebp]
	cmp	eax, 63					; 0000003fH
	jne	SHORT $LN208@xmlParseTr

; 11802: 		    if ((!terminate) &&

	cmp	DWORD PTR _terminate$[ebp], 0
	jne	SHORT $LN210@xmlParseTr
	push	0
	push	62					; 0000003eH
	push	63					; 0000003fH
	mov	ecx, DWORD PTR _ctxt$[ebp]
	push	ecx
	call	_xmlParseLookupSequence
	add	esp, 16					; 00000010H
	test	eax, eax
	jge	SHORT $LN210@xmlParseTr

; 11803: 		        (xmlParseLookupSequence(ctxt, '?', '>', 0) < 0)) {
; 11804:                         ctxt->progressive = XML_PARSER_PI;

	mov	edx, DWORD PTR _ctxt$[ebp]
	mov	DWORD PTR [edx+292], 2

; 11805: 			goto done;

	jmp	$done$260
$LN210@xmlParseTr:

; 11806:                     }
; 11807: #ifdef DEBUG_PUSH
; 11808: 		    xmlGenericError(xmlGenericErrorContext,
; 11809: 			    "PP: Parsing PI\n");
; 11810: #endif
; 11811: 		    xmlParsePI(ctxt);

	mov	eax, DWORD PTR _ctxt$[ebp]
	push	eax
	call	_xmlParsePI
	add	esp, 4

; 11812: 		    if (ctxt->instate == XML_PARSER_EOF)

	mov	ecx, DWORD PTR _ctxt$[ebp]
	cmp	DWORD PTR [ecx+172], -1
	jne	SHORT $LN211@xmlParseTr

; 11813: 			goto done;

	jmp	$done$260
$LN211@xmlParseTr:

; 11814: 		    ctxt->instate = XML_PARSER_EPILOG;

	mov	edx, DWORD PTR _ctxt$[ebp]
	mov	DWORD PTR [edx+172], 14			; 0000000eH

; 11815:                     ctxt->progressive = 1;

	mov	eax, DWORD PTR _ctxt$[ebp]
	mov	DWORD PTR [eax+292], 1

; 11816: 		} else if ((cur == '<') && (next == '!') &&

	jmp	$LN209@xmlParseTr
$LN208@xmlParseTr:

; 11817: 		    (ctxt->input->cur[2] == '-') && (ctxt->input->cur[3] == '-')) {

	movzx	ecx, BYTE PTR _cur$[ebp]
	cmp	ecx, 60					; 0000003cH
	jne	$LN212@xmlParseTr
	movzx	edx, BYTE PTR _next$[ebp]
	cmp	edx, 33					; 00000021H
	jne	$LN212@xmlParseTr
	mov	eax, DWORD PTR _ctxt$[ebp]
	mov	ecx, DWORD PTR [eax+36]
	mov	edx, 1
	shl	edx, 1
	mov	eax, DWORD PTR [ecx+16]
	movzx	ecx, BYTE PTR [eax+edx]
	cmp	ecx, 45					; 0000002dH
	jne	$LN212@xmlParseTr
	mov	edx, DWORD PTR _ctxt$[ebp]
	mov	eax, DWORD PTR [edx+36]
	mov	ecx, 1
	imul	edx, ecx, 3
	mov	eax, DWORD PTR [eax+16]
	movzx	ecx, BYTE PTR [eax+edx]
	cmp	ecx, 45					; 0000002dH
	jne	SHORT $LN212@xmlParseTr

; 11818: 		    if ((!terminate) &&

	cmp	DWORD PTR _terminate$[ebp], 0
	jne	SHORT $LN214@xmlParseTr
	push	62					; 0000003eH
	push	45					; 0000002dH
	push	45					; 0000002dH
	mov	edx, DWORD PTR _ctxt$[ebp]
	push	edx
	call	_xmlParseLookupSequence
	add	esp, 16					; 00000010H
	test	eax, eax
	jge	SHORT $LN214@xmlParseTr

; 11819: 		        (xmlParseLookupSequence(ctxt, '-', '-', '>') < 0)) {
; 11820:                         ctxt->progressive = XML_PARSER_COMMENT;

	mov	eax, DWORD PTR _ctxt$[ebp]
	mov	DWORD PTR [eax+292], 5

; 11821: 			goto done;

	jmp	$done$260
$LN214@xmlParseTr:

; 11822:                     }
; 11823: #ifdef DEBUG_PUSH
; 11824: 		    xmlGenericError(xmlGenericErrorContext,
; 11825: 			    "PP: Parsing Comment\n");
; 11826: #endif
; 11827: 		    xmlParseComment(ctxt);

	mov	ecx, DWORD PTR _ctxt$[ebp]
	push	ecx
	call	_xmlParseComment
	add	esp, 4

; 11828: 		    if (ctxt->instate == XML_PARSER_EOF)

	mov	edx, DWORD PTR _ctxt$[ebp]
	cmp	DWORD PTR [edx+172], -1
	jne	SHORT $LN215@xmlParseTr

; 11829: 			goto done;

	jmp	$done$260
$LN215@xmlParseTr:

; 11830: 		    ctxt->instate = XML_PARSER_EPILOG;

	mov	eax, DWORD PTR _ctxt$[ebp]
	mov	DWORD PTR [eax+172], 14			; 0000000eH

; 11831:                     ctxt->progressive = 1;

	mov	ecx, DWORD PTR _ctxt$[ebp]
	mov	DWORD PTR [ecx+292], 1
	jmp	SHORT $LN209@xmlParseTr
$LN212@xmlParseTr:

; 11832: 		} else if ((cur == '<') && (next == '!') &&

	movzx	edx, BYTE PTR _cur$[ebp]
	cmp	edx, 60					; 0000003cH
	jne	SHORT $LN216@xmlParseTr
	movzx	eax, BYTE PTR _next$[ebp]
	cmp	eax, 33					; 00000021H
	jne	SHORT $LN216@xmlParseTr
	cmp	DWORD PTR _avail$[ebp], 4
	jge	SHORT $LN216@xmlParseTr

; 11833: 		           (avail < 4)) {
; 11834: 		    goto done;

	jmp	$done$260

; 11835: 		} else {

	jmp	SHORT $LN209@xmlParseTr
$LN216@xmlParseTr:

; 11836: 		    xmlFatalErr(ctxt, XML_ERR_DOCUMENT_END, NULL);

	push	0
	push	5
	mov	ecx, DWORD PTR _ctxt$[ebp]
	push	ecx
	call	_xmlFatalErr
	add	esp, 12					; 0000000cH

; 11837: 		    xmlHaltParser(ctxt);

	mov	edx, DWORD PTR _ctxt$[ebp]
	push	edx
	call	_xmlHaltParser
	add	esp, 4

; 11838: #ifdef DEBUG_PUSH
; 11839: 		    xmlGenericError(xmlGenericErrorContext,
; 11840: 			    "PP: entering EOF\n");
; 11841: #endif
; 11842: 		    if ((ctxt->sax) && (ctxt->sax->endDocument != NULL))

	mov	eax, DWORD PTR _ctxt$[ebp]
	cmp	DWORD PTR [eax], 0
	je	SHORT $LN218@xmlParseTr
	mov	ecx, DWORD PTR _ctxt$[ebp]
	mov	edx, DWORD PTR [ecx]
	cmp	DWORD PTR [edx+52], 0
	je	SHORT $LN218@xmlParseTr

; 11843: 			ctxt->sax->endDocument(ctxt->userData);

	mov	esi, esp
	mov	eax, DWORD PTR _ctxt$[ebp]
	mov	ecx, DWORD PTR [eax+4]
	push	ecx
	mov	edx, DWORD PTR _ctxt$[ebp]
	mov	eax, DWORD PTR [edx]
	mov	ecx, DWORD PTR [eax+52]
	call	ecx
	add	esp, 4
	cmp	esi, esp
	call	__RTC_CheckEsp
$LN218@xmlParseTr:

; 11844: 		    goto done;

	jmp	$done$260
$LN209@xmlParseTr:

; 11845: 		}
; 11846: 		break;

	jmp	$LN4@xmlParseTr
$LN219@xmlParseTr:

; 11847:             case XML_PARSER_DTD: {
; 11848: 	        /*
; 11849: 		 * Sorry but progressive parsing of the internal subset
; 11850: 		 * is not expected to be supported. We first check that
; 11851: 		 * the full content of the internal subset is available and
; 11852: 		 * the parsing is launched only at that point.
; 11853: 		 * Internal subset ends up with "']' S? '>'" in an unescaped
; 11854: 		 * section and not in a ']]>' sequence which are conditional
; 11855: 		 * sections (whoever argued to keep that crap in XML deserve
; 11856: 		 * a place in hell !).
; 11857: 		 */
; 11858: 		int base, i;
; 11859: 		xmlChar *buf;
; 11860: 	        xmlChar quote = 0;

	mov	BYTE PTR _quote$4[ebp], 0

; 11861:                 size_t use;
; 11862: 
; 11863: 		base = ctxt->input->cur - ctxt->input->base;

	mov	edx, DWORD PTR _ctxt$[ebp]
	mov	eax, DWORD PTR [edx+36]
	mov	ecx, DWORD PTR _ctxt$[ebp]
	mov	edx, DWORD PTR [ecx+36]
	mov	eax, DWORD PTR [eax+16]
	sub	eax, DWORD PTR [edx+12]
	mov	DWORD PTR _base$7[ebp], eax

; 11864: 		if (base < 0) return(0);

	jns	SHORT $LN220@xmlParseTr
	xor	eax, eax
	jmp	$LN1@xmlParseTr
$LN220@xmlParseTr:

; 11865: 		if (ctxt->checkIndex > base)

	mov	ecx, DWORD PTR _ctxt$[ebp]
	mov	edx, DWORD PTR [ecx+204]
	cmp	edx, DWORD PTR _base$7[ebp]
	jle	SHORT $LN221@xmlParseTr

; 11866: 		    base = ctxt->checkIndex;

	mov	eax, DWORD PTR _ctxt$[ebp]
	mov	ecx, DWORD PTR [eax+204]
	mov	DWORD PTR _base$7[ebp], ecx
$LN221@xmlParseTr:

; 11867: 		buf = xmlBufContent(ctxt->input->buf->buffer);

	mov	edx, DWORD PTR _ctxt$[ebp]
	mov	eax, DWORD PTR [edx+36]
	mov	ecx, DWORD PTR [eax]
	mov	edx, DWORD PTR [ecx+16]
	push	edx
	call	_xmlBufContent
	add	esp, 4
	mov	DWORD PTR _buf$5[ebp], eax

; 11868:                 use = xmlBufUse(ctxt->input->buf->buffer);

	mov	eax, DWORD PTR _ctxt$[ebp]
	mov	ecx, DWORD PTR [eax+36]
	mov	edx, DWORD PTR [ecx]
	mov	eax, DWORD PTR [edx+16]
	push	eax
	call	_xmlBufUse
	add	esp, 4
	mov	DWORD PTR _use$3[ebp], eax

; 11869: 		for (;(unsigned int) base < use; base++) {

	jmp	SHORT $LN26@xmlParseTr
$LN24@xmlParseTr:
	mov	ecx, DWORD PTR _base$7[ebp]
	add	ecx, 1
	mov	DWORD PTR _base$7[ebp], ecx
$LN26@xmlParseTr:
	mov	edx, DWORD PTR _base$7[ebp]
	cmp	edx, DWORD PTR _use$3[ebp]
	jae	$LN25@xmlParseTr

; 11870: 		    if (quote != 0) {

	movzx	eax, BYTE PTR _quote$4[ebp]
	test	eax, eax
	je	SHORT $LN222@xmlParseTr

; 11871: 		        if (buf[base] == quote)

	mov	ecx, DWORD PTR _buf$5[ebp]
	add	ecx, DWORD PTR _base$7[ebp]
	movzx	edx, BYTE PTR [ecx]
	movzx	eax, BYTE PTR _quote$4[ebp]
	cmp	edx, eax
	jne	SHORT $LN223@xmlParseTr

; 11872: 			    quote = 0;

	mov	BYTE PTR _quote$4[ebp], 0
$LN223@xmlParseTr:

; 11873: 			continue;

	jmp	SHORT $LN24@xmlParseTr
$LN222@xmlParseTr:

; 11874: 		    }
; 11875: 		    if ((quote == 0) && (buf[base] == '<')) {

	movzx	ecx, BYTE PTR _quote$4[ebp]
	test	ecx, ecx
	jne	$LN224@xmlParseTr
	mov	edx, DWORD PTR _buf$5[ebp]
	add	edx, DWORD PTR _base$7[ebp]
	movzx	eax, BYTE PTR [edx]
	cmp	eax, 60					; 0000003cH
	jne	$LN224@xmlParseTr

; 11876: 		        int found  = 0;

	mov	DWORD PTR _found$2[ebp], 0

; 11877: 			/* special handling of comments */
; 11878: 		        if (((unsigned int) base + 4 < use) &&
; 11879: 			    (buf[base + 1] == '!') &&
; 11880: 			    (buf[base + 2] == '-') &&

	mov	ecx, DWORD PTR _base$7[ebp]
	add	ecx, 4
	cmp	ecx, DWORD PTR _use$3[ebp]
	jae	$LN224@xmlParseTr
	mov	edx, DWORD PTR _buf$5[ebp]
	add	edx, DWORD PTR _base$7[ebp]
	movzx	eax, BYTE PTR [edx+1]
	cmp	eax, 33					; 00000021H
	jne	$LN224@xmlParseTr
	mov	ecx, DWORD PTR _buf$5[ebp]
	add	ecx, DWORD PTR _base$7[ebp]
	movzx	edx, BYTE PTR [ecx+2]
	cmp	edx, 45					; 0000002dH
	jne	$LN224@xmlParseTr
	mov	eax, DWORD PTR _buf$5[ebp]
	add	eax, DWORD PTR _base$7[ebp]
	movzx	ecx, BYTE PTR [eax+3]
	cmp	ecx, 45					; 0000002dH
	jne	$LN224@xmlParseTr

; 11881: 			    (buf[base + 3] == '-')) {
; 11882: 			    for (;(unsigned int) base + 3 < use; base++) {

	jmp	SHORT $LN29@xmlParseTr
$LN27@xmlParseTr:
	mov	edx, DWORD PTR _base$7[ebp]
	add	edx, 1
	mov	DWORD PTR _base$7[ebp], edx
$LN29@xmlParseTr:
	mov	eax, DWORD PTR _base$7[ebp]
	add	eax, 3
	cmp	eax, DWORD PTR _use$3[ebp]
	jae	SHORT $LN28@xmlParseTr

; 11883: 				if ((buf[base] == '-') &&
; 11884: 				    (buf[base + 1] == '-') &&

	mov	ecx, DWORD PTR _buf$5[ebp]
	add	ecx, DWORD PTR _base$7[ebp]
	movzx	edx, BYTE PTR [ecx]
	cmp	edx, 45					; 0000002dH
	jne	SHORT $LN226@xmlParseTr
	mov	eax, DWORD PTR _buf$5[ebp]
	add	eax, DWORD PTR _base$7[ebp]
	movzx	ecx, BYTE PTR [eax+1]
	cmp	ecx, 45					; 0000002dH
	jne	SHORT $LN226@xmlParseTr
	mov	edx, DWORD PTR _buf$5[ebp]
	add	edx, DWORD PTR _base$7[ebp]
	movzx	eax, BYTE PTR [edx+2]
	cmp	eax, 62					; 0000003eH
	jne	SHORT $LN226@xmlParseTr

; 11885: 				    (buf[base + 2] == '>')) {
; 11886: 				    found = 1;

	mov	DWORD PTR _found$2[ebp], 1

; 11887: 				    base += 2;

	mov	ecx, DWORD PTR _base$7[ebp]
	add	ecx, 2
	mov	DWORD PTR _base$7[ebp], ecx

; 11888: 				    break;

	jmp	SHORT $LN28@xmlParseTr
$LN226@xmlParseTr:

; 11889: 				}
; 11890: 		            }

	jmp	SHORT $LN27@xmlParseTr
$LN28@xmlParseTr:

; 11891: 			    if (!found) {

	cmp	DWORD PTR _found$2[ebp], 0
	jne	SHORT $LN227@xmlParseTr

; 11892: #if 0
; 11893: 			        fprintf(stderr, "unfinished comment\n");
; 11894: #endif
; 11895: 			        break; /* for */

	jmp	$LN25@xmlParseTr
$LN227@xmlParseTr:

; 11896: 		            }
; 11897: 		            continue;

	jmp	$LN24@xmlParseTr
$LN224@xmlParseTr:

; 11898: 			}
; 11899: 		    }
; 11900: 		    if (buf[base] == '"') {

	mov	edx, DWORD PTR _buf$5[ebp]
	add	edx, DWORD PTR _base$7[ebp]
	movzx	eax, BYTE PTR [edx]
	cmp	eax, 34					; 00000022H
	jne	SHORT $LN228@xmlParseTr

; 11901: 		        quote = '"';

	mov	BYTE PTR _quote$4[ebp], 34		; 00000022H

; 11902: 			continue;

	jmp	$LN24@xmlParseTr
$LN228@xmlParseTr:

; 11903: 		    }
; 11904: 		    if (buf[base] == '\'') {

	mov	ecx, DWORD PTR _buf$5[ebp]
	add	ecx, DWORD PTR _base$7[ebp]
	movzx	edx, BYTE PTR [ecx]
	cmp	edx, 39					; 00000027H
	jne	SHORT $LN229@xmlParseTr

; 11905: 		        quote = '\'';

	mov	BYTE PTR _quote$4[ebp], 39		; 00000027H

; 11906: 			continue;

	jmp	$LN24@xmlParseTr
$LN229@xmlParseTr:

; 11907: 		    }
; 11908: 		    if (buf[base] == ']') {

	mov	eax, DWORD PTR _buf$5[ebp]
	add	eax, DWORD PTR _base$7[ebp]
	movzx	ecx, BYTE PTR [eax]
	cmp	ecx, 93					; 0000005dH
	jne	$not_end_of_int_subset$262

; 11909: #if 0
; 11910: 		        fprintf(stderr, "%c%c%c%c: ", buf[base],
; 11911: 			        buf[base + 1], buf[base + 2], buf[base + 3]);
; 11912: #endif
; 11913: 		        if ((unsigned int) base +1 >= use)

	mov	edx, DWORD PTR _base$7[ebp]
	add	edx, 1
	cmp	edx, DWORD PTR _use$3[ebp]
	jb	SHORT $LN231@xmlParseTr

; 11914: 			    break;

	jmp	$LN25@xmlParseTr
$LN231@xmlParseTr:

; 11915: 			if (buf[base + 1] == ']') {

	mov	eax, DWORD PTR _buf$5[ebp]
	add	eax, DWORD PTR _base$7[ebp]
	movzx	ecx, BYTE PTR [eax+1]
	cmp	ecx, 93					; 0000005dH
	jne	SHORT $LN232@xmlParseTr

; 11916: 			    /* conditional crap, skip both ']' ! */
; 11917: 			    base++;

	mov	edx, DWORD PTR _base$7[ebp]
	add	edx, 1
	mov	DWORD PTR _base$7[ebp], edx

; 11918: 			    continue;

	jmp	$LN24@xmlParseTr
$LN232@xmlParseTr:

; 11919: 			}
; 11920: 		        for (i = 1; (unsigned int) base + i < use; i++) {

	mov	DWORD PTR _i$6[ebp], 1
	jmp	SHORT $LN32@xmlParseTr
$LN30@xmlParseTr:
	mov	eax, DWORD PTR _i$6[ebp]
	add	eax, 1
	mov	DWORD PTR _i$6[ebp], eax
$LN32@xmlParseTr:
	mov	ecx, DWORD PTR _base$7[ebp]
	add	ecx, DWORD PTR _i$6[ebp]
	cmp	ecx, DWORD PTR _use$3[ebp]
	jae	$LN31@xmlParseTr

; 11921: 			    if (buf[base + i] == '>') {

	mov	edx, DWORD PTR _base$7[ebp]
	add	edx, DWORD PTR _i$6[ebp]
	mov	eax, DWORD PTR _buf$5[ebp]
	movzx	ecx, BYTE PTR [eax+edx]
	cmp	ecx, 62					; 0000003eH
	jne	SHORT $LN233@xmlParseTr

; 11922: #if 0
; 11923: 			        fprintf(stderr, "found\n");
; 11924: #endif
; 11925: 			        goto found_end_int_subset;

	jmp	$found_end_int_subset$263
$LN233@xmlParseTr:

; 11926: 			    }
; 11927: 			    if (!IS_BLANK_CH(buf[base + i])) {

	mov	edx, DWORD PTR _base$7[ebp]
	add	edx, DWORD PTR _i$6[ebp]
	mov	eax, DWORD PTR _buf$5[ebp]
	movzx	ecx, BYTE PTR [eax+edx]
	cmp	ecx, 32					; 00000020H
	je	SHORT $LN234@xmlParseTr
	mov	edx, DWORD PTR _base$7[ebp]
	add	edx, DWORD PTR _i$6[ebp]
	mov	eax, DWORD PTR _buf$5[ebp]
	movzx	ecx, BYTE PTR [eax+edx]
	cmp	ecx, 9
	jl	SHORT $LN235@xmlParseTr
	mov	edx, DWORD PTR _base$7[ebp]
	add	edx, DWORD PTR _i$6[ebp]
	mov	eax, DWORD PTR _buf$5[ebp]
	movzx	ecx, BYTE PTR [eax+edx]
	cmp	ecx, 10					; 0000000aH
	jle	SHORT $LN234@xmlParseTr
$LN235@xmlParseTr:
	mov	edx, DWORD PTR _base$7[ebp]
	add	edx, DWORD PTR _i$6[ebp]
	mov	eax, DWORD PTR _buf$5[ebp]
	movzx	ecx, BYTE PTR [eax+edx]
	cmp	ecx, 13					; 0000000dH
	je	SHORT $LN234@xmlParseTr

; 11928: #if 0
; 11929: 			        fprintf(stderr, "not found\n");
; 11930: #endif
; 11931: 			        goto not_end_of_int_subset;

	jmp	SHORT $not_end_of_int_subset$262
$LN234@xmlParseTr:

; 11932: 			    }
; 11933: 			}

	jmp	$LN30@xmlParseTr
$LN31@xmlParseTr:

; 11934: #if 0
; 11935: 			fprintf(stderr, "end of stream\n");
; 11936: #endif
; 11937: 		        break;

	jmp	SHORT $LN25@xmlParseTr
$not_end_of_int_subset$262:

; 11938: 
; 11939: 		    }
; 11940: not_end_of_int_subset:
; 11941:                     continue; /* for */

	jmp	$LN24@xmlParseTr

; 11942: 		}

	jmp	$LN24@xmlParseTr
$LN25@xmlParseTr:

; 11943: 		/*
; 11944: 		 * We didn't found the end of the Internal subset
; 11945: 		 */
; 11946:                 if (quote == 0)

	movzx	edx, BYTE PTR _quote$4[ebp]
	test	edx, edx
	jne	SHORT $LN236@xmlParseTr

; 11947:                     ctxt->checkIndex = base;

	mov	eax, DWORD PTR _ctxt$[ebp]
	mov	ecx, DWORD PTR _base$7[ebp]
	mov	DWORD PTR [eax+204], ecx
	jmp	SHORT $LN237@xmlParseTr
$LN236@xmlParseTr:

; 11948:                 else
; 11949:                     ctxt->checkIndex = 0;

	mov	edx, DWORD PTR _ctxt$[ebp]
	mov	DWORD PTR [edx+204], 0
$LN237@xmlParseTr:

; 11950: #ifdef DEBUG_PUSH
; 11951: 		if (next == 0)
; 11952: 		    xmlGenericError(xmlGenericErrorContext,
; 11953: 			    "PP: lookup of int subset end filed\n");
; 11954: #endif
; 11955: 	        goto done;

	jmp	$done$260
$found_end_int_subset$263:

; 11956: 
; 11957: found_end_int_subset:
; 11958:                 ctxt->checkIndex = 0;

	mov	eax, DWORD PTR _ctxt$[ebp]
	mov	DWORD PTR [eax+204], 0

; 11959: 		xmlParseInternalSubset(ctxt);

	mov	ecx, DWORD PTR _ctxt$[ebp]
	push	ecx
	call	_xmlParseInternalSubset
	add	esp, 4

; 11960: 		if (ctxt->instate == XML_PARSER_EOF)

	mov	edx, DWORD PTR _ctxt$[ebp]
	cmp	DWORD PTR [edx+172], -1
	jne	SHORT $LN238@xmlParseTr

; 11961: 		    goto done;

	jmp	$done$260
$LN238@xmlParseTr:

; 11962: 		ctxt->inSubset = 2;

	mov	eax, DWORD PTR _ctxt$[ebp]
	mov	DWORD PTR [eax+216], 2

; 11963: 		if ((ctxt->sax != NULL) && (!ctxt->disableSAX) &&

	mov	ecx, DWORD PTR _ctxt$[ebp]
	cmp	DWORD PTR [ecx], 0
	je	SHORT $LN239@xmlParseTr
	mov	edx, DWORD PTR _ctxt$[ebp]
	cmp	DWORD PTR [edx+212], 0
	jne	SHORT $LN239@xmlParseTr
	mov	eax, DWORD PTR _ctxt$[ebp]
	mov	ecx, DWORD PTR [eax]
	cmp	DWORD PTR [ecx+104], 0
	je	SHORT $LN239@xmlParseTr

; 11964: 		    (ctxt->sax->externalSubset != NULL))
; 11965: 		    ctxt->sax->externalSubset(ctxt->userData, ctxt->intSubName,

	mov	esi, esp
	mov	edx, DWORD PTR _ctxt$[ebp]
	mov	eax, DWORD PTR [edx+224]
	push	eax
	mov	ecx, DWORD PTR _ctxt$[ebp]
	mov	edx, DWORD PTR [ecx+228]
	push	edx
	mov	eax, DWORD PTR _ctxt$[ebp]
	mov	ecx, DWORD PTR [eax+220]
	push	ecx
	mov	edx, DWORD PTR _ctxt$[ebp]
	mov	eax, DWORD PTR [edx+4]
	push	eax
	mov	ecx, DWORD PTR _ctxt$[ebp]
	mov	edx, DWORD PTR [ecx]
	mov	eax, DWORD PTR [edx+104]
	call	eax
	add	esp, 16					; 00000010H
	cmp	esi, esp
	call	__RTC_CheckEsp
$LN239@xmlParseTr:

; 11966: 			    ctxt->extSubSystem, ctxt->extSubURI);
; 11967: 		ctxt->inSubset = 0;

	mov	ecx, DWORD PTR _ctxt$[ebp]
	mov	DWORD PTR [ecx+216], 0

; 11968: 		xmlCleanSpecialAttr(ctxt);

	mov	edx, DWORD PTR _ctxt$[ebp]
	push	edx
	call	_xmlCleanSpecialAttr
	add	esp, 4

; 11969: 		if (ctxt->instate == XML_PARSER_EOF)

	mov	eax, DWORD PTR _ctxt$[ebp]
	cmp	DWORD PTR [eax+172], -1
	jne	SHORT $LN240@xmlParseTr

; 11970: 		    goto done;

	jmp	$done$260
$LN240@xmlParseTr:

; 11971: 		ctxt->instate = XML_PARSER_PROLOG;

	mov	ecx, DWORD PTR _ctxt$[ebp]
	mov	DWORD PTR [ecx+172], 4

; 11972: 		ctxt->checkIndex = 0;

	mov	edx, DWORD PTR _ctxt$[ebp]
	mov	DWORD PTR [edx+204], 0

; 11973: #ifdef DEBUG_PUSH
; 11974: 		xmlGenericError(xmlGenericErrorContext,
; 11975: 			"PP: entering PROLOG\n");
; 11976: #endif
; 11977:                 break;

	jmp	$LN4@xmlParseTr
$LN241@xmlParseTr:

; 11978: 	    }
; 11979:             case XML_PARSER_COMMENT:
; 11980: 		xmlGenericError(xmlGenericErrorContext,

	mov	esi, esp
	push	OFFSET ??_C@_0CG@PHGFCMFA@PP?3?5internal?5error?0?5state?5?$DN?$DN?5CO@
	call	___xmlGenericErrorContext
	mov	eax, DWORD PTR [eax]
	push	eax
	call	___xmlGenericError
	mov	ecx, DWORD PTR [eax]
	call	ecx
	add	esp, 8
	cmp	esi, esp
	call	__RTC_CheckEsp

; 11981: 			"PP: internal error, state == COMMENT\n");
; 11982: 		ctxt->instate = XML_PARSER_CONTENT;

	mov	edx, DWORD PTR _ctxt$[ebp]
	mov	DWORD PTR [edx+172], 7

; 11983: #ifdef DEBUG_PUSH
; 11984: 		xmlGenericError(xmlGenericErrorContext,
; 11985: 			"PP: entering CONTENT\n");
; 11986: #endif
; 11987: 		break;

	jmp	$LN4@xmlParseTr
$LN242@xmlParseTr:

; 11988:             case XML_PARSER_IGNORE:
; 11989: 		xmlGenericError(xmlGenericErrorContext,

	mov	esi, esp
	push	OFFSET ??_C@_0CE@CFNIBLKF@PP?3?5internal?5error?0?5state?5?$DN?$DN?5IG@
	call	___xmlGenericErrorContext
	mov	eax, DWORD PTR [eax]
	push	eax
	call	___xmlGenericError
	mov	ecx, DWORD PTR [eax]
	call	ecx
	add	esp, 8
	cmp	esi, esp
	call	__RTC_CheckEsp

; 11990: 			"PP: internal error, state == IGNORE");
; 11991: 	        ctxt->instate = XML_PARSER_DTD;

	mov	edx, DWORD PTR _ctxt$[ebp]
	mov	DWORD PTR [edx+172], 3

; 11992: #ifdef DEBUG_PUSH
; 11993: 		xmlGenericError(xmlGenericErrorContext,
; 11994: 			"PP: entering DTD\n");
; 11995: #endif
; 11996: 	        break;

	jmp	$LN4@xmlParseTr
$LN243@xmlParseTr:

; 11997:             case XML_PARSER_PI:
; 11998: 		xmlGenericError(xmlGenericErrorContext,

	mov	esi, esp
	push	OFFSET ??_C@_0CB@LNKCECMO@PP?3?5internal?5error?0?5state?5?$DN?$DN?5PI@
	call	___xmlGenericErrorContext
	mov	eax, DWORD PTR [eax]
	push	eax
	call	___xmlGenericError
	mov	ecx, DWORD PTR [eax]
	call	ecx
	add	esp, 8
	cmp	esi, esp
	call	__RTC_CheckEsp

; 11999: 			"PP: internal error, state == PI\n");
; 12000: 		ctxt->instate = XML_PARSER_CONTENT;

	mov	edx, DWORD PTR _ctxt$[ebp]
	mov	DWORD PTR [edx+172], 7

; 12001: #ifdef DEBUG_PUSH
; 12002: 		xmlGenericError(xmlGenericErrorContext,
; 12003: 			"PP: entering CONTENT\n");
; 12004: #endif
; 12005: 		break;

	jmp	$LN4@xmlParseTr
$LN244@xmlParseTr:

; 12006:             case XML_PARSER_ENTITY_DECL:
; 12007: 		xmlGenericError(xmlGenericErrorContext,

	mov	esi, esp
	push	OFFSET ??_C@_0CK@EGFEGMNP@PP?3?5internal?5error?0?5state?5?$DN?$DN?5EN@
	call	___xmlGenericErrorContext
	mov	eax, DWORD PTR [eax]
	push	eax
	call	___xmlGenericError
	mov	ecx, DWORD PTR [eax]
	call	ecx
	add	esp, 8
	cmp	esi, esp
	call	__RTC_CheckEsp

; 12008: 			"PP: internal error, state == ENTITY_DECL\n");
; 12009: 		ctxt->instate = XML_PARSER_DTD;

	mov	edx, DWORD PTR _ctxt$[ebp]
	mov	DWORD PTR [edx+172], 3

; 12010: #ifdef DEBUG_PUSH
; 12011: 		xmlGenericError(xmlGenericErrorContext,
; 12012: 			"PP: entering DTD\n");
; 12013: #endif
; 12014: 		break;

	jmp	$LN4@xmlParseTr
$LN245@xmlParseTr:

; 12015:             case XML_PARSER_ENTITY_VALUE:
; 12016: 		xmlGenericError(xmlGenericErrorContext,

	mov	esi, esp
	push	OFFSET ??_C@_0CL@FDJCPJGL@PP?3?5internal?5error?0?5state?5?$DN?$DN?5EN@
	call	___xmlGenericErrorContext
	mov	eax, DWORD PTR [eax]
	push	eax
	call	___xmlGenericError
	mov	ecx, DWORD PTR [eax]
	call	ecx
	add	esp, 8
	cmp	esi, esp
	call	__RTC_CheckEsp

; 12017: 			"PP: internal error, state == ENTITY_VALUE\n");
; 12018: 		ctxt->instate = XML_PARSER_CONTENT;

	mov	edx, DWORD PTR _ctxt$[ebp]
	mov	DWORD PTR [edx+172], 7

; 12019: #ifdef DEBUG_PUSH
; 12020: 		xmlGenericError(xmlGenericErrorContext,
; 12021: 			"PP: entering DTD\n");
; 12022: #endif
; 12023: 		break;

	jmp	$LN4@xmlParseTr
$LN246@xmlParseTr:

; 12024:             case XML_PARSER_ATTRIBUTE_VALUE:
; 12025: 		xmlGenericError(xmlGenericErrorContext,

	mov	esi, esp
	push	OFFSET ??_C@_0CO@BNGPOFIK@PP?3?5internal?5error?0?5state?5?$DN?$DN?5AT@
	call	___xmlGenericErrorContext
	mov	eax, DWORD PTR [eax]
	push	eax
	call	___xmlGenericError
	mov	ecx, DWORD PTR [eax]
	call	ecx
	add	esp, 8
	cmp	esi, esp
	call	__RTC_CheckEsp

; 12026: 			"PP: internal error, state == ATTRIBUTE_VALUE\n");
; 12027: 		ctxt->instate = XML_PARSER_START_TAG;

	mov	edx, DWORD PTR _ctxt$[ebp]
	mov	DWORD PTR [edx+172], 6

; 12028: #ifdef DEBUG_PUSH
; 12029: 		xmlGenericError(xmlGenericErrorContext,
; 12030: 			"PP: entering START_TAG\n");
; 12031: #endif
; 12032: 		break;

	jmp	SHORT $LN4@xmlParseTr
$LN247@xmlParseTr:

; 12033:             case XML_PARSER_SYSTEM_LITERAL:
; 12034: 		xmlGenericError(xmlGenericErrorContext,

	mov	esi, esp
	push	OFFSET ??_C@_0CN@JHJPBNDP@PP?3?5internal?5error?0?5state?5?$DN?$DN?5SY@
	call	___xmlGenericErrorContext
	mov	eax, DWORD PTR [eax]
	push	eax
	call	___xmlGenericError
	mov	ecx, DWORD PTR [eax]
	call	ecx
	add	esp, 8
	cmp	esi, esp
	call	__RTC_CheckEsp

; 12035: 			"PP: internal error, state == SYSTEM_LITERAL\n");
; 12036: 		ctxt->instate = XML_PARSER_START_TAG;

	mov	edx, DWORD PTR _ctxt$[ebp]
	mov	DWORD PTR [edx+172], 6

; 12037: #ifdef DEBUG_PUSH
; 12038: 		xmlGenericError(xmlGenericErrorContext,
; 12039: 			"PP: entering START_TAG\n");
; 12040: #endif
; 12041: 		break;

	jmp	SHORT $LN4@xmlParseTr
$LN248@xmlParseTr:

; 12042:             case XML_PARSER_PUBLIC_LITERAL:
; 12043: 		xmlGenericError(xmlGenericErrorContext,

	mov	esi, esp
	push	OFFSET ??_C@_0CN@LJGHMOAD@PP?3?5internal?5error?0?5state?5?$DN?$DN?5PU@
	call	___xmlGenericErrorContext
	mov	eax, DWORD PTR [eax]
	push	eax
	call	___xmlGenericError
	mov	ecx, DWORD PTR [eax]
	call	ecx
	add	esp, 8
	cmp	esi, esp
	call	__RTC_CheckEsp

; 12044: 			"PP: internal error, state == PUBLIC_LITERAL\n");
; 12045: 		ctxt->instate = XML_PARSER_START_TAG;

	mov	edx, DWORD PTR _ctxt$[ebp]
	mov	DWORD PTR [edx+172], 6
$LN4@xmlParseTr:

; 12046: #ifdef DEBUG_PUSH
; 12047: 		xmlGenericError(xmlGenericErrorContext,
; 12048: 			"PP: entering START_TAG\n");
; 12049: #endif
; 12050: 		break;
; 12051: 	}
; 12052:     }

	jmp	$LN2@xmlParseTr
$done$260:

; 12053: done:
; 12054: #ifdef DEBUG_PUSH
; 12055:     xmlGenericError(xmlGenericErrorContext, "PP: done %d\n", ret);
; 12056: #endif
; 12057:     return(ret);

	mov	eax, DWORD PTR _ret$[ebp]
	jmp	$LN1@xmlParseTr
$encoding_error$261:

; 12058: encoding_error:
; 12059:     {
; 12060:         char buffer[150];
; 12061: 
; 12062: 	snprintf(buffer, 149, "Bytes: 0x%02X 0x%02X 0x%02X 0x%02X\n",

	mov	eax, DWORD PTR _ctxt$[ebp]
	mov	ecx, DWORD PTR [eax+36]
	mov	edx, 1
	imul	eax, edx, 3
	mov	ecx, DWORD PTR [ecx+16]
	movzx	edx, BYTE PTR [ecx+eax]
	push	edx
	mov	eax, DWORD PTR _ctxt$[ebp]
	mov	ecx, DWORD PTR [eax+36]
	mov	edx, 1
	shl	edx, 1
	mov	eax, DWORD PTR [ecx+16]
	movzx	ecx, BYTE PTR [eax+edx]
	push	ecx
	mov	edx, DWORD PTR _ctxt$[ebp]
	mov	eax, DWORD PTR [edx+36]
	mov	ecx, 1
	shl	ecx, 0
	mov	edx, DWORD PTR [eax+16]
	movzx	eax, BYTE PTR [edx+ecx]
	push	eax
	mov	ecx, DWORD PTR _ctxt$[ebp]
	mov	edx, DWORD PTR [ecx+36]
	mov	eax, 1
	imul	ecx, eax, 0
	mov	edx, DWORD PTR [edx+16]
	movzx	eax, BYTE PTR [edx+ecx]
	push	eax
	push	OFFSET ??_C@_0CE@KHMCMEAC@Bytes?3?50x?$CF02X?50x?$CF02X?50x?$CF02X?50x?$CF@
	push	149					; 00000095H
	lea	ecx, DWORD PTR _buffer$1[ebp]
	push	ecx
	call	_snprintf
	add	esp, 28					; 0000001cH

; 12063: 			ctxt->input->cur[0], ctxt->input->cur[1],
; 12064: 			ctxt->input->cur[2], ctxt->input->cur[3]);
; 12065: 	__xmlErrEncoding(ctxt, XML_ERR_INVALID_CHAR,

	push	0
	lea	edx, DWORD PTR _buffer$1[ebp]
	push	edx
	push	OFFSET ??_C@_0DC@POFOFIG@Input?5is?5not?5proper?5UTF?98?0?5indi@
	push	9
	mov	eax, DWORD PTR _ctxt$[ebp]
	push	eax
	call	___xmlErrEncoding
	add	esp, 20					; 00000014H

; 12066: 		     "Input is not proper UTF-8, indicate encoding !\n%s",
; 12067: 		     BAD_CAST buffer, NULL);
; 12068:     }
; 12069:     return(0);

	xor	eax, eax
$LN1@xmlParseTr:

; 12070: }

	push	edx
	mov	ecx, ebp
	push	eax
	lea	edx, DWORD PTR $LN258@xmlParseTr
	call	@_RTC_CheckStackVars@8
	pop	eax
	pop	edx
	pop	edi
	pop	esi
	add	esp, 324				; 00000144H
	cmp	ebp, esp
	call	__RTC_CheckEsp
	mov	esp, ebp
	pop	ebp
	ret	0
	npad	3
$LN258@xmlParseTr:
	DD	7
	DD	$LN257@xmlParseTr
$LN257@xmlParseTr:
	DD	-16					; fffffff0H
	DD	4
	DD	$LN250@xmlParseTr
	DD	-32					; ffffffe0H
	DD	4
	DD	$LN251@xmlParseTr
	DD	-44					; ffffffd4H
	DD	4
	DD	$LN252@xmlParseTr
	DD	-64					; ffffffc0H
	DD	4
	DD	$LN253@xmlParseTr
	DD	-84					; ffffffacH
	DD	4
	DD	$LN254@xmlParseTr
	DD	-96					; ffffffa0H
	DD	4
	DD	$LN255@xmlParseTr
	DD	-316					; fffffec4H
	DD	150					; 00000096H
	DD	$LN256@xmlParseTr
$LN256@xmlParseTr:
	DB	98					; 00000062H
	DB	117					; 00000075H
	DB	102					; 00000066H
	DB	102					; 00000066H
	DB	101					; 00000065H
	DB	114					; 00000072H
	DB	0
$LN255@xmlParseTr:
	DB	85					; 00000055H
	DB	82					; 00000052H
	DB	73					; 00000049H
	DB	0
$LN254@xmlParseTr:
	DB	112					; 00000070H
	DB	114					; 00000072H
	DB	101					; 00000065H
	DB	102					; 00000066H
	DB	105					; 00000069H
	DB	120					; 00000078H
	DB	0
$LN253@xmlParseTr:
	DB	115					; 00000073H
	DB	116					; 00000074H
	DB	97					; 00000061H
	DB	114					; 00000072H
	DB	116					; 00000074H
	DB	0
$LN252@xmlParseTr:
	DB	108					; 0000006cH
	DB	97					; 00000061H
	DB	115					; 00000073H
	DB	116					; 00000074H
	DB	103					; 00000067H
	DB	116					; 00000074H
	DB	0
$LN251@xmlParseTr:
	DB	108					; 0000006cH
	DB	97					; 00000061H
	DB	115					; 00000073H
	DB	116					; 00000074H
	DB	108					; 0000006cH
	DB	116					; 00000074H
	DB	0
$LN250@xmlParseTr:
	DB	116					; 00000074H
	DB	108					; 0000006cH
	DB	101					; 00000065H
	DB	110					; 0000006eH
	DB	0
	npad	1
$LN259@xmlParseTr:
	DD	$LN41@xmlParseTr
	DD	$LN42@xmlParseTr
	DD	$LN168@xmlParseTr
	DD	$LN243@xmlParseTr
	DD	$LN219@xmlParseTr
	DD	$LN189@xmlParseTr
	DD	$LN241@xmlParseTr
	DD	$LN65@xmlParseTr
	DD	$LN99@xmlParseTr
	DD	$LN142@xmlParseTr
	DD	$LN128@xmlParseTr
	DD	$LN244@xmlParseTr
	DD	$LN245@xmlParseTr
	DD	$LN246@xmlParseTr
	DD	$LN247@xmlParseTr
	DD	$LN204@xmlParseTr
	DD	$LN242@xmlParseTr
	DD	$LN248@xmlParseTr
_xmlParseTryOrFinish ENDP
_TEXT	ENDS
; Function compile flags: /Odtp /RTCsu
; File c:\users\dag\documents\_clients\codeproject authors group\windows on arm\libxml2\libxml2-2.9.9\parser.c
;	COMDAT _xmlCheckCdataPush
_TEXT	SEGMENT
tv277 = -60						; size = 4
tv279 = -56						; size = 4
tv278 = -52						; size = 4
tv221 = -48						; size = 4
tv208 = -44						; size = 4
tv210 = -40						; size = 4
tv209 = -36						; size = 4
tv165 = -32						; size = 4
tv152 = -28						; size = 4
tv154 = -24						; size = 4
tv153 = -20						; size = 4
tv90 = -16						; size = 4
_codepoint$ = -12					; size = 4
_c$ = -5						; size = 1
_ix$ = -4						; size = 4
_utf$ = 8						; size = 4
_len$ = 12						; size = 4
_complete$ = 16						; size = 4
_xmlCheckCdataPush PROC					; COMDAT

; 11023: xmlCheckCdataPush(const xmlChar *utf, int len, int complete) {

	push	ebp
	mov	ebp, esp
	sub	esp, 60					; 0000003cH
	push	edi
	lea	edi, DWORD PTR [ebp-60]
	mov	ecx, 15					; 0000000fH
	mov	eax, -858993460				; ccccccccH
	rep stosd
	mov	ecx, OFFSET __B9AC27D5_parser@c
	call	@__CheckForDebuggerJustMyCode@4

; 11024:     int ix;
; 11025:     unsigned char c;
; 11026:     int codepoint;
; 11027: 
; 11028:     if ((utf == NULL) || (len <= 0))

	cmp	DWORD PTR _utf$[ebp], 0
	je	SHORT $LN6@xmlCheckCd
	cmp	DWORD PTR _len$[ebp], 0
	jg	SHORT $LN5@xmlCheckCd
$LN6@xmlCheckCd:

; 11029:         return(0);

	xor	eax, eax
	jmp	$LN1@xmlCheckCd
$LN5@xmlCheckCd:

; 11030: 
; 11031:     for (ix = 0; ix < len;) {      /* string is 0-terminated */

	mov	DWORD PTR _ix$[ebp], 0
$LN4@xmlCheckCd:
	mov	eax, DWORD PTR _ix$[ebp]
	cmp	eax, DWORD PTR _len$[ebp]
	jge	$LN3@xmlCheckCd

; 11032:         c = utf[ix];

	mov	ecx, DWORD PTR _utf$[ebp]
	add	ecx, DWORD PTR _ix$[ebp]
	mov	dl, BYTE PTR [ecx]
	mov	BYTE PTR _c$[ebp], dl

; 11033:         if ((c & 0x80) == 0x00) {	/* 1-byte code, starts with 10 */

	movzx	eax, BYTE PTR _c$[ebp]
	and	eax, 128				; 00000080H
	jne	SHORT $LN7@xmlCheckCd

; 11034: 	    if (c >= 0x20)

	movzx	ecx, BYTE PTR _c$[ebp]
	cmp	ecx, 32					; 00000020H
	jl	SHORT $LN9@xmlCheckCd

; 11035: 		ix++;

	mov	edx, DWORD PTR _ix$[ebp]
	add	edx, 1
	mov	DWORD PTR _ix$[ebp], edx
	jmp	SHORT $LN10@xmlCheckCd
$LN9@xmlCheckCd:

; 11036: 	    else if ((c == 0xA) || (c == 0xD) || (c == 0x9))

	movzx	eax, BYTE PTR _c$[ebp]
	cmp	eax, 10					; 0000000aH
	je	SHORT $LN13@xmlCheckCd
	movzx	ecx, BYTE PTR _c$[ebp]
	cmp	ecx, 13					; 0000000dH
	je	SHORT $LN13@xmlCheckCd
	movzx	edx, BYTE PTR _c$[ebp]
	cmp	edx, 9
	jne	SHORT $LN11@xmlCheckCd
$LN13@xmlCheckCd:

; 11037: 	        ix++;

	mov	eax, DWORD PTR _ix$[ebp]
	add	eax, 1
	mov	DWORD PTR _ix$[ebp], eax
	jmp	SHORT $LN10@xmlCheckCd
$LN11@xmlCheckCd:

; 11038: 	    else
; 11039: 	        return(-ix);

	mov	eax, DWORD PTR _ix$[ebp]
	neg	eax
	jmp	$LN1@xmlCheckCd
$LN10@xmlCheckCd:

; 11040: 	} else if ((c & 0xe0) == 0xc0) {/* 2-byte code, starts with 110 */

	jmp	$LN8@xmlCheckCd
$LN7@xmlCheckCd:
	movzx	ecx, BYTE PTR _c$[ebp]
	and	ecx, 224				; 000000e0H
	cmp	ecx, 192				; 000000c0H
	jne	$LN14@xmlCheckCd

; 11041: 	    if (ix + 2 > len) return(complete ? -ix : ix);

	mov	edx, DWORD PTR _ix$[ebp]
	add	edx, 2
	cmp	edx, DWORD PTR _len$[ebp]
	jle	SHORT $LN16@xmlCheckCd
	cmp	DWORD PTR _complete$[ebp], 0
	je	SHORT $LN32@xmlCheckCd
	mov	eax, DWORD PTR _ix$[ebp]
	neg	eax
	mov	DWORD PTR tv90[ebp], eax
	jmp	SHORT $LN33@xmlCheckCd
$LN32@xmlCheckCd:
	mov	ecx, DWORD PTR _ix$[ebp]
	mov	DWORD PTR tv90[ebp], ecx
$LN33@xmlCheckCd:
	mov	eax, DWORD PTR tv90[ebp]
	jmp	$LN1@xmlCheckCd
$LN16@xmlCheckCd:

; 11042: 	    if ((utf[ix+1] & 0xc0 ) != 0x80)

	mov	edx, DWORD PTR _utf$[ebp]
	add	edx, DWORD PTR _ix$[ebp]
	movzx	eax, BYTE PTR [edx+1]
	and	eax, 192				; 000000c0H
	cmp	eax, 128				; 00000080H
	je	SHORT $LN17@xmlCheckCd

; 11043: 	        return(-ix);

	mov	eax, DWORD PTR _ix$[ebp]
	neg	eax
	jmp	$LN1@xmlCheckCd
$LN17@xmlCheckCd:

; 11044: 	    codepoint = (utf[ix] & 0x1f) << 6;

	mov	ecx, DWORD PTR _utf$[ebp]
	add	ecx, DWORD PTR _ix$[ebp]
	movzx	edx, BYTE PTR [ecx]
	and	edx, 31					; 0000001fH
	shl	edx, 6
	mov	DWORD PTR _codepoint$[ebp], edx

; 11045: 	    codepoint |= utf[ix+1] & 0x3f;

	mov	eax, DWORD PTR _utf$[ebp]
	add	eax, DWORD PTR _ix$[ebp]
	movzx	ecx, BYTE PTR [eax+1]
	and	ecx, 63					; 0000003fH
	or	ecx, DWORD PTR _codepoint$[ebp]
	mov	DWORD PTR _codepoint$[ebp], ecx

; 11046: 	    if (!xmlIsCharQ(codepoint))

	cmp	DWORD PTR _codepoint$[ebp], 256		; 00000100H
	jge	SHORT $LN42@xmlCheckCd
	cmp	DWORD PTR _codepoint$[ebp], 9
	jl	SHORT $LN34@xmlCheckCd
	cmp	DWORD PTR _codepoint$[ebp], 10		; 0000000aH
	jle	SHORT $LN35@xmlCheckCd
$LN34@xmlCheckCd:
	cmp	DWORD PTR _codepoint$[ebp], 13		; 0000000dH
	je	SHORT $LN35@xmlCheckCd
	cmp	DWORD PTR _codepoint$[ebp], 32		; 00000020H
	jge	SHORT $LN35@xmlCheckCd
	mov	DWORD PTR tv153[ebp], 0
	jmp	SHORT $LN41@xmlCheckCd
$LN35@xmlCheckCd:
	mov	DWORD PTR tv153[ebp], 1
$LN41@xmlCheckCd:
	mov	edx, DWORD PTR tv153[ebp]
	mov	DWORD PTR tv154[ebp], edx
	jmp	SHORT $LN43@xmlCheckCd
$LN42@xmlCheckCd:
	cmp	DWORD PTR _codepoint$[ebp], 256		; 00000100H
	jl	SHORT $LN36@xmlCheckCd
	cmp	DWORD PTR _codepoint$[ebp], 55295	; 0000d7ffH
	jle	SHORT $LN38@xmlCheckCd
$LN36@xmlCheckCd:
	cmp	DWORD PTR _codepoint$[ebp], 57344	; 0000e000H
	jl	SHORT $LN37@xmlCheckCd
	cmp	DWORD PTR _codepoint$[ebp], 65533	; 0000fffdH
	jle	SHORT $LN38@xmlCheckCd
$LN37@xmlCheckCd:
	cmp	DWORD PTR _codepoint$[ebp], 65536	; 00010000H
	jl	SHORT $LN39@xmlCheckCd
	cmp	DWORD PTR _codepoint$[ebp], 1114111	; 0010ffffH
	jle	SHORT $LN38@xmlCheckCd
$LN39@xmlCheckCd:
	mov	DWORD PTR tv152[ebp], 0
	jmp	SHORT $LN40@xmlCheckCd
$LN38@xmlCheckCd:
	mov	DWORD PTR tv152[ebp], 1
$LN40@xmlCheckCd:
	mov	eax, DWORD PTR tv152[ebp]
	mov	DWORD PTR tv154[ebp], eax
$LN43@xmlCheckCd:
	cmp	DWORD PTR tv154[ebp], 0
	jne	SHORT $LN18@xmlCheckCd

; 11047: 	        return(-ix);

	mov	eax, DWORD PTR _ix$[ebp]
	neg	eax
	jmp	$LN1@xmlCheckCd
$LN18@xmlCheckCd:

; 11048: 	    ix += 2;

	mov	ecx, DWORD PTR _ix$[ebp]
	add	ecx, 2
	mov	DWORD PTR _ix$[ebp], ecx
	jmp	$LN8@xmlCheckCd
$LN14@xmlCheckCd:

; 11049: 	} else if ((c & 0xf0) == 0xe0) {/* 3-byte code, starts with 1110 */

	movzx	edx, BYTE PTR _c$[ebp]
	and	edx, 240				; 000000f0H
	cmp	edx, 224				; 000000e0H
	jne	$LN19@xmlCheckCd

; 11050: 	    if (ix + 3 > len) return(complete ? -ix : ix);

	mov	eax, DWORD PTR _ix$[ebp]
	add	eax, 3
	cmp	eax, DWORD PTR _len$[ebp]
	jle	SHORT $LN21@xmlCheckCd
	cmp	DWORD PTR _complete$[ebp], 0
	je	SHORT $LN44@xmlCheckCd
	mov	ecx, DWORD PTR _ix$[ebp]
	neg	ecx
	mov	DWORD PTR tv165[ebp], ecx
	jmp	SHORT $LN45@xmlCheckCd
$LN44@xmlCheckCd:
	mov	edx, DWORD PTR _ix$[ebp]
	mov	DWORD PTR tv165[ebp], edx
$LN45@xmlCheckCd:
	mov	eax, DWORD PTR tv165[ebp]
	jmp	$LN1@xmlCheckCd
$LN21@xmlCheckCd:

; 11051: 	    if (((utf[ix+1] & 0xc0) != 0x80) ||

	mov	eax, DWORD PTR _utf$[ebp]
	add	eax, DWORD PTR _ix$[ebp]
	movzx	ecx, BYTE PTR [eax+1]
	and	ecx, 192				; 000000c0H
	cmp	ecx, 128				; 00000080H
	jne	SHORT $LN23@xmlCheckCd
	mov	edx, DWORD PTR _utf$[ebp]
	add	edx, DWORD PTR _ix$[ebp]
	movzx	eax, BYTE PTR [edx+2]
	and	eax, 192				; 000000c0H
	cmp	eax, 128				; 00000080H
	je	SHORT $LN22@xmlCheckCd
$LN23@xmlCheckCd:

; 11052: 	        ((utf[ix+2] & 0xc0) != 0x80))
; 11053: 		    return(-ix);

	mov	eax, DWORD PTR _ix$[ebp]
	neg	eax
	jmp	$LN1@xmlCheckCd
$LN22@xmlCheckCd:

; 11054: 	    codepoint = (utf[ix] & 0xf) << 12;

	mov	ecx, DWORD PTR _utf$[ebp]
	add	ecx, DWORD PTR _ix$[ebp]
	movzx	edx, BYTE PTR [ecx]
	and	edx, 15					; 0000000fH
	shl	edx, 12					; 0000000cH
	mov	DWORD PTR _codepoint$[ebp], edx

; 11055: 	    codepoint |= (utf[ix+1] & 0x3f) << 6;

	mov	eax, DWORD PTR _utf$[ebp]
	add	eax, DWORD PTR _ix$[ebp]
	movzx	ecx, BYTE PTR [eax+1]
	and	ecx, 63					; 0000003fH
	shl	ecx, 6
	or	ecx, DWORD PTR _codepoint$[ebp]
	mov	DWORD PTR _codepoint$[ebp], ecx

; 11056: 	    codepoint |= utf[ix+2] & 0x3f;

	mov	edx, DWORD PTR _utf$[ebp]
	add	edx, DWORD PTR _ix$[ebp]
	movzx	eax, BYTE PTR [edx+2]
	and	eax, 63					; 0000003fH
	or	eax, DWORD PTR _codepoint$[ebp]
	mov	DWORD PTR _codepoint$[ebp], eax

; 11057: 	    if (!xmlIsCharQ(codepoint))

	cmp	DWORD PTR _codepoint$[ebp], 256		; 00000100H
	jge	SHORT $LN54@xmlCheckCd
	cmp	DWORD PTR _codepoint$[ebp], 9
	jl	SHORT $LN46@xmlCheckCd
	cmp	DWORD PTR _codepoint$[ebp], 10		; 0000000aH
	jle	SHORT $LN47@xmlCheckCd
$LN46@xmlCheckCd:
	cmp	DWORD PTR _codepoint$[ebp], 13		; 0000000dH
	je	SHORT $LN47@xmlCheckCd
	cmp	DWORD PTR _codepoint$[ebp], 32		; 00000020H
	jge	SHORT $LN47@xmlCheckCd
	mov	DWORD PTR tv209[ebp], 0
	jmp	SHORT $LN53@xmlCheckCd
$LN47@xmlCheckCd:
	mov	DWORD PTR tv209[ebp], 1
$LN53@xmlCheckCd:
	mov	ecx, DWORD PTR tv209[ebp]
	mov	DWORD PTR tv210[ebp], ecx
	jmp	SHORT $LN55@xmlCheckCd
$LN54@xmlCheckCd:
	cmp	DWORD PTR _codepoint$[ebp], 256		; 00000100H
	jl	SHORT $LN48@xmlCheckCd
	cmp	DWORD PTR _codepoint$[ebp], 55295	; 0000d7ffH
	jle	SHORT $LN50@xmlCheckCd
$LN48@xmlCheckCd:
	cmp	DWORD PTR _codepoint$[ebp], 57344	; 0000e000H
	jl	SHORT $LN49@xmlCheckCd
	cmp	DWORD PTR _codepoint$[ebp], 65533	; 0000fffdH
	jle	SHORT $LN50@xmlCheckCd
$LN49@xmlCheckCd:
	cmp	DWORD PTR _codepoint$[ebp], 65536	; 00010000H
	jl	SHORT $LN51@xmlCheckCd
	cmp	DWORD PTR _codepoint$[ebp], 1114111	; 0010ffffH
	jle	SHORT $LN50@xmlCheckCd
$LN51@xmlCheckCd:
	mov	DWORD PTR tv208[ebp], 0
	jmp	SHORT $LN52@xmlCheckCd
$LN50@xmlCheckCd:
	mov	DWORD PTR tv208[ebp], 1
$LN52@xmlCheckCd:
	mov	edx, DWORD PTR tv208[ebp]
	mov	DWORD PTR tv210[ebp], edx
$LN55@xmlCheckCd:
	cmp	DWORD PTR tv210[ebp], 0
	jne	SHORT $LN24@xmlCheckCd

; 11058: 	        return(-ix);

	mov	eax, DWORD PTR _ix$[ebp]
	neg	eax
	jmp	$LN1@xmlCheckCd
$LN24@xmlCheckCd:

; 11059: 	    ix += 3;

	mov	eax, DWORD PTR _ix$[ebp]
	add	eax, 3
	mov	DWORD PTR _ix$[ebp], eax
	jmp	$LN8@xmlCheckCd
$LN19@xmlCheckCd:

; 11060: 	} else if ((c & 0xf8) == 0xf0) {/* 4-byte code, starts with 11110 */

	movzx	ecx, BYTE PTR _c$[ebp]
	and	ecx, 248				; 000000f8H
	cmp	ecx, 240				; 000000f0H
	jne	$LN25@xmlCheckCd

; 11061: 	    if (ix + 4 > len) return(complete ? -ix : ix);

	mov	edx, DWORD PTR _ix$[ebp]
	add	edx, 4
	cmp	edx, DWORD PTR _len$[ebp]
	jle	SHORT $LN27@xmlCheckCd
	cmp	DWORD PTR _complete$[ebp], 0
	je	SHORT $LN56@xmlCheckCd
	mov	eax, DWORD PTR _ix$[ebp]
	neg	eax
	mov	DWORD PTR tv221[ebp], eax
	jmp	SHORT $LN57@xmlCheckCd
$LN56@xmlCheckCd:
	mov	ecx, DWORD PTR _ix$[ebp]
	mov	DWORD PTR tv221[ebp], ecx
$LN57@xmlCheckCd:
	mov	eax, DWORD PTR tv221[ebp]
	jmp	$LN1@xmlCheckCd
$LN27@xmlCheckCd:

; 11062: 	    if (((utf[ix+1] & 0xc0) != 0x80) ||
; 11063: 	        ((utf[ix+2] & 0xc0) != 0x80) ||

	mov	edx, DWORD PTR _utf$[ebp]
	add	edx, DWORD PTR _ix$[ebp]
	movzx	eax, BYTE PTR [edx+1]
	and	eax, 192				; 000000c0H
	cmp	eax, 128				; 00000080H
	jne	SHORT $LN29@xmlCheckCd
	mov	ecx, DWORD PTR _utf$[ebp]
	add	ecx, DWORD PTR _ix$[ebp]
	movzx	edx, BYTE PTR [ecx+2]
	and	edx, 192				; 000000c0H
	cmp	edx, 128				; 00000080H
	jne	SHORT $LN29@xmlCheckCd
	mov	eax, DWORD PTR _utf$[ebp]
	add	eax, DWORD PTR _ix$[ebp]
	movzx	ecx, BYTE PTR [eax+3]
	and	ecx, 192				; 000000c0H
	cmp	ecx, 128				; 00000080H
	je	SHORT $LN28@xmlCheckCd
$LN29@xmlCheckCd:

; 11064: 		((utf[ix+3] & 0xc0) != 0x80))
; 11065: 		    return(-ix);

	mov	eax, DWORD PTR _ix$[ebp]
	neg	eax
	jmp	$LN1@xmlCheckCd
$LN28@xmlCheckCd:

; 11066: 	    codepoint = (utf[ix] & 0x7) << 18;

	mov	edx, DWORD PTR _utf$[ebp]
	add	edx, DWORD PTR _ix$[ebp]
	movzx	eax, BYTE PTR [edx]
	and	eax, 7
	shl	eax, 18					; 00000012H
	mov	DWORD PTR _codepoint$[ebp], eax

; 11067: 	    codepoint |= (utf[ix+1] & 0x3f) << 12;

	mov	ecx, DWORD PTR _utf$[ebp]
	add	ecx, DWORD PTR _ix$[ebp]
	movzx	edx, BYTE PTR [ecx+1]
	and	edx, 63					; 0000003fH
	shl	edx, 12					; 0000000cH
	or	edx, DWORD PTR _codepoint$[ebp]
	mov	DWORD PTR _codepoint$[ebp], edx

; 11068: 	    codepoint |= (utf[ix+2] & 0x3f) << 6;

	mov	eax, DWORD PTR _utf$[ebp]
	add	eax, DWORD PTR _ix$[ebp]
	movzx	ecx, BYTE PTR [eax+2]
	and	ecx, 63					; 0000003fH
	shl	ecx, 6
	or	ecx, DWORD PTR _codepoint$[ebp]
	mov	DWORD PTR _codepoint$[ebp], ecx

; 11069: 	    codepoint |= utf[ix+3] & 0x3f;

	mov	edx, DWORD PTR _utf$[ebp]
	add	edx, DWORD PTR _ix$[ebp]
	movzx	eax, BYTE PTR [edx+3]
	and	eax, 63					; 0000003fH
	or	eax, DWORD PTR _codepoint$[ebp]
	mov	DWORD PTR _codepoint$[ebp], eax

; 11070: 	    if (!xmlIsCharQ(codepoint))

	cmp	DWORD PTR _codepoint$[ebp], 256		; 00000100H
	jge	SHORT $LN66@xmlCheckCd
	cmp	DWORD PTR _codepoint$[ebp], 9
	jl	SHORT $LN58@xmlCheckCd
	cmp	DWORD PTR _codepoint$[ebp], 10		; 0000000aH
	jle	SHORT $LN59@xmlCheckCd
$LN58@xmlCheckCd:
	cmp	DWORD PTR _codepoint$[ebp], 13		; 0000000dH
	je	SHORT $LN59@xmlCheckCd
	cmp	DWORD PTR _codepoint$[ebp], 32		; 00000020H
	jge	SHORT $LN59@xmlCheckCd
	mov	DWORD PTR tv278[ebp], 0
	jmp	SHORT $LN65@xmlCheckCd
$LN59@xmlCheckCd:
	mov	DWORD PTR tv278[ebp], 1
$LN65@xmlCheckCd:
	mov	ecx, DWORD PTR tv278[ebp]
	mov	DWORD PTR tv279[ebp], ecx
	jmp	SHORT $LN67@xmlCheckCd
$LN66@xmlCheckCd:
	cmp	DWORD PTR _codepoint$[ebp], 256		; 00000100H
	jl	SHORT $LN60@xmlCheckCd
	cmp	DWORD PTR _codepoint$[ebp], 55295	; 0000d7ffH
	jle	SHORT $LN62@xmlCheckCd
$LN60@xmlCheckCd:
	cmp	DWORD PTR _codepoint$[ebp], 57344	; 0000e000H
	jl	SHORT $LN61@xmlCheckCd
	cmp	DWORD PTR _codepoint$[ebp], 65533	; 0000fffdH
	jle	SHORT $LN62@xmlCheckCd
$LN61@xmlCheckCd:
	cmp	DWORD PTR _codepoint$[ebp], 65536	; 00010000H
	jl	SHORT $LN63@xmlCheckCd
	cmp	DWORD PTR _codepoint$[ebp], 1114111	; 0010ffffH
	jle	SHORT $LN62@xmlCheckCd
$LN63@xmlCheckCd:
	mov	DWORD PTR tv277[ebp], 0
	jmp	SHORT $LN64@xmlCheckCd
$LN62@xmlCheckCd:
	mov	DWORD PTR tv277[ebp], 1
$LN64@xmlCheckCd:
	mov	edx, DWORD PTR tv277[ebp]
	mov	DWORD PTR tv279[ebp], edx
$LN67@xmlCheckCd:
	cmp	DWORD PTR tv279[ebp], 0
	jne	SHORT $LN30@xmlCheckCd

; 11071: 	        return(-ix);

	mov	eax, DWORD PTR _ix$[ebp]
	neg	eax
	jmp	SHORT $LN1@xmlCheckCd
$LN30@xmlCheckCd:

; 11072: 	    ix += 4;

	mov	eax, DWORD PTR _ix$[ebp]
	add	eax, 4
	mov	DWORD PTR _ix$[ebp], eax

; 11073: 	} else				/* unknown encoding */

	jmp	SHORT $LN8@xmlCheckCd
$LN25@xmlCheckCd:

; 11074: 	    return(-ix);

	mov	eax, DWORD PTR _ix$[ebp]
	neg	eax
	jmp	SHORT $LN1@xmlCheckCd
$LN8@xmlCheckCd:

; 11075:       }

	jmp	$LN4@xmlCheckCd
$LN3@xmlCheckCd:

; 11076:       return(ix);

	mov	eax, DWORD PTR _ix$[ebp]
$LN1@xmlCheckCd:

; 11077: }

	pop	edi
	add	esp, 60					; 0000003cH
	cmp	ebp, esp
	call	__RTC_CheckEsp
	mov	esp, ebp
	pop	ebp
	ret	0
_xmlCheckCdataPush ENDP
_TEXT	ENDS
; Function compile flags: /Odtp /RTCsu
; File c:\users\dag\documents\_clients\codeproject authors group\windows on arm\libxml2\libxml2-2.9.9\parser.c
;	COMDAT _xmlParseGetLasts
_TEXT	SEGMENT
_tmp$ = -4						; size = 4
_ctxt$ = 8						; size = 4
_lastlt$ = 12						; size = 4
_lastgt$ = 16						; size = 4
_xmlParseGetLasts PROC					; COMDAT

; 10964:                  const xmlChar **lastgt) {

	push	ebp
	mov	ebp, esp
	push	ecx
	push	esi
	mov	DWORD PTR [ebp-4], -858993460		; ccccccccH
	mov	ecx, OFFSET __B9AC27D5_parser@c
	call	@__CheckForDebuggerJustMyCode@4

; 10965:     const xmlChar *tmp;
; 10966: 
; 10967:     if ((ctxt == NULL) || (lastlt == NULL) || (lastgt == NULL)) {

	cmp	DWORD PTR _ctxt$[ebp], 0
	je	SHORT $LN13@xmlParseGe
	cmp	DWORD PTR _lastlt$[ebp], 0
	je	SHORT $LN13@xmlParseGe
	cmp	DWORD PTR _lastgt$[ebp], 0
	jne	SHORT $LN12@xmlParseGe
$LN13@xmlParseGe:

; 10968: 	xmlGenericError(xmlGenericErrorContext,

	mov	esi, esp
	push	OFFSET ??_C@_0CC@HDEJLGKL@Internal?5error?3?5xmlParseGetLast@
	call	___xmlGenericErrorContext
	mov	eax, DWORD PTR [eax]
	push	eax
	call	___xmlGenericError
	mov	ecx, DWORD PTR [eax]
	call	ecx
	add	esp, 8
	cmp	esi, esp
	call	__RTC_CheckEsp

; 10969: 		    "Internal error: xmlParseGetLasts\n");
; 10970: 	return;

	jmp	$LN1@xmlParseGe
$LN12@xmlParseGe:

; 10971:     }
; 10972:     if ((ctxt->progressive != 0) && (ctxt->inputNr == 1)) {

	mov	edx, DWORD PTR _ctxt$[ebp]
	cmp	DWORD PTR [edx+292], 0
	je	$LN14@xmlParseGe
	mov	eax, DWORD PTR _ctxt$[ebp]
	cmp	DWORD PTR [eax+40], 1
	jne	$LN14@xmlParseGe

; 10973:         tmp = ctxt->input->end;

	mov	ecx, DWORD PTR _ctxt$[ebp]
	mov	edx, DWORD PTR [ecx+36]
	mov	eax, DWORD PTR [edx+20]
	mov	DWORD PTR _tmp$[ebp], eax

; 10974: 	tmp--;

	mov	ecx, DWORD PTR _tmp$[ebp]
	sub	ecx, 1
	mov	DWORD PTR _tmp$[ebp], ecx
$LN2@xmlParseGe:

; 10975: 	while ((tmp >= ctxt->input->base) && (*tmp != '<')) tmp--;

	mov	edx, DWORD PTR _ctxt$[ebp]
	mov	eax, DWORD PTR [edx+36]
	mov	ecx, DWORD PTR _tmp$[ebp]
	cmp	ecx, DWORD PTR [eax+12]
	jb	SHORT $LN3@xmlParseGe
	mov	edx, DWORD PTR _tmp$[ebp]
	movzx	eax, BYTE PTR [edx]
	cmp	eax, 60					; 0000003cH
	je	SHORT $LN3@xmlParseGe
	mov	ecx, DWORD PTR _tmp$[ebp]
	sub	ecx, 1
	mov	DWORD PTR _tmp$[ebp], ecx
	jmp	SHORT $LN2@xmlParseGe
$LN3@xmlParseGe:

; 10976: 	if (tmp < ctxt->input->base) {

	mov	edx, DWORD PTR _ctxt$[ebp]
	mov	eax, DWORD PTR [edx+36]
	mov	ecx, DWORD PTR _tmp$[ebp]
	cmp	ecx, DWORD PTR [eax+12]
	jae	SHORT $LN16@xmlParseGe

; 10977: 	    *lastlt = NULL;

	mov	edx, DWORD PTR _lastlt$[ebp]
	mov	DWORD PTR [edx], 0

; 10978: 	    *lastgt = NULL;

	mov	eax, DWORD PTR _lastgt$[ebp]
	mov	DWORD PTR [eax], 0

; 10979: 	} else {

	jmp	$LN17@xmlParseGe
$LN16@xmlParseGe:

; 10980: 	    *lastlt = tmp;

	mov	ecx, DWORD PTR _lastlt$[ebp]
	mov	edx, DWORD PTR _tmp$[ebp]
	mov	DWORD PTR [ecx], edx

; 10981: 	    tmp++;

	mov	eax, DWORD PTR _tmp$[ebp]
	add	eax, 1
	mov	DWORD PTR _tmp$[ebp], eax
$LN4@xmlParseGe:

; 10982: 	    while ((tmp < ctxt->input->end) && (*tmp != '>')) {

	mov	ecx, DWORD PTR _ctxt$[ebp]
	mov	edx, DWORD PTR [ecx+36]
	mov	eax, DWORD PTR _tmp$[ebp]
	cmp	eax, DWORD PTR [edx+20]
	jae	$LN5@xmlParseGe
	mov	ecx, DWORD PTR _tmp$[ebp]
	movzx	edx, BYTE PTR [ecx]
	cmp	edx, 62					; 0000003eH
	je	$LN5@xmlParseGe

; 10983: 	        if (*tmp == '\'') {

	mov	eax, DWORD PTR _tmp$[ebp]
	movzx	ecx, BYTE PTR [eax]
	cmp	ecx, 39					; 00000027H
	jne	SHORT $LN18@xmlParseGe

; 10984: 		    tmp++;

	mov	edx, DWORD PTR _tmp$[ebp]
	add	edx, 1
	mov	DWORD PTR _tmp$[ebp], edx
$LN6@xmlParseGe:

; 10985: 		    while ((tmp < ctxt->input->end) && (*tmp != '\'')) tmp++;

	mov	eax, DWORD PTR _ctxt$[ebp]
	mov	ecx, DWORD PTR [eax+36]
	mov	edx, DWORD PTR _tmp$[ebp]
	cmp	edx, DWORD PTR [ecx+20]
	jae	SHORT $LN7@xmlParseGe
	mov	eax, DWORD PTR _tmp$[ebp]
	movzx	ecx, BYTE PTR [eax]
	cmp	ecx, 39					; 00000027H
	je	SHORT $LN7@xmlParseGe
	mov	edx, DWORD PTR _tmp$[ebp]
	add	edx, 1
	mov	DWORD PTR _tmp$[ebp], edx
	jmp	SHORT $LN6@xmlParseGe
$LN7@xmlParseGe:

; 10986: 		    if (tmp < ctxt->input->end) tmp++;

	mov	eax, DWORD PTR _ctxt$[ebp]
	mov	ecx, DWORD PTR [eax+36]
	mov	edx, DWORD PTR _tmp$[ebp]
	cmp	edx, DWORD PTR [ecx+20]
	jae	SHORT $LN20@xmlParseGe
	mov	eax, DWORD PTR _tmp$[ebp]
	add	eax, 1
	mov	DWORD PTR _tmp$[ebp], eax
$LN20@xmlParseGe:

; 10987: 		} else if (*tmp == '"') {

	jmp	SHORT $LN19@xmlParseGe
$LN18@xmlParseGe:
	mov	ecx, DWORD PTR _tmp$[ebp]
	movzx	edx, BYTE PTR [ecx]
	cmp	edx, 34					; 00000022H
	jne	SHORT $LN21@xmlParseGe

; 10988: 		    tmp++;

	mov	eax, DWORD PTR _tmp$[ebp]
	add	eax, 1
	mov	DWORD PTR _tmp$[ebp], eax
$LN8@xmlParseGe:

; 10989: 		    while ((tmp < ctxt->input->end) && (*tmp != '"')) tmp++;

	mov	ecx, DWORD PTR _ctxt$[ebp]
	mov	edx, DWORD PTR [ecx+36]
	mov	eax, DWORD PTR _tmp$[ebp]
	cmp	eax, DWORD PTR [edx+20]
	jae	SHORT $LN9@xmlParseGe
	mov	ecx, DWORD PTR _tmp$[ebp]
	movzx	edx, BYTE PTR [ecx]
	cmp	edx, 34					; 00000022H
	je	SHORT $LN9@xmlParseGe
	mov	eax, DWORD PTR _tmp$[ebp]
	add	eax, 1
	mov	DWORD PTR _tmp$[ebp], eax
	jmp	SHORT $LN8@xmlParseGe
$LN9@xmlParseGe:

; 10990: 		    if (tmp < ctxt->input->end) tmp++;

	mov	ecx, DWORD PTR _ctxt$[ebp]
	mov	edx, DWORD PTR [ecx+36]
	mov	eax, DWORD PTR _tmp$[ebp]
	cmp	eax, DWORD PTR [edx+20]
	jae	SHORT $LN23@xmlParseGe
	mov	ecx, DWORD PTR _tmp$[ebp]
	add	ecx, 1
	mov	DWORD PTR _tmp$[ebp], ecx
$LN23@xmlParseGe:

; 10991: 		} else

	jmp	SHORT $LN19@xmlParseGe
$LN21@xmlParseGe:

; 10992: 		    tmp++;

	mov	edx, DWORD PTR _tmp$[ebp]
	add	edx, 1
	mov	DWORD PTR _tmp$[ebp], edx
$LN19@xmlParseGe:

; 10993: 	    }

	jmp	$LN4@xmlParseGe
$LN5@xmlParseGe:

; 10994: 	    if (tmp < ctxt->input->end)

	mov	eax, DWORD PTR _ctxt$[ebp]
	mov	ecx, DWORD PTR [eax+36]
	mov	edx, DWORD PTR _tmp$[ebp]
	cmp	edx, DWORD PTR [ecx+20]
	jae	SHORT $LN24@xmlParseGe

; 10995: 	        *lastgt = tmp;

	mov	eax, DWORD PTR _lastgt$[ebp]
	mov	ecx, DWORD PTR _tmp$[ebp]
	mov	DWORD PTR [eax], ecx
	jmp	SHORT $LN17@xmlParseGe
$LN24@xmlParseGe:

; 10996: 	    else {
; 10997: 	        tmp = *lastlt;

	mov	edx, DWORD PTR _lastlt$[ebp]
	mov	eax, DWORD PTR [edx]
	mov	DWORD PTR _tmp$[ebp], eax

; 10998: 		tmp--;

	mov	ecx, DWORD PTR _tmp$[ebp]
	sub	ecx, 1
	mov	DWORD PTR _tmp$[ebp], ecx
$LN10@xmlParseGe:

; 10999: 		while ((tmp >= ctxt->input->base) && (*tmp != '>')) tmp--;

	mov	edx, DWORD PTR _ctxt$[ebp]
	mov	eax, DWORD PTR [edx+36]
	mov	ecx, DWORD PTR _tmp$[ebp]
	cmp	ecx, DWORD PTR [eax+12]
	jb	SHORT $LN11@xmlParseGe
	mov	edx, DWORD PTR _tmp$[ebp]
	movzx	eax, BYTE PTR [edx]
	cmp	eax, 62					; 0000003eH
	je	SHORT $LN11@xmlParseGe
	mov	ecx, DWORD PTR _tmp$[ebp]
	sub	ecx, 1
	mov	DWORD PTR _tmp$[ebp], ecx
	jmp	SHORT $LN10@xmlParseGe
$LN11@xmlParseGe:

; 11000: 		if (tmp >= ctxt->input->base)

	mov	edx, DWORD PTR _ctxt$[ebp]
	mov	eax, DWORD PTR [edx+36]
	mov	ecx, DWORD PTR _tmp$[ebp]
	cmp	ecx, DWORD PTR [eax+12]
	jb	SHORT $LN26@xmlParseGe

; 11001: 		    *lastgt = tmp;

	mov	edx, DWORD PTR _lastgt$[ebp]
	mov	eax, DWORD PTR _tmp$[ebp]
	mov	DWORD PTR [edx], eax
	jmp	SHORT $LN17@xmlParseGe
$LN26@xmlParseGe:

; 11002: 		else
; 11003: 		    *lastgt = NULL;

	mov	ecx, DWORD PTR _lastgt$[ebp]
	mov	DWORD PTR [ecx], 0
$LN17@xmlParseGe:

; 11004: 	    }
; 11005: 	}
; 11006:     } else {

	jmp	SHORT $LN1@xmlParseGe
$LN14@xmlParseGe:

; 11007:         *lastlt = NULL;

	mov	edx, DWORD PTR _lastlt$[ebp]
	mov	DWORD PTR [edx], 0

; 11008: 	*lastgt = NULL;

	mov	eax, DWORD PTR _lastgt$[ebp]
	mov	DWORD PTR [eax], 0
$LN1@xmlParseGe:

; 11009:     }
; 11010: }

	pop	esi
	add	esp, 4
	cmp	ebp, esp
	call	__RTC_CheckEsp
	mov	esp, ebp
	pop	ebp
	ret	0
_xmlParseGetLasts ENDP
_TEXT	ENDS
; Function compile flags: /Odtp /RTCsu
; File c:\users\dag\documents\_clients\codeproject authors group\windows on arm\libxml2\libxml2-2.9.9\parser.c
;	COMDAT _xmlParseLookupSequence
_TEXT	SEGMENT
_buf$ = -16						; size = 4
_in$ = -12						; size = 4
_len$ = -8						; size = 4
_base$ = -4						; size = 4
_ctxt$ = 8						; size = 4
_first$ = 12						; size = 1
_next$ = 16						; size = 1
_third$ = 20						; size = 1
_xmlParseLookupSequence PROC				; COMDAT

; 10892:                        xmlChar next, xmlChar third) {

	push	ebp
	mov	ebp, esp
	sub	esp, 16					; 00000010H
	mov	eax, -858993460				; ccccccccH
	mov	DWORD PTR [ebp-16], eax
	mov	DWORD PTR [ebp-12], eax
	mov	DWORD PTR [ebp-8], eax
	mov	DWORD PTR [ebp-4], eax
	mov	ecx, OFFSET __B9AC27D5_parser@c
	call	@__CheckForDebuggerJustMyCode@4

; 10893:     int base, len;
; 10894:     xmlParserInputPtr in;
; 10895:     const xmlChar *buf;
; 10896: 
; 10897:     in = ctxt->input;

	mov	eax, DWORD PTR _ctxt$[ebp]
	mov	ecx, DWORD PTR [eax+36]
	mov	DWORD PTR _in$[ebp], ecx

; 10898:     if (in == NULL) return(-1);

	cmp	DWORD PTR _in$[ebp], 0
	jne	SHORT $LN5@xmlParseLo
	or	eax, -1
	jmp	$LN1@xmlParseLo
$LN5@xmlParseLo:

; 10899:     base = in->cur - in->base;

	mov	edx, DWORD PTR _in$[ebp]
	mov	eax, DWORD PTR _in$[ebp]
	mov	ecx, DWORD PTR [edx+16]
	sub	ecx, DWORD PTR [eax+12]
	mov	DWORD PTR _base$[ebp], ecx

; 10900:     if (base < 0) return(-1);

	jns	SHORT $LN6@xmlParseLo
	or	eax, -1
	jmp	$LN1@xmlParseLo
$LN6@xmlParseLo:

; 10901:     if (ctxt->checkIndex > base)

	mov	edx, DWORD PTR _ctxt$[ebp]
	mov	eax, DWORD PTR [edx+204]
	cmp	eax, DWORD PTR _base$[ebp]
	jle	SHORT $LN7@xmlParseLo

; 10902:         base = ctxt->checkIndex;

	mov	ecx, DWORD PTR _ctxt$[ebp]
	mov	edx, DWORD PTR [ecx+204]
	mov	DWORD PTR _base$[ebp], edx
$LN7@xmlParseLo:

; 10903:     if (in->buf == NULL) {

	mov	eax, DWORD PTR _in$[ebp]
	cmp	DWORD PTR [eax], 0
	jne	SHORT $LN8@xmlParseLo

; 10904: 	buf = in->base;

	mov	ecx, DWORD PTR _in$[ebp]
	mov	edx, DWORD PTR [ecx+12]
	mov	DWORD PTR _buf$[ebp], edx

; 10905: 	len = in->length;

	mov	eax, DWORD PTR _in$[ebp]
	mov	ecx, DWORD PTR [eax+24]
	mov	DWORD PTR _len$[ebp], ecx

; 10906:     } else {

	jmp	SHORT $LN9@xmlParseLo
$LN8@xmlParseLo:

; 10907: 	buf = xmlBufContent(in->buf->buffer);

	mov	edx, DWORD PTR _in$[ebp]
	mov	eax, DWORD PTR [edx]
	mov	ecx, DWORD PTR [eax+16]
	push	ecx
	call	_xmlBufContent
	add	esp, 4
	mov	DWORD PTR _buf$[ebp], eax

; 10908: 	len = xmlBufUse(in->buf->buffer);

	mov	edx, DWORD PTR _in$[ebp]
	mov	eax, DWORD PTR [edx]
	mov	ecx, DWORD PTR [eax+16]
	push	ecx
	call	_xmlBufUse
	add	esp, 4
	mov	DWORD PTR _len$[ebp], eax
$LN9@xmlParseLo:

; 10909:     }
; 10910:     /* take into account the sequence length */
; 10911:     if (third) len -= 2;

	movzx	edx, BYTE PTR _third$[ebp]
	test	edx, edx
	je	SHORT $LN10@xmlParseLo
	mov	eax, DWORD PTR _len$[ebp]
	sub	eax, 2
	mov	DWORD PTR _len$[ebp], eax
	jmp	SHORT $LN11@xmlParseLo
$LN10@xmlParseLo:

; 10912:     else if (next) len --;

	movzx	ecx, BYTE PTR _next$[ebp]
	test	ecx, ecx
	je	SHORT $LN11@xmlParseLo
	mov	edx, DWORD PTR _len$[ebp]
	sub	edx, 1
	mov	DWORD PTR _len$[ebp], edx
$LN11@xmlParseLo:

; 10913:     for (;base < len;base++) {

	jmp	SHORT $LN4@xmlParseLo
$LN2@xmlParseLo:
	mov	eax, DWORD PTR _base$[ebp]
	add	eax, 1
	mov	DWORD PTR _base$[ebp], eax
$LN4@xmlParseLo:
	mov	ecx, DWORD PTR _base$[ebp]
	cmp	ecx, DWORD PTR _len$[ebp]
	jge	$LN3@xmlParseLo

; 10914:         if (buf[base] == first) {

	mov	edx, DWORD PTR _buf$[ebp]
	add	edx, DWORD PTR _base$[ebp]
	movzx	eax, BYTE PTR [edx]
	movzx	ecx, BYTE PTR _first$[ebp]
	cmp	eax, ecx
	jne	SHORT $LN13@xmlParseLo

; 10915: 	    if (third != 0) {

	movzx	edx, BYTE PTR _third$[ebp]
	test	edx, edx
	je	SHORT $LN14@xmlParseLo

; 10916: 		if ((buf[base + 1] != next) ||

	mov	eax, DWORD PTR _buf$[ebp]
	add	eax, DWORD PTR _base$[ebp]
	movzx	ecx, BYTE PTR [eax+1]
	movzx	edx, BYTE PTR _next$[ebp]
	cmp	ecx, edx
	jne	SHORT $LN17@xmlParseLo
	mov	eax, DWORD PTR _buf$[ebp]
	add	eax, DWORD PTR _base$[ebp]
	movzx	ecx, BYTE PTR [eax+2]
	movzx	edx, BYTE PTR _third$[ebp]
	cmp	ecx, edx
	je	SHORT $LN16@xmlParseLo
$LN17@xmlParseLo:

; 10917: 		    (buf[base + 2] != third)) continue;

	jmp	SHORT $LN2@xmlParseLo
$LN16@xmlParseLo:

; 10918: 	    } else if (next != 0) {

	jmp	SHORT $LN15@xmlParseLo
$LN14@xmlParseLo:
	movzx	eax, BYTE PTR _next$[ebp]
	test	eax, eax
	je	SHORT $LN15@xmlParseLo

; 10919: 		if (buf[base + 1] != next) continue;

	mov	ecx, DWORD PTR _buf$[ebp]
	add	ecx, DWORD PTR _base$[ebp]
	movzx	edx, BYTE PTR [ecx+1]
	movzx	eax, BYTE PTR _next$[ebp]
	cmp	edx, eax
	je	SHORT $LN15@xmlParseLo
	jmp	SHORT $LN2@xmlParseLo
$LN15@xmlParseLo:

; 10920: 	    }
; 10921: 	    ctxt->checkIndex = 0;

	mov	ecx, DWORD PTR _ctxt$[ebp]
	mov	DWORD PTR [ecx+204], 0

; 10922: #ifdef DEBUG_PUSH
; 10923: 	    if (next == 0)
; 10924: 		xmlGenericError(xmlGenericErrorContext,
; 10925: 			"PP: lookup '%c' found at %d\n",
; 10926: 			first, base);
; 10927: 	    else if (third == 0)
; 10928: 		xmlGenericError(xmlGenericErrorContext,
; 10929: 			"PP: lookup '%c%c' found at %d\n",
; 10930: 			first, next, base);
; 10931: 	    else
; 10932: 		xmlGenericError(xmlGenericErrorContext,
; 10933: 			"PP: lookup '%c%c%c' found at %d\n",
; 10934: 			first, next, third, base);
; 10935: #endif
; 10936: 	    return(base - (in->cur - in->base));

	mov	edx, DWORD PTR _in$[ebp]
	mov	eax, DWORD PTR _in$[ebp]
	mov	ecx, DWORD PTR [edx+16]
	sub	ecx, DWORD PTR [eax+12]
	mov	eax, DWORD PTR _base$[ebp]
	sub	eax, ecx
	jmp	SHORT $LN1@xmlParseLo
$LN13@xmlParseLo:

; 10937: 	}
; 10938:     }

	jmp	$LN2@xmlParseLo
$LN3@xmlParseLo:

; 10939:     ctxt->checkIndex = base;

	mov	edx, DWORD PTR _ctxt$[ebp]
	mov	eax, DWORD PTR _base$[ebp]
	mov	DWORD PTR [edx+204], eax

; 10940: #ifdef DEBUG_PUSH
; 10941:     if (next == 0)
; 10942: 	xmlGenericError(xmlGenericErrorContext,
; 10943: 		"PP: lookup '%c' failed\n", first);
; 10944:     else if (third == 0)
; 10945: 	xmlGenericError(xmlGenericErrorContext,
; 10946: 		"PP: lookup '%c%c' failed\n", first, next);
; 10947:     else
; 10948: 	xmlGenericError(xmlGenericErrorContext,
; 10949: 		"PP: lookup '%c%c%c' failed\n", first, next, third);
; 10950: #endif
; 10951:     return(-1);

	or	eax, -1
$LN1@xmlParseLo:

; 10952: }

	add	esp, 16					; 00000010H
	cmp	ebp, esp
	call	__RTC_CheckEsp
	mov	esp, ebp
	pop	ebp
	ret	0
_xmlParseLookupSequence ENDP
_TEXT	ENDS
; Function compile flags: /Odtp /RTCsu
; File c:\users\dag\documents\_clients\codeproject authors group\windows on arm\libxml2\libxml2-2.9.9\parser.c
;	COMDAT _xmlParseEndTag2
_TEXT	SEGMENT
_curLength$ = -8					; size = 4
_name$ = -4						; size = 4
_ctxt$ = 8						; size = 4
_prefix$ = 12						; size = 4
_URI$ = 16						; size = 4
_line$ = 20						; size = 4
_nsNr$ = 24						; size = 4
_tlen$ = 28						; size = 4
_xmlParseEndTag2 PROC					; COMDAT

; 9619 :                 const xmlChar *URI, int line, int nsNr, int tlen) {

	push	ebp
	mov	ebp, esp
	sub	esp, 8
	push	esi
	mov	DWORD PTR [ebp-8], -858993460		; ccccccccH
	mov	DWORD PTR [ebp-4], -858993460		; ccccccccH
	mov	ecx, OFFSET __B9AC27D5_parser@c
	call	@__CheckForDebuggerJustMyCode@4

; 9620 :     const xmlChar *name;
; 9621 :     size_t curLength;
; 9622 : 
; 9623 :     GROW;

	mov	eax, DWORD PTR _ctxt$[ebp]
	cmp	DWORD PTR [eax+292], 0
	jne	SHORT $LN5@xmlParseEn
	mov	ecx, DWORD PTR _ctxt$[ebp]
	mov	edx, DWORD PTR [ecx+36]
	mov	eax, DWORD PTR _ctxt$[ebp]
	mov	ecx, DWORD PTR [eax+36]
	mov	edx, DWORD PTR [edx+20]
	sub	edx, DWORD PTR [ecx+16]
	cmp	edx, 250				; 000000faH
	jge	SHORT $LN5@xmlParseEn
	mov	eax, DWORD PTR _ctxt$[ebp]
	push	eax
	call	_xmlGROW
	add	esp, 4
$LN5@xmlParseEn:

; 9624 :     if ((RAW != '<') || (NXT(1) != '/')) {

	mov	ecx, DWORD PTR _ctxt$[ebp]
	mov	edx, DWORD PTR [ecx+36]
	mov	eax, DWORD PTR [edx+16]
	movzx	ecx, BYTE PTR [eax]
	cmp	ecx, 60					; 0000003cH
	jne	SHORT $LN7@xmlParseEn
	mov	edx, DWORD PTR _ctxt$[ebp]
	mov	eax, DWORD PTR [edx+36]
	mov	ecx, 1
	shl	ecx, 0
	mov	edx, DWORD PTR [eax+16]
	movzx	eax, BYTE PTR [edx+ecx]
	cmp	eax, 47					; 0000002fH
	je	SHORT $LN4@xmlParseEn
$LN7@xmlParseEn:

; 9625 : 	xmlFatalErr(ctxt, XML_ERR_LTSLASH_REQUIRED, NULL);

	push	0
	push	74					; 0000004aH
	mov	ecx, DWORD PTR _ctxt$[ebp]
	push	ecx
	call	_xmlFatalErr
	add	esp, 12					; 0000000cH

; 9626 : 	return;

	jmp	$LN1@xmlParseEn
$LN4@xmlParseEn:

; 9627 :     }
; 9628 :     SKIP(2);

	mov	edx, DWORD PTR _ctxt$[ebp]
	mov	eax, DWORD PTR [edx+200]
	add	eax, 2
	mov	ecx, DWORD PTR _ctxt$[ebp]
	mov	DWORD PTR [ecx+200], eax
	mov	edx, DWORD PTR _ctxt$[ebp]
	mov	eax, DWORD PTR [edx+36]
	mov	ecx, DWORD PTR [eax+16]
	add	ecx, 2
	mov	edx, DWORD PTR _ctxt$[ebp]
	mov	eax, DWORD PTR [edx+36]
	mov	DWORD PTR [eax+16], ecx
	mov	ecx, DWORD PTR _ctxt$[ebp]
	mov	edx, DWORD PTR [ecx+36]
	mov	eax, DWORD PTR [edx+32]
	add	eax, 2
	mov	ecx, DWORD PTR _ctxt$[ebp]
	mov	edx, DWORD PTR [ecx+36]
	mov	DWORD PTR [edx+32], eax
	mov	eax, DWORD PTR _ctxt$[ebp]
	mov	ecx, DWORD PTR [eax+36]
	mov	edx, DWORD PTR [ecx+16]
	movzx	eax, BYTE PTR [edx]
	test	eax, eax
	jne	SHORT $LN2@xmlParseEn
	push	250					; 000000faH
	mov	ecx, DWORD PTR _ctxt$[ebp]
	mov	edx, DWORD PTR [ecx+36]
	push	edx
	call	_xmlParserInputGrow
	add	esp, 8
$LN2@xmlParseEn:
	xor	eax, eax
	jne	SHORT $LN4@xmlParseEn

; 9629 : 
; 9630 :     curLength = ctxt->input->end - ctxt->input->cur;

	mov	ecx, DWORD PTR _ctxt$[ebp]
	mov	edx, DWORD PTR [ecx+36]
	mov	eax, DWORD PTR _ctxt$[ebp]
	mov	ecx, DWORD PTR [eax+36]
	mov	edx, DWORD PTR [edx+20]
	sub	edx, DWORD PTR [ecx+16]
	mov	DWORD PTR _curLength$[ebp], edx

; 9631 :     if ((tlen > 0) && (curLength >= (size_t)tlen) &&

	cmp	DWORD PTR _tlen$[ebp], 0
	jle	$LN9@xmlParseEn
	mov	eax, DWORD PTR _curLength$[ebp]
	cmp	eax, DWORD PTR _tlen$[ebp]
	jb	$LN9@xmlParseEn
	mov	ecx, DWORD PTR _tlen$[ebp]
	push	ecx
	mov	edx, DWORD PTR _ctxt$[ebp]
	mov	eax, DWORD PTR [edx+184]
	push	eax
	mov	ecx, DWORD PTR _ctxt$[ebp]
	mov	edx, DWORD PTR [ecx+36]
	mov	eax, DWORD PTR [edx+16]
	push	eax
	call	_xmlStrncmp
	add	esp, 12					; 0000000cH
	test	eax, eax
	jne	$LN9@xmlParseEn

; 9632 :         (xmlStrncmp(ctxt->input->cur, ctxt->name, tlen) == 0)) {
; 9633 :         if ((curLength >= (size_t)(tlen + 1)) &&

	mov	ecx, DWORD PTR _tlen$[ebp]
	add	ecx, 1
	cmp	DWORD PTR _curLength$[ebp], ecx
	jb	SHORT $LN11@xmlParseEn
	mov	edx, DWORD PTR _ctxt$[ebp]
	mov	eax, DWORD PTR [edx+36]
	mov	ecx, DWORD PTR [eax+16]
	mov	edx, DWORD PTR _tlen$[ebp]
	movzx	eax, BYTE PTR [ecx+edx]
	cmp	eax, 62					; 0000003eH
	jne	SHORT $LN11@xmlParseEn

; 9634 : 	    (ctxt->input->cur[tlen] == '>')) {
; 9635 : 	    ctxt->input->cur += tlen + 1;

	mov	ecx, DWORD PTR _ctxt$[ebp]
	mov	edx, DWORD PTR [ecx+36]
	mov	eax, DWORD PTR [edx+16]
	mov	ecx, DWORD PTR _tlen$[ebp]
	lea	edx, DWORD PTR [ecx+eax+1]
	mov	eax, DWORD PTR _ctxt$[ebp]
	mov	ecx, DWORD PTR [eax+36]
	mov	DWORD PTR [ecx+16], edx

; 9636 : 	    ctxt->input->col += tlen + 1;

	mov	edx, DWORD PTR _ctxt$[ebp]
	mov	eax, DWORD PTR [edx+36]
	mov	ecx, DWORD PTR [eax+32]
	mov	edx, DWORD PTR _tlen$[ebp]
	lea	eax, DWORD PTR [edx+ecx+1]
	mov	ecx, DWORD PTR _ctxt$[ebp]
	mov	edx, DWORD PTR [ecx+36]
	mov	DWORD PTR [edx+32], eax

; 9637 : 	    goto done;

	jmp	$done$28
$LN11@xmlParseEn:

; 9638 : 	}
; 9639 : 	ctxt->input->cur += tlen;

	mov	eax, DWORD PTR _ctxt$[ebp]
	mov	ecx, DWORD PTR [eax+36]
	mov	edx, DWORD PTR [ecx+16]
	add	edx, DWORD PTR _tlen$[ebp]
	mov	eax, DWORD PTR _ctxt$[ebp]
	mov	ecx, DWORD PTR [eax+36]
	mov	DWORD PTR [ecx+16], edx

; 9640 : 	ctxt->input->col += tlen;

	mov	edx, DWORD PTR _ctxt$[ebp]
	mov	eax, DWORD PTR [edx+36]
	mov	ecx, DWORD PTR [eax+32]
	add	ecx, DWORD PTR _tlen$[ebp]
	mov	edx, DWORD PTR _ctxt$[ebp]
	mov	eax, DWORD PTR [edx+36]
	mov	DWORD PTR [eax+32], ecx

; 9641 : 	name = (xmlChar*)1;

	mov	DWORD PTR _name$[ebp], 1

; 9642 :     } else {

	jmp	SHORT $LN10@xmlParseEn
$LN9@xmlParseEn:

; 9643 : 	if (prefix == NULL)

	cmp	DWORD PTR _prefix$[ebp], 0
	jne	SHORT $LN12@xmlParseEn

; 9644 : 	    name = xmlParseNameAndCompare(ctxt, ctxt->name);

	mov	ecx, DWORD PTR _ctxt$[ebp]
	mov	edx, DWORD PTR [ecx+184]
	push	edx
	mov	eax, DWORD PTR _ctxt$[ebp]
	push	eax
	call	_xmlParseNameAndCompare
	add	esp, 8
	mov	DWORD PTR _name$[ebp], eax
	jmp	SHORT $LN10@xmlParseEn
$LN12@xmlParseEn:

; 9645 : 	else
; 9646 : 	    name = xmlParseQNameAndCompare(ctxt, ctxt->name, prefix);

	mov	ecx, DWORD PTR _prefix$[ebp]
	push	ecx
	mov	edx, DWORD PTR _ctxt$[ebp]
	mov	eax, DWORD PTR [edx+184]
	push	eax
	mov	ecx, DWORD PTR _ctxt$[ebp]
	push	ecx
	call	_xmlParseQNameAndCompare
	add	esp, 12					; 0000000cH
	mov	DWORD PTR _name$[ebp], eax
$LN10@xmlParseEn:

; 9647 :     }
; 9648 : 
; 9649 :     /*
; 9650 :      * We should definitely be at the ending "S? '>'" part
; 9651 :      */
; 9652 :     GROW;

	mov	edx, DWORD PTR _ctxt$[ebp]
	cmp	DWORD PTR [edx+292], 0
	jne	SHORT $LN14@xmlParseEn
	mov	eax, DWORD PTR _ctxt$[ebp]
	mov	ecx, DWORD PTR [eax+36]
	mov	edx, DWORD PTR _ctxt$[ebp]
	mov	eax, DWORD PTR [edx+36]
	mov	ecx, DWORD PTR [ecx+20]
	sub	ecx, DWORD PTR [eax+16]
	cmp	ecx, 250				; 000000faH
	jge	SHORT $LN14@xmlParseEn
	mov	edx, DWORD PTR _ctxt$[ebp]
	push	edx
	call	_xmlGROW
	add	esp, 4
$LN14@xmlParseEn:

; 9653 :     if (ctxt->instate == XML_PARSER_EOF)

	mov	eax, DWORD PTR _ctxt$[ebp]
	cmp	DWORD PTR [eax+172], -1
	jne	SHORT $LN15@xmlParseEn

; 9654 :         return;

	jmp	$LN1@xmlParseEn
$LN15@xmlParseEn:

; 9655 :     SKIP_BLANKS;

	mov	ecx, DWORD PTR _ctxt$[ebp]
	push	ecx
	call	_xmlSkipBlankChars
	add	esp, 4

; 9656 :     if ((!IS_BYTE_CHAR(RAW)) || (RAW != '>')) {

	mov	edx, DWORD PTR _ctxt$[ebp]
	mov	eax, DWORD PTR [edx+36]
	mov	ecx, DWORD PTR [eax+16]
	movzx	edx, BYTE PTR [ecx]
	cmp	edx, 9
	jl	SHORT $LN20@xmlParseEn
	mov	eax, DWORD PTR _ctxt$[ebp]
	mov	ecx, DWORD PTR [eax+36]
	mov	edx, DWORD PTR [ecx+16]
	movzx	eax, BYTE PTR [edx]
	cmp	eax, 10					; 0000000aH
	jle	SHORT $LN19@xmlParseEn
$LN20@xmlParseEn:
	mov	ecx, DWORD PTR _ctxt$[ebp]
	mov	edx, DWORD PTR [ecx+36]
	mov	eax, DWORD PTR [edx+16]
	movzx	ecx, BYTE PTR [eax]
	cmp	ecx, 13					; 0000000dH
	je	SHORT $LN19@xmlParseEn
	mov	edx, DWORD PTR _ctxt$[ebp]
	mov	eax, DWORD PTR [edx+36]
	mov	ecx, DWORD PTR [eax+16]
	movzx	edx, BYTE PTR [ecx]
	cmp	edx, 32					; 00000020H
	jl	SHORT $LN18@xmlParseEn
$LN19@xmlParseEn:
	mov	eax, DWORD PTR _ctxt$[ebp]
	mov	ecx, DWORD PTR [eax+36]
	mov	edx, DWORD PTR [ecx+16]
	movzx	eax, BYTE PTR [edx]
	cmp	eax, 62					; 0000003eH
	je	SHORT $LN16@xmlParseEn
$LN18@xmlParseEn:

; 9657 : 	xmlFatalErr(ctxt, XML_ERR_GT_REQUIRED, NULL);

	push	0
	push	73					; 00000049H
	mov	ecx, DWORD PTR _ctxt$[ebp]
	push	ecx
	call	_xmlFatalErr
	add	esp, 12					; 0000000cH

; 9658 :     } else

	jmp	SHORT $LN17@xmlParseEn
$LN16@xmlParseEn:

; 9659 : 	NEXT1;

	mov	edx, DWORD PTR _ctxt$[ebp]
	mov	eax, DWORD PTR [edx+36]
	mov	ecx, DWORD PTR [eax+32]
	add	ecx, 1
	mov	edx, DWORD PTR _ctxt$[ebp]
	mov	eax, DWORD PTR [edx+36]
	mov	DWORD PTR [eax+32], ecx
	mov	ecx, DWORD PTR _ctxt$[ebp]
	mov	edx, DWORD PTR [ecx+36]
	mov	eax, DWORD PTR [edx+16]
	add	eax, 1
	mov	ecx, DWORD PTR _ctxt$[ebp]
	mov	edx, DWORD PTR [ecx+36]
	mov	DWORD PTR [edx+16], eax
	mov	eax, DWORD PTR _ctxt$[ebp]
	mov	ecx, DWORD PTR [eax+200]
	add	ecx, 1
	mov	edx, DWORD PTR _ctxt$[ebp]
	mov	DWORD PTR [edx+200], ecx
	mov	eax, DWORD PTR _ctxt$[ebp]
	mov	ecx, DWORD PTR [eax+36]
	mov	edx, DWORD PTR [ecx+16]
	movzx	eax, BYTE PTR [edx]
	test	eax, eax
	jne	SHORT $LN17@xmlParseEn
	push	250					; 000000faH
	mov	ecx, DWORD PTR _ctxt$[ebp]
	mov	edx, DWORD PTR [ecx+36]
	push	edx
	call	_xmlParserInputGrow
	add	esp, 8
$LN17@xmlParseEn:

; 9660 : 
; 9661 :     /*
; 9662 :      * [ WFC: Element Type Match ]
; 9663 :      * The Name in an element's end-tag must match the element type in the
; 9664 :      * start-tag.
; 9665 :      *
; 9666 :      */
; 9667 :     if (name != (xmlChar*)1) {

	cmp	DWORD PTR _name$[ebp], 1
	je	SHORT $done$28

; 9668 :         if (name == NULL) name = BAD_CAST "unparseable";

	cmp	DWORD PTR _name$[ebp], 0
	jne	SHORT $LN23@xmlParseEn
	mov	DWORD PTR _name$[ebp], OFFSET ??_C@_0M@IAMGGMFE@unparseable@
$LN23@xmlParseEn:

; 9669 :         if ((line == 0) && (ctxt->node != NULL))

	cmp	DWORD PTR _line$[ebp], 0
	jne	SHORT $LN24@xmlParseEn
	mov	eax, DWORD PTR _ctxt$[ebp]
	cmp	DWORD PTR [eax+52], 0
	je	SHORT $LN24@xmlParseEn

; 9670 :             line = ctxt->node->line;

	mov	ecx, DWORD PTR _ctxt$[ebp]
	mov	edx, DWORD PTR [ecx+52]
	movzx	eax, WORD PTR [edx+56]
	mov	DWORD PTR _line$[ebp], eax
$LN24@xmlParseEn:

; 9671 :         xmlFatalErrMsgStrIntStr(ctxt, XML_ERR_TAG_NAME_MISMATCH,

	mov	ecx, DWORD PTR _name$[ebp]
	push	ecx
	mov	edx, DWORD PTR _line$[ebp]
	push	edx
	mov	eax, DWORD PTR _ctxt$[ebp]
	mov	ecx, DWORD PTR [eax+184]
	push	ecx
	push	OFFSET ??_C@_0DE@OCMDIBAP@Opening?5and?5ending?5tag?5mismatch@
	push	76					; 0000004cH
	mov	edx, DWORD PTR _ctxt$[ebp]
	push	edx
	call	_xmlFatalErrMsgStrIntStr
	add	esp, 24					; 00000018H
$done$28:

; 9672 : 		     "Opening and ending tag mismatch: %s line %d and %s\n",
; 9673 : 		                ctxt->name, line, name);
; 9674 :     }
; 9675 : 
; 9676 :     /*
; 9677 :      * SAX: End of Tag
; 9678 :      */
; 9679 : done:
; 9680 :     if ((ctxt->sax != NULL) && (ctxt->sax->endElementNs != NULL) &&

	mov	eax, DWORD PTR _ctxt$[ebp]
	cmp	DWORD PTR [eax], 0
	je	SHORT $LN25@xmlParseEn
	mov	ecx, DWORD PTR _ctxt$[ebp]
	mov	edx, DWORD PTR [ecx]
	cmp	DWORD PTR [edx+120], 0
	je	SHORT $LN25@xmlParseEn
	mov	eax, DWORD PTR _ctxt$[ebp]
	cmp	DWORD PTR [eax+212], 0
	jne	SHORT $LN25@xmlParseEn

; 9681 : 	(!ctxt->disableSAX))
; 9682 : 	ctxt->sax->endElementNs(ctxt->userData, ctxt->name, prefix, URI);

	mov	esi, esp
	mov	ecx, DWORD PTR _URI$[ebp]
	push	ecx
	mov	edx, DWORD PTR _prefix$[ebp]
	push	edx
	mov	eax, DWORD PTR _ctxt$[ebp]
	mov	ecx, DWORD PTR [eax+184]
	push	ecx
	mov	edx, DWORD PTR _ctxt$[ebp]
	mov	eax, DWORD PTR [edx+4]
	push	eax
	mov	ecx, DWORD PTR _ctxt$[ebp]
	mov	edx, DWORD PTR [ecx]
	mov	eax, DWORD PTR [edx+120]
	call	eax
	add	esp, 16					; 00000010H
	cmp	esi, esp
	call	__RTC_CheckEsp
$LN25@xmlParseEn:

; 9683 : 
; 9684 :     spacePop(ctxt);

	mov	ecx, DWORD PTR _ctxt$[ebp]
	push	ecx
	call	_spacePop
	add	esp, 4

; 9685 :     if (nsNr != 0)

	cmp	DWORD PTR _nsNr$[ebp], 0
	je	SHORT $LN1@xmlParseEn

; 9686 : 	nsPop(ctxt, nsNr);

	mov	edx, DWORD PTR _nsNr$[ebp]
	push	edx
	mov	eax, DWORD PTR _ctxt$[ebp]
	push	eax
	call	_nsPop
	add	esp, 8
$LN1@xmlParseEn:

; 9687 :     return;
; 9688 : }

	pop	esi
	add	esp, 8
	cmp	ebp, esp
	call	__RTC_CheckEsp
	mov	esp, ebp
	pop	ebp
	ret	0
_xmlParseEndTag2 ENDP
_TEXT	ENDS
; Function compile flags: /Odtp /RTCsu
; File c:\users\dag\documents\_clients\codeproject authors group\windows on arm\libxml2\libxml2-2.9.9\parser.c
;	COMDAT _xmlParseStartTag2
_TEXT	SEGMENT
_defaults$1 = -152					; size = 4
_offset$2 = -148					; size = 4
_uri$3 = -144						; size = 4
_URL$4 = -140						; size = 4
_uri$5 = -136						; size = 4
_URL$6 = -132						; size = 4
_alloc$7 = -124						; size = 4
_len$8 = -112						; size = 4
_cons$9 = -104						; size = 4
_q$10 = -100						; size = 4
_nsNr$ = -96						; size = 4
_cur$ = -92						; size = 4
_attval$ = -88						; size = 4
_nbNs$ = -84						; size = 4
_j$ = -80						; size = 4
_i$ = -76						; size = 4
_inputid$ = -72						; size = 4
_nbdef$ = -68						; size = 4
_nbatts$ = -64						; size = 4
_nratts$ = -60						; size = 4
_maxatts$ = -56						; size = 4
_atts$ = -52						; size = 4
