; Listing generated by Microsoft (R) Optimizing Compiler Version 19.16.27027.1 

	TITLE	C:\Users\DAG\Documents\_Clients\CodeProject Authors Group\Windows on ARM\libxml2\libxml2-2.9.9\tree.c
	.686P
	.XMM
	include listing.inc
	.model	flat

INCLUDELIB MSVCRTD
INCLUDELIB OLDNAMES

PUBLIC	___xmlRegisterCallbacks
PUBLIC	_xmlStringText
PUBLIC	_xmlStringTextNoenc
PUBLIC	_xmlStringComment
_BSS	SEGMENT
___xmlRegisterCallbacks DD 01H DUP (?)
_BSS	ENDS
_DATA	SEGMENT
COMM	_xmlMalloc:DWORD
COMM	_xmlMallocAtomic:DWORD
COMM	_xmlRealloc:DWORD
COMM	_xmlFree:DWORD
COMM	_xmlMemStrdup:DWORD
COMM	_xmlIsBaseCharGroup:BYTE:010H
COMM	_xmlIsCharGroup:BYTE:010H
COMM	_xmlIsCombiningGroup:BYTE:010H
COMM	_xmlIsDigitGroup:BYTE:010H
COMM	_xmlIsExtenderGroup:BYTE:010H
COMM	_xmlIsIdeographicGroup:BYTE:010H
COMM	_xmlIsPubidChar_tab:BYTE:0100H
COMM	_xmlParserMaxDepth:DWORD
COMM	_xmlXPathNAN:QWORD
COMM	_xmlXPathPINF:QWORD
COMM	_xmlXPathNINF:QWORD
COMM	_forbiddenExp:DWORD
COMM	_emptyExp:DWORD
_DATA	ENDS
CONST	SEGMENT
_xmlStringText DB 074H
	DB	065H
	DB	078H
	DB	074H
	DB	00H
	ORG $+3
_xmlStringTextNoenc DB 074H
	DB	065H
	DB	078H
	DB	074H
	DB	06eH
	DB	06fH
	DB	065H
	DB	06eH
	DB	063H
	DB	00H
	ORG $+2
_xmlStringComment DB 063H
	DB	06fH
	DB	06dH
	DB	06dH
	DB	065H
	DB	06eH
	DB	074H
	DB	00H
CONST	ENDS
msvcjmc	SEGMENT
__188180DA_corecrt_math@h DB 01H
__2CC6E67D_corecrt_stdio_config@h DB 01H
__05476D76_corecrt_wstdio@h DB 01H
__A452D4A0_stdio@h DB 01H
__4384A2D9_corecrt_memcpy_s@h DB 01H
__4E51A221_corecrt_wstring@h DB 01H
__2140C079_string@h DB 01H
__7B7A869E_ctype@h DB 01H
__457DD326_basetsd@h DB 01H
__1887E595_winnt@h DB 01H
__9FC7C64B_processthreadsapi@h DB 01H
__FA470AEC_memoryapi@h DB 01H
__F37DAFF1_winerror@h DB 01H
__7A450CCC_winbase@h DB 01H
__B4B40122_winioctl@h DB 01H
__86261D59_stralign@h DB 01H
__59973643_tree@c DB 01H
msvcjmc	ENDS
PUBLIC	___local_stdio_printf_options
PUBLIC	_snprintf
PUBLIC	_xmlValidateNCName
PUBLIC	_xmlValidateQName
PUBLIC	_xmlValidateName
PUBLIC	_xmlValidateNMToken
PUBLIC	_xmlBuildQName
PUBLIC	_xmlSplitQName2
PUBLIC	_xmlSplitQName3
PUBLIC	_xmlSetBufferAllocationScheme
PUBLIC	_xmlGetBufferAllocationScheme
PUBLIC	_xmlBufferCreate
PUBLIC	_xmlBufferCreateSize
PUBLIC	_xmlBufferCreateStatic
PUBLIC	_xmlBufferResize
PUBLIC	_xmlBufferFree
PUBLIC	_xmlBufferDump
PUBLIC	_xmlBufferAdd
PUBLIC	_xmlBufferAddHead
PUBLIC	_xmlBufferCat
PUBLIC	_xmlBufferCCat
PUBLIC	_xmlBufferShrink
PUBLIC	_xmlBufferGrow
PUBLIC	_xmlBufferEmpty
PUBLIC	_xmlBufferContent
PUBLIC	_xmlBufferDetach
PUBLIC	_xmlBufferSetAllocationScheme
PUBLIC	_xmlBufferLength
PUBLIC	_xmlCreateIntSubset
PUBLIC	_xmlNewDtd
PUBLIC	_xmlGetIntSubset
PUBLIC	_xmlFreeDtd
PUBLIC	_xmlNewNs
PUBLIC	_xmlFreeNs
PUBLIC	_xmlFreeNsList
PUBLIC	_xmlNewDoc
PUBLIC	_xmlFreeDoc
PUBLIC	_xmlNewDocProp
PUBLIC	_xmlNewProp
PUBLIC	_xmlNewNsProp
PUBLIC	_xmlNewNsPropEatName
PUBLIC	_xmlFreePropList
PUBLIC	_xmlFreeProp
PUBLIC	_xmlCopyProp
PUBLIC	_xmlCopyPropList
PUBLIC	_xmlCopyDtd
PUBLIC	_xmlCopyDoc
PUBLIC	_xmlNewDocNode
PUBLIC	_xmlNewDocNodeEatName
PUBLIC	_xmlNewNode
PUBLIC	_xmlNewNodeEatName
PUBLIC	_xmlNewChild
PUBLIC	_xmlNewDocText
PUBLIC	_xmlNewText
PUBLIC	_xmlNewDocPI
PUBLIC	_xmlNewPI
PUBLIC	_xmlNewDocTextLen
PUBLIC	_xmlNewTextLen
PUBLIC	_xmlNewDocComment
PUBLIC	_xmlNewComment
PUBLIC	_xmlNewCDataBlock
PUBLIC	_xmlNewCharRef
PUBLIC	_xmlNewReference
PUBLIC	_xmlCopyNode
PUBLIC	_xmlDocCopyNode
PUBLIC	_xmlDocCopyNodeList
PUBLIC	_xmlCopyNodeList
PUBLIC	_xmlNewTextChild
PUBLIC	_xmlNewDocRawNode
PUBLIC	_xmlNewDocFragment
PUBLIC	_xmlGetLineNo
PUBLIC	_xmlGetNodePath
PUBLIC	_xmlDocGetRootElement
PUBLIC	_xmlGetLastChild
PUBLIC	_xmlNodeIsText
PUBLIC	_xmlIsBlankNode
PUBLIC	_xmlDocSetRootElement
PUBLIC	_xmlNodeSetName
PUBLIC	_xmlAddChild
PUBLIC	_xmlAddChildList
PUBLIC	_xmlReplaceNode
PUBLIC	_xmlAddPrevSibling
PUBLIC	_xmlAddSibling
PUBLIC	_xmlAddNextSibling
PUBLIC	_xmlUnlinkNode
PUBLIC	_xmlTextMerge
PUBLIC	_xmlTextConcat
PUBLIC	_xmlFreeNodeList
PUBLIC	_xmlFreeNode
PUBLIC	_xmlSetTreeDoc
PUBLIC	_xmlSetListDoc
PUBLIC	_xmlSearchNs
PUBLIC	_xmlSearchNsByHref
PUBLIC	_xmlGetNsList
PUBLIC	_xmlSetNs
PUBLIC	_xmlCopyNamespace
PUBLIC	_xmlCopyNamespaceList
PUBLIC	_xmlSetProp
PUBLIC	_xmlSetNsProp
PUBLIC	_xmlGetNoNsProp
PUBLIC	_xmlGetProp
PUBLIC	_xmlHasProp
PUBLIC	_xmlHasNsProp
PUBLIC	_xmlGetNsProp
PUBLIC	_xmlStringGetNodeList
PUBLIC	_xmlStringLenGetNodeList
PUBLIC	_xmlNodeListGetString
PUBLIC	_xmlNodeListGetRawString
PUBLIC	_xmlNodeSetContent
PUBLIC	_xmlNodeSetContentLen
PUBLIC	_xmlNodeAddContent
PUBLIC	_xmlNodeAddContentLen
PUBLIC	_xmlNodeGetContent
PUBLIC	_xmlNodeBufGetContent
PUBLIC	_xmlBufGetNodeContent
PUBLIC	_xmlNodeGetLang
PUBLIC	_xmlNodeGetSpacePreserve
PUBLIC	_xmlNodeSetLang
PUBLIC	_xmlNodeSetSpacePreserve
PUBLIC	_xmlNodeGetBase
PUBLIC	_xmlNodeSetBase
PUBLIC	_xmlRemoveProp
PUBLIC	_xmlUnsetNsProp
PUBLIC	_xmlUnsetProp
PUBLIC	_xmlBufferWriteCHAR
PUBLIC	_xmlBufferWriteChar
PUBLIC	_xmlBufferWriteQuotedString
PUBLIC	_xmlReconciliateNs
PUBLIC	_xmlGetDocCompressMode
PUBLIC	_xmlSetDocCompressMode
PUBLIC	_xmlGetCompressMode
PUBLIC	_xmlSetCompressMode
PUBLIC	_xmlDOMWrapNewCtxt
PUBLIC	_xmlDOMWrapFreeCtxt
PUBLIC	_xmlDOMWrapReconcileNamespaces
PUBLIC	_xmlDOMWrapAdoptNode
PUBLIC	_xmlDOMWrapRemoveNode
PUBLIC	_xmlDOMWrapCloneNode
PUBLIC	_xmlChildElementCount
PUBLIC	_xmlNextElementSibling
PUBLIC	_xmlFirstElementChild
PUBLIC	_xmlLastElementChild
PUBLIC	_xmlPreviousElementSibling
PUBLIC	__JustMyCode_Default
PUBLIC	??_C@_0CF@MFCHFOON@invalid?5hexadecimal?5character?5v@ ; `string'
PUBLIC	??_C@_0CB@MCPMOJHG@invalid?5decimal?5character?5value@ ; `string'
PUBLIC	??_C@_0CE@INHDJIAN@unterminated?5entity?5reference?5?$CF@ ; `string'
PUBLIC	??_C@_0BI@KDLJAAPA@string?5is?5not?5in?5UTF?98?6@ ; `string'
PUBLIC	??_C@_0BJ@IPOHNFHE@unexpected?5error?5number?6@	; `string'
PUBLIC	??_C@_0P@LPKFEOPI@building?5QName@		; `string'
PUBLIC	??_C@_0M@GKLEBIKC@QName?5split@			; `string'
PUBLIC	??_C@_03PJHHNEEI@xml@				; `string'
PUBLIC	??_C@_0CF@GLDAAHFK@http?3?1?1www?4w3?4org?1XML?11998?1name@ ; `string'
PUBLIC	??_C@_0BD@OMFEMMGI@building?5namespace@		; `string'
PUBLIC	??_C@_0N@OIMLODKO@building?5DTD@		; `string'
PUBLIC	??_C@_0BJ@INPJKJEA@building?5internal?5subset@	; `string'
PUBLIC	??_C@_03HLLJOCDO@1?40@				; `string'
PUBLIC	??_C@_0N@LKACPEIE@building?5doc@		; `string'
PUBLIC	??_C@_00CNPNBAHC@@				; `string'
PUBLIC	??_C@_0BD@EEPKIILJ@building?5attribute@		; `string'
PUBLIC	??_C@_0L@GJIJNDEK@ISO?98859?91@			; `string'
PUBLIC	??_C@_0M@OGMFHPHO@building?5PI@			; `string'
PUBLIC	??_C@_0O@LNBKNEAL@building?5node@		; `string'
PUBLIC	??_C@_0BC@HPKKMJFM@building?5fragment@		; `string'
PUBLIC	??_C@_0O@LOBCMCEI@building?5text@		; `string'
PUBLIC	??_C@_0BN@PHGPAPBE@building?5character?5reference@ ; `string'
PUBLIC	??_C@_0BD@OKHPDLFF@building?5reference@		; `string'
PUBLIC	??_C@_0BB@JNPLEEAM@building?5comment@		; `string'
PUBLIC	??_C@_0P@MBGLGFEO@building?5CDATA@		; `string'
PUBLIC	??_C@_0N@IDAFCAHJ@copying?5node@		; `string'
PUBLIC	??_C@_0BC@NABGEGIL@getting?5node?5path@		; `string'
PUBLIC	??_C@_01OGPIMHDM@?$DP@				; `string'
PUBLIC	??_C@_01KMDKNFGN@?1@				; `string'
PUBLIC	??_C@_05CCMOGDN@?$CFs?3?$CFs@			; `string'
PUBLIC	??_C@_01NBENCBCI@?$CK@				; `string'
PUBLIC	??_C@_09OMIOBGHN@comment?$CI?$CJ@		; `string'
PUBLIC	??_C@_06HNGKFOCG@text?$CI?$CJ@			; `string'
PUBLIC	??_C@_0BN@BBPFEMPE@processing?9instruction?$CI?8?$CFs?8?$CJ@ ; `string'
PUBLIC	??_C@_02MDNGGIDF@?1?$EA@			; `string'
PUBLIC	??_C@_02DKCKIIND@?$CFs@				; `string'
PUBLIC	??_C@_06DIJPEION@?$CFs?$CFs?$CFs@		; `string'
PUBLIC	??_C@_0L@INIGIDIG@?$CFs?$CFs?$FL?$CFd?$FN?$CFs@	; `string'
PUBLIC	??_C@_04IOHABJIC@lang@				; `string'
PUBLIC	??_C@_07DLHCIBDH@default@			; `string'
PUBLIC	??_C@_05OLNILLAB@space@				; `string'
PUBLIC	??_C@_08ILAKLJGO@preserve@			; `string'
PUBLIC	??_C@_04BHIIPFEC@base@				; `string'
PUBLIC	??_C@_04PNIFHPHN@html@				; `string'
PUBLIC	??_C@_04NEODDMOL@head@				; `string'
PUBLIC	??_C@_04CMBCJJJD@href@				; `string'
PUBLIC	??_C@_07FGAOOBMN@http?3?1?1@			; `string'
PUBLIC	??_C@_06FNAPNHDD@ftp?3?1?1@			; `string'
PUBLIC	??_C@_04KODJDHBJ@urn?3@				; `string'
PUBLIC	??_C@_0BH@FLIFGMAI@getting?5namespace?5list@	; `string'
PUBLIC	??_C@_0BN@LLCMIJBD@allocating?5the?5XML?5namespace@ ; `string'
PUBLIC	??_C@_0BE@FPBDMLJE@searching?5namespace@	; `string'
PUBLIC	??_C@_05BNPGKEDD@?$CF?420s@			; `string'
PUBLIC	??_C@_09DFKPACFI@default?$CFd@			; `string'
PUBLIC	??_C@_07BKMHDFJP@?$CF?420s?$CFd@		; `string'
PUBLIC	??_C@_0BC@MPADMMPM@fixing?5namespaces@		; `string'
PUBLIC	??_C@_01JLIPDDHJ@?3@				; `string'
PUBLIC	??_C@_0BA@GIGPFFIA@creating?5buffer@		; `string'
PUBLIC	??_C@_0P@LKGMENGP@growing?5buffer@		; `string'
PUBLIC	??_C@_01BJJEKLCA@?$CC@				; `string'
PUBLIC	??_C@_06DDLNFFBN@?$CGquot?$DL@			; `string'
PUBLIC	??_C@_01GEODFPGF@?8@				; `string'
PUBLIC	??_C@_0BJ@JOLPDGAP@allocating?5namespace?5map@	; `string'
PUBLIC	??_C@_0BO@JPEMBFPF@allocating?5namespace?5map?5item@ ; `string'
PUBLIC	??_C@_0BP@IBBGEDIA@allocating?5DOM?9wrapper?5context@ ; `string'
PUBLIC	??_C@_0BC@OAPAONED@alloc?5ns?5map?5item@	; `string'
PUBLIC	??_C@_0BE@NIDEIDLB@realloc?5ns?5map?5item@	; `string'
PUBLIC	??_C@_05GOMIJPDF@ns_?$CFd@			; `string'
PUBLIC	??_C@_08LCJGELPI@?$CF?430s_?$CFd@		; `string'
PUBLIC	??_C@_0CJ@IBBFFAIA@xmlDOMWrapCloneNode?$CI?$CJ?3?5allocati@ ; `string'
PUBLIC	??_C@_0CP@CMDBBNPE@xmlDOMWrapCloneNode?$CI?$CJ?3?5allocati@ ; `string'
PUBLIC	??_C@_0CM@EDBMOGPG@xmlDOMWrapCloneNode?$CI?$CJ?3?5allocati@ ; `string'
EXTRN	_xmlStrdup:PROC
EXTRN	_xmlStrndup:PROC
EXTRN	_xmlStrchr:PROC
EXTRN	_xmlStrncmp:PROC
EXTRN	_xmlStrcasecmp:PROC
EXTRN	_xmlStrEqual:PROC
EXTRN	_xmlStrlen:PROC
EXTRN	_xmlStrcat:PROC
EXTRN	_xmlStrncat:PROC
EXTRN	_xmlStrncatNew:PROC
EXTRN	_xmlCheckUTF8:PROC
EXTRN	__imp____acrt_iob_func:PROC
EXTRN	__imp__fwrite:PROC
EXTRN	__imp____stdio_common_vsprintf:PROC
EXTRN	_xmlDictFree:PROC
EXTRN	_xmlDictLookup:PROC
EXTRN	_xmlDictOwns:PROC
EXTRN	_xmlHashRemoveEntry:PROC
EXTRN	_xmlHashLookup:PROC
EXTRN	___xmlSimpleError:PROC
EXTRN	_xmlCopyNotationTable:PROC
EXTRN	_xmlFreeNotationTable:PROC
EXTRN	_xmlCopyElementTable:PROC
EXTRN	_xmlFreeElementTable:PROC
EXTRN	_xmlCopyAttributeTable:PROC
EXTRN	_xmlFreeAttributeTable:PROC
EXTRN	_xmlAddID:PROC
EXTRN	_xmlFreeIDTable:PROC
EXTRN	_xmlIsID:PROC
EXTRN	_xmlRemoveID:PROC
EXTRN	_xmlFreeRefTable:PROC
EXTRN	_xmlGetDtdAttrDesc:PROC
EXTRN	_xmlGetDtdQAttrDesc:PROC
EXTRN	_xmlGetDtdQElementDesc:PROC
EXTRN	_xmlGetDocEntity:PROC
EXTRN	_xmlEncodeEntitiesReentrant:PROC
EXTRN	_xmlEncodeSpecialChars:PROC
EXTRN	_xmlCopyEntitiesTable:PROC
EXTRN	_xmlFreeEntitiesTable:PROC
EXTRN	___xmlBufferAllocScheme:PROC
EXTRN	___xmlDefaultBufferSize:PROC
EXTRN	___xmlRegisterNodeDefaultValue:PROC
EXTRN	___xmlDeregisterNodeDefaultValue:PROC
EXTRN	_xmlBuildURI:PROC
EXTRN	_xmlPathToURI:PROC
EXTRN	_xmlCharInRange:PROC
EXTRN	_xmlStringCurrentChar:PROC
EXTRN	_xmlCopyCharMultiByte:PROC
EXTRN	_xmlBufCreate:PROC
EXTRN	_xmlBufCreateSize:PROC
EXTRN	_xmlBufSetAllocationScheme:PROC
EXTRN	_xmlBufFree:PROC
EXTRN	_xmlBufAdd:PROC
EXTRN	_xmlBufCat:PROC
EXTRN	_xmlBufIsEmpty:PROC
EXTRN	_xmlBufDetach:PROC
EXTRN	_xmlBufFromBuffer:PROC
EXTRN	_xmlBufBackToBuffer:PROC
EXTRN	_xmlEncodeAttributeEntities:PROC
EXTRN	@_RTC_CheckStackVars@8:PROC
EXTRN	@__CheckForDebuggerJustMyCode@4:PROC
EXTRN	__RTC_CheckEsp:PROC
EXTRN	__RTC_InitBase:PROC
EXTRN	__RTC_Shutdown:PROC
EXTRN	__RTC_UninitUse:PROC
EXTRN	_memcpy:PROC
EXTRN	_memmove:PROC
EXTRN	_memset:PROC
_DATA	SEGMENT
COMM	?_OptionsStorage@?1??__local_stdio_printf_options@@9@9:QWORD							; `__local_stdio_printf_options'::`2'::_OptionsStorage
_DATA	ENDS
_BSS	SEGMENT
_xmlCompressMode DD 01H DUP (?)
_BSS	ENDS
;	COMDAT rtc$TMZ
rtc$TMZ	SEGMENT
__RTC_Shutdown.rtc$TMZ DD FLAT:__RTC_Shutdown
rtc$TMZ	ENDS
;	COMDAT rtc$IMZ
rtc$IMZ	SEGMENT
__RTC_InitBase.rtc$IMZ DD FLAT:__RTC_InitBase
rtc$IMZ	ENDS
;	COMDAT ??_C@_0CM@EDBMOGPG@xmlDOMWrapCloneNode?$CI?$CJ?3?5allocati@
CONST	SEGMENT
??_C@_0CM@EDBMOGPG@xmlDOMWrapCloneNode?$CI?$CJ?3?5allocati@ DB 'xmlDOMWra'
	DB	'pCloneNode(): allocating namespace', 00H	; `string'
CONST	ENDS
;	COMDAT ??_C@_0CP@CMDBBNPE@xmlDOMWrapCloneNode?$CI?$CJ?3?5allocati@
CONST	SEGMENT
??_C@_0CP@CMDBBNPE@xmlDOMWrapCloneNode?$CI?$CJ?3?5allocati@ DB 'xmlDOMWra'
	DB	'pCloneNode(): allocating an attr-node', 00H	; `string'
CONST	ENDS
;	COMDAT ??_C@_0CJ@IBBFFAIA@xmlDOMWrapCloneNode?$CI?$CJ?3?5allocati@
CONST	SEGMENT
??_C@_0CJ@IBBFFAIA@xmlDOMWrapCloneNode?$CI?$CJ?3?5allocati@ DB 'xmlDOMWra'
	DB	'pCloneNode(): allocating a node', 00H	; `string'
CONST	ENDS
;	COMDAT ??_C@_08LCJGELPI@?$CF?430s_?$CFd@
CONST	SEGMENT
??_C@_08LCJGELPI@?$CF?430s_?$CFd@ DB '%.30s_%d', 00H	; `string'
CONST	ENDS
;	COMDAT ??_C@_05GOMIJPDF@ns_?$CFd@
CONST	SEGMENT
??_C@_05GOMIJPDF@ns_?$CFd@ DB 'ns_%d', 00H		; `string'
CONST	ENDS
;	COMDAT ??_C@_0BE@NIDEIDLB@realloc?5ns?5map?5item@
CONST	SEGMENT
??_C@_0BE@NIDEIDLB@realloc?5ns?5map?5item@ DB 'realloc ns map item', 00H ; `string'
CONST	ENDS
;	COMDAT ??_C@_0BC@OAPAONED@alloc?5ns?5map?5item@
CONST	SEGMENT
??_C@_0BC@OAPAONED@alloc?5ns?5map?5item@ DB 'alloc ns map item', 00H ; `string'
CONST	ENDS
;	COMDAT ??_C@_0BP@IBBGEDIA@allocating?5DOM?9wrapper?5context@
CONST	SEGMENT
??_C@_0BP@IBBGEDIA@allocating?5DOM?9wrapper?5context@ DB 'allocating DOM-'
	DB	'wrapper context', 00H			; `string'
CONST	ENDS
;	COMDAT ??_C@_0BO@JPEMBFPF@allocating?5namespace?5map?5item@
CONST	SEGMENT
??_C@_0BO@JPEMBFPF@allocating?5namespace?5map?5item@ DB 'allocating names'
	DB	'pace map item', 00H				; `string'
CONST	ENDS
;	COMDAT ??_C@_0BJ@JOLPDGAP@allocating?5namespace?5map@
CONST	SEGMENT
??_C@_0BJ@JOLPDGAP@allocating?5namespace?5map@ DB 'allocating namespace m'
	DB	'ap', 00H					; `string'
CONST	ENDS
;	COMDAT ??_C@_01GEODFPGF@?8@
CONST	SEGMENT
??_C@_01GEODFPGF@?8@ DB '''', 00H			; `string'
CONST	ENDS
;	COMDAT ??_C@_06DDLNFFBN@?$CGquot?$DL@
CONST	SEGMENT
??_C@_06DDLNFFBN@?$CGquot?$DL@ DB '&quot;', 00H		; `string'
CONST	ENDS
;	COMDAT ??_C@_01BJJEKLCA@?$CC@
CONST	SEGMENT
??_C@_01BJJEKLCA@?$CC@ DB '"', 00H			; `string'
CONST	ENDS
;	COMDAT ??_C@_0P@LKGMENGP@growing?5buffer@
CONST	SEGMENT
??_C@_0P@LKGMENGP@growing?5buffer@ DB 'growing buffer', 00H ; `string'
CONST	ENDS
;	COMDAT ??_C@_0BA@GIGPFFIA@creating?5buffer@
CONST	SEGMENT
??_C@_0BA@GIGPFFIA@creating?5buffer@ DB 'creating buffer', 00H ; `string'
CONST	ENDS
;	COMDAT ??_C@_01JLIPDDHJ@?3@
CONST	SEGMENT
??_C@_01JLIPDDHJ@?3@ DB ':', 00H			; `string'
CONST	ENDS
;	COMDAT ??_C@_0BC@MPADMMPM@fixing?5namespaces@
CONST	SEGMENT
??_C@_0BC@MPADMMPM@fixing?5namespaces@ DB 'fixing namespaces', 00H ; `string'
CONST	ENDS
;	COMDAT ??_C@_07BKMHDFJP@?$CF?420s?$CFd@
CONST	SEGMENT
??_C@_07BKMHDFJP@?$CF?420s?$CFd@ DB '%.20s%d', 00H	; `string'
CONST	ENDS
;	COMDAT ??_C@_09DFKPACFI@default?$CFd@
CONST	SEGMENT
??_C@_09DFKPACFI@default?$CFd@ DB 'default%d', 00H	; `string'
CONST	ENDS
;	COMDAT ??_C@_05BNPGKEDD@?$CF?420s@
CONST	SEGMENT
??_C@_05BNPGKEDD@?$CF?420s@ DB '%.20s', 00H		; `string'
CONST	ENDS
;	COMDAT ??_C@_0BE@FPBDMLJE@searching?5namespace@
CONST	SEGMENT
??_C@_0BE@FPBDMLJE@searching?5namespace@ DB 'searching namespace', 00H ; `string'
CONST	ENDS
;	COMDAT ??_C@_0BN@LLCMIJBD@allocating?5the?5XML?5namespace@
CONST	SEGMENT
??_C@_0BN@LLCMIJBD@allocating?5the?5XML?5namespace@ DB 'allocating the XM'
	DB	'L namespace', 00H				; `string'
CONST	ENDS
;	COMDAT ??_C@_0BH@FLIFGMAI@getting?5namespace?5list@
CONST	SEGMENT
??_C@_0BH@FLIFGMAI@getting?5namespace?5list@ DB 'getting namespace list', 00H ; `string'
CONST	ENDS
;	COMDAT ??_C@_04KODJDHBJ@urn?3@
CONST	SEGMENT
??_C@_04KODJDHBJ@urn?3@ DB 'urn:', 00H			; `string'
CONST	ENDS
;	COMDAT ??_C@_06FNAPNHDD@ftp?3?1?1@
CONST	SEGMENT
??_C@_06FNAPNHDD@ftp?3?1?1@ DB 'ftp://', 00H		; `string'
CONST	ENDS
;	COMDAT ??_C@_07FGAOOBMN@http?3?1?1@
CONST	SEGMENT
??_C@_07FGAOOBMN@http?3?1?1@ DB 'http://', 00H		; `string'
CONST	ENDS
;	COMDAT ??_C@_04CMBCJJJD@href@
CONST	SEGMENT
??_C@_04CMBCJJJD@href@ DB 'href', 00H			; `string'
CONST	ENDS
;	COMDAT ??_C@_04NEODDMOL@head@
CONST	SEGMENT
??_C@_04NEODDMOL@head@ DB 'head', 00H			; `string'
CONST	ENDS
;	COMDAT ??_C@_04PNIFHPHN@html@
CONST	SEGMENT
??_C@_04PNIFHPHN@html@ DB 'html', 00H			; `string'
CONST	ENDS
;	COMDAT ??_C@_04BHIIPFEC@base@
CONST	SEGMENT
??_C@_04BHIIPFEC@base@ DB 'base', 00H			; `string'
CONST	ENDS
;	COMDAT ??_C@_08ILAKLJGO@preserve@
CONST	SEGMENT
??_C@_08ILAKLJGO@preserve@ DB 'preserve', 00H		; `string'
CONST	ENDS
;	COMDAT ??_C@_05OLNILLAB@space@
CONST	SEGMENT
??_C@_05OLNILLAB@space@ DB 'space', 00H			; `string'
CONST	ENDS
;	COMDAT ??_C@_07DLHCIBDH@default@
CONST	SEGMENT
??_C@_07DLHCIBDH@default@ DB 'default', 00H		; `string'
CONST	ENDS
;	COMDAT ??_C@_04IOHABJIC@lang@
CONST	SEGMENT
??_C@_04IOHABJIC@lang@ DB 'lang', 00H			; `string'
CONST	ENDS
;	COMDAT ??_C@_0L@INIGIDIG@?$CFs?$CFs?$FL?$CFd?$FN?$CFs@
CONST	SEGMENT
??_C@_0L@INIGIDIG@?$CFs?$CFs?$FL?$CFd?$FN?$CFs@ DB '%s%s[%d]%s', 00H ; `string'
CONST	ENDS
;	COMDAT ??_C@_06DIJPEION@?$CFs?$CFs?$CFs@
CONST	SEGMENT
??_C@_06DIJPEION@?$CFs?$CFs?$CFs@ DB '%s%s%s', 00H	; `string'
CONST	ENDS
;	COMDAT ??_C@_02DKCKIIND@?$CFs@
CONST	SEGMENT
??_C@_02DKCKIIND@?$CFs@ DB '%s', 00H			; `string'
CONST	ENDS
;	COMDAT ??_C@_02MDNGGIDF@?1?$EA@
CONST	SEGMENT
??_C@_02MDNGGIDF@?1?$EA@ DB '/@', 00H			; `string'
CONST	ENDS
;	COMDAT ??_C@_0BN@BBPFEMPE@processing?9instruction?$CI?8?$CFs?8?$CJ@
CONST	SEGMENT
??_C@_0BN@BBPFEMPE@processing?9instruction?$CI?8?$CFs?8?$CJ@ DB 'processi'
	DB	'ng-instruction(''%s'')', 00H		; `string'
CONST	ENDS
;	COMDAT ??_C@_06HNGKFOCG@text?$CI?$CJ@
CONST	SEGMENT
??_C@_06HNGKFOCG@text?$CI?$CJ@ DB 'text()', 00H		; `string'
CONST	ENDS
;	COMDAT ??_C@_09OMIOBGHN@comment?$CI?$CJ@
CONST	SEGMENT
??_C@_09OMIOBGHN@comment?$CI?$CJ@ DB 'comment()', 00H	; `string'
CONST	ENDS
;	COMDAT ??_C@_01NBENCBCI@?$CK@
CONST	SEGMENT
??_C@_01NBENCBCI@?$CK@ DB '*', 00H			; `string'
CONST	ENDS
;	COMDAT ??_C@_05CCMOGDN@?$CFs?3?$CFs@
CONST	SEGMENT
??_C@_05CCMOGDN@?$CFs?3?$CFs@ DB '%s:%s', 00H		; `string'
CONST	ENDS
;	COMDAT ??_C@_01KMDKNFGN@?1@
CONST	SEGMENT
??_C@_01KMDKNFGN@?1@ DB '/', 00H			; `string'
CONST	ENDS
;	COMDAT ??_C@_01OGPIMHDM@?$DP@
CONST	SEGMENT
??_C@_01OGPIMHDM@?$DP@ DB '?', 00H			; `string'
CONST	ENDS
;	COMDAT ??_C@_0BC@NABGEGIL@getting?5node?5path@
CONST	SEGMENT
??_C@_0BC@NABGEGIL@getting?5node?5path@ DB 'getting node path', 00H ; `string'
CONST	ENDS
;	COMDAT ??_C@_0N@IDAFCAHJ@copying?5node@
CONST	SEGMENT
??_C@_0N@IDAFCAHJ@copying?5node@ DB 'copying node', 00H	; `string'
CONST	ENDS
;	COMDAT ??_C@_0P@MBGLGFEO@building?5CDATA@
CONST	SEGMENT
??_C@_0P@MBGLGFEO@building?5CDATA@ DB 'building CDATA', 00H ; `string'
CONST	ENDS
;	COMDAT ??_C@_0BB@JNPLEEAM@building?5comment@
CONST	SEGMENT
??_C@_0BB@JNPLEEAM@building?5comment@ DB 'building comment', 00H ; `string'
CONST	ENDS
;	COMDAT ??_C@_0BD@OKHPDLFF@building?5reference@
CONST	SEGMENT
??_C@_0BD@OKHPDLFF@building?5reference@ DB 'building reference', 00H ; `string'
CONST	ENDS
;	COMDAT ??_C@_0BN@PHGPAPBE@building?5character?5reference@
CONST	SEGMENT
??_C@_0BN@PHGPAPBE@building?5character?5reference@ DB 'building character'
	DB	' reference', 00H				; `string'
CONST	ENDS
;	COMDAT ??_C@_0O@LOBCMCEI@building?5text@
CONST	SEGMENT
??_C@_0O@LOBCMCEI@building?5text@ DB 'building text', 00H ; `string'
CONST	ENDS
;	COMDAT ??_C@_0BC@HPKKMJFM@building?5fragment@
CONST	SEGMENT
??_C@_0BC@HPKKMJFM@building?5fragment@ DB 'building fragment', 00H ; `string'
CONST	ENDS
;	COMDAT ??_C@_0O@LNBKNEAL@building?5node@
CONST	SEGMENT
??_C@_0O@LNBKNEAL@building?5node@ DB 'building node', 00H ; `string'
CONST	ENDS
;	COMDAT ??_C@_0M@OGMFHPHO@building?5PI@
CONST	SEGMENT
??_C@_0M@OGMFHPHO@building?5PI@ DB 'building PI', 00H	; `string'
CONST	ENDS
;	COMDAT ??_C@_0L@GJIJNDEK@ISO?98859?91@
CONST	SEGMENT
??_C@_0L@GJIJNDEK@ISO?98859?91@ DB 'ISO-8859-1', 00H	; `string'
CONST	ENDS
;	COMDAT ??_C@_0BD@EEPKIILJ@building?5attribute@
CONST	SEGMENT
??_C@_0BD@EEPKIILJ@building?5attribute@ DB 'building attribute', 00H ; `string'
CONST	ENDS
;	COMDAT ??_C@_00CNPNBAHC@@
CONST	SEGMENT
??_C@_00CNPNBAHC@@ DB 00H				; `string'
CONST	ENDS
;	COMDAT ??_C@_0N@LKACPEIE@building?5doc@
CONST	SEGMENT
??_C@_0N@LKACPEIE@building?5doc@ DB 'building doc', 00H	; `string'
CONST	ENDS
;	COMDAT ??_C@_03HLLJOCDO@1?40@
CONST	SEGMENT
??_C@_03HLLJOCDO@1?40@ DB '1.0', 00H			; `string'
CONST	ENDS
;	COMDAT ??_C@_0BJ@INPJKJEA@building?5internal?5subset@
CONST	SEGMENT
??_C@_0BJ@INPJKJEA@building?5internal?5subset@ DB 'building internal subs'
	DB	'et', 00H					; `string'
CONST	ENDS
;	COMDAT ??_C@_0N@OIMLODKO@building?5DTD@
CONST	SEGMENT
??_C@_0N@OIMLODKO@building?5DTD@ DB 'building DTD', 00H	; `string'
CONST	ENDS
;	COMDAT ??_C@_0BD@OMFEMMGI@building?5namespace@
CONST	SEGMENT
??_C@_0BD@OMFEMMGI@building?5namespace@ DB 'building namespace', 00H ; `string'
CONST	ENDS
;	COMDAT ??_C@_0CF@GLDAAHFK@http?3?1?1www?4w3?4org?1XML?11998?1name@
CONST	SEGMENT
??_C@_0CF@GLDAAHFK@http?3?1?1www?4w3?4org?1XML?11998?1name@ DB 'http://ww'
	DB	'w.w3.org/XML/1998/namespace', 00H		; `string'
CONST	ENDS
;	COMDAT ??_C@_03PJHHNEEI@xml@
CONST	SEGMENT
??_C@_03PJHHNEEI@xml@ DB 'xml', 00H			; `string'
CONST	ENDS
;	COMDAT ??_C@_0M@GKLEBIKC@QName?5split@
CONST	SEGMENT
??_C@_0M@GKLEBIKC@QName?5split@ DB 'QName split', 00H	; `string'
CONST	ENDS
;	COMDAT ??_C@_0P@LPKFEOPI@building?5QName@
CONST	SEGMENT
??_C@_0P@LPKFEOPI@building?5QName@ DB 'building QName', 00H ; `string'
CONST	ENDS
_DATA	SEGMENT
_xmlCheckDTD DD	01H
_DATA	ENDS
;	COMDAT ??_C@_0BJ@IPOHNFHE@unexpected?5error?5number?6@
CONST	SEGMENT
??_C@_0BJ@IPOHNFHE@unexpected?5error?5number?6@ DB 'unexpected error numb'
	DB	'er', 0aH, 00H				; `string'
CONST	ENDS
;	COMDAT ??_C@_0BI@KDLJAAPA@string?5is?5not?5in?5UTF?98?6@
CONST	SEGMENT
??_C@_0BI@KDLJAAPA@string?5is?5not?5in?5UTF?98?6@ DB 'string is not in UT'
	DB	'F-8', 0aH, 00H				; `string'
CONST	ENDS
;	COMDAT ??_C@_0CE@INHDJIAN@unterminated?5entity?5reference?5?$CF@
CONST	SEGMENT
??_C@_0CE@INHDJIAN@unterminated?5entity?5reference?5?$CF@ DB 'unterminate'
	DB	'd entity reference %15s', 0aH, 00H		; `string'
CONST	ENDS
;	COMDAT ??_C@_0CB@MCPMOJHG@invalid?5decimal?5character?5value@
CONST	SEGMENT
??_C@_0CB@MCPMOJHG@invalid?5decimal?5character?5value@ DB 'invalid decima'
	DB	'l character value', 0aH, 00H		; `string'
CONST	ENDS
;	COMDAT ??_C@_0CF@MFCHFOON@invalid?5hexadecimal?5character?5v@
CONST	SEGMENT
??_C@_0CF@MFCHFOON@invalid?5hexadecimal?5character?5v@ DB 'invalid hexade'
	DB	'cimal character value', 0aH, 00H		; `string'
CONST	ENDS
; Function compile flags: /Odt
;	COMDAT __JustMyCode_Default
_TEXT	SEGMENT
__JustMyCode_Default PROC				; COMDAT
	push	ebp
	mov	ebp, esp
	pop	ebp
	ret	0
__JustMyCode_Default ENDP
_TEXT	ENDS
; Function compile flags: /Odtp /RTCsu
; File c:\users\dag\documents\_clients\codeproject authors group\windows on arm\libxml2\libxml2-2.9.9\tree.c
;	COMDAT _xmlDOMWrapAdoptAttr
_TEXT	SEGMENT
tv208 = -32						; size = 4
_ent$1 = -28						; size = 4
_old$2 = -24						; size = 4
_ns$3 = -16						; size = 4
_adoptStr$ = -8						; size = 4
_cur$ = -4						; size = 4
_ctxt$ = 8						; size = 4
_sourceDoc$ = 12					; size = 4
_attr$ = 16						; size = 4
_destDoc$ = 20						; size = 4
_destParent$ = 24					; size = 4
_options$ = 28						; size = 4
_xmlDOMWrapAdoptAttr PROC				; COMDAT

; 9903 : {

	push	ebp
	mov	ebp, esp
	sub	esp, 32					; 00000020H
	push	esi
	mov	eax, -858993460				; ccccccccH
	mov	DWORD PTR [ebp-32], eax
	mov	DWORD PTR [ebp-28], eax
	mov	DWORD PTR [ebp-24], eax
	mov	DWORD PTR [ebp-20], eax
	mov	DWORD PTR [ebp-16], eax
	mov	DWORD PTR [ebp-12], eax
	mov	DWORD PTR [ebp-8], eax
	mov	DWORD PTR [ebp-4], eax
	mov	ecx, OFFSET __59973643_tree@c
	call	@__CheckForDebuggerJustMyCode@4

; 9904 :     xmlNodePtr cur;
; 9905 :     int adoptStr = 1;

	mov	DWORD PTR _adoptStr$[ebp], 1

; 9906 : 
; 9907 :     if ((attr == NULL) || (destDoc == NULL))

	cmp	DWORD PTR _attr$[ebp], 0
	je	SHORT $LN7@xmlDOMWrap
	cmp	DWORD PTR _destDoc$[ebp], 0
	jne	SHORT $LN6@xmlDOMWrap
$LN7@xmlDOMWrap:

; 9908 : 	return (-1);

	or	eax, -1
	jmp	$LN1@xmlDOMWrap
$LN6@xmlDOMWrap:

; 9909 : 
; 9910 :     attr->doc = destDoc;

	mov	eax, DWORD PTR _attr$[ebp]
	mov	ecx, DWORD PTR _destDoc$[ebp]
	mov	DWORD PTR [eax+32], ecx

; 9911 :     if (attr->ns != NULL) {

	mov	edx, DWORD PTR _attr$[ebp]
	cmp	DWORD PTR [edx+36], 0
	je	$LN8@xmlDOMWrap

; 9912 : 	xmlNsPtr ns = NULL;

	mov	DWORD PTR _ns$3[ebp], 0

; 9913 : 
; 9914 : 	if (ctxt != NULL) {
; 9915 : 	    /* TODO: User defined. */
; 9916 : 	}
; 9917 : 	/* XML Namespace. */
; 9918 : 	if (IS_STR_XML(attr->ns->prefix)) {

	mov	eax, DWORD PTR _attr$[ebp]
	mov	ecx, DWORD PTR [eax+36]
	cmp	DWORD PTR [ecx+12], 0
	je	SHORT $LN10@xmlDOMWrap
	mov	edx, DWORD PTR _attr$[ebp]
	mov	eax, DWORD PTR [edx+36]
	mov	ecx, 1
	imul	edx, ecx, 0
	mov	eax, DWORD PTR [eax+12]
	movzx	ecx, BYTE PTR [eax+edx]
	cmp	ecx, 120				; 00000078H
	jne	SHORT $LN10@xmlDOMWrap
	mov	edx, DWORD PTR _attr$[ebp]
	mov	eax, DWORD PTR [edx+36]
	mov	ecx, 1
	shl	ecx, 0
	mov	edx, DWORD PTR [eax+12]
	movzx	eax, BYTE PTR [edx+ecx]
	cmp	eax, 109				; 0000006dH
	jne	SHORT $LN10@xmlDOMWrap
	mov	ecx, DWORD PTR _attr$[ebp]
	mov	edx, DWORD PTR [ecx+36]
	mov	eax, 1
	shl	eax, 1
	mov	ecx, DWORD PTR [edx+12]
	movzx	edx, BYTE PTR [ecx+eax]
	cmp	edx, 108				; 0000006cH
	jne	SHORT $LN10@xmlDOMWrap
	mov	eax, DWORD PTR _attr$[ebp]
	mov	ecx, DWORD PTR [eax+36]
	mov	edx, 1
	imul	eax, edx, 3
	mov	ecx, DWORD PTR [ecx+12]
	movzx	edx, BYTE PTR [ecx+eax]
	test	edx, edx
	jne	SHORT $LN10@xmlDOMWrap

; 9919 : 	    ns = xmlTreeEnsureXMLDecl(destDoc);

	mov	eax, DWORD PTR _destDoc$[ebp]
	push	eax
	call	_xmlTreeEnsureXMLDecl
	add	esp, 4
	mov	DWORD PTR _ns$3[ebp], eax
	jmp	$LN11@xmlDOMWrap
$LN10@xmlDOMWrap:

; 9920 : 	} else if (destParent == NULL) {

	cmp	DWORD PTR _destParent$[ebp], 0
	jne	SHORT $LN12@xmlDOMWrap

; 9921 : 	    /*
; 9922 : 	    * Store in @destDoc->oldNs.
; 9923 : 	    */
; 9924 : 	    ns = xmlDOMWrapStoreNs(destDoc, attr->ns->href, attr->ns->prefix);

	mov	ecx, DWORD PTR _attr$[ebp]
	mov	edx, DWORD PTR [ecx+36]
	mov	eax, DWORD PTR [edx+12]
	push	eax
	mov	ecx, DWORD PTR _attr$[ebp]
	mov	edx, DWORD PTR [ecx+36]
	mov	eax, DWORD PTR [edx+8]
	push	eax
	mov	ecx, DWORD PTR _destDoc$[ebp]
	push	ecx
	call	_xmlDOMWrapStoreNs
	add	esp, 12					; 0000000cH
	mov	DWORD PTR _ns$3[ebp], eax

; 9925 : 	} else {

	jmp	SHORT $LN11@xmlDOMWrap
$LN12@xmlDOMWrap:

; 9926 : 	    /*
; 9927 : 	    * Declare on @destParent.
; 9928 : 	    */
; 9929 : 	    if (xmlSearchNsByNamespaceStrict(destDoc, destParent, attr->ns->href,
; 9930 : 		&ns, 1) == -1)

	push	1
	lea	edx, DWORD PTR _ns$3[ebp]
	push	edx
	mov	eax, DWORD PTR _attr$[ebp]
	mov	ecx, DWORD PTR [eax+36]
	mov	edx, DWORD PTR [ecx+8]
	push	edx
	mov	eax, DWORD PTR _destParent$[ebp]
	push	eax
	mov	ecx, DWORD PTR _destDoc$[ebp]
	push	ecx
	call	_xmlSearchNsByNamespaceStrict
	add	esp, 20					; 00000014H
	cmp	eax, -1
	jne	SHORT $LN14@xmlDOMWrap

; 9931 : 		goto internal_error;

	jmp	$internal_error$43
$LN14@xmlDOMWrap:

; 9932 : 	    if (ns == NULL) {

	cmp	DWORD PTR _ns$3[ebp], 0
	jne	SHORT $LN11@xmlDOMWrap

; 9933 : 		ns = xmlDOMWrapNSNormDeclareNsForced(destDoc, destParent,

	push	1
	mov	edx, DWORD PTR _attr$[ebp]
	mov	eax, DWORD PTR [edx+36]
	mov	ecx, DWORD PTR [eax+12]
	push	ecx
	mov	edx, DWORD PTR _attr$[ebp]
	mov	eax, DWORD PTR [edx+36]
	mov	ecx, DWORD PTR [eax+8]
	push	ecx
	mov	edx, DWORD PTR _destParent$[ebp]
	push	edx
	mov	eax, DWORD PTR _destDoc$[ebp]
	push	eax
	call	_xmlDOMWrapNSNormDeclareNsForced
	add	esp, 20					; 00000014H
	mov	DWORD PTR _ns$3[ebp], eax
$LN11@xmlDOMWrap:

; 9934 : 		    attr->ns->href, attr->ns->prefix, 1);
; 9935 : 	    }
; 9936 : 	}
; 9937 : 	if (ns == NULL)

	cmp	DWORD PTR _ns$3[ebp], 0
	jne	SHORT $LN16@xmlDOMWrap

; 9938 : 	    goto internal_error;

	jmp	$internal_error$43
$LN16@xmlDOMWrap:

; 9939 : 	attr->ns = ns;

	mov	ecx, DWORD PTR _attr$[ebp]
	mov	edx, DWORD PTR _ns$3[ebp]
	mov	DWORD PTR [ecx+36], edx
$LN8@xmlDOMWrap:

; 9940 :     }
; 9941 : 
; 9942 :     XML_TREE_ADOPT_STR(attr->name);

	cmp	DWORD PTR _adoptStr$[ebp], 0
	je	$LN17@xmlDOMWrap
	mov	eax, DWORD PTR _attr$[ebp]
	cmp	DWORD PTR [eax+8], 0
	je	$LN17@xmlDOMWrap
	mov	ecx, DWORD PTR _destDoc$[ebp]
	cmp	DWORD PTR [ecx+80], 0
	je	SHORT $LN18@xmlDOMWrap
	mov	edx, DWORD PTR _attr$[ebp]
	mov	eax, DWORD PTR [edx+8]
	mov	DWORD PTR _old$2[ebp], eax
	push	-1
	mov	ecx, DWORD PTR _attr$[ebp]
	mov	edx, DWORD PTR [ecx+8]
	push	edx
	mov	eax, DWORD PTR _destDoc$[ebp]
	mov	ecx, DWORD PTR [eax+80]
	push	ecx
	call	_xmlDictLookup
	add	esp, 12					; 0000000cH
	mov	edx, DWORD PTR _attr$[ebp]
	mov	DWORD PTR [edx+8], eax
	cmp	DWORD PTR _sourceDoc$[ebp], 0
	je	SHORT $LN21@xmlDOMWrap
	mov	eax, DWORD PTR _sourceDoc$[ebp]
	cmp	DWORD PTR [eax+80], 0
	je	SHORT $LN21@xmlDOMWrap
	mov	ecx, DWORD PTR _old$2[ebp]
	push	ecx
	mov	edx, DWORD PTR _sourceDoc$[ebp]
	mov	eax, DWORD PTR [edx+80]
	push	eax
	call	_xmlDictOwns
	add	esp, 8
	test	eax, eax
	jne	SHORT $LN20@xmlDOMWrap
$LN21@xmlDOMWrap:
	mov	esi, esp
	mov	ecx, DWORD PTR _old$2[ebp]
	push	ecx
	call	DWORD PTR _xmlFree
	add	esp, 4
	cmp	esi, esp
	call	__RTC_CheckEsp
$LN20@xmlDOMWrap:
	jmp	SHORT $LN17@xmlDOMWrap
$LN18@xmlDOMWrap:
	cmp	DWORD PTR _sourceDoc$[ebp], 0
	je	SHORT $LN17@xmlDOMWrap
	mov	edx, DWORD PTR _sourceDoc$[ebp]
	cmp	DWORD PTR [edx+80], 0
	je	SHORT $LN17@xmlDOMWrap
	mov	eax, DWORD PTR _attr$[ebp]
	mov	ecx, DWORD PTR [eax+8]
	push	ecx
	mov	edx, DWORD PTR _sourceDoc$[ebp]
	mov	eax, DWORD PTR [edx+80]
	push	eax
	call	_xmlDictOwns
	add	esp, 8
	test	eax, eax
	je	SHORT $LN17@xmlDOMWrap
	mov	ecx, DWORD PTR _attr$[ebp]
	mov	edx, DWORD PTR [ecx+8]
	push	edx
	call	_xmlStrdup
	add	esp, 4
	mov	ecx, DWORD PTR _attr$[ebp]
	mov	DWORD PTR [ecx+8], eax
$LN17@xmlDOMWrap:

; 9943 :     attr->atype = 0;

	mov	edx, DWORD PTR _attr$[ebp]
	mov	DWORD PTR [edx+40], 0

; 9944 :     attr->psvi = NULL;

	mov	eax, DWORD PTR _attr$[ebp]
	mov	DWORD PTR [eax+44], 0

; 9945 :     /*
; 9946 :     * Walk content.
; 9947 :     */
; 9948 :     if (attr->children == NULL)

	mov	ecx, DWORD PTR _attr$[ebp]
	cmp	DWORD PTR [ecx+12], 0
	jne	SHORT $LN23@xmlDOMWrap

; 9949 : 	return (0);

	xor	eax, eax
	jmp	$LN1@xmlDOMWrap
$LN23@xmlDOMWrap:

; 9950 :     cur = attr->children;

	mov	edx, DWORD PTR _attr$[ebp]
	mov	eax, DWORD PTR [edx+12]
	mov	DWORD PTR _cur$[ebp], eax

; 9951 :     if ((cur != NULL) && (cur->type == XML_NAMESPACE_DECL))

	cmp	DWORD PTR _cur$[ebp], 0
	je	SHORT $LN2@xmlDOMWrap
	mov	ecx, DWORD PTR _cur$[ebp]
	cmp	DWORD PTR [ecx+4], 18			; 00000012H
	jne	SHORT $LN2@xmlDOMWrap

; 9952 :         goto internal_error;

	jmp	$internal_error$43
$LN2@xmlDOMWrap:

; 9953 :     while (cur != NULL) {

	cmp	DWORD PTR _cur$[ebp], 0
	je	$LN3@xmlDOMWrap

; 9954 : 	cur->doc = destDoc;

	mov	edx, DWORD PTR _cur$[ebp]
	mov	eax, DWORD PTR _destDoc$[ebp]
	mov	DWORD PTR [edx+32], eax

; 9955 : 	switch (cur->type) {

	mov	ecx, DWORD PTR _cur$[ebp]
	mov	edx, DWORD PTR [ecx+4]
	mov	DWORD PTR tv208[ebp], edx
	cmp	DWORD PTR tv208[ebp], 3
	jl	$LN4@xmlDOMWrap
	cmp	DWORD PTR tv208[ebp], 4
	jle	SHORT $LN25@xmlDOMWrap
	cmp	DWORD PTR tv208[ebp], 5
	je	SHORT $LN29@xmlDOMWrap
	jmp	$LN4@xmlDOMWrap
$LN25@xmlDOMWrap:

; 9956 : 	    case XML_TEXT_NODE:
; 9957 : 	    case XML_CDATA_SECTION_NODE:
; 9958 : 		XML_TREE_ADOPT_STR_2(cur->content)

	cmp	DWORD PTR _adoptStr$[ebp], 0
	je	SHORT $LN26@xmlDOMWrap
	mov	eax, DWORD PTR _cur$[ebp]
	cmp	DWORD PTR [eax+40], 0
	je	SHORT $LN26@xmlDOMWrap
	cmp	DWORD PTR _sourceDoc$[ebp], 0
	je	SHORT $LN26@xmlDOMWrap
	mov	ecx, DWORD PTR _sourceDoc$[ebp]
	cmp	DWORD PTR [ecx+80], 0
	je	SHORT $LN26@xmlDOMWrap
	mov	edx, DWORD PTR _cur$[ebp]
	mov	eax, DWORD PTR [edx+40]
	push	eax
	mov	ecx, DWORD PTR _sourceDoc$[ebp]
	mov	edx, DWORD PTR [ecx+80]
	push	edx
	call	_xmlDictOwns
	add	esp, 8
	test	eax, eax
	je	SHORT $LN26@xmlDOMWrap
	mov	eax, DWORD PTR _destDoc$[ebp]
	cmp	DWORD PTR [eax+80], 0
	je	SHORT $LN27@xmlDOMWrap
	push	-1
	mov	ecx, DWORD PTR _cur$[ebp]
	mov	edx, DWORD PTR [ecx+40]
	push	edx
	mov	eax, DWORD PTR _destDoc$[ebp]
	mov	ecx, DWORD PTR [eax+80]
	push	ecx
	call	_xmlDictLookup
	add	esp, 12					; 0000000cH
	mov	edx, DWORD PTR _cur$[ebp]
	mov	DWORD PTR [edx+40], eax
	jmp	SHORT $LN26@xmlDOMWrap
$LN27@xmlDOMWrap:
	mov	eax, DWORD PTR _cur$[ebp]
	mov	ecx, DWORD PTR [eax+40]
	push	ecx
	call	_xmlStrdup
	add	esp, 4
	mov	edx, DWORD PTR _cur$[ebp]
	mov	DWORD PTR [edx+40], eax
$LN26@xmlDOMWrap:

; 9959 : 		break;

	jmp	SHORT $LN4@xmlDOMWrap
$LN29@xmlDOMWrap:

; 9960 : 	    case XML_ENTITY_REF_NODE:
; 9961 : 		/*
; 9962 : 		* Remove reference to the entitity-node.
; 9963 : 		*/
; 9964 : 		cur->content = NULL;

	mov	eax, DWORD PTR _cur$[ebp]
	mov	DWORD PTR [eax+40], 0

; 9965 : 		cur->children = NULL;

	mov	ecx, DWORD PTR _cur$[ebp]
	mov	DWORD PTR [ecx+12], 0

; 9966 : 		cur->last = NULL;

	mov	edx, DWORD PTR _cur$[ebp]
	mov	DWORD PTR [edx+16], 0

; 9967 : 		if ((destDoc->intSubset) || (destDoc->extSubset)) {

	mov	eax, DWORD PTR _destDoc$[ebp]
	cmp	DWORD PTR [eax+44], 0
	jne	SHORT $LN31@xmlDOMWrap
	mov	ecx, DWORD PTR _destDoc$[ebp]
	cmp	DWORD PTR [ecx+48], 0
	je	SHORT $LN4@xmlDOMWrap
$LN31@xmlDOMWrap:

; 9968 : 		    xmlEntityPtr ent;
; 9969 : 		    /*
; 9970 : 		    * Assign new entity-node if available.
; 9971 : 		    */
; 9972 : 		    ent = xmlGetDocEntity(destDoc, cur->name);

	mov	edx, DWORD PTR _cur$[ebp]
	mov	eax, DWORD PTR [edx+8]
	push	eax
	mov	ecx, DWORD PTR _destDoc$[ebp]
	push	ecx
	call	_xmlGetDocEntity
	add	esp, 8
	mov	DWORD PTR _ent$1[ebp], eax

; 9973 : 		    if (ent != NULL) {

	cmp	DWORD PTR _ent$1[ebp], 0
	je	SHORT $LN4@xmlDOMWrap

; 9974 : 			cur->content = ent->content;

	mov	edx, DWORD PTR _cur$[ebp]
	mov	eax, DWORD PTR _ent$1[ebp]
	mov	ecx, DWORD PTR [eax+40]
	mov	DWORD PTR [edx+40], ecx

; 9975 : 			cur->children = (xmlNodePtr) ent;

	mov	edx, DWORD PTR _cur$[ebp]
	mov	eax, DWORD PTR _ent$1[ebp]
	mov	DWORD PTR [edx+12], eax

; 9976 : 			cur->last = (xmlNodePtr) ent;

	mov	ecx, DWORD PTR _cur$[ebp]
	mov	edx, DWORD PTR _ent$1[ebp]
	mov	DWORD PTR [ecx+16], edx
$LN4@xmlDOMWrap:

; 9977 : 		    }
; 9978 : 		}
; 9979 : 		break;
; 9980 : 	    default:
; 9981 : 		break;
; 9982 : 	}
; 9983 : 	if (cur->children != NULL) {

	mov	eax, DWORD PTR _cur$[ebp]
	cmp	DWORD PTR [eax+12], 0
	je	SHORT $next_sibling$44

; 9984 : 	    cur = cur->children;

	mov	ecx, DWORD PTR _cur$[ebp]
	mov	edx, DWORD PTR [ecx+12]
	mov	DWORD PTR _cur$[ebp], edx

; 9985 : 	    continue;

	jmp	$LN2@xmlDOMWrap
$next_sibling$44:

; 9986 : 	}
; 9987 : next_sibling:
; 9988 : 	if (cur == (xmlNodePtr) attr)

	mov	eax, DWORD PTR _cur$[ebp]
	cmp	eax, DWORD PTR _attr$[ebp]
	jne	SHORT $LN35@xmlDOMWrap

; 9989 : 	    break;

	jmp	SHORT $LN3@xmlDOMWrap
$LN35@xmlDOMWrap:

; 9990 : 	if (cur->next != NULL)

	mov	ecx, DWORD PTR _cur$[ebp]
	cmp	DWORD PTR [ecx+24], 0
	je	SHORT $LN36@xmlDOMWrap

; 9991 : 	    cur = cur->next;

	mov	edx, DWORD PTR _cur$[ebp]
	mov	eax, DWORD PTR [edx+24]
	mov	DWORD PTR _cur$[ebp], eax
	jmp	SHORT $LN37@xmlDOMWrap
$LN36@xmlDOMWrap:

; 9992 : 	else {
; 9993 : 	    cur = cur->parent;

	mov	ecx, DWORD PTR _cur$[ebp]
	mov	edx, DWORD PTR [ecx+20]
	mov	DWORD PTR _cur$[ebp], edx

; 9994 : 	    goto next_sibling;

	jmp	SHORT $next_sibling$44
$LN37@xmlDOMWrap:

; 9995 : 	}
; 9996 :     }

	jmp	$LN2@xmlDOMWrap
$LN3@xmlDOMWrap:

; 9997 :     return (0);

	xor	eax, eax
	jmp	SHORT $LN1@xmlDOMWrap
$internal_error$43:

; 9998 : internal_error:
; 9999 :     return (-1);

	or	eax, -1
$LN1@xmlDOMWrap:

; 10000: }

	push	edx
	mov	ecx, ebp
	push	eax
	lea	edx, DWORD PTR $LN42@xmlDOMWrap
	call	@_RTC_CheckStackVars@8
	pop	eax
	pop	edx
	pop	esi
	add	esp, 32					; 00000020H
	cmp	ebp, esp
	call	__RTC_CheckEsp
	mov	esp, ebp
	pop	ebp
	ret	0
	npad	3
$LN42@xmlDOMWrap:
	DD	1
	DD	$LN41@xmlDOMWrap
$LN41@xmlDOMWrap:
	DD	-16					; fffffff0H
	DD	4
	DD	$LN40@xmlDOMWrap
$LN40@xmlDOMWrap:
	DB	110					; 0000006eH
	DB	115					; 00000073H
	DB	0
_xmlDOMWrapAdoptAttr ENDP
_TEXT	ENDS
; Function compile flags: /Odtp /RTCsu
; File c:\users\dag\documents\_clients\codeproject authors group\windows on arm\libxml2\libxml2-2.9.9\tree.c
;	COMDAT _xmlDOMWrapAdoptBranch
_TEXT	SEGMENT
tv225 = -80						; size = 4
tv216 = -76						; size = 4
tv95 = -72						; size = 4
_old$1 = -68						; size = 4
_ent$2 = -64						; size = 4
_old$3 = -60						; size = 4
_ancestorsOnly$ = -56					; size = 4
_parnsdone$ = -52					; size = 4
_adoptStr$ = -48					; size = 4
_depth$ = -44						; size = 4
_ns$ = -36						; size = 4
_mi$ = -28						; size = 4
_nsMap$ = -20						; size = 4
_curElem$ = -12						; size = 4
_cur$ = -8						; size = 4
_ret$ = -4						; size = 4
_ctxt$ = 8						; size = 4
_sourceDoc$ = 12					; size = 4
_node$ = 16						; size = 4
_destDoc$ = 20						; size = 4
_destParent$ = 24					; size = 4
_options$ = 28						; size = 4
_xmlDOMWrapAdoptBranch PROC				; COMDAT

; 9008 : {

	push	ebp
	mov	ebp, esp
	sub	esp, 80					; 00000050H
	push	esi
	push	edi
	lea	edi, DWORD PTR [ebp-80]
	mov	ecx, 20					; 00000014H
	mov	eax, -858993460				; ccccccccH
	rep stosd
	mov	ecx, OFFSET __59973643_tree@c
	call	@__CheckForDebuggerJustMyCode@4

; 9009 :     int ret = 0;

	mov	DWORD PTR _ret$[ebp], 0

; 9010 :     xmlNodePtr cur, curElem = NULL;

	mov	DWORD PTR _curElem$[ebp], 0

; 9011 :     xmlNsMapPtr nsMap = NULL;

	mov	DWORD PTR _nsMap$[ebp], 0

; 9012 :     xmlNsMapItemPtr mi;
; 9013 :     xmlNsPtr ns = NULL;

	mov	DWORD PTR _ns$[ebp], 0

; 9014 :     int depth = -1, adoptStr = 1;

	mov	DWORD PTR _depth$[ebp], -1
	mov	DWORD PTR _adoptStr$[ebp], 1

; 9015 :     /* gather @parent's ns-decls. */
; 9016 :     int parnsdone;
; 9017 :     /* @ancestorsOnly should be set per option. */
; 9018 :     int ancestorsOnly = 0;

	mov	DWORD PTR _ancestorsOnly$[ebp], 0

; 9019 : 
; 9020 :     /*
; 9021 :     * Optimize string adoption for equal or none dicts.
; 9022 :     */
; 9023 :     if ((sourceDoc != NULL) &&

	cmp	DWORD PTR _sourceDoc$[ebp], 0
	je	SHORT $LN23@xmlDOMWrap
	mov	eax, DWORD PTR _sourceDoc$[ebp]
	mov	ecx, DWORD PTR _destDoc$[ebp]
	mov	edx, DWORD PTR [eax+80]
	cmp	edx, DWORD PTR [ecx+80]
	jne	SHORT $LN23@xmlDOMWrap

; 9024 : 	(sourceDoc->dict == destDoc->dict))
; 9025 : 	adoptStr = 0;

	mov	DWORD PTR _adoptStr$[ebp], 0
	jmp	SHORT $LN24@xmlDOMWrap
$LN23@xmlDOMWrap:

; 9026 :     else
; 9027 : 	adoptStr = 1;

	mov	DWORD PTR _adoptStr$[ebp], 1
$LN24@xmlDOMWrap:

; 9028 : 
; 9029 :     /*
; 9030 :     * Get the ns-map from the context if available.
; 9031 :     */
; 9032 :     if (ctxt)

	cmp	DWORD PTR _ctxt$[ebp], 0
	je	SHORT $LN25@xmlDOMWrap

; 9033 : 	nsMap = (xmlNsMapPtr) ctxt->namespaceMap;

	mov	eax, DWORD PTR _ctxt$[ebp]
	mov	ecx, DWORD PTR [eax+8]
	mov	DWORD PTR _nsMap$[ebp], ecx
$LN25@xmlDOMWrap:

; 9034 :     /*
; 9035 :     * Disable search for ns-decls in the parent-axis of the
; 9036 :     * desination element, if:
; 9037 :     * 1) there's no destination parent
; 9038 :     * 2) custom ns-reference handling is used
; 9039 :     */
; 9040 :     if ((destParent == NULL) ||

	cmp	DWORD PTR _destParent$[ebp], 0
	je	SHORT $LN28@xmlDOMWrap
	cmp	DWORD PTR _ctxt$[ebp], 0
	je	SHORT $LN26@xmlDOMWrap
	mov	edx, DWORD PTR _ctxt$[ebp]
	cmp	DWORD PTR [edx+12], 0
	je	SHORT $LN26@xmlDOMWrap
$LN28@xmlDOMWrap:

; 9041 : 	(ctxt && ctxt->getNsForNodeFunc))
; 9042 :     {
; 9043 : 	parnsdone = 1;

	mov	DWORD PTR _parnsdone$[ebp], 1

; 9044 :     } else

	jmp	SHORT $LN27@xmlDOMWrap
$LN26@xmlDOMWrap:

; 9045 : 	parnsdone = 0;

	mov	DWORD PTR _parnsdone$[ebp], 0
$LN27@xmlDOMWrap:

; 9046 : 
; 9047 :     cur = node;

	mov	eax, DWORD PTR _node$[ebp]
	mov	DWORD PTR _cur$[ebp], eax

; 9048 :     if ((cur != NULL) && (cur->type == XML_NAMESPACE_DECL))

	cmp	DWORD PTR _cur$[ebp], 0
	je	SHORT $LN2@xmlDOMWrap
	mov	ecx, DWORD PTR _cur$[ebp]
	cmp	DWORD PTR [ecx+4], 18			; 00000012H
	jne	SHORT $LN2@xmlDOMWrap

; 9049 : 	goto internal_error;

	jmp	$internal_error$117
$LN2@xmlDOMWrap:

; 9050 : 
; 9051 :     while (cur != NULL) {

	cmp	DWORD PTR _cur$[ebp], 0
	je	$LN3@xmlDOMWrap

; 9052 : 	/*
; 9053 : 	* Paranoid source-doc sanity check.
; 9054 : 	*/
; 9055 : 	if (cur->doc != sourceDoc) {

	mov	edx, DWORD PTR _cur$[ebp]
	mov	eax, DWORD PTR [edx+32]
	cmp	eax, DWORD PTR _sourceDoc$[ebp]
	je	SHORT $LN30@xmlDOMWrap

; 9056 : 	    /*
; 9057 : 	    * We'll assume XIncluded nodes if the doc differs.
; 9058 : 	    * TODO: Do we need to reconciliate XIncluded nodes?
; 9059 : 	    * This here skips XIncluded nodes and tries to handle
; 9060 : 	    * broken sequences.
; 9061 : 	    */
; 9062 : 	    if (cur->next == NULL)

	mov	ecx, DWORD PTR _cur$[ebp]
	cmp	DWORD PTR [ecx+24], 0
	jne	SHORT $LN6@xmlDOMWrap

; 9063 : 		goto leave_node;

	jmp	$leave_node$118
$LN6@xmlDOMWrap:

; 9064 : 	    do {
; 9065 : 		cur = cur->next;

	mov	edx, DWORD PTR _cur$[ebp]
	mov	eax, DWORD PTR [edx+24]
	mov	DWORD PTR _cur$[ebp], eax

; 9066 : 		if ((cur->type == XML_XINCLUDE_END) ||

	mov	ecx, DWORD PTR _cur$[ebp]
	cmp	DWORD PTR [ecx+4], 20			; 00000014H
	je	SHORT $LN33@xmlDOMWrap
	mov	edx, DWORD PTR _cur$[ebp]
	mov	eax, DWORD PTR _node$[ebp]
	mov	ecx, DWORD PTR [edx+32]
	cmp	ecx, DWORD PTR [eax+32]
	jne	SHORT $LN4@xmlDOMWrap
$LN33@xmlDOMWrap:

; 9067 : 		    (cur->doc == node->doc))
; 9068 : 		    break;

	jmp	SHORT $LN5@xmlDOMWrap
$LN4@xmlDOMWrap:

; 9069 : 	    } while (cur->next != NULL);

	mov	edx, DWORD PTR _cur$[ebp]
	cmp	DWORD PTR [edx+24], 0
	jne	SHORT $LN6@xmlDOMWrap
$LN5@xmlDOMWrap:

; 9070 : 
; 9071 : 	    if (cur->doc != node->doc)

	mov	eax, DWORD PTR _cur$[ebp]
	mov	ecx, DWORD PTR _node$[ebp]
	mov	edx, DWORD PTR [eax+32]
	cmp	edx, DWORD PTR [ecx+32]
	je	SHORT $LN30@xmlDOMWrap

; 9072 : 		goto leave_node;

	jmp	$leave_node$118
$LN30@xmlDOMWrap:

; 9073 : 	}
; 9074 : 	cur->doc = destDoc;

	mov	eax, DWORD PTR _cur$[ebp]
	mov	ecx, DWORD PTR _destDoc$[ebp]
	mov	DWORD PTR [eax+32], ecx

; 9075 : 	switch (cur->type) {

	mov	edx, DWORD PTR _cur$[ebp]
	mov	eax, DWORD PTR [edx+4]
	mov	DWORD PTR tv95[ebp], eax
	mov	ecx, DWORD PTR tv95[ebp]
	sub	ecx, 1
	mov	DWORD PTR tv95[ebp], ecx
	cmp	DWORD PTR tv95[ebp], 19			; 00000013H
	ja	$LN84@xmlDOMWrap
	mov	edx, DWORD PTR tv95[ebp]
	movzx	eax, BYTE PTR $LN111@xmlDOMWrap[edx]
	jmp	DWORD PTR $LN116@xmlDOMWrap[eax*4]
$LN35@xmlDOMWrap:

; 9076 : 	    case XML_XINCLUDE_START:
; 9077 : 	    case XML_XINCLUDE_END:
; 9078 : 		/*
; 9079 : 		* TODO
; 9080 : 		*/
; 9081 : 		return (-1);

	or	eax, -1
	jmp	$LN1@xmlDOMWrap
$LN36@xmlDOMWrap:

; 9082 : 	    case XML_ELEMENT_NODE:
; 9083 : 		curElem = cur;

	mov	ecx, DWORD PTR _cur$[ebp]
	mov	DWORD PTR _curElem$[ebp], ecx

; 9084 : 		depth++;

	mov	edx, DWORD PTR _depth$[ebp]
	add	edx, 1
	mov	DWORD PTR _depth$[ebp], edx

; 9085 : 		/*
; 9086 : 		* Namespace declarations.
; 9087 : 		* - ns->href and ns->prefix are never in the dict, so
; 9088 : 		*   we need not move the values over to the destination dict.
; 9089 : 		* - Note that for custom handling of ns-references,
; 9090 : 		*   the ns-decls need not be stored in the ns-map,
; 9091 : 		*   since they won't be referenced by node->ns.
; 9092 : 		*/
; 9093 : 		if ((cur->nsDef) &&

	mov	eax, DWORD PTR _cur$[ebp]
	cmp	DWORD PTR [eax+48], 0
	je	$LN45@xmlDOMWrap
	cmp	DWORD PTR _ctxt$[ebp], 0
	je	SHORT $LN38@xmlDOMWrap
	mov	ecx, DWORD PTR _ctxt$[ebp]
	cmp	DWORD PTR [ecx+12], 0
	jne	$LN45@xmlDOMWrap
$LN38@xmlDOMWrap:

; 9094 : 		    ((ctxt == NULL) || (ctxt->getNsForNodeFunc == NULL)))
; 9095 : 		{
; 9096 : 		    if (! parnsdone) {

	cmp	DWORD PTR _parnsdone$[ebp], 0
	jne	SHORT $LN39@xmlDOMWrap

; 9097 : 			/*
; 9098 : 			* Gather @parent's in-scope ns-decls.
; 9099 : 			*/
; 9100 : 			if (xmlDOMWrapNSNormGatherInScopeNs(&nsMap,
; 9101 : 			    destParent) == -1)

	mov	edx, DWORD PTR _destParent$[ebp]
	push	edx
	lea	eax, DWORD PTR _nsMap$[ebp]
	push	eax
	call	_xmlDOMWrapNSNormGatherInScopeNs
	add	esp, 8
	cmp	eax, -1
	jne	SHORT $LN40@xmlDOMWrap

; 9102 : 			    goto internal_error;

	jmp	$internal_error$117
$LN40@xmlDOMWrap:

; 9103 : 			parnsdone = 1;

	mov	DWORD PTR _parnsdone$[ebp], 1
$LN39@xmlDOMWrap:

; 9104 : 		    }
; 9105 : 		    for (ns = cur->nsDef; ns != NULL; ns = ns->next) {

	mov	ecx, DWORD PTR _cur$[ebp]
	mov	edx, DWORD PTR [ecx+48]
	mov	DWORD PTR _ns$[ebp], edx
	jmp	SHORT $LN11@xmlDOMWrap
$LN9@xmlDOMWrap:
	mov	eax, DWORD PTR _ns$[ebp]
	mov	ecx, DWORD PTR [eax]
	mov	DWORD PTR _ns$[ebp], ecx
$LN11@xmlDOMWrap:
	cmp	DWORD PTR _ns$[ebp], 0
	je	$LN45@xmlDOMWrap

; 9106 : 			/*
; 9107 : 			* NOTE: ns->prefix and ns->href are never in the dict.
; 9108 : 			* XML_TREE_ADOPT_STR(ns->prefix)
; 9109 : 			* XML_TREE_ADOPT_STR(ns->href)
; 9110 : 			*/
; 9111 : 			/*
; 9112 : 			* Does it shadow any ns-decl?
; 9113 : 			*/
; 9114 : 			if (XML_NSMAP_NOTEMPTY(nsMap)) {

	cmp	DWORD PTR _nsMap$[ebp], 0
	je	SHORT $LN41@xmlDOMWrap
	mov	edx, DWORD PTR _nsMap$[ebp]
	cmp	DWORD PTR [edx], 0
	je	SHORT $LN41@xmlDOMWrap

; 9115 : 			    XML_NSMAP_FOREACH(nsMap, mi) {

	mov	eax, DWORD PTR _nsMap$[ebp]
	mov	ecx, DWORD PTR [eax]
	mov	DWORD PTR _mi$[ebp], ecx
	jmp	SHORT $LN14@xmlDOMWrap
$LN12@xmlDOMWrap:
	mov	edx, DWORD PTR _mi$[ebp]
	mov	eax, DWORD PTR [edx]
	mov	DWORD PTR _mi$[ebp], eax
$LN14@xmlDOMWrap:
	cmp	DWORD PTR _mi$[ebp], 0
	je	SHORT $LN41@xmlDOMWrap

; 9116 : 				if ((mi->depth >= XML_TREE_NSMAP_PARENT) &&
; 9117 : 				    (mi->shadowDepth == -1) &&

	mov	ecx, DWORD PTR _mi$[ebp]
	cmp	DWORD PTR [ecx+20], -1
	jl	SHORT $LN42@xmlDOMWrap
	mov	edx, DWORD PTR _mi$[ebp]
	cmp	DWORD PTR [edx+16], -1
	jne	SHORT $LN42@xmlDOMWrap
	mov	eax, DWORD PTR _mi$[ebp]
	mov	ecx, DWORD PTR [eax+12]
	mov	edx, DWORD PTR _ns$[ebp]
	mov	eax, DWORD PTR [edx+12]
	cmp	eax, DWORD PTR [ecx+12]
	je	SHORT $LN43@xmlDOMWrap
	mov	ecx, DWORD PTR _mi$[ebp]
	mov	edx, DWORD PTR [ecx+12]
	mov	eax, DWORD PTR [edx+12]
	push	eax
	mov	ecx, DWORD PTR _ns$[ebp]
	mov	edx, DWORD PTR [ecx+12]
	push	edx
	call	_xmlStrEqual
	add	esp, 8
	test	eax, eax
	je	SHORT $LN42@xmlDOMWrap
$LN43@xmlDOMWrap:

; 9118 : 				    ((ns->prefix == mi->newNs->prefix) ||
; 9119 : 				    xmlStrEqual(ns->prefix,
; 9120 : 				    mi->newNs->prefix))) {
; 9121 : 
; 9122 : 				    mi->shadowDepth = depth;

	mov	eax, DWORD PTR _mi$[ebp]
	mov	ecx, DWORD PTR _depth$[ebp]
	mov	DWORD PTR [eax+16], ecx
$LN42@xmlDOMWrap:

; 9123 : 				}
; 9124 : 			    }

	jmp	SHORT $LN12@xmlDOMWrap
$LN41@xmlDOMWrap:

; 9125 : 			}
; 9126 : 			/*
; 9127 : 			* Push mapping.
; 9128 : 			*/
; 9129 : 			if (xmlDOMWrapNsMapAddItem(&nsMap, -1,
; 9130 : 			    ns, ns, depth) == NULL)

	mov	edx, DWORD PTR _depth$[ebp]
	push	edx
	mov	eax, DWORD PTR _ns$[ebp]
	push	eax
	mov	ecx, DWORD PTR _ns$[ebp]
	push	ecx
	push	-1
	lea	edx, DWORD PTR _nsMap$[ebp]
	push	edx
	call	_xmlDOMWrapNsMapAddItem
	add	esp, 20					; 00000014H
	test	eax, eax
	jne	SHORT $LN44@xmlDOMWrap

; 9131 : 			    goto internal_error;

	jmp	$internal_error$117
$LN44@xmlDOMWrap:

; 9132 : 		    }

	jmp	$LN9@xmlDOMWrap
$LN45@xmlDOMWrap:

; 9133 : 		}
; 9134 :                 /* Falls through. */
; 9135 : 	    case XML_ATTRIBUTE_NODE:
; 9136 : 		/* No namespace, no fun. */
; 9137 : 		if (cur->ns == NULL)

	mov	eax, DWORD PTR _cur$[ebp]
	cmp	DWORD PTR [eax+36], 0
	jne	SHORT $LN46@xmlDOMWrap

; 9138 : 		    goto ns_end;

	jmp	$ns_end$119
$LN46@xmlDOMWrap:

; 9139 : 
; 9140 : 		if (! parnsdone) {

	cmp	DWORD PTR _parnsdone$[ebp], 0
	jne	SHORT $LN47@xmlDOMWrap

; 9141 : 		    if (xmlDOMWrapNSNormGatherInScopeNs(&nsMap,
; 9142 : 			destParent) == -1)

	mov	ecx, DWORD PTR _destParent$[ebp]
	push	ecx
	lea	edx, DWORD PTR _nsMap$[ebp]
	push	edx
	call	_xmlDOMWrapNSNormGatherInScopeNs
	add	esp, 8
	cmp	eax, -1
	jne	SHORT $LN48@xmlDOMWrap

; 9143 : 			goto internal_error;

	jmp	$internal_error$117
$LN48@xmlDOMWrap:

; 9144 : 		    parnsdone = 1;

	mov	DWORD PTR _parnsdone$[ebp], 1
$LN47@xmlDOMWrap:

; 9145 : 		}
; 9146 : 		/*
; 9147 : 		* Adopt ns-references.
; 9148 : 		*/
; 9149 : 		if (XML_NSMAP_NOTEMPTY(nsMap)) {

	cmp	DWORD PTR _nsMap$[ebp], 0
	je	SHORT $LN49@xmlDOMWrap
	mov	eax, DWORD PTR _nsMap$[ebp]
	cmp	DWORD PTR [eax], 0
	je	SHORT $LN49@xmlDOMWrap

; 9150 : 		    /*
; 9151 : 		    * Search for a mapping.
; 9152 : 		    */
; 9153 : 		    XML_NSMAP_FOREACH(nsMap, mi) {

	mov	ecx, DWORD PTR _nsMap$[ebp]
	mov	edx, DWORD PTR [ecx]
	mov	DWORD PTR _mi$[ebp], edx
	jmp	SHORT $LN17@xmlDOMWrap
$LN15@xmlDOMWrap:
	mov	eax, DWORD PTR _mi$[ebp]
	mov	ecx, DWORD PTR [eax]
	mov	DWORD PTR _mi$[ebp], ecx
$LN17@xmlDOMWrap:
	cmp	DWORD PTR _mi$[ebp], 0
	je	SHORT $LN49@xmlDOMWrap

; 9154 : 			if ((mi->shadowDepth == -1) &&

	mov	edx, DWORD PTR _mi$[ebp]
	cmp	DWORD PTR [edx+16], -1
	jne	SHORT $LN50@xmlDOMWrap
	mov	eax, DWORD PTR _cur$[ebp]
	mov	ecx, DWORD PTR _mi$[ebp]
	mov	edx, DWORD PTR [eax+36]
	cmp	edx, DWORD PTR [ecx+8]
	jne	SHORT $LN50@xmlDOMWrap

; 9155 : 			    (cur->ns == mi->oldNs)) {
; 9156 : 
; 9157 : 			    cur->ns = mi->newNs;

	mov	eax, DWORD PTR _cur$[ebp]
	mov	ecx, DWORD PTR _mi$[ebp]
	mov	edx, DWORD PTR [ecx+12]
	mov	DWORD PTR [eax+36], edx

; 9158 : 			    goto ns_end;

	jmp	$ns_end$119
$LN50@xmlDOMWrap:

; 9159 : 			}
; 9160 : 		    }

	jmp	SHORT $LN15@xmlDOMWrap
$LN49@xmlDOMWrap:

; 9161 : 		}
; 9162 : 		/*
; 9163 : 		* No matching namespace in scope. We need a new one.
; 9164 : 		*/
; 9165 : 		if ((ctxt) && (ctxt->getNsForNodeFunc)) {

	cmp	DWORD PTR _ctxt$[ebp], 0
	je	SHORT $LN51@xmlDOMWrap
	mov	eax, DWORD PTR _ctxt$[ebp]
	cmp	DWORD PTR [eax+12], 0
	je	SHORT $LN51@xmlDOMWrap

; 9166 : 		    /*
; 9167 : 		    * User-defined behaviour.
; 9168 : 		    */
; 9169 : 		    ns = ctxt->getNsForNodeFunc(ctxt, cur,

	mov	ecx, DWORD PTR _cur$[ebp]
	mov	edx, DWORD PTR [ecx+36]
	mov	esi, esp
	mov	eax, DWORD PTR [edx+12]
	push	eax
	mov	ecx, DWORD PTR _cur$[ebp]
	mov	edx, DWORD PTR [ecx+36]
	mov	eax, DWORD PTR [edx+8]
	push	eax
	mov	ecx, DWORD PTR _cur$[ebp]
	push	ecx
	mov	edx, DWORD PTR _ctxt$[ebp]
	push	edx
	mov	eax, DWORD PTR _ctxt$[ebp]
	mov	ecx, DWORD PTR [eax+12]
	call	ecx
	add	esp, 16					; 00000010H
	cmp	esi, esp
	call	__RTC_CheckEsp
	mov	DWORD PTR _ns$[ebp], eax

; 9170 : 			cur->ns->href, cur->ns->prefix);
; 9171 : 		    /*
; 9172 : 		    * Insert mapping if ns is available; it's the users fault
; 9173 : 		    * if not.
; 9174 : 		    */
; 9175 : 		    if (xmlDOMWrapNsMapAddItem(&nsMap, -1,
; 9176 : 			    cur->ns, ns, XML_TREE_NSMAP_CUSTOM) == NULL)

	push	-4					; fffffffcH
	mov	edx, DWORD PTR _ns$[ebp]
	push	edx
	mov	eax, DWORD PTR _cur$[ebp]
	mov	ecx, DWORD PTR [eax+36]
	push	ecx
	push	-1
	lea	edx, DWORD PTR _nsMap$[ebp]
	push	edx
	call	_xmlDOMWrapNsMapAddItem
	add	esp, 20					; 00000014H
	test	eax, eax
	jne	SHORT $LN53@xmlDOMWrap

; 9177 : 			goto internal_error;

	jmp	$internal_error$117
$LN53@xmlDOMWrap:

; 9178 : 		    cur->ns = ns;

	mov	eax, DWORD PTR _cur$[ebp]
	mov	ecx, DWORD PTR _ns$[ebp]
	mov	DWORD PTR [eax+36], ecx

; 9179 : 		} else {

	jmp	SHORT $ns_end$119
$LN51@xmlDOMWrap:

; 9180 : 		    /*
; 9181 : 		    * Aquire a normalized ns-decl and add it to the map.
; 9182 : 		    */
; 9183 : 		    if (xmlDOMWrapNSNormAquireNormalizedNs(destDoc,
; 9184 : 			/* ns-decls on curElem or on destDoc->oldNs */
; 9185 : 			destParent ? curElem : NULL,
; 9186 : 			cur->ns, &ns,
; 9187 : 			&nsMap, depth,
; 9188 : 			ancestorsOnly,
; 9189 : 			/* ns-decls must be prefixed for attributes. */
; 9190 : 			(cur->type == XML_ATTRIBUTE_NODE) ? 1 : 0) == -1)

	mov	edx, DWORD PTR _cur$[ebp]
	cmp	DWORD PTR [edx+4], 2
	jne	SHORT $LN103@xmlDOMWrap
	mov	DWORD PTR tv216[ebp], 1
	jmp	SHORT $LN104@xmlDOMWrap
$LN103@xmlDOMWrap:
	mov	DWORD PTR tv216[ebp], 0
$LN104@xmlDOMWrap:
	cmp	DWORD PTR _destParent$[ebp], 0
	je	SHORT $LN105@xmlDOMWrap
	mov	eax, DWORD PTR _curElem$[ebp]
	mov	DWORD PTR tv225[ebp], eax
	jmp	SHORT $LN106@xmlDOMWrap
$LN105@xmlDOMWrap:
	mov	DWORD PTR tv225[ebp], 0
$LN106@xmlDOMWrap:
	mov	ecx, DWORD PTR tv216[ebp]
	push	ecx
	mov	edx, DWORD PTR _ancestorsOnly$[ebp]
	push	edx
	mov	eax, DWORD PTR _depth$[ebp]
	push	eax
	lea	ecx, DWORD PTR _nsMap$[ebp]
	push	ecx
	lea	edx, DWORD PTR _ns$[ebp]
	push	edx
	mov	eax, DWORD PTR _cur$[ebp]
	mov	ecx, DWORD PTR [eax+36]
	push	ecx
	mov	edx, DWORD PTR tv225[ebp]
	push	edx
	mov	eax, DWORD PTR _destDoc$[ebp]
	push	eax
	call	_xmlDOMWrapNSNormAquireNormalizedNs
	add	esp, 32					; 00000020H
	cmp	eax, -1
	jne	SHORT $LN54@xmlDOMWrap

; 9191 : 			goto internal_error;

	jmp	$internal_error$117
$LN54@xmlDOMWrap:

; 9192 : 		    cur->ns = ns;

	mov	ecx, DWORD PTR _cur$[ebp]
	mov	edx, DWORD PTR _ns$[ebp]
	mov	DWORD PTR [ecx+36], edx
$ns_end$119:

; 9193 : 		}
; 9194 : ns_end:
; 9195 : 		/*
; 9196 : 		* Further node properties.
; 9197 : 		* TODO: Is this all?
; 9198 : 		*/
; 9199 : 		XML_TREE_ADOPT_STR(cur->name)

	cmp	DWORD PTR _adoptStr$[ebp], 0
	je	$LN55@xmlDOMWrap
	mov	eax, DWORD PTR _cur$[ebp]
	cmp	DWORD PTR [eax+8], 0
	je	$LN55@xmlDOMWrap
	mov	ecx, DWORD PTR _destDoc$[ebp]
	cmp	DWORD PTR [ecx+80], 0
	je	SHORT $LN56@xmlDOMWrap
	mov	edx, DWORD PTR _cur$[ebp]
	mov	eax, DWORD PTR [edx+8]
	mov	DWORD PTR _old$3[ebp], eax
	push	-1
	mov	ecx, DWORD PTR _cur$[ebp]
	mov	edx, DWORD PTR [ecx+8]
	push	edx
	mov	eax, DWORD PTR _destDoc$[ebp]
	mov	ecx, DWORD PTR [eax+80]
	push	ecx
	call	_xmlDictLookup
	add	esp, 12					; 0000000cH
	mov	edx, DWORD PTR _cur$[ebp]
	mov	DWORD PTR [edx+8], eax
	cmp	DWORD PTR _sourceDoc$[ebp], 0
	je	SHORT $LN59@xmlDOMWrap
	mov	eax, DWORD PTR _sourceDoc$[ebp]
	cmp	DWORD PTR [eax+80], 0
	je	SHORT $LN59@xmlDOMWrap
	mov	ecx, DWORD PTR _old$3[ebp]
	push	ecx
	mov	edx, DWORD PTR _sourceDoc$[ebp]
	mov	eax, DWORD PTR [edx+80]
	push	eax
	call	_xmlDictOwns
	add	esp, 8
	test	eax, eax
	jne	SHORT $LN58@xmlDOMWrap
$LN59@xmlDOMWrap:
	mov	esi, esp
	mov	ecx, DWORD PTR _old$3[ebp]
	push	ecx
	call	DWORD PTR _xmlFree
	add	esp, 4
	cmp	esi, esp
	call	__RTC_CheckEsp
$LN58@xmlDOMWrap:
	jmp	SHORT $LN55@xmlDOMWrap
$LN56@xmlDOMWrap:
	cmp	DWORD PTR _sourceDoc$[ebp], 0
	je	SHORT $LN55@xmlDOMWrap
	mov	edx, DWORD PTR _sourceDoc$[ebp]
	cmp	DWORD PTR [edx+80], 0
	je	SHORT $LN55@xmlDOMWrap
	mov	eax, DWORD PTR _cur$[ebp]
	mov	ecx, DWORD PTR [eax+8]
	push	ecx
	mov	edx, DWORD PTR _sourceDoc$[ebp]
	mov	eax, DWORD PTR [edx+80]
	push	eax
	call	_xmlDictOwns
	add	esp, 8
	test	eax, eax
	je	SHORT $LN55@xmlDOMWrap
	mov	ecx, DWORD PTR _cur$[ebp]
	mov	edx, DWORD PTR [ecx+8]
	push	edx
	call	_xmlStrdup
	add	esp, 4
	mov	ecx, DWORD PTR _cur$[ebp]
	mov	DWORD PTR [ecx+8], eax
$LN55@xmlDOMWrap:

; 9200 : 		if (cur->type == XML_ELEMENT_NODE) {

	mov	edx, DWORD PTR _cur$[ebp]
	cmp	DWORD PTR [edx+4], 1
	jne	SHORT $LN61@xmlDOMWrap

; 9201 : 		    cur->psvi = NULL;

	mov	eax, DWORD PTR _cur$[ebp]
	mov	DWORD PTR [eax+52], 0

; 9202 : 		    cur->line = 0;

	xor	ecx, ecx
	mov	edx, DWORD PTR _cur$[ebp]
	mov	WORD PTR [edx+56], cx

; 9203 : 		    cur->extra = 0;

	xor	eax, eax
	mov	ecx, DWORD PTR _cur$[ebp]
	mov	WORD PTR [ecx+58], ax

; 9204 : 		    /*
; 9205 : 		    * Walk attributes.
; 9206 : 		    */
; 9207 : 		    if (cur->properties != NULL) {

	mov	edx, DWORD PTR _cur$[ebp]
	cmp	DWORD PTR [edx+44], 0
	je	SHORT $LN63@xmlDOMWrap

; 9208 : 			/*
; 9209 : 			* Process first attribute node.
; 9210 : 			*/
; 9211 : 			cur = (xmlNodePtr) cur->properties;

	mov	eax, DWORD PTR _cur$[ebp]
	mov	ecx, DWORD PTR [eax+44]
	mov	DWORD PTR _cur$[ebp], ecx

; 9212 : 			continue;

	jmp	$LN2@xmlDOMWrap
$LN63@xmlDOMWrap:

; 9213 : 		    }
; 9214 : 		} else {

	jmp	SHORT $LN62@xmlDOMWrap
$LN61@xmlDOMWrap:

; 9215 : 		    /*
; 9216 : 		    * Attributes.
; 9217 : 		    */
; 9218 : 		    if ((sourceDoc != NULL) &&

	cmp	DWORD PTR _sourceDoc$[ebp], 0
	je	SHORT $LN64@xmlDOMWrap
	mov	edx, DWORD PTR _cur$[ebp]
	cmp	DWORD PTR [edx+40], 2
	jne	SHORT $LN64@xmlDOMWrap

; 9219 : 			(((xmlAttrPtr) cur)->atype == XML_ATTRIBUTE_ID))
; 9220 : 		    {
; 9221 : 			xmlRemoveID(sourceDoc, (xmlAttrPtr) cur);

	mov	eax, DWORD PTR _cur$[ebp]
	push	eax
	mov	ecx, DWORD PTR _sourceDoc$[ebp]
	push	ecx
	call	_xmlRemoveID
	add	esp, 8
$LN64@xmlDOMWrap:

; 9222 : 		    }
; 9223 : 		    ((xmlAttrPtr) cur)->atype = 0;

	mov	edx, DWORD PTR _cur$[ebp]
	mov	DWORD PTR [edx+40], 0

; 9224 : 		    ((xmlAttrPtr) cur)->psvi = NULL;

	mov	eax, DWORD PTR _cur$[ebp]
	mov	DWORD PTR [eax+44], 0
$LN62@xmlDOMWrap:

; 9225 : 		}
; 9226 : 		break;

	jmp	$LN7@xmlDOMWrap
$LN65@xmlDOMWrap:

; 9227 : 	    case XML_TEXT_NODE:
; 9228 : 	    case XML_CDATA_SECTION_NODE:
; 9229 : 		/*
; 9230 : 		* This puts the content in the dest dict, only if
; 9231 : 		* it was previously in the source dict.
; 9232 : 		*/
; 9233 : 		XML_TREE_ADOPT_STR_2(cur->content)

	cmp	DWORD PTR _adoptStr$[ebp], 0
	je	SHORT $LN66@xmlDOMWrap
	mov	ecx, DWORD PTR _cur$[ebp]
	cmp	DWORD PTR [ecx+40], 0
	je	SHORT $LN66@xmlDOMWrap
	cmp	DWORD PTR _sourceDoc$[ebp], 0
	je	SHORT $LN66@xmlDOMWrap
	mov	edx, DWORD PTR _sourceDoc$[ebp]
	cmp	DWORD PTR [edx+80], 0
	je	SHORT $LN66@xmlDOMWrap
	mov	eax, DWORD PTR _cur$[ebp]
	mov	ecx, DWORD PTR [eax+40]
	push	ecx
	mov	edx, DWORD PTR _sourceDoc$[ebp]
	mov	eax, DWORD PTR [edx+80]
	push	eax
	call	_xmlDictOwns
	add	esp, 8
	test	eax, eax
	je	SHORT $LN66@xmlDOMWrap
	mov	ecx, DWORD PTR _destDoc$[ebp]
	cmp	DWORD PTR [ecx+80], 0
	je	SHORT $LN67@xmlDOMWrap
	push	-1
	mov	edx, DWORD PTR _cur$[ebp]
	mov	eax, DWORD PTR [edx+40]
	push	eax
	mov	ecx, DWORD PTR _destDoc$[ebp]
	mov	edx, DWORD PTR [ecx+80]
	push	edx
	call	_xmlDictLookup
	add	esp, 12					; 0000000cH
	mov	ecx, DWORD PTR _cur$[ebp]
	mov	DWORD PTR [ecx+40], eax
	jmp	SHORT $LN66@xmlDOMWrap
$LN67@xmlDOMWrap:
	mov	edx, DWORD PTR _cur$[ebp]
	mov	eax, DWORD PTR [edx+40]
	push	eax
	call	_xmlStrdup
	add	esp, 4
	mov	ecx, DWORD PTR _cur$[ebp]
	mov	DWORD PTR [ecx+40], eax
$LN66@xmlDOMWrap:

; 9234 : 		goto leave_node;

	jmp	$leave_node$118
$LN69@xmlDOMWrap:

; 9235 : 	    case XML_ENTITY_REF_NODE:
; 9236 : 		/*
; 9237 : 		* Remove reference to the entitity-node.
; 9238 : 		*/
; 9239 : 		cur->content = NULL;

	mov	edx, DWORD PTR _cur$[ebp]
	mov	DWORD PTR [edx+40], 0

; 9240 : 		cur->children = NULL;

	mov	eax, DWORD PTR _cur$[ebp]
	mov	DWORD PTR [eax+12], 0

; 9241 : 		cur->last = NULL;

	mov	ecx, DWORD PTR _cur$[ebp]
	mov	DWORD PTR [ecx+16], 0

; 9242 : 		if ((destDoc->intSubset) || (destDoc->extSubset)) {

	mov	edx, DWORD PTR _destDoc$[ebp]
	cmp	DWORD PTR [edx+44], 0
	jne	SHORT $LN71@xmlDOMWrap
	mov	eax, DWORD PTR _destDoc$[ebp]
	cmp	DWORD PTR [eax+48], 0
	je	SHORT $LN70@xmlDOMWrap
$LN71@xmlDOMWrap:

; 9243 : 		    xmlEntityPtr ent;
; 9244 : 		    /*
; 9245 : 		    * Assign new entity-node if available.
; 9246 : 		    */
; 9247 : 		    ent = xmlGetDocEntity(destDoc, cur->name);

	mov	ecx, DWORD PTR _cur$[ebp]
	mov	edx, DWORD PTR [ecx+8]
	push	edx
	mov	eax, DWORD PTR _destDoc$[ebp]
	push	eax
	call	_xmlGetDocEntity
	add	esp, 8
	mov	DWORD PTR _ent$2[ebp], eax

; 9248 : 		    if (ent != NULL) {

	cmp	DWORD PTR _ent$2[ebp], 0
	je	SHORT $LN70@xmlDOMWrap

; 9249 : 			cur->content = ent->content;

	mov	ecx, DWORD PTR _cur$[ebp]
	mov	edx, DWORD PTR _ent$2[ebp]
	mov	eax, DWORD PTR [edx+40]
	mov	DWORD PTR [ecx+40], eax

; 9250 : 			cur->children = (xmlNodePtr) ent;

	mov	ecx, DWORD PTR _cur$[ebp]
	mov	edx, DWORD PTR _ent$2[ebp]
	mov	DWORD PTR [ecx+12], edx

; 9251 : 			cur->last = (xmlNodePtr) ent;

	mov	eax, DWORD PTR _cur$[ebp]
	mov	ecx, DWORD PTR _ent$2[ebp]
	mov	DWORD PTR [eax+16], ecx
$LN70@xmlDOMWrap:

; 9252 : 		    }
; 9253 : 		}
; 9254 : 		goto leave_node;

	jmp	$leave_node$118
$LN73@xmlDOMWrap:

; 9255 : 	    case XML_PI_NODE:
; 9256 : 		XML_TREE_ADOPT_STR(cur->name)

	cmp	DWORD PTR _adoptStr$[ebp], 0
	je	$LN74@xmlDOMWrap
	mov	edx, DWORD PTR _cur$[ebp]
	cmp	DWORD PTR [edx+8], 0
	je	$LN74@xmlDOMWrap
	mov	eax, DWORD PTR _destDoc$[ebp]
	cmp	DWORD PTR [eax+80], 0
	je	SHORT $LN75@xmlDOMWrap
	mov	ecx, DWORD PTR _cur$[ebp]
	mov	edx, DWORD PTR [ecx+8]
	mov	DWORD PTR _old$1[ebp], edx
	push	-1
	mov	eax, DWORD PTR _cur$[ebp]
	mov	ecx, DWORD PTR [eax+8]
	push	ecx
	mov	edx, DWORD PTR _destDoc$[ebp]
	mov	eax, DWORD PTR [edx+80]
	push	eax
	call	_xmlDictLookup
	add	esp, 12					; 0000000cH
	mov	ecx, DWORD PTR _cur$[ebp]
	mov	DWORD PTR [ecx+8], eax
	cmp	DWORD PTR _sourceDoc$[ebp], 0
	je	SHORT $LN78@xmlDOMWrap
	mov	edx, DWORD PTR _sourceDoc$[ebp]
	cmp	DWORD PTR [edx+80], 0
	je	SHORT $LN78@xmlDOMWrap
	mov	eax, DWORD PTR _old$1[ebp]
	push	eax
	mov	ecx, DWORD PTR _sourceDoc$[ebp]
	mov	edx, DWORD PTR [ecx+80]
	push	edx
	call	_xmlDictOwns
	add	esp, 8
	test	eax, eax
	jne	SHORT $LN77@xmlDOMWrap
$LN78@xmlDOMWrap:
	mov	esi, esp
	mov	eax, DWORD PTR _old$1[ebp]
	push	eax
	call	DWORD PTR _xmlFree
	add	esp, 4
	cmp	esi, esp
	call	__RTC_CheckEsp
$LN77@xmlDOMWrap:
	jmp	SHORT $LN74@xmlDOMWrap
$LN75@xmlDOMWrap:
	cmp	DWORD PTR _sourceDoc$[ebp], 0
	je	SHORT $LN74@xmlDOMWrap
	mov	ecx, DWORD PTR _sourceDoc$[ebp]
	cmp	DWORD PTR [ecx+80], 0
	je	SHORT $LN74@xmlDOMWrap
	mov	edx, DWORD PTR _cur$[ebp]
	mov	eax, DWORD PTR [edx+8]
	push	eax
	mov	ecx, DWORD PTR _sourceDoc$[ebp]
	mov	edx, DWORD PTR [ecx+80]
	push	edx
	call	_xmlDictOwns
	add	esp, 8
	test	eax, eax
	je	SHORT $LN74@xmlDOMWrap
	mov	eax, DWORD PTR _cur$[ebp]
	mov	ecx, DWORD PTR [eax+8]
	push	ecx
	call	_xmlStrdup
	add	esp, 4
	mov	edx, DWORD PTR _cur$[ebp]
	mov	DWORD PTR [edx+8], eax
$LN74@xmlDOMWrap:

; 9257 : 		XML_TREE_ADOPT_STR_2(cur->content)

	cmp	DWORD PTR _adoptStr$[ebp], 0
	je	SHORT $LN80@xmlDOMWrap
	mov	eax, DWORD PTR _cur$[ebp]
	cmp	DWORD PTR [eax+40], 0
	je	SHORT $LN80@xmlDOMWrap
	cmp	DWORD PTR _sourceDoc$[ebp], 0
	je	SHORT $LN80@xmlDOMWrap
	mov	ecx, DWORD PTR _sourceDoc$[ebp]
	cmp	DWORD PTR [ecx+80], 0
	je	SHORT $LN80@xmlDOMWrap
	mov	edx, DWORD PTR _cur$[ebp]
	mov	eax, DWORD PTR [edx+40]
	push	eax
	mov	ecx, DWORD PTR _sourceDoc$[ebp]
	mov	edx, DWORD PTR [ecx+80]
	push	edx
	call	_xmlDictOwns
	add	esp, 8
	test	eax, eax
	je	SHORT $LN80@xmlDOMWrap
	mov	eax, DWORD PTR _destDoc$[ebp]
	cmp	DWORD PTR [eax+80], 0
	je	SHORT $LN81@xmlDOMWrap
	push	-1
	mov	ecx, DWORD PTR _cur$[ebp]
	mov	edx, DWORD PTR [ecx+40]
	push	edx
	mov	eax, DWORD PTR _destDoc$[ebp]
	mov	ecx, DWORD PTR [eax+80]
	push	ecx
	call	_xmlDictLookup
	add	esp, 12					; 0000000cH
	mov	edx, DWORD PTR _cur$[ebp]
	mov	DWORD PTR [edx+40], eax
	jmp	SHORT $LN80@xmlDOMWrap
$LN81@xmlDOMWrap:
	mov	eax, DWORD PTR _cur$[ebp]
	mov	ecx, DWORD PTR [eax+40]
	push	ecx
	call	_xmlStrdup
	add	esp, 4
	mov	edx, DWORD PTR _cur$[ebp]
	mov	DWORD PTR [edx+40], eax
$LN80@xmlDOMWrap:

; 9258 : 		break;

	jmp	SHORT $LN7@xmlDOMWrap
$LN83@xmlDOMWrap:

; 9259 : 	    case XML_COMMENT_NODE:
; 9260 : 		break;

	jmp	SHORT $LN7@xmlDOMWrap
$LN84@xmlDOMWrap:

; 9261 : 	    default:
; 9262 : 		goto internal_error;

	jmp	$internal_error$117
$LN7@xmlDOMWrap:

; 9263 : 	}
; 9264 : 	/*
; 9265 : 	* Walk the tree.
; 9266 : 	*/
; 9267 : 	if (cur->children != NULL) {

	mov	eax, DWORD PTR _cur$[ebp]
	cmp	DWORD PTR [eax+12], 0
	je	SHORT $leave_node$118

; 9268 : 	    cur = cur->children;

	mov	ecx, DWORD PTR _cur$[ebp]
	mov	edx, DWORD PTR [ecx+12]
	mov	DWORD PTR _cur$[ebp], edx

; 9269 : 	    continue;

	jmp	$LN2@xmlDOMWrap
$leave_node$118:

; 9270 : 	}
; 9271 : 
; 9272 : leave_node:
; 9273 : 	if (cur == node)

	mov	eax, DWORD PTR _cur$[ebp]
	cmp	eax, DWORD PTR _node$[ebp]
	jne	SHORT $LN86@xmlDOMWrap

; 9274 : 	    break;

	jmp	$LN3@xmlDOMWrap
$LN86@xmlDOMWrap:

; 9275 : 	if ((cur->type == XML_ELEMENT_NODE) ||
; 9276 : 	    (cur->type == XML_XINCLUDE_START) ||

	mov	ecx, DWORD PTR _cur$[ebp]
	cmp	DWORD PTR [ecx+4], 1
	je	SHORT $LN88@xmlDOMWrap
	mov	edx, DWORD PTR _cur$[ebp]
	cmp	DWORD PTR [edx+4], 19			; 00000013H
	je	SHORT $LN88@xmlDOMWrap
	mov	eax, DWORD PTR _cur$[ebp]
	cmp	DWORD PTR [eax+4], 20			; 00000014H
	jne	$LN87@xmlDOMWrap
$LN88@xmlDOMWrap:

; 9277 : 	    (cur->type == XML_XINCLUDE_END))
; 9278 : 	{
; 9279 : 	    /*
; 9280 : 	    * TODO: Do we expect nsDefs on XML_XINCLUDE_START?
; 9281 : 	    */
; 9282 : 	    if (XML_NSMAP_NOTEMPTY(nsMap)) {

	cmp	DWORD PTR _nsMap$[ebp], 0
	je	$LN89@xmlDOMWrap
	mov	ecx, DWORD PTR _nsMap$[ebp]
	cmp	DWORD PTR [ecx], 0
	je	$LN89@xmlDOMWrap
$LL18@xmlDOMWrap:

; 9283 : 		/*
; 9284 : 		* Pop mappings.
; 9285 : 		*/
; 9286 : 		while ((nsMap->last != NULL) &&

	mov	edx, DWORD PTR _nsMap$[ebp]
	cmp	DWORD PTR [edx+4], 0
	je	SHORT $LN19@xmlDOMWrap
	mov	eax, DWORD PTR _nsMap$[ebp]
	mov	ecx, DWORD PTR [eax+4]
	mov	edx, DWORD PTR [ecx+20]
	cmp	edx, DWORD PTR _depth$[ebp]
	jl	SHORT $LN19@xmlDOMWrap

; 9287 : 		    (nsMap->last->depth >= depth))
; 9288 : 		{
; 9289 : 		    XML_NSMAP_POP(nsMap, mi)

	mov	eax, DWORD PTR _nsMap$[ebp]
	mov	ecx, DWORD PTR [eax+4]
	mov	DWORD PTR _mi$[ebp], ecx
	mov	edx, DWORD PTR _nsMap$[ebp]
	mov	eax, DWORD PTR _mi$[ebp]
	mov	ecx, DWORD PTR [eax+4]
	mov	DWORD PTR [edx+4], ecx
	mov	edx, DWORD PTR _nsMap$[ebp]
	cmp	DWORD PTR [edx+4], 0
	jne	SHORT $LN90@xmlDOMWrap
	mov	eax, DWORD PTR _nsMap$[ebp]
	mov	DWORD PTR [eax], 0
	jmp	SHORT $LN91@xmlDOMWrap
$LN90@xmlDOMWrap:
	mov	ecx, DWORD PTR _nsMap$[ebp]
	mov	edx, DWORD PTR [ecx+4]
	mov	DWORD PTR [edx], 0
$LN91@xmlDOMWrap:
	mov	eax, DWORD PTR _mi$[ebp]
	mov	ecx, DWORD PTR _nsMap$[ebp]
	mov	edx, DWORD PTR [ecx+8]
	mov	DWORD PTR [eax], edx
	mov	eax, DWORD PTR _nsMap$[ebp]
	mov	ecx, DWORD PTR _mi$[ebp]
	mov	DWORD PTR [eax+8], ecx

; 9290 : 		}

	jmp	SHORT $LL18@xmlDOMWrap
$LN19@xmlDOMWrap:

; 9291 : 		/*
; 9292 : 		* Unshadow.
; 9293 : 		*/
; 9294 : 		XML_NSMAP_FOREACH(nsMap, mi) {

	mov	edx, DWORD PTR _nsMap$[ebp]
	mov	eax, DWORD PTR [edx]
	mov	DWORD PTR _mi$[ebp], eax
	jmp	SHORT $LN22@xmlDOMWrap
$LN20@xmlDOMWrap:
	mov	ecx, DWORD PTR _mi$[ebp]
	mov	edx, DWORD PTR [ecx]
	mov	DWORD PTR _mi$[ebp], edx
$LN22@xmlDOMWrap:
	cmp	DWORD PTR _mi$[ebp], 0
	je	SHORT $LN89@xmlDOMWrap

; 9295 : 		    if (mi->shadowDepth >= depth)

	mov	eax, DWORD PTR _mi$[ebp]
	mov	ecx, DWORD PTR [eax+16]
	cmp	ecx, DWORD PTR _depth$[ebp]
	jl	SHORT $LN92@xmlDOMWrap

; 9296 : 			mi->shadowDepth = -1;

	mov	edx, DWORD PTR _mi$[ebp]
	mov	DWORD PTR [edx+16], -1
$LN92@xmlDOMWrap:

; 9297 : 		}

	jmp	SHORT $LN20@xmlDOMWrap
$LN89@xmlDOMWrap:

; 9298 : 	    }
; 9299 : 	    depth--;

	mov	eax, DWORD PTR _depth$[ebp]
	sub	eax, 1
	mov	DWORD PTR _depth$[ebp], eax
$LN87@xmlDOMWrap:

; 9300 : 	}
; 9301 : 	if (cur->next != NULL)

	mov	ecx, DWORD PTR _cur$[ebp]
	cmp	DWORD PTR [ecx+24], 0
	je	SHORT $LN93@xmlDOMWrap

; 9302 : 	    cur = cur->next;

	mov	edx, DWORD PTR _cur$[ebp]
	mov	eax, DWORD PTR [edx+24]
	mov	DWORD PTR _cur$[ebp], eax
	jmp	SHORT $LN94@xmlDOMWrap
$LN93@xmlDOMWrap:

; 9303 : 	else if ((cur->type == XML_ATTRIBUTE_NODE) &&

	mov	ecx, DWORD PTR _cur$[ebp]
	cmp	DWORD PTR [ecx+4], 2
	jne	SHORT $LN95@xmlDOMWrap
	mov	edx, DWORD PTR _cur$[ebp]
	mov	eax, DWORD PTR [edx+20]
	cmp	DWORD PTR [eax+12], 0
	je	SHORT $LN95@xmlDOMWrap

; 9304 : 	    (cur->parent->children != NULL))
; 9305 : 	{
; 9306 : 	    cur = cur->parent->children;

	mov	ecx, DWORD PTR _cur$[ebp]
	mov	edx, DWORD PTR [ecx+20]
	mov	eax, DWORD PTR [edx+12]
	mov	DWORD PTR _cur$[ebp], eax

; 9307 : 	} else {

	jmp	SHORT $LN94@xmlDOMWrap
$LN95@xmlDOMWrap:

; 9308 : 	    cur = cur->parent;

	mov	ecx, DWORD PTR _cur$[ebp]
	mov	edx, DWORD PTR [ecx+20]
	mov	DWORD PTR _cur$[ebp], edx

; 9309 : 	    goto leave_node;

	jmp	$leave_node$118
$LN94@xmlDOMWrap:

; 9310 : 	}
; 9311 :     }

	jmp	$LN2@xmlDOMWrap
$LN3@xmlDOMWrap:

; 9312 : 
; 9313 :     goto exit;

	jmp	SHORT $exit$120
$internal_error$117:

; 9314 : 
; 9315 : internal_error:
; 9316 :     ret = -1;

	mov	DWORD PTR _ret$[ebp], -1
$exit$120:

; 9317 : 
; 9318 : exit:
; 9319 :     /*
; 9320 :     * Cleanup.
; 9321 :     */
; 9322 :     if (nsMap != NULL) {

	cmp	DWORD PTR _nsMap$[ebp], 0
	je	SHORT $LN97@xmlDOMWrap

; 9323 : 	if ((ctxt) && (ctxt->namespaceMap == nsMap)) {

	cmp	DWORD PTR _ctxt$[ebp], 0
	je	SHORT $LN98@xmlDOMWrap
	mov	eax, DWORD PTR _ctxt$[ebp]
	mov	ecx, DWORD PTR [eax+8]
	cmp	ecx, DWORD PTR _nsMap$[ebp]
	jne	SHORT $LN98@xmlDOMWrap

; 9324 : 	    /*
; 9325 : 	    * Just cleanup the map but don't free.
; 9326 : 	    */
; 9327 : 	    if (nsMap->first) {

	mov	edx, DWORD PTR _nsMap$[ebp]
	cmp	DWORD PTR [edx], 0
	je	SHORT $LN100@xmlDOMWrap

; 9328 : 		if (nsMap->pool)

	mov	eax, DWORD PTR _nsMap$[ebp]
	cmp	DWORD PTR [eax+8], 0
	je	SHORT $LN101@xmlDOMWrap

; 9329 : 		    nsMap->last->next = nsMap->pool;

	mov	ecx, DWORD PTR _nsMap$[ebp]
	mov	edx, DWORD PTR [ecx+4]
	mov	eax, DWORD PTR _nsMap$[ebp]
	mov	ecx, DWORD PTR [eax+8]
	mov	DWORD PTR [edx], ecx
$LN101@xmlDOMWrap:

; 9330 : 		nsMap->pool = nsMap->first;

	mov	edx, DWORD PTR _nsMap$[ebp]
	mov	eax, DWORD PTR _nsMap$[ebp]
	mov	ecx, DWORD PTR [eax]
	mov	DWORD PTR [edx+8], ecx

; 9331 : 		nsMap->first = NULL;

	mov	edx, DWORD PTR _nsMap$[ebp]
	mov	DWORD PTR [edx], 0
$LN100@xmlDOMWrap:

; 9332 : 	    }
; 9333 : 	} else

	jmp	SHORT $LN97@xmlDOMWrap
$LN98@xmlDOMWrap:

; 9334 : 	    xmlDOMWrapNsMapFree(nsMap);

	mov	eax, DWORD PTR _nsMap$[ebp]
	push	eax
	call	_xmlDOMWrapNsMapFree
	add	esp, 4
$LN97@xmlDOMWrap:

; 9335 :     }
; 9336 :     return(ret);

	mov	eax, DWORD PTR _ret$[ebp]
$LN1@xmlDOMWrap:

; 9337 : }

	push	edx
	mov	ecx, ebp
	push	eax
	lea	edx, DWORD PTR $LN115@xmlDOMWrap
	call	@_RTC_CheckStackVars@8
	pop	eax
	pop	edx
	pop	edi
	pop	esi
	add	esp, 80					; 00000050H
	cmp	ebp, esp
	call	__RTC_CheckEsp
	mov	esp, ebp
	pop	ebp
	ret	0
$LN115@xmlDOMWrap:
	DD	2
	DD	$LN114@xmlDOMWrap
$LN114@xmlDOMWrap:
	DD	-20					; ffffffecH
	DD	4
	DD	$LN112@xmlDOMWrap
	DD	-36					; ffffffdcH
	DD	4
	DD	$LN113@xmlDOMWrap
$LN113@xmlDOMWrap:
	DB	110					; 0000006eH
	DB	115					; 00000073H
	DB	0
$LN112@xmlDOMWrap:
	DB	110					; 0000006eH
	DB	115					; 00000073H
	DB	77					; 0000004dH
	DB	97					; 00000061H
	DB	112					; 00000070H
	DB	0
	npad	3
$LN116@xmlDOMWrap:
	DD	$LN36@xmlDOMWrap
	DD	$LN45@xmlDOMWrap
	DD	$LN65@xmlDOMWrap
	DD	$LN69@xmlDOMWrap
	DD	$LN73@xmlDOMWrap
	DD	$LN83@xmlDOMWrap
	DD	$LN35@xmlDOMWrap
	DD	$LN84@xmlDOMWrap
$LN111@xmlDOMWrap:
	DB	0
	DB	1
	DB	2
	DB	2
	DB	3
	DB	7
	DB	4
	DB	5
	DB	7
	DB	7
	DB	7
	DB	7
	DB	7
	DB	7
	DB	7
	DB	7
	DB	7
	DB	7
	DB	6
	DB	6
_xmlDOMWrapAdoptBranch ENDP
_TEXT	ENDS
; Function compile flags: /Odtp /RTCsu
; File c:\users\dag\documents\_clients\codeproject authors group\windows on arm\libxml2\libxml2-2.9.9\tree.c
;	COMDAT _xmlDOMWrapNSNormAquireNormalizedNs
_TEXT	SEGMENT
_tmpns$1 = -12						; size = 4
_tmpns$2 = -8						; size = 4
_mi$ = -4						; size = 4
_doc$ = 8						; size = 4
_elem$ = 12						; size = 4
_ns$ = 16						; size = 4
_retNs$ = 20						; size = 4
_nsMap$ = 24						; size = 4
_depth$ = 28						; size = 4
_ancestorsOnly$ = 32					; size = 4
_prefixed$ = 36						; size = 4
_xmlDOMWrapNSNormAquireNormalizedNs PROC		; COMDAT

; 8606 : {

	push	ebp
	mov	ebp, esp
	sub	esp, 12					; 0000000cH
	mov	DWORD PTR [ebp-12], -858993460		; ccccccccH
	mov	DWORD PTR [ebp-8], -858993460		; ccccccccH
	mov	DWORD PTR [ebp-4], -858993460		; ccccccccH
	mov	ecx, OFFSET __59973643_tree@c
	call	@__CheckForDebuggerJustMyCode@4

; 8607 :     xmlNsMapItemPtr mi;
; 8608 : 
; 8609 :     if ((doc == NULL) || (ns == NULL) || (retNs == NULL) ||

	cmp	DWORD PTR _doc$[ebp], 0
	je	SHORT $LN9@xmlDOMWrap
	cmp	DWORD PTR _ns$[ebp], 0
	je	SHORT $LN9@xmlDOMWrap
	cmp	DWORD PTR _retNs$[ebp], 0
	je	SHORT $LN9@xmlDOMWrap
	cmp	DWORD PTR _nsMap$[ebp], 0
	jne	SHORT $LN8@xmlDOMWrap
$LN9@xmlDOMWrap:

; 8610 : 	(nsMap == NULL))
; 8611 : 	return (-1);

	or	eax, -1
	jmp	$LN1@xmlDOMWrap
$LN8@xmlDOMWrap:

; 8612 : 
; 8613 :     *retNs = NULL;

	mov	eax, DWORD PTR _retNs$[ebp]
	mov	DWORD PTR [eax], 0

; 8614 :     /*
; 8615 :     * Handle XML namespace.
; 8616 :     */
; 8617 :     if (IS_STR_XML(ns->prefix)) {

	mov	ecx, DWORD PTR _ns$[ebp]
	cmp	DWORD PTR [ecx+12], 0
	je	$LN10@xmlDOMWrap
	mov	edx, 1
	imul	eax, edx, 0
	mov	ecx, DWORD PTR _ns$[ebp]
	mov	edx, DWORD PTR [ecx+12]
	movzx	eax, BYTE PTR [edx+eax]
	cmp	eax, 120				; 00000078H
	jne	SHORT $LN10@xmlDOMWrap
	mov	ecx, 1
	shl	ecx, 0
	mov	edx, DWORD PTR _ns$[ebp]
	mov	eax, DWORD PTR [edx+12]
	movzx	ecx, BYTE PTR [eax+ecx]
	cmp	ecx, 109				; 0000006dH
	jne	SHORT $LN10@xmlDOMWrap
	mov	edx, 1
	shl	edx, 1
	mov	eax, DWORD PTR _ns$[ebp]
	mov	ecx, DWORD PTR [eax+12]
	movzx	edx, BYTE PTR [ecx+edx]
	cmp	edx, 108				; 0000006cH
	jne	SHORT $LN10@xmlDOMWrap
	mov	eax, 1
	imul	ecx, eax, 3
	mov	edx, DWORD PTR _ns$[ebp]
	mov	eax, DWORD PTR [edx+12]
	movzx	ecx, BYTE PTR [eax+ecx]
	test	ecx, ecx
	jne	SHORT $LN10@xmlDOMWrap

; 8618 : 	/*
; 8619 : 	* Insert XML namespace mapping.
; 8620 : 	*/
; 8621 : 	*retNs = xmlTreeEnsureXMLDecl(doc);

	mov	edx, DWORD PTR _doc$[ebp]
	push	edx
	call	_xmlTreeEnsureXMLDecl
	add	esp, 4
	mov	ecx, DWORD PTR _retNs$[ebp]
	mov	DWORD PTR [ecx], eax

; 8622 : 	if (*retNs == NULL)

	mov	edx, DWORD PTR _retNs$[ebp]
	cmp	DWORD PTR [edx], 0
	jne	SHORT $LN11@xmlDOMWrap

; 8623 : 	    return (-1);

	or	eax, -1
	jmp	$LN1@xmlDOMWrap
$LN11@xmlDOMWrap:

; 8624 : 	return (0);

	xor	eax, eax
	jmp	$LN1@xmlDOMWrap
$LN10@xmlDOMWrap:

; 8625 :     }
; 8626 :     /*
; 8627 :     * If the search should be done in ancestors only and no
; 8628 :     * @elem (the first ancestor) was specified, then skip the search.
; 8629 :     */
; 8630 :     if ((XML_NSMAP_NOTEMPTY(*nsMap)) &&

	mov	eax, DWORD PTR _nsMap$[ebp]
	cmp	DWORD PTR [eax], 0
	je	$LN12@xmlDOMWrap
	mov	ecx, DWORD PTR _nsMap$[ebp]
	mov	edx, DWORD PTR [ecx]
	cmp	DWORD PTR [edx], 0
	je	$LN12@xmlDOMWrap
	cmp	DWORD PTR _ancestorsOnly$[ebp], 0
	je	SHORT $LN13@xmlDOMWrap
	cmp	DWORD PTR _elem$[ebp], 0
	je	$LN12@xmlDOMWrap
$LN13@xmlDOMWrap:

; 8631 : 	(! (ancestorsOnly && (elem == NULL))))
; 8632 :     {
; 8633 : 	/*
; 8634 : 	* Try to find an equal ns-name in in-scope ns-decls.
; 8635 : 	*/
; 8636 : 	XML_NSMAP_FOREACH(*nsMap, mi) {

	mov	eax, DWORD PTR _nsMap$[ebp]
	mov	ecx, DWORD PTR [eax]
	mov	edx, DWORD PTR [ecx]
	mov	DWORD PTR _mi$[ebp], edx
	jmp	SHORT $LN4@xmlDOMWrap
$LN2@xmlDOMWrap:
	mov	eax, DWORD PTR _mi$[ebp]
	mov	ecx, DWORD PTR [eax]
	mov	DWORD PTR _mi$[ebp], ecx
$LN4@xmlDOMWrap:
	cmp	DWORD PTR _mi$[ebp], 0
	je	$LN12@xmlDOMWrap

; 8637 : 	    if ((mi->depth >= XML_TREE_NSMAP_PARENT) &&
; 8638 : 		/*
; 8639 : 		* ancestorsOnly: This should be turned on to gain speed,
; 8640 : 		* if one knows that the branch itself was already
; 8641 : 		* ns-wellformed and no stale references existed.
; 8642 : 		* I.e. it searches in the ancestor axis only.
; 8643 : 		*/
; 8644 : 		((! ancestorsOnly) || (mi->depth == XML_TREE_NSMAP_PARENT)) &&
; 8645 : 		/* Skip shadowed prefixes. */
; 8646 : 		(mi->shadowDepth == -1) &&
; 8647 : 		/* Skip xmlns="" or xmlns:foo="". */
; 8648 : 		((mi->newNs->href != NULL) &&
; 8649 : 		(mi->newNs->href[0] != 0)) &&
; 8650 : 		/* Ensure a prefix if wanted. */
; 8651 : 		((! prefixed) || (mi->newNs->prefix != NULL)) &&

	mov	edx, DWORD PTR _mi$[ebp]
	cmp	DWORD PTR [edx+20], -1
	jl	$LN14@xmlDOMWrap
	cmp	DWORD PTR _ancestorsOnly$[ebp], 0
	je	SHORT $LN15@xmlDOMWrap
	mov	eax, DWORD PTR _mi$[ebp]
	cmp	DWORD PTR [eax+20], -1
	jne	$LN14@xmlDOMWrap
$LN15@xmlDOMWrap:
	mov	ecx, DWORD PTR _mi$[ebp]
	cmp	DWORD PTR [ecx+16], -1
	jne	$LN14@xmlDOMWrap
	mov	edx, DWORD PTR _mi$[ebp]
	mov	eax, DWORD PTR [edx+12]
	cmp	DWORD PTR [eax+8], 0
	je	SHORT $LN14@xmlDOMWrap
	mov	ecx, DWORD PTR _mi$[ebp]
	mov	edx, DWORD PTR [ecx+12]
	mov	eax, 1
	imul	ecx, eax, 0
	mov	edx, DWORD PTR [edx+8]
	movzx	eax, BYTE PTR [edx+ecx]
	test	eax, eax
	je	SHORT $LN14@xmlDOMWrap
	cmp	DWORD PTR _prefixed$[ebp], 0
	je	SHORT $LN16@xmlDOMWrap
	mov	ecx, DWORD PTR _mi$[ebp]
	mov	edx, DWORD PTR [ecx+12]
	cmp	DWORD PTR [edx+12], 0
	je	SHORT $LN14@xmlDOMWrap
$LN16@xmlDOMWrap:
	mov	eax, DWORD PTR _mi$[ebp]
	mov	ecx, DWORD PTR [eax+12]
	mov	edx, DWORD PTR _ns$[ebp]
	mov	eax, DWORD PTR [ecx+8]
	cmp	eax, DWORD PTR [edx+8]
	je	SHORT $LN17@xmlDOMWrap
	mov	ecx, DWORD PTR _ns$[ebp]
	mov	edx, DWORD PTR [ecx+8]
	push	edx
	mov	eax, DWORD PTR _mi$[ebp]
	mov	ecx, DWORD PTR [eax+12]
	mov	edx, DWORD PTR [ecx+8]
	push	edx
	call	_xmlStrEqual
	add	esp, 8
	test	eax, eax
	je	SHORT $LN14@xmlDOMWrap
$LN17@xmlDOMWrap:

; 8652 : 		/* Equal ns name */
; 8653 : 		((mi->newNs->href == ns->href) ||
; 8654 : 		xmlStrEqual(mi->newNs->href, ns->href))) {
; 8655 : 		/* Set the mapping. */
; 8656 : 		mi->oldNs = ns;

	mov	eax, DWORD PTR _mi$[ebp]
	mov	ecx, DWORD PTR _ns$[ebp]
	mov	DWORD PTR [eax+8], ecx

; 8657 : 		*retNs = mi->newNs;

	mov	edx, DWORD PTR _retNs$[ebp]
	mov	eax, DWORD PTR _mi$[ebp]
	mov	ecx, DWORD PTR [eax+12]
	mov	DWORD PTR [edx], ecx

; 8658 : 		return (0);

	xor	eax, eax
	jmp	$LN1@xmlDOMWrap
$LN14@xmlDOMWrap:

; 8659 : 	    }
; 8660 : 	}

	jmp	$LN2@xmlDOMWrap
$LN12@xmlDOMWrap:

; 8661 :     }
; 8662 :     /*
; 8663 :     * No luck, the namespace is out of scope or shadowed.
; 8664 :     */
; 8665 :     if (elem == NULL) {

	cmp	DWORD PTR _elem$[ebp], 0
	jne	SHORT $LN18@xmlDOMWrap

; 8666 : 	xmlNsPtr tmpns;
; 8667 : 
; 8668 : 	/*
; 8669 : 	* Store ns-decls in "oldNs" of the document-node.
; 8670 : 	*/
; 8671 : 	tmpns = xmlDOMWrapStoreNs(doc, ns->href, ns->prefix);

	mov	edx, DWORD PTR _ns$[ebp]
	mov	eax, DWORD PTR [edx+12]
	push	eax
	mov	ecx, DWORD PTR _ns$[ebp]
	mov	edx, DWORD PTR [ecx+8]
	push	edx
	mov	eax, DWORD PTR _doc$[ebp]
	push	eax
	call	_xmlDOMWrapStoreNs
	add	esp, 12					; 0000000cH
	mov	DWORD PTR _tmpns$2[ebp], eax

; 8672 : 	if (tmpns == NULL)

	cmp	DWORD PTR _tmpns$2[ebp], 0
	jne	SHORT $LN20@xmlDOMWrap

; 8673 : 	    return (-1);

	or	eax, -1
	jmp	$LN1@xmlDOMWrap
$LN20@xmlDOMWrap:

; 8674 : 	/*
; 8675 : 	* Insert mapping.
; 8676 : 	*/
; 8677 : 	if (xmlDOMWrapNsMapAddItem(nsMap, -1, ns,
; 8678 : 		tmpns, XML_TREE_NSMAP_DOC) == NULL) {

	push	-3					; fffffffdH
	mov	ecx, DWORD PTR _tmpns$2[ebp]
	push	ecx
	mov	edx, DWORD PTR _ns$[ebp]
	push	edx
	push	-1
	mov	eax, DWORD PTR _nsMap$[ebp]
	push	eax
	call	_xmlDOMWrapNsMapAddItem
	add	esp, 20					; 00000014H
	test	eax, eax
	jne	SHORT $LN21@xmlDOMWrap

; 8679 : 	    xmlFreeNs(tmpns);

	mov	ecx, DWORD PTR _tmpns$2[ebp]
	push	ecx
	call	_xmlFreeNs
	add	esp, 4

; 8680 : 	    return (-1);

	or	eax, -1
	jmp	$LN1@xmlDOMWrap
$LN21@xmlDOMWrap:

; 8681 : 	}
; 8682 : 	*retNs = tmpns;

	mov	edx, DWORD PTR _retNs$[ebp]
	mov	eax, DWORD PTR _tmpns$2[ebp]
	mov	DWORD PTR [edx], eax

; 8683 :     } else {

	jmp	$LN19@xmlDOMWrap
$LN18@xmlDOMWrap:

; 8684 : 	xmlNsPtr tmpns;
; 8685 : 
; 8686 : 	tmpns = xmlDOMWrapNSNormDeclareNsForced(doc, elem, ns->href,

	push	0
	mov	ecx, DWORD PTR _ns$[ebp]
	mov	edx, DWORD PTR [ecx+12]
	push	edx
	mov	eax, DWORD PTR _ns$[ebp]
	mov	ecx, DWORD PTR [eax+8]
	push	ecx
	mov	edx, DWORD PTR _elem$[ebp]
	push	edx
	mov	eax, DWORD PTR _doc$[ebp]
	push	eax
	call	_xmlDOMWrapNSNormDeclareNsForced
	add	esp, 20					; 00000014H
	mov	DWORD PTR _tmpns$1[ebp], eax

; 8687 : 	    ns->prefix, 0);
; 8688 : 	if (tmpns == NULL)

	cmp	DWORD PTR _tmpns$1[ebp], 0
	jne	SHORT $LN22@xmlDOMWrap

; 8689 : 	    return (-1);

	or	eax, -1
	jmp	$LN1@xmlDOMWrap
$LN22@xmlDOMWrap:

; 8690 : 
; 8691 : 	if (*nsMap != NULL) {

	mov	ecx, DWORD PTR _nsMap$[ebp]
	cmp	DWORD PTR [ecx], 0
	je	SHORT $LN23@xmlDOMWrap

; 8692 : 	    /*
; 8693 : 	    * Does it shadow ancestor ns-decls?
; 8694 : 	    */
; 8695 : 	    XML_NSMAP_FOREACH(*nsMap, mi) {

	mov	edx, DWORD PTR _nsMap$[ebp]
	mov	eax, DWORD PTR [edx]
	mov	ecx, DWORD PTR [eax]
	mov	DWORD PTR _mi$[ebp], ecx
	jmp	SHORT $LN7@xmlDOMWrap
$LN5@xmlDOMWrap:
	mov	edx, DWORD PTR _mi$[ebp]
	mov	eax, DWORD PTR [edx]
	mov	DWORD PTR _mi$[ebp], eax
$LN7@xmlDOMWrap:
	cmp	DWORD PTR _mi$[ebp], 0
	je	SHORT $LN23@xmlDOMWrap

; 8696 : 		if ((mi->depth < depth) &&
; 8697 : 		    (mi->shadowDepth == -1) &&

	mov	ecx, DWORD PTR _mi$[ebp]
	mov	edx, DWORD PTR [ecx+20]
	cmp	edx, DWORD PTR _depth$[ebp]
	jge	SHORT $LN24@xmlDOMWrap
	mov	eax, DWORD PTR _mi$[ebp]
	cmp	DWORD PTR [eax+16], -1
	jne	SHORT $LN24@xmlDOMWrap
	mov	ecx, DWORD PTR _mi$[ebp]
	mov	edx, DWORD PTR [ecx+12]
	mov	eax, DWORD PTR _ns$[ebp]
	mov	ecx, DWORD PTR [eax+12]
	cmp	ecx, DWORD PTR [edx+12]
	je	SHORT $LN25@xmlDOMWrap
	mov	edx, DWORD PTR _mi$[ebp]
	mov	eax, DWORD PTR [edx+12]
	mov	ecx, DWORD PTR [eax+12]
	push	ecx
	mov	edx, DWORD PTR _ns$[ebp]
	mov	eax, DWORD PTR [edx+12]
	push	eax
	call	_xmlStrEqual
	add	esp, 8
	test	eax, eax
	je	SHORT $LN24@xmlDOMWrap
$LN25@xmlDOMWrap:

; 8698 : 		    ((ns->prefix == mi->newNs->prefix) ||
; 8699 : 		    xmlStrEqual(ns->prefix, mi->newNs->prefix))) {
; 8700 : 		    /*
; 8701 : 		    * Shadows.
; 8702 : 		    */
; 8703 : 		    mi->shadowDepth = depth;

	mov	ecx, DWORD PTR _mi$[ebp]
	mov	edx, DWORD PTR _depth$[ebp]
	mov	DWORD PTR [ecx+16], edx

; 8704 : 		    break;

	jmp	SHORT $LN23@xmlDOMWrap
$LN24@xmlDOMWrap:

; 8705 : 		}
; 8706 : 	    }

	jmp	SHORT $LN5@xmlDOMWrap
$LN23@xmlDOMWrap:

; 8707 : 	}
; 8708 : 	if (xmlDOMWrapNsMapAddItem(nsMap, -1, ns, tmpns, depth) == NULL) {

	mov	eax, DWORD PTR _depth$[ebp]
	push	eax
	mov	ecx, DWORD PTR _tmpns$1[ebp]
	push	ecx
	mov	edx, DWORD PTR _ns$[ebp]
	push	edx
	push	-1
	mov	eax, DWORD PTR _nsMap$[ebp]
	push	eax
	call	_xmlDOMWrapNsMapAddItem
	add	esp, 20					; 00000014H
	test	eax, eax
	jne	SHORT $LN26@xmlDOMWrap

; 8709 : 	    xmlFreeNs(tmpns);

	mov	ecx, DWORD PTR _tmpns$1[ebp]
	push	ecx
	call	_xmlFreeNs
	add	esp, 4

; 8710 : 	    return (-1);

	or	eax, -1
	jmp	SHORT $LN1@xmlDOMWrap
$LN26@xmlDOMWrap:

; 8711 : 	}
; 8712 : 	*retNs = tmpns;

	mov	edx, DWORD PTR _retNs$[ebp]
	mov	eax, DWORD PTR _tmpns$1[ebp]
	mov	DWORD PTR [edx], eax
$LN19@xmlDOMWrap:

; 8713 :     }
; 8714 :     return (0);

	xor	eax, eax
$LN1@xmlDOMWrap:

; 8715 : }

	add	esp, 12					; 0000000cH
	cmp	ebp, esp
	call	__RTC_CheckEsp
	mov	esp, ebp
	pop	ebp
	ret	0
_xmlDOMWrapNSNormAquireNormalizedNs ENDP
_TEXT	ENDS
; Function compile flags: /Odtp /RTCsu
; File c:\users\dag\documents\_clients\codeproject authors group\windows on arm\libxml2\libxml2-2.9.9\tree.c
;	COMDAT _xmlDOMWrapNSNormDeclareNsForced
_TEXT	SEGMENT
_ns2$1 = -76						; size = 4
_counter$ = -72						; size = 4
_pref$ = -68						; size = 4
_buf$ = -60						; size = 50
_ret$ = -4						; size = 4
_doc$ = 8						; size = 4
_elem$ = 12						; size = 4
_nsName$ = 16						; size = 4
_prefix$ = 20						; size = 4
_checkShadow$ = 24					; size = 4
_xmlDOMWrapNSNormDeclareNsForced PROC			; COMDAT

; 8523 : {

	push	ebp
	mov	ebp, esp
	sub	esp, 76					; 0000004cH
	push	edi
	lea	edi, DWORD PTR [ebp-76]
	mov	ecx, 19					; 00000013H
	mov	eax, -858993460				; ccccccccH
	rep stosd
	mov	ecx, OFFSET __59973643_tree@c
	call	@__CheckForDebuggerJustMyCode@4

; 8524 : 
; 8525 :     xmlNsPtr ret;
; 8526 :     char buf[50];
; 8527 :     const xmlChar *pref;
; 8528 :     int counter = 0;

	mov	DWORD PTR _counter$[ebp], 0

; 8529 : 
; 8530 :     if ((doc == NULL) || (elem == NULL) || (elem->type != XML_ELEMENT_NODE))

	cmp	DWORD PTR _doc$[ebp], 0
	je	SHORT $LN7@xmlDOMWrap
	cmp	DWORD PTR _elem$[ebp], 0
	je	SHORT $LN7@xmlDOMWrap
	mov	eax, DWORD PTR _elem$[ebp]
	cmp	DWORD PTR [eax+4], 1
	je	SHORT $LN6@xmlDOMWrap
$LN7@xmlDOMWrap:

; 8531 :         return(NULL);

	xor	eax, eax
	jmp	$LN1@xmlDOMWrap
$LN6@xmlDOMWrap:

; 8532 :     /*
; 8533 :     * Create a ns-decl on @anchor.
; 8534 :     */
; 8535 :     pref = prefix;

	mov	ecx, DWORD PTR _prefix$[ebp]
	mov	DWORD PTR _pref$[ebp], ecx
$LN2@xmlDOMWrap:

; 8536 :     while (1) {

	mov	edx, 1
	test	edx, edx
	je	$LN1@xmlDOMWrap

; 8537 : 	/*
; 8538 : 	* Lookup whether the prefix is unused in elem's ns-decls.
; 8539 : 	*/
; 8540 : 	if ((elem->nsDef != NULL) &&

	mov	eax, DWORD PTR _elem$[ebp]
	cmp	DWORD PTR [eax+48], 0
	je	SHORT $LN8@xmlDOMWrap
	mov	ecx, DWORD PTR _pref$[ebp]
	push	ecx
	mov	edx, DWORD PTR _elem$[ebp]
	mov	eax, DWORD PTR [edx+48]
	push	eax
	call	_xmlTreeNSListLookupByPrefix
	add	esp, 8
	test	eax, eax
	je	SHORT $LN8@xmlDOMWrap

; 8541 : 	    (xmlTreeNSListLookupByPrefix(elem->nsDef, pref) != NULL))
; 8542 : 	    goto ns_next_prefix;

	jmp	$ns_next_prefix$21
$LN8@xmlDOMWrap:

; 8543 : 	if (checkShadow && elem->parent &&

	cmp	DWORD PTR _checkShadow$[ebp], 0
	je	SHORT $LN9@xmlDOMWrap
	mov	ecx, DWORD PTR _elem$[ebp]
	cmp	DWORD PTR [ecx+20], 0
	je	SHORT $LN9@xmlDOMWrap
	mov	edx, DWORD PTR _elem$[ebp]
	mov	eax, DWORD PTR [edx+20]
	mov	ecx, DWORD PTR _elem$[ebp]
	mov	edx, DWORD PTR [eax+32]
	cmp	edx, DWORD PTR [ecx+20]
	je	SHORT $LN9@xmlDOMWrap

; 8544 : 	    ((xmlNodePtr) elem->parent->doc != elem->parent)) {
; 8545 : 	    /*
; 8546 : 	    * Does it shadow ancestor ns-decls?
; 8547 : 	    */
; 8548 : 	    if (xmlSearchNsByPrefixStrict(doc, elem->parent, pref, NULL) == 1)

	push	0
	mov	eax, DWORD PTR _pref$[ebp]
	push	eax
	mov	ecx, DWORD PTR _elem$[ebp]
	mov	edx, DWORD PTR [ecx+20]
	push	edx
	mov	eax, DWORD PTR _doc$[ebp]
	push	eax
	call	_xmlSearchNsByPrefixStrict
	add	esp, 16					; 00000010H
	cmp	eax, 1
	jne	SHORT $LN9@xmlDOMWrap

; 8549 : 		goto ns_next_prefix;

	jmp	SHORT $ns_next_prefix$21
$LN9@xmlDOMWrap:

; 8550 : 	}
; 8551 : 	ret = xmlNewNs(NULL, nsName, pref);

	mov	ecx, DWORD PTR _pref$[ebp]
	push	ecx
	mov	edx, DWORD PTR _nsName$[ebp]
	push	edx
	push	0
	call	_xmlNewNs
	add	esp, 12					; 0000000cH
	mov	DWORD PTR _ret$[ebp], eax

; 8552 : 	if (ret == NULL)

	cmp	DWORD PTR _ret$[ebp], 0
	jne	SHORT $LN11@xmlDOMWrap

; 8553 : 	    return (NULL);

	xor	eax, eax
	jmp	$LN1@xmlDOMWrap
$LN11@xmlDOMWrap:

; 8554 : 	if (elem->nsDef == NULL)

	mov	eax, DWORD PTR _elem$[ebp]
	cmp	DWORD PTR [eax+48], 0
	jne	SHORT $LN12@xmlDOMWrap

; 8555 : 	    elem->nsDef = ret;

	mov	ecx, DWORD PTR _elem$[ebp]
	mov	edx, DWORD PTR _ret$[ebp]
	mov	DWORD PTR [ecx+48], edx
	jmp	SHORT $LN13@xmlDOMWrap
$LN12@xmlDOMWrap:

; 8556 : 	else {
; 8557 : 	    xmlNsPtr ns2 = elem->nsDef;

	mov	eax, DWORD PTR _elem$[ebp]
	mov	ecx, DWORD PTR [eax+48]
	mov	DWORD PTR _ns2$1[ebp], ecx
$LN4@xmlDOMWrap:

; 8558 : 	    while (ns2->next != NULL)

	mov	edx, DWORD PTR _ns2$1[ebp]
	cmp	DWORD PTR [edx], 0
	je	SHORT $LN5@xmlDOMWrap

; 8559 : 		ns2 = ns2->next;

	mov	eax, DWORD PTR _ns2$1[ebp]
	mov	ecx, DWORD PTR [eax]
	mov	DWORD PTR _ns2$1[ebp], ecx
	jmp	SHORT $LN4@xmlDOMWrap
$LN5@xmlDOMWrap:

; 8560 : 	    ns2->next = ret;

	mov	edx, DWORD PTR _ns2$1[ebp]
	mov	eax, DWORD PTR _ret$[ebp]
	mov	DWORD PTR [edx], eax
$LN13@xmlDOMWrap:

; 8561 : 	}
; 8562 : 	return (ret);

	mov	eax, DWORD PTR _ret$[ebp]
	jmp	SHORT $LN1@xmlDOMWrap
$ns_next_prefix$21:

; 8563 : ns_next_prefix:
; 8564 : 	counter++;

	mov	ecx, DWORD PTR _counter$[ebp]
	add	ecx, 1
	mov	DWORD PTR _counter$[ebp], ecx

; 8565 : 	if (counter > 1000)

	cmp	DWORD PTR _counter$[ebp], 1000		; 000003e8H
	jle	SHORT $LN14@xmlDOMWrap

; 8566 : 	    return (NULL);

	xor	eax, eax
	jmp	SHORT $LN1@xmlDOMWrap
$LN14@xmlDOMWrap:

; 8567 : 	if (prefix == NULL) {

	cmp	DWORD PTR _prefix$[ebp], 0
	jne	SHORT $LN15@xmlDOMWrap

; 8568 : 	    snprintf((char *) buf, sizeof(buf),

	mov	edx, DWORD PTR _counter$[ebp]
	push	edx
	push	OFFSET ??_C@_05GOMIJPDF@ns_?$CFd@
	push	50					; 00000032H
	lea	eax, DWORD PTR _buf$[ebp]
	push	eax
	call	_snprintf
	add	esp, 16					; 00000010H

; 8569 : 		"ns_%d", counter);
; 8570 : 	} else

	jmp	SHORT $LN16@xmlDOMWrap
$LN15@xmlDOMWrap:

; 8571 : 	    snprintf((char *) buf, sizeof(buf),

	mov	ecx, DWORD PTR _counter$[ebp]
	push	ecx
	mov	edx, DWORD PTR _prefix$[ebp]
	push	edx
	push	OFFSET ??_C@_08LCJGELPI@?$CF?430s_?$CFd@
	push	50					; 00000032H
	lea	eax, DWORD PTR _buf$[ebp]
	push	eax
	call	_snprintf
	add	esp, 20					; 00000014H
$LN16@xmlDOMWrap:

; 8572 : 	    "%.30s_%d", (char *)prefix, counter);
; 8573 : 	pref = BAD_CAST buf;

	lea	ecx, DWORD PTR _buf$[ebp]
	mov	DWORD PTR _pref$[ebp], ecx

; 8574 :     }

	jmp	$LN2@xmlDOMWrap
$LN1@xmlDOMWrap:

; 8575 : }

	push	edx
	mov	ecx, ebp
	push	eax
	lea	edx, DWORD PTR $LN20@xmlDOMWrap
	call	@_RTC_CheckStackVars@8
	pop	eax
	pop	edx
	pop	edi
	add	esp, 76					; 0000004cH
	cmp	ebp, esp
	call	__RTC_CheckEsp
	mov	esp, ebp
	pop	ebp
	ret	0
$LN20@xmlDOMWrap:
	DD	1
	DD	$LN19@xmlDOMWrap
$LN19@xmlDOMWrap:
	DD	-60					; ffffffc4H
	DD	50					; 00000032H
	DD	$LN18@xmlDOMWrap
$LN18@xmlDOMWrap:
	DB	98					; 00000062H
	DB	117					; 00000075H
	DB	102					; 00000066H
	DB	0
_xmlDOMWrapNSNormDeclareNsForced ENDP
_TEXT	ENDS
; Function compile flags: /Odtp /RTCsu
; File c:\users\dag\documents\_clients\codeproject authors group\windows on arm\libxml2\libxml2-2.9.9\tree.c
;	COMDAT _xmlSearchNsByPrefixStrict
_TEXT	SEGMENT
_ns$ = -8						; size = 4
_cur$ = -4						; size = 4
_doc$ = 8						; size = 4
_node$ = 12						; size = 4
_prefix$ = 16						; size = 4
_retNs$ = 20						; size = 4
_xmlSearchNsByPrefixStrict PROC				; COMDAT

; 8456 : {

	push	ebp
	mov	ebp, esp
	sub	esp, 8
	mov	DWORD PTR [ebp-8], -858993460		; ccccccccH
	mov	DWORD PTR [ebp-4], -858993460		; ccccccccH
	mov	ecx, OFFSET __59973643_tree@c
	call	@__CheckForDebuggerJustMyCode@4

; 8457 :     xmlNodePtr cur;
; 8458 :     xmlNsPtr ns;
; 8459 : 
; 8460 :     if ((doc == NULL) || (node == NULL) || (node->type == XML_NAMESPACE_DECL))

	cmp	DWORD PTR _doc$[ebp], 0
	je	SHORT $LN9@xmlSearchN
	cmp	DWORD PTR _node$[ebp], 0
	je	SHORT $LN9@xmlSearchN
	mov	eax, DWORD PTR _node$[ebp]
	cmp	DWORD PTR [eax+4], 18			; 00000012H
	jne	SHORT $LN8@xmlSearchN
$LN9@xmlSearchN:

; 8461 :         return(-1);

	or	eax, -1
	jmp	$LN1@xmlSearchN
$LN8@xmlSearchN:

; 8462 : 
; 8463 :     if (retNs)

	cmp	DWORD PTR _retNs$[ebp], 0
	je	SHORT $LN10@xmlSearchN

; 8464 : 	*retNs = NULL;

	mov	ecx, DWORD PTR _retNs$[ebp]
	mov	DWORD PTR [ecx], 0
$LN10@xmlSearchN:

; 8465 :     if (IS_STR_XML(prefix)) {

	cmp	DWORD PTR _prefix$[ebp], 0
	je	SHORT $LN11@xmlSearchN
	mov	edx, 1
	imul	eax, edx, 0
	mov	ecx, DWORD PTR _prefix$[ebp]
	movzx	edx, BYTE PTR [ecx+eax]
	cmp	edx, 120				; 00000078H
	jne	SHORT $LN11@xmlSearchN
	mov	eax, 1
	shl	eax, 0
	mov	ecx, DWORD PTR _prefix$[ebp]
	movzx	edx, BYTE PTR [ecx+eax]
	cmp	edx, 109				; 0000006dH
	jne	SHORT $LN11@xmlSearchN
	mov	eax, 1
	shl	eax, 1
	mov	ecx, DWORD PTR _prefix$[ebp]
	movzx	edx, BYTE PTR [ecx+eax]
	cmp	edx, 108				; 0000006cH
	jne	SHORT $LN11@xmlSearchN
	mov	eax, 1
	imul	ecx, eax, 3
	mov	edx, DWORD PTR _prefix$[ebp]
	movzx	eax, BYTE PTR [edx+ecx]
	test	eax, eax
	jne	SHORT $LN11@xmlSearchN

; 8466 : 	if (retNs) {

	cmp	DWORD PTR _retNs$[ebp], 0
	je	SHORT $LN12@xmlSearchN

; 8467 : 	    *retNs = xmlTreeEnsureXMLDecl(doc);

	mov	ecx, DWORD PTR _doc$[ebp]
	push	ecx
	call	_xmlTreeEnsureXMLDecl
	add	esp, 4
	mov	edx, DWORD PTR _retNs$[ebp]
	mov	DWORD PTR [edx], eax

; 8468 : 	    if (*retNs == NULL)

	mov	eax, DWORD PTR _retNs$[ebp]
	cmp	DWORD PTR [eax], 0
	jne	SHORT $LN12@xmlSearchN

; 8469 : 		return (-1);

	or	eax, -1
	jmp	$LN1@xmlSearchN
$LN12@xmlSearchN:

; 8470 : 	}
; 8471 : 	return (1);

	mov	eax, 1
	jmp	$LN1@xmlSearchN
$LN11@xmlSearchN:

; 8472 :     }
; 8473 :     cur = node;

	mov	ecx, DWORD PTR _node$[ebp]
	mov	DWORD PTR _cur$[ebp], ecx
$LN4@xmlSearchN:

; 8474 :     do {
; 8475 : 	if (cur->type == XML_ELEMENT_NODE) {

	mov	edx, DWORD PTR _cur$[ebp]
	cmp	DWORD PTR [edx+4], 1
	jne	SHORT $LN14@xmlSearchN

; 8476 : 	    if (cur->nsDef != NULL) {

	mov	eax, DWORD PTR _cur$[ebp]
	cmp	DWORD PTR [eax+48], 0
	je	SHORT $LN16@xmlSearchN

; 8477 : 		ns = cur->nsDef;

	mov	ecx, DWORD PTR _cur$[ebp]
	mov	edx, DWORD PTR [ecx+48]
	mov	DWORD PTR _ns$[ebp], edx
$LN7@xmlSearchN:

; 8478 : 		do {
; 8479 : 		    if ((prefix == ns->prefix) ||

	mov	eax, DWORD PTR _ns$[ebp]
	mov	ecx, DWORD PTR _prefix$[ebp]
	cmp	ecx, DWORD PTR [eax+12]
	je	SHORT $LN18@xmlSearchN
	mov	edx, DWORD PTR _ns$[ebp]
	mov	eax, DWORD PTR [edx+12]
	push	eax
	mov	ecx, DWORD PTR _prefix$[ebp]
	push	ecx
	call	_xmlStrEqual
	add	esp, 8
	test	eax, eax
	je	SHORT $LN17@xmlSearchN
$LN18@xmlSearchN:

; 8480 : 			xmlStrEqual(prefix, ns->prefix))
; 8481 : 		    {
; 8482 : 			/*
; 8483 : 			* Disabled namespaces, e.g. xmlns:abc="".
; 8484 : 			*/
; 8485 : 			if (ns->href == NULL)

	mov	edx, DWORD PTR _ns$[ebp]
	cmp	DWORD PTR [edx+8], 0
	jne	SHORT $LN19@xmlSearchN

; 8486 : 			    return(0);

	xor	eax, eax
	jmp	SHORT $LN1@xmlSearchN
$LN19@xmlSearchN:

; 8487 : 			if (retNs)

	cmp	DWORD PTR _retNs$[ebp], 0
	je	SHORT $LN20@xmlSearchN

; 8488 : 			    *retNs = ns;

	mov	eax, DWORD PTR _retNs$[ebp]
	mov	ecx, DWORD PTR _ns$[ebp]
	mov	DWORD PTR [eax], ecx
$LN20@xmlSearchN:

; 8489 : 			return (1);

	mov	eax, 1
	jmp	SHORT $LN1@xmlSearchN
$LN17@xmlSearchN:

; 8490 : 		    }
; 8491 : 		    ns = ns->next;

	mov	edx, DWORD PTR _ns$[ebp]
	mov	eax, DWORD PTR [edx]
	mov	DWORD PTR _ns$[ebp], eax

; 8492 : 		} while (ns != NULL);

	cmp	DWORD PTR _ns$[ebp], 0
	jne	SHORT $LN7@xmlSearchN
$LN16@xmlSearchN:

; 8493 : 	    }

	jmp	SHORT $LN15@xmlSearchN
$LN14@xmlSearchN:

; 8494 : 	} else if ((cur->type == XML_ENTITY_NODE) ||

	mov	ecx, DWORD PTR _cur$[ebp]
	cmp	DWORD PTR [ecx+4], 6
	je	SHORT $LN22@xmlSearchN
	mov	edx, DWORD PTR _cur$[ebp]
	cmp	DWORD PTR [edx+4], 17			; 00000011H
	jne	SHORT $LN15@xmlSearchN
$LN22@xmlSearchN:

; 8495 :             (cur->type == XML_ENTITY_DECL))
; 8496 : 	    return (0);

	xor	eax, eax
	jmp	SHORT $LN1@xmlSearchN
$LN15@xmlSearchN:

; 8497 : 	cur = cur->parent;

	mov	eax, DWORD PTR _cur$[ebp]
	mov	ecx, DWORD PTR [eax+20]
	mov	DWORD PTR _cur$[ebp], ecx

; 8498 :     } while ((cur != NULL) && (cur->doc != (xmlDocPtr) cur));

	cmp	DWORD PTR _cur$[ebp], 0
	je	SHORT $LN3@xmlSearchN
	mov	edx, DWORD PTR _cur$[ebp]
	mov	eax, DWORD PTR [edx+32]
	cmp	eax, DWORD PTR _cur$[ebp]
	jne	$LN4@xmlSearchN
$LN3@xmlSearchN:

; 8499 :     return (0);

	xor	eax, eax
$LN1@xmlSearchN:

; 8500 : }

	add	esp, 8
	cmp	ebp, esp
	call	__RTC_CheckEsp
	mov	esp, ebp
	pop	ebp
	ret	0
_xmlSearchNsByPrefixStrict ENDP
_TEXT	ENDS
; Function compile flags: /Odtp /RTCsu
; File c:\users\dag\documents\_clients\codeproject authors group\windows on arm\libxml2\libxml2-2.9.9\tree.c
;	COMDAT _xmlSearchNsByNamespaceStrict
_TEXT	SEGMENT
_ret$1 = -24						; size = 4
_prevns$ = -20						; size = 4
_ns$ = -16						; size = 4
_out$ = -12						; size = 4
_prev$ = -8						; size = 4
_cur$ = -4						; size = 4
_doc$ = 8						; size = 4
_node$ = 12						; size = 4
_nsName$ = 16						; size = 4
_retNs$ = 20						; size = 4
_prefixed$ = 24						; size = 4
_xmlSearchNsByNamespaceStrict PROC			; COMDAT

; 8354 : {

	push	ebp
	mov	ebp, esp
	sub	esp, 24					; 00000018H
	mov	eax, -858993460				; ccccccccH
	mov	DWORD PTR [ebp-24], eax
	mov	DWORD PTR [ebp-20], eax
	mov	DWORD PTR [ebp-16], eax
	mov	DWORD PTR [ebp-12], eax
	mov	DWORD PTR [ebp-8], eax
	mov	DWORD PTR [ebp-4], eax
	mov	ecx, OFFSET __59973643_tree@c
	call	@__CheckForDebuggerJustMyCode@4

; 8355 :     xmlNodePtr cur, prev = NULL, out = NULL;

	mov	DWORD PTR _prev$[ebp], 0
	mov	DWORD PTR _out$[ebp], 0

; 8356 :     xmlNsPtr ns, prevns;
; 8357 : 
; 8358 :     if ((doc == NULL) || (nsName == NULL) || (retNs == NULL))

	cmp	DWORD PTR _doc$[ebp], 0
	je	SHORT $LN12@xmlSearchN
	cmp	DWORD PTR _nsName$[ebp], 0
	je	SHORT $LN12@xmlSearchN
	cmp	DWORD PTR _retNs$[ebp], 0
	jne	SHORT $LN11@xmlSearchN
$LN12@xmlSearchN:

; 8359 : 	return (-1);

	or	eax, -1
	jmp	$LN1@xmlSearchN
$LN11@xmlSearchN:

; 8360 :     if ((node == NULL) || (node->type == XML_NAMESPACE_DECL))

	cmp	DWORD PTR _node$[ebp], 0
	je	SHORT $LN14@xmlSearchN
	mov	eax, DWORD PTR _node$[ebp]
	cmp	DWORD PTR [eax+4], 18			; 00000012H
	jne	SHORT $LN13@xmlSearchN
$LN14@xmlSearchN:

; 8361 :         return(-1);

	or	eax, -1
	jmp	$LN1@xmlSearchN
$LN13@xmlSearchN:

; 8362 : 
; 8363 :     *retNs = NULL;

	mov	ecx, DWORD PTR _retNs$[ebp]
	mov	DWORD PTR [ecx], 0

; 8364 :     if (xmlStrEqual(nsName, XML_XML_NAMESPACE)) {

	push	OFFSET ??_C@_0CF@GLDAAHFK@http?3?1?1www?4w3?4org?1XML?11998?1name@
	mov	edx, DWORD PTR _nsName$[ebp]
	push	edx
	call	_xmlStrEqual
	add	esp, 8
	test	eax, eax
	je	SHORT $LN15@xmlSearchN

; 8365 : 	*retNs = xmlTreeEnsureXMLDecl(doc);

	mov	eax, DWORD PTR _doc$[ebp]
	push	eax
	call	_xmlTreeEnsureXMLDecl
	add	esp, 4
	mov	ecx, DWORD PTR _retNs$[ebp]
	mov	DWORD PTR [ecx], eax

; 8366 : 	if (*retNs == NULL)

	mov	edx, DWORD PTR _retNs$[ebp]
	cmp	DWORD PTR [edx], 0
	jne	SHORT $LN16@xmlSearchN

; 8367 : 	    return (-1);

	or	eax, -1
	jmp	$LN1@xmlSearchN
$LN16@xmlSearchN:

; 8368 : 	return (1);

	mov	eax, 1
	jmp	$LN1@xmlSearchN
$LN15@xmlSearchN:

; 8369 :     }
; 8370 :     cur = node;

	mov	eax, DWORD PTR _node$[ebp]
	mov	DWORD PTR _cur$[ebp], eax
$LN4@xmlSearchN:

; 8371 :     do {
; 8372 : 	if (cur->type == XML_ELEMENT_NODE) {

	mov	ecx, DWORD PTR _cur$[ebp]
	cmp	DWORD PTR [ecx+4], 1
	jne	$LN17@xmlSearchN

; 8373 : 	    if (cur->nsDef != NULL) {

	mov	edx, DWORD PTR _cur$[ebp]
	cmp	DWORD PTR [edx+48], 0
	je	$LN19@xmlSearchN

; 8374 : 		for (ns = cur->nsDef; ns != NULL; ns = ns->next) {

	mov	eax, DWORD PTR _cur$[ebp]
	mov	ecx, DWORD PTR [eax+48]
	mov	DWORD PTR _ns$[ebp], ecx
	jmp	SHORT $LN7@xmlSearchN
$LN5@xmlSearchN:
	mov	edx, DWORD PTR _ns$[ebp]
	mov	eax, DWORD PTR [edx]
	mov	DWORD PTR _ns$[ebp], eax
$LN7@xmlSearchN:
	cmp	DWORD PTR _ns$[ebp], 0
	je	$LN6@xmlSearchN

; 8375 : 		    if (prefixed && (ns->prefix == NULL))

	cmp	DWORD PTR _prefixed$[ebp], 0
	je	SHORT $LN20@xmlSearchN
	mov	ecx, DWORD PTR _ns$[ebp]
	cmp	DWORD PTR [ecx+12], 0
	jne	SHORT $LN20@xmlSearchN

; 8376 : 			continue;

	jmp	SHORT $LN5@xmlSearchN
$LN20@xmlSearchN:

; 8377 : 		    if (prev != NULL) {

	cmp	DWORD PTR _prev$[ebp], 0
	je	SHORT $LN21@xmlSearchN

; 8378 : 			/*
; 8379 : 			* Check the last level of ns-decls for a
; 8380 : 			* shadowing prefix.
; 8381 : 			*/
; 8382 : 			prevns = prev->nsDef;

	mov	edx, DWORD PTR _prev$[ebp]
	mov	eax, DWORD PTR [edx+48]
	mov	DWORD PTR _prevns$[ebp], eax
$LN10@xmlSearchN:

; 8383 : 			do {
; 8384 : 			    if ((prevns->prefix == ns->prefix) ||

	mov	ecx, DWORD PTR _prevns$[ebp]
	mov	edx, DWORD PTR _ns$[ebp]
	mov	eax, DWORD PTR [ecx+12]
	cmp	eax, DWORD PTR [edx+12]
	je	SHORT $LN23@xmlSearchN
	mov	ecx, DWORD PTR _prevns$[ebp]
	cmp	DWORD PTR [ecx+12], 0
	je	SHORT $LN22@xmlSearchN
	mov	edx, DWORD PTR _ns$[ebp]
	cmp	DWORD PTR [edx+12], 0
	je	SHORT $LN22@xmlSearchN
	mov	eax, DWORD PTR _ns$[ebp]
	mov	ecx, DWORD PTR [eax+12]
	push	ecx
	mov	edx, DWORD PTR _prevns$[ebp]
	mov	eax, DWORD PTR [edx+12]
	push	eax
	call	_xmlStrEqual
	add	esp, 8
	test	eax, eax
	je	SHORT $LN22@xmlSearchN
$LN23@xmlSearchN:

; 8385 : 				((prevns->prefix != NULL) &&
; 8386 : 				(ns->prefix != NULL) &&
; 8387 : 				xmlStrEqual(prevns->prefix, ns->prefix))) {
; 8388 : 				/*
; 8389 : 				* Shadowed.
; 8390 : 				*/
; 8391 : 				break;

	jmp	SHORT $LN9@xmlSearchN
$LN22@xmlSearchN:

; 8392 : 			    }
; 8393 : 			    prevns = prevns->next;

	mov	ecx, DWORD PTR _prevns$[ebp]
	mov	edx, DWORD PTR [ecx]
	mov	DWORD PTR _prevns$[ebp], edx

; 8394 : 			} while (prevns != NULL);

	cmp	DWORD PTR _prevns$[ebp], 0
	jne	SHORT $LN10@xmlSearchN
$LN9@xmlSearchN:

; 8395 : 			if (prevns != NULL)

	cmp	DWORD PTR _prevns$[ebp], 0
	je	SHORT $LN21@xmlSearchN

; 8396 : 			    continue;

	jmp	$LN5@xmlSearchN
$LN21@xmlSearchN:

; 8397 : 		    }
; 8398 : 		    /*
; 8399 : 		    * Ns-name comparison.
; 8400 : 		    */
; 8401 : 		    if ((nsName == ns->href) ||

	mov	eax, DWORD PTR _ns$[ebp]
	mov	ecx, DWORD PTR _nsName$[ebp]
	cmp	ecx, DWORD PTR [eax+8]
	je	SHORT $LN26@xmlSearchN
	mov	edx, DWORD PTR _ns$[ebp]
	mov	eax, DWORD PTR [edx+8]
	push	eax
	mov	ecx, DWORD PTR _nsName$[ebp]
	push	ecx
	call	_xmlStrEqual
	add	esp, 8
	test	eax, eax
	je	SHORT $LN25@xmlSearchN
$LN26@xmlSearchN:

; 8402 : 			xmlStrEqual(nsName, ns->href)) {
; 8403 : 			/*
; 8404 : 			* At this point the prefix can only be shadowed,
; 8405 : 			* if we are the the (at least) 3rd level of
; 8406 : 			* ns-decls.
; 8407 : 			*/
; 8408 : 			if (out) {

	cmp	DWORD PTR _out$[ebp], 0
	je	SHORT $LN27@xmlSearchN

; 8409 : 			    int ret;
; 8410 : 
; 8411 : 			    ret = xmlNsInScope(doc, node, prev, ns->prefix);

	mov	edx, DWORD PTR _ns$[ebp]
	mov	eax, DWORD PTR [edx+12]
	push	eax
	mov	ecx, DWORD PTR _prev$[ebp]
	push	ecx
	mov	edx, DWORD PTR _node$[ebp]
	push	edx
	mov	eax, DWORD PTR _doc$[ebp]
	push	eax
	call	_xmlNsInScope
	add	esp, 16					; 00000010H
	mov	DWORD PTR _ret$1[ebp], eax

; 8412 : 			    if (ret < 0)

	cmp	DWORD PTR _ret$1[ebp], 0
	jge	SHORT $LN28@xmlSearchN

; 8413 : 				return (-1);

	or	eax, -1
	jmp	SHORT $LN1@xmlSearchN
$LN28@xmlSearchN:

; 8414 : 			    /*
; 8415 : 			    * TODO: Should we try to find a matching ns-name
; 8416 : 			    * only once? This here keeps on searching.
; 8417 : 			    * I think we should try further since, there might
; 8418 : 			    * be an other matching ns-decl with an unshadowed
; 8419 : 			    * prefix.
; 8420 : 			    */
; 8421 : 			    if (! ret)

	cmp	DWORD PTR _ret$1[ebp], 0
	jne	SHORT $LN27@xmlSearchN

; 8422 : 				continue;

	jmp	$LN5@xmlSearchN
$LN27@xmlSearchN:

; 8423 : 			}
; 8424 : 			*retNs = ns;

	mov	ecx, DWORD PTR _retNs$[ebp]
	mov	edx, DWORD PTR _ns$[ebp]
	mov	DWORD PTR [ecx], edx

; 8425 : 			return (1);

	mov	eax, 1
	jmp	SHORT $LN1@xmlSearchN
$LN25@xmlSearchN:

; 8426 : 		    }
; 8427 : 		}

	jmp	$LN5@xmlSearchN
$LN6@xmlSearchN:

; 8428 : 		out = prev;

	mov	eax, DWORD PTR _prev$[ebp]
	mov	DWORD PTR _out$[ebp], eax

; 8429 : 		prev = cur;

	mov	ecx, DWORD PTR _cur$[ebp]
	mov	DWORD PTR _prev$[ebp], ecx
$LN19@xmlSearchN:

; 8430 : 	    }

	jmp	SHORT $LN18@xmlSearchN
$LN17@xmlSearchN:

; 8431 : 	} else if ((cur->type == XML_ENTITY_NODE) ||

	mov	edx, DWORD PTR _cur$[ebp]
	cmp	DWORD PTR [edx+4], 6
	je	SHORT $LN31@xmlSearchN
	mov	eax, DWORD PTR _cur$[ebp]
	cmp	DWORD PTR [eax+4], 17			; 00000011H
	jne	SHORT $LN18@xmlSearchN
$LN31@xmlSearchN:

; 8432 :             (cur->type == XML_ENTITY_DECL))
; 8433 : 	    return (0);

	xor	eax, eax
	jmp	SHORT $LN1@xmlSearchN
$LN18@xmlSearchN:

; 8434 : 	cur = cur->parent;

	mov	ecx, DWORD PTR _cur$[ebp]
	mov	edx, DWORD PTR [ecx+20]
	mov	DWORD PTR _cur$[ebp], edx

; 8435 :     } while ((cur != NULL) && (cur->doc != (xmlDocPtr) cur));

	cmp	DWORD PTR _cur$[ebp], 0
	je	SHORT $LN3@xmlSearchN
	mov	eax, DWORD PTR _cur$[ebp]
	mov	ecx, DWORD PTR [eax+32]
	cmp	ecx, DWORD PTR _cur$[ebp]
	jne	$LN4@xmlSearchN
$LN3@xmlSearchN:

; 8436 :     return (0);

	xor	eax, eax
$LN1@xmlSearchN:

; 8437 : }

	add	esp, 24					; 00000018H
	cmp	ebp, esp
	call	__RTC_CheckEsp
	mov	esp, ebp
	pop	ebp
	ret	0
_xmlSearchNsByNamespaceStrict ENDP
_TEXT	ENDS
; Function compile flags: /Odtp /RTCsu
; File c:\users\dag\documents\_clients\codeproject authors group\windows on arm\libxml2\libxml2-2.9.9\tree.c
;	COMDAT _xmlDOMWrapNSNormAddNsMapItem2
_TEXT	SEGMENT
_list$ = 8						; size = 4
_size$ = 12						; size = 4
_number$ = 16						; size = 4
_oldNs$ = 20						; size = 4
_newNs$ = 24						; size = 4
_xmlDOMWrapNSNormAddNsMapItem2 PROC			; COMDAT

; 8176 : {

	push	ebp
	mov	ebp, esp
	push	esi
	mov	ecx, OFFSET __59973643_tree@c
	call	@__CheckForDebuggerJustMyCode@4

; 8177 :     if (*list == NULL) {

	mov	eax, DWORD PTR _list$[ebp]
	cmp	DWORD PTR [eax], 0
	jne	SHORT $LN2@xmlDOMWrap

; 8178 : 	*list = (xmlNsPtr *) xmlMalloc(6 * sizeof(xmlNsPtr));

	mov	esi, esp
	push	24					; 00000018H
	call	DWORD PTR _xmlMalloc
	add	esp, 4
	cmp	esi, esp
	call	__RTC_CheckEsp
	mov	ecx, DWORD PTR _list$[ebp]
	mov	DWORD PTR [ecx], eax

; 8179 : 	if (*list == NULL) {

	mov	edx, DWORD PTR _list$[ebp]
	cmp	DWORD PTR [edx], 0
	jne	SHORT $LN4@xmlDOMWrap

; 8180 : 	    xmlTreeErrMemory("alloc ns map item");

	push	OFFSET ??_C@_0BC@OAPAONED@alloc?5ns?5map?5item@
	call	_xmlTreeErrMemory
	add	esp, 4

; 8181 : 	    return(-1);

	or	eax, -1
	jmp	$LN1@xmlDOMWrap
$LN4@xmlDOMWrap:

; 8182 : 	}
; 8183 : 	*size = 3;

	mov	eax, DWORD PTR _size$[ebp]
	mov	DWORD PTR [eax], 3

; 8184 : 	*number = 0;

	mov	ecx, DWORD PTR _number$[ebp]
	mov	DWORD PTR [ecx], 0
	jmp	SHORT $LN3@xmlDOMWrap
$LN2@xmlDOMWrap:

; 8185 :     } else if ((*number) >= (*size)) {

	mov	edx, DWORD PTR _number$[ebp]
	mov	eax, DWORD PTR _size$[ebp]
	mov	ecx, DWORD PTR [edx]
	cmp	ecx, DWORD PTR [eax]
	jl	SHORT $LN3@xmlDOMWrap

; 8186 : 	*size *= 2;

	mov	edx, DWORD PTR _size$[ebp]
	mov	eax, DWORD PTR [edx]
	shl	eax, 1
	mov	ecx, DWORD PTR _size$[ebp]
	mov	DWORD PTR [ecx], eax

; 8187 : 	*list = (xmlNsPtr *) xmlRealloc(*list,

	mov	edx, DWORD PTR _size$[ebp]
	mov	eax, DWORD PTR [edx]
	shl	eax, 1
	shl	eax, 2
	mov	esi, esp
	push	eax
	mov	ecx, DWORD PTR _list$[ebp]
	mov	edx, DWORD PTR [ecx]
	push	edx
	call	DWORD PTR _xmlRealloc
	add	esp, 8
	cmp	esi, esp
	call	__RTC_CheckEsp
	mov	ecx, DWORD PTR _list$[ebp]
	mov	DWORD PTR [ecx], eax

; 8188 : 	    (*size) * 2 * sizeof(xmlNsPtr));
; 8189 : 	if (*list == NULL) {

	mov	edx, DWORD PTR _list$[ebp]
	cmp	DWORD PTR [edx], 0
	jne	SHORT $LN3@xmlDOMWrap

; 8190 : 	    xmlTreeErrMemory("realloc ns map item");

	push	OFFSET ??_C@_0BE@NIDEIDLB@realloc?5ns?5map?5item@
	call	_xmlTreeErrMemory
	add	esp, 4

; 8191 : 	    return(-1);

	or	eax, -1
	jmp	SHORT $LN1@xmlDOMWrap
$LN3@xmlDOMWrap:

; 8192 : 	}
; 8193 :     }
; 8194 :     (*list)[2 * (*number)] = oldNs;

	mov	eax, DWORD PTR _number$[ebp]
	mov	ecx, DWORD PTR [eax]
	shl	ecx, 1
	mov	edx, DWORD PTR _list$[ebp]
	mov	eax, DWORD PTR [edx]
	mov	edx, DWORD PTR _oldNs$[ebp]
	mov	DWORD PTR [eax+ecx*4], edx

; 8195 :     (*list)[2 * (*number) +1] = newNs;

	mov	eax, DWORD PTR _number$[ebp]
	mov	ecx, DWORD PTR [eax]
	shl	ecx, 1
	mov	edx, DWORD PTR _list$[ebp]
	mov	eax, DWORD PTR [edx]
	mov	edx, DWORD PTR _newNs$[ebp]
	mov	DWORD PTR [eax+ecx*4+4], edx

; 8196 :     (*number)++;

	mov	eax, DWORD PTR _number$[ebp]
	mov	ecx, DWORD PTR [eax]
	add	ecx, 1
	mov	edx, DWORD PTR _number$[ebp]
	mov	DWORD PTR [edx], ecx

; 8197 :     return (0);

	xor	eax, eax
$LN1@xmlDOMWrap:

; 8198 : }

	pop	esi
	cmp	ebp, esp
	call	__RTC_CheckEsp
	pop	ebp
	ret	0
_xmlDOMWrapNSNormAddNsMapItem2 ENDP
_TEXT	ENDS
; Function compile flags: /Odtp /RTCsu
; File c:\users\dag\documents\_clients\codeproject authors group\windows on arm\libxml2\libxml2-2.9.9\tree.c
;	COMDAT _xmlDOMWrapNSNormGatherInScopeNs
_TEXT	SEGMENT
_shadowed$ = -16					; size = 4
_mi$ = -12						; size = 4
_ns$ = -8						; size = 4
_cur$ = -4						; size = 4
_map$ = 8						; size = 4
_node$ = 12						; size = 4
_xmlDOMWrapNSNormGatherInScopeNs PROC			; COMDAT

; 8083 : {

	push	ebp
	mov	ebp, esp
	sub	esp, 16					; 00000010H
	mov	eax, -858993460				; ccccccccH
	mov	DWORD PTR [ebp-16], eax
	mov	DWORD PTR [ebp-12], eax
	mov	DWORD PTR [ebp-8], eax
	mov	DWORD PTR [ebp-4], eax
	mov	ecx, OFFSET __59973643_tree@c
	call	@__CheckForDebuggerJustMyCode@4

; 8084 :     xmlNodePtr cur;
; 8085 :     xmlNsPtr ns;
; 8086 :     xmlNsMapItemPtr mi;
; 8087 :     int shadowed;
; 8088 : 
; 8089 :     if ((map == NULL) || (*map != NULL))

	cmp	DWORD PTR _map$[ebp], 0
	je	SHORT $LN11@xmlDOMWrap
	mov	eax, DWORD PTR _map$[ebp]
	cmp	DWORD PTR [eax], 0
	je	SHORT $LN10@xmlDOMWrap
$LN11@xmlDOMWrap:

; 8090 : 	return (-1);

	or	eax, -1
	jmp	$LN1@xmlDOMWrap
$LN10@xmlDOMWrap:

; 8091 :     if ((node == NULL) || (node->type == XML_NAMESPACE_DECL))

	cmp	DWORD PTR _node$[ebp], 0
	je	SHORT $LN13@xmlDOMWrap
	mov	ecx, DWORD PTR _node$[ebp]
	cmp	DWORD PTR [ecx+4], 18			; 00000012H
	jne	SHORT $LN12@xmlDOMWrap
$LN13@xmlDOMWrap:

; 8092 :         return (-1);

	or	eax, -1
	jmp	$LN1@xmlDOMWrap
$LN12@xmlDOMWrap:

; 8093 :     /*
; 8094 :     * Get in-scope ns-decls of @parent.
; 8095 :     */
; 8096 :     cur = node;

	mov	edx, DWORD PTR _node$[ebp]
	mov	DWORD PTR _cur$[ebp], edx
$LN2@xmlDOMWrap:

; 8097 :     while ((cur != NULL) && (cur != (xmlNodePtr) cur->doc)) {

	cmp	DWORD PTR _cur$[ebp], 0
	je	$LN3@xmlDOMWrap
	mov	eax, DWORD PTR _cur$[ebp]
	mov	ecx, DWORD PTR _cur$[ebp]
	cmp	ecx, DWORD PTR [eax+32]
	je	$LN3@xmlDOMWrap

; 8098 : 	if (cur->type == XML_ELEMENT_NODE) {

	mov	edx, DWORD PTR _cur$[ebp]
	cmp	DWORD PTR [edx+4], 1
	jne	$LN14@xmlDOMWrap

; 8099 : 	    if (cur->nsDef != NULL) {

	mov	eax, DWORD PTR _cur$[ebp]
	cmp	DWORD PTR [eax+48], 0
	je	$LN14@xmlDOMWrap

; 8100 : 		ns = cur->nsDef;

	mov	ecx, DWORD PTR _cur$[ebp]
	mov	edx, DWORD PTR [ecx+48]
	mov	DWORD PTR _ns$[ebp], edx
$LN6@xmlDOMWrap:

; 8101 : 		do {
; 8102 : 		    shadowed = 0;

	mov	DWORD PTR _shadowed$[ebp], 0

; 8103 : 		    if (XML_NSMAP_NOTEMPTY(*map)) {

	mov	eax, DWORD PTR _map$[ebp]
	cmp	DWORD PTR [eax], 0
	je	SHORT $LN16@xmlDOMWrap
	mov	ecx, DWORD PTR _map$[ebp]
	mov	edx, DWORD PTR [ecx]
	cmp	DWORD PTR [edx], 0
	je	SHORT $LN16@xmlDOMWrap

; 8104 : 			/*
; 8105 : 			* Skip shadowed prefixes.
; 8106 : 			*/
; 8107 : 			XML_NSMAP_FOREACH(*map, mi) {

	mov	eax, DWORD PTR _map$[ebp]
	mov	ecx, DWORD PTR [eax]
	mov	edx, DWORD PTR [ecx]
	mov	DWORD PTR _mi$[ebp], edx
	jmp	SHORT $LN9@xmlDOMWrap
$LN7@xmlDOMWrap:
	mov	eax, DWORD PTR _mi$[ebp]
	mov	ecx, DWORD PTR [eax]
	mov	DWORD PTR _mi$[ebp], ecx
$LN9@xmlDOMWrap:
	cmp	DWORD PTR _mi$[ebp], 0
	je	SHORT $LN16@xmlDOMWrap

; 8108 : 			    if ((ns->prefix == mi->newNs->prefix) ||

	mov	edx, DWORD PTR _mi$[ebp]
	mov	eax, DWORD PTR [edx+12]
	mov	ecx, DWORD PTR _ns$[ebp]
	mov	edx, DWORD PTR [ecx+12]
	cmp	edx, DWORD PTR [eax+12]
	je	SHORT $LN18@xmlDOMWrap
	mov	eax, DWORD PTR _mi$[ebp]
	mov	ecx, DWORD PTR [eax+12]
	mov	edx, DWORD PTR [ecx+12]
	push	edx
	mov	eax, DWORD PTR _ns$[ebp]
	mov	ecx, DWORD PTR [eax+12]
	push	ecx
	call	_xmlStrEqual
	add	esp, 8
	test	eax, eax
	je	SHORT $LN17@xmlDOMWrap
$LN18@xmlDOMWrap:

; 8109 : 				xmlStrEqual(ns->prefix, mi->newNs->prefix)) {
; 8110 : 				shadowed = 1;

	mov	DWORD PTR _shadowed$[ebp], 1

; 8111 : 				break;

	jmp	SHORT $LN16@xmlDOMWrap
$LN17@xmlDOMWrap:

; 8112 : 			    }
; 8113 : 			}

	jmp	SHORT $LN7@xmlDOMWrap
$LN16@xmlDOMWrap:

; 8114 : 		    }
; 8115 : 		    /*
; 8116 : 		    * Insert mapping.
; 8117 : 		    */
; 8118 : 		    mi = xmlDOMWrapNsMapAddItem(map, 0, NULL,

	push	-1
	mov	edx, DWORD PTR _ns$[ebp]
	push	edx
	push	0
	push	0
	mov	eax, DWORD PTR _map$[ebp]
	push	eax
	call	_xmlDOMWrapNsMapAddItem
	add	esp, 20					; 00000014H
	mov	DWORD PTR _mi$[ebp], eax

; 8119 : 			ns, XML_TREE_NSMAP_PARENT);
; 8120 : 		    if (mi == NULL)

	cmp	DWORD PTR _mi$[ebp], 0
	jne	SHORT $LN19@xmlDOMWrap

; 8121 : 			return (-1);

	or	eax, -1
	jmp	SHORT $LN1@xmlDOMWrap
$LN19@xmlDOMWrap:

; 8122 : 		    if (shadowed)

	cmp	DWORD PTR _shadowed$[ebp], 0
	je	SHORT $LN20@xmlDOMWrap

; 8123 : 			mi->shadowDepth = 0;

	mov	ecx, DWORD PTR _mi$[ebp]
	mov	DWORD PTR [ecx+16], 0
$LN20@xmlDOMWrap:

; 8124 : 		    ns = ns->next;

	mov	edx, DWORD PTR _ns$[ebp]
	mov	eax, DWORD PTR [edx]
	mov	DWORD PTR _ns$[ebp], eax

; 8125 : 		} while (ns != NULL);

	cmp	DWORD PTR _ns$[ebp], 0
	jne	$LN6@xmlDOMWrap
$LN14@xmlDOMWrap:

; 8126 : 	    }
; 8127 : 	}
; 8128 : 	cur = cur->parent;

	mov	ecx, DWORD PTR _cur$[ebp]
	mov	edx, DWORD PTR [ecx+20]
	mov	DWORD PTR _cur$[ebp], edx

; 8129 :     }

	jmp	$LN2@xmlDOMWrap
$LN3@xmlDOMWrap:

; 8130 :     return (0);

	xor	eax, eax
$LN1@xmlDOMWrap:

; 8131 : }

	add	esp, 16					; 00000010H
	cmp	ebp, esp
	call	__RTC_CheckEsp
	mov	esp, ebp
	pop	ebp
	ret	0
_xmlDOMWrapNSNormGatherInScopeNs ENDP
_TEXT	ENDS
; Function compile flags: /Odtp /RTCsu
; File c:\users\dag\documents\_clients\codeproject authors group\windows on arm\libxml2\libxml2-2.9.9\tree.c
;	COMDAT _xmlTreeNSListLookupByPrefix
_TEXT	SEGMENT
_ns$1 = -4						; size = 4
_nsList$ = 8						; size = 4
_prefix$ = 12						; size = 4
_xmlTreeNSListLookupByPrefix PROC			; COMDAT

; 8053 : {

	push	ebp
	mov	ebp, esp
	push	ecx
	mov	DWORD PTR [ebp-4], -858993460		; ccccccccH
	mov	ecx, OFFSET __59973643_tree@c
	call	@__CheckForDebuggerJustMyCode@4

; 8054 :     if (nsList == NULL)

	cmp	DWORD PTR _nsList$[ebp], 0
	jne	SHORT $LN5@xmlTreeNSL

; 8055 : 	return (NULL);

	xor	eax, eax
	jmp	SHORT $LN1@xmlTreeNSL
$LN5@xmlTreeNSL:

; 8056 :     {
; 8057 : 	xmlNsPtr ns;
; 8058 : 	ns = nsList;

	mov	eax, DWORD PTR _nsList$[ebp]
	mov	DWORD PTR _ns$1[ebp], eax
$LN4@xmlTreeNSL:

; 8059 : 	do {
; 8060 : 	    if ((prefix == ns->prefix) ||

	mov	ecx, DWORD PTR _ns$1[ebp]
	mov	edx, DWORD PTR _prefix$[ebp]
	cmp	edx, DWORD PTR [ecx+12]
	je	SHORT $LN7@xmlTreeNSL
	mov	eax, DWORD PTR _ns$1[ebp]
	mov	ecx, DWORD PTR [eax+12]
	push	ecx
	mov	edx, DWORD PTR _prefix$[ebp]
	push	edx
	call	_xmlStrEqual
	add	esp, 8
	test	eax, eax
	je	SHORT $LN6@xmlTreeNSL
$LN7@xmlTreeNSL:

; 8061 : 		xmlStrEqual(prefix, ns->prefix)) {
; 8062 : 		return (ns);

	mov	eax, DWORD PTR _ns$1[ebp]
	jmp	SHORT $LN1@xmlTreeNSL
$LN6@xmlTreeNSL:

; 8063 : 	    }
; 8064 : 	    ns = ns->next;

	mov	eax, DWORD PTR _ns$1[ebp]
	mov	ecx, DWORD PTR [eax]
	mov	DWORD PTR _ns$1[ebp], ecx

; 8065 : 	} while (ns != NULL);

	cmp	DWORD PTR _ns$1[ebp], 0
	jne	SHORT $LN4@xmlTreeNSL

; 8066 :     }
; 8067 :     return (NULL);

	xor	eax, eax
$LN1@xmlTreeNSL:

; 8068 : }

	add	esp, 4
	cmp	ebp, esp
	call	__RTC_CheckEsp
	mov	esp, ebp
	pop	ebp
	ret	0
_xmlTreeNSListLookupByPrefix ENDP
_TEXT	ENDS
; Function compile flags: /Odtp /RTCsu
; File c:\users\dag\documents\_clients\codeproject authors group\windows on arm\libxml2\libxml2-2.9.9\tree.c
;	COMDAT _xmlDOMWrapStoreNs
_TEXT	SEGMENT
_ns$ = -4						; size = 4
_doc$ = 8						; size = 4
_nsName$ = 12						; size = 4
_prefix$ = 16						; size = 4
_xmlDOMWrapStoreNs PROC					; COMDAT

; 7971 : {

	push	ebp
	mov	ebp, esp
	push	ecx
	mov	DWORD PTR [ebp-4], -858993460		; ccccccccH
	mov	ecx, OFFSET __59973643_tree@c
	call	@__CheckForDebuggerJustMyCode@4

; 7972 :     xmlNsPtr ns;
; 7973 : 
; 7974 :     if (doc == NULL)

	cmp	DWORD PTR _doc$[ebp], 0
	jne	SHORT $LN4@xmlDOMWrap

; 7975 : 	return (NULL);

	xor	eax, eax
	jmp	$LN1@xmlDOMWrap
$LN4@xmlDOMWrap:

; 7976 :     ns = xmlTreeEnsureXMLDecl(doc);

	mov	eax, DWORD PTR _doc$[ebp]
	push	eax
	call	_xmlTreeEnsureXMLDecl
	add	esp, 4
	mov	DWORD PTR _ns$[ebp], eax

; 7977 :     if (ns == NULL)

	cmp	DWORD PTR _ns$[ebp], 0
	jne	SHORT $LN5@xmlDOMWrap

; 7978 : 	return (NULL);

	xor	eax, eax
	jmp	$LN1@xmlDOMWrap
$LN5@xmlDOMWrap:

; 7979 :     if (ns->next != NULL) {

	mov	ecx, DWORD PTR _ns$[ebp]
	cmp	DWORD PTR [ecx], 0
	je	SHORT $LN6@xmlDOMWrap

; 7980 : 	/* Reuse. */
; 7981 : 	ns = ns->next;

	mov	edx, DWORD PTR _ns$[ebp]
	mov	eax, DWORD PTR [edx]
	mov	DWORD PTR _ns$[ebp], eax
$LN2@xmlDOMWrap:

; 7982 : 	while (ns != NULL) {

	cmp	DWORD PTR _ns$[ebp], 0
	je	SHORT $LN6@xmlDOMWrap

; 7983 : 	    if (((ns->prefix == prefix) ||
; 7984 : 		xmlStrEqual(ns->prefix, prefix)) &&

	mov	ecx, DWORD PTR _ns$[ebp]
	mov	edx, DWORD PTR [ecx+12]
	cmp	edx, DWORD PTR _prefix$[ebp]
	je	SHORT $LN8@xmlDOMWrap
	mov	eax, DWORD PTR _prefix$[ebp]
	push	eax
	mov	ecx, DWORD PTR _ns$[ebp]
	mov	edx, DWORD PTR [ecx+12]
	push	edx
	call	_xmlStrEqual
	add	esp, 8
	test	eax, eax
	je	SHORT $LN7@xmlDOMWrap
$LN8@xmlDOMWrap:
	mov	eax, DWORD PTR _nsName$[ebp]
	push	eax
	mov	ecx, DWORD PTR _ns$[ebp]
	mov	edx, DWORD PTR [ecx+8]
	push	edx
	call	_xmlStrEqual
	add	esp, 8
	test	eax, eax
	je	SHORT $LN7@xmlDOMWrap

; 7985 : 		xmlStrEqual(ns->href, nsName)) {
; 7986 : 		return (ns);

	mov	eax, DWORD PTR _ns$[ebp]
	jmp	SHORT $LN1@xmlDOMWrap
$LN7@xmlDOMWrap:

; 7987 : 	    }
; 7988 : 	    if (ns->next == NULL)

	mov	eax, DWORD PTR _ns$[ebp]
	cmp	DWORD PTR [eax], 0
	jne	SHORT $LN9@xmlDOMWrap

; 7989 : 		break;

	jmp	SHORT $LN6@xmlDOMWrap
$LN9@xmlDOMWrap:

; 7990 : 	    ns = ns->next;

	mov	ecx, DWORD PTR _ns$[ebp]
	mov	edx, DWORD PTR [ecx]
	mov	DWORD PTR _ns$[ebp], edx

; 7991 : 	}

	jmp	SHORT $LN2@xmlDOMWrap
$LN6@xmlDOMWrap:

; 7992 :     }
; 7993 :     /* Create. */
; 7994 :     if (ns != NULL) {

	cmp	DWORD PTR _ns$[ebp], 0
	je	SHORT $LN10@xmlDOMWrap

; 7995 :         ns->next = xmlNewNs(NULL, nsName, prefix);

	mov	eax, DWORD PTR _prefix$[ebp]
	push	eax
	mov	ecx, DWORD PTR _nsName$[ebp]
	push	ecx
	push	0
	call	_xmlNewNs
	add	esp, 12					; 0000000cH
	mov	edx, DWORD PTR _ns$[ebp]
	mov	DWORD PTR [edx], eax

; 7996 :         return (ns->next);

	mov	eax, DWORD PTR _ns$[ebp]
	mov	eax, DWORD PTR [eax]
	jmp	SHORT $LN1@xmlDOMWrap
$LN10@xmlDOMWrap:

; 7997 :     }
; 7998 :     return(NULL);

	xor	eax, eax
$LN1@xmlDOMWrap:

; 7999 : }

	add	esp, 4
	cmp	ebp, esp
	call	__RTC_CheckEsp
	mov	esp, ebp
	pop	ebp
	ret	0
_xmlDOMWrapStoreNs ENDP
_TEXT	ENDS
; Function compile flags: /Odtp /RTCsu
; File c:\users\dag\documents\_clients\codeproject authors group\windows on arm\libxml2\libxml2-2.9.9\tree.c
;	COMDAT _xmlDOMWrapNsMapAddItem
_TEXT	SEGMENT
_map$ = -8						; size = 4
_ret$ = -4						; size = 4
_nsmap$ = 8						; size = 4
_position$ = 12						; size = 4
_oldNs$ = 16						; size = 4
_newNs$ = 20						; size = 4
_depth$ = 24						; size = 4
_xmlDOMWrapNsMapAddItem PROC				; COMDAT

; 7884 : {

	push	ebp
	mov	ebp, esp
	sub	esp, 8
	push	esi
	mov	DWORD PTR [ebp-8], -858993460		; ccccccccH
	mov	DWORD PTR [ebp-4], -858993460		; ccccccccH
	mov	ecx, OFFSET __59973643_tree@c
	call	@__CheckForDebuggerJustMyCode@4

; 7885 :     xmlNsMapItemPtr ret;
; 7886 :     xmlNsMapPtr map;
; 7887 : 
; 7888 :     if (nsmap == NULL)

	cmp	DWORD PTR _nsmap$[ebp], 0
	jne	SHORT $LN2@xmlDOMWrap

; 7889 : 	return(NULL);

	xor	eax, eax
	jmp	$LN1@xmlDOMWrap
$LN2@xmlDOMWrap:

; 7890 :     if ((position != -1) && (position != 0))

	cmp	DWORD PTR _position$[ebp], -1
	je	SHORT $LN3@xmlDOMWrap
	cmp	DWORD PTR _position$[ebp], 0
	je	SHORT $LN3@xmlDOMWrap

; 7891 : 	return(NULL);

	xor	eax, eax
	jmp	$LN1@xmlDOMWrap
$LN3@xmlDOMWrap:

; 7892 :     map = *nsmap;

	mov	eax, DWORD PTR _nsmap$[ebp]
	mov	ecx, DWORD PTR [eax]
	mov	DWORD PTR _map$[ebp], ecx

; 7893 : 
; 7894 :     if (map == NULL) {

	cmp	DWORD PTR _map$[ebp], 0
	jne	SHORT $LN4@xmlDOMWrap

; 7895 : 	/*
; 7896 : 	* Create the ns-map.
; 7897 : 	*/
; 7898 : 	map = (xmlNsMapPtr) xmlMalloc(sizeof(struct xmlNsMap));

	mov	esi, esp
	push	12					; 0000000cH
	call	DWORD PTR _xmlMalloc
	add	esp, 4
	cmp	esi, esp
	call	__RTC_CheckEsp
	mov	DWORD PTR _map$[ebp], eax

; 7899 : 	if (map == NULL) {

	cmp	DWORD PTR _map$[ebp], 0
	jne	SHORT $LN5@xmlDOMWrap

; 7900 : 	    xmlTreeErrMemory("allocating namespace map");

	push	OFFSET ??_C@_0BJ@JOLPDGAP@allocating?5namespace?5map@
	call	_xmlTreeErrMemory
	add	esp, 4

; 7901 : 	    return (NULL);

	xor	eax, eax
	jmp	$LN1@xmlDOMWrap
$LN5@xmlDOMWrap:

; 7902 : 	}
; 7903 : 	memset(map, 0, sizeof(struct xmlNsMap));

	xor	edx, edx
	mov	eax, DWORD PTR _map$[ebp]
	mov	DWORD PTR [eax], edx
	mov	DWORD PTR [eax+4], edx
	mov	DWORD PTR [eax+8], edx

; 7904 : 	*nsmap = map;

	mov	ecx, DWORD PTR _nsmap$[ebp]
	mov	edx, DWORD PTR _map$[ebp]
	mov	DWORD PTR [ecx], edx
$LN4@xmlDOMWrap:

; 7905 :     }
; 7906 : 
; 7907 :     if (map->pool != NULL) {

	mov	eax, DWORD PTR _map$[ebp]
	cmp	DWORD PTR [eax+8], 0
	je	SHORT $LN6@xmlDOMWrap

; 7908 : 	/*
; 7909 : 	* Reuse an item from the pool.
; 7910 : 	*/
; 7911 : 	ret = map->pool;

	mov	ecx, DWORD PTR _map$[ebp]
	mov	edx, DWORD PTR [ecx+8]
	mov	DWORD PTR _ret$[ebp], edx

; 7912 : 	map->pool = ret->next;

	mov	eax, DWORD PTR _map$[ebp]
	mov	ecx, DWORD PTR _ret$[ebp]
	mov	edx, DWORD PTR [ecx]
	mov	DWORD PTR [eax+8], edx

; 7913 : 	memset(ret, 0, sizeof(struct xmlNsMapItem));

	xor	eax, eax
	mov	ecx, DWORD PTR _ret$[ebp]
	mov	DWORD PTR [ecx], eax
	mov	DWORD PTR [ecx+4], eax
	mov	DWORD PTR [ecx+8], eax
	mov	DWORD PTR [ecx+12], eax
	mov	DWORD PTR [ecx+16], eax
	mov	DWORD PTR [ecx+20], eax

; 7914 :     } else {

	jmp	SHORT $LN7@xmlDOMWrap
$LN6@xmlDOMWrap:

; 7915 : 	/*
; 7916 : 	* Create a new item.
; 7917 : 	*/
; 7918 : 	ret = (xmlNsMapItemPtr) xmlMalloc(sizeof(struct xmlNsMapItem));

	mov	esi, esp
	push	24					; 00000018H
	call	DWORD PTR _xmlMalloc
	add	esp, 4
	cmp	esi, esp
	call	__RTC_CheckEsp
	mov	DWORD PTR _ret$[ebp], eax

; 7919 : 	if (ret == NULL) {

	cmp	DWORD PTR _ret$[ebp], 0
	jne	SHORT $LN8@xmlDOMWrap

; 7920 : 	    xmlTreeErrMemory("allocating namespace map item");

	push	OFFSET ??_C@_0BO@JPEMBFPF@allocating?5namespace?5map?5item@
	call	_xmlTreeErrMemory
	add	esp, 4

; 7921 : 	    return (NULL);

	xor	eax, eax
	jmp	$LN1@xmlDOMWrap
$LN8@xmlDOMWrap:

; 7922 : 	}
; 7923 : 	memset(ret, 0, sizeof(struct xmlNsMapItem));

	xor	edx, edx
	mov	eax, DWORD PTR _ret$[ebp]
	mov	DWORD PTR [eax], edx
	mov	DWORD PTR [eax+4], edx
	mov	DWORD PTR [eax+8], edx
	mov	DWORD PTR [eax+12], edx
	mov	DWORD PTR [eax+16], edx
	mov	DWORD PTR [eax+20], edx
$LN7@xmlDOMWrap:

; 7924 :     }
; 7925 : 
; 7926 :     if (map->first == NULL) {

	mov	ecx, DWORD PTR _map$[ebp]
	cmp	DWORD PTR [ecx], 0
	jne	SHORT $LN9@xmlDOMWrap

; 7927 : 	/*
; 7928 : 	* First ever.
; 7929 : 	*/
; 7930 : 	map->first = ret;

	mov	edx, DWORD PTR _map$[ebp]
	mov	eax, DWORD PTR _ret$[ebp]
	mov	DWORD PTR [edx], eax

; 7931 : 	map->last = ret;

	mov	ecx, DWORD PTR _map$[ebp]
	mov	edx, DWORD PTR _ret$[ebp]
	mov	DWORD PTR [ecx+4], edx
	jmp	SHORT $LN10@xmlDOMWrap
$LN9@xmlDOMWrap:

; 7932 :     } else if (position == -1) {

	cmp	DWORD PTR _position$[ebp], -1
	jne	SHORT $LN11@xmlDOMWrap

; 7933 : 	/*
; 7934 : 	* Append.
; 7935 : 	*/
; 7936 : 	ret->prev = map->last;

	mov	eax, DWORD PTR _ret$[ebp]
	mov	ecx, DWORD PTR _map$[ebp]
	mov	edx, DWORD PTR [ecx+4]
	mov	DWORD PTR [eax+4], edx

; 7937 : 	map->last->next = ret;

	mov	eax, DWORD PTR _map$[ebp]
	mov	ecx, DWORD PTR [eax+4]
	mov	edx, DWORD PTR _ret$[ebp]
	mov	DWORD PTR [ecx], edx

; 7938 : 	map->last = ret;

	mov	eax, DWORD PTR _map$[ebp]
	mov	ecx, DWORD PTR _ret$[ebp]
	mov	DWORD PTR [eax+4], ecx
	jmp	SHORT $LN10@xmlDOMWrap
$LN11@xmlDOMWrap:

; 7939 :     } else if (position == 0) {

	cmp	DWORD PTR _position$[ebp], 0
	jne	SHORT $LN10@xmlDOMWrap

; 7940 : 	/*
; 7941 : 	* Set on first position.
; 7942 : 	*/
; 7943 : 	map->first->prev = ret;

	mov	edx, DWORD PTR _map$[ebp]
	mov	eax, DWORD PTR [edx]
	mov	ecx, DWORD PTR _ret$[ebp]
	mov	DWORD PTR [eax+4], ecx

; 7944 : 	ret->next = map->first;

	mov	edx, DWORD PTR _ret$[ebp]
	mov	eax, DWORD PTR _map$[ebp]
	mov	ecx, DWORD PTR [eax]
	mov	DWORD PTR [edx], ecx

; 7945 : 	map->first = ret;

	mov	edx, DWORD PTR _map$[ebp]
	mov	eax, DWORD PTR _ret$[ebp]
	mov	DWORD PTR [edx], eax
$LN10@xmlDOMWrap:

; 7946 :     }
; 7947 : 
; 7948 :     ret->oldNs = oldNs;

	mov	ecx, DWORD PTR _ret$[ebp]
	mov	edx, DWORD PTR _oldNs$[ebp]
	mov	DWORD PTR [ecx+8], edx

; 7949 :     ret->newNs = newNs;

	mov	eax, DWORD PTR _ret$[ebp]
	mov	ecx, DWORD PTR _newNs$[ebp]
	mov	DWORD PTR [eax+12], ecx

; 7950 :     ret->shadowDepth = -1;

	mov	edx, DWORD PTR _ret$[ebp]
	mov	DWORD PTR [edx+16], -1

; 7951 :     ret->depth = depth;

	mov	eax, DWORD PTR _ret$[ebp]
	mov	ecx, DWORD PTR _depth$[ebp]
	mov	DWORD PTR [eax+20], ecx

; 7952 :     return (ret);

	mov	eax, DWORD PTR _ret$[ebp]
$LN1@xmlDOMWrap:

; 7953 : }

	pop	esi
	add	esp, 8
	cmp	ebp, esp
	call	__RTC_CheckEsp
	mov	esp, ebp
	pop	ebp
	ret	0
_xmlDOMWrapNsMapAddItem ENDP
_TEXT	ENDS
; Function compile flags: /Odtp /RTCsu
; File c:\users\dag\documents\_clients\codeproject authors group\windows on arm\libxml2\libxml2-2.9.9\tree.c
;	COMDAT _xmlDOMWrapNsMapFree
_TEXT	SEGMENT
_tmp$ = -8						; size = 4
_cur$ = -4						; size = 4
_nsmap$ = 8						; size = 4
_xmlDOMWrapNsMapFree PROC				; COMDAT

; 7852 : {

	push	ebp
	mov	ebp, esp
	sub	esp, 8
	push	esi
	mov	DWORD PTR [ebp-8], -858993460		; ccccccccH
	mov	DWORD PTR [ebp-4], -858993460		; ccccccccH
	mov	ecx, OFFSET __59973643_tree@c
	call	@__CheckForDebuggerJustMyCode@4

; 7853 :     xmlNsMapItemPtr cur, tmp;
; 7854 : 
; 7855 :     if (nsmap == NULL)

	cmp	DWORD PTR _nsmap$[ebp], 0
	jne	SHORT $LN6@xmlDOMWrap

; 7856 : 	return;

	jmp	SHORT $LN1@xmlDOMWrap
$LN6@xmlDOMWrap:

; 7857 :     cur = nsmap->pool;

	mov	eax, DWORD PTR _nsmap$[ebp]
	mov	ecx, DWORD PTR [eax+8]
	mov	DWORD PTR _cur$[ebp], ecx
$LN2@xmlDOMWrap:

; 7858 :     while (cur != NULL) {

	cmp	DWORD PTR _cur$[ebp], 0
	je	SHORT $LN3@xmlDOMWrap

; 7859 : 	tmp = cur;

	mov	edx, DWORD PTR _cur$[ebp]
	mov	DWORD PTR _tmp$[ebp], edx

; 7860 : 	cur = cur->next;

	mov	eax, DWORD PTR _cur$[ebp]
	mov	ecx, DWORD PTR [eax]
	mov	DWORD PTR _cur$[ebp], ecx

; 7861 : 	xmlFree(tmp);

	mov	esi, esp
	mov	edx, DWORD PTR _tmp$[ebp]
	push	edx
	call	DWORD PTR _xmlFree
	add	esp, 4
	cmp	esi, esp
	call	__RTC_CheckEsp

; 7862 :     }

	jmp	SHORT $LN2@xmlDOMWrap
$LN3@xmlDOMWrap:

; 7863 :     cur = nsmap->first;

	mov	eax, DWORD PTR _nsmap$[ebp]
	mov	ecx, DWORD PTR [eax]
	mov	DWORD PTR _cur$[ebp], ecx
$LN4@xmlDOMWrap:

; 7864 :     while (cur != NULL) {

	cmp	DWORD PTR _cur$[ebp], 0
	je	SHORT $LN5@xmlDOMWrap

; 7865 : 	tmp = cur;

	mov	edx, DWORD PTR _cur$[ebp]
	mov	DWORD PTR _tmp$[ebp], edx

; 7866 : 	cur = cur->next;

	mov	eax, DWORD PTR _cur$[ebp]
	mov	ecx, DWORD PTR [eax]
	mov	DWORD PTR _cur$[ebp], ecx

; 7867 : 	xmlFree(tmp);

	mov	esi, esp
	mov	edx, DWORD PTR _tmp$[ebp]
	push	edx
	call	DWORD PTR _xmlFree
	add	esp, 4
	cmp	esi, esp
	call	__RTC_CheckEsp

; 7868 :     }

	jmp	SHORT $LN4@xmlDOMWrap
$LN5@xmlDOMWrap:

; 7869 :     xmlFree(nsmap);

	mov	esi, esp
	mov	eax, DWORD PTR _nsmap$[ebp]
	push	eax
	call	DWORD PTR _xmlFree
	add	esp, 4
	cmp	esi, esp
	call	__RTC_CheckEsp
$LN1@xmlDOMWrap:

; 7870 : }

	pop	esi
	add	esp, 8
	cmp	ebp, esp
	call	__RTC_CheckEsp
	mov	esp, ebp
	pop	ebp
	ret	0
_xmlDOMWrapNsMapFree ENDP
_TEXT	ENDS
; Function compile flags: /Odtp /RTCsu
; File c:\users\dag\documents\_clients\codeproject authors group\windows on arm\libxml2\libxml2-2.9.9\tree.c
;	COMDAT _xmlGetPropNodeInternal
_TEXT	SEGMENT
_cur$1 = -28						; size = 4
_nsList$2 = -24						; size = 4
_tmpstr$3 = -20						; size = 4
_elemQName$4 = -16					; size = 4
_attrDecl$5 = -12					; size = 4
_doc$6 = -8						; size = 4
_prop$ = -4						; size = 4
_node$ = 8						; size = 4
_name$ = 12						; size = 4
_nsName$ = 16						; size = 4
_useDTD$ = 20						; size = 4
_xmlGetPropNodeInternal PROC				; COMDAT

; 6483 : {

	push	ebp
	mov	ebp, esp
	sub	esp, 28					; 0000001cH
	push	esi
	mov	eax, -858993460				; ccccccccH
	mov	DWORD PTR [ebp-28], eax
	mov	DWORD PTR [ebp-24], eax
	mov	DWORD PTR [ebp-20], eax
	mov	DWORD PTR [ebp-16], eax
	mov	DWORD PTR [ebp-12], eax
	mov	DWORD PTR [ebp-8], eax
	mov	DWORD PTR [ebp-4], eax
	mov	ecx, OFFSET __59973643_tree@c
	call	@__CheckForDebuggerJustMyCode@4

; 6484 :     xmlAttrPtr prop;
; 6485 : 
; 6486 :     if ((node == NULL) || (node->type != XML_ELEMENT_NODE) || (name == NULL))

	cmp	DWORD PTR _node$[ebp], 0
	je	SHORT $LN11@xmlGetProp
	mov	eax, DWORD PTR _node$[ebp]
	cmp	DWORD PTR [eax+4], 1
	jne	SHORT $LN11@xmlGetProp
	cmp	DWORD PTR _name$[ebp], 0
	jne	SHORT $LN10@xmlGetProp
$LN11@xmlGetProp:

; 6487 : 	return(NULL);

	xor	eax, eax
	jmp	$LN1@xmlGetProp
$LN10@xmlGetProp:

; 6488 : 
; 6489 :     if (node->properties != NULL) {

	mov	ecx, DWORD PTR _node$[ebp]
	cmp	DWORD PTR [ecx+44], 0
	je	$LN12@xmlGetProp

; 6490 : 	prop = node->properties;

	mov	edx, DWORD PTR _node$[ebp]
	mov	eax, DWORD PTR [edx+44]
	mov	DWORD PTR _prop$[ebp], eax

; 6491 : 	if (nsName == NULL) {

	cmp	DWORD PTR _nsName$[ebp], 0
	jne	SHORT $LN7@xmlGetProp
$LN4@xmlGetProp:

; 6492 : 	    /*
; 6493 : 	    * We want the attr to be in no namespace.
; 6494 : 	    */
; 6495 : 	    do {
; 6496 : 		if ((prop->ns == NULL) && xmlStrEqual(prop->name, name)) {

	mov	ecx, DWORD PTR _prop$[ebp]
	cmp	DWORD PTR [ecx+36], 0
	jne	SHORT $LN15@xmlGetProp
	mov	edx, DWORD PTR _name$[ebp]
	push	edx
	mov	eax, DWORD PTR _prop$[ebp]
	mov	ecx, DWORD PTR [eax+8]
	push	ecx
	call	_xmlStrEqual
	add	esp, 8
	test	eax, eax
	je	SHORT $LN15@xmlGetProp

; 6497 : 		    return(prop);

	mov	eax, DWORD PTR _prop$[ebp]
	jmp	$LN1@xmlGetProp
$LN15@xmlGetProp:

; 6498 : 		}
; 6499 : 		prop = prop->next;

	mov	edx, DWORD PTR _prop$[ebp]
	mov	eax, DWORD PTR [edx+24]
	mov	DWORD PTR _prop$[ebp], eax

; 6500 : 	    } while (prop != NULL);

	cmp	DWORD PTR _prop$[ebp], 0
	jne	SHORT $LN4@xmlGetProp

; 6501 : 	} else {

	jmp	SHORT $LN12@xmlGetProp
$LN7@xmlGetProp:

; 6502 : 	    /*
; 6503 : 	    * We want the attr to be in the specified namespace.
; 6504 : 	    */
; 6505 : 	    do {
; 6506 : 		if ((prop->ns != NULL) && xmlStrEqual(prop->name, name) &&

	mov	ecx, DWORD PTR _prop$[ebp]
	cmp	DWORD PTR [ecx+36], 0
	je	SHORT $LN16@xmlGetProp
	mov	edx, DWORD PTR _name$[ebp]
	push	edx
	mov	eax, DWORD PTR _prop$[ebp]
	mov	ecx, DWORD PTR [eax+8]
	push	ecx
	call	_xmlStrEqual
	add	esp, 8
	test	eax, eax
	je	SHORT $LN16@xmlGetProp
	mov	edx, DWORD PTR _prop$[ebp]
	mov	eax, DWORD PTR [edx+36]
	mov	ecx, DWORD PTR [eax+8]
	cmp	ecx, DWORD PTR _nsName$[ebp]
	je	SHORT $LN17@xmlGetProp
	mov	edx, DWORD PTR _nsName$[ebp]
	push	edx
	mov	eax, DWORD PTR _prop$[ebp]
	mov	ecx, DWORD PTR [eax+36]
	mov	edx, DWORD PTR [ecx+8]
	push	edx
	call	_xmlStrEqual
	add	esp, 8
	test	eax, eax
	je	SHORT $LN16@xmlGetProp
$LN17@xmlGetProp:

; 6507 : 		    ((prop->ns->href == nsName) ||
; 6508 : 		     xmlStrEqual(prop->ns->href, nsName)))
; 6509 : 		{
; 6510 : 		    return(prop);

	mov	eax, DWORD PTR _prop$[ebp]
	jmp	$LN1@xmlGetProp
$LN16@xmlGetProp:

; 6511 : 		}
; 6512 : 		prop = prop->next;

	mov	eax, DWORD PTR _prop$[ebp]
	mov	ecx, DWORD PTR [eax+24]
	mov	DWORD PTR _prop$[ebp], ecx

; 6513 : 	    } while (prop != NULL);

	cmp	DWORD PTR _prop$[ebp], 0
	jne	SHORT $LN7@xmlGetProp
$LN12@xmlGetProp:

; 6514 : 	}
; 6515 :     }
; 6516 : 
; 6517 : #ifdef LIBXML_TREE_ENABLED
; 6518 :     if (! useDTD)

	cmp	DWORD PTR _useDTD$[ebp], 0
	jne	SHORT $LN18@xmlGetProp

; 6519 : 	return(NULL);

	xor	eax, eax
	jmp	$LN1@xmlGetProp
$LN18@xmlGetProp:

; 6520 :     /*
; 6521 :      * Check if there is a default/fixed attribute declaration in
; 6522 :      * the internal or external subset.
; 6523 :      */
; 6524 :     if ((node->doc != NULL) && (node->doc->intSubset != NULL)) {

	mov	edx, DWORD PTR _node$[ebp]
	cmp	DWORD PTR [edx+32], 0
	je	$LN19@xmlGetProp
	mov	eax, DWORD PTR _node$[ebp]
	mov	ecx, DWORD PTR [eax+32]
	cmp	DWORD PTR [ecx+44], 0
	je	$LN19@xmlGetProp

; 6525 : 	xmlDocPtr doc = node->doc;

	mov	edx, DWORD PTR _node$[ebp]
	mov	eax, DWORD PTR [edx+32]
	mov	DWORD PTR _doc$6[ebp], eax

; 6526 : 	xmlAttributePtr attrDecl = NULL;

	mov	DWORD PTR _attrDecl$5[ebp], 0

; 6527 : 	xmlChar *elemQName, *tmpstr = NULL;

	mov	DWORD PTR _tmpstr$3[ebp], 0

; 6528 : 
; 6529 : 	/*
; 6530 : 	* We need the QName of the element for the DTD-lookup.
; 6531 : 	*/
; 6532 : 	if ((node->ns != NULL) && (node->ns->prefix != NULL)) {

	mov	ecx, DWORD PTR _node$[ebp]
	cmp	DWORD PTR [ecx+36], 0
	je	SHORT $LN20@xmlGetProp
	mov	edx, DWORD PTR _node$[ebp]
	mov	eax, DWORD PTR [edx+36]
	cmp	DWORD PTR [eax+12], 0
	je	SHORT $LN20@xmlGetProp

; 6533 : 	    tmpstr = xmlStrdup(node->ns->prefix);

	mov	ecx, DWORD PTR _node$[ebp]
	mov	edx, DWORD PTR [ecx+36]
	mov	eax, DWORD PTR [edx+12]
	push	eax
	call	_xmlStrdup
	add	esp, 4
	mov	DWORD PTR _tmpstr$3[ebp], eax

; 6534 : 	    tmpstr = xmlStrcat(tmpstr, BAD_CAST ":");

	push	OFFSET ??_C@_01JLIPDDHJ@?3@
	mov	ecx, DWORD PTR _tmpstr$3[ebp]
	push	ecx
	call	_xmlStrcat
	add	esp, 8
	mov	DWORD PTR _tmpstr$3[ebp], eax

; 6535 : 	    tmpstr = xmlStrcat(tmpstr, node->name);

	mov	edx, DWORD PTR _node$[ebp]
	mov	eax, DWORD PTR [edx+8]
	push	eax
	mov	ecx, DWORD PTR _tmpstr$3[ebp]
	push	ecx
	call	_xmlStrcat
	add	esp, 8
	mov	DWORD PTR _tmpstr$3[ebp], eax

; 6536 : 	    if (tmpstr == NULL)

	cmp	DWORD PTR _tmpstr$3[ebp], 0
	jne	SHORT $LN22@xmlGetProp

; 6537 : 		return(NULL);

	xor	eax, eax
	jmp	$LN1@xmlGetProp
$LN22@xmlGetProp:

; 6538 : 	    elemQName = tmpstr;

	mov	edx, DWORD PTR _tmpstr$3[ebp]
	mov	DWORD PTR _elemQName$4[ebp], edx

; 6539 : 	} else

	jmp	SHORT $LN21@xmlGetProp
$LN20@xmlGetProp:

; 6540 : 	    elemQName = (xmlChar *) node->name;

	mov	eax, DWORD PTR _node$[ebp]
	mov	ecx, DWORD PTR [eax+8]
	mov	DWORD PTR _elemQName$4[ebp], ecx
$LN21@xmlGetProp:

; 6541 : 	if (nsName == NULL) {

	cmp	DWORD PTR _nsName$[ebp], 0
	jne	SHORT $LN23@xmlGetProp

; 6542 : 	    /*
; 6543 : 	    * The common and nice case: Attr in no namespace.
; 6544 : 	    */
; 6545 : 	    attrDecl = xmlGetDtdQAttrDesc(doc->intSubset,

	push	0
	mov	edx, DWORD PTR _name$[ebp]
	push	edx
	mov	eax, DWORD PTR _elemQName$4[ebp]
	push	eax
	mov	ecx, DWORD PTR _doc$6[ebp]
	mov	edx, DWORD PTR [ecx+44]
	push	edx
	call	_xmlGetDtdQAttrDesc
	add	esp, 16					; 00000010H
	mov	DWORD PTR _attrDecl$5[ebp], eax

; 6546 : 		elemQName, name, NULL);
; 6547 : 	    if ((attrDecl == NULL) && (doc->extSubset != NULL)) {

	cmp	DWORD PTR _attrDecl$5[ebp], 0
	jne	SHORT $LN25@xmlGetProp
	mov	eax, DWORD PTR _doc$6[ebp]
	cmp	DWORD PTR [eax+48], 0
	je	SHORT $LN25@xmlGetProp

; 6548 : 		attrDecl = xmlGetDtdQAttrDesc(doc->extSubset,

	push	0
	mov	ecx, DWORD PTR _name$[ebp]
	push	ecx
	mov	edx, DWORD PTR _elemQName$4[ebp]
	push	edx
	mov	eax, DWORD PTR _doc$6[ebp]
	mov	ecx, DWORD PTR [eax+48]
	push	ecx
	call	_xmlGetDtdQAttrDesc
	add	esp, 16					; 00000010H
	mov	DWORD PTR _attrDecl$5[ebp], eax
$LN25@xmlGetProp:

; 6549 : 		    elemQName, name, NULL);
; 6550 : 	    }
; 6551 : 	} else {

	jmp	$LN24@xmlGetProp
$LN23@xmlGetProp:

; 6552 : 	    xmlNsPtr *nsList, *cur;
; 6553 : 
; 6554 : 	    /*
; 6555 : 	    * The ugly case: Search using the prefixes of in-scope
; 6556 : 	    * ns-decls corresponding to @nsName.
; 6557 : 	    */
; 6558 : 	    nsList = xmlGetNsList(node->doc, node);

	mov	edx, DWORD PTR _node$[ebp]
	push	edx
	mov	eax, DWORD PTR _node$[ebp]
	mov	ecx, DWORD PTR [eax+32]
	push	ecx
	call	_xmlGetNsList
	add	esp, 8
	mov	DWORD PTR _nsList$2[ebp], eax

; 6559 : 	    if (nsList == NULL) {

	cmp	DWORD PTR _nsList$2[ebp], 0
	jne	SHORT $LN26@xmlGetProp

; 6560 : 		if (tmpstr != NULL)

	cmp	DWORD PTR _tmpstr$3[ebp], 0
	je	SHORT $LN27@xmlGetProp

; 6561 : 		    xmlFree(tmpstr);

	mov	esi, esp
	mov	edx, DWORD PTR _tmpstr$3[ebp]
	push	edx
	call	DWORD PTR _xmlFree
	add	esp, 4
	cmp	esi, esp
	call	__RTC_CheckEsp
$LN27@xmlGetProp:

; 6562 : 		return(NULL);

	xor	eax, eax
	jmp	$LN1@xmlGetProp
$LN26@xmlGetProp:

; 6563 : 	    }
; 6564 : 	    cur = nsList;

	mov	eax, DWORD PTR _nsList$2[ebp]
	mov	DWORD PTR _cur$1[ebp], eax
$LN8@xmlGetProp:

; 6565 : 	    while (*cur != NULL) {

	mov	ecx, DWORD PTR _cur$1[ebp]
	cmp	DWORD PTR [ecx], 0
	je	$LN9@xmlGetProp

; 6566 : 		if (xmlStrEqual((*cur)->href, nsName)) {

	mov	edx, DWORD PTR _nsName$[ebp]
	push	edx
	mov	eax, DWORD PTR _cur$1[ebp]
	mov	ecx, DWORD PTR [eax]
	mov	edx, DWORD PTR [ecx+8]
	push	edx
	call	_xmlStrEqual
	add	esp, 8
	test	eax, eax
	je	SHORT $LN28@xmlGetProp

; 6567 : 		    attrDecl = xmlGetDtdQAttrDesc(doc->intSubset, elemQName,

	mov	eax, DWORD PTR _cur$1[ebp]
	mov	ecx, DWORD PTR [eax]
	mov	edx, DWORD PTR [ecx+12]
	push	edx
	mov	eax, DWORD PTR _name$[ebp]
	push	eax
	mov	ecx, DWORD PTR _elemQName$4[ebp]
	push	ecx
	mov	edx, DWORD PTR _doc$6[ebp]
	mov	eax, DWORD PTR [edx+44]
	push	eax
	call	_xmlGetDtdQAttrDesc
	add	esp, 16					; 00000010H
	mov	DWORD PTR _attrDecl$5[ebp], eax

; 6568 : 			name, (*cur)->prefix);
; 6569 : 		    if (attrDecl)

	cmp	DWORD PTR _attrDecl$5[ebp], 0
	je	SHORT $LN29@xmlGetProp

; 6570 : 			break;

	jmp	SHORT $LN9@xmlGetProp
$LN29@xmlGetProp:

; 6571 : 		    if (doc->extSubset != NULL) {

	mov	ecx, DWORD PTR _doc$6[ebp]
	cmp	DWORD PTR [ecx+48], 0
	je	SHORT $LN28@xmlGetProp

; 6572 : 			attrDecl = xmlGetDtdQAttrDesc(doc->extSubset, elemQName,

	mov	edx, DWORD PTR _cur$1[ebp]
	mov	eax, DWORD PTR [edx]
	mov	ecx, DWORD PTR [eax+12]
	push	ecx
	mov	edx, DWORD PTR _name$[ebp]
	push	edx
	mov	eax, DWORD PTR _elemQName$4[ebp]
	push	eax
	mov	ecx, DWORD PTR _doc$6[ebp]
	mov	edx, DWORD PTR [ecx+48]
	push	edx
	call	_xmlGetDtdQAttrDesc
	add	esp, 16					; 00000010H
	mov	DWORD PTR _attrDecl$5[ebp], eax

; 6573 : 			    name, (*cur)->prefix);
; 6574 : 			if (attrDecl)

	cmp	DWORD PTR _attrDecl$5[ebp], 0
	je	SHORT $LN28@xmlGetProp

; 6575 : 			    break;

	jmp	SHORT $LN9@xmlGetProp
$LN28@xmlGetProp:

; 6576 : 		    }
; 6577 : 		}
; 6578 : 		cur++;

	mov	eax, DWORD PTR _cur$1[ebp]
	add	eax, 4
	mov	DWORD PTR _cur$1[ebp], eax

; 6579 : 	    }

	jmp	$LN8@xmlGetProp
$LN9@xmlGetProp:

; 6580 : 	    xmlFree(nsList);

	mov	esi, esp
	mov	ecx, DWORD PTR _nsList$2[ebp]
	push	ecx
	call	DWORD PTR _xmlFree
	add	esp, 4
	cmp	esi, esp
	call	__RTC_CheckEsp
$LN24@xmlGetProp:

; 6581 : 	}
; 6582 : 	if (tmpstr != NULL)

	cmp	DWORD PTR _tmpstr$3[ebp], 0
	je	SHORT $LN32@xmlGetProp

; 6583 : 	    xmlFree(tmpstr);

	mov	esi, esp
	mov	edx, DWORD PTR _tmpstr$3[ebp]
	push	edx
	call	DWORD PTR _xmlFree
	add	esp, 4
	cmp	esi, esp
	call	__RTC_CheckEsp
$LN32@xmlGetProp:

; 6584 : 	/*
; 6585 : 	* Only default/fixed attrs are relevant.
; 6586 : 	*/
; 6587 : 	if ((attrDecl != NULL) && (attrDecl->defaultValue != NULL))

	cmp	DWORD PTR _attrDecl$5[ebp], 0
	je	SHORT $LN19@xmlGetProp
	mov	eax, DWORD PTR _attrDecl$5[ebp]
	cmp	DWORD PTR [eax+48], 0
	je	SHORT $LN19@xmlGetProp

; 6588 : 	    return((xmlAttrPtr) attrDecl);

	mov	eax, DWORD PTR _attrDecl$5[ebp]
	jmp	SHORT $LN1@xmlGetProp
$LN19@xmlGetProp:

; 6589 :     }
; 6590 : #endif /* LIBXML_TREE_ENABLED */
; 6591 :     return(NULL);

	xor	eax, eax
$LN1@xmlGetProp:

; 6592 : }

	pop	esi
	add	esp, 28					; 0000001cH
	cmp	ebp, esp
	call	__RTC_CheckEsp
	mov	esp, ebp
	pop	ebp
	ret	0
_xmlGetPropNodeInternal ENDP
_TEXT	ENDS
; Function compile flags: /Odtp /RTCsu
; File c:\users\dag\documents\_clients\codeproject authors group\windows on arm\libxml2\libxml2-2.9.9\tree.c
;	COMDAT _xmlNsInScope
_TEXT	SEGMENT
_tst$ = -4						; size = 4
_doc$ = 8						; size = 4
_node$ = 12						; size = 4
_ancestor$ = 16						; size = 4
_prefix$ = 20						; size = 4
_xmlNsInScope PROC					; COMDAT

; 6099 : {

	push	ebp
	mov	ebp, esp
	push	ecx
	mov	DWORD PTR [ebp-4], -858993460		; ccccccccH
	mov	ecx, OFFSET __59973643_tree@c
	call	@__CheckForDebuggerJustMyCode@4
$LN2@xmlNsInSco:

; 6100 :     xmlNsPtr tst;
; 6101 : 
; 6102 :     while ((node != NULL) && (node != ancestor)) {

	cmp	DWORD PTR _node$[ebp], 0
	je	$LN3@xmlNsInSco
	mov	eax, DWORD PTR _node$[ebp]
	cmp	eax, DWORD PTR _ancestor$[ebp]
	je	$LN3@xmlNsInSco

; 6103 :         if ((node->type == XML_ENTITY_REF_NODE) ||
; 6104 :             (node->type == XML_ENTITY_NODE) ||

	mov	ecx, DWORD PTR _node$[ebp]
	cmp	DWORD PTR [ecx+4], 5
	je	SHORT $LN7@xmlNsInSco
	mov	edx, DWORD PTR _node$[ebp]
	cmp	DWORD PTR [edx+4], 6
	je	SHORT $LN7@xmlNsInSco
	mov	eax, DWORD PTR _node$[ebp]
	cmp	DWORD PTR [eax+4], 17			; 00000011H
	jne	SHORT $LN6@xmlNsInSco
$LN7@xmlNsInSco:

; 6105 :             (node->type == XML_ENTITY_DECL))
; 6106 :             return (-1);

	or	eax, -1
	jmp	SHORT $LN1@xmlNsInSco
$LN6@xmlNsInSco:

; 6107 :         if (node->type == XML_ELEMENT_NODE) {

	mov	ecx, DWORD PTR _node$[ebp]
	cmp	DWORD PTR [ecx+4], 1
	jne	SHORT $LN8@xmlNsInSco

; 6108 :             tst = node->nsDef;

	mov	edx, DWORD PTR _node$[ebp]
	mov	eax, DWORD PTR [edx+48]
	mov	DWORD PTR _tst$[ebp], eax
$LN4@xmlNsInSco:

; 6109 :             while (tst != NULL) {

	cmp	DWORD PTR _tst$[ebp], 0
	je	SHORT $LN8@xmlNsInSco

; 6110 :                 if ((tst->prefix == NULL)
; 6111 :                     && (prefix == NULL))

	mov	ecx, DWORD PTR _tst$[ebp]
	cmp	DWORD PTR [ecx+12], 0
	jne	SHORT $LN9@xmlNsInSco
	cmp	DWORD PTR _prefix$[ebp], 0
	jne	SHORT $LN9@xmlNsInSco

; 6112 :                     return (0);

	xor	eax, eax
	jmp	SHORT $LN1@xmlNsInSco
$LN9@xmlNsInSco:

; 6113 :                 if ((tst->prefix != NULL)
; 6114 :                     && (prefix != NULL)
; 6115 :                     && (xmlStrEqual(tst->prefix, prefix)))

	mov	edx, DWORD PTR _tst$[ebp]
	cmp	DWORD PTR [edx+12], 0
	je	SHORT $LN10@xmlNsInSco
	cmp	DWORD PTR _prefix$[ebp], 0
	je	SHORT $LN10@xmlNsInSco
	mov	eax, DWORD PTR _prefix$[ebp]
	push	eax
	mov	ecx, DWORD PTR _tst$[ebp]
	mov	edx, DWORD PTR [ecx+12]
	push	edx
	call	_xmlStrEqual
	add	esp, 8
	test	eax, eax
	je	SHORT $LN10@xmlNsInSco

; 6116 :                     return (0);

	xor	eax, eax
	jmp	SHORT $LN1@xmlNsInSco
$LN10@xmlNsInSco:

; 6117 :                 tst = tst->next;

	mov	eax, DWORD PTR _tst$[ebp]
	mov	ecx, DWORD PTR [eax]
	mov	DWORD PTR _tst$[ebp], ecx

; 6118 :             }

	jmp	SHORT $LN4@xmlNsInSco
$LN8@xmlNsInSco:

; 6119 :         }
; 6120 :         node = node->parent;

	mov	edx, DWORD PTR _node$[ebp]
	mov	eax, DWORD PTR [edx+20]
	mov	DWORD PTR _node$[ebp], eax

; 6121 :     }

	jmp	$LN2@xmlNsInSco
$LN3@xmlNsInSco:

; 6122 :     if (node != ancestor)

	mov	ecx, DWORD PTR _node$[ebp]
	cmp	ecx, DWORD PTR _ancestor$[ebp]
	je	SHORT $LN11@xmlNsInSco

; 6123 :         return (-1);

	or	eax, -1
	jmp	SHORT $LN1@xmlNsInSco
$LN11@xmlNsInSco:

; 6124 :     return (1);

	mov	eax, 1
$LN1@xmlNsInSco:

; 6125 : }

	add	esp, 4
	cmp	ebp, esp
	call	__RTC_CheckEsp
	mov	esp, ebp
	pop	ebp
	ret	0
_xmlNsInScope ENDP
_TEXT	ENDS
; Function compile flags: /Odtp /RTCsu
; File c:\users\dag\documents\_clients\codeproject authors group\windows on arm\libxml2\libxml2-2.9.9\tree.c
;	COMDAT _xmlTreeEnsureXMLDecl
_TEXT	SEGMENT
_ns$1 = -4						; size = 4
_doc$ = 8						; size = 4
_xmlTreeEnsureXMLDecl PROC				; COMDAT

; 5970 : {

	push	ebp
	mov	ebp, esp
	push	ecx
	push	esi
	mov	DWORD PTR [ebp-4], -858993460		; ccccccccH
	mov	ecx, OFFSET __59973643_tree@c
	call	@__CheckForDebuggerJustMyCode@4

; 5971 :     if (doc == NULL)

	cmp	DWORD PTR _doc$[ebp], 0
	jne	SHORT $LN2@xmlTreeEns

; 5972 : 	return (NULL);

	xor	eax, eax
	jmp	$LN1@xmlTreeEns
$LN2@xmlTreeEns:

; 5973 :     if (doc->oldNs != NULL)

	mov	eax, DWORD PTR _doc$[ebp]
	cmp	DWORD PTR [eax+52], 0
	je	SHORT $LN3@xmlTreeEns

; 5974 : 	return (doc->oldNs);

	mov	ecx, DWORD PTR _doc$[ebp]
	mov	eax, DWORD PTR [ecx+52]
	jmp	$LN1@xmlTreeEns
$LN3@xmlTreeEns:

; 5975 :     {
; 5976 : 	xmlNsPtr ns;
; 5977 : 	ns = (xmlNsPtr) xmlMalloc(sizeof(xmlNs));

	mov	esi, esp
	push	24					; 00000018H
	call	DWORD PTR _xmlMalloc
	add	esp, 4
	cmp	esi, esp
	call	__RTC_CheckEsp
	mov	DWORD PTR _ns$1[ebp], eax

; 5978 : 	if (ns == NULL) {

	cmp	DWORD PTR _ns$1[ebp], 0
	jne	SHORT $LN4@xmlTreeEns

; 5979 : 	    xmlTreeErrMemory(

	push	OFFSET ??_C@_0BN@LLCMIJBD@allocating?5the?5XML?5namespace@
	call	_xmlTreeErrMemory
	add	esp, 4

; 5980 : 		"allocating the XML namespace");
; 5981 : 	    return (NULL);

	xor	eax, eax
	jmp	SHORT $LN1@xmlTreeEns
$LN4@xmlTreeEns:

; 5982 : 	}
; 5983 : 	memset(ns, 0, sizeof(xmlNs));

	xor	edx, edx
	mov	eax, DWORD PTR _ns$1[ebp]
	mov	DWORD PTR [eax], edx
	mov	DWORD PTR [eax+4], edx
	mov	DWORD PTR [eax+8], edx
	mov	DWORD PTR [eax+12], edx
	mov	DWORD PTR [eax+16], edx
	mov	DWORD PTR [eax+20], edx

; 5984 : 	ns->type = XML_LOCAL_NAMESPACE;

	mov	ecx, DWORD PTR _ns$1[ebp]
	mov	DWORD PTR [ecx+4], 18			; 00000012H

; 5985 : 	ns->href = xmlStrdup(XML_XML_NAMESPACE);

	push	OFFSET ??_C@_0CF@GLDAAHFK@http?3?1?1www?4w3?4org?1XML?11998?1name@
	call	_xmlStrdup
	add	esp, 4
	mov	edx, DWORD PTR _ns$1[ebp]
	mov	DWORD PTR [edx+8], eax

; 5986 : 	ns->prefix = xmlStrdup((const xmlChar *)"xml");

	push	OFFSET ??_C@_03PJHHNEEI@xml@
	call	_xmlStrdup
	add	esp, 4
	mov	ecx, DWORD PTR _ns$1[ebp]
	mov	DWORD PTR [ecx+12], eax

; 5987 : 	doc->oldNs = ns;

	mov	edx, DWORD PTR _doc$[ebp]
	mov	eax, DWORD PTR _ns$1[ebp]
	mov	DWORD PTR [edx+52], eax

; 5988 : 	return (ns);

	mov	eax, DWORD PTR _ns$1[ebp]
$LN1@xmlTreeEns:

; 5989 :     }
; 5990 : }

	pop	esi
	add	esp, 4
	cmp	ebp, esp
	call	__RTC_CheckEsp
	mov	esp, ebp
	pop	ebp
	ret	0
_xmlTreeEnsureXMLDecl ENDP
_TEXT	ENDS
; Function compile flags: /Odtp /RTCsu
; File c:\users\dag\documents\_clients\codeproject authors group\windows on arm\libxml2\libxml2-2.9.9\tree.c
;	COMDAT _xmlGetLineNoInternal
_TEXT	SEGMENT
_result$ = -4						; size = 4
_node$ = 8						; size = 4
_depth$ = 12						; size = 4
_xmlGetLineNoInternal PROC				; COMDAT

; 4595 : {

	push	ebp
	mov	ebp, esp
	push	ecx
	mov	DWORD PTR [ebp-4], -858993460		; ccccccccH
	mov	ecx, OFFSET __59973643_tree@c
	call	@__CheckForDebuggerJustMyCode@4

; 4596 :     long result = -1;

	mov	DWORD PTR _result$[ebp], -1

; 4597 : 
; 4598 :     if (depth >= 5)

	cmp	DWORD PTR _depth$[ebp], 5
	jl	SHORT $LN2@xmlGetLine

; 4599 :         return(-1);

	or	eax, -1
	jmp	$LN1@xmlGetLine
$LN2@xmlGetLine:

; 4600 : 
; 4601 :     if (!node)

	cmp	DWORD PTR _node$[ebp], 0
	jne	SHORT $LN3@xmlGetLine

; 4602 :         return result;

	mov	eax, DWORD PTR _result$[ebp]
	jmp	$LN1@xmlGetLine
$LN3@xmlGetLine:

; 4603 :     if ((node->type == XML_ELEMENT_NODE) ||
; 4604 :         (node->type == XML_TEXT_NODE) ||
; 4605 : 	(node->type == XML_COMMENT_NODE) ||

	mov	eax, DWORD PTR _node$[ebp]
	cmp	DWORD PTR [eax+4], 1
	je	SHORT $LN6@xmlGetLine
	mov	ecx, DWORD PTR _node$[ebp]
	cmp	DWORD PTR [ecx+4], 3
	je	SHORT $LN6@xmlGetLine
	mov	edx, DWORD PTR _node$[ebp]
	cmp	DWORD PTR [edx+4], 8
	je	SHORT $LN6@xmlGetLine
	mov	eax, DWORD PTR _node$[ebp]
	cmp	DWORD PTR [eax+4], 7
	jne	$LN4@xmlGetLine
$LN6@xmlGetLine:

; 4606 : 	(node->type == XML_PI_NODE)) {
; 4607 : 	if (node->line == 65535) {

	mov	ecx, DWORD PTR _node$[ebp]
	movzx	edx, WORD PTR [ecx+56]
	cmp	edx, 65535				; 0000ffffH
	jne	$LN7@xmlGetLine

; 4608 : 	    if ((node->type == XML_TEXT_NODE) && (node->psvi != NULL))

	mov	eax, DWORD PTR _node$[ebp]
	cmp	DWORD PTR [eax+4], 3
	jne	SHORT $LN8@xmlGetLine
	mov	ecx, DWORD PTR _node$[ebp]
	cmp	DWORD PTR [ecx+52], 0
	je	SHORT $LN8@xmlGetLine

; 4609 : 	        result = (long) (ptrdiff_t) node->psvi;

	mov	edx, DWORD PTR _node$[ebp]
	mov	eax, DWORD PTR [edx+52]
	mov	DWORD PTR _result$[ebp], eax
	jmp	SHORT $LN7@xmlGetLine
$LN8@xmlGetLine:

; 4610 : 	    else if ((node->type == XML_ELEMENT_NODE) &&

	mov	ecx, DWORD PTR _node$[ebp]
	cmp	DWORD PTR [ecx+4], 1
	jne	SHORT $LN10@xmlGetLine
	mov	edx, DWORD PTR _node$[ebp]
	cmp	DWORD PTR [edx+12], 0
	je	SHORT $LN10@xmlGetLine

; 4611 : 	             (node->children != NULL))
; 4612 : 	        result = xmlGetLineNoInternal(node->children, depth + 1);

	mov	eax, DWORD PTR _depth$[ebp]
	add	eax, 1
	push	eax
	mov	ecx, DWORD PTR _node$[ebp]
	mov	edx, DWORD PTR [ecx+12]
	push	edx
	call	_xmlGetLineNoInternal
	add	esp, 8
	mov	DWORD PTR _result$[ebp], eax
	jmp	SHORT $LN7@xmlGetLine
$LN10@xmlGetLine:

; 4613 : 	    else if (node->next != NULL)

	mov	eax, DWORD PTR _node$[ebp]
	cmp	DWORD PTR [eax+24], 0
	je	SHORT $LN12@xmlGetLine

; 4614 : 	        result = xmlGetLineNoInternal(node->next, depth + 1);

	mov	ecx, DWORD PTR _depth$[ebp]
	add	ecx, 1
	push	ecx
	mov	edx, DWORD PTR _node$[ebp]
	mov	eax, DWORD PTR [edx+24]
	push	eax
	call	_xmlGetLineNoInternal
	add	esp, 8
	mov	DWORD PTR _result$[ebp], eax
	jmp	SHORT $LN7@xmlGetLine
$LN12@xmlGetLine:

; 4615 : 	    else if (node->prev != NULL)

	mov	ecx, DWORD PTR _node$[ebp]
	cmp	DWORD PTR [ecx+28], 0
	je	SHORT $LN7@xmlGetLine

; 4616 : 	        result = xmlGetLineNoInternal(node->prev, depth + 1);

	mov	edx, DWORD PTR _depth$[ebp]
	add	edx, 1
	push	edx
	mov	eax, DWORD PTR _node$[ebp]
	mov	ecx, DWORD PTR [eax+28]
	push	ecx
	call	_xmlGetLineNoInternal
	add	esp, 8
	mov	DWORD PTR _result$[ebp], eax
$LN7@xmlGetLine:

; 4617 : 	}
; 4618 : 	if ((result == -1) || (result == 65535))

	cmp	DWORD PTR _result$[ebp], -1
	je	SHORT $LN16@xmlGetLine
	cmp	DWORD PTR _result$[ebp], 65535		; 0000ffffH
	jne	SHORT $LN15@xmlGetLine
$LN16@xmlGetLine:

; 4619 : 	    result = (long) node->line;

	mov	edx, DWORD PTR _node$[ebp]
	movzx	eax, WORD PTR [edx+56]
	mov	DWORD PTR _result$[ebp], eax
$LN15@xmlGetLine:

; 4620 :     } else if ((node->prev != NULL) &&

	jmp	$LN5@xmlGetLine
$LN4@xmlGetLine:
	mov	ecx, DWORD PTR _node$[ebp]
	cmp	DWORD PTR [ecx+28], 0
	je	SHORT $LN17@xmlGetLine
	mov	edx, DWORD PTR _node$[ebp]
	mov	eax, DWORD PTR [edx+28]
	cmp	DWORD PTR [eax+4], 1
	je	SHORT $LN19@xmlGetLine
	mov	ecx, DWORD PTR _node$[ebp]
	mov	edx, DWORD PTR [ecx+28]
	cmp	DWORD PTR [edx+4], 3
	je	SHORT $LN19@xmlGetLine
	mov	eax, DWORD PTR _node$[ebp]
	mov	ecx, DWORD PTR [eax+28]
	cmp	DWORD PTR [ecx+4], 8
	je	SHORT $LN19@xmlGetLine
	mov	edx, DWORD PTR _node$[ebp]
	mov	eax, DWORD PTR [edx+28]
	cmp	DWORD PTR [eax+4], 7
	jne	SHORT $LN17@xmlGetLine
$LN19@xmlGetLine:

; 4621 :              ((node->prev->type == XML_ELEMENT_NODE) ||
; 4622 : 	      (node->prev->type == XML_TEXT_NODE) ||
; 4623 : 	      (node->prev->type == XML_COMMENT_NODE) ||
; 4624 : 	      (node->prev->type == XML_PI_NODE)))
; 4625 :         result = xmlGetLineNoInternal(node->prev, depth + 1);

	mov	ecx, DWORD PTR _depth$[ebp]
	add	ecx, 1
	push	ecx
	mov	edx, DWORD PTR _node$[ebp]
	mov	eax, DWORD PTR [edx+28]
	push	eax
	call	_xmlGetLineNoInternal
	add	esp, 8
	mov	DWORD PTR _result$[ebp], eax
	jmp	SHORT $LN5@xmlGetLine
$LN17@xmlGetLine:

; 4626 :     else if ((node->parent != NULL) &&

	mov	ecx, DWORD PTR _node$[ebp]
	cmp	DWORD PTR [ecx+20], 0
	je	SHORT $LN5@xmlGetLine
	mov	edx, DWORD PTR _node$[ebp]
	mov	eax, DWORD PTR [edx+20]
	cmp	DWORD PTR [eax+4], 1
	jne	SHORT $LN5@xmlGetLine

; 4627 :              (node->parent->type == XML_ELEMENT_NODE))
; 4628 :         result = xmlGetLineNoInternal(node->parent, depth + 1);

	mov	ecx, DWORD PTR _depth$[ebp]
	add	ecx, 1
	push	ecx
	mov	edx, DWORD PTR _node$[ebp]
	mov	eax, DWORD PTR [edx+20]
	push	eax
	call	_xmlGetLineNoInternal
	add	esp, 8
	mov	DWORD PTR _result$[ebp], eax
$LN5@xmlGetLine:

; 4629 : 
; 4630 :     return result;

	mov	eax, DWORD PTR _result$[ebp]
$LN1@xmlGetLine:

; 4631 : }

	add	esp, 4
	cmp	ebp, esp
	call	__RTC_CheckEsp
	mov	esp, ebp
	pop	ebp
	ret	0
_xmlGetLineNoInternal ENDP
_TEXT	ENDS
; Function compile flags: /Odtp /RTCsu
; File c:\users\dag\documents\_clients\codeproject authors group\windows on arm\libxml2\libxml2-2.9.9\tree.c
;	COMDAT _xmlStaticCopyNode
_TEXT	SEGMENT
tv66 = -24						; size = 4
_ulccur$1 = -20						; size = 4
_root$2 = -16						; size = 4
_ns$3 = -12						; size = 4
_tmp$4 = -8						; size = 4
_ret$ = -4						; size = 4
_node$ = 8						; size = 4
_doc$ = 12						; size = 4
_parent$ = 16						; size = 4
_extended$ = 20						; size = 4
_xmlStaticCopyNode PROC					; COMDAT

; 4170 :                   int extended) {

	push	ebp
	mov	ebp, esp
	sub	esp, 24					; 00000018H
	push	esi
	mov	eax, -858993460				; ccccccccH
	mov	DWORD PTR [ebp-24], eax
	mov	DWORD PTR [ebp-20], eax
	mov	DWORD PTR [ebp-16], eax
	mov	DWORD PTR [ebp-12], eax
	mov	DWORD PTR [ebp-8], eax
	mov	DWORD PTR [ebp-4], eax
	mov	ecx, OFFSET __59973643_tree@c
	call	@__CheckForDebuggerJustMyCode@4

; 4171 :     xmlNodePtr ret;
; 4172 : 
; 4173 :     if (node == NULL) return(NULL);

	cmp	DWORD PTR _node$[ebp], 0
	jne	SHORT $LN8@xmlStaticC
	xor	eax, eax
	jmp	$LN1@xmlStaticC
$LN8@xmlStaticC:

; 4174 :     switch (node->type) {

	mov	eax, DWORD PTR _node$[ebp]
	mov	ecx, DWORD PTR [eax+4]
	mov	DWORD PTR tv66[ebp], ecx
	mov	edx, DWORD PTR tv66[ebp]
	sub	edx, 2
	mov	DWORD PTR tv66[ebp], edx
	cmp	DWORD PTR tv66[ebp], 19			; 00000013H
	ja	SHORT $LN2@xmlStaticC
	mov	eax, DWORD PTR tv66[ebp]
	movzx	ecx, BYTE PTR $LN51@xmlStaticC[eax]
	jmp	DWORD PTR $LN52@xmlStaticC[ecx*4]

; 4175 :         case XML_TEXT_NODE:
; 4176 :         case XML_CDATA_SECTION_NODE:
; 4177 :         case XML_ELEMENT_NODE:
; 4178 :         case XML_DOCUMENT_FRAG_NODE:
; 4179 :         case XML_ENTITY_REF_NODE:
; 4180 :         case XML_ENTITY_NODE:
; 4181 :         case XML_PI_NODE:
; 4182 :         case XML_COMMENT_NODE:
; 4183 :         case XML_XINCLUDE_START:
; 4184 :         case XML_XINCLUDE_END:
; 4185 : 	    break;

	jmp	SHORT $LN2@xmlStaticC
$LN10@xmlStaticC:

; 4186 :         case XML_ATTRIBUTE_NODE:
; 4187 : 		return((xmlNodePtr) xmlCopyPropInternal(doc, parent, (xmlAttrPtr) node));

	mov	edx, DWORD PTR _node$[ebp]
	push	edx
	mov	eax, DWORD PTR _parent$[ebp]
	push	eax
	mov	ecx, DWORD PTR _doc$[ebp]
	push	ecx
	call	_xmlCopyPropInternal
	add	esp, 12					; 0000000cH
	jmp	$LN1@xmlStaticC
$LN11@xmlStaticC:

; 4188 :         case XML_NAMESPACE_DECL:
; 4189 : 	    return((xmlNodePtr) xmlCopyNamespaceList((xmlNsPtr) node));

	mov	edx, DWORD PTR _node$[ebp]
	push	edx
	call	_xmlCopyNamespaceList
	add	esp, 4
	jmp	$LN1@xmlStaticC
$LN12@xmlStaticC:

; 4190 : 
; 4191 :         case XML_DOCUMENT_NODE:
; 4192 :         case XML_HTML_DOCUMENT_NODE:
; 4193 : #ifdef LIBXML_DOCB_ENABLED
; 4194 :         case XML_DOCB_DOCUMENT_NODE:
; 4195 : #endif
; 4196 : #ifdef LIBXML_TREE_ENABLED
; 4197 : 	    return((xmlNodePtr) xmlCopyDoc((xmlDocPtr) node, extended));

	mov	eax, DWORD PTR _extended$[ebp]
	push	eax
	mov	ecx, DWORD PTR _node$[ebp]
	push	ecx
	call	_xmlCopyDoc
	add	esp, 8
	jmp	$LN1@xmlStaticC
$LN13@xmlStaticC:

; 4198 : #endif /* LIBXML_TREE_ENABLED */
; 4199 :         case XML_DOCUMENT_TYPE_NODE:
; 4200 :         case XML_NOTATION_NODE:
; 4201 :         case XML_DTD_NODE:
; 4202 :         case XML_ELEMENT_DECL:
; 4203 :         case XML_ATTRIBUTE_DECL:
; 4204 :         case XML_ENTITY_DECL:
; 4205 :             return(NULL);

	xor	eax, eax
	jmp	$LN1@xmlStaticC
$LN2@xmlStaticC:

; 4206 :     }
; 4207 : 
; 4208 :     /*
; 4209 :      * Allocate a new node and fill the fields.
; 4210 :      */
; 4211 :     ret = (xmlNodePtr) xmlMalloc(sizeof(xmlNode));

	mov	esi, esp
	push	60					; 0000003cH
	call	DWORD PTR _xmlMalloc
	add	esp, 4
	cmp	esi, esp
	call	__RTC_CheckEsp
	mov	DWORD PTR _ret$[ebp], eax

; 4212 :     if (ret == NULL) {

	cmp	DWORD PTR _ret$[ebp], 0
	jne	SHORT $LN14@xmlStaticC

; 4213 : 	xmlTreeErrMemory("copying node");

	push	OFFSET ??_C@_0N@IDAFCAHJ@copying?5node@
	call	_xmlTreeErrMemory
	add	esp, 4

; 4214 : 	return(NULL);

	xor	eax, eax
	jmp	$LN1@xmlStaticC
$LN14@xmlStaticC:

; 4215 :     }
; 4216 :     memset(ret, 0, sizeof(xmlNode));

	push	60					; 0000003cH
	push	0
	mov	edx, DWORD PTR _ret$[ebp]
	push	edx
	call	_memset
	add	esp, 12					; 0000000cH

; 4217 :     ret->type = node->type;

	mov	eax, DWORD PTR _ret$[ebp]
	mov	ecx, DWORD PTR _node$[ebp]
	mov	edx, DWORD PTR [ecx+4]
	mov	DWORD PTR [eax+4], edx

; 4218 : 
; 4219 :     ret->doc = doc;

	mov	eax, DWORD PTR _ret$[ebp]
	mov	ecx, DWORD PTR _doc$[ebp]
	mov	DWORD PTR [eax+32], ecx

; 4220 :     ret->parent = parent;

	mov	edx, DWORD PTR _ret$[ebp]
	mov	eax, DWORD PTR _parent$[ebp]
	mov	DWORD PTR [edx+20], eax

; 4221 :     if (node->name == xmlStringText)

	mov	ecx, DWORD PTR _node$[ebp]
	cmp	DWORD PTR [ecx+8], OFFSET _xmlStringText
	jne	SHORT $LN15@xmlStaticC

; 4222 : 	ret->name = xmlStringText;

	mov	edx, DWORD PTR _ret$[ebp]
	mov	DWORD PTR [edx+8], OFFSET _xmlStringText
	jmp	SHORT $LN16@xmlStaticC
$LN15@xmlStaticC:

; 4223 :     else if (node->name == xmlStringTextNoenc)

	mov	eax, DWORD PTR _node$[ebp]
	cmp	DWORD PTR [eax+8], OFFSET _xmlStringTextNoenc
	jne	SHORT $LN17@xmlStaticC

; 4224 : 	ret->name = xmlStringTextNoenc;

	mov	ecx, DWORD PTR _ret$[ebp]
	mov	DWORD PTR [ecx+8], OFFSET _xmlStringTextNoenc
	jmp	SHORT $LN16@xmlStaticC
$LN17@xmlStaticC:

; 4225 :     else if (node->name == xmlStringComment)

	mov	edx, DWORD PTR _node$[ebp]
	cmp	DWORD PTR [edx+8], OFFSET _xmlStringComment
	jne	SHORT $LN19@xmlStaticC

; 4226 : 	ret->name = xmlStringComment;

	mov	eax, DWORD PTR _ret$[ebp]
	mov	DWORD PTR [eax+8], OFFSET _xmlStringComment
	jmp	SHORT $LN16@xmlStaticC
$LN19@xmlStaticC:

; 4227 :     else if (node->name != NULL) {

	mov	ecx, DWORD PTR _node$[ebp]
	cmp	DWORD PTR [ecx+8], 0
	je	SHORT $LN16@xmlStaticC

; 4228 :         if ((doc != NULL) && (doc->dict != NULL))

	cmp	DWORD PTR _doc$[ebp], 0
	je	SHORT $LN22@xmlStaticC
	mov	edx, DWORD PTR _doc$[ebp]
	cmp	DWORD PTR [edx+80], 0
	je	SHORT $LN22@xmlStaticC

; 4229 : 	    ret->name = xmlDictLookup(doc->dict, node->name, -1);

	push	-1
	mov	eax, DWORD PTR _node$[ebp]
	mov	ecx, DWORD PTR [eax+8]
	push	ecx
	mov	edx, DWORD PTR _doc$[ebp]
	mov	eax, DWORD PTR [edx+80]
	push	eax
	call	_xmlDictLookup
	add	esp, 12					; 0000000cH
	mov	ecx, DWORD PTR _ret$[ebp]
	mov	DWORD PTR [ecx+8], eax
	jmp	SHORT $LN16@xmlStaticC
$LN22@xmlStaticC:

; 4230 : 	else
; 4231 : 	    ret->name = xmlStrdup(node->name);

	mov	edx, DWORD PTR _node$[ebp]
	mov	eax, DWORD PTR [edx+8]
	push	eax
	call	_xmlStrdup
	add	esp, 4
	mov	ecx, DWORD PTR _ret$[ebp]
	mov	DWORD PTR [ecx+8], eax
$LN16@xmlStaticC:

; 4232 :     }
; 4233 :     if ((node->type != XML_ELEMENT_NODE) &&
; 4234 : 	(node->content != NULL) &&
; 4235 : 	(node->type != XML_ENTITY_REF_NODE) &&
; 4236 : 	(node->type != XML_XINCLUDE_END) &&

	mov	edx, DWORD PTR _node$[ebp]
	cmp	DWORD PTR [edx+4], 1
	je	SHORT $LN24@xmlStaticC
	mov	eax, DWORD PTR _node$[ebp]
	cmp	DWORD PTR [eax+40], 0
	je	SHORT $LN24@xmlStaticC
	mov	ecx, DWORD PTR _node$[ebp]
	cmp	DWORD PTR [ecx+4], 5
	je	SHORT $LN24@xmlStaticC
	mov	edx, DWORD PTR _node$[ebp]
	cmp	DWORD PTR [edx+4], 20			; 00000014H
	je	SHORT $LN24@xmlStaticC
	mov	eax, DWORD PTR _node$[ebp]
	cmp	DWORD PTR [eax+4], 19			; 00000013H
	je	SHORT $LN24@xmlStaticC

; 4237 : 	(node->type != XML_XINCLUDE_START)) {
; 4238 : 	ret->content = xmlStrdup(node->content);

	mov	ecx, DWORD PTR _node$[ebp]
	mov	edx, DWORD PTR [ecx+40]
	push	edx
	call	_xmlStrdup
	add	esp, 4
	mov	ecx, DWORD PTR _ret$[ebp]
	mov	DWORD PTR [ecx+40], eax

; 4239 :     }else{

	jmp	SHORT $LN25@xmlStaticC
$LN24@xmlStaticC:

; 4240 :       if (node->type == XML_ELEMENT_NODE)

	mov	edx, DWORD PTR _node$[ebp]
	cmp	DWORD PTR [edx+4], 1
	jne	SHORT $LN25@xmlStaticC

; 4241 :         ret->line = node->line;

	mov	eax, DWORD PTR _ret$[ebp]
	mov	ecx, DWORD PTR _node$[ebp]
	mov	dx, WORD PTR [ecx+56]
	mov	WORD PTR [eax+56], dx
$LN25@xmlStaticC:

; 4242 :     }
; 4243 :     if (parent != NULL) {

	cmp	DWORD PTR _parent$[ebp], 0
	je	SHORT $LN27@xmlStaticC

; 4244 : 	xmlNodePtr tmp;
; 4245 : 
; 4246 : 	/*
; 4247 : 	 * this is a tricky part for the node register thing:
; 4248 : 	 * in case ret does get coalesced in xmlAddChild
; 4249 : 	 * the deregister-node callback is called; so we register ret now already
; 4250 : 	 */
; 4251 : 	if ((__xmlRegisterCallbacks) && (xmlRegisterNodeDefaultValue))

	cmp	DWORD PTR ___xmlRegisterCallbacks, 0
	je	SHORT $LN28@xmlStaticC
	call	___xmlRegisterNodeDefaultValue
	cmp	DWORD PTR [eax], 0
	je	SHORT $LN28@xmlStaticC

; 4252 : 	    xmlRegisterNodeDefaultValue((xmlNodePtr)ret);

	mov	esi, esp
	mov	eax, DWORD PTR _ret$[ebp]
	push	eax
	call	___xmlRegisterNodeDefaultValue
	mov	ecx, DWORD PTR [eax]
	call	ecx
	add	esp, 4
	cmp	esi, esp
	call	__RTC_CheckEsp
$LN28@xmlStaticC:

; 4253 : 
; 4254 :         tmp = xmlAddChild(parent, ret);

	mov	edx, DWORD PTR _ret$[ebp]
	push	edx
	mov	eax, DWORD PTR _parent$[ebp]
	push	eax
	call	_xmlAddChild
	add	esp, 8
	mov	DWORD PTR _tmp$4[ebp], eax

; 4255 : 	/* node could have coalesced */
; 4256 : 	if (tmp != ret)

	mov	ecx, DWORD PTR _tmp$4[ebp]
	cmp	ecx, DWORD PTR _ret$[ebp]
	je	SHORT $LN27@xmlStaticC

; 4257 : 	    return(tmp);

	mov	eax, DWORD PTR _tmp$4[ebp]
	jmp	$LN1@xmlStaticC
$LN27@xmlStaticC:

; 4258 :     }
; 4259 : 
; 4260 :     if (!extended)

	cmp	DWORD PTR _extended$[ebp], 0
	jne	SHORT $LN30@xmlStaticC

; 4261 : 	goto out;

	jmp	$out$53
$LN30@xmlStaticC:

; 4262 :     if (((node->type == XML_ELEMENT_NODE) ||
; 4263 :          (node->type == XML_XINCLUDE_START)) && (node->nsDef != NULL))

	mov	edx, DWORD PTR _node$[ebp]
	cmp	DWORD PTR [edx+4], 1
	je	SHORT $LN32@xmlStaticC
	mov	eax, DWORD PTR _node$[ebp]
	cmp	DWORD PTR [eax+4], 19			; 00000013H
	jne	SHORT $LN31@xmlStaticC
$LN32@xmlStaticC:
	mov	ecx, DWORD PTR _node$[ebp]
	cmp	DWORD PTR [ecx+48], 0
	je	SHORT $LN31@xmlStaticC

; 4264 :         ret->nsDef = xmlCopyNamespaceList(node->nsDef);

	mov	edx, DWORD PTR _node$[ebp]
	mov	eax, DWORD PTR [edx+48]
	push	eax
	call	_xmlCopyNamespaceList
	add	esp, 4
	mov	ecx, DWORD PTR _ret$[ebp]
	mov	DWORD PTR [ecx+48], eax
$LN31@xmlStaticC:

; 4265 : 
; 4266 :     if (node->ns != NULL) {

	mov	edx, DWORD PTR _node$[ebp]
	cmp	DWORD PTR [edx+36], 0
	je	$LN33@xmlStaticC

; 4267 :         xmlNsPtr ns;
; 4268 : 
; 4269 : 	ns = xmlSearchNs(doc, ret, node->ns->prefix);

	mov	eax, DWORD PTR _node$[ebp]
	mov	ecx, DWORD PTR [eax+36]
	mov	edx, DWORD PTR [ecx+12]
	push	edx
	mov	eax, DWORD PTR _ret$[ebp]
	push	eax
	mov	ecx, DWORD PTR _doc$[ebp]
	push	ecx
	call	_xmlSearchNs
	add	esp, 12					; 0000000cH
	mov	DWORD PTR _ns$3[ebp], eax

; 4270 : 	if (ns == NULL) {

	cmp	DWORD PTR _ns$3[ebp], 0
	jne	$LN34@xmlStaticC

; 4271 : 	    /*
; 4272 : 	     * Humm, we are copying an element whose namespace is defined
; 4273 : 	     * out of the new tree scope. Search it in the original tree
; 4274 : 	     * and add it at the top of the new tree
; 4275 : 	     */
; 4276 : 	    ns = xmlSearchNs(node->doc, node, node->ns->prefix);

	mov	edx, DWORD PTR _node$[ebp]
	mov	eax, DWORD PTR [edx+36]
	mov	ecx, DWORD PTR [eax+12]
	push	ecx
	mov	edx, DWORD PTR _node$[ebp]
	push	edx
	mov	eax, DWORD PTR _node$[ebp]
	mov	ecx, DWORD PTR [eax+32]
	push	ecx
	call	_xmlSearchNs
	add	esp, 12					; 0000000cH
	mov	DWORD PTR _ns$3[ebp], eax

; 4277 : 	    if (ns != NULL) {

	cmp	DWORD PTR _ns$3[ebp], 0
	je	SHORT $LN36@xmlStaticC

; 4278 : 	        xmlNodePtr root = ret;

	mov	edx, DWORD PTR _ret$[ebp]
	mov	DWORD PTR _root$2[ebp], edx
$LN4@xmlStaticC:

; 4279 : 
; 4280 : 		while (root->parent != NULL) root = root->parent;

	mov	eax, DWORD PTR _root$2[ebp]
	cmp	DWORD PTR [eax+20], 0
	je	SHORT $LN5@xmlStaticC
	mov	ecx, DWORD PTR _root$2[ebp]
	mov	edx, DWORD PTR [ecx+20]
	mov	DWORD PTR _root$2[ebp], edx
	jmp	SHORT $LN4@xmlStaticC
$LN5@xmlStaticC:

; 4281 : 		ret->ns = xmlNewNs(root, ns->href, ns->prefix);

	mov	eax, DWORD PTR _ns$3[ebp]
	mov	ecx, DWORD PTR [eax+12]
	push	ecx
	mov	edx, DWORD PTR _ns$3[ebp]
	mov	eax, DWORD PTR [edx+8]
	push	eax
	mov	ecx, DWORD PTR _root$2[ebp]
	push	ecx
	call	_xmlNewNs
	add	esp, 12					; 0000000cH
	mov	edx, DWORD PTR _ret$[ebp]
	mov	DWORD PTR [edx+36], eax

; 4282 : 		} else {

	jmp	SHORT $LN37@xmlStaticC
$LN36@xmlStaticC:

; 4283 : 			ret->ns = xmlNewReconciliedNs(doc, ret, node->ns);

	mov	eax, DWORD PTR _node$[ebp]
	mov	ecx, DWORD PTR [eax+36]
	push	ecx
	mov	edx, DWORD PTR _ret$[ebp]
	push	edx
	mov	eax, DWORD PTR _doc$[ebp]
	push	eax
	call	_xmlNewReconciliedNs
	add	esp, 12					; 0000000cH
	mov	ecx, DWORD PTR _ret$[ebp]
	mov	DWORD PTR [ecx+36], eax
$LN37@xmlStaticC:

; 4284 : 	    }
; 4285 : 	} else {

	jmp	SHORT $LN33@xmlStaticC
$LN34@xmlStaticC:

; 4286 : 	    /*
; 4287 : 	     * reference the existing namespace definition in our own tree.
; 4288 : 	     */
; 4289 : 	    ret->ns = ns;

	mov	edx, DWORD PTR _ret$[ebp]
	mov	eax, DWORD PTR _ns$3[ebp]
	mov	DWORD PTR [edx+36], eax
$LN33@xmlStaticC:

; 4290 : 	}
; 4291 :     }
; 4292 :     if (((node->type == XML_ELEMENT_NODE) ||
; 4293 :          (node->type == XML_XINCLUDE_START)) && (node->properties != NULL))

	mov	ecx, DWORD PTR _node$[ebp]
	cmp	DWORD PTR [ecx+4], 1
	je	SHORT $LN39@xmlStaticC
	mov	edx, DWORD PTR _node$[ebp]
	cmp	DWORD PTR [edx+4], 19			; 00000013H
	jne	SHORT $LN38@xmlStaticC
$LN39@xmlStaticC:
	mov	eax, DWORD PTR _node$[ebp]
	cmp	DWORD PTR [eax+44], 0
	je	SHORT $LN38@xmlStaticC

; 4294 :         ret->properties = xmlCopyPropList(ret, node->properties);

	mov	ecx, DWORD PTR _node$[ebp]
	mov	edx, DWORD PTR [ecx+44]
	push	edx
	mov	eax, DWORD PTR _ret$[ebp]
	push	eax
	call	_xmlCopyPropList
	add	esp, 8
	mov	ecx, DWORD PTR _ret$[ebp]
	mov	DWORD PTR [ecx+44], eax
$LN38@xmlStaticC:

; 4295 :     if (node->type == XML_ENTITY_REF_NODE) {

	mov	edx, DWORD PTR _node$[ebp]
	cmp	DWORD PTR [edx+4], 5
	jne	SHORT $LN40@xmlStaticC

; 4296 : 	if ((doc == NULL) || (node->doc != doc)) {

	cmp	DWORD PTR _doc$[ebp], 0
	je	SHORT $LN44@xmlStaticC
	mov	eax, DWORD PTR _node$[ebp]
	mov	ecx, DWORD PTR [eax+32]
	cmp	ecx, DWORD PTR _doc$[ebp]
	je	SHORT $LN42@xmlStaticC
$LN44@xmlStaticC:

; 4297 : 	    /*
; 4298 : 	     * The copied node will go into a separate document, so
; 4299 : 	     * to avoid dangling references to the ENTITY_DECL node
; 4300 : 	     * we cannot keep the reference. Try to find it in the
; 4301 : 	     * target document.
; 4302 : 	     */
; 4303 : 	    ret->children = (xmlNodePtr) xmlGetDocEntity(doc, ret->name);

	mov	edx, DWORD PTR _ret$[ebp]
	mov	eax, DWORD PTR [edx+8]
	push	eax
	mov	ecx, DWORD PTR _doc$[ebp]
	push	ecx
	call	_xmlGetDocEntity
	add	esp, 8
	mov	edx, DWORD PTR _ret$[ebp]
	mov	DWORD PTR [edx+12], eax

; 4304 : 	} else {

	jmp	SHORT $LN43@xmlStaticC
$LN42@xmlStaticC:

; 4305 :             ret->children = node->children;

	mov	eax, DWORD PTR _ret$[ebp]
	mov	ecx, DWORD PTR _node$[ebp]
	mov	edx, DWORD PTR [ecx+12]
	mov	DWORD PTR [eax+12], edx
$LN43@xmlStaticC:

; 4306 : 	}
; 4307 : 	ret->last = ret->children;

	mov	eax, DWORD PTR _ret$[ebp]
	mov	ecx, DWORD PTR _ret$[ebp]
	mov	edx, DWORD PTR [ecx+12]
	mov	DWORD PTR [eax+16], edx
	jmp	SHORT $out$53
$LN40@xmlStaticC:

; 4308 :     } else if ((node->children != NULL) && (extended != 2)) {

	mov	eax, DWORD PTR _node$[ebp]
	cmp	DWORD PTR [eax+12], 0
	je	SHORT $out$53
	cmp	DWORD PTR _extended$[ebp], 2
	je	SHORT $out$53

; 4309 :         ret->children = xmlStaticCopyNodeList(node->children, doc, ret);

	mov	ecx, DWORD PTR _ret$[ebp]
	push	ecx
	mov	edx, DWORD PTR _doc$[ebp]
	push	edx
	mov	eax, DWORD PTR _node$[ebp]
	mov	ecx, DWORD PTR [eax+12]
	push	ecx
	call	_xmlStaticCopyNodeList
	add	esp, 12					; 0000000cH
	mov	edx, DWORD PTR _ret$[ebp]
	mov	DWORD PTR [edx+12], eax

; 4310 : 	UPDATE_LAST_CHILD_AND_PARENT(ret)

	cmp	DWORD PTR _ret$[ebp], 0
	je	SHORT $out$53
	mov	eax, DWORD PTR _ret$[ebp]
	mov	ecx, DWORD PTR [eax+12]
	mov	DWORD PTR _ulccur$1[ebp], ecx
	cmp	DWORD PTR _ulccur$1[ebp], 0
	jne	SHORT $LN6@xmlStaticC
	mov	edx, DWORD PTR _ret$[ebp]
	mov	DWORD PTR [edx+16], 0
	jmp	SHORT $out$53
$LN6@xmlStaticC:
	mov	eax, DWORD PTR _ulccur$1[ebp]
	cmp	DWORD PTR [eax+24], 0
	je	SHORT $LN7@xmlStaticC
	mov	ecx, DWORD PTR _ulccur$1[ebp]
	mov	edx, DWORD PTR _ret$[ebp]
	mov	DWORD PTR [ecx+20], edx
	mov	eax, DWORD PTR _ulccur$1[ebp]
	mov	ecx, DWORD PTR [eax+24]
	mov	DWORD PTR _ulccur$1[ebp], ecx
	jmp	SHORT $LN6@xmlStaticC
$LN7@xmlStaticC:
	mov	edx, DWORD PTR _ulccur$1[ebp]
	mov	eax, DWORD PTR _ret$[ebp]
	mov	DWORD PTR [edx+20], eax
	mov	ecx, DWORD PTR _ret$[ebp]
	mov	edx, DWORD PTR _ulccur$1[ebp]
	mov	DWORD PTR [ecx+16], edx
$out$53:

; 4311 :     }
; 4312 : 
; 4313 : out:
; 4314 :     /* if parent != NULL we already registered the node above */
; 4315 :     if ((parent == NULL) &&

	cmp	DWORD PTR _parent$[ebp], 0
	jne	SHORT $LN49@xmlStaticC
	cmp	DWORD PTR ___xmlRegisterCallbacks, 0
	je	SHORT $LN49@xmlStaticC
	call	___xmlRegisterNodeDefaultValue
	cmp	DWORD PTR [eax], 0
	je	SHORT $LN49@xmlStaticC

; 4316 :         ((__xmlRegisterCallbacks) && (xmlRegisterNodeDefaultValue)))
; 4317 : 	xmlRegisterNodeDefaultValue((xmlNodePtr)ret);

	mov	esi, esp
	mov	eax, DWORD PTR _ret$[ebp]
	push	eax
	call	___xmlRegisterNodeDefaultValue
	mov	ecx, DWORD PTR [eax]
	call	ecx
	add	esp, 4
	cmp	esi, esp
	call	__RTC_CheckEsp
$LN49@xmlStaticC:

; 4318 :     return(ret);

	mov	eax, DWORD PTR _ret$[ebp]
$LN1@xmlStaticC:

; 4319 : }

	pop	esi
	add	esp, 24					; 00000018H
	cmp	ebp, esp
	call	__RTC_CheckEsp
	mov	esp, ebp
	pop	ebp
	ret	0
	npad	2
$LN52@xmlStaticC:
	DD	$LN10@xmlStaticC
	DD	$LN12@xmlStaticC
	DD	$LN13@xmlStaticC
	DD	$LN11@xmlStaticC
	DD	$LN2@xmlStaticC
$LN51@xmlStaticC:
	DB	0
	DB	4
	DB	4
	DB	4
	DB	4
	DB	4
	DB	4
	DB	1
	DB	2
	DB	4
	DB	2
	DB	1
	DB	2
	DB	2
	DB	2
	DB	2
	DB	3
	DB	4
	DB	4
	DB	1
_xmlStaticCopyNode ENDP
_TEXT	ENDS
; Function compile flags: /Odtp /RTCsu
; File c:\users\dag\documents\_clients\codeproject authors group\windows on arm\libxml2\libxml2-2.9.9\tree.c
;	COMDAT _xmlCopyPropInternal
_TEXT	SEGMENT
_id$1 = -24						; size = 4
_tmp$2 = -20						; size = 4
_pred$3 = -16						; size = 4
_root$4 = -12						; size = 4
_ns$5 = -8						; size = 4
_ret$ = -4						; size = 4
_doc$ = 8						; size = 4
_target$ = 12						; size = 4
_cur$ = 16						; size = 4
_xmlCopyPropInternal PROC				; COMDAT

; 4006 : xmlCopyPropInternal(xmlDocPtr doc, xmlNodePtr target, xmlAttrPtr cur) {

	push	ebp
	mov	ebp, esp
	sub	esp, 24					; 00000018H
	push	esi
	mov	eax, -858993460				; ccccccccH
	mov	DWORD PTR [ebp-24], eax
	mov	DWORD PTR [ebp-20], eax
	mov	DWORD PTR [ebp-16], eax
	mov	DWORD PTR [ebp-12], eax
	mov	DWORD PTR [ebp-8], eax
	mov	DWORD PTR [ebp-4], eax
	mov	ecx, OFFSET __59973643_tree@c
	call	@__CheckForDebuggerJustMyCode@4

; 4007 :     xmlAttrPtr ret;
; 4008 : 
; 4009 :     if (cur == NULL) return(NULL);

	cmp	DWORD PTR _cur$[ebp], 0
	jne	SHORT $LN6@xmlCopyPro
	xor	eax, eax
	jmp	$LN1@xmlCopyPro
$LN6@xmlCopyPro:

; 4010 :     if ((target != NULL) && (target->type != XML_ELEMENT_NODE))

	cmp	DWORD PTR _target$[ebp], 0
	je	SHORT $LN7@xmlCopyPro
	mov	eax, DWORD PTR _target$[ebp]
	cmp	DWORD PTR [eax+4], 1
	je	SHORT $LN7@xmlCopyPro

; 4011 :         return(NULL);

	xor	eax, eax
	jmp	$LN1@xmlCopyPro
$LN7@xmlCopyPro:

; 4012 :     if (target != NULL)

	cmp	DWORD PTR _target$[ebp], 0
	je	SHORT $LN8@xmlCopyPro

; 4013 : 	ret = xmlNewDocProp(target->doc, cur->name, NULL);

	push	0
	mov	ecx, DWORD PTR _cur$[ebp]
	mov	edx, DWORD PTR [ecx+8]
	push	edx
	mov	eax, DWORD PTR _target$[ebp]
	mov	ecx, DWORD PTR [eax+32]
	push	ecx
	call	_xmlNewDocProp
	add	esp, 12					; 0000000cH
	mov	DWORD PTR _ret$[ebp], eax
	jmp	$LN9@xmlCopyPro
$LN8@xmlCopyPro:

; 4014 :     else if (doc != NULL)

	cmp	DWORD PTR _doc$[ebp], 0
	je	SHORT $LN10@xmlCopyPro

; 4015 : 	ret = xmlNewDocProp(doc, cur->name, NULL);

	push	0
	mov	edx, DWORD PTR _cur$[ebp]
	mov	eax, DWORD PTR [edx+8]
	push	eax
	mov	ecx, DWORD PTR _doc$[ebp]
	push	ecx
	call	_xmlNewDocProp
	add	esp, 12					; 0000000cH
	mov	DWORD PTR _ret$[ebp], eax
	jmp	SHORT $LN9@xmlCopyPro
$LN10@xmlCopyPro:

; 4016 :     else if (cur->parent != NULL)

	mov	edx, DWORD PTR _cur$[ebp]
	cmp	DWORD PTR [edx+20], 0
	je	SHORT $LN12@xmlCopyPro

; 4017 : 	ret = xmlNewDocProp(cur->parent->doc, cur->name, NULL);

	push	0
	mov	eax, DWORD PTR _cur$[ebp]
	mov	ecx, DWORD PTR [eax+8]
	push	ecx
	mov	edx, DWORD PTR _cur$[ebp]
	mov	eax, DWORD PTR [edx+20]
	mov	ecx, DWORD PTR [eax+32]
	push	ecx
	call	_xmlNewDocProp
	add	esp, 12					; 0000000cH
	mov	DWORD PTR _ret$[ebp], eax
	jmp	SHORT $LN9@xmlCopyPro
$LN12@xmlCopyPro:

; 4018 :     else if (cur->children != NULL)

	mov	edx, DWORD PTR _cur$[ebp]
	cmp	DWORD PTR [edx+12], 0
	je	SHORT $LN14@xmlCopyPro

; 4019 : 	ret = xmlNewDocProp(cur->children->doc, cur->name, NULL);

	push	0
	mov	eax, DWORD PTR _cur$[ebp]
	mov	ecx, DWORD PTR [eax+8]
	push	ecx
	mov	edx, DWORD PTR _cur$[ebp]
	mov	eax, DWORD PTR [edx+12]
	mov	ecx, DWORD PTR [eax+32]
	push	ecx
	call	_xmlNewDocProp
	add	esp, 12					; 0000000cH
	mov	DWORD PTR _ret$[ebp], eax
	jmp	SHORT $LN9@xmlCopyPro
$LN14@xmlCopyPro:

; 4020 :     else
; 4021 : 	ret = xmlNewDocProp(NULL, cur->name, NULL);

	push	0
	mov	edx, DWORD PTR _cur$[ebp]
	mov	eax, DWORD PTR [edx+8]
	push	eax
	push	0
	call	_xmlNewDocProp
	add	esp, 12					; 0000000cH
	mov	DWORD PTR _ret$[ebp], eax
$LN9@xmlCopyPro:

; 4022 :     if (ret == NULL) return(NULL);

	cmp	DWORD PTR _ret$[ebp], 0
	jne	SHORT $LN16@xmlCopyPro
	xor	eax, eax
	jmp	$LN1@xmlCopyPro
$LN16@xmlCopyPro:

; 4023 :     ret->parent = target;

	mov	ecx, DWORD PTR _ret$[ebp]
	mov	edx, DWORD PTR _target$[ebp]
	mov	DWORD PTR [ecx+20], edx

; 4024 : 
; 4025 :     if ((cur->ns != NULL) && (target != NULL)) {

	mov	eax, DWORD PTR _cur$[ebp]
	cmp	DWORD PTR [eax+36], 0
	je	$LN17@xmlCopyPro
	cmp	DWORD PTR _target$[ebp], 0
	je	$LN17@xmlCopyPro

; 4026 :       xmlNsPtr ns;
; 4027 : 
; 4028 :       ns = xmlSearchNs(target->doc, target, cur->ns->prefix);

	mov	ecx, DWORD PTR _cur$[ebp]
	mov	edx, DWORD PTR [ecx+36]
	mov	eax, DWORD PTR [edx+12]
	push	eax
	mov	ecx, DWORD PTR _target$[ebp]
	push	ecx
	mov	edx, DWORD PTR _target$[ebp]
	mov	eax, DWORD PTR [edx+32]
	push	eax
	call	_xmlSearchNs
	add	esp, 12					; 0000000cH
	mov	DWORD PTR _ns$5[ebp], eax

; 4029 :       if (ns == NULL) {

	cmp	DWORD PTR _ns$5[ebp], 0
	jne	$LN19@xmlCopyPro

; 4030 :         /*
; 4031 :          * Humm, we are copying an element whose namespace is defined
; 4032 :          * out of the new tree scope. Search it in the original tree
; 4033 :          * and add it at the top of the new tree
; 4034 :          */
; 4035 :         ns = xmlSearchNs(cur->doc, cur->parent, cur->ns->prefix);

	mov	ecx, DWORD PTR _cur$[ebp]
	mov	edx, DWORD PTR [ecx+36]
	mov	eax, DWORD PTR [edx+12]
	push	eax
	mov	ecx, DWORD PTR _cur$[ebp]
	mov	edx, DWORD PTR [ecx+20]
	push	edx
	mov	eax, DWORD PTR _cur$[ebp]
	mov	ecx, DWORD PTR [eax+32]
	push	ecx
	call	_xmlSearchNs
	add	esp, 12					; 0000000cH
	mov	DWORD PTR _ns$5[ebp], eax

; 4036 :         if (ns != NULL) {

	cmp	DWORD PTR _ns$5[ebp], 0
	je	SHORT $LN21@xmlCopyPro

; 4037 :           xmlNodePtr root = target;

	mov	edx, DWORD PTR _target$[ebp]
	mov	DWORD PTR _root$4[ebp], edx

; 4038 :           xmlNodePtr pred = NULL;

	mov	DWORD PTR _pred$3[ebp], 0
$LN2@xmlCopyPro:

; 4039 : 
; 4040 :           while (root->parent != NULL) {

	mov	eax, DWORD PTR _root$4[ebp]
	cmp	DWORD PTR [eax+20], 0
	je	SHORT $LN3@xmlCopyPro

; 4041 :             pred = root;

	mov	ecx, DWORD PTR _root$4[ebp]
	mov	DWORD PTR _pred$3[ebp], ecx

; 4042 :             root = root->parent;

	mov	edx, DWORD PTR _root$4[ebp]
	mov	eax, DWORD PTR [edx+20]
	mov	DWORD PTR _root$4[ebp], eax

; 4043 :           }

	jmp	SHORT $LN2@xmlCopyPro
$LN3@xmlCopyPro:

; 4044 :           if (root == (xmlNodePtr) target->doc) {

	mov	ecx, DWORD PTR _target$[ebp]
	mov	edx, DWORD PTR _root$4[ebp]
	cmp	edx, DWORD PTR [ecx+32]
	jne	SHORT $LN22@xmlCopyPro

; 4045 :             /* correct possibly cycling above the document elt */
; 4046 :             root = pred;

	mov	eax, DWORD PTR _pred$3[ebp]
	mov	DWORD PTR _root$4[ebp], eax
$LN22@xmlCopyPro:

; 4047 :           }
; 4048 :           ret->ns = xmlNewNs(root, ns->href, ns->prefix);

	mov	ecx, DWORD PTR _ns$5[ebp]
	mov	edx, DWORD PTR [ecx+12]
	push	edx
	mov	eax, DWORD PTR _ns$5[ebp]
	mov	ecx, DWORD PTR [eax+8]
	push	ecx
	mov	edx, DWORD PTR _root$4[ebp]
	push	edx
	call	_xmlNewNs
	add	esp, 12					; 0000000cH
	mov	ecx, DWORD PTR _ret$[ebp]
	mov	DWORD PTR [ecx+36], eax
$LN21@xmlCopyPro:

; 4049 :         }
; 4050 :       } else {

	jmp	SHORT $LN20@xmlCopyPro
$LN19@xmlCopyPro:

; 4051 :         /*
; 4052 :          * we have to find something appropriate here since
; 4053 :          * we cant be sure, that the namespce we found is identified
; 4054 :          * by the prefix
; 4055 :          */
; 4056 :         if (xmlStrEqual(ns->href, cur->ns->href)) {

	mov	edx, DWORD PTR _cur$[ebp]
	mov	eax, DWORD PTR [edx+36]
	mov	ecx, DWORD PTR [eax+8]
	push	ecx
	mov	edx, DWORD PTR _ns$5[ebp]
	mov	eax, DWORD PTR [edx+8]
	push	eax
	call	_xmlStrEqual
	add	esp, 8
	test	eax, eax
	je	SHORT $LN23@xmlCopyPro

; 4057 :           /* this is the nice case */
; 4058 :           ret->ns = ns;

	mov	ecx, DWORD PTR _ret$[ebp]
	mov	edx, DWORD PTR _ns$5[ebp]
	mov	DWORD PTR [ecx+36], edx

; 4059 :         } else {

	jmp	SHORT $LN20@xmlCopyPro
$LN23@xmlCopyPro:

; 4060 :           /*
; 4061 :            * we are in trouble: we need a new reconcilied namespace.
; 4062 :            * This is expensive
; 4063 :            */
; 4064 :           ret->ns = xmlNewReconciliedNs(target->doc, target, cur->ns);

	mov	eax, DWORD PTR _cur$[ebp]
	mov	ecx, DWORD PTR [eax+36]
	push	ecx
	mov	edx, DWORD PTR _target$[ebp]
	push	edx
	mov	eax, DWORD PTR _target$[ebp]
	mov	ecx, DWORD PTR [eax+32]
	push	ecx
	call	_xmlNewReconciliedNs
	add	esp, 12					; 0000000cH
	mov	edx, DWORD PTR _ret$[ebp]
	mov	DWORD PTR [edx+36], eax
$LN20@xmlCopyPro:

; 4065 :         }
; 4066 :       }
; 4067 : 
; 4068 :     } else

	jmp	SHORT $LN18@xmlCopyPro
$LN17@xmlCopyPro:

; 4069 :         ret->ns = NULL;

	mov	eax, DWORD PTR _ret$[ebp]
	mov	DWORD PTR [eax+36], 0
$LN18@xmlCopyPro:

; 4070 : 
; 4071 :     if (cur->children != NULL) {

	mov	ecx, DWORD PTR _cur$[ebp]
	cmp	DWORD PTR [ecx+12], 0
	je	SHORT $LN25@xmlCopyPro

; 4072 : 	xmlNodePtr tmp;
; 4073 : 
; 4074 : 	ret->children = xmlStaticCopyNodeList(cur->children, ret->doc, (xmlNodePtr) ret);

	mov	edx, DWORD PTR _ret$[ebp]
	push	edx
	mov	eax, DWORD PTR _ret$[ebp]
	mov	ecx, DWORD PTR [eax+32]
	push	ecx
	mov	edx, DWORD PTR _cur$[ebp]
	mov	eax, DWORD PTR [edx+12]
	push	eax
	call	_xmlStaticCopyNodeList
	add	esp, 12					; 0000000cH
	mov	ecx, DWORD PTR _ret$[ebp]
	mov	DWORD PTR [ecx+12], eax

; 4075 : 	ret->last = NULL;

	mov	edx, DWORD PTR _ret$[ebp]
	mov	DWORD PTR [edx+16], 0

; 4076 : 	tmp = ret->children;

	mov	eax, DWORD PTR _ret$[ebp]
	mov	ecx, DWORD PTR [eax+12]
	mov	DWORD PTR _tmp$2[ebp], ecx
$LN4@xmlCopyPro:

; 4077 : 	while (tmp != NULL) {

	cmp	DWORD PTR _tmp$2[ebp], 0
	je	SHORT $LN25@xmlCopyPro

; 4078 : 	    /* tmp->parent = (xmlNodePtr)ret; */
; 4079 : 	    if (tmp->next == NULL)

	mov	edx, DWORD PTR _tmp$2[ebp]
	cmp	DWORD PTR [edx+24], 0
	jne	SHORT $LN26@xmlCopyPro

; 4080 : 	        ret->last = tmp;

	mov	eax, DWORD PTR _ret$[ebp]
	mov	ecx, DWORD PTR _tmp$2[ebp]
	mov	DWORD PTR [eax+16], ecx
$LN26@xmlCopyPro:

; 4081 : 	    tmp = tmp->next;

	mov	edx, DWORD PTR _tmp$2[ebp]
	mov	eax, DWORD PTR [edx+24]
	mov	DWORD PTR _tmp$2[ebp], eax

; 4082 : 	}

	jmp	SHORT $LN4@xmlCopyPro
$LN25@xmlCopyPro:

; 4083 :     }
; 4084 :     /*
; 4085 :      * Try to handle IDs
; 4086 :      */
; 4087 :     if ((target!= NULL) && (cur!= NULL) &&
; 4088 : 	(target->doc != NULL) && (cur->doc != NULL) &&
; 4089 : 	(cur->doc->ids != NULL) && (cur->parent != NULL)) {

	cmp	DWORD PTR _target$[ebp], 0
	je	$LN27@xmlCopyPro
	cmp	DWORD PTR _cur$[ebp], 0
	je	$LN27@xmlCopyPro
	mov	ecx, DWORD PTR _target$[ebp]
	cmp	DWORD PTR [ecx+32], 0
	je	$LN27@xmlCopyPro
	mov	edx, DWORD PTR _cur$[ebp]
	cmp	DWORD PTR [edx+32], 0
	je	$LN27@xmlCopyPro
	mov	eax, DWORD PTR _cur$[ebp]
	mov	ecx, DWORD PTR [eax+32]
	cmp	DWORD PTR [ecx+64], 0
	je	SHORT $LN27@xmlCopyPro
	mov	edx, DWORD PTR _cur$[ebp]
	cmp	DWORD PTR [edx+20], 0
	je	SHORT $LN27@xmlCopyPro

; 4090 : 	if (xmlIsID(cur->doc, cur->parent, cur)) {

	mov	eax, DWORD PTR _cur$[ebp]
	push	eax
	mov	ecx, DWORD PTR _cur$[ebp]
	mov	edx, DWORD PTR [ecx+20]
	push	edx
	mov	eax, DWORD PTR _cur$[ebp]
	mov	ecx, DWORD PTR [eax+32]
	push	ecx
	call	_xmlIsID
	add	esp, 12					; 0000000cH
	test	eax, eax
	je	SHORT $LN27@xmlCopyPro

; 4091 : 	    xmlChar *id;
; 4092 : 
; 4093 : 	    id = xmlNodeListGetString(cur->doc, cur->children, 1);

	push	1
	mov	edx, DWORD PTR _cur$[ebp]
	mov	eax, DWORD PTR [edx+12]
	push	eax
	mov	ecx, DWORD PTR _cur$[ebp]
	mov	edx, DWORD PTR [ecx+32]
	push	edx
	call	_xmlNodeListGetString
	add	esp, 12					; 0000000cH
	mov	DWORD PTR _id$1[ebp], eax

; 4094 : 	    if (id != NULL) {

	cmp	DWORD PTR _id$1[ebp], 0
	je	SHORT $LN27@xmlCopyPro

; 4095 : 		xmlAddID(NULL, target->doc, id, ret);

	mov	eax, DWORD PTR _ret$[ebp]
	push	eax
	mov	ecx, DWORD PTR _id$1[ebp]
	push	ecx
	mov	edx, DWORD PTR _target$[ebp]
	mov	eax, DWORD PTR [edx+32]
	push	eax
	push	0
	call	_xmlAddID
	add	esp, 16					; 00000010H

; 4096 : 		xmlFree(id);

	mov	esi, esp
	mov	ecx, DWORD PTR _id$1[ebp]
	push	ecx
	call	DWORD PTR _xmlFree
	add	esp, 4
	cmp	esi, esp
	call	__RTC_CheckEsp
$LN27@xmlCopyPro:

; 4097 : 	    }
; 4098 : 	}
; 4099 :     }
; 4100 :     return(ret);

	mov	eax, DWORD PTR _ret$[ebp]
$LN1@xmlCopyPro:

; 4101 : }

	pop	esi
	add	esp, 24					; 00000018H
	cmp	ebp, esp
	call	__RTC_CheckEsp
	mov	esp, ebp
	pop	ebp
	ret	0
_xmlCopyPropInternal ENDP
_TEXT	ENDS
; Function compile flags: /Odtp /RTCsu
; File c:\users\dag\documents\_clients\codeproject authors group\windows on arm\libxml2\libxml2-2.9.9\tree.c
;	COMDAT _xmlStaticCopyNodeList
_TEXT	SEGMENT
_q$ = -12						; size = 4
_p$ = -8						; size = 4
_ret$ = -4						; size = 4
_node$ = 8						; size = 4
_doc$ = 12						; size = 4
_parent$ = 16						; size = 4
_xmlStaticCopyNodeList PROC				; COMDAT

; 4322 : xmlStaticCopyNodeList(xmlNodePtr node, xmlDocPtr doc, xmlNodePtr parent) {

	push	ebp
	mov	ebp, esp
	sub	esp, 12					; 0000000cH
	mov	DWORD PTR [ebp-12], -858993460		; ccccccccH
	mov	DWORD PTR [ebp-8], -858993460		; ccccccccH
	mov	DWORD PTR [ebp-4], -858993460		; ccccccccH
	mov	ecx, OFFSET __59973643_tree@c
	call	@__CheckForDebuggerJustMyCode@4

; 4323 :     xmlNodePtr ret = NULL;

	mov	DWORD PTR _ret$[ebp], 0

; 4324 :     xmlNodePtr p = NULL,q;

	mov	DWORD PTR _p$[ebp], 0
$LN2@xmlStaticC:

; 4325 : 
; 4326 :     while (node != NULL) {

	cmp	DWORD PTR _node$[ebp], 0
	je	$LN3@xmlStaticC

; 4327 : #ifdef LIBXML_TREE_ENABLED
; 4328 : 	if (node->type == XML_DTD_NODE ) {

	mov	eax, DWORD PTR _node$[ebp]
	cmp	DWORD PTR [eax+4], 14			; 0000000eH
	jne	SHORT $LN4@xmlStaticC

; 4329 : 	    if (doc == NULL) {

	cmp	DWORD PTR _doc$[ebp], 0
	jne	SHORT $LN6@xmlStaticC

; 4330 : 		node = node->next;

	mov	ecx, DWORD PTR _node$[ebp]
	mov	edx, DWORD PTR [ecx+24]
	mov	DWORD PTR _node$[ebp], edx

; 4331 : 		continue;

	jmp	SHORT $LN2@xmlStaticC
$LN6@xmlStaticC:

; 4332 : 	    }
; 4333 : 	    if (doc->intSubset == NULL) {

	mov	eax, DWORD PTR _doc$[ebp]
	cmp	DWORD PTR [eax+44], 0
	jne	SHORT $LN7@xmlStaticC

; 4334 : 		q = (xmlNodePtr) xmlCopyDtd( (xmlDtdPtr) node );

	mov	ecx, DWORD PTR _node$[ebp]
	push	ecx
	call	_xmlCopyDtd
	add	esp, 4
	mov	DWORD PTR _q$[ebp], eax

; 4335 : 		if (q == NULL) return(NULL);

	cmp	DWORD PTR _q$[ebp], 0
	jne	SHORT $LN9@xmlStaticC
	xor	eax, eax
	jmp	$LN1@xmlStaticC
$LN9@xmlStaticC:

; 4336 : 		q->doc = doc;

	mov	edx, DWORD PTR _q$[ebp]
	mov	eax, DWORD PTR _doc$[ebp]
	mov	DWORD PTR [edx+32], eax

; 4337 : 		q->parent = parent;

	mov	ecx, DWORD PTR _q$[ebp]
	mov	edx, DWORD PTR _parent$[ebp]
	mov	DWORD PTR [ecx+20], edx

; 4338 : 		doc->intSubset = (xmlDtdPtr) q;

	mov	eax, DWORD PTR _doc$[ebp]
	mov	ecx, DWORD PTR _q$[ebp]
	mov	DWORD PTR [eax+44], ecx

; 4339 : 		xmlAddChild(parent, q);

	mov	edx, DWORD PTR _q$[ebp]
	push	edx
	mov	eax, DWORD PTR _parent$[ebp]
	push	eax
	call	_xmlAddChild
	add	esp, 8

; 4340 : 	    } else {

	jmp	SHORT $LN8@xmlStaticC
$LN7@xmlStaticC:

; 4341 : 		q = (xmlNodePtr) doc->intSubset;

	mov	ecx, DWORD PTR _doc$[ebp]
	mov	edx, DWORD PTR [ecx+44]
	mov	DWORD PTR _q$[ebp], edx

; 4342 : 		xmlAddChild(parent, q);

	mov	eax, DWORD PTR _q$[ebp]
	push	eax
	mov	ecx, DWORD PTR _parent$[ebp]
	push	ecx
	call	_xmlAddChild
	add	esp, 8
$LN8@xmlStaticC:

; 4343 : 	    }
; 4344 : 	} else

	jmp	SHORT $LN5@xmlStaticC
$LN4@xmlStaticC:

; 4345 : #endif /* LIBXML_TREE_ENABLED */
; 4346 : 	    q = xmlStaticCopyNode(node, doc, parent, 1);

	push	1
	mov	edx, DWORD PTR _parent$[ebp]
	push	edx
	mov	eax, DWORD PTR _doc$[ebp]
	push	eax
	mov	ecx, DWORD PTR _node$[ebp]
	push	ecx
	call	_xmlStaticCopyNode
	add	esp, 16					; 00000010H
	mov	DWORD PTR _q$[ebp], eax
$LN5@xmlStaticC:

; 4347 : 	if (q == NULL) return(NULL);

	cmp	DWORD PTR _q$[ebp], 0
	jne	SHORT $LN10@xmlStaticC
	xor	eax, eax
	jmp	SHORT $LN1@xmlStaticC
$LN10@xmlStaticC:

; 4348 : 	if (ret == NULL) {

	cmp	DWORD PTR _ret$[ebp], 0
	jne	SHORT $LN11@xmlStaticC

; 4349 : 	    q->prev = NULL;

	mov	edx, DWORD PTR _q$[ebp]
	mov	DWORD PTR [edx+28], 0

; 4350 : 	    ret = p = q;

	mov	eax, DWORD PTR _q$[ebp]
	mov	DWORD PTR _p$[ebp], eax
	mov	ecx, DWORD PTR _p$[ebp]
	mov	DWORD PTR _ret$[ebp], ecx
	jmp	SHORT $LN12@xmlStaticC
$LN11@xmlStaticC:

; 4351 : 	} else if (p != q) {

	mov	edx, DWORD PTR _p$[ebp]
	cmp	edx, DWORD PTR _q$[ebp]
	je	SHORT $LN12@xmlStaticC

; 4352 : 	/* the test is required if xmlStaticCopyNode coalesced 2 text nodes */
; 4353 : 	    p->next = q;

	mov	eax, DWORD PTR _p$[ebp]
	mov	ecx, DWORD PTR _q$[ebp]
	mov	DWORD PTR [eax+24], ecx

; 4354 : 	    q->prev = p;

	mov	edx, DWORD PTR _q$[ebp]
	mov	eax, DWORD PTR _p$[ebp]
	mov	DWORD PTR [edx+28], eax

; 4355 : 	    p = q;

	mov	ecx, DWORD PTR _q$[ebp]
	mov	DWORD PTR _p$[ebp], ecx
$LN12@xmlStaticC:

; 4356 : 	}
; 4357 : 	node = node->next;

	mov	edx, DWORD PTR _node$[ebp]
	mov	eax, DWORD PTR [edx+24]
	mov	DWORD PTR _node$[ebp], eax

; 4358 :     }

	jmp	$LN2@xmlStaticC
$LN3@xmlStaticC:

; 4359 :     return(ret);

	mov	eax, DWORD PTR _ret$[ebp]
$LN1@xmlStaticC:

; 4360 : }

	add	esp, 12					; 0000000cH
	cmp	ebp, esp
	call	__RTC_CheckEsp
	mov	esp, ebp
	pop	ebp
	ret	0
_xmlStaticCopyNodeList ENDP
_TEXT	ENDS
; Function compile flags: /Odtp /RTCsu
; File c:\users\dag\documents\_clients\codeproject authors group\windows on arm\libxml2\libxml2-2.9.9\tree.c
;	COMDAT _xmlAddPropSibling
_TEXT	SEGMENT
_attr$ = -4						; size = 4
_prev$ = 8						; size = 4
_cur$ = 12						; size = 4
_prop$ = 16						; size = 4
_xmlAddPropSibling PROC					; COMDAT

; 2958 : xmlAddPropSibling(xmlNodePtr prev, xmlNodePtr cur, xmlNodePtr prop) {

	push	ebp
	mov	ebp, esp
	push	ecx
	mov	DWORD PTR [ebp-4], -858993460		; ccccccccH
	mov	ecx, OFFSET __59973643_tree@c
	call	@__CheckForDebuggerJustMyCode@4

; 2959 : 	xmlAttrPtr attr;
; 2960 : 
; 2961 : 	if ((cur == NULL) || (cur->type != XML_ATTRIBUTE_NODE) ||
; 2962 : 	    (prop == NULL) || (prop->type != XML_ATTRIBUTE_NODE) ||

	cmp	DWORD PTR _cur$[ebp], 0
	je	SHORT $LN3@xmlAddProp
	mov	eax, DWORD PTR _cur$[ebp]
	cmp	DWORD PTR [eax+4], 2
	jne	SHORT $LN3@xmlAddProp
	cmp	DWORD PTR _prop$[ebp], 0
	je	SHORT $LN3@xmlAddProp
	mov	ecx, DWORD PTR _prop$[ebp]
	cmp	DWORD PTR [ecx+4], 2
	jne	SHORT $LN3@xmlAddProp
	cmp	DWORD PTR _prev$[ebp], 0
	je	SHORT $LN2@xmlAddProp
	mov	edx, DWORD PTR _prev$[ebp]
	cmp	DWORD PTR [edx+4], 2
	je	SHORT $LN2@xmlAddProp
$LN3@xmlAddProp:

; 2963 : 	    ((prev != NULL) && (prev->type != XML_ATTRIBUTE_NODE)))
; 2964 : 		return(NULL);

	xor	eax, eax
	jmp	$LN1@xmlAddProp
$LN2@xmlAddProp:

; 2965 : 
; 2966 : 	/* check if an attribute with the same name exists */
; 2967 : 	if (prop->ns == NULL)

	mov	eax, DWORD PTR _prop$[ebp]
	cmp	DWORD PTR [eax+36], 0
	jne	SHORT $LN4@xmlAddProp

; 2968 : 		attr = xmlHasNsProp(cur->parent, prop->name, NULL);

	push	0
	mov	ecx, DWORD PTR _prop$[ebp]
	mov	edx, DWORD PTR [ecx+8]
	push	edx
	mov	eax, DWORD PTR _cur$[ebp]
	mov	ecx, DWORD PTR [eax+20]
	push	ecx
	call	_xmlHasNsProp
	add	esp, 12					; 0000000cH
	mov	DWORD PTR _attr$[ebp], eax
	jmp	SHORT $LN5@xmlAddProp
$LN4@xmlAddProp:

; 2969 : 	else
; 2970 : 		attr = xmlHasNsProp(cur->parent, prop->name, prop->ns->href);

	mov	edx, DWORD PTR _prop$[ebp]
	mov	eax, DWORD PTR [edx+36]
	mov	ecx, DWORD PTR [eax+8]
	push	ecx
	mov	edx, DWORD PTR _prop$[ebp]
	mov	eax, DWORD PTR [edx+8]
	push	eax
	mov	ecx, DWORD PTR _cur$[ebp]
	mov	edx, DWORD PTR [ecx+20]
	push	edx
	call	_xmlHasNsProp
	add	esp, 12					; 0000000cH
	mov	DWORD PTR _attr$[ebp], eax
$LN5@xmlAddProp:

; 2971 : 
; 2972 : 	if (prop->doc != cur->doc) {

	mov	eax, DWORD PTR _prop$[ebp]
	mov	ecx, DWORD PTR _cur$[ebp]
	mov	edx, DWORD PTR [eax+32]
	cmp	edx, DWORD PTR [ecx+32]
	je	SHORT $LN6@xmlAddProp

; 2973 : 		xmlSetTreeDoc(prop, cur->doc);

	mov	eax, DWORD PTR _cur$[ebp]
	mov	ecx, DWORD PTR [eax+32]
	push	ecx
	mov	edx, DWORD PTR _prop$[ebp]
	push	edx
	call	_xmlSetTreeDoc
	add	esp, 8
$LN6@xmlAddProp:

; 2974 : 	}
; 2975 : 	prop->parent = cur->parent;

	mov	eax, DWORD PTR _prop$[ebp]
	mov	ecx, DWORD PTR _cur$[ebp]
	mov	edx, DWORD PTR [ecx+20]
	mov	DWORD PTR [eax+20], edx

; 2976 : 	prop->prev = prev;

	mov	eax, DWORD PTR _prop$[ebp]
	mov	ecx, DWORD PTR _prev$[ebp]
	mov	DWORD PTR [eax+28], ecx

; 2977 : 	if (prev != NULL) {

	cmp	DWORD PTR _prev$[ebp], 0
	je	SHORT $LN7@xmlAddProp

; 2978 : 		prop->next = prev->next;

	mov	edx, DWORD PTR _prop$[ebp]
	mov	eax, DWORD PTR _prev$[ebp]
	mov	ecx, DWORD PTR [eax+24]
	mov	DWORD PTR [edx+24], ecx

; 2979 : 		prev->next = prop;

	mov	edx, DWORD PTR _prev$[ebp]
	mov	eax, DWORD PTR _prop$[ebp]
	mov	DWORD PTR [edx+24], eax

; 2980 : 		if (prop->next)

	mov	ecx, DWORD PTR _prop$[ebp]
	cmp	DWORD PTR [ecx+24], 0
	je	SHORT $LN9@xmlAddProp

; 2981 : 			prop->next->prev = prop;

	mov	edx, DWORD PTR _prop$[ebp]
	mov	eax, DWORD PTR [edx+24]
	mov	ecx, DWORD PTR _prop$[ebp]
	mov	DWORD PTR [eax+28], ecx
$LN9@xmlAddProp:

; 2982 : 	} else {

	jmp	SHORT $LN8@xmlAddProp
$LN7@xmlAddProp:

; 2983 : 		prop->next = cur;

	mov	edx, DWORD PTR _prop$[ebp]
	mov	eax, DWORD PTR _cur$[ebp]
	mov	DWORD PTR [edx+24], eax

; 2984 : 		cur->prev = prop;

	mov	ecx, DWORD PTR _cur$[ebp]
	mov	edx, DWORD PTR _prop$[ebp]
	mov	DWORD PTR [ecx+28], edx
$LN8@xmlAddProp:

; 2985 : 	}
; 2986 : 	if (prop->prev == NULL && prop->parent != NULL)

	mov	eax, DWORD PTR _prop$[ebp]
	cmp	DWORD PTR [eax+28], 0
	jne	SHORT $LN10@xmlAddProp
	mov	ecx, DWORD PTR _prop$[ebp]
	cmp	DWORD PTR [ecx+20], 0
	je	SHORT $LN10@xmlAddProp

; 2987 : 		prop->parent->properties = (xmlAttrPtr) prop;

	mov	edx, DWORD PTR _prop$[ebp]
	mov	eax, DWORD PTR [edx+20]
	mov	ecx, DWORD PTR _prop$[ebp]
	mov	DWORD PTR [eax+44], ecx
$LN10@xmlAddProp:

; 2988 : 	if ((attr != NULL) && (attr->type != XML_ATTRIBUTE_DECL)) {

	cmp	DWORD PTR _attr$[ebp], 0
	je	SHORT $LN11@xmlAddProp
	mov	edx, DWORD PTR _attr$[ebp]
	cmp	DWORD PTR [edx+4], 16			; 00000010H
	je	SHORT $LN11@xmlAddProp

; 2989 : 		/* different instance, destroy it (attributes must be unique) */
; 2990 : 		xmlRemoveProp((xmlAttrPtr) attr);

	mov	eax, DWORD PTR _attr$[ebp]
	push	eax
	call	_xmlRemoveProp
	add	esp, 4
$LN11@xmlAddProp:

; 2991 : 	}
; 2992 : 	return prop;

	mov	eax, DWORD PTR _prop$[ebp]
$LN1@xmlAddProp:

; 2993 : }

	add	esp, 4
	cmp	ebp, esp
	call	__RTC_CheckEsp
	mov	esp, ebp
	pop	ebp
	ret	0
_xmlAddPropSibling ENDP
_TEXT	ENDS
; Function compile flags: /Odtp /RTCsu
; File c:\users\dag\documents\_clients\codeproject authors group\windows on arm\libxml2\libxml2-2.9.9\tree.c
;	COMDAT _xmlNewPropInternal
_TEXT	SEGMENT
_prev$1 = -16						; size = 4
_tmp$2 = -12						; size = 4
_doc$ = -8						; size = 4
_cur$ = -4						; size = 4
_node$ = 8						; size = 4
_ns$ = 12						; size = 4
_name$ = 16						; size = 4
_value$ = 20						; size = 4
_eatname$ = 24						; size = 4
_xmlNewPropInternal PROC				; COMDAT

; 1840 : {

	push	ebp
	mov	ebp, esp
	sub	esp, 16					; 00000010H
	push	esi
	mov	eax, -858993460				; ccccccccH
	mov	DWORD PTR [ebp-16], eax
	mov	DWORD PTR [ebp-12], eax
	mov	DWORD PTR [ebp-8], eax
	mov	DWORD PTR [ebp-4], eax
	mov	ecx, OFFSET __59973643_tree@c
	call	@__CheckForDebuggerJustMyCode@4

; 1841 :     xmlAttrPtr cur;
; 1842 :     xmlDocPtr doc = NULL;

	mov	DWORD PTR _doc$[ebp], 0

; 1843 : 
; 1844 :     if ((node != NULL) && (node->type != XML_ELEMENT_NODE)) {

	cmp	DWORD PTR _node$[ebp], 0
	je	SHORT $LN6@xmlNewProp
	mov	eax, DWORD PTR _node$[ebp]
	cmp	DWORD PTR [eax+4], 1
	je	SHORT $LN6@xmlNewProp

; 1845 :         if ((eatname == 1) &&

	cmp	DWORD PTR _eatname$[ebp], 1
	jne	SHORT $LN7@xmlNewProp
	mov	ecx, DWORD PTR _node$[ebp]
	cmp	DWORD PTR [ecx+32], 0
	je	SHORT $LN8@xmlNewProp
	mov	edx, DWORD PTR _name$[ebp]
	push	edx
	mov	eax, DWORD PTR _node$[ebp]
	mov	ecx, DWORD PTR [eax+32]
	mov	edx, DWORD PTR [ecx+80]
	push	edx
	call	_xmlDictOwns
	add	esp, 8
	test	eax, eax
	jne	SHORT $LN7@xmlNewProp
$LN8@xmlNewProp:

; 1846 : 	    ((node->doc == NULL) ||
; 1847 : 	     (!(xmlDictOwns(node->doc->dict, name)))))
; 1848 :             xmlFree((xmlChar *) name);

	mov	esi, esp
	mov	eax, DWORD PTR _name$[ebp]
	push	eax
	call	DWORD PTR _xmlFree
	add	esp, 4
	cmp	esi, esp
	call	__RTC_CheckEsp
$LN7@xmlNewProp:

; 1849 :         return (NULL);

	xor	eax, eax
	jmp	$LN1@xmlNewProp
$LN6@xmlNewProp:

; 1850 :     }
; 1851 : 
; 1852 :     /*
; 1853 :      * Allocate a new property and fill the fields.
; 1854 :      */
; 1855 :     cur = (xmlAttrPtr) xmlMalloc(sizeof(xmlAttr));

	mov	esi, esp
	push	48					; 00000030H
	call	DWORD PTR _xmlMalloc
	add	esp, 4
	cmp	esi, esp
	call	__RTC_CheckEsp
	mov	DWORD PTR _cur$[ebp], eax

; 1856 :     if (cur == NULL) {

	cmp	DWORD PTR _cur$[ebp], 0
	jne	SHORT $LN9@xmlNewProp

; 1857 :         if ((eatname == 1) &&

	cmp	DWORD PTR _eatname$[ebp], 1
	jne	SHORT $LN10@xmlNewProp
	cmp	DWORD PTR _node$[ebp], 0
	je	SHORT $LN11@xmlNewProp
	mov	ecx, DWORD PTR _node$[ebp]
	cmp	DWORD PTR [ecx+32], 0
	je	SHORT $LN11@xmlNewProp
	mov	edx, DWORD PTR _name$[ebp]
	push	edx
	mov	eax, DWORD PTR _node$[ebp]
	mov	ecx, DWORD PTR [eax+32]
	mov	edx, DWORD PTR [ecx+80]
	push	edx
	call	_xmlDictOwns
	add	esp, 8
	test	eax, eax
	jne	SHORT $LN10@xmlNewProp
$LN11@xmlNewProp:

; 1858 : 	    ((node == NULL) || (node->doc == NULL) ||
; 1859 : 	     (!(xmlDictOwns(node->doc->dict, name)))))
; 1860 :             xmlFree((xmlChar *) name);

	mov	esi, esp
	mov	eax, DWORD PTR _name$[ebp]
	push	eax
	call	DWORD PTR _xmlFree
	add	esp, 4
	cmp	esi, esp
	call	__RTC_CheckEsp
$LN10@xmlNewProp:

; 1861 :         xmlTreeErrMemory("building attribute");

	push	OFFSET ??_C@_0BD@EEPKIILJ@building?5attribute@
	call	_xmlTreeErrMemory
	add	esp, 4

; 1862 :         return (NULL);

	xor	eax, eax
	jmp	$LN1@xmlNewProp
$LN9@xmlNewProp:

; 1863 :     }
; 1864 :     memset(cur, 0, sizeof(xmlAttr));

	push	48					; 00000030H
	push	0
	mov	ecx, DWORD PTR _cur$[ebp]
	push	ecx
	call	_memset
	add	esp, 12					; 0000000cH

; 1865 :     cur->type = XML_ATTRIBUTE_NODE;

	mov	edx, DWORD PTR _cur$[ebp]
	mov	DWORD PTR [edx+4], 2

; 1866 : 
; 1867 :     cur->parent = node;

	mov	eax, DWORD PTR _cur$[ebp]
	mov	ecx, DWORD PTR _node$[ebp]
	mov	DWORD PTR [eax+20], ecx

; 1868 :     if (node != NULL) {

	cmp	DWORD PTR _node$[ebp], 0
	je	SHORT $LN12@xmlNewProp

; 1869 :         doc = node->doc;

	mov	edx, DWORD PTR _node$[ebp]
	mov	eax, DWORD PTR [edx+32]
	mov	DWORD PTR _doc$[ebp], eax

; 1870 :         cur->doc = doc;

	mov	ecx, DWORD PTR _cur$[ebp]
	mov	edx, DWORD PTR _doc$[ebp]
	mov	DWORD PTR [ecx+32], edx
$LN12@xmlNewProp:

; 1871 :     }
; 1872 :     cur->ns = ns;

	mov	eax, DWORD PTR _cur$[ebp]
	mov	ecx, DWORD PTR _ns$[ebp]
	mov	DWORD PTR [eax+36], ecx

; 1873 : 
; 1874 :     if (eatname == 0) {

	cmp	DWORD PTR _eatname$[ebp], 0
	jne	SHORT $LN13@xmlNewProp

; 1875 :         if ((doc != NULL) && (doc->dict != NULL))

	cmp	DWORD PTR _doc$[ebp], 0
	je	SHORT $LN15@xmlNewProp
	mov	edx, DWORD PTR _doc$[ebp]
	cmp	DWORD PTR [edx+80], 0
	je	SHORT $LN15@xmlNewProp

; 1876 :             cur->name = (xmlChar *) xmlDictLookup(doc->dict, name, -1);

	push	-1
	mov	eax, DWORD PTR _name$[ebp]
	push	eax
	mov	ecx, DWORD PTR _doc$[ebp]
	mov	edx, DWORD PTR [ecx+80]
	push	edx
	call	_xmlDictLookup
	add	esp, 12					; 0000000cH
	mov	ecx, DWORD PTR _cur$[ebp]
	mov	DWORD PTR [ecx+8], eax
	jmp	SHORT $LN16@xmlNewProp
$LN15@xmlNewProp:

; 1877 :         else
; 1878 :             cur->name = xmlStrdup(name);

	mov	edx, DWORD PTR _name$[ebp]
	push	edx
	call	_xmlStrdup
	add	esp, 4
	mov	ecx, DWORD PTR _cur$[ebp]
	mov	DWORD PTR [ecx+8], eax
$LN16@xmlNewProp:

; 1879 :     } else

	jmp	SHORT $LN14@xmlNewProp
$LN13@xmlNewProp:

; 1880 :         cur->name = name;

	mov	edx, DWORD PTR _cur$[ebp]
	mov	eax, DWORD PTR _name$[ebp]
	mov	DWORD PTR [edx+8], eax
$LN14@xmlNewProp:

; 1881 : 
; 1882 :     if (value != NULL) {

	cmp	DWORD PTR _value$[ebp], 0
	je	$LN17@xmlNewProp

; 1883 :         xmlNodePtr tmp;
; 1884 : 
; 1885 :         if(!xmlCheckUTF8(value)) {

	mov	ecx, DWORD PTR _value$[ebp]
	push	ecx
	call	_xmlCheckUTF8
	add	esp, 4
	test	eax, eax
	jne	SHORT $LN18@xmlNewProp

; 1886 :             xmlTreeErr(XML_TREE_NOT_UTF8, (xmlNodePtr) doc,

	push	0
	mov	edx, DWORD PTR _doc$[ebp]
	push	edx
	push	1303					; 00000517H
	call	_xmlTreeErr
	add	esp, 12					; 0000000cH

; 1887 :                        NULL);
; 1888 :             if (doc != NULL)

	cmp	DWORD PTR _doc$[ebp], 0
	je	SHORT $LN18@xmlNewProp

; 1889 :                 doc->encoding = xmlStrdup(BAD_CAST "ISO-8859-1");

	push	OFFSET ??_C@_0L@GJIJNDEK@ISO?98859?91@
	call	_xmlStrdup
	add	esp, 4
	mov	ecx, DWORD PTR _doc$[ebp]
	mov	DWORD PTR [ecx+60], eax
$LN18@xmlNewProp:

; 1890 :         }
; 1891 :         cur->children = xmlNewDocText(doc, value);

	mov	edx, DWORD PTR _value$[ebp]
	push	edx
	mov	eax, DWORD PTR _doc$[ebp]
	push	eax
	call	_xmlNewDocText
	add	esp, 8
	mov	ecx, DWORD PTR _cur$[ebp]
	mov	DWORD PTR [ecx+12], eax

; 1892 :         cur->last = NULL;

	mov	edx, DWORD PTR _cur$[ebp]
	mov	DWORD PTR [edx+16], 0

; 1893 :         tmp = cur->children;

	mov	eax, DWORD PTR _cur$[ebp]
	mov	ecx, DWORD PTR [eax+12]
	mov	DWORD PTR _tmp$2[ebp], ecx
$LN2@xmlNewProp:

; 1894 :         while (tmp != NULL) {

	cmp	DWORD PTR _tmp$2[ebp], 0
	je	SHORT $LN17@xmlNewProp

; 1895 :             tmp->parent = (xmlNodePtr) cur;

	mov	edx, DWORD PTR _tmp$2[ebp]
	mov	eax, DWORD PTR _cur$[ebp]
	mov	DWORD PTR [edx+20], eax

; 1896 :             if (tmp->next == NULL)

	mov	ecx, DWORD PTR _tmp$2[ebp]
	cmp	DWORD PTR [ecx+24], 0
	jne	SHORT $LN20@xmlNewProp

; 1897 :                 cur->last = tmp;

	mov	edx, DWORD PTR _cur$[ebp]
	mov	eax, DWORD PTR _tmp$2[ebp]
	mov	DWORD PTR [edx+16], eax
$LN20@xmlNewProp:

; 1898 :             tmp = tmp->next;

	mov	ecx, DWORD PTR _tmp$2[ebp]
	mov	edx, DWORD PTR [ecx+24]
	mov	DWORD PTR _tmp$2[ebp], edx

; 1899 :         }

	jmp	SHORT $LN2@xmlNewProp
$LN17@xmlNewProp:

; 1900 :     }
; 1901 : 
; 1902 :     /*
; 1903 :      * Add it at the end to preserve parsing order ...
; 1904 :      */
; 1905 :     if (node != NULL) {

	cmp	DWORD PTR _node$[ebp], 0
	je	SHORT $LN21@xmlNewProp

; 1906 :         if (node->properties == NULL) {

	mov	eax, DWORD PTR _node$[ebp]
	cmp	DWORD PTR [eax+44], 0
	jne	SHORT $LN22@xmlNewProp

; 1907 :             node->properties = cur;

	mov	ecx, DWORD PTR _node$[ebp]
	mov	edx, DWORD PTR _cur$[ebp]
	mov	DWORD PTR [ecx+44], edx

; 1908 :         } else {

	jmp	SHORT $LN21@xmlNewProp
$LN22@xmlNewProp:

; 1909 :             xmlAttrPtr prev = node->properties;

	mov	eax, DWORD PTR _node$[ebp]
	mov	ecx, DWORD PTR [eax+44]
	mov	DWORD PTR _prev$1[ebp], ecx
$LN4@xmlNewProp:

; 1910 : 
; 1911 :             while (prev->next != NULL)

	mov	edx, DWORD PTR _prev$1[ebp]
	cmp	DWORD PTR [edx+24], 0
	je	SHORT $LN5@xmlNewProp

; 1912 :                 prev = prev->next;

	mov	eax, DWORD PTR _prev$1[ebp]
	mov	ecx, DWORD PTR [eax+24]
	mov	DWORD PTR _prev$1[ebp], ecx
	jmp	SHORT $LN4@xmlNewProp
$LN5@xmlNewProp:

; 1913 :             prev->next = cur;

	mov	edx, DWORD PTR _prev$1[ebp]
	mov	eax, DWORD PTR _cur$[ebp]
	mov	DWORD PTR [edx+24], eax

; 1914 :             cur->prev = prev;

	mov	ecx, DWORD PTR _cur$[ebp]
	mov	edx, DWORD PTR _prev$1[ebp]
	mov	DWORD PTR [ecx+28], edx
$LN21@xmlNewProp:

; 1915 :         }
; 1916 :     }
; 1917 : 
; 1918 :     if ((value != NULL) && (node != NULL) &&

	cmp	DWORD PTR _value$[ebp], 0
	je	SHORT $LN24@xmlNewProp
	cmp	DWORD PTR _node$[ebp], 0
	je	SHORT $LN24@xmlNewProp
	mov	eax, DWORD PTR _cur$[ebp]
	push	eax
	mov	ecx, DWORD PTR _node$[ebp]
	push	ecx
	mov	edx, DWORD PTR _node$[ebp]
	mov	eax, DWORD PTR [edx+32]
	push	eax
	call	_xmlIsID
	add	esp, 12					; 0000000cH
	cmp	eax, 1
	jne	SHORT $LN24@xmlNewProp

; 1919 :         (xmlIsID(node->doc, node, cur) == 1))
; 1920 :         xmlAddID(NULL, node->doc, value, cur);

	mov	ecx, DWORD PTR _cur$[ebp]
	push	ecx
	mov	edx, DWORD PTR _value$[ebp]
	push	edx
	mov	eax, DWORD PTR _node$[ebp]
	mov	ecx, DWORD PTR [eax+32]
	push	ecx
	push	0
	call	_xmlAddID
	add	esp, 16					; 00000010H
$LN24@xmlNewProp:

; 1921 : 
; 1922 :     if ((__xmlRegisterCallbacks) && (xmlRegisterNodeDefaultValue))

	cmp	DWORD PTR ___xmlRegisterCallbacks, 0
	je	SHORT $LN25@xmlNewProp
	call	___xmlRegisterNodeDefaultValue
	cmp	DWORD PTR [eax], 0
	je	SHORT $LN25@xmlNewProp

; 1923 :         xmlRegisterNodeDefaultValue((xmlNodePtr) cur);

	mov	esi, esp
	mov	edx, DWORD PTR _cur$[ebp]
	push	edx
	call	___xmlRegisterNodeDefaultValue
	mov	eax, DWORD PTR [eax]
	call	eax
	add	esp, 4
	cmp	esi, esp
	call	__RTC_CheckEsp
$LN25@xmlNewProp:

; 1924 :     return (cur);

	mov	eax, DWORD PTR _cur$[ebp]
$LN1@xmlNewProp:

; 1925 : }

	pop	esi
	add	esp, 16					; 00000010H
	cmp	ebp, esp
	call	__RTC_CheckEsp
	mov	esp, ebp
	pop	ebp
	ret	0
_xmlNewPropInternal ENDP
_TEXT	ENDS
; Function compile flags: /Odtp /RTCsu
; File c:\users\dag\documents\_clients\codeproject authors group\windows on arm\libxml2\libxml2-2.9.9\tree.c
;	COMDAT _xmlGetParameterEntityFromDtd
_TEXT	SEGMENT
_table$ = -4						; size = 4
_dtd$ = 8						; size = 4
_name$ = 12						; size = 4
_xmlGetParameterEntityFromDtd PROC			; COMDAT

; 190  : xmlGetParameterEntityFromDtd(const xmlDtd *dtd, const xmlChar *name) {

	push	ebp
	mov	ebp, esp
	push	ecx
	mov	DWORD PTR [ebp-4], -858993460		; ccccccccH
	mov	ecx, OFFSET __59973643_tree@c
	call	@__CheckForDebuggerJustMyCode@4

; 191  :     xmlEntitiesTablePtr table;
; 192  : 
; 193  :     if ((dtd != NULL) && (dtd->pentities != NULL)) {

	cmp	DWORD PTR _dtd$[ebp], 0
	je	SHORT $LN2@xmlGetPara
	mov	eax, DWORD PTR _dtd$[ebp]
	cmp	DWORD PTR [eax+60], 0
	je	SHORT $LN2@xmlGetPara

; 194  : 	table = (xmlEntitiesTablePtr) dtd->pentities;

	mov	ecx, DWORD PTR _dtd$[ebp]
	mov	edx, DWORD PTR [ecx+60]
	mov	DWORD PTR _table$[ebp], edx

; 195  : 	return((xmlEntityPtr) xmlHashLookup(table, name));

	mov	eax, DWORD PTR _name$[ebp]
	push	eax
	mov	ecx, DWORD PTR _table$[ebp]
	push	ecx
	call	_xmlHashLookup
	add	esp, 8
	jmp	SHORT $LN1@xmlGetPara
$LN2@xmlGetPara:

; 196  : 	/* return(xmlGetEntityFromTable(table, name)); */
; 197  :     }
; 198  :     return(NULL);

	xor	eax, eax
$LN1@xmlGetPara:

; 199  : }

	add	esp, 4
	cmp	ebp, esp
	call	__RTC_CheckEsp
	mov	esp, ebp
	pop	ebp
	ret	0
_xmlGetParameterEntityFromDtd ENDP
_TEXT	ENDS
; Function compile flags: /Odtp /RTCsu
; File c:\users\dag\documents\_clients\codeproject authors group\windows on arm\libxml2\libxml2-2.9.9\tree.c
;	COMDAT _xmlGetEntityFromDtd
_TEXT	SEGMENT
_table$ = -4						; size = 4
_dtd$ = 8						; size = 4
_name$ = 12						; size = 4
_xmlGetEntityFromDtd PROC				; COMDAT

; 169  : xmlGetEntityFromDtd(const xmlDtd *dtd, const xmlChar *name) {

	push	ebp
	mov	ebp, esp
	push	ecx
	mov	DWORD PTR [ebp-4], -858993460		; ccccccccH
	mov	ecx, OFFSET __59973643_tree@c
	call	@__CheckForDebuggerJustMyCode@4

; 170  :     xmlEntitiesTablePtr table;
; 171  : 
; 172  :     if((dtd != NULL) && (dtd->entities != NULL)) {

	cmp	DWORD PTR _dtd$[ebp], 0
	je	SHORT $LN2@xmlGetEnti
	mov	eax, DWORD PTR _dtd$[ebp]
	cmp	DWORD PTR [eax+48], 0
	je	SHORT $LN2@xmlGetEnti

; 173  : 	table = (xmlEntitiesTablePtr) dtd->entities;

	mov	ecx, DWORD PTR _dtd$[ebp]
	mov	edx, DWORD PTR [ecx+48]
	mov	DWORD PTR _table$[ebp], edx

; 174  : 	return((xmlEntityPtr) xmlHashLookup(table, name));

	mov	eax, DWORD PTR _name$[ebp]
	push	eax
	mov	ecx, DWORD PTR _table$[ebp]
	push	ecx
	call	_xmlHashLookup
	add	esp, 8
	jmp	SHORT $LN1@xmlGetEnti
$LN2@xmlGetEnti:

; 175  : 	/* return(xmlGetEntityFromTable(table, name)); */
; 176  :     }
; 177  :     return(NULL);

	xor	eax, eax
$LN1@xmlGetEnti:

; 178  : }

	add	esp, 4
	cmp	ebp, esp
	call	__RTC_CheckEsp
	mov	esp, ebp
	pop	ebp
	ret	0
_xmlGetEntityFromDtd ENDP
_TEXT	ENDS
; Function compile flags: /Odtp /RTCsu
; File c:\users\dag\documents\_clients\codeproject authors group\windows on arm\libxml2\libxml2-2.9.9\tree.c
;	COMDAT _xmlTreeErr
_TEXT	SEGMENT
tv64 = -8						; size = 4
_msg$ = -4						; size = 4
_code$ = 8						; size = 4
_node$ = 12						; size = 4
_extra$ = 16						; size = 4
_xmlTreeErr PROC					; COMDAT

; 92   : {

	push	ebp
	mov	ebp, esp
	sub	esp, 8
	mov	DWORD PTR [ebp-8], -858993460		; ccccccccH
	mov	DWORD PTR [ebp-4], -858993460		; ccccccccH
	mov	ecx, OFFSET __59973643_tree@c
	call	@__CheckForDebuggerJustMyCode@4

; 93   :     const char *msg = NULL;

	mov	DWORD PTR _msg$[ebp], 0

; 94   : 
; 95   :     switch(code) {

	mov	eax, DWORD PTR _code$[ebp]
	mov	DWORD PTR tv64[ebp], eax
	mov	ecx, DWORD PTR tv64[ebp]
	sub	ecx, 1300				; 00000514H
	mov	DWORD PTR tv64[ebp], ecx
	cmp	DWORD PTR tv64[ebp], 3
	ja	SHORT $LN8@xmlTreeErr
	mov	edx, DWORD PTR tv64[ebp]
	jmp	DWORD PTR $LN10@xmlTreeErr[edx*4]
$LN4@xmlTreeErr:

; 96   :         case XML_TREE_INVALID_HEX:
; 97   : 	    msg = "invalid hexadecimal character value\n";

	mov	DWORD PTR _msg$[ebp], OFFSET ??_C@_0CF@MFCHFOON@invalid?5hexadecimal?5character?5v@

; 98   : 	    break;

	jmp	SHORT $LN2@xmlTreeErr
$LN5@xmlTreeErr:

; 99   : 	case XML_TREE_INVALID_DEC:
; 100  : 	    msg = "invalid decimal character value\n";

	mov	DWORD PTR _msg$[ebp], OFFSET ??_C@_0CB@MCPMOJHG@invalid?5decimal?5character?5value@

; 101  : 	    break;

	jmp	SHORT $LN2@xmlTreeErr
$LN6@xmlTreeErr:

; 102  : 	case XML_TREE_UNTERMINATED_ENTITY:
; 103  : 	    msg = "unterminated entity reference %15s\n";

	mov	DWORD PTR _msg$[ebp], OFFSET ??_C@_0CE@INHDJIAN@unterminated?5entity?5reference?5?$CF@

; 104  : 	    break;

	jmp	SHORT $LN2@xmlTreeErr
$LN7@xmlTreeErr:

; 105  : 	case XML_TREE_NOT_UTF8:
; 106  : 	    msg = "string is not in UTF-8\n";

	mov	DWORD PTR _msg$[ebp], OFFSET ??_C@_0BI@KDLJAAPA@string?5is?5not?5in?5UTF?98?6@

; 107  : 	    break;

	jmp	SHORT $LN2@xmlTreeErr
$LN8@xmlTreeErr:

; 108  : 	default:
; 109  : 	    msg = "unexpected error number\n";

	mov	DWORD PTR _msg$[ebp], OFFSET ??_C@_0BJ@IPOHNFHE@unexpected?5error?5number?6@
$LN2@xmlTreeErr:

; 110  :     }
; 111  :     __xmlSimpleError(XML_FROM_TREE, code, node, msg, extra);

	mov	eax, DWORD PTR _extra$[ebp]
	push	eax
	mov	ecx, DWORD PTR _msg$[ebp]
	push	ecx
	mov	edx, DWORD PTR _node$[ebp]
	push	edx
	mov	eax, DWORD PTR _code$[ebp]
	push	eax
	push	2
	call	___xmlSimpleError
	add	esp, 20					; 00000014H

; 112  : }

	add	esp, 8
	cmp	ebp, esp
	call	__RTC_CheckEsp
	mov	esp, ebp
	pop	ebp
	ret	0
	npad	2
$LN10@xmlTreeErr:
	DD	$LN4@xmlTreeErr
	DD	$LN5@xmlTreeErr
	DD	$LN6@xmlTreeErr
	DD	$LN7@xmlTreeErr
_xmlTreeErr ENDP
_TEXT	ENDS
; Function compile flags: /Odtp /RTCsu
; File c:\users\dag\documents\_clients\codeproject authors group\windows on arm\libxml2\libxml2-2.9.9\tree.c
;	COMDAT _xmlTreeErrMemory
_TEXT	SEGMENT
_extra$ = 8						; size = 4
_xmlTreeErrMemory PROC					; COMDAT

; 79   : {

	push	ebp
	mov	ebp, esp
	mov	ecx, OFFSET __59973643_tree@c
	call	@__CheckForDebuggerJustMyCode@4

; 80   :     __xmlSimpleError(XML_FROM_TREE, XML_ERR_NO_MEMORY, NULL, NULL, extra);

	mov	eax, DWORD PTR _extra$[ebp]
	push	eax
	push	0
	push	0
	push	2
	push	2
	call	___xmlSimpleError
	add	esp, 20					; 00000014H

; 81   : }

	cmp	ebp, esp
	call	__RTC_CheckEsp
	pop	ebp
	ret	0
_xmlTreeErrMemory ENDP
_TEXT	ENDS
; Function compile flags: /Odtp /RTCsu
; File c:\users\dag\documents\_clients\codeproject authors group\windows on arm\libxml2\libxml2-2.9.9\tree.c
;	COMDAT _xmlGetPropNodeValueInternal
_TEXT	SEGMENT
_ret$1 = -4						; size = 4
_prop$ = 8						; size = 4
_xmlGetPropNodeValueInternal PROC			; COMDAT

; 6596 : {

	push	ebp
	mov	ebp, esp
	push	ecx
	mov	DWORD PTR [ebp-4], -858993460		; ccccccccH
	mov	ecx, OFFSET __59973643_tree@c
	call	@__CheckForDebuggerJustMyCode@4

; 6597 :     if (prop == NULL)

	cmp	DWORD PTR _prop$[ebp], 0
	jne	SHORT $LN2@xmlGetProp

; 6598 : 	return(NULL);

	xor	eax, eax
	jmp	$LN1@xmlGetProp
$LN2@xmlGetProp:

; 6599 :     if (prop->type == XML_ATTRIBUTE_NODE) {

	mov	eax, DWORD PTR _prop$[ebp]
	cmp	DWORD PTR [eax+4], 2
	jne	SHORT $LN3@xmlGetProp

; 6600 : 	/*
; 6601 : 	* Note that we return at least the empty string.
; 6602 : 	*   TODO: Do we really always want that?
; 6603 : 	*/
; 6604 : 	if (prop->children != NULL) {

	mov	ecx, DWORD PTR _prop$[ebp]
	cmp	DWORD PTR [ecx+12], 0
	je	SHORT $LN5@xmlGetProp

; 6605 : 	    if ((prop->children->next == NULL) &&

	mov	edx, DWORD PTR _prop$[ebp]
	mov	eax, DWORD PTR [edx+12]
	cmp	DWORD PTR [eax+24], 0
	jne	SHORT $LN6@xmlGetProp
	mov	ecx, DWORD PTR _prop$[ebp]
	mov	edx, DWORD PTR [ecx+12]
	cmp	DWORD PTR [edx+4], 3
	je	SHORT $LN8@xmlGetProp
	mov	eax, DWORD PTR _prop$[ebp]
	mov	ecx, DWORD PTR [eax+12]
	cmp	DWORD PTR [ecx+4], 4
	jne	SHORT $LN6@xmlGetProp
$LN8@xmlGetProp:

; 6606 : 		((prop->children->type == XML_TEXT_NODE) ||
; 6607 : 		(prop->children->type == XML_CDATA_SECTION_NODE)))
; 6608 : 	    {
; 6609 : 		/*
; 6610 : 		* Optimization for the common case: only 1 text node.
; 6611 : 		*/
; 6612 : 		return(xmlStrdup(prop->children->content));

	mov	edx, DWORD PTR _prop$[ebp]
	mov	eax, DWORD PTR [edx+12]
	mov	ecx, DWORD PTR [eax+40]
	push	ecx
	call	_xmlStrdup
	add	esp, 4
	jmp	SHORT $LN1@xmlGetProp

; 6613 : 	    } else {

	jmp	SHORT $LN5@xmlGetProp
$LN6@xmlGetProp:

; 6614 : 		xmlChar *ret;
; 6615 : 
; 6616 : 		ret = xmlNodeListGetString(prop->doc, prop->children, 1);

	push	1
	mov	edx, DWORD PTR _prop$[ebp]
	mov	eax, DWORD PTR [edx+12]
	push	eax
	mov	ecx, DWORD PTR _prop$[ebp]
	mov	edx, DWORD PTR [ecx+32]
	push	edx
	call	_xmlNodeListGetString
	add	esp, 12					; 0000000cH
	mov	DWORD PTR _ret$1[ebp], eax

; 6617 : 		if (ret != NULL)

	cmp	DWORD PTR _ret$1[ebp], 0
	je	SHORT $LN5@xmlGetProp

; 6618 : 		    return(ret);

	mov	eax, DWORD PTR _ret$1[ebp]
	jmp	SHORT $LN1@xmlGetProp
$LN5@xmlGetProp:

; 6619 : 	    }
; 6620 : 	}
; 6621 : 	return(xmlStrdup((xmlChar *)""));

	push	OFFSET ??_C@_00CNPNBAHC@@
	call	_xmlStrdup
	add	esp, 4
	jmp	SHORT $LN1@xmlGetProp
	jmp	SHORT $LN4@xmlGetProp
$LN3@xmlGetProp:

; 6622 :     } else if (prop->type == XML_ATTRIBUTE_DECL) {

	mov	eax, DWORD PTR _prop$[ebp]
	cmp	DWORD PTR [eax+4], 16			; 00000010H
	jne	SHORT $LN4@xmlGetProp

; 6623 : 	return(xmlStrdup(((xmlAttributePtr)prop)->defaultValue));

	mov	ecx, DWORD PTR _prop$[ebp]
	mov	edx, DWORD PTR [ecx+48]
	push	edx
	call	_xmlStrdup
	add	esp, 4
	jmp	SHORT $LN1@xmlGetProp
$LN4@xmlGetProp:

; 6624 :     }
; 6625 :     return(NULL);

	xor	eax, eax
$LN1@xmlGetProp:

; 6626 : }

	add	esp, 4
	cmp	ebp, esp
	call	__RTC_CheckEsp
	mov	esp, ebp
	pop	ebp
	ret	0
_xmlGetPropNodeValueInternal ENDP
_TEXT	ENDS
; Function compile flags: /Odtp /RTCsu
; File c:\users\dag\documents\_clients\codeproject authors group\windows on arm\libxml2\libxml2-2.9.9\tree.c
;	COMDAT _xmlNewReconciliedNs
_TEXT	SEGMENT
tv134 = -76						; size = 4
tv128 = -72						; size = 4
_counter$ = -68						; size = 4
_prefix$ = -60						; size = 50
_def$ = -4						; size = 4
_doc$ = 8						; size = 4
_tree$ = 12						; size = 4
_ns$ = 16						; size = 4
_xmlNewReconciliedNs PROC				; COMDAT

; 6230 : xmlNewReconciliedNs(xmlDocPtr doc, xmlNodePtr tree, xmlNsPtr ns) {

	push	ebp
	mov	ebp, esp
	sub	esp, 76					; 0000004cH
	push	edi
	lea	edi, DWORD PTR [ebp-76]
	mov	ecx, 19					; 00000013H
	mov	eax, -858993460				; ccccccccH
	rep stosd
	mov	ecx, OFFSET __59973643_tree@c
	call	@__CheckForDebuggerJustMyCode@4

; 6231 :     xmlNsPtr def;
; 6232 :     xmlChar prefix[50];
; 6233 :     int counter = 1;

	mov	DWORD PTR _counter$[ebp], 1

; 6234 : 
; 6235 :     if ((tree == NULL) || (tree->type != XML_ELEMENT_NODE)) {

	cmp	DWORD PTR _tree$[ebp], 0
	je	SHORT $LN5@xmlNewReco
	mov	eax, DWORD PTR _tree$[ebp]
	cmp	DWORD PTR [eax+4], 1
	je	SHORT $LN4@xmlNewReco
$LN5@xmlNewReco:

; 6236 : #ifdef DEBUG_TREE
; 6237 :         xmlGenericError(xmlGenericErrorContext,
; 6238 : 		"xmlNewReconciliedNs : tree == NULL\n");
; 6239 : #endif
; 6240 : 	return(NULL);

	xor	eax, eax
	jmp	$LN1@xmlNewReco
$LN4@xmlNewReco:

; 6241 :     }
; 6242 :     if ((ns == NULL) || (ns->type != XML_NAMESPACE_DECL)) {

	cmp	DWORD PTR _ns$[ebp], 0
	je	SHORT $LN7@xmlNewReco
	mov	ecx, DWORD PTR _ns$[ebp]
	cmp	DWORD PTR [ecx+4], 18			; 00000012H
	je	SHORT $LN6@xmlNewReco
$LN7@xmlNewReco:

; 6243 : #ifdef DEBUG_TREE
; 6244 :         xmlGenericError(xmlGenericErrorContext,
; 6245 : 		"xmlNewReconciliedNs : ns == NULL\n");
; 6246 : #endif
; 6247 : 	return(NULL);

	xor	eax, eax
	jmp	$LN1@xmlNewReco
$LN6@xmlNewReco:

; 6248 :     }
; 6249 :     /*
; 6250 :      * Search an existing namespace definition inherited.
; 6251 :      */
; 6252 :     def = xmlSearchNsByHref(doc, tree, ns->href);

	mov	edx, DWORD PTR _ns$[ebp]
	mov	eax, DWORD PTR [edx+8]
	push	eax
	mov	ecx, DWORD PTR _tree$[ebp]
	push	ecx
	mov	edx, DWORD PTR _doc$[ebp]
	push	edx
	call	_xmlSearchNsByHref
	add	esp, 12					; 0000000cH
	mov	DWORD PTR _def$[ebp], eax

; 6253 :     if (def != NULL)

	cmp	DWORD PTR _def$[ebp], 0
	je	SHORT $LN8@xmlNewReco

; 6254 :         return(def);

	mov	eax, DWORD PTR _def$[ebp]
	jmp	$LN1@xmlNewReco
$LN8@xmlNewReco:

; 6255 : 
; 6256 :     /*
; 6257 :      * Find a close prefix which is not already in use.
; 6258 :      * Let's strip namespace prefixes longer than 20 chars !
; 6259 :      */
; 6260 :     if (ns->prefix == NULL)

	mov	eax, DWORD PTR _ns$[ebp]
	cmp	DWORD PTR [eax+12], 0
	jne	SHORT $LN9@xmlNewReco

; 6261 : 	snprintf((char *) prefix, sizeof(prefix), "default");

	push	OFFSET ??_C@_07DLHCIBDH@default@
	push	50					; 00000032H
	lea	ecx, DWORD PTR _prefix$[ebp]
	push	ecx
	call	_snprintf
	add	esp, 12					; 0000000cH
	jmp	SHORT $LN10@xmlNewReco
$LN9@xmlNewReco:

; 6262 :     else
; 6263 : 	snprintf((char *) prefix, sizeof(prefix), "%.20s", (char *)ns->prefix);

	mov	edx, DWORD PTR _ns$[ebp]
	mov	eax, DWORD PTR [edx+12]
	push	eax
	push	OFFSET ??_C@_05BNPGKEDD@?$CF?420s@
	push	50					; 00000032H
	lea	ecx, DWORD PTR _prefix$[ebp]
	push	ecx
	call	_snprintf
	add	esp, 16					; 00000010H
$LN10@xmlNewReco:

; 6264 : 
; 6265 :     def = xmlSearchNs(doc, tree, prefix);

	lea	edx, DWORD PTR _prefix$[ebp]
	push	edx
	mov	eax, DWORD PTR _tree$[ebp]
	push	eax
	mov	ecx, DWORD PTR _doc$[ebp]
	push	ecx
	call	_xmlSearchNs
	add	esp, 12					; 0000000cH
	mov	DWORD PTR _def$[ebp], eax
$LN2@xmlNewReco:

; 6266 :     while (def != NULL) {

	cmp	DWORD PTR _def$[ebp], 0
	je	$LN3@xmlNewReco

; 6267 :         if (counter > 1000) return(NULL);

	cmp	DWORD PTR _counter$[ebp], 1000		; 000003e8H
	jle	SHORT $LN11@xmlNewReco
	xor	eax, eax
	jmp	$LN1@xmlNewReco
$LN11@xmlNewReco:

; 6268 : 	if (ns->prefix == NULL)

	mov	edx, DWORD PTR _ns$[ebp]
	cmp	DWORD PTR [edx+12], 0
	jne	SHORT $LN12@xmlNewReco

; 6269 : 	    snprintf((char *) prefix, sizeof(prefix), "default%d", counter++);

	mov	eax, DWORD PTR _counter$[ebp]
	mov	DWORD PTR tv128[ebp], eax
	mov	ecx, DWORD PTR _counter$[ebp]
	add	ecx, 1
	mov	DWORD PTR _counter$[ebp], ecx
	mov	edx, DWORD PTR tv128[ebp]
	push	edx
	push	OFFSET ??_C@_09DFKPACFI@default?$CFd@
	push	50					; 00000032H
	lea	eax, DWORD PTR _prefix$[ebp]
	push	eax
	call	_snprintf
	add	esp, 16					; 00000010H
	jmp	SHORT $LN13@xmlNewReco
$LN12@xmlNewReco:

; 6270 : 	else
; 6271 : 	    snprintf((char *) prefix, sizeof(prefix), "%.20s%d",

	mov	ecx, DWORD PTR _counter$[ebp]
	mov	DWORD PTR tv134[ebp], ecx
	mov	edx, DWORD PTR _counter$[ebp]
	add	edx, 1
	mov	DWORD PTR _counter$[ebp], edx
	mov	eax, DWORD PTR tv134[ebp]
	push	eax
	mov	ecx, DWORD PTR _ns$[ebp]
	mov	edx, DWORD PTR [ecx+12]
	push	edx
	push	OFFSET ??_C@_07BKMHDFJP@?$CF?420s?$CFd@
	push	50					; 00000032H
	lea	eax, DWORD PTR _prefix$[ebp]
	push	eax
	call	_snprintf
	add	esp, 20					; 00000014H
$LN13@xmlNewReco:

; 6272 : 		(char *)ns->prefix, counter++);
; 6273 : 	def = xmlSearchNs(doc, tree, prefix);

	lea	ecx, DWORD PTR _prefix$[ebp]
	push	ecx
	mov	edx, DWORD PTR _tree$[ebp]
	push	edx
	mov	eax, DWORD PTR _doc$[ebp]
	push	eax
	call	_xmlSearchNs
	add	esp, 12					; 0000000cH
	mov	DWORD PTR _def$[ebp], eax

; 6274 :     }

	jmp	$LN2@xmlNewReco
$LN3@xmlNewReco:

; 6275 : 
; 6276 :     /*
; 6277 :      * OK, now we are ready to create a new one.
; 6278 :      */
; 6279 :     def = xmlNewNs(tree, ns->href, prefix);

	lea	ecx, DWORD PTR _prefix$[ebp]
	push	ecx
	mov	edx, DWORD PTR _ns$[ebp]
	mov	eax, DWORD PTR [edx+8]
	push	eax
	mov	ecx, DWORD PTR _tree$[ebp]
	push	ecx
	call	_xmlNewNs
	add	esp, 12					; 0000000cH
	mov	DWORD PTR _def$[ebp], eax

; 6280 :     return(def);

	mov	eax, DWORD PTR _def$[ebp]
$LN1@xmlNewReco:

; 6281 : }

	push	edx
	mov	ecx, ebp
	push	eax
	lea	edx, DWORD PTR $LN17@xmlNewReco
	call	@_RTC_CheckStackVars@8
	pop	eax
	pop	edx
	pop	edi
	add	esp, 76					; 0000004cH
	cmp	ebp, esp
	call	__RTC_CheckEsp
	mov	esp, ebp
	pop	ebp
	ret	0
	npad	1
$LN17@xmlNewReco:
	DD	1
	DD	$LN16@xmlNewReco
$LN16@xmlNewReco:
	DD	-60					; ffffffc4H
	DD	50					; 00000032H
	DD	$LN15@xmlNewReco
$LN15@xmlNewReco:
	DB	112					; 00000070H
	DB	114					; 00000072H
	DB	101					; 00000065H
	DB	102					; 00000066H
	DB	105					; 00000069H
	DB	120					; 00000078H
	DB	0
_xmlNewReconciliedNs ENDP
_TEXT	ENDS
; Function compile flags: /Odtp /RTCsu
; File c:\users\dag\documents\_clients\codeproject authors group\windows on arm\libxml2\libxml2-2.9.9\tree.c
;	COMDAT _xmlPreviousElementSibling
_TEXT	SEGMENT
tv66 = -4						; size = 4
_node$ = 8						; size = 4
_xmlPreviousElementSibling PROC				; COMDAT

; 3589 : xmlPreviousElementSibling(xmlNodePtr node) {

	push	ebp
	mov	ebp, esp
	push	ecx
	mov	DWORD PTR [ebp-4], -858993460		; ccccccccH
	mov	ecx, OFFSET __59973643_tree@c
	call	@__CheckForDebuggerJustMyCode@4

; 3590 :     if (node == NULL)

	cmp	DWORD PTR _node$[ebp], 0
	jne	SHORT $LN6@xmlPreviou

; 3591 :         return(NULL);

	xor	eax, eax
	jmp	SHORT $LN1@xmlPreviou
$LN6@xmlPreviou:

; 3592 :     switch (node->type) {

	mov	eax, DWORD PTR _node$[ebp]
	mov	ecx, DWORD PTR [eax+4]
	mov	DWORD PTR tv66[ebp], ecx
	mov	edx, DWORD PTR tv66[ebp]
	sub	edx, 1
	mov	DWORD PTR tv66[ebp], edx
	cmp	DWORD PTR tv66[ebp], 19			; 00000013H
	ja	SHORT $LN8@xmlPreviou
	mov	eax, DWORD PTR tv66[ebp]
	movzx	ecx, BYTE PTR $LN11@xmlPreviou[eax]
	jmp	DWORD PTR $LN12@xmlPreviou[ecx*4]
$LN7@xmlPreviou:

; 3593 :         case XML_ELEMENT_NODE:
; 3594 :         case XML_TEXT_NODE:
; 3595 :         case XML_CDATA_SECTION_NODE:
; 3596 :         case XML_ENTITY_REF_NODE:
; 3597 :         case XML_ENTITY_NODE:
; 3598 :         case XML_PI_NODE:
; 3599 :         case XML_COMMENT_NODE:
; 3600 :         case XML_XINCLUDE_START:
; 3601 :         case XML_XINCLUDE_END:
; 3602 :             node = node->prev;

	mov	edx, DWORD PTR _node$[ebp]
	mov	eax, DWORD PTR [edx+28]
	mov	DWORD PTR _node$[ebp], eax

; 3603 :             break;

	jmp	SHORT $LN4@xmlPreviou
$LN8@xmlPreviou:

; 3604 :         default:
; 3605 :             return(NULL);

	xor	eax, eax
	jmp	SHORT $LN1@xmlPreviou
$LN4@xmlPreviou:

; 3606 :     }
; 3607 :     while (node != NULL) {

	cmp	DWORD PTR _node$[ebp], 0
	je	SHORT $LN5@xmlPreviou

; 3608 :         if (node->type == XML_ELEMENT_NODE)

	mov	ecx, DWORD PTR _node$[ebp]
	cmp	DWORD PTR [ecx+4], 1
	jne	SHORT $LN9@xmlPreviou

; 3609 :             return(node);

	mov	eax, DWORD PTR _node$[ebp]
	jmp	SHORT $LN1@xmlPreviou
$LN9@xmlPreviou:

; 3610 :         node = node->prev;

	mov	edx, DWORD PTR _node$[ebp]
	mov	eax, DWORD PTR [edx+28]
	mov	DWORD PTR _node$[ebp], eax

; 3611 :     }

	jmp	SHORT $LN4@xmlPreviou
$LN5@xmlPreviou:

; 3612 :     return(NULL);

	xor	eax, eax
$LN1@xmlPreviou:

; 3613 : }

	add	esp, 4
	cmp	ebp, esp
	call	__RTC_CheckEsp
	mov	esp, ebp
	pop	ebp
	ret	0
	npad	2
$LN12@xmlPreviou:
	DD	$LN7@xmlPreviou
	DD	$LN8@xmlPreviou
$LN11@xmlPreviou:
	DB	0
	DB	1
	DB	0
	DB	0
	DB	0
	DB	0
	DB	0
	DB	0
	DB	1
	DB	1
	DB	1
	DB	1
	DB	1
	DB	1
	DB	1
	DB	1
	DB	1
	DB	1
	DB	0
	DB	0
_xmlPreviousElementSibling ENDP
_TEXT	ENDS
; Function compile flags: /Odtp /RTCsu
; File c:\users\dag\documents\_clients\codeproject authors group\windows on arm\libxml2\libxml2-2.9.9\tree.c
;	COMDAT _xmlLastElementChild
_TEXT	SEGMENT
tv66 = -8						; size = 4
_cur$ = -4						; size = 4
_parent$ = 8						; size = 4
_xmlLastElementChild PROC				; COMDAT

; 3552 : xmlLastElementChild(xmlNodePtr parent) {

	push	ebp
	mov	ebp, esp
	sub	esp, 8
	mov	DWORD PTR [ebp-8], -858993460		; ccccccccH
	mov	DWORD PTR [ebp-4], -858993460		; ccccccccH
	mov	ecx, OFFSET __59973643_tree@c
	call	@__CheckForDebuggerJustMyCode@4

; 3553 :     xmlNodePtr cur = NULL;

	mov	DWORD PTR _cur$[ebp], 0

; 3554 : 
; 3555 :     if (parent == NULL)

	cmp	DWORD PTR _parent$[ebp], 0
	jne	SHORT $LN6@xmlLastEle

; 3556 :         return(NULL);

	xor	eax, eax
	jmp	SHORT $LN1@xmlLastEle
$LN6@xmlLastEle:

; 3557 :     switch (parent->type) {

	mov	eax, DWORD PTR _parent$[ebp]
	mov	ecx, DWORD PTR [eax+4]
	mov	DWORD PTR tv66[ebp], ecx
	mov	edx, DWORD PTR tv66[ebp]
	sub	edx, 1
	mov	DWORD PTR tv66[ebp], edx
	cmp	DWORD PTR tv66[ebp], 12			; 0000000cH
	ja	SHORT $LN8@xmlLastEle
	mov	eax, DWORD PTR tv66[ebp]
	movzx	ecx, BYTE PTR $LN11@xmlLastEle[eax]
	jmp	DWORD PTR $LN12@xmlLastEle[ecx*4]
$LN7@xmlLastEle:

; 3558 :         case XML_ELEMENT_NODE:
; 3559 :         case XML_ENTITY_NODE:
; 3560 :         case XML_DOCUMENT_NODE:
; 3561 :         case XML_DOCUMENT_FRAG_NODE:
; 3562 :         case XML_HTML_DOCUMENT_NODE:
; 3563 :             cur = parent->last;

	mov	edx, DWORD PTR _parent$[ebp]
	mov	eax, DWORD PTR [edx+16]
	mov	DWORD PTR _cur$[ebp], eax

; 3564 :             break;

	jmp	SHORT $LN4@xmlLastEle
$LN8@xmlLastEle:

; 3565 :         default:
; 3566 :             return(NULL);

	xor	eax, eax
	jmp	SHORT $LN1@xmlLastEle
$LN4@xmlLastEle:

; 3567 :     }
; 3568 :     while (cur != NULL) {

	cmp	DWORD PTR _cur$[ebp], 0
	je	SHORT $LN5@xmlLastEle

; 3569 :         if (cur->type == XML_ELEMENT_NODE)

	mov	ecx, DWORD PTR _cur$[ebp]
	cmp	DWORD PTR [ecx+4], 1
	jne	SHORT $LN9@xmlLastEle

; 3570 :             return(cur);

	mov	eax, DWORD PTR _cur$[ebp]
	jmp	SHORT $LN1@xmlLastEle
$LN9@xmlLastEle:

; 3571 :         cur = cur->prev;

	mov	edx, DWORD PTR _cur$[ebp]
	mov	eax, DWORD PTR [edx+28]
	mov	DWORD PTR _cur$[ebp], eax

; 3572 :     }

	jmp	SHORT $LN4@xmlLastEle
$LN5@xmlLastEle:

; 3573 :     return(NULL);

	xor	eax, eax
$LN1@xmlLastEle:

; 3574 : }

	add	esp, 8
	cmp	ebp, esp
	call	__RTC_CheckEsp
	mov	esp, ebp
	pop	ebp
	ret	0
	npad	2
$LN12@xmlLastEle:
	DD	$LN7@xmlLastEle
	DD	$LN8@xmlLastEle
$LN11@xmlLastEle:
	DB	0
	DB	1
	DB	1
	DB	1
	DB	1
	DB	0
	DB	1
	DB	1
	DB	0
	DB	1
	DB	0
	DB	1
	DB	0
_xmlLastElementChild ENDP
_TEXT	ENDS
; Function compile flags: /Odtp /RTCsu
; File c:\users\dag\documents\_clients\codeproject authors group\windows on arm\libxml2\libxml2-2.9.9\tree.c
;	COMDAT _xmlFirstElementChild
_TEXT	SEGMENT
tv66 = -8						; size = 4
_cur$ = -4						; size = 4
_parent$ = 8						; size = 4
_xmlFirstElementChild PROC				; COMDAT

; 3516 : xmlFirstElementChild(xmlNodePtr parent) {

	push	ebp
	mov	ebp, esp
	sub	esp, 8
	mov	DWORD PTR [ebp-8], -858993460		; ccccccccH
	mov	DWORD PTR [ebp-4], -858993460		; ccccccccH
	mov	ecx, OFFSET __59973643_tree@c
	call	@__CheckForDebuggerJustMyCode@4

; 3517 :     xmlNodePtr cur = NULL;

	mov	DWORD PTR _cur$[ebp], 0

; 3518 : 
; 3519 :     if (parent == NULL)

	cmp	DWORD PTR _parent$[ebp], 0
	jne	SHORT $LN6@xmlFirstEl

; 3520 :         return(NULL);

	xor	eax, eax
	jmp	SHORT $LN1@xmlFirstEl
$LN6@xmlFirstEl:

; 3521 :     switch (parent->type) {

	mov	eax, DWORD PTR _parent$[ebp]
	mov	ecx, DWORD PTR [eax+4]
	mov	DWORD PTR tv66[ebp], ecx
	mov	edx, DWORD PTR tv66[ebp]
	sub	edx, 1
	mov	DWORD PTR tv66[ebp], edx
	cmp	DWORD PTR tv66[ebp], 12			; 0000000cH
	ja	SHORT $LN8@xmlFirstEl
	mov	eax, DWORD PTR tv66[ebp]
	movzx	ecx, BYTE PTR $LN11@xmlFirstEl[eax]
	jmp	DWORD PTR $LN12@xmlFirstEl[ecx*4]
$LN7@xmlFirstEl:

; 3522 :         case XML_ELEMENT_NODE:
; 3523 :         case XML_ENTITY_NODE:
; 3524 :         case XML_DOCUMENT_NODE:
; 3525 :         case XML_DOCUMENT_FRAG_NODE:
; 3526 :         case XML_HTML_DOCUMENT_NODE:
; 3527 :             cur = parent->children;

	mov	edx, DWORD PTR _parent$[ebp]
	mov	eax, DWORD PTR [edx+12]
	mov	DWORD PTR _cur$[ebp], eax

; 3528 :             break;

	jmp	SHORT $LN4@xmlFirstEl
$LN8@xmlFirstEl:

; 3529 :         default:
; 3530 :             return(NULL);

	xor	eax, eax
	jmp	SHORT $LN1@xmlFirstEl
$LN4@xmlFirstEl:

; 3531 :     }
; 3532 :     while (cur != NULL) {

	cmp	DWORD PTR _cur$[ebp], 0
	je	SHORT $LN5@xmlFirstEl

; 3533 :         if (cur->type == XML_ELEMENT_NODE)

	mov	ecx, DWORD PTR _cur$[ebp]
	cmp	DWORD PTR [ecx+4], 1
	jne	SHORT $LN9@xmlFirstEl

; 3534 :             return(cur);

	mov	eax, DWORD PTR _cur$[ebp]
	jmp	SHORT $LN1@xmlFirstEl
$LN9@xmlFirstEl:

; 3535 :         cur = cur->next;

	mov	edx, DWORD PTR _cur$[ebp]
	mov	eax, DWORD PTR [edx+24]
	mov	DWORD PTR _cur$[ebp], eax

; 3536 :     }

	jmp	SHORT $LN4@xmlFirstEl
$LN5@xmlFirstEl:

; 3537 :     return(NULL);

	xor	eax, eax
$LN1@xmlFirstEl:

; 3538 : }

	add	esp, 8
	cmp	ebp, esp
	call	__RTC_CheckEsp
	mov	esp, ebp
	pop	ebp
	ret	0
	npad	2
$LN12@xmlFirstEl:
	DD	$LN7@xmlFirstEl
	DD	$LN8@xmlFirstEl
$LN11@xmlFirstEl:
	DB	0
	DB	1
	DB	1
	DB	1
	DB	1
	DB	0
	DB	1
	DB	1
	DB	0
	DB	1
	DB	0
	DB	1
	DB	0
_xmlFirstElementChild ENDP
_TEXT	ENDS
; Function compile flags: /Odtp /RTCsu
; File c:\users\dag\documents\_clients\codeproject authors group\windows on arm\libxml2\libxml2-2.9.9\tree.c
;	COMDAT _xmlNextElementSibling
_TEXT	SEGMENT
tv66 = -4						; size = 4
_node$ = 8						; size = 4
_xmlNextElementSibling PROC				; COMDAT

; 3628 : xmlNextElementSibling(xmlNodePtr node) {

	push	ebp
	mov	ebp, esp
	push	ecx
	mov	DWORD PTR [ebp-4], -858993460		; ccccccccH
	mov	ecx, OFFSET __59973643_tree@c
	call	@__CheckForDebuggerJustMyCode@4

; 3629 :     if (node == NULL)

	cmp	DWORD PTR _node$[ebp], 0
	jne	SHORT $LN6@xmlNextEle

; 3630 :         return(NULL);

	xor	eax, eax
	jmp	SHORT $LN1@xmlNextEle
$LN6@xmlNextEle:

; 3631 :     switch (node->type) {

	mov	eax, DWORD PTR _node$[ebp]
	mov	ecx, DWORD PTR [eax+4]
	mov	DWORD PTR tv66[ebp], ecx
	mov	edx, DWORD PTR tv66[ebp]
	sub	edx, 1
	mov	DWORD PTR tv66[ebp], edx
	cmp	DWORD PTR tv66[ebp], 19			; 00000013H
	ja	SHORT $LN8@xmlNextEle
	mov	eax, DWORD PTR tv66[ebp]
	movzx	ecx, BYTE PTR $LN11@xmlNextEle[eax]
	jmp	DWORD PTR $LN12@xmlNextEle[ecx*4]
$LN7@xmlNextEle:

; 3632 :         case XML_ELEMENT_NODE:
; 3633 :         case XML_TEXT_NODE:
; 3634 :         case XML_CDATA_SECTION_NODE:
; 3635 :         case XML_ENTITY_REF_NODE:
; 3636 :         case XML_ENTITY_NODE:
; 3637 :         case XML_PI_NODE:
; 3638 :         case XML_COMMENT_NODE:
; 3639 :         case XML_DTD_NODE:
; 3640 :         case XML_XINCLUDE_START:
; 3641 :         case XML_XINCLUDE_END:
; 3642 :             node = node->next;

	mov	edx, DWORD PTR _node$[ebp]
	mov	eax, DWORD PTR [edx+24]
	mov	DWORD PTR _node$[ebp], eax

; 3643 :             break;

	jmp	SHORT $LN4@xmlNextEle
$LN8@xmlNextEle:

; 3644 :         default:
; 3645 :             return(NULL);

	xor	eax, eax
	jmp	SHORT $LN1@xmlNextEle
$LN4@xmlNextEle:

; 3646 :     }
; 3647 :     while (node != NULL) {

	cmp	DWORD PTR _node$[ebp], 0
	je	SHORT $LN5@xmlNextEle

; 3648 :         if (node->type == XML_ELEMENT_NODE)

	mov	ecx, DWORD PTR _node$[ebp]
	cmp	DWORD PTR [ecx+4], 1
	jne	SHORT $LN9@xmlNextEle

; 3649 :             return(node);

	mov	eax, DWORD PTR _node$[ebp]
	jmp	SHORT $LN1@xmlNextEle
$LN9@xmlNextEle:

; 3650 :         node = node->next;

	mov	edx, DWORD PTR _node$[ebp]
	mov	eax, DWORD PTR [edx+24]
	mov	DWORD PTR _node$[ebp], eax

; 3651 :     }

	jmp	SHORT $LN4@xmlNextEle
$LN5@xmlNextEle:

; 3652 :     return(NULL);

	xor	eax, eax
$LN1@xmlNextEle:

; 3653 : }

	add	esp, 4
	cmp	ebp, esp
	call	__RTC_CheckEsp
	mov	esp, ebp
	pop	ebp
	ret	0
	npad	2
$LN12@xmlNextEle:
	DD	$LN7@xmlNextEle
	DD	$LN8@xmlNextEle
$LN11@xmlNextEle:
	DB	0
	DB	1
	DB	0
	DB	0
	DB	0
	DB	0
	DB	0
	DB	0
	DB	1
	DB	1
	DB	1
	DB	1
	DB	1
	DB	0
	DB	1
	DB	1
	DB	1
	DB	1
	DB	0
	DB	0
_xmlNextElementSibling ENDP
_TEXT	ENDS
; Function compile flags: /Odtp /RTCsu
; File c:\users\dag\documents\_clients\codeproject authors group\windows on arm\libxml2\libxml2-2.9.9\tree.c
;	COMDAT _xmlChildElementCount
_TEXT	SEGMENT
tv66 = -12						; size = 4
_cur$ = -8						; size = 4
_ret$ = -4						; size = 4
_parent$ = 8						; size = 4
_xmlChildElementCount PROC				; COMDAT

; 3479 : xmlChildElementCount(xmlNodePtr parent) {

	push	ebp
	mov	ebp, esp
	sub	esp, 12					; 0000000cH
	mov	DWORD PTR [ebp-12], -858993460		; ccccccccH
	mov	DWORD PTR [ebp-8], -858993460		; ccccccccH
	mov	DWORD PTR [ebp-4], -858993460		; ccccccccH
	mov	ecx, OFFSET __59973643_tree@c
	call	@__CheckForDebuggerJustMyCode@4

; 3480 :     unsigned long ret = 0;

	mov	DWORD PTR _ret$[ebp], 0

; 3481 :     xmlNodePtr cur = NULL;

	mov	DWORD PTR _cur$[ebp], 0

; 3482 : 
; 3483 :     if (parent == NULL)

	cmp	DWORD PTR _parent$[ebp], 0
	jne	SHORT $LN6@xmlChildEl

; 3484 :         return(0);

	xor	eax, eax
	jmp	SHORT $LN1@xmlChildEl
$LN6@xmlChildEl:

; 3485 :     switch (parent->type) {

	mov	eax, DWORD PTR _parent$[ebp]
	mov	ecx, DWORD PTR [eax+4]
	mov	DWORD PTR tv66[ebp], ecx
	mov	edx, DWORD PTR tv66[ebp]
	sub	edx, 1
	mov	DWORD PTR tv66[ebp], edx
	cmp	DWORD PTR tv66[ebp], 12			; 0000000cH
	ja	SHORT $LN8@xmlChildEl
	mov	eax, DWORD PTR tv66[ebp]
	movzx	ecx, BYTE PTR $LN11@xmlChildEl[eax]
	jmp	DWORD PTR $LN12@xmlChildEl[ecx*4]
$LN7@xmlChildEl:

; 3486 :         case XML_ELEMENT_NODE:
; 3487 :         case XML_ENTITY_NODE:
; 3488 :         case XML_DOCUMENT_NODE:
; 3489 :         case XML_DOCUMENT_FRAG_NODE:
; 3490 :         case XML_HTML_DOCUMENT_NODE:
; 3491 :             cur = parent->children;

	mov	edx, DWORD PTR _parent$[ebp]
	mov	eax, DWORD PTR [edx+12]
	mov	DWORD PTR _cur$[ebp], eax

; 3492 :             break;

	jmp	SHORT $LN4@xmlChildEl
$LN8@xmlChildEl:

; 3493 :         default:
; 3494 :             return(0);

	xor	eax, eax
	jmp	SHORT $LN1@xmlChildEl
$LN4@xmlChildEl:

; 3495 :     }
; 3496 :     while (cur != NULL) {

	cmp	DWORD PTR _cur$[ebp], 0
	je	SHORT $LN5@xmlChildEl

; 3497 :         if (cur->type == XML_ELEMENT_NODE)

	mov	ecx, DWORD PTR _cur$[ebp]
	cmp	DWORD PTR [ecx+4], 1
	jne	SHORT $LN9@xmlChildEl

; 3498 :             ret++;

	mov	edx, DWORD PTR _ret$[ebp]
	add	edx, 1
	mov	DWORD PTR _ret$[ebp], edx
$LN9@xmlChildEl:

; 3499 :         cur = cur->next;

	mov	eax, DWORD PTR _cur$[ebp]
	mov	ecx, DWORD PTR [eax+24]
	mov	DWORD PTR _cur$[ebp], ecx

; 3500 :     }

	jmp	SHORT $LN4@xmlChildEl
$LN5@xmlChildEl:

; 3501 :     return(ret);

	mov	eax, DWORD PTR _ret$[ebp]
$LN1@xmlChildEl:

; 3502 : }

	add	esp, 12					; 0000000cH
	cmp	ebp, esp
	call	__RTC_CheckEsp
	mov	esp, ebp
	pop	ebp
	ret	0
	npad	3
$LN12@xmlChildEl:
	DD	$LN7@xmlChildEl
	DD	$LN8@xmlChildEl
$LN11@xmlChildEl:
	DB	0
	DB	1
	DB	1
	DB	1
	DB	1
	DB	0
	DB	1
	DB	1
	DB	0
	DB	1
	DB	0
	DB	1
	DB	0
_xmlChildElementCount ENDP
_TEXT	ENDS
; Function compile flags: /Odtp /RTCsu
; File c:\users\dag\documents\_clients\codeproject authors group\windows on arm\libxml2\libxml2-2.9.9\tree.c
;	COMDAT _xmlDOMWrapCloneNode
_TEXT	SEGMENT
tv389 = -104						; size = 4
tv380 = -100						; size = 4
tv183 = -96						; size = 4
tv87 = -92						; size = 4
_idVal$1 = -88						; size = 4
_ent$2 = -84						; size = 4
_dict$ = -80						; size = 4
_cloneNsDefSlot$ = -76					; size = 4
_cloneNs$ = -72						; size = 4
_prevClone$ = -68					; size = 4
_parentClone$ = -64					; size = 4
_clone$ = -60						; size = 4
_resultClone$ = -56					; size = 4
_ancestorsOnly$ = -52					; size = 4
_parnsdone$ = -48					; size = 4
_depth$ = -44						; size = 4
_ns$ = -36						; size = 4
_mi$ = -28						; size = 4
_nsMap$ = -20						; size = 4
_curElem$ = -12						; size = 4
_cur$ = -8						; size = 4
_ret$ = -4						; size = 4
_ctxt$ = 8						; size = 4
_sourceDoc$ = 12					; size = 4
_node$ = 16						; size = 4
_resNode$ = 20						; size = 4
_destDoc$ = 24						; size = 4
_destParent$ = 28					; size = 4
_deep$ = 32						; size = 4
_options$ = 36						; size = 4
_xmlDOMWrapCloneNode PROC				; COMDAT

; 9378 : {

	push	ebp
	mov	ebp, esp
	sub	esp, 104				; 00000068H
	push	esi
	push	edi
	lea	edi, DWORD PTR [ebp-104]
	mov	ecx, 26					; 0000001aH
	mov	eax, -858993460				; ccccccccH
	rep stosd
	mov	ecx, OFFSET __59973643_tree@c
	call	@__CheckForDebuggerJustMyCode@4

; 9379 :     int ret = 0;

	mov	DWORD PTR _ret$[ebp], 0

; 9380 :     xmlNodePtr cur, curElem = NULL;

	mov	DWORD PTR _curElem$[ebp], 0

; 9381 :     xmlNsMapPtr nsMap = NULL;

	mov	DWORD PTR _nsMap$[ebp], 0

; 9382 :     xmlNsMapItemPtr mi;
; 9383 :     xmlNsPtr ns;
; 9384 :     int depth = -1;

	mov	DWORD PTR _depth$[ebp], -1

; 9385 :     /* int adoptStr = 1; */
; 9386 :     /* gather @parent's ns-decls. */
; 9387 :     int parnsdone = 0;

	mov	DWORD PTR _parnsdone$[ebp], 0

; 9388 :     /*
; 9389 :     * @ancestorsOnly:
; 9390 :     * TODO: @ancestorsOnly should be set per option.
; 9391 :     *
; 9392 :     */
; 9393 :     int ancestorsOnly = 0;

	mov	DWORD PTR _ancestorsOnly$[ebp], 0

; 9394 :     xmlNodePtr resultClone = NULL, clone = NULL, parentClone = NULL, prevClone = NULL;

	mov	DWORD PTR _resultClone$[ebp], 0
	mov	DWORD PTR _clone$[ebp], 0
	mov	DWORD PTR _parentClone$[ebp], 0
	mov	DWORD PTR _prevClone$[ebp], 0

; 9395 :     xmlNsPtr cloneNs = NULL, *cloneNsDefSlot = NULL;

	mov	DWORD PTR _cloneNs$[ebp], 0
	mov	DWORD PTR _cloneNsDefSlot$[ebp], 0

; 9396 :     xmlDictPtr dict; /* The destination dict */
; 9397 : 
; 9398 :     if ((node == NULL) || (resNode == NULL) || (destDoc == NULL))

	cmp	DWORD PTR _node$[ebp], 0
	je	SHORT $LN23@xmlDOMWrap
	cmp	DWORD PTR _resNode$[ebp], 0
	je	SHORT $LN23@xmlDOMWrap
	cmp	DWORD PTR _destDoc$[ebp], 0
	jne	SHORT $LN22@xmlDOMWrap
$LN23@xmlDOMWrap:

; 9399 : 	return(-1);

	or	eax, -1
	jmp	$LN1@xmlDOMWrap
$LN22@xmlDOMWrap:

; 9400 :     /*
; 9401 :     * TODO: Initially we support only element-nodes.
; 9402 :     */
; 9403 :     if (node->type != XML_ELEMENT_NODE)

	mov	eax, DWORD PTR _node$[ebp]
	cmp	DWORD PTR [eax+4], 1
	je	SHORT $LN24@xmlDOMWrap

; 9404 : 	return(1);

	mov	eax, 1
	jmp	$LN1@xmlDOMWrap
$LN24@xmlDOMWrap:

; 9405 :     /*
; 9406 :     * Check node->doc sanity.
; 9407 :     */
; 9408 :     if ((node->doc != NULL) && (sourceDoc != NULL) &&

	mov	ecx, DWORD PTR _node$[ebp]
	cmp	DWORD PTR [ecx+32], 0
	je	SHORT $LN25@xmlDOMWrap
	cmp	DWORD PTR _sourceDoc$[ebp], 0
	je	SHORT $LN25@xmlDOMWrap
	mov	edx, DWORD PTR _node$[ebp]
	mov	eax, DWORD PTR [edx+32]
	cmp	eax, DWORD PTR _sourceDoc$[ebp]
	je	SHORT $LN25@xmlDOMWrap

; 9409 : 	(node->doc != sourceDoc)) {
; 9410 : 	/*
; 9411 : 	* Might be an XIncluded node.
; 9412 : 	*/
; 9413 : 	return (-1);

	or	eax, -1
	jmp	$LN1@xmlDOMWrap
$LN25@xmlDOMWrap:

; 9414 :     }
; 9415 :     if (sourceDoc == NULL)

	cmp	DWORD PTR _sourceDoc$[ebp], 0
	jne	SHORT $LN26@xmlDOMWrap

; 9416 : 	sourceDoc = node->doc;

	mov	ecx, DWORD PTR _node$[ebp]
	mov	edx, DWORD PTR [ecx+32]
	mov	DWORD PTR _sourceDoc$[ebp], edx
$LN26@xmlDOMWrap:

; 9417 :     if (sourceDoc == NULL)

	cmp	DWORD PTR _sourceDoc$[ebp], 0
	jne	SHORT $LN27@xmlDOMWrap

; 9418 :         return (-1);

	or	eax, -1
	jmp	$LN1@xmlDOMWrap
$LN27@xmlDOMWrap:

; 9419 : 
; 9420 :     dict = destDoc->dict;

	mov	eax, DWORD PTR _destDoc$[ebp]
	mov	ecx, DWORD PTR [eax+80]
	mov	DWORD PTR _dict$[ebp], ecx

; 9421 :     /*
; 9422 :     * Reuse the namespace map of the context.
; 9423 :     */
; 9424 :     if (ctxt)

	cmp	DWORD PTR _ctxt$[ebp], 0
	je	SHORT $LN28@xmlDOMWrap

; 9425 : 	nsMap = (xmlNsMapPtr) ctxt->namespaceMap;

	mov	edx, DWORD PTR _ctxt$[ebp]
	mov	eax, DWORD PTR [edx+8]
	mov	DWORD PTR _nsMap$[ebp], eax
$LN28@xmlDOMWrap:

; 9426 : 
; 9427 :     *resNode = NULL;

	mov	ecx, DWORD PTR _resNode$[ebp]
	mov	DWORD PTR [ecx], 0

; 9428 : 
; 9429 :     cur = node;

	mov	edx, DWORD PTR _node$[ebp]
	mov	DWORD PTR _cur$[ebp], edx

; 9430 :     if ((cur != NULL) && (cur->type == XML_NAMESPACE_DECL))

	cmp	DWORD PTR _cur$[ebp], 0
	je	SHORT $LN2@xmlDOMWrap
	mov	eax, DWORD PTR _cur$[ebp]
	cmp	DWORD PTR [eax+4], 18			; 00000012H
	jne	SHORT $LN2@xmlDOMWrap

; 9431 :         return(-1);

	or	eax, -1
	jmp	$LN1@xmlDOMWrap
$LN2@xmlDOMWrap:

; 9432 : 
; 9433 :     while (cur != NULL) {

	cmp	DWORD PTR _cur$[ebp], 0
	je	$LN3@xmlDOMWrap

; 9434 : 	if (cur->doc != sourceDoc) {

	mov	ecx, DWORD PTR _cur$[ebp]
	mov	edx, DWORD PTR [ecx+32]
	cmp	edx, DWORD PTR _sourceDoc$[ebp]
	je	SHORT $LN30@xmlDOMWrap

; 9435 : 	    /*
; 9436 : 	    * We'll assume XIncluded nodes if the doc differs.
; 9437 : 	    * TODO: Do we need to reconciliate XIncluded nodes?
; 9438 : 	    * TODO: This here returns -1 in this case.
; 9439 : 	    */
; 9440 : 	    goto internal_error;

	jmp	$internal_error$152
$LN30@xmlDOMWrap:

; 9441 : 	}
; 9442 : 	/*
; 9443 : 	* Create a new node.
; 9444 : 	*/
; 9445 : 	switch (cur->type) {

	mov	eax, DWORD PTR _cur$[ebp]
	mov	ecx, DWORD PTR [eax+4]
	mov	DWORD PTR tv87[ebp], ecx
	mov	edx, DWORD PTR tv87[ebp]
	sub	edx, 1
	mov	DWORD PTR tv87[ebp], edx
	cmp	DWORD PTR tv87[ebp], 10			; 0000000aH
	ja	$LN44@xmlDOMWrap
	mov	eax, DWORD PTR tv87[ebp]
	movzx	ecx, BYTE PTR $LN144@xmlDOMWrap[eax]
	jmp	DWORD PTR $LN150@xmlDOMWrap[ecx*4]

; 9446 : 	    case XML_XINCLUDE_START:
; 9447 : 	    case XML_XINCLUDE_END:
; 9448 : 		/*
; 9449 : 		* TODO: What to do with XInclude?
; 9450 : 		*/
; 9451 : 		goto internal_error;

	jmp	$internal_error$152

; 9452 : 		break;

	jmp	$LN4@xmlDOMWrap
$LN32@xmlDOMWrap:

; 9453 : 	    case XML_ELEMENT_NODE:
; 9454 : 	    case XML_TEXT_NODE:
; 9455 : 	    case XML_CDATA_SECTION_NODE:
; 9456 : 	    case XML_COMMENT_NODE:
; 9457 : 	    case XML_PI_NODE:
; 9458 : 	    case XML_DOCUMENT_FRAG_NODE:
; 9459 : 	    case XML_ENTITY_REF_NODE:
; 9460 : 	    case XML_ENTITY_NODE:
; 9461 : 		/*
; 9462 : 		* Nodes of xmlNode structure.
; 9463 : 		*/
; 9464 : 		clone = (xmlNodePtr) xmlMalloc(sizeof(xmlNode));

	mov	esi, esp
	push	60					; 0000003cH
	call	DWORD PTR _xmlMalloc
	add	esp, 4
	cmp	esi, esp
	call	__RTC_CheckEsp
	mov	DWORD PTR _clone$[ebp], eax

; 9465 : 		if (clone == NULL) {

	cmp	DWORD PTR _clone$[ebp], 0
	jne	SHORT $LN33@xmlDOMWrap

; 9466 : 		    xmlTreeErrMemory("xmlDOMWrapCloneNode(): allocating a node");

	push	OFFSET ??_C@_0CJ@IBBFFAIA@xmlDOMWrapCloneNode?$CI?$CJ?3?5allocati@
	call	_xmlTreeErrMemory
	add	esp, 4

; 9467 : 		    goto internal_error;

	jmp	$internal_error$152
$LN33@xmlDOMWrap:

; 9468 : 		}
; 9469 : 		memset(clone, 0, sizeof(xmlNode));

	push	60					; 0000003cH
	push	0
	mov	edx, DWORD PTR _clone$[ebp]
	push	edx
	call	_memset
	add	esp, 12					; 0000000cH

; 9470 : 		/*
; 9471 : 		* Set hierachical links.
; 9472 : 		*/
; 9473 : 		if (resultClone != NULL) {

	cmp	DWORD PTR _resultClone$[ebp], 0
	je	SHORT $LN34@xmlDOMWrap

; 9474 : 		    clone->parent = parentClone;

	mov	eax, DWORD PTR _clone$[ebp]
	mov	ecx, DWORD PTR _parentClone$[ebp]
	mov	DWORD PTR [eax+20], ecx

; 9475 : 		    if (prevClone) {

	cmp	DWORD PTR _prevClone$[ebp], 0
	je	SHORT $LN36@xmlDOMWrap

; 9476 : 			prevClone->next = clone;

	mov	edx, DWORD PTR _prevClone$[ebp]
	mov	eax, DWORD PTR _clone$[ebp]
	mov	DWORD PTR [edx+24], eax

; 9477 : 			clone->prev = prevClone;

	mov	ecx, DWORD PTR _clone$[ebp]
	mov	edx, DWORD PTR _prevClone$[ebp]
	mov	DWORD PTR [ecx+28], edx

; 9478 : 		    } else

	jmp	SHORT $LN37@xmlDOMWrap
$LN36@xmlDOMWrap:

; 9479 : 			parentClone->children = clone;

	mov	eax, DWORD PTR _parentClone$[ebp]
	mov	ecx, DWORD PTR _clone$[ebp]
	mov	DWORD PTR [eax+12], ecx
$LN37@xmlDOMWrap:

; 9480 : 		} else

	jmp	SHORT $LN35@xmlDOMWrap
$LN34@xmlDOMWrap:

; 9481 : 		    resultClone = clone;

	mov	edx, DWORD PTR _clone$[ebp]
	mov	DWORD PTR _resultClone$[ebp], edx
$LN35@xmlDOMWrap:

; 9482 : 
; 9483 : 		break;

	jmp	$LN4@xmlDOMWrap
$LN38@xmlDOMWrap:

; 9484 : 	    case XML_ATTRIBUTE_NODE:
; 9485 : 		/*
; 9486 : 		* Attributes (xmlAttr).
; 9487 : 		*/
; 9488 : 		clone = (xmlNodePtr) xmlMalloc(sizeof(xmlAttr));

	mov	esi, esp
	push	48					; 00000030H
	call	DWORD PTR _xmlMalloc
	add	esp, 4
	cmp	esi, esp
	call	__RTC_CheckEsp
	mov	DWORD PTR _clone$[ebp], eax

; 9489 : 		if (clone == NULL) {

	cmp	DWORD PTR _clone$[ebp], 0
	jne	SHORT $LN39@xmlDOMWrap

; 9490 : 		    xmlTreeErrMemory("xmlDOMWrapCloneNode(): allocating an attr-node");

	push	OFFSET ??_C@_0CP@CMDBBNPE@xmlDOMWrapCloneNode?$CI?$CJ?3?5allocati@
	call	_xmlTreeErrMemory
	add	esp, 4

; 9491 : 		    goto internal_error;

	jmp	$internal_error$152
$LN39@xmlDOMWrap:

; 9492 : 		}
; 9493 : 		memset(clone, 0, sizeof(xmlAttr));

	push	48					; 00000030H
	push	0
	mov	eax, DWORD PTR _clone$[ebp]
	push	eax
	call	_memset
	add	esp, 12					; 0000000cH

; 9494 : 		/*
; 9495 : 		* Set hierachical links.
; 9496 : 		* TODO: Change this to add to the end of attributes.
; 9497 : 		*/
; 9498 : 		if (resultClone != NULL) {

	cmp	DWORD PTR _resultClone$[ebp], 0
	je	SHORT $LN40@xmlDOMWrap

; 9499 : 		    clone->parent = parentClone;

	mov	ecx, DWORD PTR _clone$[ebp]
	mov	edx, DWORD PTR _parentClone$[ebp]
	mov	DWORD PTR [ecx+20], edx

; 9500 : 		    if (prevClone) {

	cmp	DWORD PTR _prevClone$[ebp], 0
	je	SHORT $LN42@xmlDOMWrap

; 9501 : 			prevClone->next = clone;

	mov	eax, DWORD PTR _prevClone$[ebp]
	mov	ecx, DWORD PTR _clone$[ebp]
	mov	DWORD PTR [eax+24], ecx

; 9502 : 			clone->prev = prevClone;

	mov	edx, DWORD PTR _clone$[ebp]
	mov	eax, DWORD PTR _prevClone$[ebp]
	mov	DWORD PTR [edx+28], eax

; 9503 : 		    } else

	jmp	SHORT $LN43@xmlDOMWrap
$LN42@xmlDOMWrap:

; 9504 : 			parentClone->properties = (xmlAttrPtr) clone;

	mov	ecx, DWORD PTR _parentClone$[ebp]
	mov	edx, DWORD PTR _clone$[ebp]
	mov	DWORD PTR [ecx+44], edx
$LN43@xmlDOMWrap:

; 9505 : 		} else

	jmp	SHORT $LN41@xmlDOMWrap
$LN40@xmlDOMWrap:

; 9506 : 		    resultClone = clone;

	mov	eax, DWORD PTR _clone$[ebp]
	mov	DWORD PTR _resultClone$[ebp], eax
$LN41@xmlDOMWrap:

; 9507 : 		break;

	jmp	SHORT $LN4@xmlDOMWrap
$LN44@xmlDOMWrap:

; 9508 : 	    default:
; 9509 : 		/*
; 9510 : 		* TODO QUESTION: Any other nodes expected?
; 9511 : 		*/
; 9512 : 		goto internal_error;

	jmp	$internal_error$152
$LN4@xmlDOMWrap:

; 9513 : 	}
; 9514 : 
; 9515 : 	clone->type = cur->type;

	mov	ecx, DWORD PTR _clone$[ebp]
	mov	edx, DWORD PTR _cur$[ebp]
	mov	eax, DWORD PTR [edx+4]
	mov	DWORD PTR [ecx+4], eax

; 9516 : 	clone->doc = destDoc;

	mov	ecx, DWORD PTR _clone$[ebp]
	mov	edx, DWORD PTR _destDoc$[ebp]
	mov	DWORD PTR [ecx+32], edx

; 9517 : 
; 9518 : 	/*
; 9519 : 	* Clone the name of the node if any.
; 9520 : 	*/
; 9521 : 	if (cur->name == xmlStringText)

	mov	eax, DWORD PTR _cur$[ebp]
	cmp	DWORD PTR [eax+8], OFFSET _xmlStringText
	jne	SHORT $LN45@xmlDOMWrap

; 9522 : 	    clone->name = xmlStringText;

	mov	ecx, DWORD PTR _clone$[ebp]
	mov	DWORD PTR [ecx+8], OFFSET _xmlStringText
	jmp	$LN46@xmlDOMWrap
$LN45@xmlDOMWrap:

; 9523 : 	else if (cur->name == xmlStringTextNoenc)

	mov	edx, DWORD PTR _cur$[ebp]
	cmp	DWORD PTR [edx+8], OFFSET _xmlStringTextNoenc
	jne	SHORT $LN47@xmlDOMWrap

; 9524 : 	    /*
; 9525 : 	    * NOTE: Although xmlStringTextNoenc is never assigned to a node
; 9526 : 	    *   in tree.c, it might be set in Libxslt via
; 9527 : 	    *   "xsl:disable-output-escaping".
; 9528 : 	    */
; 9529 : 	    clone->name = xmlStringTextNoenc;

	mov	eax, DWORD PTR _clone$[ebp]
	mov	DWORD PTR [eax+8], OFFSET _xmlStringTextNoenc
	jmp	$LN46@xmlDOMWrap
$LN47@xmlDOMWrap:

; 9530 : 	else if (cur->name == xmlStringComment)

	mov	ecx, DWORD PTR _cur$[ebp]
	cmp	DWORD PTR [ecx+8], OFFSET _xmlStringComment
	jne	SHORT $LN49@xmlDOMWrap

; 9531 : 	    clone->name = xmlStringComment;

	mov	edx, DWORD PTR _clone$[ebp]
	mov	DWORD PTR [edx+8], OFFSET _xmlStringComment
	jmp	SHORT $LN46@xmlDOMWrap
$LN49@xmlDOMWrap:

; 9532 : 	else if (cur->name != NULL) {

	mov	eax, DWORD PTR _cur$[ebp]
	cmp	DWORD PTR [eax+8], 0
	je	SHORT $LN46@xmlDOMWrap

; 9533 : 	    DICT_CONST_COPY(cur->name, clone->name);

	mov	ecx, DWORD PTR _cur$[ebp]
	cmp	DWORD PTR [ecx+8], 0
	je	SHORT $LN46@xmlDOMWrap
	cmp	DWORD PTR _dict$[ebp], 0
	je	SHORT $LN53@xmlDOMWrap
	mov	edx, DWORD PTR _cur$[ebp]
	mov	eax, DWORD PTR [edx+8]
	push	eax
	mov	ecx, DWORD PTR _dict$[ebp]
	push	ecx
	call	_xmlDictOwns
	add	esp, 8
	test	eax, eax
	je	SHORT $LN55@xmlDOMWrap
	mov	edx, DWORD PTR _clone$[ebp]
	mov	eax, DWORD PTR _cur$[ebp]
	mov	ecx, DWORD PTR [eax+8]
	mov	DWORD PTR [edx+8], ecx
	jmp	SHORT $LN56@xmlDOMWrap
$LN55@xmlDOMWrap:
	push	-1
	mov	edx, DWORD PTR _cur$[ebp]
	mov	eax, DWORD PTR [edx+8]
	push	eax
	mov	ecx, DWORD PTR _dict$[ebp]
	push	ecx
	call	_xmlDictLookup
	add	esp, 12					; 0000000cH
	mov	edx, DWORD PTR _clone$[ebp]
	mov	DWORD PTR [edx+8], eax
$LN56@xmlDOMWrap:
	jmp	SHORT $LN46@xmlDOMWrap
$LN53@xmlDOMWrap:
	mov	eax, DWORD PTR _cur$[ebp]
	mov	ecx, DWORD PTR [eax+8]
	push	ecx
	call	_xmlStrdup
	add	esp, 4
	mov	edx, DWORD PTR _clone$[ebp]
	mov	DWORD PTR [edx+8], eax
$LN46@xmlDOMWrap:

; 9534 : 	}
; 9535 : 
; 9536 : 	switch (cur->type) {

	mov	eax, DWORD PTR _cur$[ebp]
	mov	ecx, DWORD PTR [eax+4]
	mov	DWORD PTR tv183[ebp], ecx
	mov	edx, DWORD PTR tv183[ebp]
	sub	edx, 1
	mov	DWORD PTR tv183[ebp], edx
	cmp	DWORD PTR tv183[ebp], 19		; 00000013H
	ja	$LN98@xmlDOMWrap
	mov	eax, DWORD PTR tv183[ebp]
	movzx	ecx, BYTE PTR $LN145@xmlDOMWrap[eax]
	jmp	DWORD PTR $LN151@xmlDOMWrap[ecx*4]
$LN57@xmlDOMWrap:

; 9537 : 	    case XML_XINCLUDE_START:
; 9538 : 	    case XML_XINCLUDE_END:
; 9539 : 		/*
; 9540 : 		* TODO
; 9541 : 		*/
; 9542 : 		return (-1);

	or	eax, -1
	jmp	$LN1@xmlDOMWrap
$LN58@xmlDOMWrap:

; 9543 : 	    case XML_ELEMENT_NODE:
; 9544 : 		curElem = cur;

	mov	edx, DWORD PTR _cur$[ebp]
	mov	DWORD PTR _curElem$[ebp], edx

; 9545 : 		depth++;

	mov	eax, DWORD PTR _depth$[ebp]
	add	eax, 1
	mov	DWORD PTR _depth$[ebp], eax

; 9546 : 		/*
; 9547 : 		* Namespace declarations.
; 9548 : 		*/
; 9549 : 		if (cur->nsDef != NULL) {

	mov	ecx, DWORD PTR _cur$[ebp]
	cmp	DWORD PTR [ecx+48], 0
	je	$LN59@xmlDOMWrap

; 9550 : 		    if (! parnsdone) {

	cmp	DWORD PTR _parnsdone$[ebp], 0
	jne	SHORT $LN60@xmlDOMWrap

; 9551 : 			if (destParent && (ctxt == NULL)) {

	cmp	DWORD PTR _destParent$[ebp], 0
	je	SHORT $LN61@xmlDOMWrap
	cmp	DWORD PTR _ctxt$[ebp], 0
	jne	SHORT $LN61@xmlDOMWrap

; 9552 : 			    /*
; 9553 : 			    * Gather @parent's in-scope ns-decls.
; 9554 : 			    */
; 9555 : 			    if (xmlDOMWrapNSNormGatherInScopeNs(&nsMap,
; 9556 : 				destParent) == -1)

	mov	edx, DWORD PTR _destParent$[ebp]
	push	edx
	lea	eax, DWORD PTR _nsMap$[ebp]
	push	eax
	call	_xmlDOMWrapNSNormGatherInScopeNs
	add	esp, 8
	cmp	eax, -1
	jne	SHORT $LN61@xmlDOMWrap

; 9557 : 				goto internal_error;

	jmp	$internal_error$152
$LN61@xmlDOMWrap:

; 9558 : 			}
; 9559 : 			parnsdone = 1;

	mov	DWORD PTR _parnsdone$[ebp], 1
$LN60@xmlDOMWrap:

; 9560 : 		    }
; 9561 : 		    /*
; 9562 : 		    * Clone namespace declarations.
; 9563 : 		    */
; 9564 : 		    cloneNsDefSlot = &(clone->nsDef);

	mov	ecx, DWORD PTR _clone$[ebp]
	add	ecx, 48					; 00000030H
	mov	DWORD PTR _cloneNsDefSlot$[ebp], ecx

; 9565 : 		    for (ns = cur->nsDef; ns != NULL; ns = ns->next) {

	mov	edx, DWORD PTR _cur$[ebp]
	mov	eax, DWORD PTR [edx+48]
	mov	DWORD PTR _ns$[ebp], eax
	jmp	SHORT $LN10@xmlDOMWrap
$LN8@xmlDOMWrap:
	mov	ecx, DWORD PTR _ns$[ebp]
	mov	edx, DWORD PTR [ecx]
	mov	DWORD PTR _ns$[ebp], edx
$LN10@xmlDOMWrap:
	cmp	DWORD PTR _ns$[ebp], 0
	je	$LN59@xmlDOMWrap

; 9566 : 			/*
; 9567 : 			* Create a new xmlNs.
; 9568 : 			*/
; 9569 : 			cloneNs = (xmlNsPtr) xmlMalloc(sizeof(xmlNs));

	mov	esi, esp
	push	24					; 00000018H
	call	DWORD PTR _xmlMalloc
	add	esp, 4
	cmp	esi, esp
	call	__RTC_CheckEsp
	mov	DWORD PTR _cloneNs$[ebp], eax

; 9570 : 			if (cloneNs == NULL) {

	cmp	DWORD PTR _cloneNs$[ebp], 0
	jne	SHORT $LN63@xmlDOMWrap

; 9571 : 			    xmlTreeErrMemory("xmlDOMWrapCloneNode(): "

	push	OFFSET ??_C@_0CM@EDBMOGPG@xmlDOMWrapCloneNode?$CI?$CJ?3?5allocati@
	call	_xmlTreeErrMemory
	add	esp, 4

; 9572 : 				"allocating namespace");
; 9573 : 			    return(-1);

	or	eax, -1
	jmp	$LN1@xmlDOMWrap
$LN63@xmlDOMWrap:

; 9574 : 			}
; 9575 : 			memset(cloneNs, 0, sizeof(xmlNs));

	xor	eax, eax
	mov	ecx, DWORD PTR _cloneNs$[ebp]
	mov	DWORD PTR [ecx], eax
	mov	DWORD PTR [ecx+4], eax
	mov	DWORD PTR [ecx+8], eax
	mov	DWORD PTR [ecx+12], eax
	mov	DWORD PTR [ecx+16], eax
	mov	DWORD PTR [ecx+20], eax

; 9576 : 			cloneNs->type = XML_LOCAL_NAMESPACE;

	mov	edx, DWORD PTR _cloneNs$[ebp]
	mov	DWORD PTR [edx+4], 18			; 00000012H

; 9577 : 
; 9578 : 			if (ns->href != NULL)

	mov	eax, DWORD PTR _ns$[ebp]
	cmp	DWORD PTR [eax+8], 0
	je	SHORT $LN64@xmlDOMWrap

; 9579 : 			    cloneNs->href = xmlStrdup(ns->href);

	mov	ecx, DWORD PTR _ns$[ebp]
	mov	edx, DWORD PTR [ecx+8]
	push	edx
	call	_xmlStrdup
	add	esp, 4
	mov	ecx, DWORD PTR _cloneNs$[ebp]
	mov	DWORD PTR [ecx+8], eax
$LN64@xmlDOMWrap:

; 9580 : 			if (ns->prefix != NULL)

	mov	edx, DWORD PTR _ns$[ebp]
	cmp	DWORD PTR [edx+12], 0
	je	SHORT $LN65@xmlDOMWrap

; 9581 : 			    cloneNs->prefix = xmlStrdup(ns->prefix);

	mov	eax, DWORD PTR _ns$[ebp]
	mov	ecx, DWORD PTR [eax+12]
	push	ecx
	call	_xmlStrdup
	add	esp, 4
	mov	edx, DWORD PTR _cloneNs$[ebp]
	mov	DWORD PTR [edx+12], eax
$LN65@xmlDOMWrap:

; 9582 : 
; 9583 : 			*cloneNsDefSlot = cloneNs;

	mov	eax, DWORD PTR _cloneNsDefSlot$[ebp]
	mov	ecx, DWORD PTR _cloneNs$[ebp]
	mov	DWORD PTR [eax], ecx

; 9584 : 			cloneNsDefSlot = &(cloneNs->next);

	mov	edx, DWORD PTR _cloneNs$[ebp]
	mov	DWORD PTR _cloneNsDefSlot$[ebp], edx

; 9585 : 
; 9586 : 			/*
; 9587 : 			* Note that for custom handling of ns-references,
; 9588 : 			* the ns-decls need not be stored in the ns-map,
; 9589 : 			* since they won't be referenced by node->ns.
; 9590 : 			*/
; 9591 : 			if ((ctxt == NULL) ||

	cmp	DWORD PTR _ctxt$[ebp], 0
	je	SHORT $LN67@xmlDOMWrap
	mov	eax, DWORD PTR _ctxt$[ebp]
	cmp	DWORD PTR [eax+12], 0
	jne	$LN66@xmlDOMWrap
$LN67@xmlDOMWrap:

; 9592 : 			    (ctxt->getNsForNodeFunc == NULL))
; 9593 : 			{
; 9594 : 			    /*
; 9595 : 			    * Does it shadow any ns-decl?
; 9596 : 			    */
; 9597 : 			    if (XML_NSMAP_NOTEMPTY(nsMap)) {

	cmp	DWORD PTR _nsMap$[ebp], 0
	je	SHORT $LN68@xmlDOMWrap
	mov	ecx, DWORD PTR _nsMap$[ebp]
	cmp	DWORD PTR [ecx], 0
	je	SHORT $LN68@xmlDOMWrap

; 9598 : 				XML_NSMAP_FOREACH(nsMap, mi) {

	mov	edx, DWORD PTR _nsMap$[ebp]
	mov	eax, DWORD PTR [edx]
	mov	DWORD PTR _mi$[ebp], eax
	jmp	SHORT $LN13@xmlDOMWrap
$LN11@xmlDOMWrap:
	mov	ecx, DWORD PTR _mi$[ebp]
	mov	edx, DWORD PTR [ecx]
	mov	DWORD PTR _mi$[ebp], edx
$LN13@xmlDOMWrap:
	cmp	DWORD PTR _mi$[ebp], 0
	je	SHORT $LN68@xmlDOMWrap

; 9599 : 				    if ((mi->depth >= XML_TREE_NSMAP_PARENT) &&
; 9600 : 					(mi->shadowDepth == -1) &&

	mov	eax, DWORD PTR _mi$[ebp]
	cmp	DWORD PTR [eax+20], -1
	jl	SHORT $LN69@xmlDOMWrap
	mov	ecx, DWORD PTR _mi$[ebp]
	cmp	DWORD PTR [ecx+16], -1
	jne	SHORT $LN69@xmlDOMWrap
	mov	edx, DWORD PTR _mi$[ebp]
	mov	eax, DWORD PTR [edx+12]
	mov	ecx, DWORD PTR _ns$[ebp]
	mov	edx, DWORD PTR [ecx+12]
	cmp	edx, DWORD PTR [eax+12]
	je	SHORT $LN70@xmlDOMWrap
	mov	eax, DWORD PTR _mi$[ebp]
	mov	ecx, DWORD PTR [eax+12]
	mov	edx, DWORD PTR [ecx+12]
	push	edx
	mov	eax, DWORD PTR _ns$[ebp]
	mov	ecx, DWORD PTR [eax+12]
	push	ecx
	call	_xmlStrEqual
	add	esp, 8
	test	eax, eax
	je	SHORT $LN69@xmlDOMWrap
$LN70@xmlDOMWrap:

; 9601 : 					((ns->prefix == mi->newNs->prefix) ||
; 9602 : 					xmlStrEqual(ns->prefix,
; 9603 : 					mi->newNs->prefix))) {
; 9604 : 					/*
; 9605 : 					* Mark as shadowed at the current
; 9606 : 					* depth.
; 9607 : 					*/
; 9608 : 					mi->shadowDepth = depth;

	mov	edx, DWORD PTR _mi$[ebp]
	mov	eax, DWORD PTR _depth$[ebp]
	mov	DWORD PTR [edx+16], eax
$LN69@xmlDOMWrap:

; 9609 : 				    }
; 9610 : 				}

	jmp	SHORT $LN11@xmlDOMWrap
$LN68@xmlDOMWrap:

; 9611 : 			    }
; 9612 : 			    /*
; 9613 : 			    * Push mapping.
; 9614 : 			    */
; 9615 : 			    if (xmlDOMWrapNsMapAddItem(&nsMap, -1,
; 9616 : 				ns, cloneNs, depth) == NULL)

	mov	ecx, DWORD PTR _depth$[ebp]
	push	ecx
	mov	edx, DWORD PTR _cloneNs$[ebp]
	push	edx
	mov	eax, DWORD PTR _ns$[ebp]
	push	eax
	push	-1
	lea	ecx, DWORD PTR _nsMap$[ebp]
	push	ecx
	call	_xmlDOMWrapNsMapAddItem
	add	esp, 20					; 00000014H
	test	eax, eax
	jne	SHORT $LN66@xmlDOMWrap

; 9617 : 				goto internal_error;

	jmp	$internal_error$152
$LN66@xmlDOMWrap:

; 9618 : 			}
; 9619 : 		    }

	jmp	$LN8@xmlDOMWrap
$LN59@xmlDOMWrap:

; 9620 : 		}
; 9621 : 		/* cur->ns will be processed further down. */
; 9622 : 		break;

	jmp	$LN6@xmlDOMWrap
$LN72@xmlDOMWrap:

; 9623 : 	    case XML_ATTRIBUTE_NODE:
; 9624 : 		/* IDs will be processed further down. */
; 9625 : 		/* cur->ns will be processed further down. */
; 9626 : 		break;

	jmp	$LN6@xmlDOMWrap
$LN73@xmlDOMWrap:

; 9627 : 	    case XML_TEXT_NODE:
; 9628 : 	    case XML_CDATA_SECTION_NODE:
; 9629 : 		/*
; 9630 : 		* Note that this will also cover the values of attributes.
; 9631 : 		*/
; 9632 : 		DICT_COPY(cur->content, clone->content);

	mov	edx, DWORD PTR _cur$[ebp]
	cmp	DWORD PTR [edx+40], 0
	je	SHORT $LN74@xmlDOMWrap
	cmp	DWORD PTR _dict$[ebp], 0
	je	SHORT $LN75@xmlDOMWrap
	mov	eax, DWORD PTR _cur$[ebp]
	mov	ecx, DWORD PTR [eax+40]
	push	ecx
	mov	edx, DWORD PTR _dict$[ebp]
	push	edx
	call	_xmlDictOwns
	add	esp, 8
	test	eax, eax
	je	SHORT $LN77@xmlDOMWrap
	mov	eax, DWORD PTR _clone$[ebp]
	mov	ecx, DWORD PTR _cur$[ebp]
	mov	edx, DWORD PTR [ecx+40]
	mov	DWORD PTR [eax+40], edx
	jmp	SHORT $LN78@xmlDOMWrap
$LN77@xmlDOMWrap:
	push	-1
	mov	eax, DWORD PTR _cur$[ebp]
	mov	ecx, DWORD PTR [eax+40]
	push	ecx
	mov	edx, DWORD PTR _dict$[ebp]
	push	edx
	call	_xmlDictLookup
	add	esp, 12					; 0000000cH
	mov	ecx, DWORD PTR _clone$[ebp]
	mov	DWORD PTR [ecx+40], eax
$LN78@xmlDOMWrap:
	jmp	SHORT $LN74@xmlDOMWrap
$LN75@xmlDOMWrap:
	mov	edx, DWORD PTR _cur$[ebp]
	mov	eax, DWORD PTR [edx+40]
	push	eax
	call	_xmlStrdup
	add	esp, 4
	mov	ecx, DWORD PTR _clone$[ebp]
	mov	DWORD PTR [ecx+40], eax
$LN74@xmlDOMWrap:

; 9633 : 		goto leave_node;

	jmp	$leave_node$153
$LN79@xmlDOMWrap:

; 9634 : 	    case XML_ENTITY_NODE:
; 9635 : 		/* TODO: What to do here? */
; 9636 : 		goto leave_node;

	jmp	$leave_node$153
$LN80@xmlDOMWrap:

; 9637 : 	    case XML_ENTITY_REF_NODE:
; 9638 : 		if (sourceDoc != destDoc) {

	mov	edx, DWORD PTR _sourceDoc$[ebp]
	cmp	edx, DWORD PTR _destDoc$[ebp]
	je	SHORT $LN81@xmlDOMWrap

; 9639 : 		    if ((destDoc->intSubset) || (destDoc->extSubset)) {

	mov	eax, DWORD PTR _destDoc$[ebp]
	cmp	DWORD PTR [eax+44], 0
	jne	SHORT $LN84@xmlDOMWrap
	mov	ecx, DWORD PTR _destDoc$[ebp]
	cmp	DWORD PTR [ecx+48], 0
	je	SHORT $LN83@xmlDOMWrap
$LN84@xmlDOMWrap:

; 9640 : 			xmlEntityPtr ent;
; 9641 : 			/*
; 9642 : 			* Different doc: Assign new entity-node if available.
; 9643 : 			*/
; 9644 : 			ent = xmlGetDocEntity(destDoc, cur->name);

	mov	edx, DWORD PTR _cur$[ebp]
	mov	eax, DWORD PTR [edx+8]
	push	eax
