; Listing generated by Microsoft (R) Optimizing Compiler Version 19.16.27027.1 

	TITLE	C:\Users\DAG\Documents\_Clients\CodeProject Authors Group\Windows on ARM\libxml2\libxml2-2.9.9\valid.c
	.686P
	.XMM
	include listing.inc
	.model	flat

INCLUDELIB MSVCRTD
INCLUDELIB OLDNAMES

_DATA	SEGMENT
COMM	_xmlMalloc:DWORD
COMM	_xmlMallocAtomic:DWORD
COMM	_xmlRealloc:DWORD
COMM	_xmlFree:DWORD
COMM	_xmlMemStrdup:DWORD
COMM	_xmlIsBaseCharGroup:BYTE:010H
COMM	_xmlIsCharGroup:BYTE:010H
COMM	_xmlIsCombiningGroup:BYTE:010H
COMM	_xmlIsDigitGroup:BYTE:010H
COMM	_xmlIsExtenderGroup:BYTE:010H
COMM	_xmlIsIdeographicGroup:BYTE:010H
COMM	_xmlIsPubidChar_tab:BYTE:0100H
COMM	_xmlParserMaxDepth:DWORD
COMM	_forbiddenExp:DWORD
COMM	_emptyExp:DWORD
_DATA	ENDS
msvcjmc	SEGMENT
__188180DA_corecrt_math@h DB 01H
__2CC6E67D_corecrt_stdio_config@h DB 01H
__05476D76_corecrt_wstdio@h DB 01H
__A452D4A0_stdio@h DB 01H
__4384A2D9_corecrt_memcpy_s@h DB 01H
__4E51A221_corecrt_wstring@h DB 01H
__2140C079_string@h DB 01H
__56F63275_valid@c DB 01H
msvcjmc	ENDS
PUBLIC	_xmlAddNotationDecl
PUBLIC	_xmlCopyNotationTable
PUBLIC	_xmlFreeNotationTable
PUBLIC	_xmlDumpNotationDecl
PUBLIC	_xmlDumpNotationTable
PUBLIC	_xmlNewElementContent
PUBLIC	_xmlCopyElementContent
PUBLIC	_xmlFreeElementContent
PUBLIC	_xmlNewDocElementContent
PUBLIC	_xmlCopyDocElementContent
PUBLIC	_xmlFreeDocElementContent
PUBLIC	_xmlSnprintfElementContent
PUBLIC	_xmlSprintfElementContent
PUBLIC	_xmlAddElementDecl
PUBLIC	_xmlCopyElementTable
PUBLIC	_xmlFreeElementTable
PUBLIC	_xmlDumpElementTable
PUBLIC	_xmlDumpElementDecl
PUBLIC	_xmlCreateEnumeration
PUBLIC	_xmlFreeEnumeration
PUBLIC	_xmlCopyEnumeration
PUBLIC	_xmlAddAttributeDecl
PUBLIC	_xmlCopyAttributeTable
PUBLIC	_xmlFreeAttributeTable
PUBLIC	_xmlDumpAttributeTable
PUBLIC	_xmlDumpAttributeDecl
PUBLIC	_xmlAddID
PUBLIC	_xmlFreeIDTable
PUBLIC	_xmlGetID
PUBLIC	_xmlIsID
PUBLIC	_xmlRemoveID
PUBLIC	_xmlAddRef
PUBLIC	_xmlFreeRefTable
PUBLIC	_xmlIsRef
PUBLIC	_xmlRemoveRef
PUBLIC	_xmlGetRefs
PUBLIC	_xmlNewValidCtxt
PUBLIC	_xmlFreeValidCtxt
PUBLIC	_xmlValidateRoot
PUBLIC	_xmlValidateElementDecl
PUBLIC	_xmlValidNormalizeAttributeValue
PUBLIC	_xmlValidCtxtNormalizeAttributeValue
PUBLIC	_xmlValidateAttributeDecl
PUBLIC	_xmlValidateAttributeValue
PUBLIC	_xmlValidateNotationDecl
PUBLIC	_xmlValidateDtd
PUBLIC	_xmlValidateDtdFinal
PUBLIC	_xmlValidateDocument
PUBLIC	_xmlValidateElement
PUBLIC	_xmlValidateOneElement
PUBLIC	_xmlValidateOneAttribute
PUBLIC	_xmlValidateOneNamespace
PUBLIC	_xmlValidateDocumentFinal
PUBLIC	_xmlValidateNotationUse
PUBLIC	_xmlIsMixedElement
PUBLIC	_xmlGetDtdAttrDesc
PUBLIC	_xmlGetDtdQAttrDesc
PUBLIC	_xmlGetDtdNotationDesc
PUBLIC	_xmlGetDtdQElementDesc
PUBLIC	_xmlGetDtdElementDesc
PUBLIC	_xmlValidGetPotentialChildren
PUBLIC	_xmlValidGetValidElements
PUBLIC	_xmlValidateNameValue
PUBLIC	_xmlValidateNamesValue
PUBLIC	_xmlValidateNmtokenValue
PUBLIC	_xmlValidateNmtokensValue
PUBLIC	_xmlValidBuildContentModel
PUBLIC	_xmlValidatePushElement
PUBLIC	_xmlValidatePushCData
PUBLIC	_xmlValidatePopElement
PUBLIC	__JustMyCode_Default
PUBLIC	??_C@_0BP@DJFHNAOK@Memory?5allocation?5failed?5?3?5?$CFs?6@ ; `string'
PUBLIC	??_C@_0BK@GDFDKGPJ@Memory?5allocation?5failed?6@ ; `string'
PUBLIC	??_C@_02DKCKIIND@?$CFs@				; `string'
PUBLIC	??_C@_0O@IMHFIAOC@malloc?5failed@		; `string'
PUBLIC	??_C@_0P@BHJOIPMJ@realloc?5failed@		; `string'
PUBLIC	??_C@_0CN@GEBFHDLO@Failed?5to?5build?5content?5model?5r@ ; `string'
PUBLIC	??_C@_0CL@FIAOIAHN@Found?5NULL?5content?5in?5content?5m@ ; `string'
PUBLIC	??_C@_0CF@IIHAKBAI@Found?5PCDATA?5in?5content?5model?5o@ ; `string'
PUBLIC	??_C@_0BH@INHICIGB@Building?5content?5model@	; `string'
PUBLIC	??_C@_0CE@LMBMADBI@ContentModel?5broken?5for?5element@ ; `string'
PUBLIC	??_C@_0CH@LILACHHH@Cannot?5create?5automata?5for?5elem@ ; `string'
PUBLIC	??_C@_0CM@GHMIMING@Content?5model?5of?5?$CFs?5is?5not?5dete@ ; `string'
PUBLIC	??_C@_0CH@ODCBAOPP@xmlNewElementContent?5?3?5name?5?$DN?$DN?5@ ; `string'
PUBLIC	??_C@_0CH@EHMNFIPD@xmlNewElementContent?5?3?5name?5?$CB?$DN?5@ ; `string'
PUBLIC	??_C@_0DC@GLPLFDD@Internal?3?5ELEMENT?5content?5corru@ ; `string'
PUBLIC	??_C@_01ODHLEDKK@?$CI@				; `string'
PUBLIC	??_C@_07ELDBONKP@?$CDPCDATA@			; `string'
PUBLIC	??_C@_01JLIPDDHJ@?3@				; `string'
PUBLIC	??_C@_03NKFKBEPL@?5?0?5@			; `string'
PUBLIC	??_C@_03LGOGDKEL@?5?$HM?5@			; `string'
PUBLIC	??_C@_01PKGAHCOL@?$CJ@				; `string'
PUBLIC	??_C@_01OGPIMHDM@?$DP@				; `string'
PUBLIC	??_C@_01NBENCBCI@?$CK@				; `string'
PUBLIC	??_C@_01MIFGBAGJ@?$CL@				; `string'
PUBLIC	??_C@_04IBCFJNCN@?5?4?4?4@			; `string'
PUBLIC	??_C@_0CO@BLBNCGCL@xmlAddElementDecl?3?5content?5?$CB?$DN?5N@ ; `string'
PUBLIC	??_C@_0CM@DBFKJMHA@xmlAddElementDecl?3?5content?5?$CB?$DN?5N@ ; `string'
PUBLIC	??_C@_0CO@IMMDEKCP@xmlAddElementDecl?3?5content?5?$DN?$DN?5N@ ; `string'
PUBLIC	??_C@_0DA@CFDLEHAD@xmlAddElementDecl?3?5content?5?$DN?$DN?5N@ ; `string'
PUBLIC	??_C@_0CP@HFIOBKAA@Internal?3?5ELEMENT?5decl?5corrupte@ ; `string'
PUBLIC	??_C@_0CL@IICJECDN@xmlAddElementDecl?3?5Table?5creati@ ; `string'
PUBLIC	??_C@_0BM@DLJMKEJ@Redefinition?5of?5element?5?$CFs?6@ ; `string'
PUBLIC	??_C@_0L@EMLMHHFJ@?$DM?$CBELEMENT?5@		; `string'
PUBLIC	??_C@_08HMKELAAG@?5EMPTY?$DO?6@			; `string'
PUBLIC	??_C@_06OMPGEGME@?5ANY?$DO?6@			; `string'
PUBLIC	??_C@_01CLKCMJKC@?5@				; `string'
PUBLIC	??_C@_02NEKEAGPN@?$DO?6@			; `string'
PUBLIC	??_C@_0DB@NFLGBMMC@Internal?3?5ELEMENT?5struct?5corrup@ ; `string'
PUBLIC	??_C@_0DE@EJGKGKMH@Element?5?$CFs?5has?5too?5many?5ID?5attr@ ; `string'
PUBLIC	??_C@_0DD@NLJCGIHL@Internal?3?5ATTRIBUTE?5struct?5corr@ ; `string'
PUBLIC	??_C@_0CL@IHGCOODJ@Attribute?5?$CFs?5of?5?$CFs?3?5invalid?5def@ ; `string'
PUBLIC	??_C@_0CN@LFDBMMCB@xmlAddAttributeDecl?3?5Table?5crea@ ; `string'
PUBLIC	??_C@_0CN@HJBCFPNE@Attribute?5?$CFs?5of?5element?5?$CFs?3?5alr@ ; `string'
PUBLIC	??_C@_0DD@GEPJIIIF@Element?5?$CFs?5has?5too?5may?5ID?5attri@ ; `string'
PUBLIC	??_C@_05PPEFOGKI@xmlns@				; `string'
PUBLIC	??_C@_0L@NDHICKFH@?$DM?$CBATTLIST?5@		; `string'
PUBLIC	??_C@_06CIOOFICG@?5CDATA@			; `string'
PUBLIC	??_C@_03JFNHLDJD@?5ID@				; `string'
PUBLIC	??_C@_06JJHMNMLB@?5IDREF@			; `string'
PUBLIC	??_C@_07CNGJPBFB@?5IDREFS@			; `string'
PUBLIC	??_C@_07GLIJGNMP@?5ENTITY@			; `string'
PUBLIC	??_C@_09MILPKLMO@?5ENTITIES@			; `string'
PUBLIC	??_C@_08JLMONKHB@?5NMTOKEN@			; `string'
PUBLIC	??_C@_09LGAPIBOH@?5NMTOKENS@			; `string'
PUBLIC	??_C@_02GFKOMOKH@?5?$CI@			; `string'
PUBLIC	??_C@_0M@IGKIMAHJ@?5NOTATION?5?$CI@		; `string'
PUBLIC	??_C@_0L@IEBFJPBC@?5?$CDREQUIRED@		; `string'
PUBLIC	??_C@_09GOIPIIGC@?5?$CDIMPLIED@			; `string'
PUBLIC	??_C@_07PNOBFAOP@?5?$CDFIXED@			; `string'
PUBLIC	??_C@_0DC@EJJFJDDL@Internal?3?5ATTRIBUTE?5struct?5corr@ ; `string'
PUBLIC	??_C@_0CM@PJBPJANJ@xmlAddNotationDecl?3?5Table?5creat@ ; `string'
PUBLIC	??_C@_0CI@HFJJKKEO@xmlAddNotationDecl?3?5?$CFs?5already?5@ ; `string'
PUBLIC	??_C@_0M@IOFINGOM@?$DM?$CBNOTATION?5@		; `string'
PUBLIC	??_C@_08GBBLECIH@?5PUBLIC?5@			; `string'
PUBLIC	??_C@_08PAGGLANP@?5SYSTEM?5@			; `string'
PUBLIC	??_C@_03KKJDKPMN@?5?$DO?6@			; `string'
PUBLIC	??_C@_0CC@HPFDMDEK@xmlAddID?3?5Table?5creation?5failed@ ; `string'
PUBLIC	??_C@_0BH@JKIFIOPN@ID?5?$CFs?5already?5defined?6@ ; `string'
PUBLIC	??_C@_02EGCJHIOB@id@				; `string'
PUBLIC	??_C@_03PJHHNEEI@xml@				; `string'
PUBLIC	??_C@_04MEMAJGDJ@name@				; `string'
PUBLIC	??_C@_01MCMALHOG@a@				; `string'
PUBLIC	??_C@_0CD@JKLLCBGN@xmlAddRef?3?5Table?5creation?5faile@ ; `string'
PUBLIC	??_C@_0CM@EILGCMCJ@xmlAddRef?3?5Reference?5list?5creat@ ; `string'
PUBLIC	??_C@_0CN@CLGHPEIK@xmlAddRef?3?5Reference?5list?5inser@ ; `string'
PUBLIC	??_C@_0CA@OJAJCLMD@element?5table?5allocation?5failed@ ; `string'
PUBLIC	??_C@_0BN@NONOBNKE@NOTATION?5?$CFs?5is?5not?5declared?6@ ; `string'
PUBLIC	??_C@_0DG@NHAJHAEC@ENTITY?5attribute?5?$CFs?5reference?5a@ ; `string'
PUBLIC	??_C@_0DM@CBMBENAH@ENTITY?5attribute?5?$CFs?5reference?5a@ ; `string'
PUBLIC	??_C@_0DI@MOCJGONA@ENTITIES?5attribute?5?$CFs?5reference@ ; `string'
PUBLIC	??_C@_0DO@BNHKOEGN@ENTITIES?5attribute?5?$CFs?5reference@ ; `string'
PUBLIC	??_C@_0DK@HMAANMLE@NOTATION?5attribute?5?$CFs?5reference@ ; `string'
PUBLIC	??_C@_0FG@CJEJIEOP@standalone?3?5?$CFs?5on?5?$CFs?5value?5had?5@ ; `string'
PUBLIC	??_C@_0DN@MJLCEKEK@Syntax?5of?5default?5value?5for?5att@ ; `string'
PUBLIC	??_C@_0EC@DNHDHDCI@ID?5attribute?5?$CFs?5of?5?$CFs?5is?5not?5va@ ; `string'
PUBLIC	??_C@_0EE@MLJMMKCM@Element?5?$CFs?5has?5?$CFd?5ID?5attribute?5@ ; `string'
PUBLIC	??_C@_0EE@JDKHGIAG@Element?5?$CFs?5has?5?$CFd?5ID?5attribute?5@ ; `string'
PUBLIC	??_C@_0EP@CFLHEJLO@Element?5?$CFs?5has?5ID?5attributes?5de@ ; `string'
PUBLIC	??_C@_0EL@MPNELAFE@Default?5value?5?$CC?$CFs?$CC?5for?5attribut@ ; `string'
PUBLIC	??_C@_0DB@DPGOOPFF@Definition?5of?5?$CFs?5has?5duplicate?5@ ; `string'
PUBLIC	??_C@_0DE@IDAOJGBB@Definition?5of?5?$CFs?5has?5duplicate?5@ ; `string'
PUBLIC	??_C@_0DB@HNLIHGKJ@Definition?5of?5?$CFs?5has?5duplicate?5@ ; `string'
PUBLIC	??_C@_0DE@PAODFKFF@Definition?5of?5?$CFs?5has?5duplicate?5@ ; `string'
PUBLIC	??_C@_0CP@IDGJHJLH@No?5declaration?5for?5attribute?5?$CFs@ ; `string'
PUBLIC	??_C@_0DF@PPLCGADM@Syntax?5of?5value?5for?5attribute?5?$CF@ ; `string'
PUBLIC	??_C@_0DN@BPCEOAOB@Value?5for?5attribute?5?$CFs?5of?5?$CFs?5is@ ; `string'
PUBLIC	??_C@_0DO@HAIKKCN@Value?5?$CC?$CFs?$CC?5for?5attribute?5?$CFs?5of?5@ ; `string'
PUBLIC	??_C@_0EJ@LLDEHINL@Value?5?$CC?$CFs?$CC?5for?5attribute?5?$CFs?5of?5@ ; `string'
PUBLIC	??_C@_0ED@GMECILPN@Value?5?$CC?$CFs?$CC?5for?5attribute?5?$CFs?5of?5@ ; `string'
PUBLIC	??_C@_0CL@KKBPHLEC@Value?5for?5attribute?5?$CFs?5of?5?$CFs?5mu@ ; `string'
PUBLIC	??_C@_0BF@INLCBMIM@Validating?5namespace@	; `string'
PUBLIC	??_C@_0DF@GJIDMPBO@No?5declaration?5for?5attribute?5xm@ ; `string'
PUBLIC	??_C@_0DC@FPONLEAN@No?5declaration?5for?5attribute?5xm@ ; `string'
PUBLIC	??_C@_0DL@CBOACJEL@Syntax?5of?5value?5for?5attribute?5x@ ; `string'
PUBLIC	??_C@_0DI@HAHGLIKC@Syntax?5of?5value?5for?5attribute?5x@ ; `string'
PUBLIC	??_C@_0ED@KAGANNGH@Value?5for?5attribute?5xmlns?3?$CFs?5of@ ; `string'
PUBLIC	??_C@_0EA@HGOHDHBG@Value?5for?5attribute?5xmlns?5of?5?$CFs@ ; `string'
PUBLIC	??_C@_0EE@ENPHOLHF@Value?5?$CC?$CFs?$CC?5for?5attribute?5xmlns?3@ ; `string'
PUBLIC	??_C@_0EB@IKNIAELF@Value?5?$CC?$CFs?$CC?5for?5attribute?5xmlns?5@ ; `string'
PUBLIC	??_C@_0EP@PJCDPKEK@Value?5?$CC?$CFs?$CC?5for?5attribute?5xmlns?3@ ; `string'
PUBLIC	??_C@_0EM@LDEIIDJK@Value?5?$CC?$CFs?$CC?5for?5attribute?5xmlns?5@ ; `string'
PUBLIC	??_C@_0EJ@PDIHKDMN@Value?5?$CC?$CFs?$CC?5for?5attribute?5xmlns?3@ ; `string'
PUBLIC	??_C@_0EG@CDCEFKCM@Value?5?$CC?$CFs?$CC?5for?5attribute?5xmlns?5@ ; `string'
PUBLIC	??_C@_0DB@DPJFCMMB@Value?5for?5attribute?5xmlns?3?$CFs?5of@ ; `string'
PUBLIC	??_C@_0CO@DNGFHLPE@Value?5for?5attribute?5xmlns?5of?5?$CFs@ ; `string'
PUBLIC	??_C@_05MLPNBPGH@CDATA@				; `string'
PUBLIC	??_C@_03BBKEAIF@?$DP?$DP?$DP@			; `string'
PUBLIC	??_C@_0EC@IAKGOMPC@Element?5?$CFs?5content?5does?5not?5fol@ ; `string'
PUBLIC	??_C@_0DP@CBELDNAH@Element?5content?5does?5not?5follow@ ; `string'
PUBLIC	??_C@_0CM@BLHDJNNL@Element?5?$CFs?5content?5does?5not?5fol@ ; `string'
PUBLIC	??_C@_0CJ@JFPHFAJJ@Element?5content?5does?5not?5follow@ ; `string'
PUBLIC	??_C@_0CC@LMJFIFCG@Internal?3?5MIXED?5struct?5corrupte@ ; `string'
PUBLIC	??_C@_0BP@CMBGNCIM@No?5declaration?5for?5element?5?$CFs?6@ ; `string'
PUBLIC	??_C@_0DE@KLKCMFPH@Element?5?$CFs?5was?5declared?5EMPTY?5t@ ; `string'
PUBLIC	??_C@_0DN@CFJCCMLK@Element?5?$CFs?5was?5declared?5?$CDPCDATA@ ; `string'
PUBLIC	??_C@_0DM@IPIENEI@Element?5?$CFs?5is?5not?5declared?5in?5?$CF@ ; `string'
PUBLIC	??_C@_0DK@BGIDCAIC@Element?5?$CFs?5content?5does?5not?5fol@ ; `string'
PUBLIC	??_C@_0DO@HNMIGKJO@Element?5?$CFs?5content?5does?5not?5fol@ ; `string'
PUBLIC	??_C@_0EC@JDBIOCJK@Element?5?$CFs?5content?5does?5not?5fol@ ; `string'
PUBLIC	??_C@_0CA@EPFCDFAG@Attribute?5element?5not?5expected?6@ ; `string'
PUBLIC	??_C@_0BN@JALMDBBB@Text?5element?5has?5children?5?$CB?6@ ; `string'
PUBLIC	??_C@_0BO@NIGEHALL@Text?5element?5has?5namespace?5?$CB?6@ ; `string'
PUBLIC	??_C@_0BP@DPPADDEP@Text?5element?5has?5no?5content?5?$CB?6@ ; `string'
PUBLIC	??_C@_0BN@CJFFIPOP@Entity?5element?5not?5expected?6@ ; `string'
PUBLIC	??_C@_0BP@FEDJMKLA@Notation?5element?5not?5expected?6@ ; `string'
PUBLIC	??_C@_0BP@LPODOPI@Document?5element?5not?5expected?6@ ; `string'
PUBLIC	??_C@_0BM@DIBMDMIN@HTML?5Document?5not?5expected?6@ ; `string'
PUBLIC	??_C@_0BG@CJHPKHPI@unknown?5element?5type?6@	; `string'
PUBLIC	??_C@_0EM@LHPMEFBO@standalone?3?5?$CFs?5declared?5in?5the?5@ ; `string'
PUBLIC	??_C@_0CI@KOGIECMM@Element?5?$CFs?5does?5not?5carry?5attri@ ; `string'
PUBLIC	??_C@_0CL@IDAGHCGO@Element?5?$CFs?5does?5not?5carry?5attri@ ; `string'
PUBLIC	??_C@_0DD@KAGCOGBM@Element?5?$CFs?5required?5attribute?5?$CF@ ; `string'
PUBLIC	??_C@_0DK@IGLOKJLK@Element?5?$CFs?5required?5attribute?5?$CF@ ; `string'
PUBLIC	??_C@_0EI@BIBADMEK@Element?5?$CFs?5namespace?5name?5for?5d@ ; `string'
PUBLIC	??_C@_0DJ@DDNBGMLL@Element?5?$CFs?5namespace?5name?5for?5?$CF@ ; `string'
PUBLIC	??_C@_0BB@JNDFICHA@no?5root?5element?6@		; `string'
PUBLIC	??_C@_04DBLPJNAF@HTML@				; `string'
PUBLIC	??_C@_04PNIFHPHN@html@				; `string'
PUBLIC	??_C@_0CO@PMJDAMAF@root?5and?5DTD?5name?5do?5not?5match?5@ ; `string'
PUBLIC	??_C@_0DE@GLBIFDCC@attribute?5?$CFs?5line?5?$CFd?5references@ ; `string'
PUBLIC	??_C@_0DC@HOBCELJH@IDREF?5attribute?5?$CFs?5references?5a@ ; `string'
PUBLIC	??_C@_0N@BBOKCKMC@IDREFS?5split@		; `string'
PUBLIC	??_C@_0DD@JBMPIAIH@IDREFS?5attribute?5?$CFs?5references?5@ ; `string'
PUBLIC	??_C@_0CH@PKJJCFEM@xmlValidateDocumentFinal?3?5doc?5?$DN@ ; `string'
PUBLIC	??_C@_0DC@EEKBOKHB@xmlValidateAttributeCallback?$CI?$CFs@ ; `string'
PUBLIC	??_C@_0DC@CHBKELEG@attribute?5?$CFs?3?5could?5not?5find?5de@ ; `string'
PUBLIC	??_C@_0DF@KBMCJLCB@NOTATION?5attribute?5?$CFs?5declared?5@ ; `string'
PUBLIC	??_C@_0P@GBEHLCJD@no?5DTD?5found?$CB?6@		; `string'
PUBLIC	??_C@_0CO@FGGICOAP@Could?5not?5build?5URI?5for?5externa@ ; `string'
PUBLIC	??_C@_0CJ@BNOHLKCI@Could?5not?5load?5the?5external?5sub@ ; `string'
PUBLIC	??_C@_09LMMMMLKM@?$DM?$CBdummy?$DP?$DO@		; `string'
EXTRN	_xmlStrdup:PROC
EXTRN	_xmlStrndup:PROC
EXTRN	_xmlStrncmp:PROC
EXTRN	_xmlStrEqual:PROC
EXTRN	_xmlStrlen:PROC
EXTRN	_xmlDictLookup:PROC
EXTRN	_xmlDictOwns:PROC
EXTRN	_xmlRegFreeRegexp:PROC
EXTRN	_xmlRegexpIsDeterminist:PROC
EXTRN	_xmlRegNewExecCtxt:PROC
EXTRN	_xmlRegFreeExecCtxt:PROC
EXTRN	_xmlRegExecPushString:PROC
EXTRN	_xmlBuildQName:PROC
EXTRN	_xmlSplitQName2:PROC
EXTRN	_xmlSplitQName3:PROC
EXTRN	_xmlNewDocNode:PROC
EXTRN	_xmlGetLineNo:PROC
EXTRN	_xmlDocGetRootElement:PROC
EXTRN	_xmlIsBlankNode:PROC
EXTRN	_xmlUnlinkNode:PROC
EXTRN	_xmlFreeNode:PROC
EXTRN	_xmlNodeListGetString:PROC
EXTRN	_xmlBufferWriteCHAR:PROC
EXTRN	_xmlBufferWriteChar:PROC
EXTRN	_xmlBufferWriteQuotedString:PROC
EXTRN	_xmlHashCreateDict:PROC
EXTRN	_xmlHashFree:PROC
EXTRN	_xmlHashAddEntry:PROC
EXTRN	_xmlHashUpdateEntry:PROC
EXTRN	_xmlHashAddEntry2:PROC
EXTRN	_xmlHashAddEntry3:PROC
EXTRN	_xmlHashRemoveEntry:PROC
EXTRN	_xmlHashRemoveEntry2:PROC
EXTRN	_xmlHashLookup:PROC
EXTRN	_xmlHashLookup2:PROC
EXTRN	_xmlHashLookup3:PROC
EXTRN	_xmlHashCopy:PROC
EXTRN	_xmlHashScan:PROC
EXTRN	_xmlHashScan3:PROC
EXTRN	___xmlRaiseError:PROC
EXTRN	_xmlListCreate:PROC
EXTRN	_xmlListDelete:PROC
EXTRN	_xmlListAppend:PROC
EXTRN	_xmlListRemoveFirst:PROC
EXTRN	_xmlListEmpty:PROC
EXTRN	_xmlListWalk:PROC
EXTRN	_xmlLinkGetData:PROC
EXTRN	_xmlNewAutomata:PROC
EXTRN	_xmlFreeAutomata:PROC
EXTRN	_xmlAutomataGetInitState:PROC
EXTRN	_xmlAutomataSetFinalState:PROC
EXTRN	_xmlAutomataNewState:PROC
EXTRN	_xmlAutomataNewTransition:PROC
EXTRN	_xmlAutomataNewEpsilon:PROC
EXTRN	_xmlAutomataCompile:PROC
EXTRN	_xmlGetDocEntity:PROC
EXTRN	_xmlParseDTD:PROC
EXTRN	_xmlBuildURI:PROC
EXTRN	_xmlCharInRange:PROC
EXTRN	_xmlStringCurrentChar:PROC
EXTRN	@_RTC_CheckStackVars@8:PROC
EXTRN	@__CheckForDebuggerJustMyCode@4:PROC
EXTRN	__RTC_CheckEsp:PROC
EXTRN	__RTC_InitBase:PROC
EXTRN	__RTC_Shutdown:PROC
EXTRN	__chkstk:PROC
EXTRN	_memset:PROC
;	COMDAT rtc$TMZ
rtc$TMZ	SEGMENT
__RTC_Shutdown.rtc$TMZ DD FLAT:__RTC_Shutdown
rtc$TMZ	ENDS
;	COMDAT rtc$IMZ
rtc$IMZ	SEGMENT
__RTC_InitBase.rtc$IMZ DD FLAT:__RTC_InitBase
rtc$IMZ	ENDS
;	COMDAT ??_C@_09LMMMMLKM@?$DM?$CBdummy?$DP?$DO@
CONST	SEGMENT
??_C@_09LMMMMLKM@?$DM?$CBdummy?$DP?$DO@ DB '<!dummy?>', 00H ; `string'
CONST	ENDS
;	COMDAT ??_C@_0CJ@BNOHLKCI@Could?5not?5load?5the?5external?5sub@
CONST	SEGMENT
??_C@_0CJ@BNOHLKCI@Could?5not?5load?5the?5external?5sub@ DB 'Could not lo'
	DB	'ad the external subset "%s"', 0aH, 00H	; `string'
CONST	ENDS
;	COMDAT ??_C@_0CO@FGGICOAP@Could?5not?5build?5URI?5for?5externa@
CONST	SEGMENT
??_C@_0CO@FGGICOAP@Could?5not?5build?5URI?5for?5externa@ DB 'Could not bu'
	DB	'ild URI for external subset "%s"', 0aH, 00H	; `string'
CONST	ENDS
;	COMDAT ??_C@_0P@GBEHLCJD@no?5DTD?5found?$CB?6@
CONST	SEGMENT
??_C@_0P@GBEHLCJD@no?5DTD?5found?$CB?6@ DB 'no DTD found!', 0aH, 00H ; `string'
CONST	ENDS
;	COMDAT ??_C@_0DF@KBMCJLCB@NOTATION?5attribute?5?$CFs?5declared?5@
CONST	SEGMENT
??_C@_0DF@KBMCJLCB@NOTATION?5attribute?5?$CFs?5declared?5@ DB 'NOTATION a'
	DB	'ttribute %s declared for EMPTY element %s', 0aH, 00H ; `string'
CONST	ENDS
;	COMDAT ??_C@_0DC@CHBKELEG@attribute?5?$CFs?3?5could?5not?5find?5de@
CONST	SEGMENT
??_C@_0DC@CHBKELEG@attribute?5?$CFs?3?5could?5not?5find?5de@ DB 'attribut'
	DB	'e %s: could not find decl for element %s', 0aH, 00H ; `string'
CONST	ENDS
;	COMDAT ??_C@_0DC@EEKBOKHB@xmlValidateAttributeCallback?$CI?$CFs@
CONST	SEGMENT
??_C@_0DC@EEKBOKHB@xmlValidateAttributeCallback?$CI?$CFs@ DB 'xmlValidate'
	DB	'AttributeCallback(%s): internal error', 0aH, 00H ; `string'
CONST	ENDS
;	COMDAT ??_C@_0CH@PKJJCFEM@xmlValidateDocumentFinal?3?5doc?5?$DN@
CONST	SEGMENT
??_C@_0CH@PKJJCFEM@xmlValidateDocumentFinal?3?5doc?5?$DN@ DB 'xmlValidate'
	DB	'DocumentFinal: doc == NULL', 0aH, 00H	; `string'
CONST	ENDS
;	COMDAT ??_C@_0DD@JBMPIAIH@IDREFS?5attribute?5?$CFs?5references?5@
CONST	SEGMENT
??_C@_0DD@JBMPIAIH@IDREFS?5attribute?5?$CFs?5references?5@ DB 'IDREFS att'
	DB	'ribute %s references an unknown ID "%s"', 0aH, 00H ; `string'
CONST	ENDS
;	COMDAT ??_C@_0N@BBOKCKMC@IDREFS?5split@
CONST	SEGMENT
??_C@_0N@BBOKCKMC@IDREFS?5split@ DB 'IDREFS split', 00H	; `string'
CONST	ENDS
;	COMDAT ??_C@_0DC@HOBCELJH@IDREF?5attribute?5?$CFs?5references?5a@
CONST	SEGMENT
??_C@_0DC@HOBCELJH@IDREF?5attribute?5?$CFs?5references?5a@ DB 'IDREF attr'
	DB	'ibute %s references an unknown ID "%s"', 0aH, 00H ; `string'
CONST	ENDS
;	COMDAT ??_C@_0DE@GLBIFDCC@attribute?5?$CFs?5line?5?$CFd?5references@
CONST	SEGMENT
??_C@_0DE@GLBIFDCC@attribute?5?$CFs?5line?5?$CFd?5references@ DB 'attribu'
	DB	'te %s line %d references an unknown ID "%s"', 0aH, 00H ; `string'
CONST	ENDS
;	COMDAT ??_C@_0CO@PMJDAMAF@root?5and?5DTD?5name?5do?5not?5match?5@
CONST	SEGMENT
??_C@_0CO@PMJDAMAF@root?5and?5DTD?5name?5do?5not?5match?5@ DB 'root and D'
	DB	'TD name do not match ''%s'' and ''%s''', 0aH, 00H ; `string'
CONST	ENDS
;	COMDAT ??_C@_04PNIFHPHN@html@
CONST	SEGMENT
??_C@_04PNIFHPHN@html@ DB 'html', 00H			; `string'
CONST	ENDS
;	COMDAT ??_C@_04DBLPJNAF@HTML@
CONST	SEGMENT
??_C@_04DBLPJNAF@HTML@ DB 'HTML', 00H			; `string'
CONST	ENDS
;	COMDAT ??_C@_0BB@JNDFICHA@no?5root?5element?6@
CONST	SEGMENT
??_C@_0BB@JNDFICHA@no?5root?5element?6@ DB 'no root element', 0aH, 00H ; `string'
CONST	ENDS
;	COMDAT ??_C@_0DJ@DDNBGMLL@Element?5?$CFs?5namespace?5name?5for?5?$CF@
CONST	SEGMENT
??_C@_0DJ@DDNBGMLL@Element?5?$CFs?5namespace?5name?5for?5?$CF@ DB 'Elemen'
	DB	't %s namespace name for %s does not match the DTD', 0aH, 00H ; `string'
CONST	ENDS
;	COMDAT ??_C@_0EI@BIBADMEK@Element?5?$CFs?5namespace?5name?5for?5d@
CONST	SEGMENT
??_C@_0EI@BIBADMEK@Element?5?$CFs?5namespace?5name?5for?5d@ DB 'Element %'
	DB	's namespace name for default namespace does not match the DTD'
	DB	0aH, 00H					; `string'
CONST	ENDS
;	COMDAT ??_C@_0DK@IGLOKJLK@Element?5?$CFs?5required?5attribute?5?$CF@
CONST	SEGMENT
??_C@_0DK@IGLOKJLK@Element?5?$CFs?5required?5attribute?5?$CF@ DB 'Element'
	DB	' %s required attribute %s:%s has different prefix', 0aH, 00H ; `string'
CONST	ENDS
;	COMDAT ??_C@_0DD@KAGCOGBM@Element?5?$CFs?5required?5attribute?5?$CF@
CONST	SEGMENT
??_C@_0DD@KAGCOGBM@Element?5?$CFs?5required?5attribute?5?$CF@ DB 'Element'
	DB	' %s required attribute %s:%s has no prefix', 0aH, 00H ; `string'
CONST	ENDS
;	COMDAT ??_C@_0CL@IDAGHCGO@Element?5?$CFs?5does?5not?5carry?5attri@
CONST	SEGMENT
??_C@_0CL@IDAGHCGO@Element?5?$CFs?5does?5not?5carry?5attri@ DB 'Element %'
	DB	's does not carry attribute %s:%s', 0aH, 00H	; `string'
CONST	ENDS
;	COMDAT ??_C@_0CI@KOGIECMM@Element?5?$CFs?5does?5not?5carry?5attri@
CONST	SEGMENT
??_C@_0CI@KOGIECMM@Element?5?$CFs?5does?5not?5carry?5attri@ DB 'Element %'
	DB	's does not carry attribute %s', 0aH, 00H	; `string'
CONST	ENDS
;	COMDAT ??_C@_0EM@LHPMEFBO@standalone?3?5?$CFs?5declared?5in?5the?5@
CONST	SEGMENT
??_C@_0EM@LHPMEFBO@standalone?3?5?$CFs?5declared?5in?5the?5@ DB 'standalo'
	DB	'ne: %s declared in the external subset contains white spaces '
	DB	'nodes', 0aH, 00H				; `string'
CONST	ENDS
;	COMDAT ??_C@_0BG@CJHPKHPI@unknown?5element?5type?6@
CONST	SEGMENT
??_C@_0BG@CJHPKHPI@unknown?5element?5type?6@ DB 'unknown element type', 0aH
	DB	00H						; `string'
CONST	ENDS
;	COMDAT ??_C@_0BM@DIBMDMIN@HTML?5Document?5not?5expected?6@
CONST	SEGMENT
??_C@_0BM@DIBMDMIN@HTML?5Document?5not?5expected?6@ DB 'HTML Document not'
	DB	' expected', 0aH, 00H			; `string'
CONST	ENDS
;	COMDAT ??_C@_0BP@LPODOPI@Document?5element?5not?5expected?6@
CONST	SEGMENT
??_C@_0BP@LPODOPI@Document?5element?5not?5expected?6@ DB 'Document elemen'
	DB	't not expected', 0aH, 00H			; `string'
CONST	ENDS
;	COMDAT ??_C@_0BP@FEDJMKLA@Notation?5element?5not?5expected?6@
CONST	SEGMENT
??_C@_0BP@FEDJMKLA@Notation?5element?5not?5expected?6@ DB 'Notation eleme'
	DB	'nt not expected', 0aH, 00H			; `string'
CONST	ENDS
;	COMDAT ??_C@_0BN@CJFFIPOP@Entity?5element?5not?5expected?6@
CONST	SEGMENT
??_C@_0BN@CJFFIPOP@Entity?5element?5not?5expected?6@ DB 'Entity element n'
	DB	'ot expected', 0aH, 00H			; `string'
CONST	ENDS
;	COMDAT ??_C@_0BP@DPPADDEP@Text?5element?5has?5no?5content?5?$CB?6@
CONST	SEGMENT
??_C@_0BP@DPPADDEP@Text?5element?5has?5no?5content?5?$CB?6@ DB 'Text elem'
	DB	'ent has no content !', 0aH, 00H		; `string'
CONST	ENDS
;	COMDAT ??_C@_0BO@NIGEHALL@Text?5element?5has?5namespace?5?$CB?6@
CONST	SEGMENT
??_C@_0BO@NIGEHALL@Text?5element?5has?5namespace?5?$CB?6@ DB 'Text elemen'
	DB	't has namespace !', 0aH, 00H		; `string'
CONST	ENDS
;	COMDAT ??_C@_0BN@JALMDBBB@Text?5element?5has?5children?5?$CB?6@
CONST	SEGMENT
??_C@_0BN@JALMDBBB@Text?5element?5has?5children?5?$CB?6@ DB 'Text element'
	DB	' has children !', 0aH, 00H			; `string'
CONST	ENDS
;	COMDAT ??_C@_0CA@EPFCDFAG@Attribute?5element?5not?5expected?6@
CONST	SEGMENT
??_C@_0CA@EPFCDFAG@Attribute?5element?5not?5expected?6@ DB 'Attribute ele'
	DB	'ment not expected', 0aH, 00H		; `string'
CONST	ENDS
;	COMDAT ??_C@_0EC@JDBIOCJK@Element?5?$CFs?5content?5does?5not?5fol@
CONST	SEGMENT
??_C@_0EC@JDBIOCJK@Element?5?$CFs?5content?5does?5not?5fol@ DB 'Element %'
	DB	's content does not follow the DTD, Expecting more child', 0aH
	DB	00H						; `string'
CONST	ENDS
;	COMDAT ??_C@_0DO@HNMIGKJO@Element?5?$CFs?5content?5does?5not?5fol@
CONST	SEGMENT
??_C@_0DO@HNMIGKJO@Element?5?$CFs?5content?5does?5not?5fol@ DB 'Element %'
	DB	's content does not follow the DTD, Text not allowed', 0aH, 00H ; `string'
CONST	ENDS
;	COMDAT ??_C@_0DK@BGIDCAIC@Element?5?$CFs?5content?5does?5not?5fol@
CONST	SEGMENT
??_C@_0DK@BGIDCAIC@Element?5?$CFs?5content?5does?5not?5fol@ DB 'Element %'
	DB	's content does not follow the DTD, Misplaced %s', 0aH, 00H ; `string'
CONST	ENDS
;	COMDAT ??_C@_0DM@IPIENEI@Element?5?$CFs?5is?5not?5declared?5in?5?$CF@
CONST	SEGMENT
??_C@_0DM@IPIENEI@Element?5?$CFs?5is?5not?5declared?5in?5?$CF@ DB 'Elemen'
	DB	't %s is not declared in %s list of possible children', 0aH, 00H ; `string'
CONST	ENDS
;	COMDAT ??_C@_0DN@CFJCCMLK@Element?5?$CFs?5was?5declared?5?$CDPCDATA@
CONST	SEGMENT
??_C@_0DN@CFJCCMLK@Element?5?$CFs?5was?5declared?5?$CDPCDATA@ DB 'Element'
	DB	' %s was declared #PCDATA but contains non text nodes', 0aH, 00H ; `string'
CONST	ENDS
;	COMDAT ??_C@_0DE@KLKCMFPH@Element?5?$CFs?5was?5declared?5EMPTY?5t@
CONST	SEGMENT
??_C@_0DE@KLKCMFPH@Element?5?$CFs?5was?5declared?5EMPTY?5t@ DB 'Element %'
	DB	's was declared EMPTY this one has content', 0aH, 00H ; `string'
CONST	ENDS
;	COMDAT ??_C@_0BP@CMBGNCIM@No?5declaration?5for?5element?5?$CFs?6@
CONST	SEGMENT
??_C@_0BP@CMBGNCIM@No?5declaration?5for?5element?5?$CFs?6@ DB 'No declara'
	DB	'tion for element %s', 0aH, 00H		; `string'
CONST	ENDS
;	COMDAT ??_C@_0CC@LMJFIFCG@Internal?3?5MIXED?5struct?5corrupte@
CONST	SEGMENT
??_C@_0CC@LMJFIFCG@Internal?3?5MIXED?5struct?5corrupte@ DB 'Internal: MIX'
	DB	'ED struct corrupted', 0aH, 00H		; `string'
CONST	ENDS
;	COMDAT ??_C@_0CJ@JFPHFAJJ@Element?5content?5does?5not?5follow@
CONST	SEGMENT
??_C@_0CJ@JFPHFAJJ@Element?5content?5does?5not?5follow@ DB 'Element conte'
	DB	'nt does not follow the DTD', 0aH, 00H	; `string'
CONST	ENDS
;	COMDAT ??_C@_0CM@BLHDJNNL@Element?5?$CFs?5content?5does?5not?5fol@
CONST	SEGMENT
??_C@_0CM@BLHDJNNL@Element?5?$CFs?5content?5does?5not?5fol@ DB 'Element %'
	DB	's content does not follow the DTD', 0aH, 00H ; `string'
CONST	ENDS
;	COMDAT ??_C@_0DP@CBELDNAH@Element?5content?5does?5not?5follow@
CONST	SEGMENT
??_C@_0DP@CBELDNAH@Element?5content?5does?5not?5follow@ DB 'Element conte'
	DB	'nt does not follow the DTD, expecting %s, got %s', 0aH, 00H ; `string'
CONST	ENDS
;	COMDAT ??_C@_0EC@IAKGOMPC@Element?5?$CFs?5content?5does?5not?5fol@
CONST	SEGMENT
??_C@_0EC@IAKGOMPC@Element?5?$CFs?5content?5does?5not?5fol@ DB 'Element %'
	DB	's content does not follow the DTD, expecting %s, got %s', 0aH
	DB	00H						; `string'
CONST	ENDS
;	COMDAT ??_C@_03BBKEAIF@?$DP?$DP?$DP@
CONST	SEGMENT
??_C@_03BBKEAIF@?$DP?$DP?$DP@ DB '???', 00H		; `string'
CONST	ENDS
;	COMDAT ??_C@_05MLPNBPGH@CDATA@
CONST	SEGMENT
??_C@_05MLPNBPGH@CDATA@ DB 'CDATA', 00H			; `string'
CONST	ENDS
;	COMDAT ??_C@_0CO@DNGFHLPE@Value?5for?5attribute?5xmlns?5of?5?$CFs@
CONST	SEGMENT
??_C@_0CO@DNGFHLPE@Value?5for?5attribute?5xmlns?5of?5?$CFs@ DB 'Value for'
	DB	' attribute xmlns of %s must be "%s"', 0aH, 00H ; `string'
CONST	ENDS
;	COMDAT ??_C@_0DB@DPJFCMMB@Value?5for?5attribute?5xmlns?3?$CFs?5of@
CONST	SEGMENT
??_C@_0DB@DPJFCMMB@Value?5for?5attribute?5xmlns?3?$CFs?5of@ DB 'Value for'
	DB	' attribute xmlns:%s of %s must be "%s"', 0aH, 00H ; `string'
CONST	ENDS
;	COMDAT ??_C@_0EG@CDCEFKCM@Value?5?$CC?$CFs?$CC?5for?5attribute?5xmlns?5@
CONST	SEGMENT
??_C@_0EG@CDCEFKCM@Value?5?$CC?$CFs?$CC?5for?5attribute?5xmlns?5@ DB 'Val'
	DB	'ue "%s" for attribute xmlns of %s is not among the enumerated'
	DB	' set', 0aH, 00H				; `string'
CONST	ENDS
;	COMDAT ??_C@_0EJ@PDIHKDMN@Value?5?$CC?$CFs?$CC?5for?5attribute?5xmlns?3@
CONST	SEGMENT
??_C@_0EJ@PDIHKDMN@Value?5?$CC?$CFs?$CC?5for?5attribute?5xmlns?3@ DB 'Val'
	DB	'ue "%s" for attribute xmlns:%s of %s is not among the enumera'
	DB	'ted set', 0aH, 00H				; `string'
CONST	ENDS
;	COMDAT ??_C@_0EM@LDEIIDJK@Value?5?$CC?$CFs?$CC?5for?5attribute?5xmlns?5@
CONST	SEGMENT
??_C@_0EM@LDEIIDJK@Value?5?$CC?$CFs?$CC?5for?5attribute?5xmlns?5@ DB 'Val'
	DB	'ue "%s" for attribute xmlns of %s is not among the enumerated'
	DB	' notations', 0aH, 00H			; `string'
CONST	ENDS
;	COMDAT ??_C@_0EP@PJCDPKEK@Value?5?$CC?$CFs?$CC?5for?5attribute?5xmlns?3@
CONST	SEGMENT
??_C@_0EP@PJCDPKEK@Value?5?$CC?$CFs?$CC?5for?5attribute?5xmlns?3@ DB 'Val'
	DB	'ue "%s" for attribute xmlns:%s of %s is not among the enumera'
	DB	'ted notations', 0aH, 00H			; `string'
CONST	ENDS
;	COMDAT ??_C@_0EB@IKNIAELF@Value?5?$CC?$CFs?$CC?5for?5attribute?5xmlns?5@
CONST	SEGMENT
??_C@_0EB@IKNIAELF@Value?5?$CC?$CFs?$CC?5for?5attribute?5xmlns?5@ DB 'Val'
	DB	'ue "%s" for attribute xmlns of %s is not a declared Notation', 0aH
	DB	00H						; `string'
CONST	ENDS
;	COMDAT ??_C@_0EE@ENPHOLHF@Value?5?$CC?$CFs?$CC?5for?5attribute?5xmlns?3@
CONST	SEGMENT
??_C@_0EE@ENPHOLHF@Value?5?$CC?$CFs?$CC?5for?5attribute?5xmlns?3@ DB 'Val'
	DB	'ue "%s" for attribute xmlns:%s of %s is not a declared Notati'
	DB	'on', 0aH, 00H				; `string'
CONST	ENDS
;	COMDAT ??_C@_0EA@HGOHDHBG@Value?5for?5attribute?5xmlns?5of?5?$CFs@
CONST	SEGMENT
??_C@_0EA@HGOHDHBG@Value?5for?5attribute?5xmlns?5of?5?$CFs@ DB 'Value for'
	DB	' attribute xmlns of %s is different from default "%s"', 0aH, 00H ; `string'
CONST	ENDS
;	COMDAT ??_C@_0ED@KAGANNGH@Value?5for?5attribute?5xmlns?3?$CFs?5of@
CONST	SEGMENT
??_C@_0ED@KAGANNGH@Value?5for?5attribute?5xmlns?3?$CFs?5of@ DB 'Value for'
	DB	' attribute xmlns:%s of %s is different from default "%s"', 0aH
	DB	00H						; `string'
CONST	ENDS
;	COMDAT ??_C@_0DI@HAHGLIKC@Syntax?5of?5value?5for?5attribute?5x@
CONST	SEGMENT
??_C@_0DI@HAHGLIKC@Syntax?5of?5value?5for?5attribute?5x@ DB 'Syntax of va'
	DB	'lue for attribute xmlns of %s is not valid', 0aH, 00H ; `string'
CONST	ENDS
;	COMDAT ??_C@_0DL@CBOACJEL@Syntax?5of?5value?5for?5attribute?5x@
CONST	SEGMENT
??_C@_0DL@CBOACJEL@Syntax?5of?5value?5for?5attribute?5x@ DB 'Syntax of va'
	DB	'lue for attribute xmlns:%s of %s is not valid', 0aH, 00H ; `string'
CONST	ENDS
;	COMDAT ??_C@_0DC@FPONLEAN@No?5declaration?5for?5attribute?5xm@
CONST	SEGMENT
??_C@_0DC@FPONLEAN@No?5declaration?5for?5attribute?5xm@ DB 'No declaratio'
	DB	'n for attribute xmlns of element %s', 0aH, 00H ; `string'
CONST	ENDS
;	COMDAT ??_C@_0DF@GJIDMPBO@No?5declaration?5for?5attribute?5xm@
CONST	SEGMENT
??_C@_0DF@GJIDMPBO@No?5declaration?5for?5attribute?5xm@ DB 'No declaratio'
	DB	'n for attribute xmlns:%s of element %s', 0aH, 00H ; `string'
CONST	ENDS
;	COMDAT ??_C@_0BF@INLCBMIM@Validating?5namespace@
CONST	SEGMENT
??_C@_0BF@INLCBMIM@Validating?5namespace@ DB 'Validating namespace', 00H ; `string'
CONST	ENDS
;	COMDAT ??_C@_0CL@KKBPHLEC@Value?5for?5attribute?5?$CFs?5of?5?$CFs?5mu@
CONST	SEGMENT
??_C@_0CL@KKBPHLEC@Value?5for?5attribute?5?$CFs?5of?5?$CFs?5mu@ DB 'Value'
	DB	' for attribute %s of %s must be "%s"', 0aH, 00H ; `string'
CONST	ENDS
;	COMDAT ??_C@_0ED@GMECILPN@Value?5?$CC?$CFs?$CC?5for?5attribute?5?$CFs?5of?5@
CONST	SEGMENT
??_C@_0ED@GMECILPN@Value?5?$CC?$CFs?$CC?5for?5attribute?5?$CFs?5of?5@ DB 'V'
	DB	'alue "%s" for attribute %s of %s is not among the enumerated '
	DB	'set', 0aH, 00H				; `string'
CONST	ENDS
;	COMDAT ??_C@_0EJ@LLDEHINL@Value?5?$CC?$CFs?$CC?5for?5attribute?5?$CFs?5of?5@
CONST	SEGMENT
??_C@_0EJ@LLDEHINL@Value?5?$CC?$CFs?$CC?5for?5attribute?5?$CFs?5of?5@ DB 'V'
	DB	'alue "%s" for attribute %s of %s is not among the enumerated '
	DB	'notations', 0aH, 00H			; `string'
CONST	ENDS
;	COMDAT ??_C@_0DO@HAIKKCN@Value?5?$CC?$CFs?$CC?5for?5attribute?5?$CFs?5of?5@
CONST	SEGMENT
??_C@_0DO@HAIKKCN@Value?5?$CC?$CFs?$CC?5for?5attribute?5?$CFs?5of?5@ DB 'V'
	DB	'alue "%s" for attribute %s of %s is not a declared Notation', 0aH
	DB	00H						; `string'
CONST	ENDS
;	COMDAT ??_C@_0DN@BPCEOAOB@Value?5for?5attribute?5?$CFs?5of?5?$CFs?5is@
CONST	SEGMENT
??_C@_0DN@BPCEOAOB@Value?5for?5attribute?5?$CFs?5of?5?$CFs?5is@ DB 'Value'
	DB	' for attribute %s of %s is different from default "%s"', 0aH, 00H ; `string'
CONST	ENDS
;	COMDAT ??_C@_0DF@PPLCGADM@Syntax?5of?5value?5for?5attribute?5?$CF@
CONST	SEGMENT
??_C@_0DF@PPLCGADM@Syntax?5of?5value?5for?5attribute?5?$CF@ DB 'Syntax of'
	DB	' value for attribute %s of %s is not valid', 0aH, 00H ; `string'
CONST	ENDS
;	COMDAT ??_C@_0CP@IDGJHJLH@No?5declaration?5for?5attribute?5?$CFs@
CONST	SEGMENT
??_C@_0CP@IDGJHJLH@No?5declaration?5for?5attribute?5?$CFs@ DB 'No declara'
	DB	'tion for attribute %s of element %s', 0aH, 00H ; `string'
CONST	ENDS
;	COMDAT ??_C@_0DE@PAODFKFF@Definition?5of?5?$CFs?5has?5duplicate?5@
CONST	SEGMENT
??_C@_0DE@PAODFKFF@Definition?5of?5?$CFs?5has?5duplicate?5@ DB 'Definitio'
	DB	'n of %s has duplicate references to %s:%s', 0aH, 00H ; `string'
CONST	ENDS
;	COMDAT ??_C@_0DB@HNLIHGKJ@Definition?5of?5?$CFs?5has?5duplicate?5@
CONST	SEGMENT
??_C@_0DB@HNLIHGKJ@Definition?5of?5?$CFs?5has?5duplicate?5@ DB 'Definitio'
	DB	'n of %s has duplicate references to %s', 0aH, 00H ; `string'
CONST	ENDS
;	COMDAT ??_C@_0DE@IDAOJGBB@Definition?5of?5?$CFs?5has?5duplicate?5@
CONST	SEGMENT
??_C@_0DE@IDAOJGBB@Definition?5of?5?$CFs?5has?5duplicate?5@ DB 'Definitio'
	DB	'n of %s has duplicate references of %s:%s', 0aH, 00H ; `string'
CONST	ENDS
;	COMDAT ??_C@_0DB@DPGOOPFF@Definition?5of?5?$CFs?5has?5duplicate?5@
CONST	SEGMENT
??_C@_0DB@DPGOOPFF@Definition?5of?5?$CFs?5has?5duplicate?5@ DB 'Definitio'
	DB	'n of %s has duplicate references of %s', 0aH, 00H ; `string'
CONST	ENDS
;	COMDAT ??_C@_0EL@MPNELAFE@Default?5value?5?$CC?$CFs?$CC?5for?5attribut@
CONST	SEGMENT
??_C@_0EL@MPNELAFE@Default?5value?5?$CC?$CFs?$CC?5for?5attribut@ DB 'Defa'
	DB	'ult value "%s" for attribute %s of %s is not among the enumer'
	DB	'ated set', 0aH, 00H				; `string'
CONST	ENDS
;	COMDAT ??_C@_0EP@CFLHEJLO@Element?5?$CFs?5has?5ID?5attributes?5de@
CONST	SEGMENT
??_C@_0EP@CFLHEJLO@Element?5?$CFs?5has?5ID?5attributes?5de@ DB 'Element %'
	DB	's has ID attributes defined in the internal and external subs'
	DB	'et : %s', 0aH, 00H				; `string'
CONST	ENDS
;	COMDAT ??_C@_0EE@JDKHGIAG@Element?5?$CFs?5has?5?$CFd?5ID?5attribute?5@
CONST	SEGMENT
??_C@_0EE@JDKHGIAG@Element?5?$CFs?5has?5?$CFd?5ID?5attribute?5@ DB 'Eleme'
	DB	'nt %s has %d ID attribute defined in the external subset : %s'
	DB	0aH, 00H					; `string'
CONST	ENDS
;	COMDAT ??_C@_0EE@MLJMMKCM@Element?5?$CFs?5has?5?$CFd?5ID?5attribute?5@
CONST	SEGMENT
??_C@_0EE@MLJMMKCM@Element?5?$CFs?5has?5?$CFd?5ID?5attribute?5@ DB 'Eleme'
	DB	'nt %s has %d ID attribute defined in the internal subset : %s'
	DB	0aH, 00H					; `string'
CONST	ENDS
;	COMDAT ??_C@_0EC@DNHDHDCI@ID?5attribute?5?$CFs?5of?5?$CFs?5is?5not?5va@
CONST	SEGMENT
??_C@_0EC@DNHDHDCI@ID?5attribute?5?$CFs?5of?5?$CFs?5is?5not?5va@ DB 'ID a'
	DB	'ttribute %s of %s is not valid must be #IMPLIED or #REQUIRED', 0aH
	DB	00H						; `string'
CONST	ENDS
;	COMDAT ??_C@_0DN@MJLCEKEK@Syntax?5of?5default?5value?5for?5att@
CONST	SEGMENT
??_C@_0DN@MJLCEKEK@Syntax?5of?5default?5value?5for?5att@ DB 'Syntax of de'
	DB	'fault value for attribute %s of %s is not valid', 0aH, 00H ; `string'
CONST	ENDS
;	COMDAT ??_C@_0FG@CJEJIEOP@standalone?3?5?$CFs?5on?5?$CFs?5value?5had?5@
CONST	SEGMENT
??_C@_0FG@CJEJIEOP@standalone?3?5?$CFs?5on?5?$CFs?5value?5had?5@ DB 'stan'
	DB	'dalone: %s on %s value had to be normalized based on external'
	DB	' subset declaration', 0aH, 00H		; `string'
CONST	ENDS
;	COMDAT ??_C@_0DK@HMAANMLE@NOTATION?5attribute?5?$CFs?5reference@
CONST	SEGMENT
??_C@_0DK@HMAANMLE@NOTATION?5attribute?5?$CFs?5reference@ DB 'NOTATION at'
	DB	'tribute %s reference an unknown notation "%s"', 0aH, 00H ; `string'
CONST	ENDS
;	COMDAT ??_C@_0DO@BNHKOEGN@ENTITIES?5attribute?5?$CFs?5reference@
CONST	SEGMENT
??_C@_0DO@BNHKOEGN@ENTITIES?5attribute?5?$CFs?5reference@ DB 'ENTITIES at'
	DB	'tribute %s reference an entity "%s" of wrong type', 0aH, 00H ; `string'
CONST	ENDS
;	COMDAT ??_C@_0DI@MOCJGONA@ENTITIES?5attribute?5?$CFs?5reference@
CONST	SEGMENT
??_C@_0DI@MOCJGONA@ENTITIES?5attribute?5?$CFs?5reference@ DB 'ENTITIES at'
	DB	'tribute %s reference an unknown entity "%s"', 0aH, 00H ; `string'
CONST	ENDS
;	COMDAT ??_C@_0DM@CBMBENAH@ENTITY?5attribute?5?$CFs?5reference?5a@
CONST	SEGMENT
??_C@_0DM@CBMBENAH@ENTITY?5attribute?5?$CFs?5reference?5a@ DB 'ENTITY att'
	DB	'ribute %s reference an entity "%s" of wrong type', 0aH, 00H ; `string'
CONST	ENDS
;	COMDAT ??_C@_0DG@NHAJHAEC@ENTITY?5attribute?5?$CFs?5reference?5a@
CONST	SEGMENT
??_C@_0DG@NHAJHAEC@ENTITY?5attribute?5?$CFs?5reference?5a@ DB 'ENTITY att'
	DB	'ribute %s reference an unknown entity "%s"', 0aH, 00H ; `string'
CONST	ENDS
;	COMDAT ??_C@_0BN@NONOBNKE@NOTATION?5?$CFs?5is?5not?5declared?6@
CONST	SEGMENT
??_C@_0BN@NONOBNKE@NOTATION?5?$CFs?5is?5not?5declared?6@ DB 'NOTATION %s '
	DB	'is not declared', 0aH, 00H			; `string'
CONST	ENDS
;	COMDAT ??_C@_0CA@OJAJCLMD@element?5table?5allocation?5failed@
CONST	SEGMENT
??_C@_0CA@OJAJCLMD@element?5table?5allocation?5failed@ DB 'element table '
	DB	'allocation failed', 00H			; `string'
CONST	ENDS
;	COMDAT ??_C@_0CN@CLGHPEIK@xmlAddRef?3?5Reference?5list?5inser@
CONST	SEGMENT
??_C@_0CN@CLGHPEIK@xmlAddRef?3?5Reference?5list?5inser@ DB 'xmlAddRef: Re'
	DB	'ference list insertion failed!', 0aH, 00H	; `string'
CONST	ENDS
;	COMDAT ??_C@_0CM@EILGCMCJ@xmlAddRef?3?5Reference?5list?5creat@
CONST	SEGMENT
??_C@_0CM@EILGCMCJ@xmlAddRef?3?5Reference?5list?5creat@ DB 'xmlAddRef: Re'
	DB	'ference list creation failed!', 0aH, 00H	; `string'
CONST	ENDS
;	COMDAT ??_C@_0CD@JKLLCBGN@xmlAddRef?3?5Table?5creation?5faile@
CONST	SEGMENT
??_C@_0CD@JKLLCBGN@xmlAddRef?3?5Table?5creation?5faile@ DB 'xmlAddRef: Ta'
	DB	'ble creation failed!', 0aH, 00H		; `string'
CONST	ENDS
;	COMDAT ??_C@_01MCMALHOG@a@
CONST	SEGMENT
??_C@_01MCMALHOG@a@ DB 'a', 00H				; `string'
CONST	ENDS
;	COMDAT ??_C@_04MEMAJGDJ@name@
CONST	SEGMENT
??_C@_04MEMAJGDJ@name@ DB 'name', 00H			; `string'
CONST	ENDS
;	COMDAT ??_C@_03PJHHNEEI@xml@
CONST	SEGMENT
??_C@_03PJHHNEEI@xml@ DB 'xml', 00H			; `string'
CONST	ENDS
;	COMDAT ??_C@_02EGCJHIOB@id@
CONST	SEGMENT
??_C@_02EGCJHIOB@id@ DB 'id', 00H			; `string'
CONST	ENDS
;	COMDAT ??_C@_0BH@JKIFIOPN@ID?5?$CFs?5already?5defined?6@
CONST	SEGMENT
??_C@_0BH@JKIFIOPN@ID?5?$CFs?5already?5defined?6@ DB 'ID %s already defin'
	DB	'ed', 0aH, 00H				; `string'
CONST	ENDS
;	COMDAT ??_C@_0CC@HPFDMDEK@xmlAddID?3?5Table?5creation?5failed@
CONST	SEGMENT
??_C@_0CC@HPFDMDEK@xmlAddID?3?5Table?5creation?5failed@ DB 'xmlAddID: Tab'
	DB	'le creation failed!', 0aH, 00H		; `string'
CONST	ENDS
;	COMDAT ??_C@_03KKJDKPMN@?5?$DO?6@
CONST	SEGMENT
??_C@_03KKJDKPMN@?5?$DO?6@ DB ' >', 0aH, 00H		; `string'
CONST	ENDS
;	COMDAT ??_C@_08PAGGLANP@?5SYSTEM?5@
CONST	SEGMENT
??_C@_08PAGGLANP@?5SYSTEM?5@ DB ' SYSTEM ', 00H		; `string'
CONST	ENDS
;	COMDAT ??_C@_08GBBLECIH@?5PUBLIC?5@
CONST	SEGMENT
??_C@_08GBBLECIH@?5PUBLIC?5@ DB ' PUBLIC ', 00H		; `string'
CONST	ENDS
;	COMDAT ??_C@_0M@IOFINGOM@?$DM?$CBNOTATION?5@
CONST	SEGMENT
??_C@_0M@IOFINGOM@?$DM?$CBNOTATION?5@ DB '<!NOTATION ', 00H ; `string'
CONST	ENDS
;	COMDAT ??_C@_0CI@HFJJKKEO@xmlAddNotationDecl?3?5?$CFs?5already?5@
CONST	SEGMENT
??_C@_0CI@HFJJKKEO@xmlAddNotationDecl?3?5?$CFs?5already?5@ DB 'xmlAddNota'
	DB	'tionDecl: %s already defined', 0aH, 00H	; `string'
CONST	ENDS
;	COMDAT ??_C@_0CM@PJBPJANJ@xmlAddNotationDecl?3?5Table?5creat@
CONST	SEGMENT
??_C@_0CM@PJBPJANJ@xmlAddNotationDecl?3?5Table?5creat@ DB 'xmlAddNotation'
	DB	'Decl: Table creation failed!', 0aH, 00H	; `string'
CONST	ENDS
;	COMDAT ??_C@_0DC@EJJFJDDL@Internal?3?5ATTRIBUTE?5struct?5corr@
CONST	SEGMENT
??_C@_0DC@EJJFJDDL@Internal?3?5ATTRIBUTE?5struct?5corr@ DB 'Internal: ATT'
	DB	'RIBUTE struct corrupted invalid def', 0aH, 00H ; `string'
CONST	ENDS
;	COMDAT ??_C@_07PNOBFAOP@?5?$CDFIXED@
CONST	SEGMENT
??_C@_07PNOBFAOP@?5?$CDFIXED@ DB ' #FIXED', 00H		; `string'
CONST	ENDS
;	COMDAT ??_C@_09GOIPIIGC@?5?$CDIMPLIED@
CONST	SEGMENT
??_C@_09GOIPIIGC@?5?$CDIMPLIED@ DB ' #IMPLIED', 00H	; `string'
CONST	ENDS
;	COMDAT ??_C@_0L@IEBFJPBC@?5?$CDREQUIRED@
CONST	SEGMENT
??_C@_0L@IEBFJPBC@?5?$CDREQUIRED@ DB ' #REQUIRED', 00H	; `string'
CONST	ENDS
;	COMDAT ??_C@_0M@IGKIMAHJ@?5NOTATION?5?$CI@
CONST	SEGMENT
??_C@_0M@IGKIMAHJ@?5NOTATION?5?$CI@ DB ' NOTATION (', 00H ; `string'
CONST	ENDS
;	COMDAT ??_C@_02GFKOMOKH@?5?$CI@
CONST	SEGMENT
??_C@_02GFKOMOKH@?5?$CI@ DB ' (', 00H			; `string'
CONST	ENDS
;	COMDAT ??_C@_09LGAPIBOH@?5NMTOKENS@
CONST	SEGMENT
??_C@_09LGAPIBOH@?5NMTOKENS@ DB ' NMTOKENS', 00H	; `string'
CONST	ENDS
;	COMDAT ??_C@_08JLMONKHB@?5NMTOKEN@
CONST	SEGMENT
??_C@_08JLMONKHB@?5NMTOKEN@ DB ' NMTOKEN', 00H		; `string'
CONST	ENDS
;	COMDAT ??_C@_09MILPKLMO@?5ENTITIES@
CONST	SEGMENT
??_C@_09MILPKLMO@?5ENTITIES@ DB ' ENTITIES', 00H	; `string'
CONST	ENDS
;	COMDAT ??_C@_07GLIJGNMP@?5ENTITY@
CONST	SEGMENT
??_C@_07GLIJGNMP@?5ENTITY@ DB ' ENTITY', 00H		; `string'
CONST	ENDS
;	COMDAT ??_C@_07CNGJPBFB@?5IDREFS@
CONST	SEGMENT
??_C@_07CNGJPBFB@?5IDREFS@ DB ' IDREFS', 00H		; `string'
CONST	ENDS
;	COMDAT ??_C@_06JJHMNMLB@?5IDREF@
CONST	SEGMENT
??_C@_06JJHMNMLB@?5IDREF@ DB ' IDREF', 00H		; `string'
CONST	ENDS
;	COMDAT ??_C@_03JFNHLDJD@?5ID@
CONST	SEGMENT
??_C@_03JFNHLDJD@?5ID@ DB ' ID', 00H			; `string'
CONST	ENDS
;	COMDAT ??_C@_06CIOOFICG@?5CDATA@
CONST	SEGMENT
??_C@_06CIOOFICG@?5CDATA@ DB ' CDATA', 00H		; `string'
CONST	ENDS
;	COMDAT ??_C@_0L@NDHICKFH@?$DM?$CBATTLIST?5@
CONST	SEGMENT
??_C@_0L@NDHICKFH@?$DM?$CBATTLIST?5@ DB '<!ATTLIST ', 00H ; `string'
CONST	ENDS
;	COMDAT ??_C@_05PPEFOGKI@xmlns@
CONST	SEGMENT
??_C@_05PPEFOGKI@xmlns@ DB 'xmlns', 00H			; `string'
CONST	ENDS
;	COMDAT ??_C@_0DD@GEPJIIIF@Element?5?$CFs?5has?5too?5may?5ID?5attri@
CONST	SEGMENT
??_C@_0DD@GEPJIIIF@Element?5?$CFs?5has?5too?5may?5ID?5attri@ DB 'Element '
	DB	'%s has too may ID attributes defined : %s', 0aH, 00H ; `string'
CONST	ENDS
;	COMDAT ??_C@_0CN@HJBCFPNE@Attribute?5?$CFs?5of?5element?5?$CFs?3?5alr@
CONST	SEGMENT
??_C@_0CN@HJBCFPNE@Attribute?5?$CFs?5of?5element?5?$CFs?3?5alr@ DB 'Attri'
	DB	'bute %s of element %s: already defined', 0aH, 00H ; `string'
CONST	ENDS
;	COMDAT ??_C@_0CN@LFDBMMCB@xmlAddAttributeDecl?3?5Table?5crea@
CONST	SEGMENT
??_C@_0CN@LFDBMMCB@xmlAddAttributeDecl?3?5Table?5crea@ DB 'xmlAddAttribut'
	DB	'eDecl: Table creation failed!', 0aH, 00H	; `string'
CONST	ENDS
;	COMDAT ??_C@_0CL@IHGCOODJ@Attribute?5?$CFs?5of?5?$CFs?3?5invalid?5def@
CONST	SEGMENT
??_C@_0CL@IHGCOODJ@Attribute?5?$CFs?5of?5?$CFs?3?5invalid?5def@ DB 'Attri'
	DB	'bute %s of %s: invalid default value', 0aH, 00H ; `string'
CONST	ENDS
;	COMDAT ??_C@_0DD@NLJCGIHL@Internal?3?5ATTRIBUTE?5struct?5corr@
CONST	SEGMENT
??_C@_0DD@NLJCGIHL@Internal?3?5ATTRIBUTE?5struct?5corr@ DB 'Internal: ATT'
	DB	'RIBUTE struct corrupted invalid type', 0aH, 00H ; `string'
CONST	ENDS
;	COMDAT ??_C@_0DE@EJGKGKMH@Element?5?$CFs?5has?5too?5many?5ID?5attr@
CONST	SEGMENT
??_C@_0DE@EJGKGKMH@Element?5?$CFs?5has?5too?5many?5ID?5attr@ DB 'Element '
	DB	'%s has too many ID attributes defined : %s', 0aH, 00H ; `string'
CONST	ENDS
;	COMDAT ??_C@_0DB@NFLGBMMC@Internal?3?5ELEMENT?5struct?5corrup@
CONST	SEGMENT
??_C@_0DB@NFLGBMMC@Internal?3?5ELEMENT?5struct?5corrup@ DB 'Internal: ELE'
	DB	'MENT struct corrupted invalid type', 0aH, 00H ; `string'
CONST	ENDS
;	COMDAT ??_C@_02NEKEAGPN@?$DO?6@
CONST	SEGMENT
??_C@_02NEKEAGPN@?$DO?6@ DB '>', 0aH, 00H		; `string'
CONST	ENDS
;	COMDAT ??_C@_01CLKCMJKC@?5@
CONST	SEGMENT
??_C@_01CLKCMJKC@?5@ DB ' ', 00H			; `string'
CONST	ENDS
;	COMDAT ??_C@_06OMPGEGME@?5ANY?$DO?6@
CONST	SEGMENT
??_C@_06OMPGEGME@?5ANY?$DO?6@ DB ' ANY>', 0aH, 00H	; `string'
CONST	ENDS
;	COMDAT ??_C@_08HMKELAAG@?5EMPTY?$DO?6@
CONST	SEGMENT
??_C@_08HMKELAAG@?5EMPTY?$DO?6@ DB ' EMPTY>', 0aH, 00H	; `string'
CONST	ENDS
;	COMDAT ??_C@_0L@EMLMHHFJ@?$DM?$CBELEMENT?5@
CONST	SEGMENT
??_C@_0L@EMLMHHFJ@?$DM?$CBELEMENT?5@ DB '<!ELEMENT ', 00H ; `string'
CONST	ENDS
;	COMDAT ??_C@_0BM@DLJMKEJ@Redefinition?5of?5element?5?$CFs?6@
CONST	SEGMENT
??_C@_0BM@DLJMKEJ@Redefinition?5of?5element?5?$CFs?6@ DB 'Redefinition of'
	DB	' element %s', 0aH, 00H			; `string'
CONST	ENDS
;	COMDAT ??_C@_0CL@IICJECDN@xmlAddElementDecl?3?5Table?5creati@
CONST	SEGMENT
??_C@_0CL@IICJECDN@xmlAddElementDecl?3?5Table?5creati@ DB 'xmlAddElementD'
	DB	'ecl: Table creation failed!', 0aH, 00H	; `string'
CONST	ENDS
;	COMDAT ??_C@_0CP@HFIOBKAA@Internal?3?5ELEMENT?5decl?5corrupte@
CONST	SEGMENT
??_C@_0CP@HFIOBKAA@Internal?3?5ELEMENT?5decl?5corrupte@ DB 'Internal: ELE'
	DB	'MENT decl corrupted invalid type', 0aH, 00H	; `string'
CONST	ENDS
;	COMDAT ??_C@_0DA@CFDLEHAD@xmlAddElementDecl?3?5content?5?$DN?$DN?5N@
CONST	SEGMENT
??_C@_0DA@CFDLEHAD@xmlAddElementDecl?3?5content?5?$DN?$DN?5N@ DB 'xmlAddE'
	DB	'lementDecl: content == NULL for ELEMENT', 0aH, 00H ; `string'
CONST	ENDS
;	COMDAT ??_C@_0CO@IMMDEKCP@xmlAddElementDecl?3?5content?5?$DN?$DN?5N@
CONST	SEGMENT
??_C@_0CO@IMMDEKCP@xmlAddElementDecl?3?5content?5?$DN?$DN?5N@ DB 'xmlAddE'
	DB	'lementDecl: content == NULL for MIXED', 0aH, 00H ; `string'
CONST	ENDS
;	COMDAT ??_C@_0CM@DBFKJMHA@xmlAddElementDecl?3?5content?5?$CB?$DN?5N@
CONST	SEGMENT
??_C@_0CM@DBFKJMHA@xmlAddElementDecl?3?5content?5?$CB?$DN?5N@ DB 'xmlAddE'
	DB	'lementDecl: content != NULL for ANY', 0aH, 00H ; `string'
CONST	ENDS
;	COMDAT ??_C@_0CO@BLBNCGCL@xmlAddElementDecl?3?5content?5?$CB?$DN?5N@
CONST	SEGMENT
??_C@_0CO@BLBNCGCL@xmlAddElementDecl?3?5content?5?$CB?$DN?5N@ DB 'xmlAddE'
	DB	'lementDecl: content != NULL for EMPTY', 0aH, 00H ; `string'
CONST	ENDS
;	COMDAT ??_C@_04IBCFJNCN@?5?4?4?4@
CONST	SEGMENT
??_C@_04IBCFJNCN@?5?4?4?4@ DB ' ...', 00H		; `string'
CONST	ENDS
;	COMDAT ??_C@_01MIFGBAGJ@?$CL@
CONST	SEGMENT
??_C@_01MIFGBAGJ@?$CL@ DB '+', 00H			; `string'
CONST	ENDS
;	COMDAT ??_C@_01NBENCBCI@?$CK@
CONST	SEGMENT
??_C@_01NBENCBCI@?$CK@ DB '*', 00H			; `string'
CONST	ENDS
;	COMDAT ??_C@_01OGPIMHDM@?$DP@
CONST	SEGMENT
??_C@_01OGPIMHDM@?$DP@ DB '?', 00H			; `string'
CONST	ENDS
;	COMDAT ??_C@_01PKGAHCOL@?$CJ@
CONST	SEGMENT
??_C@_01PKGAHCOL@?$CJ@ DB ')', 00H			; `string'
CONST	ENDS
;	COMDAT ??_C@_03LGOGDKEL@?5?$HM?5@
CONST	SEGMENT
??_C@_03LGOGDKEL@?5?$HM?5@ DB ' | ', 00H		; `string'
CONST	ENDS
;	COMDAT ??_C@_03NKFKBEPL@?5?0?5@
CONST	SEGMENT
??_C@_03NKFKBEPL@?5?0?5@ DB ' , ', 00H			; `string'
CONST	ENDS
;	COMDAT ??_C@_01JLIPDDHJ@?3@
CONST	SEGMENT
??_C@_01JLIPDDHJ@?3@ DB ':', 00H			; `string'
CONST	ENDS
;	COMDAT ??_C@_07ELDBONKP@?$CDPCDATA@
CONST	SEGMENT
??_C@_07ELDBONKP@?$CDPCDATA@ DB '#PCDATA', 00H		; `string'
CONST	ENDS
;	COMDAT ??_C@_01ODHLEDKK@?$CI@
CONST	SEGMENT
??_C@_01ODHLEDKK@?$CI@ DB '(', 00H			; `string'
CONST	ENDS
;	COMDAT ??_C@_0DC@GLPLFDD@Internal?3?5ELEMENT?5content?5corru@
CONST	SEGMENT
??_C@_0DC@GLPLFDD@Internal?3?5ELEMENT?5content?5corru@ DB 'Internal: ELEM'
	DB	'ENT content corrupted invalid type', 0aH, 00H ; `string'
CONST	ENDS
;	COMDAT ??_C@_0CH@EHMNFIPD@xmlNewElementContent?5?3?5name?5?$CB?$DN?5@
CONST	SEGMENT
??_C@_0CH@EHMNFIPD@xmlNewElementContent?5?3?5name?5?$CB?$DN?5@ DB 'xmlNew'
	DB	'ElementContent : name != NULL !', 0aH, 00H	; `string'
CONST	ENDS
;	COMDAT ??_C@_0CH@ODCBAOPP@xmlNewElementContent?5?3?5name?5?$DN?$DN?5@
CONST	SEGMENT
??_C@_0CH@ODCBAOPP@xmlNewElementContent?5?3?5name?5?$DN?$DN?5@ DB 'xmlNew'
	DB	'ElementContent : name == NULL !', 0aH, 00H	; `string'
CONST	ENDS
;	COMDAT ??_C@_0CM@GHMIMING@Content?5model?5of?5?$CFs?5is?5not?5dete@
CONST	SEGMENT
??_C@_0CM@GHMIMING@Content?5model?5of?5?$CFs?5is?5not?5dete@ DB 'Content '
	DB	'model of %s is not determinist: %s', 0aH, 00H ; `string'
CONST	ENDS
;	COMDAT ??_C@_0CH@LILACHHH@Cannot?5create?5automata?5for?5elem@
CONST	SEGMENT
??_C@_0CH@LILACHHH@Cannot?5create?5automata?5for?5elem@ DB 'Cannot create'
	DB	' automata for element %s', 0aH, 00H		; `string'
CONST	ENDS
;	COMDAT ??_C@_0CE@LMBMADBI@ContentModel?5broken?5for?5element@
CONST	SEGMENT
??_C@_0CE@LMBMADBI@ContentModel?5broken?5for?5element@ DB 'ContentModel b'
	DB	'roken for element %s', 0aH, 00H		; `string'
CONST	ENDS
;	COMDAT ??_C@_0BH@INHICIGB@Building?5content?5model@
CONST	SEGMENT
??_C@_0BH@INHICIGB@Building?5content?5model@ DB 'Building content model', 00H ; `string'
CONST	ENDS
;	COMDAT ??_C@_0CF@IIHAKBAI@Found?5PCDATA?5in?5content?5model?5o@
CONST	SEGMENT
??_C@_0CF@IIHAKBAI@Found?5PCDATA?5in?5content?5model?5o@ DB 'Found PCDATA'
	DB	' in content model of %s', 0aH, 00H		; `string'
CONST	ENDS
;	COMDAT ??_C@_0CL@FIAOIAHN@Found?5NULL?5content?5in?5content?5m@
CONST	SEGMENT
??_C@_0CL@FIAOIAHN@Found?5NULL?5content?5in?5content?5m@ DB 'Found NULL c'
	DB	'ontent in content model of %s', 0aH, 00H	; `string'
CONST	ENDS
;	COMDAT ??_C@_0CN@GEBFHDLO@Failed?5to?5build?5content?5model?5r@
CONST	SEGMENT
??_C@_0CN@GEBFHDLO@Failed?5to?5build?5content?5model?5r@ DB 'Failed to bu'
	DB	'ild content model regexp for %s', 0aH, 00H	; `string'
CONST	ENDS
;	COMDAT ??_C@_0P@BHJOIPMJ@realloc?5failed@
CONST	SEGMENT
??_C@_0P@BHJOIPMJ@realloc?5failed@ DB 'realloc failed', 00H ; `string'
CONST	ENDS
;	COMDAT ??_C@_0O@IMHFIAOC@malloc?5failed@
CONST	SEGMENT
??_C@_0O@IMHFIAOC@malloc?5failed@ DB 'malloc failed', 00H ; `string'
CONST	ENDS
;	COMDAT ??_C@_02DKCKIIND@?$CFs@
CONST	SEGMENT
??_C@_02DKCKIIND@?$CFs@ DB '%s', 00H			; `string'
CONST	ENDS
;	COMDAT ??_C@_0BK@GDFDKGPJ@Memory?5allocation?5failed?6@
CONST	SEGMENT
??_C@_0BK@GDFDKGPJ@Memory?5allocation?5failed?6@ DB 'Memory allocation fa'
	DB	'iled', 0aH, 00H				; `string'
CONST	ENDS
;	COMDAT ??_C@_0BP@DJFHNAOK@Memory?5allocation?5failed?5?3?5?$CFs?6@
CONST	SEGMENT
??_C@_0BP@DJFHNAOK@Memory?5allocation?5failed?5?3?5?$CFs?6@ DB 'Memory al'
	DB	'location failed : %s', 0aH, 00H		; `string'
CONST	ENDS
; Function compile flags: /Odt
;	COMDAT __JustMyCode_Default
_TEXT	SEGMENT
__JustMyCode_Default PROC				; COMDAT
	push	ebp
	mov	ebp, esp
	pop	ebp
	ret	0
__JustMyCode_Default ENDP
_TEXT	ENDS
; Function compile flags: /Odtp /RTCsu
; File c:\users\dag\documents\_clients\codeproject authors group\windows on arm\libxml2\libxml2-2.9.9\valid.c
;	COMDAT _xmlNoValidityErr
_TEXT	SEGMENT
_ctx$ = 8						; size = 4
_msg$ = 12						; size = 4
_xmlNoValidityErr PROC					; COMDAT

; 6960 :                                 const char *msg ATTRIBUTE_UNUSED, ...) {

	push	ebp
	mov	ebp, esp
	mov	ecx, OFFSET __56F63275_valid@c
	call	@__CheckForDebuggerJustMyCode@4

; 6961 :     return;
; 6962 : }

	cmp	ebp, esp
	call	__RTC_CheckEsp
	pop	ebp
	ret	0
_xmlNoValidityErr ENDP
_TEXT	ENDS
; Function compile flags: /Odtp /RTCsu
; File c:\users\dag\documents\_clients\codeproject authors group\windows on arm\libxml2\libxml2-2.9.9\valid.c
;	COMDAT _xmlValidateAttributeCallback
_TEXT	SEGMENT
tv66 = -28						; size = 4
_tree$1 = -24						; size = 4
_elem$ = -20						; size = 4
_doc$ = -16						; size = 4
_ret$ = -12						; size = 4
_ctxt$ = -8						; size = 4
_cur$ = -4						; size = 4
_payload$ = 8						; size = 4
_data$ = 12						; size = 4
_name$ = 16						; size = 4
_xmlValidateAttributeCallback PROC			; COMDAT

; 6710 : 	                     const xmlChar *name ATTRIBUTE_UNUSED) {

	push	ebp
	mov	ebp, esp
	sub	esp, 28					; 0000001cH
	mov	eax, -858993460				; ccccccccH
	mov	DWORD PTR [ebp-28], eax
	mov	DWORD PTR [ebp-24], eax
	mov	DWORD PTR [ebp-20], eax
	mov	DWORD PTR [ebp-16], eax
	mov	DWORD PTR [ebp-12], eax
	mov	DWORD PTR [ebp-8], eax
	mov	DWORD PTR [ebp-4], eax
	mov	ecx, OFFSET __56F63275_valid@c
	call	@__CheckForDebuggerJustMyCode@4

; 6711 :     xmlAttributePtr cur = (xmlAttributePtr) payload;

	mov	eax, DWORD PTR _payload$[ebp]
	mov	DWORD PTR _cur$[ebp], eax

; 6712 :     xmlValidCtxtPtr ctxt = (xmlValidCtxtPtr) data;

	mov	ecx, DWORD PTR _data$[ebp]
	mov	DWORD PTR _ctxt$[ebp], ecx

; 6713 :     int ret;
; 6714 :     xmlDocPtr doc;
; 6715 :     xmlElementPtr elem = NULL;

	mov	DWORD PTR _elem$[ebp], 0

; 6716 : 
; 6717 :     if (cur == NULL)

	cmp	DWORD PTR _cur$[ebp], 0
	jne	SHORT $LN6@xmlValidat

; 6718 : 	return;

	jmp	$LN1@xmlValidat
$LN6@xmlValidat:

; 6719 :     switch (cur->atype) {

	mov	edx, DWORD PTR _cur$[ebp]
	mov	eax, DWORD PTR [edx+40]
	mov	DWORD PTR tv66[ebp], eax
	cmp	DWORD PTR tv66[ebp], 5
	jl	$LN2@xmlValidat
	cmp	DWORD PTR tv66[ebp], 6
	jle	SHORT $LN8@xmlValidat
	cmp	DWORD PTR tv66[ebp], 10			; 0000000aH
	je	SHORT $LN8@xmlValidat
	jmp	$LN2@xmlValidat

; 6720 : 	case XML_ATTRIBUTE_CDATA:
; 6721 : 	case XML_ATTRIBUTE_ID:
; 6722 : 	case XML_ATTRIBUTE_IDREF	:
; 6723 : 	case XML_ATTRIBUTE_IDREFS:
; 6724 : 	case XML_ATTRIBUTE_NMTOKEN:
; 6725 : 	case XML_ATTRIBUTE_NMTOKENS:
; 6726 : 	case XML_ATTRIBUTE_ENUMERATION:
; 6727 : 	    break;

	jmp	$LN2@xmlValidat
$LN8@xmlValidat:

; 6728 : 	case XML_ATTRIBUTE_ENTITY:
; 6729 : 	case XML_ATTRIBUTE_ENTITIES:
; 6730 : 	case XML_ATTRIBUTE_NOTATION:
; 6731 : 	    if (cur->defaultValue != NULL) {

	mov	ecx, DWORD PTR _cur$[ebp]
	cmp	DWORD PTR [ecx+48], 0
	je	SHORT $LN9@xmlValidat

; 6732 : 
; 6733 : 		ret = xmlValidateAttributeValue2(ctxt, ctxt->doc, cur->name,

	mov	edx, DWORD PTR _cur$[ebp]
	mov	eax, DWORD PTR [edx+48]
	push	eax
	mov	ecx, DWORD PTR _cur$[ebp]
	mov	edx, DWORD PTR [ecx+40]
	push	edx
	mov	eax, DWORD PTR _cur$[ebp]
	mov	ecx, DWORD PTR [eax+8]
	push	ecx
	mov	edx, DWORD PTR _ctxt$[ebp]
	mov	eax, DWORD PTR [edx+32]
	push	eax
	mov	ecx, DWORD PTR _ctxt$[ebp]
	push	ecx
	call	_xmlValidateAttributeValue2
	add	esp, 20					; 00000014H
	mov	DWORD PTR _ret$[ebp], eax

; 6734 : 			                         cur->atype, cur->defaultValue);
; 6735 : 		if ((ret == 0) && (ctxt->valid == 1))

	cmp	DWORD PTR _ret$[ebp], 0
	jne	SHORT $LN9@xmlValidat
	mov	edx, DWORD PTR _ctxt$[ebp]
	cmp	DWORD PTR [edx+36], 1
	jne	SHORT $LN9@xmlValidat

; 6736 : 		    ctxt->valid = 0;

	mov	eax, DWORD PTR _ctxt$[ebp]
	mov	DWORD PTR [eax+36], 0
$LN9@xmlValidat:

; 6737 : 	    }
; 6738 : 	    if (cur->tree != NULL) {

	mov	ecx, DWORD PTR _cur$[ebp]
	cmp	DWORD PTR [ecx+52], 0
	je	SHORT $LN2@xmlValidat

; 6739 : 		xmlEnumerationPtr tree = cur->tree;

	mov	edx, DWORD PTR _cur$[ebp]
	mov	eax, DWORD PTR [edx+52]
	mov	DWORD PTR _tree$1[ebp], eax
$LN4@xmlValidat:

; 6740 : 		while (tree != NULL) {

	cmp	DWORD PTR _tree$1[ebp], 0
	je	SHORT $LN2@xmlValidat

; 6741 : 		    ret = xmlValidateAttributeValue2(ctxt, ctxt->doc,

	mov	ecx, DWORD PTR _tree$1[ebp]
	mov	edx, DWORD PTR [ecx+4]
	push	edx
	mov	eax, DWORD PTR _cur$[ebp]
	mov	ecx, DWORD PTR [eax+40]
	push	ecx
	mov	edx, DWORD PTR _cur$[ebp]
	mov	eax, DWORD PTR [edx+8]
	push	eax
	mov	ecx, DWORD PTR _ctxt$[ebp]
	mov	edx, DWORD PTR [ecx+32]
	push	edx
	mov	eax, DWORD PTR _ctxt$[ebp]
	push	eax
	call	_xmlValidateAttributeValue2
	add	esp, 20					; 00000014H
	mov	DWORD PTR _ret$[ebp], eax

; 6742 : 				    cur->name, cur->atype, tree->name);
; 6743 : 		    if ((ret == 0) && (ctxt->valid == 1))

	cmp	DWORD PTR _ret$[ebp], 0
	jne	SHORT $LN12@xmlValidat
	mov	ecx, DWORD PTR _ctxt$[ebp]
	cmp	DWORD PTR [ecx+36], 1
	jne	SHORT $LN12@xmlValidat

; 6744 : 			ctxt->valid = 0;

	mov	edx, DWORD PTR _ctxt$[ebp]
	mov	DWORD PTR [edx+36], 0
$LN12@xmlValidat:

; 6745 : 		    tree = tree->next;

	mov	eax, DWORD PTR _tree$1[ebp]
	mov	ecx, DWORD PTR [eax]
	mov	DWORD PTR _tree$1[ebp], ecx

; 6746 : 		}

	jmp	SHORT $LN4@xmlValidat
$LN2@xmlValidat:

; 6747 : 	    }
; 6748 :     }
; 6749 :     if (cur->atype == XML_ATTRIBUTE_NOTATION) {

	mov	edx, DWORD PTR _cur$[ebp]
	cmp	DWORD PTR [edx+40], 10			; 0000000aH
	jne	$LN1@xmlValidat

; 6750 : 	doc = cur->doc;

	mov	eax, DWORD PTR _cur$[ebp]
	mov	ecx, DWORD PTR [eax+32]
	mov	DWORD PTR _doc$[ebp], ecx

; 6751 : 	if (cur->elem == NULL) {

	mov	edx, DWORD PTR _cur$[ebp]
	cmp	DWORD PTR [edx+60], 0
	jne	SHORT $LN14@xmlValidat

; 6752 : 	    xmlErrValid(ctxt, XML_ERR_INTERNAL_ERROR,

	mov	eax, DWORD PTR _cur$[ebp]
	mov	ecx, DWORD PTR [eax+8]
	push	ecx
	push	OFFSET ??_C@_0DC@EEKBOKHB@xmlValidateAttributeCallback?$CI?$CFs@
	push	1
	mov	edx, DWORD PTR _ctxt$[ebp]
	push	edx
	call	_xmlErrValid
	add	esp, 16					; 00000010H

; 6753 : 		   "xmlValidateAttributeCallback(%s): internal error\n",
; 6754 : 		   (const char *) cur->name);
; 6755 : 	    return;

	jmp	$LN1@xmlValidat
$LN14@xmlValidat:

; 6756 : 	}
; 6757 : 
; 6758 : 	if (doc != NULL)

	cmp	DWORD PTR _doc$[ebp], 0
	je	SHORT $LN15@xmlValidat

; 6759 : 	    elem = xmlGetDtdElementDesc(doc->intSubset, cur->elem);

	mov	eax, DWORD PTR _cur$[ebp]
	mov	ecx, DWORD PTR [eax+60]
	push	ecx
	mov	edx, DWORD PTR _doc$[ebp]
	mov	eax, DWORD PTR [edx+44]
	push	eax
	call	_xmlGetDtdElementDesc
	add	esp, 8
	mov	DWORD PTR _elem$[ebp], eax
$LN15@xmlValidat:

; 6760 : 	if ((elem == NULL) && (doc != NULL))

	cmp	DWORD PTR _elem$[ebp], 0
	jne	SHORT $LN16@xmlValidat
	cmp	DWORD PTR _doc$[ebp], 0
	je	SHORT $LN16@xmlValidat

; 6761 : 	    elem = xmlGetDtdElementDesc(doc->extSubset, cur->elem);

	mov	ecx, DWORD PTR _cur$[ebp]
	mov	edx, DWORD PTR [ecx+60]
	push	edx
	mov	eax, DWORD PTR _doc$[ebp]
	mov	ecx, DWORD PTR [eax+48]
	push	ecx
	call	_xmlGetDtdElementDesc
	add	esp, 8
	mov	DWORD PTR _elem$[ebp], eax
$LN16@xmlValidat:

; 6762 : 	if ((elem == NULL) && (cur->parent != NULL) &&

	cmp	DWORD PTR _elem$[ebp], 0
	jne	SHORT $LN17@xmlValidat
	mov	edx, DWORD PTR _cur$[ebp]
	cmp	DWORD PTR [edx+20], 0
	je	SHORT $LN17@xmlValidat
	mov	eax, DWORD PTR _cur$[ebp]
	mov	ecx, DWORD PTR [eax+20]
	cmp	DWORD PTR [ecx+4], 14			; 0000000eH
	jne	SHORT $LN17@xmlValidat

; 6763 : 	    (cur->parent->type == XML_DTD_NODE))
; 6764 : 	    elem = xmlGetDtdElementDesc((xmlDtdPtr) cur->parent, cur->elem);

	mov	edx, DWORD PTR _cur$[ebp]
	mov	eax, DWORD PTR [edx+60]
	push	eax
	mov	ecx, DWORD PTR _cur$[ebp]
	mov	edx, DWORD PTR [ecx+20]
	push	edx
	call	_xmlGetDtdElementDesc
	add	esp, 8
	mov	DWORD PTR _elem$[ebp], eax
$LN17@xmlValidat:

; 6765 : 	if (elem == NULL) {

	cmp	DWORD PTR _elem$[ebp], 0
	jne	SHORT $LN18@xmlValidat

; 6766 : 	    xmlErrValidNode(ctxt, NULL, XML_DTD_UNKNOWN_ELEM,

	push	0
	mov	eax, DWORD PTR _cur$[ebp]
	mov	ecx, DWORD PTR [eax+60]
	push	ecx
	mov	edx, DWORD PTR _cur$[ebp]
	mov	eax, DWORD PTR [edx+8]
	push	eax
	push	OFFSET ??_C@_0DC@CHBKELEG@attribute?5?$CFs?3?5could?5not?5find?5de@
	push	534					; 00000216H
	push	0
	mov	ecx, DWORD PTR _ctxt$[ebp]
	push	ecx
	call	_xmlErrValidNode
	add	esp, 28					; 0000001cH

; 6767 : 		   "attribute %s: could not find decl for element %s\n",
; 6768 : 		   cur->name, cur->elem, NULL);
; 6769 : 	    return;

	jmp	SHORT $LN1@xmlValidat
$LN18@xmlValidat:

; 6770 : 	}
; 6771 : 	if (elem->etype == XML_ELEMENT_TYPE_EMPTY) {

	mov	edx, DWORD PTR _elem$[ebp]
	cmp	DWORD PTR [edx+36], 1
	jne	SHORT $LN1@xmlValidat

; 6772 : 	    xmlErrValidNode(ctxt, NULL, XML_DTD_EMPTY_NOTATION,

	push	0
	mov	eax, DWORD PTR _cur$[ebp]
	mov	ecx, DWORD PTR [eax+60]
	push	ecx
	mov	edx, DWORD PTR _cur$[ebp]
	mov	eax, DWORD PTR [edx+8]
	push	eax
	push	OFFSET ??_C@_0DF@KBMCJLCB@NOTATION?5attribute?5?$CFs?5declared?5@
	push	510					; 000001feH
	push	0
	mov	ecx, DWORD PTR _ctxt$[ebp]
	push	ecx
	call	_xmlErrValidNode
	add	esp, 28					; 0000001cH

; 6773 : 		   "NOTATION attribute %s declared for EMPTY element %s\n",
; 6774 : 		   cur->name, cur->elem, NULL);
; 6775 : 	    ctxt->valid = 0;

	mov	edx, DWORD PTR _ctxt$[ebp]
	mov	DWORD PTR [edx+36], 0
$LN1@xmlValidat:

; 6776 : 	}
; 6777 :     }
; 6778 : }

	add	esp, 28					; 0000001cH
	cmp	ebp, esp
	call	__RTC_CheckEsp
	mov	esp, ebp
	pop	ebp
	ret	0
_xmlValidateAttributeCallback ENDP
_TEXT	ENDS
; Function compile flags: /Odtp /RTCsu
; File c:\users\dag\documents\_clients\codeproject authors group\windows on arm\libxml2\libxml2-2.9.9\valid.c
;	COMDAT _xmlValidateNotationCallback
_TEXT	SEGMENT
_ret$1 = -16						; size = 4
_notation$2 = -12					; size = 4
_ctxt$ = -8						; size = 4
_cur$ = -4						; size = 4
_payload$ = 8						; size = 4
_data$ = 12						; size = 4
_name$ = 16						; size = 4
_xmlValidateNotationCallback PROC			; COMDAT

; 6689 : 	                    const xmlChar *name ATTRIBUTE_UNUSED) {

	push	ebp
	mov	ebp, esp
	sub	esp, 16					; 00000010H
	mov	eax, -858993460				; ccccccccH
	mov	DWORD PTR [ebp-16], eax
	mov	DWORD PTR [ebp-12], eax
	mov	DWORD PTR [ebp-8], eax
	mov	DWORD PTR [ebp-4], eax
	mov	ecx, OFFSET __56F63275_valid@c
	call	@__CheckForDebuggerJustMyCode@4

; 6690 :     xmlEntityPtr cur = (xmlEntityPtr) payload;

	mov	eax, DWORD PTR _payload$[ebp]
	mov	DWORD PTR _cur$[ebp], eax

; 6691 :     xmlValidCtxtPtr ctxt = (xmlValidCtxtPtr) data;

	mov	ecx, DWORD PTR _data$[ebp]
	mov	DWORD PTR _ctxt$[ebp], ecx

; 6692 :     if (cur == NULL)

	cmp	DWORD PTR _cur$[ebp], 0
	jne	SHORT $LN2@xmlValidat

; 6693 : 	return;

	jmp	SHORT $LN1@xmlValidat
$LN2@xmlValidat:

; 6694 :     if (cur->etype == XML_EXTERNAL_GENERAL_UNPARSED_ENTITY) {

	mov	edx, DWORD PTR _cur$[ebp]
	cmp	DWORD PTR [edx+48], 3
	jne	SHORT $LN1@xmlValidat

; 6695 : 	xmlChar *notation = cur->content;

	mov	eax, DWORD PTR _cur$[ebp]
	mov	ecx, DWORD PTR [eax+40]
	mov	DWORD PTR _notation$2[ebp], ecx

; 6696 : 
; 6697 : 	if (notation != NULL) {

	cmp	DWORD PTR _notation$2[ebp], 0
	je	SHORT $LN1@xmlValidat

; 6698 : 	    int ret;
; 6699 : 
; 6700 : 	    ret = xmlValidateNotationUse(ctxt, cur->doc, notation);

	mov	edx, DWORD PTR _notation$2[ebp]
	push	edx
	mov	eax, DWORD PTR _cur$[ebp]
	mov	ecx, DWORD PTR [eax+32]
	push	ecx
	mov	edx, DWORD PTR _ctxt$[ebp]
	push	edx
	call	_xmlValidateNotationUse
	add	esp, 12					; 0000000cH
	mov	DWORD PTR _ret$1[ebp], eax

; 6701 : 	    if (ret != 1) {

	cmp	DWORD PTR _ret$1[ebp], 1
	je	SHORT $LN1@xmlValidat

; 6702 : 		ctxt->valid = 0;

	mov	eax, DWORD PTR _ctxt$[ebp]
	mov	DWORD PTR [eax+36], 0
$LN1@xmlValidat:

; 6703 : 	    }
; 6704 : 	}
; 6705 :     }
; 6706 : }

	add	esp, 16					; 00000010H
	cmp	ebp, esp
	call	__RTC_CheckEsp
	mov	esp, ebp
	pop	ebp
	ret	0
_xmlValidateNotationCallback ENDP
_TEXT	ENDS
; Function compile flags: /Odtp /RTCsu
; File c:\users\dag\documents\_clients\codeproject authors group\windows on arm\libxml2\libxml2-2.9.9\valid.c
;	COMDAT _xmlValidateCheckRefCallback
_TEXT	SEGMENT
_memo$ = -20						; size = 8
_ctxt$ = -8						; size = 4
_ref_list$ = -4						; size = 4
_payload$ = 8						; size = 4
_data$ = 12						; size = 4
_name$ = 16						; size = 4
_xmlValidateCheckRefCallback PROC			; COMDAT

; 6573 : xmlValidateCheckRefCallback(void *payload, void *data, const xmlChar *name) {

	push	ebp
	mov	ebp, esp
	sub	esp, 24					; 00000018H
	mov	eax, -858993460				; ccccccccH
	mov	DWORD PTR [ebp-24], eax
	mov	DWORD PTR [ebp-20], eax
	mov	DWORD PTR [ebp-16], eax
	mov	DWORD PTR [ebp-12], eax
	mov	DWORD PTR [ebp-8], eax
	mov	DWORD PTR [ebp-4], eax
	mov	ecx, OFFSET __56F63275_valid@c
	call	@__CheckForDebuggerJustMyCode@4

; 6574 :     xmlListPtr ref_list = (xmlListPtr) payload;

	mov	eax, DWORD PTR _payload$[ebp]
	mov	DWORD PTR _ref_list$[ebp], eax

; 6575 :     xmlValidCtxtPtr ctxt = (xmlValidCtxtPtr) data;

	mov	ecx, DWORD PTR _data$[ebp]
	mov	DWORD PTR _ctxt$[ebp], ecx

; 6576 :     xmlValidateMemo memo;
; 6577 : 
; 6578 :     if (ref_list == NULL)

	cmp	DWORD PTR _ref_list$[ebp], 0
	jne	SHORT $LN2@xmlValidat

; 6579 : 	return;

	jmp	SHORT $LN1@xmlValidat
$LN2@xmlValidat:

; 6580 :     memo.ctxt = ctxt;

	mov	edx, DWORD PTR _ctxt$[ebp]
	mov	DWORD PTR _memo$[ebp], edx

; 6581 :     memo.name = name;

	mov	eax, DWORD PTR _name$[ebp]
	mov	DWORD PTR _memo$[ebp+4], eax

; 6582 : 
; 6583 :     xmlListWalk(ref_list, xmlWalkValidateList, &memo);

	lea	ecx, DWORD PTR _memo$[ebp]
	push	ecx
	push	OFFSET _xmlWalkValidateList
	mov	edx, DWORD PTR _ref_list$[ebp]
	push	edx
	call	_xmlListWalk
	add	esp, 12					; 0000000cH
$LN1@xmlValidat:

; 6584 : 
; 6585 : }

	push	edx
	mov	ecx, ebp
	push	eax
	lea	edx, DWORD PTR $LN6@xmlValidat
	call	@_RTC_CheckStackVars@8
	pop	eax
	pop	edx
	add	esp, 24					; 00000018H
	cmp	ebp, esp
	call	__RTC_CheckEsp
	mov	esp, ebp
	pop	ebp
	ret	0
	npad	1
$LN6@xmlValidat:
	DD	1
	DD	$LN5@xmlValidat
$LN5@xmlValidat:
	DD	-20					; ffffffecH
	DD	8
	DD	$LN4@xmlValidat
$LN4@xmlValidat:
	DB	109					; 0000006dH
	DB	101					; 00000065H
	DB	109					; 0000006dH
	DB	111					; 0000006fH
	DB	0
_xmlValidateCheckRefCallback ENDP
_TEXT	ENDS
; Function compile flags: /Odtp /RTCsu
; File c:\users\dag\documents\_clients\codeproject authors group\windows on arm\libxml2\libxml2-2.9.9\valid.c
;	COMDAT _xmlWalkValidateList
_TEXT	SEGMENT
_memo$ = -4						; size = 4
_data$ = 8						; size = 4
_user$ = 12						; size = 4
_xmlWalkValidateList PROC				; COMDAT

; 6559 : {

	push	ebp
	mov	ebp, esp
	push	ecx
	mov	DWORD PTR [ebp-4], -858993460		; ccccccccH
	mov	ecx, OFFSET __56F63275_valid@c
	call	@__CheckForDebuggerJustMyCode@4

; 6560 : 	xmlValidateMemoPtr memo = (xmlValidateMemoPtr)user;

	mov	eax, DWORD PTR _user$[ebp]
	mov	DWORD PTR _memo$[ebp], eax

; 6561 : 	xmlValidateRef((xmlRefPtr)data, memo->ctxt, memo->name);

	mov	ecx, DWORD PTR _memo$[ebp]
	mov	edx, DWORD PTR [ecx+4]
	push	edx
	mov	eax, DWORD PTR _memo$[ebp]
	mov	ecx, DWORD PTR [eax]
	push	ecx
	mov	edx, DWORD PTR _data$[ebp]
	push	edx
	call	_xmlValidateRef
	add	esp, 12					; 0000000cH

; 6562 : 	return 1;

	mov	eax, 1

; 6563 : }

	add	esp, 4
	cmp	ebp, esp
	call	__RTC_CheckEsp
	mov	esp, ebp
	pop	ebp
	ret	0
_xmlWalkValidateList ENDP
_TEXT	ENDS
; Function compile flags: /Odtp /RTCsu
; File c:\users\dag\documents\_clients\codeproject authors group\windows on arm\libxml2\libxml2-2.9.9\valid.c
;	COMDAT _xmlValidateRef
_TEXT	SEGMENT
_save$1 = -37						; size = 1
_cur$2 = -36						; size = 4
_str$3 = -32						; size = 4
_dup$4 = -28						; size = 4
_save$5 = -21						; size = 1
_cur$6 = -20						; size = 4
_str$7 = -16						; size = 4
_dup$8 = -12						; size = 4
_attr$ = -8						; size = 4
_id$ = -4						; size = 4
_ref$ = 8						; size = 4
_ctxt$ = 12						; size = 4
_name$ = 16						; size = 4
_xmlValidateRef PROC					; COMDAT

; 6475 : 	                   const xmlChar *name) {

	push	ebp
	mov	ebp, esp
	sub	esp, 40					; 00000028H
	push	esi
	push	edi
	lea	edi, DWORD PTR [ebp-40]
	mov	ecx, 10					; 0000000aH
	mov	eax, -858993460				; ccccccccH
	rep stosd
	mov	ecx, OFFSET __56F63275_valid@c
	call	@__CheckForDebuggerJustMyCode@4

; 6476 :     xmlAttrPtr id;
; 6477 :     xmlAttrPtr attr;
; 6478 : 
; 6479 :     if (ref == NULL)

	cmp	DWORD PTR _ref$[ebp], 0
	jne	SHORT $LN14@xmlValidat

; 6480 : 	return;

	jmp	$LN1@xmlValidat
$LN14@xmlValidat:

; 6481 :     if ((ref->attr == NULL) && (ref->name == NULL))

	mov	eax, DWORD PTR _ref$[ebp]
	cmp	DWORD PTR [eax+8], 0
	jne	SHORT $LN15@xmlValidat
	mov	ecx, DWORD PTR _ref$[ebp]
	cmp	DWORD PTR [ecx+12], 0
	jne	SHORT $LN15@xmlValidat

; 6482 : 	return;

	jmp	$LN1@xmlValidat
$LN15@xmlValidat:

; 6483 :     attr = ref->attr;

	mov	edx, DWORD PTR _ref$[ebp]
	mov	eax, DWORD PTR [edx+8]
	mov	DWORD PTR _attr$[ebp], eax

; 6484 :     if (attr == NULL) {

	cmp	DWORD PTR _attr$[ebp], 0
	jne	$LN16@xmlValidat

; 6485 : 	xmlChar *dup, *str = NULL, *cur, save;

	mov	DWORD PTR _str$7[ebp], 0

; 6486 : 
; 6487 : 	dup = xmlStrdup(name);

	mov	ecx, DWORD PTR _name$[ebp]
	push	ecx
	call	_xmlStrdup
	add	esp, 4
	mov	DWORD PTR _dup$8[ebp], eax

; 6488 : 	if (dup == NULL) {

	cmp	DWORD PTR _dup$8[ebp], 0
	jne	SHORT $LN18@xmlValidat

; 6489 : 	    ctxt->valid = 0;

	mov	edx, DWORD PTR _ctxt$[ebp]
	mov	DWORD PTR [edx+36], 0

; 6490 : 	    return;

	jmp	$LN1@xmlValidat
$LN18@xmlValidat:

; 6491 : 	}
; 6492 : 	cur = dup;

	mov	eax, DWORD PTR _dup$8[ebp]
	mov	DWORD PTR _cur$6[ebp], eax
$LN2@xmlValidat:

; 6493 : 	while (*cur != 0) {

	mov	ecx, DWORD PTR _cur$6[ebp]
	movzx	edx, BYTE PTR [ecx]
	test	edx, edx
	je	$LN3@xmlValidat

; 6494 : 	    str = cur;

	mov	eax, DWORD PTR _cur$6[ebp]
	mov	DWORD PTR _str$7[ebp], eax
$LN4@xmlValidat:

; 6495 : 	    while ((*cur != 0) && (!IS_BLANK_CH(*cur))) cur++;

	mov	ecx, DWORD PTR _cur$6[ebp]
	movzx	edx, BYTE PTR [ecx]
	test	edx, edx
	je	SHORT $LN5@xmlValidat
	mov	eax, DWORD PTR _cur$6[ebp]
	movzx	ecx, BYTE PTR [eax]
	cmp	ecx, 32					; 00000020H
	je	SHORT $LN5@xmlValidat
	mov	edx, DWORD PTR _cur$6[ebp]
	movzx	eax, BYTE PTR [edx]
	cmp	eax, 9
	jl	SHORT $LN19@xmlValidat
	mov	ecx, DWORD PTR _cur$6[ebp]
	movzx	edx, BYTE PTR [ecx]
	cmp	edx, 10					; 0000000aH
	jle	SHORT $LN5@xmlValidat
$LN19@xmlValidat:
	mov	eax, DWORD PTR _cur$6[ebp]
	movzx	ecx, BYTE PTR [eax]
	cmp	ecx, 13					; 0000000dH
	je	SHORT $LN5@xmlValidat
	mov	edx, DWORD PTR _cur$6[ebp]
	add	edx, 1
	mov	DWORD PTR _cur$6[ebp], edx
	jmp	SHORT $LN4@xmlValidat
$LN5@xmlValidat:

; 6496 : 	    save = *cur;

	mov	eax, DWORD PTR _cur$6[ebp]
	mov	cl, BYTE PTR [eax]
	mov	BYTE PTR _save$5[ebp], cl

; 6497 : 	    *cur = 0;

	mov	edx, DWORD PTR _cur$6[ebp]
	mov	BYTE PTR [edx], 0

; 6498 : 	    id = xmlGetID(ctxt->doc, str);

	mov	eax, DWORD PTR _str$7[ebp]
	push	eax
	mov	ecx, DWORD PTR _ctxt$[ebp]
	mov	edx, DWORD PTR [ecx+32]
	push	edx
	call	_xmlGetID
	add	esp, 8
	mov	DWORD PTR _id$[ebp], eax

; 6499 : 	    if (id == NULL) {

	cmp	DWORD PTR _id$[ebp], 0
	jne	SHORT $LN20@xmlValidat

; 6500 : 		xmlErrValidNodeNr(ctxt, NULL, XML_DTD_UNKNOWN_ID,

	mov	eax, DWORD PTR _str$7[ebp]
	push	eax
	mov	ecx, DWORD PTR _ref$[ebp]
	mov	edx, DWORD PTR [ecx+16]
	push	edx
	mov	eax, DWORD PTR _ref$[ebp]
	mov	ecx, DWORD PTR [eax+12]
	push	ecx
	push	OFFSET ??_C@_0DE@GLBIFDCC@attribute?5?$CFs?5line?5?$CFd?5references@
	push	536					; 00000218H
	push	0
	mov	edx, DWORD PTR _ctxt$[ebp]
	push	edx
	call	_xmlErrValidNodeNr
	add	esp, 28					; 0000001cH

; 6501 : 	   "attribute %s line %d references an unknown ID \"%s\"\n",
; 6502 : 		       ref->name, ref->lineno, str);
; 6503 : 		ctxt->valid = 0;

	mov	eax, DWORD PTR _ctxt$[ebp]
	mov	DWORD PTR [eax+36], 0
$LN20@xmlValidat:

; 6504 : 	    }
; 6505 : 	    if (save == 0)

	movzx	ecx, BYTE PTR _save$5[ebp]
	test	ecx, ecx
	jne	SHORT $LN21@xmlValidat

; 6506 : 		break;

	jmp	SHORT $LN3@xmlValidat
$LN21@xmlValidat:

; 6507 : 	    *cur = save;

	mov	edx, DWORD PTR _cur$6[ebp]
	mov	al, BYTE PTR _save$5[ebp]
	mov	BYTE PTR [edx], al
$LN6@xmlValidat:

; 6508 : 	    while (IS_BLANK_CH(*cur)) cur++;

	mov	ecx, DWORD PTR _cur$6[ebp]
	movzx	edx, BYTE PTR [ecx]
	cmp	edx, 32					; 00000020H
	je	SHORT $LN22@xmlValidat
	mov	eax, DWORD PTR _cur$6[ebp]
	movzx	ecx, BYTE PTR [eax]
	cmp	ecx, 9
	jl	SHORT $LN23@xmlValidat
	mov	edx, DWORD PTR _cur$6[ebp]
	movzx	eax, BYTE PTR [edx]
	cmp	eax, 10					; 0000000aH
	jle	SHORT $LN22@xmlValidat
$LN23@xmlValidat:
	mov	ecx, DWORD PTR _cur$6[ebp]
	movzx	edx, BYTE PTR [ecx]
	cmp	edx, 13					; 0000000dH
	jne	SHORT $LN7@xmlValidat
$LN22@xmlValidat:
	mov	eax, DWORD PTR _cur$6[ebp]
	add	eax, 1
	mov	DWORD PTR _cur$6[ebp], eax
	jmp	SHORT $LN6@xmlValidat
$LN7@xmlValidat:

; 6509 : 	}

	jmp	$LN2@xmlValidat
$LN3@xmlValidat:

; 6510 : 	xmlFree(dup);

	mov	esi, esp
	mov	ecx, DWORD PTR _dup$8[ebp]
	push	ecx
	call	DWORD PTR _xmlFree
	add	esp, 4
	cmp	esi, esp
	call	__RTC_CheckEsp
	jmp	$LN1@xmlValidat
$LN16@xmlValidat:

; 6511 :     } else if (attr->atype == XML_ATTRIBUTE_IDREF) {

	mov	edx, DWORD PTR _attr$[ebp]
	cmp	DWORD PTR [edx+40], 3
	jne	SHORT $LN24@xmlValidat

; 6512 : 	id = xmlGetID(ctxt->doc, name);

	mov	eax, DWORD PTR _name$[ebp]
	push	eax
	mov	ecx, DWORD PTR _ctxt$[ebp]
	mov	edx, DWORD PTR [ecx+32]
	push	edx
	call	_xmlGetID
	add	esp, 8
	mov	DWORD PTR _id$[ebp], eax

; 6513 : 	if (id == NULL) {

	cmp	DWORD PTR _id$[ebp], 0
	jne	SHORT $LN26@xmlValidat

; 6514 : 	    xmlErrValidNode(ctxt, attr->parent, XML_DTD_UNKNOWN_ID,

	push	0
	mov	eax, DWORD PTR _name$[ebp]
	push	eax
	mov	ecx, DWORD PTR _attr$[ebp]
	mov	edx, DWORD PTR [ecx+8]
	push	edx
	push	OFFSET ??_C@_0DC@HOBCELJH@IDREF?5attribute?5?$CFs?5references?5a@
	push	536					; 00000218H
	mov	eax, DWORD PTR _attr$[ebp]
	mov	ecx, DWORD PTR [eax+20]
	push	ecx
	mov	edx, DWORD PTR _ctxt$[ebp]
	push	edx
	call	_xmlErrValidNode
	add	esp, 28					; 0000001cH

; 6515 : 	   "IDREF attribute %s references an unknown ID \"%s\"\n",
; 6516 : 		   attr->name, name, NULL);
; 6517 : 	    ctxt->valid = 0;

	mov	eax, DWORD PTR _ctxt$[ebp]
	mov	DWORD PTR [eax+36], 0
$LN26@xmlValidat:

; 6518 : 	}

	jmp	$LN1@xmlValidat
$LN24@xmlValidat:

; 6519 :     } else if (attr->atype == XML_ATTRIBUTE_IDREFS) {

	mov	ecx, DWORD PTR _attr$[ebp]
	cmp	DWORD PTR [ecx+40], 4
	jne	$LN1@xmlValidat

; 6520 : 	xmlChar *dup, *str = NULL, *cur, save;

	mov	DWORD PTR _str$3[ebp], 0

; 6521 : 
; 6522 : 	dup = xmlStrdup(name);

	mov	edx, DWORD PTR _name$[ebp]
	push	edx
	call	_xmlStrdup
	add	esp, 4
	mov	DWORD PTR _dup$4[ebp], eax

; 6523 : 	if (dup == NULL) {

	cmp	DWORD PTR _dup$4[ebp], 0
	jne	SHORT $LN28@xmlValidat

; 6524 : 	    xmlVErrMemory(ctxt, "IDREFS split");

	push	OFFSET ??_C@_0N@BBOKCKMC@IDREFS?5split@
	mov	eax, DWORD PTR _ctxt$[ebp]
	push	eax
	call	_xmlVErrMemory
	add	esp, 8

; 6525 : 	    ctxt->valid = 0;

	mov	ecx, DWORD PTR _ctxt$[ebp]
	mov	DWORD PTR [ecx+36], 0

; 6526 : 	    return;

	jmp	$LN1@xmlValidat
$LN28@xmlValidat:

; 6527 : 	}
; 6528 : 	cur = dup;

	mov	edx, DWORD PTR _dup$4[ebp]
	mov	DWORD PTR _cur$2[ebp], edx
$LN8@xmlValidat:

; 6529 : 	while (*cur != 0) {

	mov	eax, DWORD PTR _cur$2[ebp]
	movzx	ecx, BYTE PTR [eax]
	test	ecx, ecx
	je	$LN9@xmlValidat

; 6530 : 	    str = cur;

	mov	edx, DWORD PTR _cur$2[ebp]
	mov	DWORD PTR _str$3[ebp], edx
$LN10@xmlValidat:

; 6531 : 	    while ((*cur != 0) && (!IS_BLANK_CH(*cur))) cur++;

	mov	eax, DWORD PTR _cur$2[ebp]
	movzx	ecx, BYTE PTR [eax]
	test	ecx, ecx
	je	SHORT $LN11@xmlValidat
	mov	edx, DWORD PTR _cur$2[ebp]
	movzx	eax, BYTE PTR [edx]
	cmp	eax, 32					; 00000020H
	je	SHORT $LN11@xmlValidat
	mov	ecx, DWORD PTR _cur$2[ebp]
	movzx	edx, BYTE PTR [ecx]
	cmp	edx, 9
	jl	SHORT $LN29@xmlValidat
	mov	eax, DWORD PTR _cur$2[ebp]
	movzx	ecx, BYTE PTR [eax]
	cmp	ecx, 10					; 0000000aH
	jle	SHORT $LN11@xmlValidat
$LN29@xmlValidat:
	mov	edx, DWORD PTR _cur$2[ebp]
	movzx	eax, BYTE PTR [edx]
	cmp	eax, 13					; 0000000dH
	je	SHORT $LN11@xmlValidat
	mov	ecx, DWORD PTR _cur$2[ebp]
	add	ecx, 1
	mov	DWORD PTR _cur$2[ebp], ecx
	jmp	SHORT $LN10@xmlValidat
$LN11@xmlValidat:

; 6532 : 	    save = *cur;

	mov	edx, DWORD PTR _cur$2[ebp]
	mov	al, BYTE PTR [edx]
	mov	BYTE PTR _save$1[ebp], al

; 6533 : 	    *cur = 0;

	mov	ecx, DWORD PTR _cur$2[ebp]
	mov	BYTE PTR [ecx], 0

; 6534 : 	    id = xmlGetID(ctxt->doc, str);

	mov	edx, DWORD PTR _str$3[ebp]
	push	edx
	mov	eax, DWORD PTR _ctxt$[ebp]
	mov	ecx, DWORD PTR [eax+32]
	push	ecx
	call	_xmlGetID
	add	esp, 8
	mov	DWORD PTR _id$[ebp], eax

; 6535 : 	    if (id == NULL) {

	cmp	DWORD PTR _id$[ebp], 0
	jne	SHORT $LN30@xmlValidat

; 6536 : 		xmlErrValidNode(ctxt, attr->parent, XML_DTD_UNKNOWN_ID,

	push	0
	mov	edx, DWORD PTR _str$3[ebp]
	push	edx
	mov	eax, DWORD PTR _attr$[ebp]
	mov	ecx, DWORD PTR [eax+8]
	push	ecx
	push	OFFSET ??_C@_0DD@JBMPIAIH@IDREFS?5attribute?5?$CFs?5references?5@
	push	536					; 00000218H
	mov	edx, DWORD PTR _attr$[ebp]
	mov	eax, DWORD PTR [edx+20]
	push	eax
	mov	ecx, DWORD PTR _ctxt$[ebp]
	push	ecx
	call	_xmlErrValidNode
	add	esp, 28					; 0000001cH

; 6537 : 	   "IDREFS attribute %s references an unknown ID \"%s\"\n",
; 6538 : 			     attr->name, str, NULL);
; 6539 : 		ctxt->valid = 0;

	mov	edx, DWORD PTR _ctxt$[ebp]
	mov	DWORD PTR [edx+36], 0
$LN30@xmlValidat:

; 6540 : 	    }
; 6541 : 	    if (save == 0)

	movzx	eax, BYTE PTR _save$1[ebp]
	test	eax, eax
	jne	SHORT $LN31@xmlValidat

; 6542 : 		break;

	jmp	SHORT $LN9@xmlValidat
$LN31@xmlValidat:

; 6543 : 	    *cur = save;

	mov	ecx, DWORD PTR _cur$2[ebp]
	mov	dl, BYTE PTR _save$1[ebp]
	mov	BYTE PTR [ecx], dl
$LN12@xmlValidat:

; 6544 : 	    while (IS_BLANK_CH(*cur)) cur++;

	mov	eax, DWORD PTR _cur$2[ebp]
	movzx	ecx, BYTE PTR [eax]
	cmp	ecx, 32					; 00000020H
	je	SHORT $LN32@xmlValidat
	mov	edx, DWORD PTR _cur$2[ebp]
	movzx	eax, BYTE PTR [edx]
	cmp	eax, 9
	jl	SHORT $LN33@xmlValidat
	mov	ecx, DWORD PTR _cur$2[ebp]
	movzx	edx, BYTE PTR [ecx]
	cmp	edx, 10					; 0000000aH
	jle	SHORT $LN32@xmlValidat
$LN33@xmlValidat:
	mov	eax, DWORD PTR _cur$2[ebp]
	movzx	ecx, BYTE PTR [eax]
	cmp	ecx, 13					; 0000000dH
	jne	SHORT $LN13@xmlValidat
$LN32@xmlValidat:
	mov	edx, DWORD PTR _cur$2[ebp]
	add	edx, 1
	mov	DWORD PTR _cur$2[ebp], edx
	jmp	SHORT $LN12@xmlValidat
$LN13@xmlValidat:

; 6545 : 	}

	jmp	$LN8@xmlValidat
$LN9@xmlValidat:

; 6546 : 	xmlFree(dup);

	mov	esi, esp
	mov	eax, DWORD PTR _dup$4[ebp]
	push	eax
	call	DWORD PTR _xmlFree
	add	esp, 4
	cmp	esi, esp
	call	__RTC_CheckEsp
$LN1@xmlValidat:

; 6547 :     }
; 6548 : }

	pop	edi
	pop	esi
	add	esp, 40					; 00000028H
	cmp	ebp, esp
	call	__RTC_CheckEsp
	mov	esp, ebp
	pop	ebp
	ret	0
_xmlValidateRef ENDP
_TEXT	ENDS
; Function compile flags: /Odtp /RTCsu
; File c:\users\dag\documents\_clients\codeproject authors group\windows on arm\libxml2\libxml2-2.9.9\valid.c
;	COMDAT _xmlValidGetElemDecl
_TEXT	SEGMENT
_prefix$ = -8						; size = 4
_elemDecl$ = -4						; size = 4
_ctxt$ = 8						; size = 4
_doc$ = 12						; size = 4
_elem$ = 16						; size = 4
_extsubset$ = 20					; size = 4
_xmlValidGetElemDecl PROC				; COMDAT

; 5691 : 	            xmlNodePtr elem, int *extsubset) {

	push	ebp
	mov	ebp, esp
	sub	esp, 8
	mov	DWORD PTR [ebp-8], -858993460		; ccccccccH
	mov	DWORD PTR [ebp-4], -858993460		; ccccccccH
	mov	ecx, OFFSET __56F63275_valid@c
	call	@__CheckForDebuggerJustMyCode@4

; 5692 :     xmlElementPtr elemDecl = NULL;

	mov	DWORD PTR _elemDecl$[ebp], 0

; 5693 :     const xmlChar *prefix = NULL;

	mov	DWORD PTR _prefix$[ebp], 0

; 5694 : 
; 5695 :     if ((ctxt == NULL) || (doc == NULL) ||
; 5696 :         (elem == NULL) || (elem->name == NULL))

	cmp	DWORD PTR _ctxt$[ebp], 0
	je	SHORT $LN3@xmlValidGe
	cmp	DWORD PTR _doc$[ebp], 0
	je	SHORT $LN3@xmlValidGe
	cmp	DWORD PTR _elem$[ebp], 0
	je	SHORT $LN3@xmlValidGe
	mov	eax, DWORD PTR _elem$[ebp]
	cmp	DWORD PTR [eax+8], 0
	jne	SHORT $LN2@xmlValidGe
$LN3@xmlValidGe:

; 5697 :         return(NULL);

	xor	eax, eax
	jmp	$LN1@xmlValidGe
$LN2@xmlValidGe:

; 5698 :     if (extsubset != NULL)

	cmp	DWORD PTR _extsubset$[ebp], 0
	je	SHORT $LN4@xmlValidGe

; 5699 : 	*extsubset = 0;

	mov	ecx, DWORD PTR _extsubset$[ebp]
	mov	DWORD PTR [ecx], 0
$LN4@xmlValidGe:

; 5700 : 
; 5701 :     /*
; 5702 :      * Fetch the declaration for the qualified name
; 5703 :      */
; 5704 :     if ((elem->ns != NULL) && (elem->ns->prefix != NULL))

	mov	edx, DWORD PTR _elem$[ebp]
	cmp	DWORD PTR [edx+36], 0
	je	SHORT $LN5@xmlValidGe
	mov	eax, DWORD PTR _elem$[ebp]
	mov	ecx, DWORD PTR [eax+36]
	cmp	DWORD PTR [ecx+12], 0
	je	SHORT $LN5@xmlValidGe

; 5705 : 	prefix = elem->ns->prefix;

	mov	edx, DWORD PTR _elem$[ebp]
	mov	eax, DWORD PTR [edx+36]
	mov	ecx, DWORD PTR [eax+12]
	mov	DWORD PTR _prefix$[ebp], ecx
$LN5@xmlValidGe:

; 5706 : 
; 5707 :     if (prefix != NULL) {

	cmp	DWORD PTR _prefix$[ebp], 0
	je	SHORT $LN6@xmlValidGe

; 5708 : 	elemDecl = xmlGetDtdQElementDesc(doc->intSubset,

	mov	edx, DWORD PTR _prefix$[ebp]
	push	edx
	mov	eax, DWORD PTR _elem$[ebp]
	mov	ecx, DWORD PTR [eax+8]
	push	ecx
	mov	edx, DWORD PTR _doc$[ebp]
	mov	eax, DWORD PTR [edx+44]
	push	eax
	call	_xmlGetDtdQElementDesc
	add	esp, 12					; 0000000cH
	mov	DWORD PTR _elemDecl$[ebp], eax

; 5709 : 		                         elem->name, prefix);
; 5710 : 	if ((elemDecl == NULL) && (doc->extSubset != NULL)) {

	cmp	DWORD PTR _elemDecl$[ebp], 0
	jne	SHORT $LN6@xmlValidGe
	mov	ecx, DWORD PTR _doc$[ebp]
	cmp	DWORD PTR [ecx+48], 0
	je	SHORT $LN6@xmlValidGe

; 5711 : 	    elemDecl = xmlGetDtdQElementDesc(doc->extSubset,

	mov	edx, DWORD PTR _prefix$[ebp]
	push	edx
	mov	eax, DWORD PTR _elem$[ebp]
	mov	ecx, DWORD PTR [eax+8]
	push	ecx
	mov	edx, DWORD PTR _doc$[ebp]
	mov	eax, DWORD PTR [edx+48]
	push	eax
	call	_xmlGetDtdQElementDesc
	add	esp, 12					; 0000000cH
	mov	DWORD PTR _elemDecl$[ebp], eax

; 5712 : 		                             elem->name, prefix);
; 5713 : 	    if ((elemDecl != NULL) && (extsubset != NULL))

	cmp	DWORD PTR _elemDecl$[ebp], 0
	je	SHORT $LN6@xmlValidGe
	cmp	DWORD PTR _extsubset$[ebp], 0
	je	SHORT $LN6@xmlValidGe

; 5714 : 		*extsubset = 1;

	mov	ecx, DWORD PTR _extsubset$[ebp]
	mov	DWORD PTR [ecx], 1
$LN6@xmlValidGe:

; 5715 : 	}
; 5716 :     }
; 5717 : 
; 5718 :     /*
; 5719 :      * Fetch the declaration for the non qualified name
; 5720 :      * This is "non-strict" validation should be done on the
; 5721 :      * full QName but in that case being flexible makes sense.
; 5722 :      */
; 5723 :     if (elemDecl == NULL) {

	cmp	DWORD PTR _elemDecl$[ebp], 0
	jne	SHORT $LN9@xmlValidGe

; 5724 : 	elemDecl = xmlGetDtdElementDesc(doc->intSubset, elem->name);

	mov	edx, DWORD PTR _elem$[ebp]
	mov	eax, DWORD PTR [edx+8]
	push	eax
	mov	ecx, DWORD PTR _doc$[ebp]
	mov	edx, DWORD PTR [ecx+44]
	push	edx
	call	_xmlGetDtdElementDesc
	add	esp, 8
	mov	DWORD PTR _elemDecl$[ebp], eax

; 5725 : 	if ((elemDecl == NULL) && (doc->extSubset != NULL)) {

	cmp	DWORD PTR _elemDecl$[ebp], 0
	jne	SHORT $LN9@xmlValidGe
	mov	eax, DWORD PTR _doc$[ebp]
	cmp	DWORD PTR [eax+48], 0
	je	SHORT $LN9@xmlValidGe

; 5726 : 	    elemDecl = xmlGetDtdElementDesc(doc->extSubset, elem->name);

	mov	ecx, DWORD PTR _elem$[ebp]
	mov	edx, DWORD PTR [ecx+8]
	push	edx
	mov	eax, DWORD PTR _doc$[ebp]
	mov	ecx, DWORD PTR [eax+48]
	push	ecx
	call	_xmlGetDtdElementDesc
	add	esp, 8
	mov	DWORD PTR _elemDecl$[ebp], eax

; 5727 : 	    if ((elemDecl != NULL) && (extsubset != NULL))

	cmp	DWORD PTR _elemDecl$[ebp], 0
	je	SHORT $LN9@xmlValidGe
	cmp	DWORD PTR _extsubset$[ebp], 0
	je	SHORT $LN9@xmlValidGe

; 5728 : 		*extsubset = 1;

	mov	edx, DWORD PTR _extsubset$[ebp]
	mov	DWORD PTR [edx], 1
$LN9@xmlValidGe:

; 5729 : 	}
; 5730 :     }
; 5731 :     if (elemDecl == NULL) {

	cmp	DWORD PTR _elemDecl$[ebp], 0
	jne	SHORT $LN12@xmlValidGe

; 5732 : 	xmlErrValidNode(ctxt, elem,

	push	0
	push	0
	mov	eax, DWORD PTR _elem$[ebp]
	mov	ecx, DWORD PTR [eax+8]
	push	ecx
	push	OFFSET ??_C@_0BP@CMBGNCIM@No?5declaration?5for?5element?5?$CFs?6@
	push	534					; 00000216H
	mov	edx, DWORD PTR _elem$[ebp]
	push	edx
	mov	eax, DWORD PTR _ctxt$[ebp]
	push	eax
	call	_xmlErrValidNode
	add	esp, 28					; 0000001cH
$LN12@xmlValidGe:

; 5733 : 			XML_DTD_UNKNOWN_ELEM,
; 5734 : 	       "No declaration for element %s\n",
; 5735 : 	       elem->name, NULL, NULL);
; 5736 :     }
; 5737 :     return(elemDecl);

	mov	eax, DWORD PTR _elemDecl$[ebp]
$LN1@xmlValidGe:

; 5738 : }

	add	esp, 8
	cmp	ebp, esp
	call	__RTC_CheckEsp
	mov	esp, ebp
	pop	ebp
	ret	0
_xmlValidGetElemDecl ENDP
_TEXT	ENDS
; Function compile flags: /Odtp /RTCsu
; File c:\users\dag\documents\_clients\codeproject authors group\windows on arm\libxml2\libxml2-2.9.9\valid.c
;	COMDAT _xmlValidateCheckMixed
_TEXT	SEGMENT
_plen$ = -12						; size = 4
_name$ = -4						; size = 4
_ctxt$ = 8						; size = 4
_cont$ = 12						; size = 4
_qname$ = 16						; size = 4
_xmlValidateCheckMixed PROC				; COMDAT

; 5623 : 	              xmlElementContentPtr cont, const xmlChar *qname) {

	push	ebp
	mov	ebp, esp
	sub	esp, 16					; 00000010H
	mov	eax, -858993460				; ccccccccH
	mov	DWORD PTR [ebp-16], eax
	mov	DWORD PTR [ebp-12], eax
	mov	DWORD PTR [ebp-8], eax
	mov	DWORD PTR [ebp-4], eax
	mov	ecx, OFFSET __56F63275_valid@c
	call	@__CheckForDebuggerJustMyCode@4

; 5624 :     const xmlChar *name;
; 5625 :     int plen;
; 5626 :     name = xmlSplitQName3(qname, &plen);

	lea	eax, DWORD PTR _plen$[ebp]
	push	eax
	mov	ecx, DWORD PTR _qname$[ebp]
	push	ecx
	call	_xmlSplitQName3
	add	esp, 8
	mov	DWORD PTR _name$[ebp], eax

; 5627 : 
; 5628 :     if (name == NULL) {

	cmp	DWORD PTR _name$[ebp], 0
	jne	$LN4@xmlValidat
$LN2@xmlValidat:

; 5629 : 	while (cont != NULL) {

	cmp	DWORD PTR _cont$[ebp], 0
	je	$LN3@xmlValidat

; 5630 : 	    if (cont->type == XML_ELEMENT_CONTENT_ELEMENT) {

	mov	edx, DWORD PTR _cont$[ebp]
	cmp	DWORD PTR [edx], 2
	jne	SHORT $LN8@xmlValidat

; 5631 : 		if ((cont->prefix == NULL) && (xmlStrEqual(cont->name, qname)))

	mov	eax, DWORD PTR _cont$[ebp]
	cmp	DWORD PTR [eax+24], 0
	jne	SHORT $LN10@xmlValidat
	mov	ecx, DWORD PTR _qname$[ebp]
	push	ecx
	mov	edx, DWORD PTR _cont$[ebp]
	mov	eax, DWORD PTR [edx+8]
	push	eax
	call	_xmlStrEqual
	add	esp, 8
	test	eax, eax
	je	SHORT $LN10@xmlValidat

; 5632 : 		    return(1);

	mov	eax, 1
	jmp	$LN1@xmlValidat
$LN10@xmlValidat:

; 5633 : 	    } else if ((cont->type == XML_ELEMENT_CONTENT_OR) &&

	jmp	$LN9@xmlValidat
$LN8@xmlValidat:

; 5634 : 	       (cont->c1 != NULL) &&

	mov	ecx, DWORD PTR _cont$[ebp]
	cmp	DWORD PTR [ecx], 4
	jne	SHORT $LN11@xmlValidat
	mov	edx, DWORD PTR _cont$[ebp]
	cmp	DWORD PTR [edx+12], 0
	je	SHORT $LN11@xmlValidat
	mov	eax, DWORD PTR _cont$[ebp]
	mov	ecx, DWORD PTR [eax+12]
	cmp	DWORD PTR [ecx], 2
	jne	SHORT $LN11@xmlValidat

; 5635 : 	       (cont->c1->type == XML_ELEMENT_CONTENT_ELEMENT)){
; 5636 : 		if ((cont->c1->prefix == NULL) &&

	mov	edx, DWORD PTR _cont$[ebp]
	mov	eax, DWORD PTR [edx+12]
	cmp	DWORD PTR [eax+24], 0
	jne	SHORT $LN13@xmlValidat
	mov	ecx, DWORD PTR _qname$[ebp]
	push	ecx
	mov	edx, DWORD PTR _cont$[ebp]
	mov	eax, DWORD PTR [edx+12]
	mov	ecx, DWORD PTR [eax+8]
	push	ecx
	call	_xmlStrEqual
	add	esp, 8
	test	eax, eax
	je	SHORT $LN13@xmlValidat

; 5637 : 		    (xmlStrEqual(cont->c1->name, qname)))
; 5638 : 		    return(1);

	mov	eax, 1
	jmp	$LN1@xmlValidat
$LN13@xmlValidat:

; 5639 : 	    } else if ((cont->type != XML_ELEMENT_CONTENT_OR) ||

	jmp	SHORT $LN9@xmlValidat
$LN11@xmlValidat:

; 5640 : 		(cont->c1 == NULL) ||

	mov	edx, DWORD PTR _cont$[ebp]
	cmp	DWORD PTR [edx], 4
	jne	SHORT $LN15@xmlValidat
	mov	eax, DWORD PTR _cont$[ebp]
	cmp	DWORD PTR [eax+12], 0
	je	SHORT $LN15@xmlValidat
	mov	ecx, DWORD PTR _cont$[ebp]
	mov	edx, DWORD PTR [ecx+12]
	cmp	DWORD PTR [edx], 1
	je	SHORT $LN9@xmlValidat
$LN15@xmlValidat:

; 5641 : 		(cont->c1->type != XML_ELEMENT_CONTENT_PCDATA)){
; 5642 : 		xmlErrValid(NULL, XML_DTD_MIXED_CORRUPT,

	push	0
	push	OFFSET ??_C@_0CC@LMJFIFCG@Internal?3?5MIXED?5struct?5corrupte@
	push	519					; 00000207H
	push	0
	call	_xmlErrValid
	add	esp, 16					; 00000010H

; 5643 : 			"Internal: MIXED struct corrupted\n",
; 5644 : 			NULL);
; 5645 : 		break;

	jmp	SHORT $LN3@xmlValidat
$LN9@xmlValidat:

; 5646 : 	    }
; 5647 : 	    cont = cont->c2;

	mov	eax, DWORD PTR _cont$[ebp]
	mov	ecx, DWORD PTR [eax+16]
	mov	DWORD PTR _cont$[ebp], ecx

; 5648 : 	}

	jmp	$LN2@xmlValidat
$LN3@xmlValidat:

; 5649 :     } else {

	jmp	$LN7@xmlValidat
$LN4@xmlValidat:

; 5650 : 	while (cont != NULL) {

	cmp	DWORD PTR _cont$[ebp], 0
	je	$LN7@xmlValidat

; 5651 : 	    if (cont->type == XML_ELEMENT_CONTENT_ELEMENT) {

	mov	edx, DWORD PTR _cont$[ebp]
	cmp	DWORD PTR [edx], 2
	jne	SHORT $LN16@xmlValidat

; 5652 : 		if ((cont->prefix != NULL) &&
; 5653 : 		    (xmlStrncmp(cont->prefix, qname, plen) == 0) &&

	mov	eax, DWORD PTR _cont$[ebp]
	cmp	DWORD PTR [eax+24], 0
	je	SHORT $LN18@xmlValidat
	mov	ecx, DWORD PTR _plen$[ebp]
	push	ecx
	mov	edx, DWORD PTR _qname$[ebp]
	push	edx
	mov	eax, DWORD PTR _cont$[ebp]
	mov	ecx, DWORD PTR [eax+24]
	push	ecx
	call	_xmlStrncmp
	add	esp, 12					; 0000000cH
	test	eax, eax
	jne	SHORT $LN18@xmlValidat
	mov	edx, DWORD PTR _name$[ebp]
	push	edx
	mov	eax, DWORD PTR _cont$[ebp]
	mov	ecx, DWORD PTR [eax+8]
	push	ecx
	call	_xmlStrEqual
	add	esp, 8
	test	eax, eax
	je	SHORT $LN18@xmlValidat

; 5654 : 		    (xmlStrEqual(cont->name, name)))
; 5655 : 		    return(1);

	mov	eax, 1
	jmp	$LN1@xmlValidat
$LN18@xmlValidat:

; 5656 : 	    } else if ((cont->type == XML_ELEMENT_CONTENT_OR) &&

	jmp	$LN17@xmlValidat
$LN16@xmlValidat:

; 5657 : 	       (cont->c1 != NULL) &&

	mov	edx, DWORD PTR _cont$[ebp]
	cmp	DWORD PTR [edx], 4
	jne	SHORT $LN19@xmlValidat
	mov	eax, DWORD PTR _cont$[ebp]
	cmp	DWORD PTR [eax+12], 0
	je	SHORT $LN19@xmlValidat
	mov	ecx, DWORD PTR _cont$[ebp]
	mov	edx, DWORD PTR [ecx+12]
	cmp	DWORD PTR [edx], 2
	jne	SHORT $LN19@xmlValidat

; 5658 : 	       (cont->c1->type == XML_ELEMENT_CONTENT_ELEMENT)){
; 5659 : 		if ((cont->c1->prefix != NULL) &&
; 5660 : 		    (xmlStrncmp(cont->c1->prefix, qname, plen) == 0) &&

	mov	eax, DWORD PTR _cont$[ebp]
	mov	ecx, DWORD PTR [eax+12]
	cmp	DWORD PTR [ecx+24], 0
	je	SHORT $LN21@xmlValidat
	mov	edx, DWORD PTR _plen$[ebp]
	push	edx
	mov	eax, DWORD PTR _qname$[ebp]
	push	eax
	mov	ecx, DWORD PTR _cont$[ebp]
	mov	edx, DWORD PTR [ecx+12]
	mov	eax, DWORD PTR [edx+24]
	push	eax
	call	_xmlStrncmp
	add	esp, 12					; 0000000cH
	test	eax, eax
	jne	SHORT $LN21@xmlValidat
	mov	ecx, DWORD PTR _name$[ebp]
	push	ecx
	mov	edx, DWORD PTR _cont$[ebp]
	mov	eax, DWORD PTR [edx+12]
	mov	ecx, DWORD PTR [eax+8]
	push	ecx
	call	_xmlStrEqual
	add	esp, 8
	test	eax, eax
	je	SHORT $LN21@xmlValidat

; 5661 : 		    (xmlStrEqual(cont->c1->name, name)))
; 5662 : 		    return(1);

	mov	eax, 1
	jmp	SHORT $LN1@xmlValidat
$LN21@xmlValidat:

; 5663 : 	    } else if ((cont->type != XML_ELEMENT_CONTENT_OR) ||

	jmp	SHORT $LN17@xmlValidat
$LN19@xmlValidat:

; 5664 : 		(cont->c1 == NULL) ||

	mov	edx, DWORD PTR _cont$[ebp]
	cmp	DWORD PTR [edx], 4
	jne	SHORT $LN23@xmlValidat
	mov	eax, DWORD PTR _cont$[ebp]
	cmp	DWORD PTR [eax+12], 0
	je	SHORT $LN23@xmlValidat
	mov	ecx, DWORD PTR _cont$[ebp]
	mov	edx, DWORD PTR [ecx+12]
	cmp	DWORD PTR [edx], 1
	je	SHORT $LN17@xmlValidat
$LN23@xmlValidat:

; 5665 : 		(cont->c1->type != XML_ELEMENT_CONTENT_PCDATA)){
; 5666 : 		xmlErrValid(ctxt, XML_DTD_MIXED_CORRUPT,

	push	0
	push	OFFSET ??_C@_0CC@LMJFIFCG@Internal?3?5MIXED?5struct?5corrupte@
	push	519					; 00000207H
	mov	eax, DWORD PTR _ctxt$[ebp]
	push	eax
	call	_xmlErrValid
	add	esp, 16					; 00000010H

; 5667 : 			"Internal: MIXED struct corrupted\n",
; 5668 : 			NULL);
; 5669 : 		break;

	jmp	SHORT $LN7@xmlValidat
$LN17@xmlValidat:

; 5670 : 	    }
; 5671 : 	    cont = cont->c2;

	mov	ecx, DWORD PTR _cont$[ebp]
	mov	edx, DWORD PTR [ecx+16]
	mov	DWORD PTR _cont$[ebp], edx

; 5672 : 	}

	jmp	$LN4@xmlValidat
$LN7@xmlValidat:

; 5673 :     }
; 5674 :     return(0);

	xor	eax, eax
$LN1@xmlValidat:

; 5675 : }

	push	edx
	mov	ecx, ebp
	push	eax
	lea	edx, DWORD PTR $LN27@xmlValidat
	call	@_RTC_CheckStackVars@8
	pop	eax
	pop	edx
	add	esp, 16					; 00000010H
	cmp	ebp, esp
	call	__RTC_CheckEsp
	mov	esp, ebp
	pop	ebp
	ret	0
	npad	2
$LN27@xmlValidat:
	DD	1
	DD	$LN26@xmlValidat
$LN26@xmlValidat:
	DD	-12					; fffffff4H
	DD	4
	DD	$LN25@xmlValidat
$LN25@xmlValidat:
	DB	112					; 00000070H
	DB	108					; 0000006cH
	DB	101					; 00000065H
	DB	110					; 0000006eH
	DB	0
_xmlValidateCheckMixed ENDP
_TEXT	ENDS
; Function compile flags: /Odtp /RTCsu
; File c:\users\dag\documents\_clients\codeproject authors group\windows on arm\libxml2\libxml2-2.9.9\valid.c
;	COMDAT _xmlValidateOneCdataElement
_TEXT	SEGMENT
tv72 = -16						; size = 4
_child$ = -12						; size = 4
_cur$ = -8						; size = 4
_ret$ = -4						; size = 4
_ctxt$ = 8						; size = 4
_doc$ = 12						; size = 4
_elem$ = 16						; size = 4
_xmlValidateOneCdataElement PROC			; COMDAT

; 5556 :                            xmlNodePtr elem) {

	push	ebp
	mov	ebp, esp
	sub	esp, 16					; 00000010H
	push	esi
	mov	eax, -858993460				; ccccccccH
	mov	DWORD PTR [ebp-16], eax
	mov	DWORD PTR [ebp-12], eax
	mov	DWORD PTR [ebp-8], eax
	mov	DWORD PTR [ebp-4], eax
	mov	ecx, OFFSET __56F63275_valid@c
	call	@__CheckForDebuggerJustMyCode@4

; 5557 :     int ret = 1;

	mov	DWORD PTR _ret$[ebp], 1

; 5558 :     xmlNodePtr cur, child;
; 5559 : 
; 5560 :     if ((ctxt == NULL) || (doc == NULL) || (elem == NULL) ||

	cmp	DWORD PTR _ctxt$[ebp], 0
	je	SHORT $LN9@xmlValidat
	cmp	DWORD PTR _doc$[ebp], 0
	je	SHORT $LN9@xmlValidat
	cmp	DWORD PTR _elem$[ebp], 0
	je	SHORT $LN9@xmlValidat
	mov	eax, DWORD PTR _elem$[ebp]
	cmp	DWORD PTR [eax+4], 1
	je	SHORT $LN8@xmlValidat
$LN9@xmlValidat:

; 5561 :         (elem->type != XML_ELEMENT_NODE))
; 5562 : 	return(0);

	xor	eax, eax
	jmp	$LN1@xmlValidat
$LN8@xmlValidat:

; 5563 : 
; 5564 :     child = elem->children;

	mov	ecx, DWORD PTR _elem$[ebp]
	mov	edx, DWORD PTR [ecx+12]
	mov	DWORD PTR _child$[ebp], edx

; 5565 : 
; 5566 :     cur = child;

	mov	eax, DWORD PTR _child$[ebp]
	mov	DWORD PTR _cur$[ebp], eax
$LN2@xmlValidat:

; 5567 :     while (cur != NULL) {

	cmp	DWORD PTR _cur$[ebp], 0
	je	$done$19

; 5568 : 	switch (cur->type) {

	mov	ecx, DWORD PTR _cur$[ebp]
	mov	edx, DWORD PTR [ecx+4]
	mov	DWORD PTR tv72[ebp], edx
	mov	eax, DWORD PTR tv72[ebp]
	sub	eax, 3
	mov	DWORD PTR tv72[ebp], eax
	cmp	DWORD PTR tv72[ebp], 5
	ja	SHORT $LN13@xmlValidat
	mov	ecx, DWORD PTR tv72[ebp]
	jmp	DWORD PTR $LN18@xmlValidat[ecx*4]
$LN10@xmlValidat:

; 5569 : 	    case XML_ENTITY_REF_NODE:
; 5570 : 		/*
; 5571 : 		 * Push the current node to be able to roll back
; 5572 : 		 * and process within the entity
; 5573 : 		 */
; 5574 : 		if ((cur->children != NULL) &&

	mov	edx, DWORD PTR _cur$[ebp]
	cmp	DWORD PTR [edx+12], 0
	je	SHORT $LN11@xmlValidat
	mov	eax, DWORD PTR _cur$[ebp]
	mov	ecx, DWORD PTR [eax+12]
	cmp	DWORD PTR [ecx+12], 0
	je	SHORT $LN11@xmlValidat

; 5575 : 		    (cur->children->children != NULL)) {
; 5576 : 		    nodeVPush(ctxt, cur);

	mov	edx, DWORD PTR _cur$[ebp]
	push	edx
	mov	eax, DWORD PTR _ctxt$[ebp]
	push	eax
	call	_nodeVPush
	add	esp, 8

; 5577 : 		    cur = cur->children->children;

	mov	ecx, DWORD PTR _cur$[ebp]
	mov	edx, DWORD PTR [ecx+12]
	mov	eax, DWORD PTR [edx+12]
	mov	DWORD PTR _cur$[ebp], eax

; 5578 : 		    continue;

	jmp	SHORT $LN2@xmlValidat
$LN11@xmlValidat:

; 5579 : 		}
; 5580 : 		break;

	jmp	SHORT $LN4@xmlValidat
$LN12@xmlValidat:

; 5581 : 	    case XML_COMMENT_NODE:
; 5582 : 	    case XML_PI_NODE:
; 5583 : 	    case XML_TEXT_NODE:
; 5584 : 	    case XML_CDATA_SECTION_NODE:
; 5585 : 		break;

	jmp	SHORT $LN4@xmlValidat
$LN13@xmlValidat:

; 5586 : 	    default:
; 5587 : 		ret = 0;

	mov	DWORD PTR _ret$[ebp], 0

; 5588 : 		goto done;

	jmp	SHORT $done$19
$LN4@xmlValidat:

; 5589 : 	}
; 5590 : 	/*
; 5591 : 	 * Switch to next element
; 5592 : 	 */
; 5593 : 	cur = cur->next;

	mov	ecx, DWORD PTR _cur$[ebp]
	mov	edx, DWORD PTR [ecx+24]
	mov	DWORD PTR _cur$[ebp], edx
$LN6@xmlValidat:

; 5594 : 	while (cur == NULL) {

	cmp	DWORD PTR _cur$[ebp], 0
	jne	SHORT $LN7@xmlValidat

; 5595 : 	    cur = nodeVPop(ctxt);

	mov	eax, DWORD PTR _ctxt$[ebp]
	push	eax
	call	_nodeVPop
	add	esp, 4
	mov	DWORD PTR _cur$[ebp], eax

; 5596 : 	    if (cur == NULL)

	cmp	DWORD PTR _cur$[ebp], 0
	jne	SHORT $LN14@xmlValidat

; 5597 : 		break;

	jmp	SHORT $LN7@xmlValidat
$LN14@xmlValidat:

; 5598 : 	    cur = cur->next;

	mov	ecx, DWORD PTR _cur$[ebp]
	mov	edx, DWORD PTR [ecx+24]
	mov	DWORD PTR _cur$[ebp], edx

; 5599 : 	}

	jmp	SHORT $LN6@xmlValidat
$LN7@xmlValidat:

; 5600 :     }

	jmp	$LN2@xmlValidat
$done$19:

; 5601 : done:
; 5602 :     ctxt->nodeMax = 0;

	mov	eax, DWORD PTR _ctxt$[ebp]
	mov	DWORD PTR [eax+20], 0

; 5603 :     ctxt->nodeNr = 0;

	mov	ecx, DWORD PTR _ctxt$[ebp]
	mov	DWORD PTR [ecx+16], 0

; 5604 :     if (ctxt->nodeTab != NULL) {

	mov	edx, DWORD PTR _ctxt$[ebp]
	cmp	DWORD PTR [edx+24], 0
	je	SHORT $LN15@xmlValidat

; 5605 : 	xmlFree(ctxt->nodeTab);

	mov	esi, esp
	mov	eax, DWORD PTR _ctxt$[ebp]
	mov	ecx, DWORD PTR [eax+24]
	push	ecx
	call	DWORD PTR _xmlFree
	add	esp, 4
	cmp	esi, esp
	call	__RTC_CheckEsp

; 5606 : 	ctxt->nodeTab = NULL;

	mov	edx, DWORD PTR _ctxt$[ebp]
	mov	DWORD PTR [edx+24], 0
$LN15@xmlValidat:

; 5607 :     }
; 5608 :     return(ret);

	mov	eax, DWORD PTR _ret$[ebp]
$LN1@xmlValidat:

; 5609 : }

	pop	esi
	add	esp, 16					; 00000010H
	cmp	ebp, esp
	call	__RTC_CheckEsp
	mov	esp, ebp
	pop	ebp
	ret	0
	npad	2
$LN18@xmlValidat:
	DD	$LN12@xmlValidat
	DD	$LN12@xmlValidat
	DD	$LN10@xmlValidat
	DD	$LN13@xmlValidat
	DD	$LN12@xmlValidat
	DD	$LN12@xmlValidat
_xmlValidateOneCdataElement ENDP
_TEXT	ENDS
; Function compile flags: /Odtp /RTCsu
; File c:\users\dag\documents\_clients\codeproject authors group\windows on arm\libxml2\libxml2-2.9.9\valid.c
;	COMDAT _xmlValidateElementContent
_TEXT	SEGMENT
tv91 = -10104						; size = 4
_list$1 = -10096					; size = 5000
_expr$2 = -5088						; size = 5000
_fullname$3 = -84					; size = 4
_fn$4 = -76						; size = 50
_exec$5 = -20						; size = 4
_name$ = -16						; size = 4
_cont$ = -12						; size = 4
_cur$ = -8						; size = 4
_ret$ = -4						; size = 4
_ctxt$ = 8						; size = 4
_child$ = 12						; size = 4
_elemDecl$ = 16						; size = 4
_warn$ = 20						; size = 4
_parent$ = 24						; size = 4
_xmlValidateElementContent PROC				; COMDAT

; 5270 :        xmlElementPtr elemDecl, int warn, xmlNodePtr parent) {

	push	ebp
	mov	ebp, esp
	mov	eax, 10104				; 00002778H
	call	__chkstk
	push	esi
	push	edi
	lea	edi, DWORD PTR [ebp-10104]
	mov	ecx, 2526				; 000009deH
	mov	eax, -858993460				; ccccccccH
	rep stosd
	mov	ecx, OFFSET __56F63275_valid@c
	call	@__CheckForDebuggerJustMyCode@4

; 5271 :     int ret = 1;

	mov	DWORD PTR _ret$[ebp], 1

; 5272 : #ifndef  LIBXML_REGEXP_ENABLED
; 5273 :     xmlNodePtr repl = NULL, last = NULL, tmp;
; 5274 : #endif
; 5275 :     xmlNodePtr cur;
; 5276 :     xmlElementContentPtr cont;
; 5277 :     const xmlChar *name;
; 5278 : 
; 5279 :     if ((elemDecl == NULL) || (parent == NULL) || (ctxt == NULL))

	cmp	DWORD PTR _elemDecl$[ebp], 0
	je	SHORT $LN9@xmlValidat
	cmp	DWORD PTR _parent$[ebp], 0
	je	SHORT $LN9@xmlValidat
	cmp	DWORD PTR _ctxt$[ebp], 0
	jne	SHORT $LN8@xmlValidat
$LN9@xmlValidat:

; 5280 : 	return(-1);

	or	eax, -1
	jmp	$LN1@xmlValidat
$LN8@xmlValidat:

; 5281 :     cont = elemDecl->content;

	mov	eax, DWORD PTR _elemDecl$[ebp]
	mov	ecx, DWORD PTR [eax+40]
	mov	DWORD PTR _cont$[ebp], ecx

; 5282 :     name = elemDecl->name;

	mov	edx, DWORD PTR _elemDecl$[ebp]
	mov	eax, DWORD PTR [edx+8]
	mov	DWORD PTR _name$[ebp], eax

; 5283 : 
; 5284 : #ifdef LIBXML_REGEXP_ENABLED
; 5285 :     /* Build the regexp associated to the content model */
; 5286 :     if (elemDecl->contModel == NULL)

	mov	ecx, DWORD PTR _elemDecl$[ebp]
	cmp	DWORD PTR [ecx+52], 0
	jne	SHORT $LN10@xmlValidat

; 5287 : 	ret = xmlValidBuildContentModel(ctxt, elemDecl);

	mov	edx, DWORD PTR _elemDecl$[ebp]
	push	edx
	mov	eax, DWORD PTR _ctxt$[ebp]
	push	eax
	call	_xmlValidBuildContentModel
	add	esp, 8
	mov	DWORD PTR _ret$[ebp], eax
$LN10@xmlValidat:

; 5288 :     if (elemDecl->contModel == NULL) {

	mov	ecx, DWORD PTR _elemDecl$[ebp]
	cmp	DWORD PTR [ecx+52], 0
	jne	SHORT $LN11@xmlValidat

; 5289 : 	return(-1);

	or	eax, -1
	jmp	$LN1@xmlValidat

; 5290 :     } else {

	jmp	$LN12@xmlValidat
$LN11@xmlValidat:

; 5291 : 	xmlRegExecCtxtPtr exec;
; 5292 : 
; 5293 : 	if (!xmlRegexpIsDeterminist(elemDecl->contModel)) {

	mov	edx, DWORD PTR _elemDecl$[ebp]
	mov	eax, DWORD PTR [edx+52]
	push	eax
	call	_xmlRegexpIsDeterminist
	add	esp, 4
	test	eax, eax
	jne	SHORT $LN13@xmlValidat

; 5294 : 	    return(-1);

	or	eax, -1
	jmp	$LN1@xmlValidat
$LN13@xmlValidat:

; 5295 : 	}
; 5296 : 	ctxt->nodeMax = 0;

	mov	ecx, DWORD PTR _ctxt$[ebp]
	mov	DWORD PTR [ecx+20], 0

; 5297 : 	ctxt->nodeNr = 0;

	mov	edx, DWORD PTR _ctxt$[ebp]
	mov	DWORD PTR [edx+16], 0

; 5298 : 	ctxt->nodeTab = NULL;

	mov	eax, DWORD PTR _ctxt$[ebp]
	mov	DWORD PTR [eax+24], 0

; 5299 : 	exec = xmlRegNewExecCtxt(elemDecl->contModel, NULL, NULL);

	push	0
	push	0
	mov	ecx, DWORD PTR _elemDecl$[ebp]
	mov	edx, DWORD PTR [ecx+52]
	push	edx
	call	_xmlRegNewExecCtxt
	add	esp, 12					; 0000000cH
	mov	DWORD PTR _exec$5[ebp], eax

; 5300 : 	if (exec != NULL) {

	cmp	DWORD PTR _exec$5[ebp], 0
	je	$LN12@xmlValidat

; 5301 : 	    cur = child;

	mov	eax, DWORD PTR _child$[ebp]
	mov	DWORD PTR _cur$[ebp], eax
$LN2@xmlValidat:

; 5302 : 	    while (cur != NULL) {

	cmp	DWORD PTR _cur$[ebp], 0
	je	$LN3@xmlValidat

; 5303 : 		switch (cur->type) {

	mov	ecx, DWORD PTR _cur$[ebp]
	mov	edx, DWORD PTR [ecx+4]
	mov	DWORD PTR tv91[ebp], edx
	mov	eax, DWORD PTR tv91[ebp]
	sub	eax, 1
	mov	DWORD PTR tv91[ebp], eax
	cmp	DWORD PTR tv91[ebp], 4
	ja	$LN4@xmlValidat
	mov	ecx, DWORD PTR tv91[ebp]
	jmp	DWORD PTR $LN43@xmlValidat[ecx*4]
$LN15@xmlValidat:

; 5304 : 		    case XML_ENTITY_REF_NODE:
; 5305 : 			/*
; 5306 : 			 * Push the current node to be able to roll back
; 5307 : 			 * and process within the entity
; 5308 : 			 */
; 5309 : 			if ((cur->children != NULL) &&

	mov	edx, DWORD PTR _cur$[ebp]
	cmp	DWORD PTR [edx+12], 0
	je	SHORT $LN16@xmlValidat
	mov	eax, DWORD PTR _cur$[ebp]
	mov	ecx, DWORD PTR [eax+12]
	cmp	DWORD PTR [ecx+12], 0
	je	SHORT $LN16@xmlValidat

; 5310 : 			    (cur->children->children != NULL)) {
; 5311 : 			    nodeVPush(ctxt, cur);

	mov	edx, DWORD PTR _cur$[ebp]
	push	edx
	mov	eax, DWORD PTR _ctxt$[ebp]
	push	eax
	call	_nodeVPush
	add	esp, 8

; 5312 : 			    cur = cur->children->children;

	mov	ecx, DWORD PTR _cur$[ebp]
	mov	edx, DWORD PTR [ecx+12]
	mov	eax, DWORD PTR [edx+12]
	mov	DWORD PTR _cur$[ebp], eax

; 5313 : 			    continue;

	jmp	SHORT $LN2@xmlValidat
$LN16@xmlValidat:

; 5314 : 			}
; 5315 : 			break;

	jmp	$LN4@xmlValidat
$LN17@xmlValidat:

; 5316 : 		    case XML_TEXT_NODE:
; 5317 : 			if (xmlIsBlankNode(cur))

	mov	ecx, DWORD PTR _cur$[ebp]
	push	ecx
	call	_xmlIsBlankNode
	add	esp, 4
	test	eax, eax
	je	SHORT $LN18@xmlValidat

; 5318 : 			    break;

	jmp	$LN4@xmlValidat
$LN18@xmlValidat:

; 5319 : 			ret = 0;

	mov	DWORD PTR _ret$[ebp], 0

; 5320 : 			goto fail;

	jmp	$fail$44
$LN19@xmlValidat:

; 5321 : 		    case XML_CDATA_SECTION_NODE:
; 5322 : 			/* TODO */
; 5323 : 			ret = 0;

	mov	DWORD PTR _ret$[ebp], 0

; 5324 : 			goto fail;

	jmp	$fail$44
$LN20@xmlValidat:

; 5325 : 		    case XML_ELEMENT_NODE:
; 5326 : 			if ((cur->ns != NULL) && (cur->ns->prefix != NULL)) {

	mov	edx, DWORD PTR _cur$[ebp]
	cmp	DWORD PTR [edx+36], 0
	je	$LN21@xmlValidat
	mov	eax, DWORD PTR _cur$[ebp]
	mov	ecx, DWORD PTR [eax+36]
	cmp	DWORD PTR [ecx+12], 0
	je	SHORT $LN21@xmlValidat

; 5327 : 			    xmlChar fn[50];
; 5328 : 			    xmlChar *fullname;
; 5329 : 
; 5330 : 			    fullname = xmlBuildQName(cur->name,

	push	50					; 00000032H
	lea	edx, DWORD PTR _fn$4[ebp]
	push	edx
	mov	eax, DWORD PTR _cur$[ebp]
	mov	ecx, DWORD PTR [eax+36]
	mov	edx, DWORD PTR [ecx+12]
	push	edx
	mov	eax, DWORD PTR _cur$[ebp]
	mov	ecx, DWORD PTR [eax+8]
	push	ecx
	call	_xmlBuildQName
	add	esp, 16					; 00000010H
	mov	DWORD PTR _fullname$3[ebp], eax

; 5331 : 				                     cur->ns->prefix, fn, 50);
; 5332 : 			    if (fullname == NULL) {

	cmp	DWORD PTR _fullname$3[ebp], 0
	jne	SHORT $LN23@xmlValidat

; 5333 : 				ret = -1;

	mov	DWORD PTR _ret$[ebp], -1

; 5334 : 				goto fail;

	jmp	$fail$44
$LN23@xmlValidat:

; 5335 : 			    }
; 5336 :                             ret = xmlRegExecPushString(exec, fullname, NULL);

	push	0
	mov	edx, DWORD PTR _fullname$3[ebp]
	push	edx
	mov	eax, DWORD PTR _exec$5[ebp]
	push	eax
	call	_xmlRegExecPushString
	add	esp, 12					; 0000000cH
	mov	DWORD PTR _ret$[ebp], eax

; 5337 : 			    if ((fullname != fn) && (fullname != cur->name))

	lea	ecx, DWORD PTR _fn$4[ebp]
	cmp	DWORD PTR _fullname$3[ebp], ecx
	je	SHORT $LN24@xmlValidat
	mov	edx, DWORD PTR _cur$[ebp]
	mov	eax, DWORD PTR _fullname$3[ebp]
	cmp	eax, DWORD PTR [edx+8]
	je	SHORT $LN24@xmlValidat

; 5338 : 				xmlFree(fullname);

	mov	esi, esp
	mov	ecx, DWORD PTR _fullname$3[ebp]
	push	ecx
	call	DWORD PTR _xmlFree
	add	esp, 4
	cmp	esi, esp
	call	__RTC_CheckEsp
$LN24@xmlValidat:

; 5339 : 			} else {

	jmp	SHORT $LN4@xmlValidat
$LN21@xmlValidat:

; 5340 : 			    ret = xmlRegExecPushString(exec, cur->name, NULL);

	push	0
	mov	edx, DWORD PTR _cur$[ebp]
	mov	eax, DWORD PTR [edx+8]
	push	eax
	mov	ecx, DWORD PTR _exec$5[ebp]
	push	ecx
	call	_xmlRegExecPushString
	add	esp, 12					; 0000000cH
	mov	DWORD PTR _ret$[ebp], eax
$LN4@xmlValidat:

; 5341 : 			}
; 5342 : 			break;
; 5343 : 		    default:
; 5344 : 			break;
; 5345 : 		}
; 5346 : 		/*
; 5347 : 		 * Switch to next element
; 5348 : 		 */
; 5349 : 		cur = cur->next;

	mov	edx, DWORD PTR _cur$[ebp]
	mov	eax, DWORD PTR [edx+24]
	mov	DWORD PTR _cur$[ebp], eax
$LN6@xmlValidat:

; 5350 : 		while (cur == NULL) {

	cmp	DWORD PTR _cur$[ebp], 0
	jne	SHORT $LN7@xmlValidat

; 5351 : 		    cur = nodeVPop(ctxt);

	mov	ecx, DWORD PTR _ctxt$[ebp]
	push	ecx
	call	_nodeVPop
	add	esp, 4
	mov	DWORD PTR _cur$[ebp], eax

; 5352 : 		    if (cur == NULL)

	cmp	DWORD PTR _cur$[ebp], 0
	jne	SHORT $LN26@xmlValidat

; 5353 : 			break;

	jmp	SHORT $LN7@xmlValidat
$LN26@xmlValidat:

; 5354 : 		    cur = cur->next;

	mov	edx, DWORD PTR _cur$[ebp]
	mov	eax, DWORD PTR [edx+24]
	mov	DWORD PTR _cur$[ebp], eax

; 5355 : 		}

	jmp	SHORT $LN6@xmlValidat
$LN7@xmlValidat:

; 5356 : 	    }

	jmp	$LN2@xmlValidat
$LN3@xmlValidat:

; 5357 : 	    ret = xmlRegExecPushString(exec, NULL, NULL);

	push	0
	push	0
	mov	ecx, DWORD PTR _exec$5[ebp]
	push	ecx
	call	_xmlRegExecPushString
	add	esp, 12					; 0000000cH
	mov	DWORD PTR _ret$[ebp], eax
$fail$44:

; 5358 : fail:
; 5359 : 	    xmlRegFreeExecCtxt(exec);

	mov	edx, DWORD PTR _exec$5[ebp]
	push	edx
	call	_xmlRegFreeExecCtxt
	add	esp, 4
$LN12@xmlValidat:

; 5360 : 	}
; 5361 :     }
; 5362 : #else  /* LIBXML_REGEXP_ENABLED */
; 5363 :     /*
; 5364 :      * Allocate the stack
; 5365 :      */
; 5366 :     ctxt->vstateMax = 8;
; 5367 :     ctxt->vstateTab = (xmlValidState *) xmlMalloc(
; 5368 : 		 ctxt->vstateMax * sizeof(ctxt->vstateTab[0]));
; 5369 :     if (ctxt->vstateTab == NULL) {
; 5370 : 	xmlVErrMemory(ctxt, "malloc failed");
; 5371 : 	return(-1);
; 5372 :     }
; 5373 :     /*
; 5374 :      * The first entry in the stack is reserved to the current state
; 5375 :      */
; 5376 :     ctxt->nodeMax = 0;
; 5377 :     ctxt->nodeNr = 0;
; 5378 :     ctxt->nodeTab = NULL;
; 5379 :     ctxt->vstate = &ctxt->vstateTab[0];
; 5380 :     ctxt->vstateNr = 1;
; 5381 :     CONT = cont;
; 5382 :     NODE = child;
; 5383 :     DEPTH = 0;
; 5384 :     OCCURS = 0;
; 5385 :     STATE = 0;
; 5386 :     ret = xmlValidateElementType(ctxt);
; 5387 :     if ((ret == -3) && (warn)) {
; 5388 : 	xmlErrValidWarning(ctxt, child, XML_DTD_CONTENT_NOT_DETERMINIST,
; 5389 : 	       "Content model for Element %s is ambiguous\n",
; 5390 : 	                   name, NULL, NULL);
; 5391 :     } else if (ret == -2) {
; 5392 : 	/*
; 5393 : 	 * An entities reference appeared at this level.
; 5394 : 	 * Buid a minimal representation of this node content
; 5395 : 	 * sufficient to run the validation process on it
; 5396 : 	 */
; 5397 : 	DEBUG_VALID_MSG("Found an entity reference, linearizing");
; 5398 : 	cur = child;
; 5399 : 	while (cur != NULL) {
; 5400 : 	    switch (cur->type) {
; 5401 : 		case XML_ENTITY_REF_NODE:
; 5402 : 		    /*
; 5403 : 		     * Push the current node to be able to roll back
; 5404 : 		     * and process within the entity
; 5405 : 		     */
; 5406 : 		    if ((cur->children != NULL) &&
; 5407 : 			(cur->children->children != NULL)) {
; 5408 : 			nodeVPush(ctxt, cur);
; 5409 : 			cur = cur->children->children;
; 5410 : 			continue;
; 5411 : 		    }
; 5412 : 		    break;
; 5413 : 		case XML_TEXT_NODE:
; 5414 : 		    if (xmlIsBlankNode(cur))
; 5415 : 			break;
; 5416 : 		    /* no break on purpose */
; 5417 : 		case XML_CDATA_SECTION_NODE:
; 5418 : 		    /* no break on purpose */
; 5419 : 		case XML_ELEMENT_NODE:
; 5420 : 		    /*
; 5421 : 		     * Allocate a new node and minimally fills in
; 5422 : 		     * what's required
; 5423 : 		     */
; 5424 : 		    tmp = (xmlNodePtr) xmlMalloc(sizeof(xmlNode));
; 5425 : 		    if (tmp == NULL) {
; 5426 : 			xmlVErrMemory(ctxt, "malloc failed");
; 5427 : 			xmlFreeNodeList(repl);
; 5428 : 			ret = -1;
; 5429 : 			goto done;
; 5430 : 		    }
; 5431 : 		    tmp->type = cur->type;
; 5432 : 		    tmp->name = cur->name;
; 5433 : 		    tmp->ns = cur->ns;
; 5434 : 		    tmp->next = NULL;
; 5435 : 		    tmp->content = NULL;
; 5436 : 		    if (repl == NULL)
; 5437 : 			repl = last = tmp;
; 5438 : 		    else {
; 5439 : 			last->next = tmp;
; 5440 : 			last = tmp;
; 5441 : 		    }
; 5442 : 		    if (cur->type == XML_CDATA_SECTION_NODE) {
; 5443 : 			/*
; 5444 : 			 * E59 spaces in CDATA does not match the
; 5445 : 			 * nonterminal S
; 5446 : 			 */
; 5447 : 			tmp->content = xmlStrdup(BAD_CAST "CDATA");
; 5448 : 		    }
; 5449 : 		    break;
; 5450 : 		default:
; 5451 : 		    break;
; 5452 : 	    }
; 5453 : 	    /*
; 5454 : 	     * Switch to next element
; 5455 : 	     */
; 5456 : 	    cur = cur->next;
; 5457 : 	    while (cur == NULL) {
; 5458 : 		cur = nodeVPop(ctxt);
; 5459 : 		if (cur == NULL)
; 5460 : 		    break;
; 5461 : 		cur = cur->next;
; 5462 : 	    }
; 5463 : 	}
; 5464 : 
; 5465 : 	/*
; 5466 : 	 * Relaunch the validation
; 5467 : 	 */
; 5468 : 	ctxt->vstate = &ctxt->vstateTab[0];
; 5469 : 	ctxt->vstateNr = 1;
; 5470 : 	CONT = cont;
; 5471 : 	NODE = repl;
; 5472 : 	DEPTH = 0;
; 5473 : 	OCCURS = 0;
; 5474 : 	STATE = 0;
; 5475 : 	ret = xmlValidateElementType(ctxt);
; 5476 :     }
; 5477 : #endif /* LIBXML_REGEXP_ENABLED */
; 5478 :     if ((warn) && ((ret != 1) && (ret != -3))) {

	cmp	DWORD PTR _warn$[ebp], 0
	je	$LN27@xmlValidat
	cmp	DWORD PTR _ret$[ebp], 1
	je	$LN27@xmlValidat
	cmp	DWORD PTR _ret$[ebp], -3		; fffffffdH
	je	$LN27@xmlValidat

; 5479 : 	if (ctxt != NULL) {

	cmp	DWORD PTR _ctxt$[ebp], 0
	je	$LN28@xmlValidat

; 5480 : 	    char expr[5000];
; 5481 : 	    char list[5000];
; 5482 : 
; 5483 : 	    expr[0] = 0;

	mov	eax, 1
	imul	ecx, eax, 0
	mov	BYTE PTR _expr$2[ebp+ecx], 0

; 5484 : 	    xmlSnprintfElementContent(&expr[0], 5000, cont, 1);

	push	1
	mov	edx, DWORD PTR _cont$[ebp]
	push	edx
	push	5000					; 00001388H
	mov	eax, 1
	imul	ecx, eax, 0
	lea	edx, DWORD PTR _expr$2[ebp+ecx]
	push	edx
	call	_xmlSnprintfElementContent
	add	esp, 16					; 00000010H

; 5485 : 	    list[0] = 0;

	mov	eax, 1
	imul	ecx, eax, 0
	mov	BYTE PTR _list$1[ebp+ecx], 0

; 5486 : #ifndef LIBXML_REGEXP_ENABLED
; 5487 : 	    if (repl != NULL)
; 5488 : 		xmlSnprintfElements(&list[0], 5000, repl, 1);
; 5489 : 	    else
; 5490 : #endif /* LIBXML_REGEXP_ENABLED */
; 5491 : 		xmlSnprintfElements(&list[0], 5000, child, 1);

	push	1
	mov	edx, DWORD PTR _child$[ebp]
	push	edx
	push	5000					; 00001388H
	mov	eax, 1
	imul	ecx, eax, 0
	lea	edx, DWORD PTR _list$1[ebp+ecx]
	push	edx
	call	_xmlSnprintfElements
	add	esp, 16					; 00000010H

; 5492 : 
; 5493 : 	    if (name != NULL) {

	cmp	DWORD PTR _name$[ebp], 0
	je	SHORT $LN30@xmlValidat

; 5494 : 		xmlErrValidNode(ctxt, parent, XML_DTD_CONTENT_MODEL,

	lea	eax, DWORD PTR _list$1[ebp]
	push	eax
	lea	ecx, DWORD PTR _expr$2[ebp]
	push	ecx
	mov	edx, DWORD PTR _name$[ebp]
	push	edx
	push	OFFSET ??_C@_0EC@IAKGOMPC@Element?5?$CFs?5content?5does?5not?5fol@
	push	504					; 000001f8H
	mov	eax, DWORD PTR _parent$[ebp]
	push	eax
	mov	ecx, DWORD PTR _ctxt$[ebp]
	push	ecx
	call	_xmlErrValidNode
	add	esp, 28					; 0000001cH

; 5495 : 	   "Element %s content does not follow the DTD, expecting %s, got %s\n",
; 5496 : 		       name, BAD_CAST expr, BAD_CAST list);
; 5497 : 	    } else {

	jmp	SHORT $LN31@xmlValidat
$LN30@xmlValidat:

; 5498 : 		xmlErrValidNode(ctxt, parent, XML_DTD_CONTENT_MODEL,

	push	0
	lea	edx, DWORD PTR _list$1[ebp]
	push	edx
	lea	eax, DWORD PTR _expr$2[ebp]
	push	eax
	push	OFFSET ??_C@_0DP@CBELDNAH@Element?5content?5does?5not?5follow@
	push	504					; 000001f8H
	mov	ecx, DWORD PTR _parent$[ebp]
	push	ecx
	mov	edx, DWORD PTR _ctxt$[ebp]
	push	edx
	call	_xmlErrValidNode
	add	esp, 28					; 0000001cH
$LN31@xmlValidat:

; 5499 : 	   "Element content does not follow the DTD, expecting %s, got %s\n",
; 5500 : 		       BAD_CAST expr, BAD_CAST list, NULL);
; 5501 : 	    }
; 5502 : 	} else {

	jmp	SHORT $LN29@xmlValidat
$LN28@xmlValidat:

; 5503 : 	    if (name != NULL) {

	cmp	DWORD PTR _name$[ebp], 0
	je	SHORT $LN32@xmlValidat

; 5504 : 		xmlErrValidNode(ctxt, parent, XML_DTD_CONTENT_MODEL,

	push	0
	push	0
	mov	eax, DWORD PTR _name$[ebp]
	push	eax
	push	OFFSET ??_C@_0CM@BLHDJNNL@Element?5?$CFs?5content?5does?5not?5fol@
	push	504					; 000001f8H
	mov	ecx, DWORD PTR _parent$[ebp]
	push	ecx
	mov	edx, DWORD PTR _ctxt$[ebp]
	push	edx
	call	_xmlErrValidNode
	add	esp, 28					; 0000001cH

; 5505 : 		       "Element %s content does not follow the DTD\n",
; 5506 : 		       name, NULL, NULL);
; 5507 : 	    } else {

	jmp	SHORT $LN29@xmlValidat
$LN32@xmlValidat:

; 5508 : 		xmlErrValidNode(ctxt, parent, XML_DTD_CONTENT_MODEL,

	push	0
	push	0
	push	0
	push	OFFSET ??_C@_0CJ@JFPHFAJJ@Element?5content?5does?5not?5follow@
	push	504					; 000001f8H
	mov	eax, DWORD PTR _parent$[ebp]
	push	eax
	mov	ecx, DWORD PTR _ctxt$[ebp]
	push	ecx
	call	_xmlErrValidNode
	add	esp, 28					; 0000001cH
$LN29@xmlValidat:

; 5509 : 		       "Element content does not follow the DTD\n",
; 5510 : 		                NULL, NULL, NULL);
; 5511 : 	    }
; 5512 : 	}
; 5513 : 	ret = 0;

	mov	DWORD PTR _ret$[ebp], 0
$LN27@xmlValidat:

; 5514 :     }
; 5515 :     if (ret == -3)

	cmp	DWORD PTR _ret$[ebp], -3		; fffffffdH
	jne	SHORT $LN34@xmlValidat

; 5516 : 	ret = 1;

	mov	DWORD PTR _ret$[ebp], 1
$LN34@xmlValidat:

; 5517 : 
; 5518 : #ifndef  LIBXML_REGEXP_ENABLED
; 5519 : done:
; 5520 :     /*
; 5521 :      * Deallocate the copy if done, and free up the validation stack
; 5522 :      */
; 5523 :     while (repl != NULL) {
; 5524 : 	tmp = repl->next;
; 5525 : 	xmlFree(repl);
; 5526 : 	repl = tmp;
; 5527 :     }
; 5528 :     ctxt->vstateMax = 0;
; 5529 :     if (ctxt->vstateTab != NULL) {
; 5530 : 	xmlFree(ctxt->vstateTab);
; 5531 : 	ctxt->vstateTab = NULL;
; 5532 :     }
; 5533 : #endif
; 5534 :     ctxt->nodeMax = 0;

	mov	edx, DWORD PTR _ctxt$[ebp]
	mov	DWORD PTR [edx+20], 0

; 5535 :     ctxt->nodeNr = 0;

	mov	eax, DWORD PTR _ctxt$[ebp]
	mov	DWORD PTR [eax+16], 0

; 5536 :     if (ctxt->nodeTab != NULL) {

	mov	ecx, DWORD PTR _ctxt$[ebp]
	cmp	DWORD PTR [ecx+24], 0
	je	SHORT $LN35@xmlValidat

; 5537 : 	xmlFree(ctxt->nodeTab);

	mov	esi, esp
	mov	edx, DWORD PTR _ctxt$[ebp]
	mov	eax, DWORD PTR [edx+24]
	push	eax
	call	DWORD PTR _xmlFree
	add	esp, 4
	cmp	esi, esp
	call	__RTC_CheckEsp

; 5538 : 	ctxt->nodeTab = NULL;

	mov	ecx, DWORD PTR _ctxt$[ebp]
	mov	DWORD PTR [ecx+24], 0
$LN35@xmlValidat:

; 5539 :     }
; 5540 :     return(ret);

	mov	eax, DWORD PTR _ret$[ebp]
$LN1@xmlValidat:

; 5541 : 
; 5542 : }

	push	edx
	mov	ecx, ebp
	push	eax
	lea	edx, DWORD PTR $LN42@xmlValidat
	call	@_RTC_CheckStackVars@8
	pop	eax
	pop	edx
	pop	edi
	pop	esi
	add	esp, 10104				; 00002778H
	cmp	ebp, esp
	call	__RTC_CheckEsp
	mov	esp, ebp
	pop	ebp
	ret	0
$LN42@xmlValidat:
	DD	3
	DD	$LN41@xmlValidat
$LN41@xmlValidat:
	DD	-76					; ffffffb4H
	DD	50					; 00000032H
	DD	$LN38@xmlValidat
	DD	-5088					; ffffec20H
	DD	5000					; 00001388H
	DD	$LN39@xmlValidat
	DD	-10096					; ffffd890H
	DD	5000					; 00001388H
	DD	$LN40@xmlValidat
$LN40@xmlValidat:
	DB	108					; 0000006cH
	DB	105					; 00000069H
	DB	115					; 00000073H
	DB	116					; 00000074H
	DB	0
$LN39@xmlValidat:
	DB	101					; 00000065H
	DB	120					; 00000078H
	DB	112					; 00000070H
	DB	114					; 00000072H
	DB	0
$LN38@xmlValidat:
	DB	102					; 00000066H
	DB	110					; 0000006eH
	DB	0
	npad	3
$LN43@xmlValidat:
	DD	$LN20@xmlValidat
	DD	$LN4@xmlValidat
	DD	$LN17@xmlValidat
	DD	$LN19@xmlValidat
	DD	$LN15@xmlValidat
_xmlValidateElementContent ENDP
_TEXT	ENDS
; Function compile flags: /Odtp /RTCsu
; File c:\users\dag\documents\_clients\codeproject authors group\windows on arm\libxml2\libxml2-2.9.9\valid.c
;	COMDAT _xmlSnprintfElements
_TEXT	SEGMENT
tv448 = -169						; size = 1
tv445 = -168						; size = 4
tv435 = -161						; size = 1
tv432 = -160						; size = 4
tv423 = -153						; size = 1
tv420 = -152						; size = 4
tv412 = -145						; size = 1
tv409 = -144						; size = 4
tv398 = -137						; size = 1
tv395 = -136						; size = 4
tv385 = -129						; size = 1
tv382 = -128						; size = 4
tv365 = -121						; size = 1
tv362 = -120						; size = 4
tv359 = -116						; size = 4
tv358 = -112						; size = 4
tv353 = -105						; size = 1
tv350 = -104						; size = 4
tv348 = -100						; size = 4
tv338 = -93						; size = 1
tv335 = -92						; size = 4
tv321 = -85						; size = 1
tv318 = -84						; size = 4
tv302 = -77						; size = 1
tv299 = -76						; size = 4
tv296 = -72						; size = 4
tv295 = -68						; size = 4
tv290 = -61						; size = 1
tv287 = -60						; size = 4
tv285 = -56						; size = 4
tv275 = -49						; size = 1
tv272 = -48						; size = 4
tv88 = -44						; size = 4
tv249 = -37						; size = 1
tv246 = -36						; size = 4
tv73 = -32						; size = 4
tv236 = -25						; size = 1
tv233 = -24						; size = 4
tv230 = -20						; size = 4
tv222 = -13						; size = 1
tv219 = -12						; size = 4
_len$ = -8						; size = 4
_cur$ = -4						; size = 4
_buf$ = 8						; size = 4
_size$ = 12						; size = 4
_node$ = 16						; size = 4
_glob$ = 20						; size = 4
_xmlSnprintfElements PROC				; COMDAT

; 5181 : xmlSnprintfElements(char *buf, int size, xmlNodePtr node, int glob) {

	push	ebp
	mov	ebp, esp
	sub	esp, 172				; 000000acH
	push	esi
	push	edi
	lea	edi, DWORD PTR [ebp-172]
	mov	ecx, 43					; 0000002bH
	mov	eax, -858993460				; ccccccccH
	rep stosd
	mov	ecx, OFFSET __56F63275_valid@c
	call	@__CheckForDebuggerJustMyCode@4

; 5182 :     xmlNodePtr cur;
; 5183 :     int len;
; 5184 : 
; 5185 :     if (node == NULL) return;

	cmp	DWORD PTR _node$[ebp], 0
	jne	SHORT $LN6@xmlSnprint
	jmp	$LN1@xmlSnprint
$LN6@xmlSnprint:

; 5186 :     if (glob) strcat(buf, "(");

	cmp	DWORD PTR _glob$[ebp], 0
	je	SHORT $LN7@xmlSnprint
	mov	eax, DWORD PTR _buf$[ebp]
	add	eax, -1
	mov	DWORD PTR tv219[ebp], eax
$LL26@xmlSnprint:
	mov	ecx, DWORD PTR tv219[ebp]
	mov	dl, BYTE PTR [ecx+1]
	mov	BYTE PTR tv222[ebp], dl
	add	DWORD PTR tv219[ebp], 1
	cmp	BYTE PTR tv222[ebp], 0
	jne	SHORT $LL26@xmlSnprint
	mov	edi, DWORD PTR tv219[ebp]
	mov	ax, WORD PTR ??_C@_01ODHLEDKK@?$CI@
	mov	WORD PTR [edi], ax
$LN7@xmlSnprint:

; 5187 :     cur = node;

	mov	ecx, DWORD PTR _node$[ebp]
	mov	DWORD PTR _cur$[ebp], ecx
$LN2@xmlSnprint:

; 5188 :     while (cur != NULL) {

	cmp	DWORD PTR _cur$[ebp], 0
	je	$LN3@xmlSnprint

; 5189 : 	len = strlen(buf);

	mov	edx, DWORD PTR _buf$[ebp]
	mov	DWORD PTR tv230[ebp], edx
	mov	eax, DWORD PTR tv230[ebp]
	add	eax, 1
	mov	DWORD PTR tv233[ebp], eax
$LL27@xmlSnprint:
	mov	ecx, DWORD PTR tv230[ebp]
	mov	dl, BYTE PTR [ecx]
	mov	BYTE PTR tv236[ebp], dl
	add	DWORD PTR tv230[ebp], 1
	cmp	BYTE PTR tv236[ebp], 0
	jne	SHORT $LL27@xmlSnprint
	mov	eax, DWORD PTR tv230[ebp]
	sub	eax, DWORD PTR tv233[ebp]
	mov	DWORD PTR tv73[ebp], eax
	mov	ecx, DWORD PTR tv73[ebp]
	mov	DWORD PTR _len$[ebp], ecx

; 5190 : 	if (size - len < 50) {

	mov	edx, DWORD PTR _size$[ebp]
	sub	edx, DWORD PTR _len$[ebp]
	cmp	edx, 50					; 00000032H
	jge	SHORT $LN8@xmlSnprint

; 5191 : 	    if ((size - len > 4) && (buf[len - 1] != '.'))

	mov	eax, DWORD PTR _size$[ebp]
	sub	eax, DWORD PTR _len$[ebp]
	cmp	eax, 4
	jle	SHORT $LN9@xmlSnprint
	mov	ecx, DWORD PTR _buf$[ebp]
	add	ecx, DWORD PTR _len$[ebp]
	movsx	edx, BYTE PTR [ecx-1]
	cmp	edx, 46					; 0000002eH
	je	SHORT $LN9@xmlSnprint

; 5192 : 		strcat(buf, " ...");

	mov	eax, DWORD PTR _buf$[ebp]
	add	eax, -1
	mov	DWORD PTR tv246[ebp], eax
$LL28@xmlSnprint:
	mov	ecx, DWORD PTR tv246[ebp]
	mov	dl, BYTE PTR [ecx+1]
	mov	BYTE PTR tv249[ebp], dl
	add	DWORD PTR tv246[ebp], 1
	cmp	BYTE PTR tv249[ebp], 0
	jne	SHORT $LL28@xmlSnprint
	mov	edi, DWORD PTR tv246[ebp]
	mov	eax, DWORD PTR ??_C@_04IBCFJNCN@?5?4?4?4@
	mov	DWORD PTR [edi], eax
	mov	cl, BYTE PTR ??_C@_04IBCFJNCN@?5?4?4?4@+4
	mov	BYTE PTR [edi+4], cl
$LN9@xmlSnprint:

; 5193 : 	    return;

	jmp	$LN1@xmlSnprint
$LN8@xmlSnprint:

; 5194 : 	}
; 5195 :         switch (cur->type) {

	mov	edx, DWORD PTR _cur$[ebp]
	mov	eax, DWORD PTR [edx+4]
	mov	DWORD PTR tv88[ebp], eax
	mov	ecx, DWORD PTR tv88[ebp]
	sub	ecx, 1
	mov	DWORD PTR tv88[ebp], ecx
	cmp	DWORD PTR tv88[ebp], 20			; 00000014H
	ja	$LN4@xmlSnprint
	mov	edx, DWORD PTR tv88[ebp]
	movzx	eax, BYTE PTR $LN29@xmlSnprint[edx]
	jmp	DWORD PTR $LN43@xmlSnprint[eax*4]
$LN10@xmlSnprint:

; 5196 :             case XML_ELEMENT_NODE:
; 5197 : 		if ((cur->ns != NULL) && (cur->ns->prefix != NULL)) {

	mov	ecx, DWORD PTR _cur$[ebp]
	cmp	DWORD PTR [ecx+36], 0
	je	$LN11@xmlSnprint
	mov	edx, DWORD PTR _cur$[ebp]
	mov	eax, DWORD PTR [edx+36]
	cmp	DWORD PTR [eax+12], 0
	je	$LN11@xmlSnprint

; 5198 : 		    if (size - len < xmlStrlen(cur->ns->prefix) + 10) {

	mov	esi, DWORD PTR _size$[ebp]
	sub	esi, DWORD PTR _len$[ebp]
	mov	ecx, DWORD PTR _cur$[ebp]
	mov	edx, DWORD PTR [ecx+36]
	mov	eax, DWORD PTR [edx+12]
	push	eax
	call	_xmlStrlen
	add	esp, 4
	add	eax, 10					; 0000000aH
	cmp	esi, eax
	jge	SHORT $LN12@xmlSnprint

; 5199 : 			if ((size - len > 4) && (buf[len - 1] != '.'))

	mov	ecx, DWORD PTR _size$[ebp]
	sub	ecx, DWORD PTR _len$[ebp]
	cmp	ecx, 4
	jle	SHORT $LN13@xmlSnprint
	mov	edx, DWORD PTR _buf$[ebp]
	add	edx, DWORD PTR _len$[ebp]
	movsx	eax, BYTE PTR [edx-1]
	cmp	eax, 46					; 0000002eH
	je	SHORT $LN13@xmlSnprint

; 5200 : 			    strcat(buf, " ...");

	mov	ecx, DWORD PTR _buf$[ebp]
	add	ecx, -1
	mov	DWORD PTR tv272[ebp], ecx
$LL30@xmlSnprint:
	mov	edx, DWORD PTR tv272[ebp]
	mov	al, BYTE PTR [edx+1]
	mov	BYTE PTR tv275[ebp], al
	add	DWORD PTR tv272[ebp], 1
	cmp	BYTE PTR tv275[ebp], 0
	jne	SHORT $LL30@xmlSnprint
	mov	edi, DWORD PTR tv272[ebp]
	mov	ecx, DWORD PTR ??_C@_04IBCFJNCN@?5?4?4?4@
	mov	DWORD PTR [edi], ecx
	mov	dl, BYTE PTR ??_C@_04IBCFJNCN@?5?4?4?4@+4
	mov	BYTE PTR [edi+4], dl
$LN13@xmlSnprint:

; 5201 : 			return;

	jmp	$LN1@xmlSnprint
$LN12@xmlSnprint:

; 5202 : 		    }
; 5203 : 		    strcat(buf, (char *) cur->ns->prefix);

	mov	eax, DWORD PTR _cur$[ebp]
	mov	ecx, DWORD PTR [eax+36]
	mov	edx, DWORD PTR [ecx+12]
	mov	DWORD PTR tv285[ebp], edx
	mov	eax, DWORD PTR tv285[ebp]
	mov	DWORD PTR tv287[ebp], eax
$LL31@xmlSnprint:
	mov	ecx, DWORD PTR tv285[ebp]
	mov	dl, BYTE PTR [ecx]
	mov	BYTE PTR tv290[ebp], dl
	add	DWORD PTR tv285[ebp], 1
	cmp	BYTE PTR tv290[ebp], 0
	jne	SHORT $LL31@xmlSnprint
	mov	eax, DWORD PTR tv285[ebp]
	sub	eax, DWORD PTR tv287[ebp]
	mov	ecx, DWORD PTR tv287[ebp]
	mov	DWORD PTR tv295[ebp], ecx
	mov	DWORD PTR tv296[ebp], eax
	mov	edx, DWORD PTR _buf$[ebp]
	add	edx, -1
	mov	DWORD PTR tv299[ebp], edx
$LL32@xmlSnprint:
	mov	eax, DWORD PTR tv299[ebp]
	mov	cl, BYTE PTR [eax+1]
	mov	BYTE PTR tv302[ebp], cl
	add	DWORD PTR tv299[ebp], 1
	cmp	BYTE PTR tv302[ebp], 0
	jne	SHORT $LL32@xmlSnprint
	mov	edi, DWORD PTR tv299[ebp]
	mov	esi, DWORD PTR tv295[ebp]
	mov	edx, DWORD PTR tv296[ebp]
	mov	ecx, edx
	shr	ecx, 2
	rep movsd
	mov	ecx, edx
	and	ecx, 3
	rep movsb

; 5204 : 		    strcat(buf, ":");

	mov	eax, DWORD PTR _buf$[ebp]
	add	eax, -1
	mov	DWORD PTR tv318[ebp], eax
$LL33@xmlSnprint:
	mov	ecx, DWORD PTR tv318[ebp]
	mov	dl, BYTE PTR [ecx+1]
	mov	BYTE PTR tv321[ebp], dl
	add	DWORD PTR tv318[ebp], 1
	cmp	BYTE PTR tv321[ebp], 0
	jne	SHORT $LL33@xmlSnprint
	mov	edi, DWORD PTR tv318[ebp]
	mov	ax, WORD PTR ??_C@_01JLIPDDHJ@?3@
	mov	WORD PTR [edi], ax
$LN11@xmlSnprint:

; 5205 : 		}
; 5206 :                 if (size - len < xmlStrlen(cur->name) + 10) {

	mov	esi, DWORD PTR _size$[ebp]
	sub	esi, DWORD PTR _len$[ebp]
	mov	ecx, DWORD PTR _cur$[ebp]
	mov	edx, DWORD PTR [ecx+8]
	push	edx
	call	_xmlStrlen
	add	esp, 4
	add	eax, 10					; 0000000aH
	cmp	esi, eax
	jge	SHORT $LN14@xmlSnprint

; 5207 : 		    if ((size - len > 4) && (buf[len - 1] != '.'))

	mov	eax, DWORD PTR _size$[ebp]
	sub	eax, DWORD PTR _len$[ebp]
	cmp	eax, 4
	jle	SHORT $LN15@xmlSnprint
	mov	ecx, DWORD PTR _buf$[ebp]
	add	ecx, DWORD PTR _len$[ebp]
	movsx	edx, BYTE PTR [ecx-1]
	cmp	edx, 46					; 0000002eH
	je	SHORT $LN15@xmlSnprint

; 5208 : 			strcat(buf, " ...");

	mov	eax, DWORD PTR _buf$[ebp]
	add	eax, -1
	mov	DWORD PTR tv335[ebp], eax
$LL34@xmlSnprint:
	mov	ecx, DWORD PTR tv335[ebp]
	mov	dl, BYTE PTR [ecx+1]
	mov	BYTE PTR tv338[ebp], dl
	add	DWORD PTR tv335[ebp], 1
	cmp	BYTE PTR tv338[ebp], 0
	jne	SHORT $LL34@xmlSnprint
	mov	edi, DWORD PTR tv335[ebp]
	mov	eax, DWORD PTR ??_C@_04IBCFJNCN@?5?4?4?4@
	mov	DWORD PTR [edi], eax
	mov	cl, BYTE PTR ??_C@_04IBCFJNCN@?5?4?4?4@+4
	mov	BYTE PTR [edi+4], cl
$LN15@xmlSnprint:

; 5209 : 		    return;

	jmp	$LN1@xmlSnprint
$LN14@xmlSnprint:

; 5210 : 		}
; 5211 : 	        strcat(buf, (char *) cur->name);

	mov	edx, DWORD PTR _cur$[ebp]
	mov	eax, DWORD PTR [edx+8]
	mov	DWORD PTR tv348[ebp], eax
	mov	ecx, DWORD PTR tv348[ebp]
	mov	DWORD PTR tv350[ebp], ecx
$LL35@xmlSnprint:
	mov	edx, DWORD PTR tv348[ebp]
	mov	al, BYTE PTR [edx]
	mov	BYTE PTR tv353[ebp], al
	add	DWORD PTR tv348[ebp], 1
	cmp	BYTE PTR tv353[ebp], 0
	jne	SHORT $LL35@xmlSnprint
	mov	ecx, DWORD PTR tv348[ebp]
	sub	ecx, DWORD PTR tv350[ebp]
	mov	edx, DWORD PTR tv350[ebp]
	mov	DWORD PTR tv358[ebp], edx
	mov	DWORD PTR tv359[ebp], ecx
	mov	eax, DWORD PTR _buf$[ebp]
	add	eax, -1
	mov	DWORD PTR tv362[ebp], eax
$LL36@xmlSnprint:
	mov	ecx, DWORD PTR tv362[ebp]
	mov	dl, BYTE PTR [ecx+1]
	mov	BYTE PTR tv365[ebp], dl
	add	DWORD PTR tv362[ebp], 1
	cmp	BYTE PTR tv365[ebp], 0
	jne	SHORT $LL36@xmlSnprint
	mov	edi, DWORD PTR tv362[ebp]
	mov	esi, DWORD PTR tv358[ebp]
	mov	eax, DWORD PTR tv359[ebp]
	mov	ecx, eax
	shr	ecx, 2
	rep movsd
	mov	ecx, eax
	and	ecx, 3
	rep movsb

; 5212 : 		if (cur->next != NULL)

	mov	ecx, DWORD PTR _cur$[ebp]
	cmp	DWORD PTR [ecx+24], 0
	je	SHORT $LN16@xmlSnprint

; 5213 : 		    strcat(buf, " ");

	mov	edx, DWORD PTR _buf$[ebp]
	add	edx, -1
	mov	DWORD PTR tv382[ebp], edx
$LL37@xmlSnprint:
	mov	eax, DWORD PTR tv382[ebp]
	mov	cl, BYTE PTR [eax+1]
	mov	BYTE PTR tv385[ebp], cl
	add	DWORD PTR tv382[ebp], 1
	cmp	BYTE PTR tv385[ebp], 0
	jne	SHORT $LL37@xmlSnprint
	mov	edi, DWORD PTR tv382[ebp]
	mov	dx, WORD PTR ??_C@_01CLKCMJKC@?5@
	mov	WORD PTR [edi], dx
$LN16@xmlSnprint:

; 5214 : 		break;

	jmp	$LN4@xmlSnprint
$LN17@xmlSnprint:

; 5215 :             case XML_TEXT_NODE:
; 5216 : 		if (xmlIsBlankNode(cur))

	mov	eax, DWORD PTR _cur$[ebp]
	push	eax
	call	_xmlIsBlankNode
	add	esp, 4
	test	eax, eax
	je	SHORT $LN19@xmlSnprint

; 5217 : 		    break;

	jmp	$LN4@xmlSnprint
$LN19@xmlSnprint:

; 5218 :                 /* Falls through. */
; 5219 :             case XML_CDATA_SECTION_NODE:
; 5220 :             case XML_ENTITY_REF_NODE:
; 5221 : 	        strcat(buf, "CDATA");

	mov	ecx, DWORD PTR _buf$[ebp]
	add	ecx, -1
	mov	DWORD PTR tv395[ebp], ecx
$LL38@xmlSnprint:
	mov	edx, DWORD PTR tv395[ebp]
	mov	al, BYTE PTR [edx+1]
	mov	BYTE PTR tv398[ebp], al
	add	DWORD PTR tv395[ebp], 1
	cmp	BYTE PTR tv398[ebp], 0
	jne	SHORT $LL38@xmlSnprint
	mov	edi, DWORD PTR tv395[ebp]
	mov	ecx, DWORD PTR ??_C@_05MLPNBPGH@CDATA@
	mov	DWORD PTR [edi], ecx
	mov	dx, WORD PTR ??_C@_05MLPNBPGH@CDATA@+4
	mov	WORD PTR [edi+4], dx

; 5222 : 		if (cur->next != NULL)

	mov	eax, DWORD PTR _cur$[ebp]
	cmp	DWORD PTR [eax+24], 0
	je	SHORT $LN20@xmlSnprint

; 5223 : 		    strcat(buf, " ");

	mov	ecx, DWORD PTR _buf$[ebp]
	add	ecx, -1
	mov	DWORD PTR tv409[ebp], ecx
$LL39@xmlSnprint:
	mov	edx, DWORD PTR tv409[ebp]
	mov	al, BYTE PTR [edx+1]
	mov	BYTE PTR tv412[ebp], al
	add	DWORD PTR tv409[ebp], 1
	cmp	BYTE PTR tv412[ebp], 0
	jne	SHORT $LL39@xmlSnprint
	mov	edi, DWORD PTR tv409[ebp]
	mov	cx, WORD PTR ??_C@_01CLKCMJKC@?5@
	mov	WORD PTR [edi], cx
$LN20@xmlSnprint:

; 5224 : 		break;

	jmp	SHORT $LN4@xmlSnprint
$LN21@xmlSnprint:

; 5225 :             case XML_ATTRIBUTE_NODE:
; 5226 :             case XML_DOCUMENT_NODE:
; 5227 : #ifdef LIBXML_DOCB_ENABLED
; 5228 : 	    case XML_DOCB_DOCUMENT_NODE:
; 5229 : #endif
; 5230 : 	    case XML_HTML_DOCUMENT_NODE:
; 5231 :             case XML_DOCUMENT_TYPE_NODE:
; 5232 :             case XML_DOCUMENT_FRAG_NODE:
; 5233 :             case XML_NOTATION_NODE:
; 5234 : 	    case XML_NAMESPACE_DECL:
; 5235 : 	        strcat(buf, "???");

	mov	edx, DWORD PTR _buf$[ebp]
	add	edx, -1
	mov	DWORD PTR tv420[ebp], edx
$LL40@xmlSnprint:
	mov	eax, DWORD PTR tv420[ebp]
	mov	cl, BYTE PTR [eax+1]
	mov	BYTE PTR tv423[ebp], cl
	add	DWORD PTR tv420[ebp], 1
	cmp	BYTE PTR tv423[ebp], 0
	jne	SHORT $LL40@xmlSnprint
	mov	edi, DWORD PTR tv420[ebp]
	mov	edx, DWORD PTR ??_C@_03BBKEAIF@?$DP?$DP?$DP@
	mov	DWORD PTR [edi], edx

; 5236 : 		if (cur->next != NULL)

	mov	eax, DWORD PTR _cur$[ebp]
	cmp	DWORD PTR [eax+24], 0
	je	SHORT $LN4@xmlSnprint

; 5237 : 		    strcat(buf, " ");

	mov	ecx, DWORD PTR _buf$[ebp]
	add	ecx, -1
	mov	DWORD PTR tv432[ebp], ecx
$LL41@xmlSnprint:
	mov	edx, DWORD PTR tv432[ebp]
	mov	al, BYTE PTR [edx+1]
	mov	BYTE PTR tv435[ebp], al
	add	DWORD PTR tv432[ebp], 1
	cmp	BYTE PTR tv435[ebp], 0
	jne	SHORT $LL41@xmlSnprint
	mov	edi, DWORD PTR tv432[ebp]
	mov	cx, WORD PTR ??_C@_01CLKCMJKC@?5@
	mov	WORD PTR [edi], cx
$LN4@xmlSnprint:

; 5238 : 		break;
; 5239 :             case XML_ENTITY_NODE:
; 5240 :             case XML_PI_NODE:
; 5241 :             case XML_DTD_NODE:
; 5242 :             case XML_COMMENT_NODE:
; 5243 : 	    case XML_ELEMENT_DECL:
; 5244 : 	    case XML_ATTRIBUTE_DECL:
; 5245 : 	    case XML_ENTITY_DECL:
; 5246 : 	    case XML_XINCLUDE_START:
; 5247 : 	    case XML_XINCLUDE_END:
; 5248 : 		break;
; 5249 : 	}
; 5250 : 	cur = cur->next;

	mov	edx, DWORD PTR _cur$[ebp]
	mov	eax, DWORD PTR [edx+24]
	mov	DWORD PTR _cur$[ebp], eax

; 5251 :     }

	jmp	$LN2@xmlSnprint
$LN3@xmlSnprint:

; 5252 :     if (glob) strcat(buf, ")");

	cmp	DWORD PTR _glob$[ebp], 0
	je	SHORT $LN1@xmlSnprint
	mov	ecx, DWORD PTR _buf$[ebp]
	add	ecx, -1
	mov	DWORD PTR tv445[ebp], ecx
$LL42@xmlSnprint:
	mov	edx, DWORD PTR tv445[ebp]
	mov	al, BYTE PTR [edx+1]
	mov	BYTE PTR tv448[ebp], al
	add	DWORD PTR tv445[ebp], 1
	cmp	BYTE PTR tv448[ebp], 0
	jne	SHORT $LL42@xmlSnprint
	mov	edi, DWORD PTR tv445[ebp]
	mov	cx, WORD PTR ??_C@_01PKGAHCOL@?$CJ@
	mov	WORD PTR [edi], cx
$LN1@xmlSnprint:

; 5253 : }

	pop	edi
	pop	esi
	add	esp, 172				; 000000acH
	cmp	ebp, esp
	call	__RTC_CheckEsp
	mov	esp, ebp
	pop	ebp
	ret	0
	npad	1
$LN43@xmlSnprint:
	DD	$LN10@xmlSnprint
	DD	$LN21@xmlSnprint
	DD	$LN17@xmlSnprint
	DD	$LN19@xmlSnprint
	DD	$LN4@xmlSnprint
$LN29@xmlSnprint:
	DB	0
	DB	1
	DB	2
	DB	3
	DB	3
	DB	4
	DB	4
	DB	4
	DB	1
	DB	1
	DB	1
	DB	1
	DB	1
	DB	4
	DB	4
	DB	4
	DB	4
	DB	1
	DB	4
	DB	4
	DB	1
_xmlSnprintfElements ENDP
_TEXT	ENDS
; Function compile flags: /Odtp /RTCsu
; File c:\users\dag\documents\_clients\codeproject authors group\windows on arm\libxml2\libxml2-2.9.9\valid.c
;	COMDAT _xmlValidateAttributeIdCallback
_TEXT	SEGMENT
_count$ = -8						; size = 4
_attr$ = -4						; size = 4
_payload$ = 8						; size = 4
_data$ = 12						; size = 4
_name$ = 16						; size = 4
_xmlValidateAttributeIdCallback PROC			; COMDAT

; 4123 : 	                       const xmlChar *name ATTRIBUTE_UNUSED) {

	push	ebp
	mov	ebp, esp
	sub	esp, 8
	mov	DWORD PTR [ebp-8], -858993460		; ccccccccH
	mov	DWORD PTR [ebp-4], -858993460		; ccccccccH
	mov	ecx, OFFSET __56F63275_valid@c
	call	@__CheckForDebuggerJustMyCode@4

; 4124 :     xmlAttributePtr attr = (xmlAttributePtr) payload;

	mov	eax, DWORD PTR _payload$[ebp]
	mov	DWORD PTR _attr$[ebp], eax

; 4125 :     int *count = (int *) data;

	mov	ecx, DWORD PTR _data$[ebp]
	mov	DWORD PTR _count$[ebp], ecx

; 4126 :     if (attr->atype == XML_ATTRIBUTE_ID) (*count)++;

	mov	edx, DWORD PTR _attr$[ebp]
	cmp	DWORD PTR [edx+40], 2
	jne	SHORT $LN1@xmlValidat
	mov	eax, DWORD PTR _count$[ebp]
	mov	ecx, DWORD PTR [eax]
	add	ecx, 1
	mov	edx, DWORD PTR _count$[ebp]
	mov	DWORD PTR [edx], ecx
$LN1@xmlValidat:

; 4127 : }

	add	esp, 8
	cmp	ebp, esp
	call	__RTC_CheckEsp
	mov	esp, ebp
	pop	ebp
	ret	0
_xmlValidateAttributeIdCallback ENDP
_TEXT	ENDS
; Function compile flags: /Odtp /RTCsu
; File c:\users\dag\documents\_clients\codeproject authors group\windows on arm\libxml2\libxml2-2.9.9\valid.c
;	COMDAT _xmlValidateAttributeValue2
_TEXT	SEGMENT
tv64 = -36						; size = 4
_nota$1 = -32						; size = 4
_ent$2 = -28						; size = 4
_save$3 = -21						; size = 1
_cur$4 = -20						; size = 4
_nam$5 = -16						; size = 4
_dup$6 = -12						; size = 4
_ent$7 = -8						; size = 4
_ret$ = -4						; size = 4
_ctxt$ = 8						; size = 4
_doc$ = 12						; size = 4
_name$ = 16						; size = 4
_type$ = 20						; size = 4
_value$ = 24						; size = 4
_xmlValidateAttributeValue2 PROC			; COMDAT

; 3871 :       const xmlChar *name, xmlAttributeType type, const xmlChar *value) {

	push	ebp
	mov	ebp, esp
	sub	esp, 36					; 00000024H
	push	esi
	mov	eax, -858993460				; ccccccccH
	mov	DWORD PTR [ebp-36], eax
	mov	DWORD PTR [ebp-32], eax
	mov	DWORD PTR [ebp-28], eax
	mov	DWORD PTR [ebp-24], eax
	mov	DWORD PTR [ebp-20], eax
	mov	DWORD PTR [ebp-16], eax
	mov	DWORD PTR [ebp-12], eax
	mov	DWORD PTR [ebp-8], eax
	mov	DWORD PTR [ebp-4], eax
	mov	ecx, OFFSET __56F63275_valid@c
	call	@__CheckForDebuggerJustMyCode@4

; 3872 :     int ret = 1;

	mov	DWORD PTR _ret$[ebp], 1

; 3873 :     switch (type) {

	mov	eax, DWORD PTR _type$[ebp]
	mov	DWORD PTR tv64[ebp], eax
	cmp	DWORD PTR tv64[ebp], 5
	je	SHORT $LN11@xmlValidat
	cmp	DWORD PTR tv64[ebp], 6
	je	$LN16@xmlValidat
	cmp	DWORD PTR tv64[ebp], 10			; 0000000aH
	je	$LN25@xmlValidat
	jmp	$LN2@xmlValidat

; 3874 : 	case XML_ATTRIBUTE_IDREFS:
; 3875 : 	case XML_ATTRIBUTE_IDREF:
; 3876 : 	case XML_ATTRIBUTE_ID:
; 3877 : 	case XML_ATTRIBUTE_NMTOKENS:
; 3878 : 	case XML_ATTRIBUTE_ENUMERATION:
; 3879 : 	case XML_ATTRIBUTE_NMTOKEN:
; 3880 :         case XML_ATTRIBUTE_CDATA:
; 3881 : 	    break;

	jmp	$LN2@xmlValidat
$LN11@xmlValidat:

; 3882 : 	case XML_ATTRIBUTE_ENTITY: {
; 3883 : 	    xmlEntityPtr ent;
; 3884 : 
; 3885 : 	    ent = xmlGetDocEntity(doc, value);

	mov	ecx, DWORD PTR _value$[ebp]
	push	ecx
	mov	edx, DWORD PTR _doc$[ebp]
	push	edx
	call	_xmlGetDocEntity
	add	esp, 8
	mov	DWORD PTR _ent$7[ebp], eax

; 3886 : 	    /* yeah it's a bit messy... */
; 3887 : 	    if ((ent == NULL) && (doc->standalone == 1)) {

	cmp	DWORD PTR _ent$7[ebp], 0
	jne	SHORT $LN12@xmlValidat
	mov	eax, DWORD PTR _doc$[ebp]
	cmp	DWORD PTR [eax+40], 1
	jne	SHORT $LN12@xmlValidat

; 3888 : 		doc->standalone = 0;

	mov	ecx, DWORD PTR _doc$[ebp]
	mov	DWORD PTR [ecx+40], 0

; 3889 : 		ent = xmlGetDocEntity(doc, value);

	mov	edx, DWORD PTR _value$[ebp]
	push	edx
	mov	eax, DWORD PTR _doc$[ebp]
	push	eax
	call	_xmlGetDocEntity
	add	esp, 8
	mov	DWORD PTR _ent$7[ebp], eax
$LN12@xmlValidat:

; 3890 : 	    }
; 3891 : 	    if (ent == NULL) {

	cmp	DWORD PTR _ent$7[ebp], 0
	jne	SHORT $LN13@xmlValidat

; 3892 : 		xmlErrValidNode(ctxt, (xmlNodePtr) doc,

	push	0
	mov	ecx, DWORD PTR _value$[ebp]
	push	ecx
	mov	edx, DWORD PTR _name$[ebp]
	push	edx
	push	OFFSET ??_C@_0DG@NHAJHAEC@ENTITY?5attribute?5?$CFs?5reference?5a@
	push	535					; 00000217H
	mov	eax, DWORD PTR _doc$[ebp]
	push	eax
	mov	ecx, DWORD PTR _ctxt$[ebp]
	push	ecx
	call	_xmlErrValidNode
	add	esp, 28					; 0000001cH

; 3893 : 				XML_DTD_UNKNOWN_ENTITY,
; 3894 :    "ENTITY attribute %s reference an unknown entity \"%s\"\n",
; 3895 : 		       name, value, NULL);
; 3896 : 		ret = 0;

	mov	DWORD PTR _ret$[ebp], 0
	jmp	SHORT $LN14@xmlValidat
$LN13@xmlValidat:

; 3897 : 	    } else if (ent->etype != XML_EXTERNAL_GENERAL_UNPARSED_ENTITY) {

	mov	edx, DWORD PTR _ent$7[ebp]
	cmp	DWORD PTR [edx+48], 3
	je	SHORT $LN14@xmlValidat

; 3898 : 		xmlErrValidNode(ctxt, (xmlNodePtr) doc,

	push	0
	mov	eax, DWORD PTR _value$[ebp]
	push	eax
	mov	ecx, DWORD PTR _name$[ebp]
	push	ecx
	push	OFFSET ??_C@_0DM@CBMBENAH@ENTITY?5attribute?5?$CFs?5reference?5a@
	push	511					; 000001ffH
	mov	edx, DWORD PTR _doc$[ebp]
	push	edx
	mov	eax, DWORD PTR _ctxt$[ebp]
	push	eax
	call	_xmlErrValidNode
	add	esp, 28					; 0000001cH

; 3899 : 				XML_DTD_ENTITY_TYPE,
; 3900 :    "ENTITY attribute %s reference an entity \"%s\" of wrong type\n",
; 3901 : 		       name, value, NULL);
; 3902 : 		ret = 0;

	mov	DWORD PTR _ret$[ebp], 0
$LN14@xmlValidat:

; 3903 : 	    }
; 3904 : 	    break;

	jmp	$LN2@xmlValidat
$LN16@xmlValidat:

; 3905 :         }
; 3906 : 	case XML_ATTRIBUTE_ENTITIES: {
; 3907 : 	    xmlChar *dup, *nam = NULL, *cur, save;

	mov	DWORD PTR _nam$5[ebp], 0

; 3908 : 	    xmlEntityPtr ent;
; 3909 : 
; 3910 : 	    dup = xmlStrdup(value);

	mov	ecx, DWORD PTR _value$[ebp]
	push	ecx
	call	_xmlStrdup
	add	esp, 4
	mov	DWORD PTR _dup$6[ebp], eax

; 3911 : 	    if (dup == NULL)

	cmp	DWORD PTR _dup$6[ebp], 0
	jne	SHORT $LN17@xmlValidat

; 3912 : 		return(0);

	xor	eax, eax
	jmp	$LN1@xmlValidat
$LN17@xmlValidat:

; 3913 : 	    cur = dup;

	mov	edx, DWORD PTR _dup$6[ebp]
	mov	DWORD PTR _cur$4[ebp], edx
$LN4@xmlValidat:

; 3914 : 	    while (*cur != 0) {

	mov	eax, DWORD PTR _cur$4[ebp]
	movzx	ecx, BYTE PTR [eax]
	test	ecx, ecx
	je	$LN5@xmlValidat

; 3915 : 		nam = cur;

	mov	edx, DWORD PTR _cur$4[ebp]
	mov	DWORD PTR _nam$5[ebp], edx
$LN6@xmlValidat:

; 3916 : 		while ((*cur != 0) && (!IS_BLANK_CH(*cur))) cur++;

	mov	eax, DWORD PTR _cur$4[ebp]
	movzx	ecx, BYTE PTR [eax]
	test	ecx, ecx
	je	SHORT $LN7@xmlValidat
	mov	edx, DWORD PTR _cur$4[ebp]
	movzx	eax, BYTE PTR [edx]
	cmp	eax, 32					; 00000020H
	je	SHORT $LN7@xmlValidat
	mov	ecx, DWORD PTR _cur$4[ebp]
	movzx	edx, BYTE PTR [ecx]
	cmp	edx, 9
	jl	SHORT $LN18@xmlValidat
	mov	eax, DWORD PTR _cur$4[ebp]
	movzx	ecx, BYTE PTR [eax]
	cmp	ecx, 10					; 0000000aH
	jle	SHORT $LN7@xmlValidat
$LN18@xmlValidat:
	mov	edx, DWORD PTR _cur$4[ebp]
	movzx	eax, BYTE PTR [edx]
	cmp	eax, 13					; 0000000dH
	je	SHORT $LN7@xmlValidat
	mov	ecx, DWORD PTR _cur$4[ebp]
	add	ecx, 1
	mov	DWORD PTR _cur$4[ebp], ecx
	jmp	SHORT $LN6@xmlValidat
$LN7@xmlValidat:

; 3917 : 		save = *cur;

	mov	edx, DWORD PTR _cur$4[ebp]
	mov	al, BYTE PTR [edx]
	mov	BYTE PTR _save$3[ebp], al

; 3918 : 		*cur = 0;

	mov	ecx, DWORD PTR _cur$4[ebp]
	mov	BYTE PTR [ecx], 0

; 3919 : 		ent = xmlGetDocEntity(doc, nam);

	mov	edx, DWORD PTR _nam$5[ebp]
	push	edx
	mov	eax, DWORD PTR _doc$[ebp]
	push	eax
	call	_xmlGetDocEntity
	add	esp, 8
	mov	DWORD PTR _ent$2[ebp], eax

; 3920 : 		if (ent == NULL) {

	cmp	DWORD PTR _ent$2[ebp], 0
	jne	SHORT $LN19@xmlValidat

; 3921 : 		    xmlErrValidNode(ctxt, (xmlNodePtr) doc,

	push	0
	mov	ecx, DWORD PTR _nam$5[ebp]
	push	ecx
	mov	edx, DWORD PTR _name$[ebp]
	push	edx
	push	OFFSET ??_C@_0DI@MOCJGONA@ENTITIES?5attribute?5?$CFs?5reference@
	push	535					; 00000217H
	mov	eax, DWORD PTR _doc$[ebp]
	push	eax
	mov	ecx, DWORD PTR _ctxt$[ebp]
	push	ecx
	call	_xmlErrValidNode
	add	esp, 28					; 0000001cH

; 3922 : 				    XML_DTD_UNKNOWN_ENTITY,
; 3923 :        "ENTITIES attribute %s reference an unknown entity \"%s\"\n",
; 3924 : 			   name, nam, NULL);
; 3925 : 		    ret = 0;

	mov	DWORD PTR _ret$[ebp], 0
	jmp	SHORT $LN20@xmlValidat
$LN19@xmlValidat:

; 3926 : 		} else if (ent->etype != XML_EXTERNAL_GENERAL_UNPARSED_ENTITY) {

	mov	edx, DWORD PTR _ent$2[ebp]
	cmp	DWORD PTR [edx+48], 3
	je	SHORT $LN20@xmlValidat

; 3927 : 		    xmlErrValidNode(ctxt, (xmlNodePtr) doc,

	push	0
	mov	eax, DWORD PTR _nam$5[ebp]
	push	eax
	mov	ecx, DWORD PTR _name$[ebp]
	push	ecx
	push	OFFSET ??_C@_0DO@BNHKOEGN@ENTITIES?5attribute?5?$CFs?5reference@
	push	511					; 000001ffH
	mov	edx, DWORD PTR _doc$[ebp]
	push	edx
	mov	eax, DWORD PTR _ctxt$[ebp]
	push	eax
	call	_xmlErrValidNode
	add	esp, 28					; 0000001cH

; 3928 : 				    XML_DTD_ENTITY_TYPE,
; 3929 :        "ENTITIES attribute %s reference an entity \"%s\" of wrong type\n",
; 3930 : 			   name, nam, NULL);
; 3931 : 		    ret = 0;

	mov	DWORD PTR _ret$[ebp], 0
$LN20@xmlValidat:

; 3932 : 		}
; 3933 : 		if (save == 0)

	movzx	ecx, BYTE PTR _save$3[ebp]
	test	ecx, ecx
	jne	SHORT $LN22@xmlValidat

; 3934 : 		    break;

	jmp	SHORT $LN5@xmlValidat
$LN22@xmlValidat:

; 3935 : 		*cur = save;

	mov	edx, DWORD PTR _cur$4[ebp]
	mov	al, BYTE PTR _save$3[ebp]
	mov	BYTE PTR [edx], al
$LN8@xmlValidat:

; 3936 : 		while (IS_BLANK_CH(*cur)) cur++;

	mov	ecx, DWORD PTR _cur$4[ebp]
	movzx	edx, BYTE PTR [ecx]
	cmp	edx, 32					; 00000020H
	je	SHORT $LN23@xmlValidat
	mov	eax, DWORD PTR _cur$4[ebp]
	movzx	ecx, BYTE PTR [eax]
	cmp	ecx, 9
	jl	SHORT $LN24@xmlValidat
	mov	edx, DWORD PTR _cur$4[ebp]
	movzx	eax, BYTE PTR [edx]
	cmp	eax, 10					; 0000000aH
	jle	SHORT $LN23@xmlValidat
$LN24@xmlValidat:
	mov	ecx, DWORD PTR _cur$4[ebp]
	movzx	edx, BYTE PTR [ecx]
	cmp	edx, 13					; 0000000dH
	jne	SHORT $LN9@xmlValidat
$LN23@xmlValidat:
	mov	eax, DWORD PTR _cur$4[ebp]
	add	eax, 1
	mov	DWORD PTR _cur$4[ebp], eax
	jmp	SHORT $LN8@xmlValidat
$LN9@xmlValidat:

; 3937 : 	    }

	jmp	$LN4@xmlValidat
$LN5@xmlValidat:

; 3938 : 	    xmlFree(dup);

	mov	esi, esp
	mov	ecx, DWORD PTR _dup$6[ebp]
	push	ecx
	call	DWORD PTR _xmlFree
	add	esp, 4
	cmp	esi, esp
	call	__RTC_CheckEsp

; 3939 : 	    break;

	jmp	SHORT $LN2@xmlValidat
$LN25@xmlValidat:

; 3940 : 	}
; 3941 : 	case XML_ATTRIBUTE_NOTATION: {
; 3942 : 	    xmlNotationPtr nota;
; 3943 : 
; 3944 : 	    nota = xmlGetDtdNotationDesc(doc->intSubset, value);

	mov	edx, DWORD PTR _value$[ebp]
	push	edx
	mov	eax, DWORD PTR _doc$[ebp]
	mov	ecx, DWORD PTR [eax+44]
	push	ecx
	call	_xmlGetDtdNotationDesc
	add	esp, 8
	mov	DWORD PTR _nota$1[ebp], eax

; 3945 : 	    if ((nota == NULL) && (doc->extSubset != NULL))

	cmp	DWORD PTR _nota$1[ebp], 0
	jne	SHORT $LN26@xmlValidat
	mov	edx, DWORD PTR _doc$[ebp]
	cmp	DWORD PTR [edx+48], 0
	je	SHORT $LN26@xmlValidat

; 3946 : 		nota = xmlGetDtdNotationDesc(doc->extSubset, value);

	mov	eax, DWORD PTR _value$[ebp]
	push	eax
	mov	ecx, DWORD PTR _doc$[ebp]
	mov	edx, DWORD PTR [ecx+48]
	push	edx
	call	_xmlGetDtdNotationDesc
	add	esp, 8
	mov	DWORD PTR _nota$1[ebp], eax
$LN26@xmlValidat:

; 3947 : 
; 3948 : 	    if (nota == NULL) {

	cmp	DWORD PTR _nota$1[ebp], 0
	jne	SHORT $LN2@xmlValidat

; 3949 : 		xmlErrValidNode(ctxt, (xmlNodePtr) doc,

	push	0
	mov	eax, DWORD PTR _value$[ebp]
	push	eax
	mov	ecx, DWORD PTR _name$[ebp]
	push	ecx
	push	OFFSET ??_C@_0DK@HMAANMLE@NOTATION?5attribute?5?$CFs?5reference@
	push	537					; 00000219H
	mov	edx, DWORD PTR _doc$[ebp]
	push	edx
	mov	eax, DWORD PTR _ctxt$[ebp]
	push	eax
	call	_xmlErrValidNode
	add	esp, 28					; 0000001cH

; 3950 : 		                XML_DTD_UNKNOWN_NOTATION,
; 3951 :        "NOTATION attribute %s reference an unknown notation \"%s\"\n",
; 3952 : 		       name, value, NULL);
; 3953 : 		ret = 0;

	mov	DWORD PTR _ret$[ebp], 0
$LN2@xmlValidat:

; 3954 : 	    }
; 3955 : 	    break;
; 3956 :         }
; 3957 :     }
; 3958 :     return(ret);

	mov	eax, DWORD PTR _ret$[ebp]
$LN1@xmlValidat:

; 3959 : }

	pop	esi
	add	esp, 36					; 00000024H
	cmp	ebp, esp
	call	__RTC_CheckEsp
	mov	esp, ebp
	pop	ebp
	ret	0
_xmlValidateAttributeValue2 ENDP
_TEXT	ENDS
; Function compile flags: /Odtp /RTCsu
; File c:\users\dag\documents\_clients\codeproject authors group\windows on arm\libxml2\libxml2-2.9.9\valid.c
;	COMDAT _xmlValidateNmtokensValueInternal
_TEXT	SEGMENT
tv76 = -28						; size = 4
tv75 = -24						; size = 4
_len$ = -16						; size = 4
_val$ = -8						; size = 4
_cur$ = -4						; size = 4
_doc$ = 8						; size = 4
_value$ = 12						; size = 4
_xmlValidateNmtokensValueInternal PROC			; COMDAT

; 3691 : xmlValidateNmtokensValueInternal(xmlDocPtr doc, const xmlChar *value) {

	push	ebp
	mov	ebp, esp
	sub	esp, 28					; 0000001cH
	mov	eax, -858993460				; ccccccccH
	mov	DWORD PTR [ebp-28], eax
	mov	DWORD PTR [ebp-24], eax
	mov	DWORD PTR [ebp-20], eax
	mov	DWORD PTR [ebp-16], eax
	mov	DWORD PTR [ebp-12], eax
	mov	DWORD PTR [ebp-8], eax
	mov	DWORD PTR [ebp-4], eax
	mov	ecx, OFFSET __56F63275_valid@c
	call	@__CheckForDebuggerJustMyCode@4

; 3692 :     const xmlChar *cur;
; 3693 :     int val, len;
; 3694 : 
; 3695 :     if (value == NULL) return(0);

	cmp	DWORD PTR _value$[ebp], 0
	jne	SHORT $LN12@xmlValidat
	xor	eax, eax
	jmp	$LN1@xmlValidat
$LN12@xmlValidat:

; 3696 :     cur = value;

	mov	eax, DWORD PTR _value$[ebp]
	mov	DWORD PTR _cur$[ebp], eax

; 3697 :     val = xmlStringCurrentChar(NULL, cur, &len);

	lea	ecx, DWORD PTR _len$[ebp]
	push	ecx
	mov	edx, DWORD PTR _cur$[ebp]
	push	edx
	push	0
	call	_xmlStringCurrentChar
	add	esp, 12					; 0000000cH
	mov	DWORD PTR _val$[ebp], eax

; 3698 :     cur += len;

	mov	eax, DWORD PTR _cur$[ebp]
	add	eax, DWORD PTR _len$[ebp]
	mov	DWORD PTR _cur$[ebp], eax
$LN2@xmlValidat:

; 3699 : 
; 3700 :     while (IS_BLANK(val)) {

	cmp	DWORD PTR _val$[ebp], 256		; 00000100H
	jge	SHORT $LN21@xmlValidat
	cmp	DWORD PTR _val$[ebp], 32		; 00000020H
	je	SHORT $LN19@xmlValidat
	cmp	DWORD PTR _val$[ebp], 9
	jl	SHORT $LN18@xmlValidat
	cmp	DWORD PTR _val$[ebp], 10		; 0000000aH
	jle	SHORT $LN19@xmlValidat
$LN18@xmlValidat:
	cmp	DWORD PTR _val$[ebp], 13		; 0000000dH
	je	SHORT $LN19@xmlValidat
	mov	DWORD PTR tv75[ebp], 0
	jmp	SHORT $LN20@xmlValidat
$LN19@xmlValidat:
	mov	DWORD PTR tv75[ebp], 1
$LN20@xmlValidat:
	mov	ecx, DWORD PTR tv75[ebp]
	mov	DWORD PTR tv76[ebp], ecx
	jmp	SHORT $LN22@xmlValidat
$LN21@xmlValidat:
	mov	DWORD PTR tv76[ebp], 0
$LN22@xmlValidat:
	cmp	DWORD PTR tv76[ebp], 0
	je	SHORT $LN3@xmlValidat

; 3701 : 	val = xmlStringCurrentChar(NULL, cur, &len);

	lea	edx, DWORD PTR _len$[ebp]
	push	edx
	mov	eax, DWORD PTR _cur$[ebp]
	push	eax
	push	0
	call	_xmlStringCurrentChar
	add	esp, 12					; 0000000cH
	mov	DWORD PTR _val$[ebp], eax

; 3702 : 	cur += len;

	mov	ecx, DWORD PTR _cur$[ebp]
	add	ecx, DWORD PTR _len$[ebp]
	mov	DWORD PTR _cur$[ebp], ecx

; 3703 :     }

	jmp	SHORT $LN2@xmlValidat
$LN3@xmlValidat:

; 3704 : 
; 3705 :     if (!xmlIsDocNameChar(doc, val))

	mov	edx, DWORD PTR _val$[ebp]
	push	edx
	mov	eax, DWORD PTR _doc$[ebp]
	push	eax
	call	_xmlIsDocNameChar
	add	esp, 8
	test	eax, eax
	jne	SHORT $LN4@xmlValidat

; 3706 : 	return(0);

	xor	eax, eax
	jmp	$LN1@xmlValidat
$LN4@xmlValidat:

; 3707 : 
; 3708 :     while (xmlIsDocNameChar(doc, val)) {

	mov	ecx, DWORD PTR _val$[ebp]
	push	ecx
	mov	edx, DWORD PTR _doc$[ebp]
	push	edx
	call	_xmlIsDocNameChar
	add	esp, 8
	test	eax, eax
	je	SHORT $LN6@xmlValidat

; 3709 : 	val = xmlStringCurrentChar(NULL, cur, &len);

	lea	eax, DWORD PTR _len$[ebp]
	push	eax
	mov	ecx, DWORD PTR _cur$[ebp]
	push	ecx
	push	0
	call	_xmlStringCurrentChar
	add	esp, 12					; 0000000cH
	mov	DWORD PTR _val$[ebp], eax

; 3710 : 	cur += len;

	mov	edx, DWORD PTR _cur$[ebp]
	add	edx, DWORD PTR _len$[ebp]
	mov	DWORD PTR _cur$[ebp], edx

; 3711 :     }

	jmp	SHORT $LN4@xmlValidat
$LN6@xmlValidat:

; 3712 : 
; 3713 :     /* Should not test IS_BLANK(val) here -- see erratum E20*/
; 3714 :     while (val == 0x20) {

	cmp	DWORD PTR _val$[ebp], 32		; 00000020H
	jne	$LN7@xmlValidat
$LN8@xmlValidat:

; 3715 : 	while (val == 0x20) {

	cmp	DWORD PTR _val$[ebp], 32		; 00000020H
	jne	SHORT $LN9@xmlValidat

; 3716 : 	    val = xmlStringCurrentChar(NULL, cur, &len);

	lea	eax, DWORD PTR _len$[ebp]
	push	eax
	mov	ecx, DWORD PTR _cur$[ebp]
	push	ecx
	push	0
	call	_xmlStringCurrentChar
	add	esp, 12					; 0000000cH
	mov	DWORD PTR _val$[ebp], eax

; 3717 : 	    cur += len;

	mov	edx, DWORD PTR _cur$[ebp]
	add	edx, DWORD PTR _len$[ebp]
	mov	DWORD PTR _cur$[ebp], edx

; 3718 : 	}

	jmp	SHORT $LN8@xmlValidat
$LN9@xmlValidat:

; 3719 : 	if (val == 0) return(1);

	cmp	DWORD PTR _val$[ebp], 0
	jne	SHORT $LN14@xmlValidat
	mov	eax, 1
	jmp	SHORT $LN1@xmlValidat
$LN14@xmlValidat:

; 3720 : 
; 3721 : 	if (!xmlIsDocNameChar(doc, val))

	mov	eax, DWORD PTR _val$[ebp]
	push	eax
	mov	ecx, DWORD PTR _doc$[ebp]
	push	ecx
	call	_xmlIsDocNameChar
	add	esp, 8
	test	eax, eax
	jne	SHORT $LN15@xmlValidat

; 3722 : 	    return(0);

	xor	eax, eax
	jmp	SHORT $LN1@xmlValidat
$LN15@xmlValidat:

; 3723 : 
; 3724 : 	val = xmlStringCurrentChar(NULL, cur, &len);

	lea	edx, DWORD PTR _len$[ebp]
	push	edx
	mov	eax, DWORD PTR _cur$[ebp]
	push	eax
	push	0
	call	_xmlStringCurrentChar
	add	esp, 12					; 0000000cH
	mov	DWORD PTR _val$[ebp], eax

; 3725 : 	cur += len;

	mov	ecx, DWORD PTR _cur$[ebp]
	add	ecx, DWORD PTR _len$[ebp]
	mov	DWORD PTR _cur$[ebp], ecx
$LN10@xmlValidat:

; 3726 : 
; 3727 : 	while (xmlIsDocNameChar(doc, val)) {

	mov	edx, DWORD PTR _val$[ebp]
	push	edx
	mov	eax, DWORD PTR _doc$[ebp]
	push	eax
	call	_xmlIsDocNameChar
	add	esp, 8
	test	eax, eax
	je	SHORT $LN11@xmlValidat

; 3728 : 	    val = xmlStringCurrentChar(NULL, cur, &len);

	lea	ecx, DWORD PTR _len$[ebp]
	push	ecx
	mov	edx, DWORD PTR _cur$[ebp]
	push	edx
	push	0
	call	_xmlStringCurrentChar
	add	esp, 12					; 0000000cH
	mov	DWORD PTR _val$[ebp], eax

; 3729 : 	    cur += len;

	mov	eax, DWORD PTR _cur$[ebp]
	add	eax, DWORD PTR _len$[ebp]
	mov	DWORD PTR _cur$[ebp], eax

; 3730 : 	}

	jmp	SHORT $LN10@xmlValidat
$LN11@xmlValidat:

; 3731 :     }

	jmp	$LN6@xmlValidat
$LN7@xmlValidat:

; 3732 : 
; 3733 :     if (val != 0) return(0);

	cmp	DWORD PTR _val$[ebp], 0
	je	SHORT $LN16@xmlValidat
	xor	eax, eax
	jmp	SHORT $LN1@xmlValidat
$LN16@xmlValidat:

; 3734 : 
; 3735 :     return(1);

	mov	eax, 1
$LN1@xmlValidat:

; 3736 : }

	push	edx
	mov	ecx, ebp
	push	eax
	lea	edx, DWORD PTR $LN25@xmlValidat
	call	@_RTC_CheckStackVars@8
	pop	eax
	pop	edx
	add	esp, 28					; 0000001cH
	cmp	ebp, esp
	call	__RTC_CheckEsp
	mov	esp, ebp
	pop	ebp
	ret	0
	npad	2
$LN25@xmlValidat:
	DD	1
	DD	$LN24@xmlValidat
$LN24@xmlValidat:
	DD	-16					; fffffff0H
	DD	4
	DD	$LN23@xmlValidat
$LN23@xmlValidat:
	DB	108					; 0000006cH
	DB	101					; 00000065H
	DB	110					; 0000006eH
	DB	0
_xmlValidateNmtokensValueInternal ENDP
_TEXT	ENDS
; Function compile flags: /Odtp /RTCsu
; File c:\users\dag\documents\_clients\codeproject authors group\windows on arm\libxml2\libxml2-2.9.9\valid.c
;	COMDAT _xmlValidateNmtokenValueInternal
_TEXT	SEGMENT
_len$ = -16						; size = 4
_val$ = -8						; size = 4
_cur$ = -4						; size = 4
_doc$ = 8						; size = 4
_value$ = 12						; size = 4
_xmlValidateNmtokenValueInternal PROC			; COMDAT

; 3638 : xmlValidateNmtokenValueInternal(xmlDocPtr doc, const xmlChar *value) {

	push	ebp
	mov	ebp, esp
	sub	esp, 20					; 00000014H
	mov	eax, -858993460				; ccccccccH
	mov	DWORD PTR [ebp-20], eax
	mov	DWORD PTR [ebp-16], eax
	mov	DWORD PTR [ebp-12], eax
	mov	DWORD PTR [ebp-8], eax
	mov	DWORD PTR [ebp-4], eax
	mov	ecx, OFFSET __56F63275_valid@c
	call	@__CheckForDebuggerJustMyCode@4

; 3639 :     const xmlChar *cur;
; 3640 :     int val, len;
; 3641 : 
; 3642 :     if (value == NULL) return(0);

	cmp	DWORD PTR _value$[ebp], 0
	jne	SHORT $LN4@xmlValidat
	xor	eax, eax
	jmp	$LN1@xmlValidat
$LN4@xmlValidat:

; 3643 :     cur = value;

	mov	eax, DWORD PTR _value$[ebp]
	mov	DWORD PTR _cur$[ebp], eax

; 3644 :     val = xmlStringCurrentChar(NULL, cur, &len);

	lea	ecx, DWORD PTR _len$[ebp]
	push	ecx
	mov	edx, DWORD PTR _cur$[ebp]
	push	edx
	push	0
	call	_xmlStringCurrentChar
	add	esp, 12					; 0000000cH
	mov	DWORD PTR _val$[ebp], eax

; 3645 :     cur += len;

	mov	eax, DWORD PTR _cur$[ebp]
	add	eax, DWORD PTR _len$[ebp]
	mov	DWORD PTR _cur$[ebp], eax

; 3646 : 
; 3647 :     if (!xmlIsDocNameChar(doc, val))

	mov	ecx, DWORD PTR _val$[ebp]
	push	ecx
	mov	edx, DWORD PTR _doc$[ebp]
	push	edx
	call	_xmlIsDocNameChar
	add	esp, 8
	test	eax, eax
	jne	SHORT $LN5@xmlValidat

; 3648 : 	return(0);

	xor	eax, eax
	jmp	SHORT $LN1@xmlValidat
$LN5@xmlValidat:

; 3649 : 
; 3650 :     val = xmlStringCurrentChar(NULL, cur, &len);

	lea	eax, DWORD PTR _len$[ebp]
	push	eax
	mov	ecx, DWORD PTR _cur$[ebp]
	push	ecx
	push	0
	call	_xmlStringCurrentChar
	add	esp, 12					; 0000000cH
	mov	DWORD PTR _val$[ebp], eax

; 3651 :     cur += len;

	mov	edx, DWORD PTR _cur$[ebp]
	add	edx, DWORD PTR _len$[ebp]
	mov	DWORD PTR _cur$[ebp], edx
$LN2@xmlValidat:

; 3652 :     while (xmlIsDocNameChar(doc, val)) {

	mov	eax, DWORD PTR _val$[ebp]
	push	eax
	mov	ecx, DWORD PTR _doc$[ebp]
	push	ecx
	call	_xmlIsDocNameChar
	add	esp, 8
	test	eax, eax
	je	SHORT $LN3@xmlValidat

; 3653 : 	val = xmlStringCurrentChar(NULL, cur, &len);

	lea	edx, DWORD PTR _len$[ebp]
	push	edx
	mov	eax, DWORD PTR _cur$[ebp]
	push	eax
	push	0
	call	_xmlStringCurrentChar
	add	esp, 12					; 0000000cH
	mov	DWORD PTR _val$[ebp], eax

; 3654 : 	cur += len;

	mov	ecx, DWORD PTR _cur$[ebp]
	add	ecx, DWORD PTR _len$[ebp]
	mov	DWORD PTR _cur$[ebp], ecx

; 3655 :     }

	jmp	SHORT $LN2@xmlValidat
$LN3@xmlValidat:

; 3656 : 
; 3657 :     if (val != 0) return(0);

	cmp	DWORD PTR _val$[ebp], 0
	je	SHORT $LN6@xmlValidat
	xor	eax, eax
	jmp	SHORT $LN1@xmlValidat
$LN6@xmlValidat:

; 3658 : 
; 3659 :     return(1);

	mov	eax, 1
$LN1@xmlValidat:

; 3660 : }

	push	edx
	mov	ecx, ebp
	push	eax
	lea	edx, DWORD PTR $LN10@xmlValidat
	call	@_RTC_CheckStackVars@8
	pop	eax
	pop	edx
	add	esp, 20					; 00000014H
	cmp	ebp, esp
	call	__RTC_CheckEsp
	mov	esp, ebp
	pop	ebp
	ret	0
	npad	3
$LN10@xmlValidat:
	DD	1
	DD	$LN9@xmlValidat
$LN9@xmlValidat:
	DD	-16					; fffffff0H
	DD	4
	DD	$LN8@xmlValidat
$LN8@xmlValidat:
	DB	108					; 0000006cH
	DB	101					; 00000065H
	DB	110					; 0000006eH
	DB	0
_xmlValidateNmtokenValueInternal ENDP
_TEXT	ENDS
; Function compile flags: /Odtp /RTCsu
; File c:\users\dag\documents\_clients\codeproject authors group\windows on arm\libxml2\libxml2-2.9.9\valid.c
;	COMDAT _xmlValidateNamesValueInternal
_TEXT	SEGMENT
_len$ = -16						; size = 4
_val$ = -8						; size = 4
_cur$ = -4						; size = 4
_doc$ = 8						; size = 4
_value$ = 12						; size = 4
_xmlValidateNamesValueInternal PROC			; COMDAT

; 3568 : xmlValidateNamesValueInternal(xmlDocPtr doc, const xmlChar *value) {

	push	ebp
	mov	ebp, esp
	sub	esp, 20					; 00000014H
	mov	eax, -858993460				; ccccccccH
	mov	DWORD PTR [ebp-20], eax
	mov	DWORD PTR [ebp-16], eax
	mov	DWORD PTR [ebp-12], eax
	mov	DWORD PTR [ebp-8], eax
	mov	DWORD PTR [ebp-4], eax
	mov	ecx, OFFSET __56F63275_valid@c
	call	@__CheckForDebuggerJustMyCode@4

; 3569 :     const xmlChar *cur;
; 3570 :     int val, len;
; 3571 : 
; 3572 :     if (value == NULL) return(0);

	cmp	DWORD PTR _value$[ebp], 0
	jne	SHORT $LN10@xmlValidat
	xor	eax, eax
	jmp	$LN1@xmlValidat
$LN10@xmlValidat:

; 3573 :     cur = value;

	mov	eax, DWORD PTR _value$[ebp]
	mov	DWORD PTR _cur$[ebp], eax

; 3574 :     val = xmlStringCurrentChar(NULL, cur, &len);

	lea	ecx, DWORD PTR _len$[ebp]
	push	ecx
	mov	edx, DWORD PTR _cur$[ebp]
	push	edx
	push	0
	call	_xmlStringCurrentChar
	add	esp, 12					; 0000000cH
	mov	DWORD PTR _val$[ebp], eax

; 3575 :     cur += len;

	mov	eax, DWORD PTR _cur$[ebp]
	add	eax, DWORD PTR _len$[ebp]
	mov	DWORD PTR _cur$[ebp], eax

; 3576 : 
; 3577 :     if (!xmlIsDocNameStartChar(doc, val))

	mov	ecx, DWORD PTR _val$[ebp]
	push	ecx
	mov	edx, DWORD PTR _doc$[ebp]
	push	edx
	call	_xmlIsDocNameStartChar
	add	esp, 8
	test	eax, eax
	jne	SHORT $LN11@xmlValidat

; 3578 : 	return(0);

	xor	eax, eax
	jmp	$LN1@xmlValidat
$LN11@xmlValidat:

; 3579 : 
; 3580 :     val = xmlStringCurrentChar(NULL, cur, &len);

	lea	eax, DWORD PTR _len$[ebp]
	push	eax
	mov	ecx, DWORD PTR _cur$[ebp]
	push	ecx
	push	0
	call	_xmlStringCurrentChar
	add	esp, 12					; 0000000cH
	mov	DWORD PTR _val$[ebp], eax

; 3581 :     cur += len;

	mov	edx, DWORD PTR _cur$[ebp]
	add	edx, DWORD PTR _len$[ebp]
	mov	DWORD PTR _cur$[ebp], edx
$LN2@xmlValidat:

; 3582 :     while (xmlIsDocNameChar(doc, val)) {

	mov	eax, DWORD PTR _val$[ebp]
	push	eax
	mov	ecx, DWORD PTR _doc$[ebp]
	push	ecx
	call	_xmlIsDocNameChar
	add	esp, 8
	test	eax, eax
	je	SHORT $LN4@xmlValidat

; 3583 : 	val = xmlStringCurrentChar(NULL, cur, &len);

	lea	edx, DWORD PTR _len$[ebp]
	push	edx
	mov	eax, DWORD PTR _cur$[ebp]
	push	eax
	push	0
	call	_xmlStringCurrentChar
	add	esp, 12					; 0000000cH
	mov	DWORD PTR _val$[ebp], eax

; 3584 : 	cur += len;

	mov	ecx, DWORD PTR _cur$[ebp]
	add	ecx, DWORD PTR _len$[ebp]
	mov	DWORD PTR _cur$[ebp], ecx

; 3585 :     }

	jmp	SHORT $LN2@xmlValidat
$LN4@xmlValidat:

; 3586 : 
; 3587 :     /* Should not test IS_BLANK(val) here -- see erratum E20*/
; 3588 :     while (val == 0x20) {

	cmp	DWORD PTR _val$[ebp], 32		; 00000020H
	jne	$LN5@xmlValidat
$LN6@xmlValidat:

; 3589 : 	while (val == 0x20) {

	cmp	DWORD PTR _val$[ebp], 32		; 00000020H
	jne	SHORT $LN7@xmlValidat

; 3590 : 	    val = xmlStringCurrentChar(NULL, cur, &len);

	lea	edx, DWORD PTR _len$[ebp]
	push	edx
	mov	eax, DWORD PTR _cur$[ebp]
	push	eax
	push	0
	call	_xmlStringCurrentChar
	add	esp, 12					; 0000000cH
	mov	DWORD PTR _val$[ebp], eax

; 3591 : 	    cur += len;

	mov	ecx, DWORD PTR _cur$[ebp]
	add	ecx, DWORD PTR _len$[ebp]
	mov	DWORD PTR _cur$[ebp], ecx

; 3592 : 	}

	jmp	SHORT $LN6@xmlValidat
$LN7@xmlValidat:

; 3593 : 
; 3594 : 	if (!xmlIsDocNameStartChar(doc, val))

	mov	edx, DWORD PTR _val$[ebp]
	push	edx
	mov	eax, DWORD PTR _doc$[ebp]
	push	eax
	call	_xmlIsDocNameStartChar
	add	esp, 8
	test	eax, eax
	jne	SHORT $LN12@xmlValidat

; 3595 : 	    return(0);

	xor	eax, eax
	jmp	SHORT $LN1@xmlValidat
$LN12@xmlValidat:

; 3596 : 
; 3597 : 	val = xmlStringCurrentChar(NULL, cur, &len);

	lea	ecx, DWORD PTR _len$[ebp]
	push	ecx
	mov	edx, DWORD PTR _cur$[ebp]
	push	edx
	push	0
	call	_xmlStringCurrentChar
	add	esp, 12					; 0000000cH
	mov	DWORD PTR _val$[ebp], eax

; 3598 : 	cur += len;

	mov	eax, DWORD PTR _cur$[ebp]
	add	eax, DWORD PTR _len$[ebp]
	mov	DWORD PTR _cur$[ebp], eax
$LN8@xmlValidat:

; 3599 : 
; 3600 : 	while (xmlIsDocNameChar(doc, val)) {

	mov	ecx, DWORD PTR _val$[ebp]
	push	ecx
	mov	edx, DWORD PTR _doc$[ebp]
	push	edx
	call	_xmlIsDocNameChar
	add	esp, 8
	test	eax, eax
	je	SHORT $LN9@xmlValidat

; 3601 : 	    val = xmlStringCurrentChar(NULL, cur, &len);

	lea	eax, DWORD PTR _len$[ebp]
	push	eax
	mov	ecx, DWORD PTR _cur$[ebp]
	push	ecx
	push	0
	call	_xmlStringCurrentChar
	add	esp, 12					; 0000000cH
	mov	DWORD PTR _val$[ebp], eax

; 3602 : 	    cur += len;

	mov	edx, DWORD PTR _cur$[ebp]
	add	edx, DWORD PTR _len$[ebp]
	mov	DWORD PTR _cur$[ebp], edx

; 3603 : 	}

	jmp	SHORT $LN8@xmlValidat
$LN9@xmlValidat:

; 3604 :     }

	jmp	$LN4@xmlValidat
$LN5@xmlValidat:

; 3605 : 
; 3606 :     if (val != 0) return(0);

	cmp	DWORD PTR _val$[ebp], 0
	je	SHORT $LN13@xmlValidat
	xor	eax, eax
	jmp	SHORT $LN1@xmlValidat
$LN13@xmlValidat:

; 3607 : 
; 3608 :     return(1);

	mov	eax, 1
$LN1@xmlValidat:

; 3609 : }

	push	edx
	mov	ecx, ebp
	push	eax
	lea	edx, DWORD PTR $LN17@xmlValidat
	call	@_RTC_CheckStackVars@8
	pop	eax
	pop	edx
	add	esp, 20					; 00000014H
	cmp	ebp, esp
	call	__RTC_CheckEsp
	mov	esp, ebp
	pop	ebp
	ret	0
	npad	1
$LN17@xmlValidat:
	DD	1
	DD	$LN16@xmlValidat
$LN16@xmlValidat:
	DD	-16					; fffffff0H
	DD	4
	DD	$LN15@xmlValidat
$LN15@xmlValidat:
	DB	108					; 0000006cH
	DB	101					; 00000065H
	DB	110					; 0000006eH
	DB	0
_xmlValidateNamesValueInternal ENDP
_TEXT	ENDS
; Function compile flags: /Odtp /RTCsu
; File c:\users\dag\documents\_clients\codeproject authors group\windows on arm\libxml2\libxml2-2.9.9\valid.c
;	COMDAT _xmlValidateNameValueInternal
_TEXT	SEGMENT
_len$ = -16						; size = 4
_val$ = -8						; size = 4
_cur$ = -4						; size = 4
_doc$ = 8						; size = 4
_value$ = 12						; size = 4
_xmlValidateNameValueInternal PROC			; COMDAT

; 3520 : xmlValidateNameValueInternal(xmlDocPtr doc, const xmlChar *value) {

	push	ebp
	mov	ebp, esp
	sub	esp, 20					; 00000014H
	mov	eax, -858993460				; ccccccccH
	mov	DWORD PTR [ebp-20], eax
	mov	DWORD PTR [ebp-16], eax
	mov	DWORD PTR [ebp-12], eax
	mov	DWORD PTR [ebp-8], eax
	mov	DWORD PTR [ebp-4], eax
	mov	ecx, OFFSET __56F63275_valid@c
	call	@__CheckForDebuggerJustMyCode@4

; 3521 :     const xmlChar *cur;
; 3522 :     int val, len;
; 3523 : 
; 3524 :     if (value == NULL) return(0);

	cmp	DWORD PTR _value$[ebp], 0
	jne	SHORT $LN4@xmlValidat
	xor	eax, eax
	jmp	$LN1@xmlValidat
$LN4@xmlValidat:

; 3525 :     cur = value;

	mov	eax, DWORD PTR _value$[ebp]
	mov	DWORD PTR _cur$[ebp], eax

; 3526 :     val = xmlStringCurrentChar(NULL, cur, &len);

	lea	ecx, DWORD PTR _len$[ebp]
	push	ecx
	mov	edx, DWORD PTR _cur$[ebp]
	push	edx
	push	0
	call	_xmlStringCurrentChar
	add	esp, 12					; 0000000cH
	mov	DWORD PTR _val$[ebp], eax

; 3527 :     cur += len;

	mov	eax, DWORD PTR _cur$[ebp]
	add	eax, DWORD PTR _len$[ebp]
	mov	DWORD PTR _cur$[ebp], eax

; 3528 :     if (!xmlIsDocNameStartChar(doc, val))

	mov	ecx, DWORD PTR _val$[ebp]
	push	ecx
	mov	edx, DWORD PTR _doc$[ebp]
	push	edx
	call	_xmlIsDocNameStartChar
	add	esp, 8
	test	eax, eax
	jne	SHORT $LN5@xmlValidat

; 3529 : 	return(0);

	xor	eax, eax
	jmp	SHORT $LN1@xmlValidat
$LN5@xmlValidat:

; 3530 : 
; 3531 :     val = xmlStringCurrentChar(NULL, cur, &len);

	lea	eax, DWORD PTR _len$[ebp]
	push	eax
	mov	ecx, DWORD PTR _cur$[ebp]
	push	ecx
	push	0
	call	_xmlStringCurrentChar
	add	esp, 12					; 0000000cH
	mov	DWORD PTR _val$[ebp], eax

; 3532 :     cur += len;

	mov	edx, DWORD PTR _cur$[ebp]
	add	edx, DWORD PTR _len$[ebp]
	mov	DWORD PTR _cur$[ebp], edx
$LN2@xmlValidat:

; 3533 :     while (xmlIsDocNameChar(doc, val)) {

	mov	eax, DWORD PTR _val$[ebp]
	push	eax
	mov	ecx, DWORD PTR _doc$[ebp]
	push	ecx
	call	_xmlIsDocNameChar
	add	esp, 8
	test	eax, eax
	je	SHORT $LN3@xmlValidat

; 3534 : 	val = xmlStringCurrentChar(NULL, cur, &len);

	lea	edx, DWORD PTR _len$[ebp]
	push	edx
	mov	eax, DWORD PTR _cur$[ebp]
	push	eax
	push	0
	call	_xmlStringCurrentChar
	add	esp, 12					; 0000000cH
	mov	DWORD PTR _val$[ebp], eax

; 3535 : 	cur += len;

	mov	ecx, DWORD PTR _cur$[ebp]
	add	ecx, DWORD PTR _len$[ebp]
	mov	DWORD PTR _cur$[ebp], ecx

; 3536 :     }

	jmp	SHORT $LN2@xmlValidat
$LN3@xmlValidat:

; 3537 : 
; 3538 :     if (val != 0) return(0);

	cmp	DWORD PTR _val$[ebp], 0
	je	SHORT $LN6@xmlValidat
	xor	eax, eax
	jmp	SHORT $LN1@xmlValidat
$LN6@xmlValidat:

; 3539 : 
; 3540 :     return(1);

	mov	eax, 1
$LN1@xmlValidat:

; 3541 : }

	push	edx
	mov	ecx, ebp
	push	eax
	lea	edx, DWORD PTR $LN10@xmlValidat
	call	@_RTC_CheckStackVars@8
	pop	eax
	pop	edx
	add	esp, 20					; 00000014H
	cmp	ebp, esp
	call	__RTC_CheckEsp
	mov	esp, ebp
	pop	ebp
	ret	0
	npad	3
$LN10@xmlValidat:
	DD	1
	DD	$LN9@xmlValidat
$LN9@xmlValidat:
	DD	-16					; fffffff0H
	DD	4
	DD	$LN8@xmlValidat
$LN8@xmlValidat:
	DB	108					; 0000006cH
	DB	101					; 00000065H
	DB	110					; 0000006eH
	DB	0
_xmlValidateNameValueInternal ENDP
_TEXT	ENDS
; Function compile flags: /Odtp /RTCsu
; File c:\users\dag\documents\_clients\codeproject authors group\windows on arm\libxml2\libxml2-2.9.9\valid.c
;	COMDAT _xmlIsDocNameChar
_TEXT	SEGMENT
tv189 = -36						; size = 4
tv188 = -32						; size = 4
tv181 = -28						; size = 4
tv171 = -24						; size = 4
tv170 = -20						; size = 4
tv161 = -16						; size = 4
tv162 = -12						; size = 4
tv153 = -8						; size = 4
tv152 = -4						; size = 4
_doc$ = 8						; size = 4
_c$ = 12						; size = 4
_xmlIsDocNameChar PROC					; COMDAT

; 3472 : xmlIsDocNameChar(xmlDocPtr doc, int c) {

	push	ebp
	mov	ebp, esp
	sub	esp, 36					; 00000024H
	mov	eax, -858993460				; ccccccccH
	mov	DWORD PTR [ebp-36], eax
	mov	DWORD PTR [ebp-32], eax
	mov	DWORD PTR [ebp-28], eax
	mov	DWORD PTR [ebp-24], eax
	mov	DWORD PTR [ebp-20], eax
	mov	DWORD PTR [ebp-16], eax
	mov	DWORD PTR [ebp-12], eax
	mov	DWORD PTR [ebp-8], eax
	mov	DWORD PTR [ebp-4], eax
	mov	ecx, OFFSET __56F63275_valid@c
	call	@__CheckForDebuggerJustMyCode@4

; 3473 :     if ((doc == NULL) || (doc->properties & XML_DOC_OLD10) == 0) {

	cmp	DWORD PTR _doc$[ebp], 0
	je	SHORT $LN4@xmlIsDocNa
	mov	eax, DWORD PTR _doc$[ebp]
	mov	ecx, DWORD PTR [eax+92]
	and	ecx, 4
	jne	$LN2@xmlIsDocNa
$LN4@xmlIsDocNa:

; 3474 :         /*
; 3475 : 	 * Use the new checks of production [4] [4a] amd [5] of the
; 3476 : 	 * Update 5 of XML-1.0
; 3477 : 	 */
; 3478 : 	if (((c >= 'a') && (c <= 'z')) ||
; 3479 : 	    ((c >= 'A') && (c <= 'Z')) ||
; 3480 : 	    ((c >= '0') && (c <= '9')) || /* !start */
; 3481 : 	    (c == '_') || (c == ':') ||
; 3482 : 	    (c == '-') || (c == '.') || (c == 0xB7) || /* !start */
; 3483 : 	    ((c >= 0xC0) && (c <= 0xD6)) ||
; 3484 : 	    ((c >= 0xD8) && (c <= 0xF6)) ||
; 3485 : 	    ((c >= 0xF8) && (c <= 0x2FF)) ||
; 3486 : 	    ((c >= 0x300) && (c <= 0x36F)) || /* !start */
; 3487 : 	    ((c >= 0x370) && (c <= 0x37D)) ||
; 3488 : 	    ((c >= 0x37F) && (c <= 0x1FFF)) ||
; 3489 : 	    ((c >= 0x200C) && (c <= 0x200D)) ||
; 3490 : 	    ((c >= 0x203F) && (c <= 0x2040)) || /* !start */
; 3491 : 	    ((c >= 0x2070) && (c <= 0x218F)) ||
; 3492 : 	    ((c >= 0x2C00) && (c <= 0x2FEF)) ||
; 3493 : 	    ((c >= 0x3001) && (c <= 0xD7FF)) ||
; 3494 : 	    ((c >= 0xF900) && (c <= 0xFDCF)) ||
; 3495 : 	    ((c >= 0xFDF0) && (c <= 0xFFFD)) ||

	cmp	DWORD PTR _c$[ebp], 97			; 00000061H
	jl	SHORT $LN7@xmlIsDocNa
	cmp	DWORD PTR _c$[ebp], 122			; 0000007aH
	jle	$LN6@xmlIsDocNa
$LN7@xmlIsDocNa:
	cmp	DWORD PTR _c$[ebp], 65			; 00000041H
	jl	SHORT $LN8@xmlIsDocNa
	cmp	DWORD PTR _c$[ebp], 90			; 0000005aH
	jle	$LN6@xmlIsDocNa
$LN8@xmlIsDocNa:
	cmp	DWORD PTR _c$[ebp], 48			; 00000030H
	jl	SHORT $LN9@xmlIsDocNa
	cmp	DWORD PTR _c$[ebp], 57			; 00000039H
	jle	$LN6@xmlIsDocNa
$LN9@xmlIsDocNa:
	cmp	DWORD PTR _c$[ebp], 95			; 0000005fH
	je	$LN6@xmlIsDocNa
	cmp	DWORD PTR _c$[ebp], 58			; 0000003aH
	je	$LN6@xmlIsDocNa
	cmp	DWORD PTR _c$[ebp], 45			; 0000002dH
	je	$LN6@xmlIsDocNa
	cmp	DWORD PTR _c$[ebp], 46			; 0000002eH
	je	$LN6@xmlIsDocNa
	cmp	DWORD PTR _c$[ebp], 183			; 000000b7H
	je	$LN6@xmlIsDocNa
	cmp	DWORD PTR _c$[ebp], 192			; 000000c0H
	jl	SHORT $LN10@xmlIsDocNa
	cmp	DWORD PTR _c$[ebp], 214			; 000000d6H
	jle	$LN6@xmlIsDocNa
$LN10@xmlIsDocNa:
	cmp	DWORD PTR _c$[ebp], 216			; 000000d8H
	jl	SHORT $LN11@xmlIsDocNa
	cmp	DWORD PTR _c$[ebp], 246			; 000000f6H
	jle	$LN6@xmlIsDocNa
$LN11@xmlIsDocNa:
	cmp	DWORD PTR _c$[ebp], 248			; 000000f8H
	jl	SHORT $LN12@xmlIsDocNa
	cmp	DWORD PTR _c$[ebp], 767			; 000002ffH
	jle	$LN6@xmlIsDocNa
$LN12@xmlIsDocNa:
	cmp	DWORD PTR _c$[ebp], 768			; 00000300H
	jl	SHORT $LN13@xmlIsDocNa
	cmp	DWORD PTR _c$[ebp], 879			; 0000036fH
	jle	$LN6@xmlIsDocNa
$LN13@xmlIsDocNa:
	cmp	DWORD PTR _c$[ebp], 880			; 00000370H
	jl	SHORT $LN14@xmlIsDocNa
	cmp	DWORD PTR _c$[ebp], 893			; 0000037dH
	jle	$LN6@xmlIsDocNa
$LN14@xmlIsDocNa:
	cmp	DWORD PTR _c$[ebp], 895			; 0000037fH
	jl	SHORT $LN15@xmlIsDocNa
	cmp	DWORD PTR _c$[ebp], 8191		; 00001fffH
	jle	$LN6@xmlIsDocNa
$LN15@xmlIsDocNa:
	cmp	DWORD PTR _c$[ebp], 8204		; 0000200cH
	jl	SHORT $LN16@xmlIsDocNa
	cmp	DWORD PTR _c$[ebp], 8205		; 0000200dH
	jle	SHORT $LN6@xmlIsDocNa
$LN16@xmlIsDocNa:
	cmp	DWORD PTR _c$[ebp], 8255		; 0000203fH
	jl	SHORT $LN17@xmlIsDocNa
	cmp	DWORD PTR _c$[ebp], 8256		; 00002040H
	jle	SHORT $LN6@xmlIsDocNa
$LN17@xmlIsDocNa:
	cmp	DWORD PTR _c$[ebp], 8304		; 00002070H
	jl	SHORT $LN18@xmlIsDocNa
	cmp	DWORD PTR _c$[ebp], 8591		; 0000218fH
	jle	SHORT $LN6@xmlIsDocNa
$LN18@xmlIsDocNa:
	cmp	DWORD PTR _c$[ebp], 11264		; 00002c00H
	jl	SHORT $LN19@xmlIsDocNa
	cmp	DWORD PTR _c$[ebp], 12271		; 00002fefH
	jle	SHORT $LN6@xmlIsDocNa
$LN19@xmlIsDocNa:
	cmp	DWORD PTR _c$[ebp], 12289		; 00003001H
	jl	SHORT $LN20@xmlIsDocNa
	cmp	DWORD PTR _c$[ebp], 55295		; 0000d7ffH
	jle	SHORT $LN6@xmlIsDocNa
$LN20@xmlIsDocNa:
	cmp	DWORD PTR _c$[ebp], 63744		; 0000f900H
	jl	SHORT $LN21@xmlIsDocNa
	cmp	DWORD PTR _c$[ebp], 64975		; 0000fdcfH
	jle	SHORT $LN6@xmlIsDocNa
$LN21@xmlIsDocNa:
	cmp	DWORD PTR _c$[ebp], 65008		; 0000fdf0H
	jl	SHORT $LN22@xmlIsDocNa
	cmp	DWORD PTR _c$[ebp], 65533		; 0000fffdH
	jle	SHORT $LN6@xmlIsDocNa
$LN22@xmlIsDocNa:
	cmp	DWORD PTR _c$[ebp], 65536		; 00010000H
	jl	SHORT $LN5@xmlIsDocNa
	cmp	DWORD PTR _c$[ebp], 983039		; 000effffH
	jg	SHORT $LN5@xmlIsDocNa
$LN6@xmlIsDocNa:

; 3496 : 	    ((c >= 0x10000) && (c <= 0xEFFFF)))
; 3497 : 	     return(1);

	mov	eax, 1
	jmp	$LN1@xmlIsDocNa
$LN5@xmlIsDocNa:

; 3498 :     } else {

	jmp	$LN3@xmlIsDocNa
$LN2@xmlIsDocNa:

; 3499 :         if ((IS_LETTER(c)) || (IS_DIGIT(c)) ||
; 3500 :             (c == '.') || (c == '-') ||
; 3501 : 	    (c == '_') || (c == ':') ||
; 3502 : 	    (IS_COMBINING(c)) ||

	cmp	DWORD PTR _c$[ebp], 256			; 00000100H
	jge	SHORT $LN32@xmlIsDocNa
	cmp	DWORD PTR _c$[ebp], 65			; 00000041H
	jl	SHORT $LN26@xmlIsDocNa
	cmp	DWORD PTR _c$[ebp], 90			; 0000005aH
	jle	SHORT $LN28@xmlIsDocNa
$LN26@xmlIsDocNa:
	cmp	DWORD PTR _c$[ebp], 97			; 00000061H
	jl	SHORT $LN27@xmlIsDocNa
	cmp	DWORD PTR _c$[ebp], 122			; 0000007aH
	jle	SHORT $LN28@xmlIsDocNa
$LN27@xmlIsDocNa:
	cmp	DWORD PTR _c$[ebp], 192			; 000000c0H
	jl	SHORT $LN29@xmlIsDocNa
	cmp	DWORD PTR _c$[ebp], 214			; 000000d6H
	jle	SHORT $LN28@xmlIsDocNa
$LN29@xmlIsDocNa:
	cmp	DWORD PTR _c$[ebp], 216			; 000000d8H
	jl	SHORT $LN30@xmlIsDocNa
	cmp	DWORD PTR _c$[ebp], 246			; 000000f6H
	jle	SHORT $LN28@xmlIsDocNa
$LN30@xmlIsDocNa:
	cmp	DWORD PTR _c$[ebp], 248			; 000000f8H
	jge	SHORT $LN28@xmlIsDocNa
	mov	DWORD PTR tv152[ebp], 0
	jmp	SHORT $LN31@xmlIsDocNa
$LN28@xmlIsDocNa:
	mov	DWORD PTR tv152[ebp], 1
$LN31@xmlIsDocNa:
	mov	edx, DWORD PTR tv152[ebp]
	mov	DWORD PTR tv153[ebp], edx
	jmp	SHORT $LN33@xmlIsDocNa
$LN32@xmlIsDocNa:
	push	OFFSET _xmlIsBaseCharGroup
	mov	eax, DWORD PTR _c$[ebp]
	push	eax
	call	_xmlCharInRange
	add	esp, 8
	mov	DWORD PTR tv153[ebp], eax
$LN33@xmlIsDocNa:
	cmp	DWORD PTR tv153[ebp], 0
	jne	$LN24@xmlIsDocNa
	cmp	DWORD PTR _c$[ebp], 256			; 00000100H
	jge	SHORT $LN38@xmlIsDocNa
	mov	DWORD PTR tv162[ebp], 0
	jmp	SHORT $LN39@xmlIsDocNa
$LN38@xmlIsDocNa:
	cmp	DWORD PTR _c$[ebp], 19968		; 00004e00H
	jl	SHORT $LN34@xmlIsDocNa
	cmp	DWORD PTR _c$[ebp], 40869		; 00009fa5H
	jle	SHORT $LN35@xmlIsDocNa
$LN34@xmlIsDocNa:
	cmp	DWORD PTR _c$[ebp], 12295		; 00003007H
	je	SHORT $LN35@xmlIsDocNa
	cmp	DWORD PTR _c$[ebp], 12321		; 00003021H
	jl	SHORT $LN36@xmlIsDocNa
	cmp	DWORD PTR _c$[ebp], 12329		; 00003029H
	jle	SHORT $LN35@xmlIsDocNa
$LN36@xmlIsDocNa:
	mov	DWORD PTR tv161[ebp], 0
	jmp	SHORT $LN37@xmlIsDocNa
$LN35@xmlIsDocNa:
	mov	DWORD PTR tv161[ebp], 1
$LN37@xmlIsDocNa:
	mov	ecx, DWORD PTR tv161[ebp]
	mov	DWORD PTR tv162[ebp], ecx
$LN39@xmlIsDocNa:
	cmp	DWORD PTR tv162[ebp], 0
	jne	$LN24@xmlIsDocNa
	cmp	DWORD PTR _c$[ebp], 256			; 00000100H
	jge	SHORT $LN42@xmlIsDocNa
	cmp	DWORD PTR _c$[ebp], 48			; 00000030H
	jl	SHORT $LN40@xmlIsDocNa
	cmp	DWORD PTR _c$[ebp], 57			; 00000039H
	jg	SHORT $LN40@xmlIsDocNa
	mov	DWORD PTR tv170[ebp], 1
	jmp	SHORT $LN41@xmlIsDocNa
$LN40@xmlIsDocNa:
	mov	DWORD PTR tv170[ebp], 0
$LN41@xmlIsDocNa:
	mov	edx, DWORD PTR tv170[ebp]
	mov	DWORD PTR tv171[ebp], edx
	jmp	SHORT $LN43@xmlIsDocNa
$LN42@xmlIsDocNa:
	push	OFFSET _xmlIsDigitGroup
	mov	eax, DWORD PTR _c$[ebp]
	push	eax
	call	_xmlCharInRange
	add	esp, 8
	mov	DWORD PTR tv171[ebp], eax
$LN43@xmlIsDocNa:
	cmp	DWORD PTR tv171[ebp], 0
	jne	$LN24@xmlIsDocNa
	cmp	DWORD PTR _c$[ebp], 46			; 0000002eH
	je	$LN24@xmlIsDocNa
	cmp	DWORD PTR _c$[ebp], 45			; 0000002dH
	je	SHORT $LN24@xmlIsDocNa
	cmp	DWORD PTR _c$[ebp], 95			; 0000005fH
	je	SHORT $LN24@xmlIsDocNa
	cmp	DWORD PTR _c$[ebp], 58			; 0000003aH
	je	SHORT $LN24@xmlIsDocNa
	cmp	DWORD PTR _c$[ebp], 256			; 00000100H
	jge	SHORT $LN44@xmlIsDocNa
	mov	DWORD PTR tv181[ebp], 0
	jmp	SHORT $LN45@xmlIsDocNa
$LN44@xmlIsDocNa:
	push	OFFSET _xmlIsCombiningGroup
	mov	ecx, DWORD PTR _c$[ebp]
	push	ecx
	call	_xmlCharInRange
	add	esp, 8
	mov	DWORD PTR tv181[ebp], eax
$LN45@xmlIsDocNa:
	cmp	DWORD PTR tv181[ebp], 0
	jne	SHORT $LN24@xmlIsDocNa
	cmp	DWORD PTR _c$[ebp], 256			; 00000100H
	jge	SHORT $LN48@xmlIsDocNa
	cmp	DWORD PTR _c$[ebp], 183			; 000000b7H
	jne	SHORT $LN46@xmlIsDocNa
	mov	DWORD PTR tv188[ebp], 1
	jmp	SHORT $LN47@xmlIsDocNa
$LN46@xmlIsDocNa:
	mov	DWORD PTR tv188[ebp], 0
$LN47@xmlIsDocNa:
	mov	edx, DWORD PTR tv188[ebp]
	mov	DWORD PTR tv189[ebp], edx
	jmp	SHORT $LN49@xmlIsDocNa
$LN48@xmlIsDocNa:
	push	OFFSET _xmlIsExtenderGroup
	mov	eax, DWORD PTR _c$[ebp]
	push	eax
	call	_xmlCharInRange
	add	esp, 8
	mov	DWORD PTR tv189[ebp], eax
$LN49@xmlIsDocNa:
	cmp	DWORD PTR tv189[ebp], 0
	je	SHORT $LN3@xmlIsDocNa
$LN24@xmlIsDocNa:

; 3503 : 	    (IS_EXTENDER(c)))
; 3504 : 	    return(1);

	mov	eax, 1
	jmp	SHORT $LN1@xmlIsDocNa
$LN3@xmlIsDocNa:

; 3505 :     }
; 3506 :     return(0);

	xor	eax, eax
$LN1@xmlIsDocNa:

; 3507 : }

	add	esp, 36					; 00000024H
	cmp	ebp, esp
	call	__RTC_CheckEsp
	mov	esp, ebp
	pop	ebp
	ret	0
_xmlIsDocNameChar ENDP
_TEXT	ENDS
; Function compile flags: /Odtp /RTCsu
; File c:\users\dag\documents\_clients\codeproject authors group\windows on arm\libxml2\libxml2-2.9.9\valid.c
;	COMDAT _xmlIsDocNameStartChar
_TEXT	SEGMENT
tv152 = -16						; size = 4
tv153 = -12						; size = 4
tv144 = -8						; size = 4
tv143 = -4						; size = 4
_doc$ = 8						; size = 4
_c$ = 12						; size = 4
_xmlIsDocNameStartChar PROC				; COMDAT

; 3442 : xmlIsDocNameStartChar(xmlDocPtr doc, int c) {

	push	ebp
	mov	ebp, esp
	sub	esp, 16					; 00000010H
	mov	eax, -858993460				; ccccccccH
	mov	DWORD PTR [ebp-16], eax
	mov	DWORD PTR [ebp-12], eax
	mov	DWORD PTR [ebp-8], eax
	mov	DWORD PTR [ebp-4], eax
	mov	ecx, OFFSET __56F63275_valid@c
	call	@__CheckForDebuggerJustMyCode@4

; 3443 :     if ((doc == NULL) || (doc->properties & XML_DOC_OLD10) == 0) {

	cmp	DWORD PTR _doc$[ebp], 0
	je	SHORT $LN4@xmlIsDocNa
	mov	eax, DWORD PTR _doc$[ebp]
	mov	ecx, DWORD PTR [eax+92]
	and	ecx, 4
	jne	$LN2@xmlIsDocNa
$LN4@xmlIsDocNa:

; 3444 :         /*
; 3445 : 	 * Use the new checks of production [4] [4a] amd [5] of the
; 3446 : 	 * Update 5 of XML-1.0
; 3447 : 	 */
; 3448 : 	if (((c >= 'a') && (c <= 'z')) ||
; 3449 : 	    ((c >= 'A') && (c <= 'Z')) ||
; 3450 : 	    (c == '_') || (c == ':') ||
; 3451 : 	    ((c >= 0xC0) && (c <= 0xD6)) ||
; 3452 : 	    ((c >= 0xD8) && (c <= 0xF6)) ||
; 3453 : 	    ((c >= 0xF8) && (c <= 0x2FF)) ||
; 3454 : 	    ((c >= 0x370) && (c <= 0x37D)) ||
; 3455 : 	    ((c >= 0x37F) && (c <= 0x1FFF)) ||
; 3456 : 	    ((c >= 0x200C) && (c <= 0x200D)) ||
; 3457 : 	    ((c >= 0x2070) && (c <= 0x218F)) ||
; 3458 : 	    ((c >= 0x2C00) && (c <= 0x2FEF)) ||
; 3459 : 	    ((c >= 0x3001) && (c <= 0xD7FF)) ||
; 3460 : 	    ((c >= 0xF900) && (c <= 0xFDCF)) ||
; 3461 : 	    ((c >= 0xFDF0) && (c <= 0xFFFD)) ||

	cmp	DWORD PTR _c$[ebp], 97			; 00000061H
	jl	SHORT $LN7@xmlIsDocNa
	cmp	DWORD PTR _c$[ebp], 122			; 0000007aH
	jle	$LN6@xmlIsDocNa
$LN7@xmlIsDocNa:
	cmp	DWORD PTR _c$[ebp], 65			; 00000041H
	jl	SHORT $LN8@xmlIsDocNa
	cmp	DWORD PTR _c$[ebp], 90			; 0000005aH
	jle	$LN6@xmlIsDocNa
$LN8@xmlIsDocNa:
	cmp	DWORD PTR _c$[ebp], 95			; 0000005fH
	je	$LN6@xmlIsDocNa
	cmp	DWORD PTR _c$[ebp], 58			; 0000003aH
	je	$LN6@xmlIsDocNa
	cmp	DWORD PTR _c$[ebp], 192			; 000000c0H
	jl	SHORT $LN9@xmlIsDocNa
	cmp	DWORD PTR _c$[ebp], 214			; 000000d6H
	jle	$LN6@xmlIsDocNa
$LN9@xmlIsDocNa:
	cmp	DWORD PTR _c$[ebp], 216			; 000000d8H
	jl	SHORT $LN10@xmlIsDocNa
	cmp	DWORD PTR _c$[ebp], 246			; 000000f6H
	jle	$LN6@xmlIsDocNa
$LN10@xmlIsDocNa:
	cmp	DWORD PTR _c$[ebp], 248			; 000000f8H
	jl	SHORT $LN11@xmlIsDocNa
	cmp	DWORD PTR _c$[ebp], 767			; 000002ffH
	jle	$LN6@xmlIsDocNa
$LN11@xmlIsDocNa:
	cmp	DWORD PTR _c$[ebp], 880			; 00000370H
	jl	SHORT $LN12@xmlIsDocNa
	cmp	DWORD PTR _c$[ebp], 893			; 0000037dH
	jle	$LN6@xmlIsDocNa
$LN12@xmlIsDocNa:
	cmp	DWORD PTR _c$[ebp], 895			; 0000037fH
	jl	SHORT $LN13@xmlIsDocNa
	cmp	DWORD PTR _c$[ebp], 8191		; 00001fffH
	jle	SHORT $LN6@xmlIsDocNa
$LN13@xmlIsDocNa:
	cmp	DWORD PTR _c$[ebp], 8204		; 0000200cH
	jl	SHORT $LN14@xmlIsDocNa
	cmp	DWORD PTR _c$[ebp], 8205		; 0000200dH
	jle	SHORT $LN6@xmlIsDocNa
$LN14@xmlIsDocNa:
	cmp	DWORD PTR _c$[ebp], 8304		; 00002070H
	jl	SHORT $LN15@xmlIsDocNa
	cmp	DWORD PTR _c$[ebp], 8591		; 0000218fH
	jle	SHORT $LN6@xmlIsDocNa
$LN15@xmlIsDocNa:
	cmp	DWORD PTR _c$[ebp], 11264		; 00002c00H
	jl	SHORT $LN16@xmlIsDocNa
	cmp	DWORD PTR _c$[ebp], 12271		; 00002fefH
	jle	SHORT $LN6@xmlIsDocNa
$LN16@xmlIsDocNa:
	cmp	DWORD PTR _c$[ebp], 12289		; 00003001H
	jl	SHORT $LN17@xmlIsDocNa
	cmp	DWORD PTR _c$[ebp], 55295		; 0000d7ffH
	jle	SHORT $LN6@xmlIsDocNa
$LN17@xmlIsDocNa:
	cmp	DWORD PTR _c$[ebp], 63744		; 0000f900H
	jl	SHORT $LN18@xmlIsDocNa
	cmp	DWORD PTR _c$[ebp], 64975		; 0000fdcfH
	jle	SHORT $LN6@xmlIsDocNa
$LN18@xmlIsDocNa:
	cmp	DWORD PTR _c$[ebp], 65008		; 0000fdf0H
	jl	SHORT $LN19@xmlIsDocNa
	cmp	DWORD PTR _c$[ebp], 65533		; 0000fffdH
	jle	SHORT $LN6@xmlIsDocNa
$LN19@xmlIsDocNa:
	cmp	DWORD PTR _c$[ebp], 65536		; 00010000H
	jl	SHORT $LN5@xmlIsDocNa
	cmp	DWORD PTR _c$[ebp], 983039		; 000effffH
	jg	SHORT $LN5@xmlIsDocNa
$LN6@xmlIsDocNa:

; 3462 : 	    ((c >= 0x10000) && (c <= 0xEFFFF)))
; 3463 : 	    return(1);

	mov	eax, 1
	jmp	$LN1@xmlIsDocNa
$LN5@xmlIsDocNa:

; 3464 :     } else {

	jmp	$LN3@xmlIsDocNa
$LN2@xmlIsDocNa:

; 3465 :         if (IS_LETTER(c) || (c == '_') || (c == ':'))

	cmp	DWORD PTR _c$[ebp], 256			; 00000100H
	jge	SHORT $LN29@xmlIsDocNa
	cmp	DWORD PTR _c$[ebp], 65			; 00000041H
	jl	SHORT $LN23@xmlIsDocNa
	cmp	DWORD PTR _c$[ebp], 90			; 0000005aH
	jle	SHORT $LN25@xmlIsDocNa
$LN23@xmlIsDocNa:
	cmp	DWORD PTR _c$[ebp], 97			; 00000061H
	jl	SHORT $LN24@xmlIsDocNa
	cmp	DWORD PTR _c$[ebp], 122			; 0000007aH
	jle	SHORT $LN25@xmlIsDocNa
$LN24@xmlIsDocNa:
	cmp	DWORD PTR _c$[ebp], 192			; 000000c0H
	jl	SHORT $LN26@xmlIsDocNa
	cmp	DWORD PTR _c$[ebp], 214			; 000000d6H
	jle	SHORT $LN25@xmlIsDocNa
$LN26@xmlIsDocNa:
	cmp	DWORD PTR _c$[ebp], 216			; 000000d8H
	jl	SHORT $LN27@xmlIsDocNa
	cmp	DWORD PTR _c$[ebp], 246			; 000000f6H
	jle	SHORT $LN25@xmlIsDocNa
$LN27@xmlIsDocNa:
	cmp	DWORD PTR _c$[ebp], 248			; 000000f8H
	jge	SHORT $LN25@xmlIsDocNa
	mov	DWORD PTR tv143[ebp], 0
	jmp	SHORT $LN28@xmlIsDocNa
$LN25@xmlIsDocNa:
	mov	DWORD PTR tv143[ebp], 1
$LN28@xmlIsDocNa:
	mov	edx, DWORD PTR tv143[ebp]
	mov	DWORD PTR tv144[ebp], edx
	jmp	SHORT $LN30@xmlIsDocNa
$LN29@xmlIsDocNa:
	push	OFFSET _xmlIsBaseCharGroup
	mov	eax, DWORD PTR _c$[ebp]
	push	eax
	call	_xmlCharInRange
	add	esp, 8
	mov	DWORD PTR tv144[ebp], eax
$LN30@xmlIsDocNa:
	cmp	DWORD PTR tv144[ebp], 0
	jne	SHORT $LN21@xmlIsDocNa
	cmp	DWORD PTR _c$[ebp], 256			; 00000100H
	jge	SHORT $LN35@xmlIsDocNa
	mov	DWORD PTR tv153[ebp], 0
	jmp	SHORT $LN36@xmlIsDocNa
$LN35@xmlIsDocNa:
	cmp	DWORD PTR _c$[ebp], 19968		; 00004e00H
	jl	SHORT $LN31@xmlIsDocNa
	cmp	DWORD PTR _c$[ebp], 40869		; 00009fa5H
	jle	SHORT $LN32@xmlIsDocNa
$LN31@xmlIsDocNa:
	cmp	DWORD PTR _c$[ebp], 12295		; 00003007H
	je	SHORT $LN32@xmlIsDocNa
	cmp	DWORD PTR _c$[ebp], 12321		; 00003021H
	jl	SHORT $LN33@xmlIsDocNa
	cmp	DWORD PTR _c$[ebp], 12329		; 00003029H
	jle	SHORT $LN32@xmlIsDocNa
$LN33@xmlIsDocNa:
	mov	DWORD PTR tv152[ebp], 0
	jmp	SHORT $LN34@xmlIsDocNa
$LN32@xmlIsDocNa:
	mov	DWORD PTR tv152[ebp], 1
$LN34@xmlIsDocNa:
	mov	ecx, DWORD PTR tv152[ebp]
	mov	DWORD PTR tv153[ebp], ecx
$LN36@xmlIsDocNa:
	cmp	DWORD PTR tv153[ebp], 0
	jne	SHORT $LN21@xmlIsDocNa
	cmp	DWORD PTR _c$[ebp], 95			; 0000005fH
	je	SHORT $LN21@xmlIsDocNa
	cmp	DWORD PTR _c$[ebp], 58			; 0000003aH
	jne	SHORT $LN3@xmlIsDocNa
$LN21@xmlIsDocNa:

; 3466 : 	    return(1);

	mov	eax, 1
	jmp	SHORT $LN1@xmlIsDocNa
$LN3@xmlIsDocNa:

; 3467 :     }
; 3468 :     return(0);

	xor	eax, eax
$LN1@xmlIsDocNa:

; 3469 : }

	add	esp, 16					; 00000010H
	cmp	ebp, esp
	call	__RTC_CheckEsp
	mov	esp, ebp
	pop	ebp
	ret	0
_xmlIsDocNameStartChar ENDP
_TEXT	ENDS
; Function compile flags: /Odtp /RTCsu
; File c:\users\dag\documents\_clients\codeproject authors group\windows on arm\libxml2\libxml2-2.9.9\valid.c
;	COMDAT _xmlDummyCompare
_TEXT	SEGMENT
_data0$ = 8						; size = 4
_data1$ = 12						; size = 4
_xmlDummyCompare PROC					; COMDAT

; 2914 : {

	push	ebp
	mov	ebp, esp
	mov	ecx, OFFSET __56F63275_valid@c
	call	@__CheckForDebuggerJustMyCode@4

; 2915 :     return (0);

	xor	eax, eax

; 2916 : }

	cmp	ebp, esp
	call	__RTC_CheckEsp
	pop	ebp
	ret	0
_xmlDummyCompare ENDP
_TEXT	ENDS
; Function compile flags: /Odtp /RTCsu
; File c:\users\dag\documents\_clients\codeproject authors group\windows on arm\libxml2\libxml2-2.9.9\valid.c
;	COMDAT _xmlWalkRemoveRef
_TEXT	SEGMENT
_ref_list$ = -12					; size = 4
_attr1$ = -8						; size = 4
_attr0$ = -4						; size = 4
_data$ = 8						; size = 4
_user$ = 12						; size = 4
_xmlWalkRemoveRef PROC					; COMDAT

; 2892 : {

	push	ebp
	mov	ebp, esp
	sub	esp, 12					; 0000000cH
	mov	DWORD PTR [ebp-12], -858993460		; ccccccccH
	mov	DWORD PTR [ebp-8], -858993460		; ccccccccH
	mov	DWORD PTR [ebp-4], -858993460		; ccccccccH
	mov	ecx, OFFSET __56F63275_valid@c
	call	@__CheckForDebuggerJustMyCode@4

; 2893 :     xmlAttrPtr attr0 = ((xmlRefPtr)data)->attr;

	mov	eax, DWORD PTR _data$[ebp]
	mov	ecx, DWORD PTR [eax+8]
	mov	DWORD PTR _attr0$[ebp], ecx

; 2894 :     xmlAttrPtr attr1 = ((xmlRemoveMemoPtr)user)->ap;

	mov	edx, DWORD PTR _user$[ebp]
	mov	eax, DWORD PTR [edx+4]
	mov	DWORD PTR _attr1$[ebp], eax

; 2895 :     xmlListPtr ref_list = ((xmlRemoveMemoPtr)user)->l;

	mov	ecx, DWORD PTR _user$[ebp]
	mov	edx, DWORD PTR [ecx]
	mov	DWORD PTR _ref_list$[ebp], edx

; 2896 : 
; 2897 :     if (attr0 == attr1) { /* Matched: remove and terminate walk */

	mov	eax, DWORD PTR _attr0$[ebp]
	cmp	eax, DWORD PTR _attr1$[ebp]
	jne	SHORT $LN2@xmlWalkRem

; 2898 :         xmlListRemoveFirst(ref_list, (void *)data);

	mov	ecx, DWORD PTR _data$[ebp]
	push	ecx
	mov	edx, DWORD PTR _ref_list$[ebp]
	push	edx
	call	_xmlListRemoveFirst
	add	esp, 8

; 2899 :         return 0;

	xor	eax, eax
	jmp	SHORT $LN1@xmlWalkRem
$LN2@xmlWalkRem:

; 2900 :     }
; 2901 :     return 1;

	mov	eax, 1
$LN1@xmlWalkRem:

; 2902 : }

	add	esp, 12					; 0000000cH
	cmp	ebp, esp
	call	__RTC_CheckEsp
	mov	esp, ebp
	pop	ebp
	ret	0
_xmlWalkRemoveRef ENDP
_TEXT	ENDS
; Function compile flags: /Odtp /RTCsu
; File c:\users\dag\documents\_clients\codeproject authors group\windows on arm\libxml2\libxml2-2.9.9\valid.c
;	COMDAT _xmlFreeRefTableEntry
_TEXT	SEGMENT
_list_ref$ = -4						; size = 4
_payload$ = 8						; size = 4
_name$ = 12						; size = 4
_xmlFreeRefTableEntry PROC				; COMDAT

; 2877 : xmlFreeRefTableEntry(void *payload, const xmlChar *name ATTRIBUTE_UNUSED) {

	push	ebp
	mov	ebp, esp
	push	ecx
	mov	DWORD PTR [ebp-4], -858993460		; ccccccccH
	mov	ecx, OFFSET __56F63275_valid@c
	call	@__CheckForDebuggerJustMyCode@4

; 2878 :     xmlListPtr list_ref = (xmlListPtr) payload;

	mov	eax, DWORD PTR _payload$[ebp]
	mov	DWORD PTR _list_ref$[ebp], eax

; 2879 :     if (list_ref == NULL) return;

	cmp	DWORD PTR _list_ref$[ebp], 0
	jne	SHORT $LN2@xmlFreeRef
	jmp	SHORT $LN1@xmlFreeRef
$LN2@xmlFreeRef:

; 2880 :     xmlListDelete(list_ref);

	mov	ecx, DWORD PTR _list_ref$[ebp]
	push	ecx
	call	_xmlListDelete
	add	esp, 4
$LN1@xmlFreeRef:

; 2881 : }

	add	esp, 4
	cmp	ebp, esp
	call	__RTC_CheckEsp
	mov	esp, ebp
	pop	ebp
	ret	0
_xmlFreeRefTableEntry ENDP
_TEXT	ENDS
; Function compile flags: /Odtp /RTCsu
; File c:\users\dag\documents\_clients\codeproject authors group\windows on arm\libxml2\libxml2-2.9.9\valid.c
;	COMDAT _xmlFreeRef
_TEXT	SEGMENT
_ref$ = -4						; size = 4
_lk$ = 8						; size = 4
_xmlFreeRef PROC					; COMDAT

; 2860 : xmlFreeRef(xmlLinkPtr lk) {

	push	ebp
	mov	ebp, esp
	push	ecx
	push	esi
	mov	DWORD PTR [ebp-4], -858993460		; ccccccccH
	mov	ecx, OFFSET __56F63275_valid@c
	call	@__CheckForDebuggerJustMyCode@4

; 2861 :     xmlRefPtr ref = (xmlRefPtr)xmlLinkGetData(lk);

	mov	eax, DWORD PTR _lk$[ebp]
	push	eax
	call	_xmlLinkGetData
	add	esp, 4
	mov	DWORD PTR _ref$[ebp], eax

; 2862 :     if (ref == NULL) return;

	cmp	DWORD PTR _ref$[ebp], 0
	jne	SHORT $LN2@xmlFreeRef
	jmp	SHORT $LN1@xmlFreeRef
$LN2@xmlFreeRef:

; 2863 :     if (ref->value != NULL)

	mov	ecx, DWORD PTR _ref$[ebp]
	cmp	DWORD PTR [ecx+4], 0
	je	SHORT $LN3@xmlFreeRef

; 2864 :         xmlFree((xmlChar *)ref->value);

	mov	esi, esp
	mov	edx, DWORD PTR _ref$[ebp]
	mov	eax, DWORD PTR [edx+4]
	push	eax
	call	DWORD PTR _xmlFree
	add	esp, 4
	cmp	esi, esp
	call	__RTC_CheckEsp
$LN3@xmlFreeRef:

; 2865 :     if (ref->name != NULL)

	mov	ecx, DWORD PTR _ref$[ebp]
	cmp	DWORD PTR [ecx+12], 0
	je	SHORT $LN4@xmlFreeRef

; 2866 :         xmlFree((xmlChar *)ref->name);

	mov	esi, esp
	mov	edx, DWORD PTR _ref$[ebp]
	mov	eax, DWORD PTR [edx+12]
	push	eax
	call	DWORD PTR _xmlFree
	add	esp, 4
	cmp	esi, esp
	call	__RTC_CheckEsp
$LN4@xmlFreeRef:

; 2867 :     xmlFree(ref);

	mov	esi, esp
	mov	ecx, DWORD PTR _ref$[ebp]
	push	ecx
	call	DWORD PTR _xmlFree
	add	esp, 4
	cmp	esi, esp
	call	__RTC_CheckEsp
$LN1@xmlFreeRef:

; 2868 : }

	pop	esi
	add	esp, 4
	cmp	ebp, esp
	call	__RTC_CheckEsp
	mov	esp, ebp
	pop	ebp
	ret	0
_xmlFreeRef ENDP
_TEXT	ENDS
; Function compile flags: /Odtp /RTCsu
; File c:\users\dag\documents\_clients\codeproject authors group\windows on arm\libxml2\libxml2-2.9.9\valid.c
;	COMDAT _xmlFreeIDTableEntry
_TEXT	SEGMENT
_id$ = 8						; size = 4
_name$ = 12						; size = 4
_xmlFreeIDTableEntry PROC				; COMDAT

; 2675 : xmlFreeIDTableEntry(void *id, const xmlChar *name ATTRIBUTE_UNUSED) {

	push	ebp
	mov	ebp, esp
	mov	ecx, OFFSET __56F63275_valid@c
	call	@__CheckForDebuggerJustMyCode@4

; 2676 :     xmlFreeID((xmlIDPtr) id);

	mov	eax, DWORD PTR _id$[ebp]
	push	eax
	call	_xmlFreeID
	add	esp, 4

; 2677 : }

	cmp	ebp, esp
	call	__RTC_CheckEsp
	pop	ebp
	ret	0
_xmlFreeIDTableEntry ENDP
_TEXT	ENDS
; Function compile flags: /Odtp /RTCsu
; File c:\users\dag\documents\_clients\codeproject authors group\windows on arm\libxml2\libxml2-2.9.9\valid.c
;	COMDAT _xmlFreeID
_TEXT	SEGMENT
_dict$ = -4						; size = 4
_id$ = 8						; size = 4
_xmlFreeID PROC						; COMDAT

; 2574 : xmlFreeID(xmlIDPtr id) {

	push	ebp
	mov	ebp, esp
	push	ecx
	push	esi
	mov	DWORD PTR [ebp-4], -858993460		; ccccccccH
	mov	ecx, OFFSET __56F63275_valid@c
	call	@__CheckForDebuggerJustMyCode@4

; 2575 :     xmlDictPtr dict = NULL;

	mov	DWORD PTR _dict$[ebp], 0

; 2576 : 
; 2577 :     if (id == NULL) return;

	cmp	DWORD PTR _id$[ebp], 0
	jne	SHORT $LN2@xmlFreeID
	jmp	$LN1@xmlFreeID
$LN2@xmlFreeID:

; 2578 : 
; 2579 :     if (id->doc != NULL)

	mov	eax, DWORD PTR _id$[ebp]
	cmp	DWORD PTR [eax+20], 0
	je	SHORT $LN3@xmlFreeID

; 2580 :         dict = id->doc->dict;

	mov	ecx, DWORD PTR _id$[ebp]
	mov	edx, DWORD PTR [ecx+20]
	mov	eax, DWORD PTR [edx+80]
	mov	DWORD PTR _dict$[ebp], eax
$LN3@xmlFreeID:

; 2581 : 
; 2582 :     if (id->value != NULL)

	mov	ecx, DWORD PTR _id$[ebp]
	cmp	DWORD PTR [ecx+4], 0
	je	SHORT $LN4@xmlFreeID

; 2583 : 	DICT_FREE(id->value)

	mov	edx, DWORD PTR _id$[ebp]
	cmp	DWORD PTR [edx+4], 0
	je	SHORT $LN4@xmlFreeID
	cmp	DWORD PTR _dict$[ebp], 0
	je	SHORT $LN6@xmlFreeID
	mov	eax, DWORD PTR _id$[ebp]
	mov	ecx, DWORD PTR [eax+4]
	push	ecx
	mov	edx, DWORD PTR _dict$[ebp]
	push	edx
	call	_xmlDictOwns
	add	esp, 8
	test	eax, eax
	jne	SHORT $LN4@xmlFreeID
$LN6@xmlFreeID:
	mov	esi, esp
	mov	eax, DWORD PTR _id$[ebp]
	mov	ecx, DWORD PTR [eax+4]
	push	ecx
	call	DWORD PTR _xmlFree
	add	esp, 4
	cmp	esi, esp
	call	__RTC_CheckEsp
$LN4@xmlFreeID:

; 2584 :     if (id->name != NULL)

	mov	edx, DWORD PTR _id$[ebp]
	cmp	DWORD PTR [edx+12], 0
	je	SHORT $LN7@xmlFreeID

; 2585 : 	DICT_FREE(id->name)

	mov	eax, DWORD PTR _id$[ebp]
	cmp	DWORD PTR [eax+12], 0
	je	SHORT $LN7@xmlFreeID
	cmp	DWORD PTR _dict$[ebp], 0
	je	SHORT $LN9@xmlFreeID
	mov	ecx, DWORD PTR _id$[ebp]
	mov	edx, DWORD PTR [ecx+12]
	push	edx
	mov	eax, DWORD PTR _dict$[ebp]
	push	eax
	call	_xmlDictOwns
	add	esp, 8
	test	eax, eax
	jne	SHORT $LN7@xmlFreeID
$LN9@xmlFreeID:
	mov	esi, esp
	mov	ecx, DWORD PTR _id$[ebp]
	mov	edx, DWORD PTR [ecx+12]
	push	edx
	call	DWORD PTR _xmlFree
	add	esp, 4
	cmp	esi, esp
	call	__RTC_CheckEsp
$LN7@xmlFreeID:

; 2586 :     xmlFree(id);

	mov	esi, esp
	mov	eax, DWORD PTR _id$[ebp]
	push	eax
	call	DWORD PTR _xmlFree
	add	esp, 4
	cmp	esi, esp
	call	__RTC_CheckEsp
$LN1@xmlFreeID:

; 2587 : }

	pop	esi
	add	esp, 4
	cmp	ebp, esp
	call	__RTC_CheckEsp
	mov	esp, ebp
	pop	ebp
	ret	0
_xmlFreeID ENDP
_TEXT	ENDS
; Function compile flags: /Odtp /RTCsu
; File c:\users\dag\documents\_clients\codeproject authors group\windows on arm\libxml2\libxml2-2.9.9\valid.c
;	COMDAT _xmlDumpNotationDeclScan
_TEXT	SEGMENT
_nota$ = 8						; size = 4
_buf$ = 12						; size = 4
_name$ = 16						; size = 4
_xmlDumpNotationDeclScan PROC				; COMDAT

; 2531 :                         const xmlChar *name ATTRIBUTE_UNUSED) {

	push	ebp
	mov	ebp, esp
	mov	ecx, OFFSET __56F63275_valid@c
	call	@__CheckForDebuggerJustMyCode@4

; 2532 :     xmlDumpNotationDecl((xmlBufferPtr) buf, (xmlNotationPtr) nota);

	mov	eax, DWORD PTR _nota$[ebp]
	push	eax
	mov	ecx, DWORD PTR _buf$[ebp]
	push	ecx
	call	_xmlDumpNotationDecl
	add	esp, 8

; 2533 : }

	cmp	ebp, esp
	call	__RTC_CheckEsp
	pop	ebp
	ret	0
_xmlDumpNotationDeclScan ENDP
_TEXT	ENDS
; Function compile flags: /Odtp /RTCsu
; File c:\users\dag\documents\_clients\codeproject authors group\windows on arm\libxml2\libxml2-2.9.9\valid.c
;	COMDAT _xmlCopyNotation
_TEXT	SEGMENT
_cur$ = -8						; size = 4
_nota$ = -4						; size = 4
_payload$ = 8						; size = 4
_name$ = 12						; size = 4
_xmlCopyNotation PROC					; COMDAT

; 2456 : xmlCopyNotation(void *payload, const xmlChar *name ATTRIBUTE_UNUSED) {

	push	ebp
	mov	ebp, esp
	sub	esp, 8
	push	esi
	mov	DWORD PTR [ebp-8], -858993460		; ccccccccH
	mov	DWORD PTR [ebp-4], -858993460		; ccccccccH
	mov	ecx, OFFSET __56F63275_valid@c
	call	@__CheckForDebuggerJustMyCode@4

; 2457 :     xmlNotationPtr nota = (xmlNotationPtr) payload;

	mov	eax, DWORD PTR _payload$[ebp]
	mov	DWORD PTR _nota$[ebp], eax

; 2458 :     xmlNotationPtr cur;
; 2459 : 
; 2460 :     cur = (xmlNotationPtr) xmlMalloc(sizeof(xmlNotation));

	mov	esi, esp
	push	12					; 0000000cH
	call	DWORD PTR _xmlMalloc
	add	esp, 4
	cmp	esi, esp
	call	__RTC_CheckEsp
	mov	DWORD PTR _cur$[ebp], eax

; 2461 :     if (cur == NULL) {

	cmp	DWORD PTR _cur$[ebp], 0
	jne	SHORT $LN2@xmlCopyNot

; 2462 : 	xmlVErrMemory(NULL, "malloc failed");

	push	OFFSET ??_C@_0O@IMHFIAOC@malloc?5failed@
	push	0
	call	_xmlVErrMemory
	add	esp, 8

; 2463 : 	return(NULL);

	xor	eax, eax
	jmp	SHORT $LN1@xmlCopyNot
$LN2@xmlCopyNot:

; 2464 :     }
; 2465 :     if (nota->name != NULL)

	mov	ecx, DWORD PTR _nota$[ebp]
	cmp	DWORD PTR [ecx], 0
	je	SHORT $LN3@xmlCopyNot

; 2466 : 	cur->name = xmlStrdup(nota->name);

	mov	edx, DWORD PTR _nota$[ebp]
	mov	eax, DWORD PTR [edx]
	push	eax
	call	_xmlStrdup
	add	esp, 4
	mov	ecx, DWORD PTR _cur$[ebp]
	mov	DWORD PTR [ecx], eax
	jmp	SHORT $LN4@xmlCopyNot
$LN3@xmlCopyNot:

; 2467 :     else
; 2468 : 	cur->name = NULL;

	mov	edx, DWORD PTR _cur$[ebp]
	mov	DWORD PTR [edx], 0
$LN4@xmlCopyNot:

; 2469 :     if (nota->PublicID != NULL)

	mov	eax, DWORD PTR _nota$[ebp]
	cmp	DWORD PTR [eax+4], 0
	je	SHORT $LN5@xmlCopyNot

; 2470 : 	cur->PublicID = xmlStrdup(nota->PublicID);

	mov	ecx, DWORD PTR _nota$[ebp]
	mov	edx, DWORD PTR [ecx+4]
	push	edx
	call	_xmlStrdup
	add	esp, 4
	mov	ecx, DWORD PTR _cur$[ebp]
	mov	DWORD PTR [ecx+4], eax
	jmp	SHORT $LN6@xmlCopyNot
$LN5@xmlCopyNot:

; 2471 :     else
; 2472 : 	cur->PublicID = NULL;

	mov	edx, DWORD PTR _cur$[ebp]
	mov	DWORD PTR [edx+4], 0
$LN6@xmlCopyNot:

; 2473 :     if (nota->SystemID != NULL)

	mov	eax, DWORD PTR _nota$[ebp]
	cmp	DWORD PTR [eax+8], 0
	je	SHORT $LN7@xmlCopyNot

; 2474 : 	cur->SystemID = xmlStrdup(nota->SystemID);

	mov	ecx, DWORD PTR _nota$[ebp]
	mov	edx, DWORD PTR [ecx+8]
	push	edx
	call	_xmlStrdup
	add	esp, 4
	mov	ecx, DWORD PTR _cur$[ebp]
	mov	DWORD PTR [ecx+8], eax
	jmp	SHORT $LN8@xmlCopyNot
$LN7@xmlCopyNot:

; 2475 :     else
; 2476 : 	cur->SystemID = NULL;

	mov	edx, DWORD PTR _cur$[ebp]
	mov	DWORD PTR [edx+8], 0
$LN8@xmlCopyNot:

; 2477 :     return(cur);

	mov	eax, DWORD PTR _cur$[ebp]
$LN1@xmlCopyNot:

; 2478 : }

	pop	esi
	add	esp, 8
	cmp	ebp, esp
	call	__RTC_CheckEsp
	mov	esp, ebp
	pop	ebp
	ret	0
_xmlCopyNotation ENDP
_TEXT	ENDS
; Function compile flags: /Odtp /RTCsu
; File c:\users\dag\documents\_clients\codeproject authors group\windows on arm\libxml2\libxml2-2.9.9\valid.c
;	COMDAT _xmlFreeNotationTableEntry
_TEXT	SEGMENT
_nota$ = 8						; size = 4
_name$ = 12						; size = 4
_xmlFreeNotationTableEntry PROC				; COMDAT

; 2431 : xmlFreeNotationTableEntry(void *nota, const xmlChar *name ATTRIBUTE_UNUSED) {

	push	ebp
	mov	ebp, esp
	mov	ecx, OFFSET __56F63275_valid@c
	call	@__CheckForDebuggerJustMyCode@4

; 2432 :     xmlFreeNotation((xmlNotationPtr) nota);

	mov	eax, DWORD PTR _nota$[ebp]
	push	eax
	call	_xmlFreeNotation
	add	esp, 4

; 2433 : }

	cmp	ebp, esp
	call	__RTC_CheckEsp
	pop	ebp
	ret	0
_xmlFreeNotationTableEntry ENDP
_TEXT	ENDS
; Function compile flags: /Odtp /RTCsu
; File c:\users\dag\documents\_clients\codeproject authors group\windows on arm\libxml2\libxml2-2.9.9\valid.c
;	COMDAT _xmlFreeNotation
_TEXT	SEGMENT
_nota$ = 8						; size = 4
_xmlFreeNotation PROC					; COMDAT

; 2340 : xmlFreeNotation(xmlNotationPtr nota) {

	push	ebp
	mov	ebp, esp
	push	esi
	mov	ecx, OFFSET __56F63275_valid@c
	call	@__CheckForDebuggerJustMyCode@4

; 2341 :     if (nota == NULL) return;

	cmp	DWORD PTR _nota$[ebp], 0
	jne	SHORT $LN2@xmlFreeNot
	jmp	SHORT $LN1@xmlFreeNot
$LN2@xmlFreeNot:

; 2342 :     if (nota->name != NULL)

	mov	eax, DWORD PTR _nota$[ebp]
	cmp	DWORD PTR [eax], 0
	je	SHORT $LN3@xmlFreeNot

; 2343 : 	xmlFree((xmlChar *) nota->name);

	mov	esi, esp
	mov	ecx, DWORD PTR _nota$[ebp]
	mov	edx, DWORD PTR [ecx]
	push	edx
	call	DWORD PTR _xmlFree
	add	esp, 4
	cmp	esi, esp
	call	__RTC_CheckEsp
$LN3@xmlFreeNot:

; 2344 :     if (nota->PublicID != NULL)

	mov	eax, DWORD PTR _nota$[ebp]
	cmp	DWORD PTR [eax+4], 0
	je	SHORT $LN4@xmlFreeNot

; 2345 : 	xmlFree((xmlChar *) nota->PublicID);

	mov	esi, esp
	mov	ecx, DWORD PTR _nota$[ebp]
	mov	edx, DWORD PTR [ecx+4]
	push	edx
	call	DWORD PTR _xmlFree
	add	esp, 4
	cmp	esi, esp
	call	__RTC_CheckEsp
$LN4@xmlFreeNot:

; 2346 :     if (nota->SystemID != NULL)

	mov	eax, DWORD PTR _nota$[ebp]
	cmp	DWORD PTR [eax+8], 0
	je	SHORT $LN5@xmlFreeNot

; 2347 : 	xmlFree((xmlChar *) nota->SystemID);

	mov	esi, esp
	mov	ecx, DWORD PTR _nota$[ebp]
	mov	edx, DWORD PTR [ecx+8]
	push	edx
	call	DWORD PTR _xmlFree
	add	esp, 4
	cmp	esi, esp
	call	__RTC_CheckEsp
$LN5@xmlFreeNot:

; 2348 :     xmlFree(nota);

	mov	esi, esp
	mov	eax, DWORD PTR _nota$[ebp]
	push	eax
	call	DWORD PTR _xmlFree
	add	esp, 4
	cmp	esi, esp
	call	__RTC_CheckEsp
$LN1@xmlFreeNot:

; 2349 : }

	pop	esi
	cmp	ebp, esp
	call	__RTC_CheckEsp
	pop	ebp
	ret	0
_xmlFreeNotation ENDP
_TEXT	ENDS
; Function compile flags: /Odtp /RTCsu
; File c:\users\dag\documents\_clients\codeproject authors group\windows on arm\libxml2\libxml2-2.9.9\valid.c
;	COMDAT _xmlDumpAttributeDeclScan
_TEXT	SEGMENT
_attr$ = 8						; size = 4
_buf$ = 12						; size = 4
_name$ = 16						; size = 4
_xmlDumpAttributeDeclScan PROC				; COMDAT

; 2309 :                          const xmlChar *name ATTRIBUTE_UNUSED) {

	push	ebp
	mov	ebp, esp
	mov	ecx, OFFSET __56F63275_valid@c
	call	@__CheckForDebuggerJustMyCode@4

; 2310 :     xmlDumpAttributeDecl((xmlBufferPtr) buf, (xmlAttributePtr) attr);

	mov	eax, DWORD PTR _attr$[ebp]
	push	eax
	mov	ecx, DWORD PTR _buf$[ebp]
	push	ecx
	call	_xmlDumpAttributeDecl
	add	esp, 8

; 2311 : }

	cmp	ebp, esp
	call	__RTC_CheckEsp
	pop	ebp
	ret	0
_xmlDumpAttributeDeclScan ENDP
_TEXT	ENDS
; Function compile flags: /Odtp /RTCsu
; File c:\users\dag\documents\_clients\codeproject authors group\windows on arm\libxml2\libxml2-2.9.9\valid.c
;	COMDAT _xmlCopyAttribute
_TEXT	SEGMENT
_cur$ = -8						; size = 4
_attr$ = -4						; size = 4
_payload$ = 8						; size = 4
_name$ = 12						; size = 4
_xmlCopyAttribute PROC					; COMDAT

; 2178 : xmlCopyAttribute(void *payload, const xmlChar *name ATTRIBUTE_UNUSED) {

	push	ebp
	mov	ebp, esp
	sub	esp, 8
	push	esi
	mov	DWORD PTR [ebp-8], -858993460		; ccccccccH
	mov	DWORD PTR [ebp-4], -858993460		; ccccccccH
	mov	ecx, OFFSET __56F63275_valid@c
	call	@__CheckForDebuggerJustMyCode@4

; 2179 :     xmlAttributePtr attr = (xmlAttributePtr) payload;

	mov	eax, DWORD PTR _payload$[ebp]
	mov	DWORD PTR _attr$[ebp], eax

; 2180 :     xmlAttributePtr cur;
; 2181 : 
; 2182 :     cur = (xmlAttributePtr) xmlMalloc(sizeof(xmlAttribute));

	mov	esi, esp
	push	64					; 00000040H
	call	DWORD PTR _xmlMalloc
	add	esp, 4
	cmp	esi, esp
	call	__RTC_CheckEsp
	mov	DWORD PTR _cur$[ebp], eax

; 2183 :     if (cur == NULL) {

	cmp	DWORD PTR _cur$[ebp], 0
	jne	SHORT $LN2@xmlCopyAtt

; 2184 : 	xmlVErrMemory(NULL, "malloc failed");

	push	OFFSET ??_C@_0O@IMHFIAOC@malloc?5failed@
	push	0
	call	_xmlVErrMemory
	add	esp, 8

; 2185 : 	return(NULL);

	xor	eax, eax
	jmp	$LN1@xmlCopyAtt
$LN2@xmlCopyAtt:

; 2186 :     }
; 2187 :     memset(cur, 0, sizeof(xmlAttribute));

	push	64					; 00000040H
	push	0
	mov	ecx, DWORD PTR _cur$[ebp]
	push	ecx
	call	_memset
	add	esp, 12					; 0000000cH

; 2188 :     cur->type = XML_ATTRIBUTE_DECL;

	mov	edx, DWORD PTR _cur$[ebp]
	mov	DWORD PTR [edx+4], 16			; 00000010H

; 2189 :     cur->atype = attr->atype;

	mov	eax, DWORD PTR _cur$[ebp]
	mov	ecx, DWORD PTR _attr$[ebp]
	mov	edx, DWORD PTR [ecx+40]
	mov	DWORD PTR [eax+40], edx

; 2190 :     cur->def = attr->def;

	mov	eax, DWORD PTR _cur$[ebp]
	mov	ecx, DWORD PTR _attr$[ebp]
	mov	edx, DWORD PTR [ecx+44]
	mov	DWORD PTR [eax+44], edx

; 2191 :     cur->tree = xmlCopyEnumeration(attr->tree);

	mov	eax, DWORD PTR _attr$[ebp]
	mov	ecx, DWORD PTR [eax+52]
	push	ecx
	call	_xmlCopyEnumeration
	add	esp, 4
	mov	edx, DWORD PTR _cur$[ebp]
	mov	DWORD PTR [edx+52], eax

; 2192 :     if (attr->elem != NULL)

	mov	eax, DWORD PTR _attr$[ebp]
	cmp	DWORD PTR [eax+60], 0
	je	SHORT $LN3@xmlCopyAtt

; 2193 : 	cur->elem = xmlStrdup(attr->elem);

	mov	ecx, DWORD PTR _attr$[ebp]
	mov	edx, DWORD PTR [ecx+60]
	push	edx
	call	_xmlStrdup
	add	esp, 4
	mov	ecx, DWORD PTR _cur$[ebp]
	mov	DWORD PTR [ecx+60], eax
$LN3@xmlCopyAtt:

; 2194 :     if (attr->name != NULL)

	mov	edx, DWORD PTR _attr$[ebp]
	cmp	DWORD PTR [edx+8], 0
	je	SHORT $LN4@xmlCopyAtt

; 2195 : 	cur->name = xmlStrdup(attr->name);

	mov	eax, DWORD PTR _attr$[ebp]
	mov	ecx, DWORD PTR [eax+8]
	push	ecx
	call	_xmlStrdup
	add	esp, 4
	mov	edx, DWORD PTR _cur$[ebp]
	mov	DWORD PTR [edx+8], eax
$LN4@xmlCopyAtt:

; 2196 :     if (attr->prefix != NULL)

	mov	eax, DWORD PTR _attr$[ebp]
	cmp	DWORD PTR [eax+56], 0
	je	SHORT $LN5@xmlCopyAtt

; 2197 : 	cur->prefix = xmlStrdup(attr->prefix);

	mov	ecx, DWORD PTR _attr$[ebp]
	mov	edx, DWORD PTR [ecx+56]
	push	edx
	call	_xmlStrdup
	add	esp, 4
	mov	ecx, DWORD PTR _cur$[ebp]
	mov	DWORD PTR [ecx+56], eax
$LN5@xmlCopyAtt:

; 2198 :     if (attr->defaultValue != NULL)

	mov	edx, DWORD PTR _attr$[ebp]
	cmp	DWORD PTR [edx+48], 0
	je	SHORT $LN6@xmlCopyAtt

; 2199 : 	cur->defaultValue = xmlStrdup(attr->defaultValue);

	mov	eax, DWORD PTR _attr$[ebp]
	mov	ecx, DWORD PTR [eax+48]
	push	ecx
	call	_xmlStrdup
	add	esp, 4
	mov	edx, DWORD PTR _cur$[ebp]
	mov	DWORD PTR [edx+48], eax
$LN6@xmlCopyAtt:

; 2200 :     return(cur);

	mov	eax, DWORD PTR _cur$[ebp]
$LN1@xmlCopyAtt:

; 2201 : }

	pop	esi
	add	esp, 8
	cmp	ebp, esp
	call	__RTC_CheckEsp
	mov	esp, ebp
	pop	ebp
	ret	0
_xmlCopyAttribute ENDP
_TEXT	ENDS
; Function compile flags: /Odtp /RTCsu
; File c:\users\dag\documents\_clients\codeproject authors group\windows on arm\libxml2\libxml2-2.9.9\valid.c
;	COMDAT _xmlFreeAttributeTableEntry
_TEXT	SEGMENT
_attr$ = 8						; size = 4
_name$ = 12						; size = 4
_xmlFreeAttributeTableEntry PROC			; COMDAT

; 2153 : xmlFreeAttributeTableEntry(void *attr, const xmlChar *name ATTRIBUTE_UNUSED) {

	push	ebp
	mov	ebp, esp
	mov	ecx, OFFSET __56F63275_valid@c
	call	@__CheckForDebuggerJustMyCode@4

; 2154 :     xmlFreeAttribute((xmlAttributePtr) attr);

	mov	eax, DWORD PTR _attr$[ebp]
	push	eax
	call	_xmlFreeAttribute
	add	esp, 4

; 2155 : }

	cmp	ebp, esp
	call	__RTC_CheckEsp
	pop	ebp
	ret	0
_xmlFreeAttributeTableEntry ENDP
_TEXT	ENDS
; Function compile flags: /Odtp /RTCsu
; File c:\users\dag\documents\_clients\codeproject authors group\windows on arm\libxml2\libxml2-2.9.9\valid.c
;	COMDAT _xmlFreeAttribute
_TEXT	SEGMENT
_dict$ = -4						; size = 4
_attr$ = 8						; size = 4
_xmlFreeAttribute PROC					; COMDAT

; 1885 : xmlFreeAttribute(xmlAttributePtr attr) {

	push	ebp
	mov	ebp, esp
	push	ecx
	push	esi
	mov	DWORD PTR [ebp-4], -858993460		; ccccccccH
	mov	ecx, OFFSET __56F63275_valid@c
	call	@__CheckForDebuggerJustMyCode@4

; 1886 :     xmlDictPtr dict;
; 1887 : 
; 1888 :     if (attr == NULL) return;

	cmp	DWORD PTR _attr$[ebp], 0
	jne	SHORT $LN2@xmlFreeAtt
	jmp	$LN1@xmlFreeAtt
$LN2@xmlFreeAtt:

; 1889 :     if (attr->doc != NULL)

	mov	eax, DWORD PTR _attr$[ebp]
	cmp	DWORD PTR [eax+32], 0
	je	SHORT $LN3@xmlFreeAtt

; 1890 : 	dict = attr->doc->dict;

	mov	ecx, DWORD PTR _attr$[ebp]
	mov	edx, DWORD PTR [ecx+32]
	mov	eax, DWORD PTR [edx+80]
	mov	DWORD PTR _dict$[ebp], eax
	jmp	SHORT $LN4@xmlFreeAtt
$LN3@xmlFreeAtt:

; 1891 :     else
; 1892 : 	dict = NULL;

	mov	DWORD PTR _dict$[ebp], 0
$LN4@xmlFreeAtt:

; 1893 :     xmlUnlinkNode((xmlNodePtr) attr);

	mov	ecx, DWORD PTR _attr$[ebp]
	push	ecx
	call	_xmlUnlinkNode
	add	esp, 4

; 1894 :     if (attr->tree != NULL)

	mov	edx, DWORD PTR _attr$[ebp]
	cmp	DWORD PTR [edx+52], 0
	je	SHORT $LN5@xmlFreeAtt

; 1895 :         xmlFreeEnumeration(attr->tree);

	mov	eax, DWORD PTR _attr$[ebp]
	mov	ecx, DWORD PTR [eax+52]
	push	ecx
	call	_xmlFreeEnumeration
	add	esp, 4
$LN5@xmlFreeAtt:

; 1896 :     if (dict) {

	cmp	DWORD PTR _dict$[ebp], 0
	je	$LN6@xmlFreeAtt

; 1897 :         if ((attr->elem != NULL) && (!xmlDictOwns(dict, attr->elem)))

	mov	edx, DWORD PTR _attr$[ebp]
	cmp	DWORD PTR [edx+60], 0
	je	SHORT $LN8@xmlFreeAtt
	mov	eax, DWORD PTR _attr$[ebp]
	mov	ecx, DWORD PTR [eax+60]
	push	ecx
	mov	edx, DWORD PTR _dict$[ebp]
	push	edx
	call	_xmlDictOwns
	add	esp, 8
	test	eax, eax
	jne	SHORT $LN8@xmlFreeAtt

; 1898 : 	    xmlFree((xmlChar *) attr->elem);

	mov	esi, esp
	mov	eax, DWORD PTR _attr$[ebp]
	mov	ecx, DWORD PTR [eax+60]
	push	ecx
	call	DWORD PTR _xmlFree
	add	esp, 4
	cmp	esi, esp
	call	__RTC_CheckEsp
$LN8@xmlFreeAtt:

; 1899 :         if ((attr->name != NULL) && (!xmlDictOwns(dict, attr->name)))

	mov	edx, DWORD PTR _attr$[ebp]
	cmp	DWORD PTR [edx+8], 0
	je	SHORT $LN9@xmlFreeAtt
	mov	eax, DWORD PTR _attr$[ebp]
	mov	ecx, DWORD PTR [eax+8]
	push	ecx
	mov	edx, DWORD PTR _dict$[ebp]
	push	edx
	call	_xmlDictOwns
	add	esp, 8
	test	eax, eax
	jne	SHORT $LN9@xmlFreeAtt

; 1900 : 	    xmlFree((xmlChar *) attr->name);

	mov	esi, esp
	mov	eax, DWORD PTR _attr$[ebp]
	mov	ecx, DWORD PTR [eax+8]
	push	ecx
	call	DWORD PTR _xmlFree
	add	esp, 4
	cmp	esi, esp
	call	__RTC_CheckEsp
$LN9@xmlFreeAtt:

; 1901 :         if ((attr->prefix != NULL) && (!xmlDictOwns(dict, attr->prefix)))

	mov	edx, DWORD PTR _attr$[ebp]
	cmp	DWORD PTR [edx+56], 0
	je	SHORT $LN10@xmlFreeAtt
	mov	eax, DWORD PTR _attr$[ebp]
	mov	ecx, DWORD PTR [eax+56]
	push	ecx
	mov	edx, DWORD PTR _dict$[ebp]
	push	edx
	call	_xmlDictOwns
	add	esp, 8
	test	eax, eax
	jne	SHORT $LN10@xmlFreeAtt

; 1902 : 	    xmlFree((xmlChar *) attr->prefix);

	mov	esi, esp
	mov	eax, DWORD PTR _attr$[ebp]
	mov	ecx, DWORD PTR [eax+56]
	push	ecx
	call	DWORD PTR _xmlFree
	add	esp, 4
	cmp	esi, esp
	call	__RTC_CheckEsp
$LN10@xmlFreeAtt:

; 1903 :         if ((attr->defaultValue != NULL) &&

	mov	edx, DWORD PTR _attr$[ebp]
	cmp	DWORD PTR [edx+48], 0
	je	SHORT $LN11@xmlFreeAtt
	mov	eax, DWORD PTR _attr$[ebp]
	mov	ecx, DWORD PTR [eax+48]
	push	ecx
	mov	edx, DWORD PTR _dict$[ebp]
	push	edx
	call	_xmlDictOwns
	add	esp, 8
	test	eax, eax
	jne	SHORT $LN11@xmlFreeAtt

; 1904 : 	    (!xmlDictOwns(dict, attr->defaultValue)))
; 1905 : 	    xmlFree((xmlChar *) attr->defaultValue);

	mov	esi, esp
	mov	eax, DWORD PTR _attr$[ebp]
	mov	ecx, DWORD PTR [eax+48]
	push	ecx
	call	DWORD PTR _xmlFree
	add	esp, 4
	cmp	esi, esp
	call	__RTC_CheckEsp
$LN11@xmlFreeAtt:

; 1906 :     } else {

	jmp	$LN7@xmlFreeAtt
$LN6@xmlFreeAtt:

; 1907 : 	if (attr->elem != NULL)

	mov	edx, DWORD PTR _attr$[ebp]
	cmp	DWORD PTR [edx+60], 0
	je	SHORT $LN12@xmlFreeAtt

; 1908 : 	    xmlFree((xmlChar *) attr->elem);

	mov	esi, esp
	mov	eax, DWORD PTR _attr$[ebp]
	mov	ecx, DWORD PTR [eax+60]
	push	ecx
	call	DWORD PTR _xmlFree
	add	esp, 4
	cmp	esi, esp
	call	__RTC_CheckEsp
$LN12@xmlFreeAtt:

; 1909 : 	if (attr->name != NULL)

	mov	edx, DWORD PTR _attr$[ebp]
	cmp	DWORD PTR [edx+8], 0
	je	SHORT $LN13@xmlFreeAtt

; 1910 : 	    xmlFree((xmlChar *) attr->name);

	mov	esi, esp
	mov	eax, DWORD PTR _attr$[ebp]
	mov	ecx, DWORD PTR [eax+8]
	push	ecx
	call	DWORD PTR _xmlFree
	add	esp, 4
	cmp	esi, esp
	call	__RTC_CheckEsp
$LN13@xmlFreeAtt:

; 1911 : 	if (attr->defaultValue != NULL)

	mov	edx, DWORD PTR _attr$[ebp]
	cmp	DWORD PTR [edx+48], 0
	je	SHORT $LN14@xmlFreeAtt

; 1912 : 	    xmlFree((xmlChar *) attr->defaultValue);

	mov	esi, esp
	mov	eax, DWORD PTR _attr$[ebp]
	mov	ecx, DWORD PTR [eax+48]
	push	ecx
	call	DWORD PTR _xmlFree
	add	esp, 4
	cmp	esi, esp
	call	__RTC_CheckEsp
$LN14@xmlFreeAtt:

; 1913 : 	if (attr->prefix != NULL)

	mov	edx, DWORD PTR _attr$[ebp]
	cmp	DWORD PTR [edx+56], 0
	je	SHORT $LN7@xmlFreeAtt

; 1914 : 	    xmlFree((xmlChar *) attr->prefix);

	mov	esi, esp
	mov	eax, DWORD PTR _attr$[ebp]
	mov	ecx, DWORD PTR [eax+56]
	push	ecx
	call	DWORD PTR _xmlFree
	add	esp, 4
	cmp	esi, esp
	call	__RTC_CheckEsp
$LN7@xmlFreeAtt:

; 1915 :     }
; 1916 :     xmlFree(attr);

	mov	esi, esp
	mov	edx, DWORD PTR _attr$[ebp]
	push	edx
	call	DWORD PTR _xmlFree
	add	esp, 4
	cmp	esi, esp
	call	__RTC_CheckEsp
$LN1@xmlFreeAtt:

; 1917 : }

	pop	esi
	add	esp, 4
	cmp	ebp, esp
	call	__RTC_CheckEsp
	mov	esp, ebp
	pop	ebp
	ret	0
_xmlFreeAttribute ENDP
_TEXT	ENDS
; Function compile flags: /Odtp /RTCsu
; File c:\users\dag\documents\_clients\codeproject authors group\windows on arm\libxml2\libxml2-2.9.9\valid.c
;	COMDAT _xmlScanIDAttributeDecl
_TEXT	SEGMENT
_ret$ = -8						; size = 4
_cur$ = -4						; size = 4
_ctxt$ = 8						; size = 4
_elem$ = 12						; size = 4
_err$ = 16						; size = 4
_xmlScanIDAttributeDecl PROC				; COMDAT

; 1858 : xmlScanIDAttributeDecl(xmlValidCtxtPtr ctxt, xmlElementPtr elem, int err) {

	push	ebp
	mov	ebp, esp
	sub	esp, 8
	mov	DWORD PTR [ebp-8], -858993460		; ccccccccH
	mov	DWORD PTR [ebp-4], -858993460		; ccccccccH
	mov	ecx, OFFSET __56F63275_valid@c
	call	@__CheckForDebuggerJustMyCode@4

; 1859 :     xmlAttributePtr cur;
; 1860 :     int ret = 0;

	mov	DWORD PTR _ret$[ebp], 0

; 1861 : 
; 1862 :     if (elem == NULL) return(0);

	cmp	DWORD PTR _elem$[ebp], 0
	jne	SHORT $LN4@xmlScanIDA
	xor	eax, eax
	jmp	SHORT $LN1@xmlScanIDA
$LN4@xmlScanIDA:

; 1863 :     cur = elem->attributes;

	mov	eax, DWORD PTR _elem$[ebp]
	mov	ecx, DWORD PTR [eax+44]
	mov	DWORD PTR _cur$[ebp], ecx
$LN2@xmlScanIDA:

; 1864 :     while (cur != NULL) {

	cmp	DWORD PTR _cur$[ebp], 0
	je	SHORT $LN3@xmlScanIDA

; 1865 :         if (cur->atype == XML_ATTRIBUTE_ID) {

	mov	edx, DWORD PTR _cur$[ebp]
	cmp	DWORD PTR [edx+40], 2
	jne	SHORT $LN5@xmlScanIDA

; 1866 : 	    ret ++;

	mov	eax, DWORD PTR _ret$[ebp]
	add	eax, 1
	mov	DWORD PTR _ret$[ebp], eax

; 1867 : 	    if ((ret > 1) && (err))

	cmp	DWORD PTR _ret$[ebp], 1
	jle	SHORT $LN5@xmlScanIDA
	cmp	DWORD PTR _err$[ebp], 0
	je	SHORT $LN5@xmlScanIDA

; 1868 : 		xmlErrValidNode(ctxt, (xmlNodePtr) elem, XML_DTD_MULTIPLE_ID,

	push	0
	mov	ecx, DWORD PTR _cur$[ebp]
	mov	edx, DWORD PTR [ecx+8]
	push	edx
	mov	eax, DWORD PTR _elem$[ebp]
	mov	ecx, DWORD PTR [eax+8]
	push	ecx
	push	OFFSET ??_C@_0DE@EJGKGKMH@Element?5?$CFs?5has?5too?5many?5ID?5attr@
	push	520					; 00000208H
	mov	edx, DWORD PTR _elem$[ebp]
	push	edx
	mov	eax, DWORD PTR _ctxt$[ebp]
	push	eax
	call	_xmlErrValidNode
	add	esp, 28					; 0000001cH
$LN5@xmlScanIDA:

; 1869 : 	       "Element %s has too many ID attributes defined : %s\n",
; 1870 : 		       elem->name, cur->name, NULL);
; 1871 : 	}
; 1872 : 	cur = cur->nexth;

	mov	ecx, DWORD PTR _cur$[ebp]
	mov	edx, DWORD PTR [ecx+36]
	mov	DWORD PTR _cur$[ebp], edx

; 1873 :     }

	jmp	SHORT $LN2@xmlScanIDA
$LN3@xmlScanIDA:

; 1874 :     return(ret);

	mov	eax, DWORD PTR _ret$[ebp]
$LN1@xmlScanIDA:

; 1875 : }

	add	esp, 8
	cmp	ebp, esp
	call	__RTC_CheckEsp
	mov	esp, ebp
	pop	ebp
	ret	0
_xmlScanIDAttributeDecl ENDP
_TEXT	ENDS
; Function compile flags: /Odtp /RTCsu
; File c:\users\dag\documents\_clients\codeproject authors group\windows on arm\libxml2\libxml2-2.9.9\valid.c
;	COMDAT _xmlDumpEnumeration
_TEXT	SEGMENT
_buf$ = 8						; size = 4
_cur$ = 12						; size = 4
_xmlDumpEnumeration PROC				; COMDAT

; 1831 : xmlDumpEnumeration(xmlBufferPtr buf, xmlEnumerationPtr cur) {

	push	ebp
	mov	ebp, esp
	mov	ecx, OFFSET __56F63275_valid@c
	call	@__CheckForDebuggerJustMyCode@4

; 1832 :     if ((buf == NULL) || (cur == NULL))

	cmp	DWORD PTR _buf$[ebp], 0
	je	SHORT $LN3@xmlDumpEnu
	cmp	DWORD PTR _cur$[ebp], 0
	jne	SHORT $LN2@xmlDumpEnu
$LN3@xmlDumpEnu:

; 1833 :         return;

	jmp	SHORT $LN1@xmlDumpEnu
$LN2@xmlDumpEnu:

; 1834 : 
; 1835 :     xmlBufferWriteCHAR(buf, cur->name);

	mov	eax, DWORD PTR _cur$[ebp]
	mov	ecx, DWORD PTR [eax+4]
	push	ecx
	mov	edx, DWORD PTR _buf$[ebp]
	push	edx
	call	_xmlBufferWriteCHAR
	add	esp, 8

; 1836 :     if (cur->next == NULL)

	mov	eax, DWORD PTR _cur$[ebp]
	cmp	DWORD PTR [eax], 0
	jne	SHORT $LN4@xmlDumpEnu

; 1837 : 	xmlBufferWriteChar(buf, ")");

	push	OFFSET ??_C@_01PKGAHCOL@?$CJ@
	mov	ecx, DWORD PTR _buf$[ebp]
	push	ecx
	call	_xmlBufferWriteChar
	add	esp, 8
	jmp	SHORT $LN1@xmlDumpEnu
$LN4@xmlDumpEnu:

; 1838 :     else {
; 1839 : 	xmlBufferWriteChar(buf, " | ");

	push	OFFSET ??_C@_03LGOGDKEL@?5?$HM?5@
	mov	edx, DWORD PTR _buf$[ebp]
	push	edx
	call	_xmlBufferWriteChar
	add	esp, 8

; 1840 : 	xmlDumpEnumeration(buf, cur->next);

	mov	eax, DWORD PTR _cur$[ebp]
	mov	ecx, DWORD PTR [eax]
	push	ecx
	mov	edx, DWORD PTR _buf$[ebp]
	push	edx
	call	_xmlDumpEnumeration
	add	esp, 8
$LN1@xmlDumpEnu:

; 1841 :     }
; 1842 : }

	cmp	ebp, esp
	call	__RTC_CheckEsp
	pop	ebp
	ret	0
_xmlDumpEnumeration ENDP
_TEXT	ENDS
; Function compile flags: /Odtp /RTCsu
; File c:\users\dag\documents\_clients\codeproject authors group\windows on arm\libxml2\libxml2-2.9.9\valid.c
;	COMDAT _xmlDumpElementDeclScan
_TEXT	SEGMENT
_elem$ = 8						; size = 4
_buf$ = 12						; size = 4
_name$ = 16						; size = 4
_xmlDumpElementDeclScan PROC				; COMDAT

; 1737 :                        const xmlChar *name ATTRIBUTE_UNUSED) {

	push	ebp
	mov	ebp, esp
	mov	ecx, OFFSET __56F63275_valid@c
	call	@__CheckForDebuggerJustMyCode@4

; 1738 :     xmlDumpElementDecl((xmlBufferPtr) buf, (xmlElementPtr) elem);

	mov	eax, DWORD PTR _elem$[ebp]
	push	eax
	mov	ecx, DWORD PTR _buf$[ebp]
	push	ecx
	call	_xmlDumpElementDecl
	add	esp, 8

; 1739 : }

	cmp	ebp, esp
	call	__RTC_CheckEsp
	pop	ebp
	ret	0
_xmlDumpElementDeclScan ENDP
_TEXT	ENDS
; Function compile flags: /Odtp /RTCsu
; File c:\users\dag\documents\_clients\codeproject authors group\windows on arm\libxml2\libxml2-2.9.9\valid.c
;	COMDAT _xmlCopyElement
_TEXT	SEGMENT
_cur$ = -8						; size = 4
_elem$ = -4						; size = 4
_payload$ = 8						; size = 4
_name$ = 12						; size = 4
_xmlCopyElement PROC					; COMDAT

; 1626 : xmlCopyElement(void *payload, const xmlChar *name ATTRIBUTE_UNUSED) {

	push	ebp
	mov	ebp, esp
	sub	esp, 8
	push	esi
	mov	DWORD PTR [ebp-8], -858993460		; ccccccccH
	mov	DWORD PTR [ebp-4], -858993460		; ccccccccH
	mov	ecx, OFFSET __56F63275_valid@c
	call	@__CheckForDebuggerJustMyCode@4

; 1627 :     xmlElementPtr elem = (xmlElementPtr) payload;

	mov	eax, DWORD PTR _payload$[ebp]
	mov	DWORD PTR _elem$[ebp], eax

; 1628 :     xmlElementPtr cur;
; 1629 : 
; 1630 :     cur = (xmlElementPtr) xmlMalloc(sizeof(xmlElement));

	mov	esi, esp
	push	56					; 00000038H
	call	DWORD PTR _xmlMalloc
	add	esp, 4
	cmp	esi, esp
	call	__RTC_CheckEsp
	mov	DWORD PTR _cur$[ebp], eax

; 1631 :     if (cur == NULL) {

	cmp	DWORD PTR _cur$[ebp], 0
	jne	SHORT $LN2@xmlCopyEle

; 1632 : 	xmlVErrMemory(NULL, "malloc failed");

	push	OFFSET ??_C@_0O@IMHFIAOC@malloc?5failed@
	push	0
	call	_xmlVErrMemory
	add	esp, 8

; 1633 : 	return(NULL);

	xor	eax, eax
	jmp	$LN1@xmlCopyEle
$LN2@xmlCopyEle:

; 1634 :     }
; 1635 :     memset(cur, 0, sizeof(xmlElement));

	push	56					; 00000038H
	push	0
	mov	ecx, DWORD PTR _cur$[ebp]
	push	ecx
	call	_memset
	add	esp, 12					; 0000000cH

; 1636 :     cur->type = XML_ELEMENT_DECL;

	mov	edx, DWORD PTR _cur$[ebp]
	mov	DWORD PTR [edx+4], 15			; 0000000fH

; 1637 :     cur->etype = elem->etype;

	mov	eax, DWORD PTR _cur$[ebp]
	mov	ecx, DWORD PTR _elem$[ebp]
	mov	edx, DWORD PTR [ecx+36]
	mov	DWORD PTR [eax+36], edx

; 1638 :     if (elem->name != NULL)

	mov	eax, DWORD PTR _elem$[ebp]
	cmp	DWORD PTR [eax+8], 0
	je	SHORT $LN3@xmlCopyEle

; 1639 : 	cur->name = xmlStrdup(elem->name);

	mov	ecx, DWORD PTR _elem$[ebp]
	mov	edx, DWORD PTR [ecx+8]
	push	edx
	call	_xmlStrdup
	add	esp, 4
	mov	ecx, DWORD PTR _cur$[ebp]
	mov	DWORD PTR [ecx+8], eax
	jmp	SHORT $LN4@xmlCopyEle
$LN3@xmlCopyEle:

; 1640 :     else
; 1641 : 	cur->name = NULL;

	mov	edx, DWORD PTR _cur$[ebp]
	mov	DWORD PTR [edx+8], 0
$LN4@xmlCopyEle:

; 1642 :     if (elem->prefix != NULL)

	mov	eax, DWORD PTR _elem$[ebp]
	cmp	DWORD PTR [eax+48], 0
	je	SHORT $LN5@xmlCopyEle

; 1643 : 	cur->prefix = xmlStrdup(elem->prefix);

	mov	ecx, DWORD PTR _elem$[ebp]
	mov	edx, DWORD PTR [ecx+48]
	push	edx
	call	_xmlStrdup
	add	esp, 4
	mov	ecx, DWORD PTR _cur$[ebp]
	mov	DWORD PTR [ecx+48], eax
	jmp	SHORT $LN6@xmlCopyEle
$LN5@xmlCopyEle:

; 1644 :     else
; 1645 : 	cur->prefix = NULL;

	mov	edx, DWORD PTR _cur$[ebp]
	mov	DWORD PTR [edx+48], 0
$LN6@xmlCopyEle:

; 1646 :     cur->content = xmlCopyElementContent(elem->content);

	mov	eax, DWORD PTR _elem$[ebp]
	mov	ecx, DWORD PTR [eax+40]
	push	ecx
	call	_xmlCopyElementContent
	add	esp, 4
	mov	edx, DWORD PTR _cur$[ebp]
	mov	DWORD PTR [edx+40], eax

; 1647 :     /* TODO : rebuild the attribute list on the copy */
; 1648 :     cur->attributes = NULL;

	mov	eax, DWORD PTR _cur$[ebp]
	mov	DWORD PTR [eax+44], 0

; 1649 :     return(cur);

	mov	eax, DWORD PTR _cur$[ebp]
$LN1@xmlCopyEle:

; 1650 : }

	pop	esi
	add	esp, 8
	cmp	ebp, esp
	call	__RTC_CheckEsp
	mov	esp, ebp
	pop	ebp
	ret	0
_xmlCopyElement ENDP
_TEXT	ENDS
; Function compile flags: /Odtp /RTCsu
; File c:\users\dag\documents\_clients\codeproject authors group\windows on arm\libxml2\libxml2-2.9.9\valid.c
;	COMDAT _xmlFreeElementTableEntry
_TEXT	SEGMENT
_elem$ = 8						; size = 4
_name$ = 12						; size = 4
_xmlFreeElementTableEntry PROC				; COMDAT

; 1601 : xmlFreeElementTableEntry(void *elem, const xmlChar *name ATTRIBUTE_UNUSED) {

	push	ebp
	mov	ebp, esp
	mov	ecx, OFFSET __56F63275_valid@c
	call	@__CheckForDebuggerJustMyCode@4

; 1602 :     xmlFreeElement((xmlElementPtr) elem);

	mov	eax, DWORD PTR _elem$[ebp]
	push	eax
	call	_xmlFreeElement
	add	esp, 4

; 1603 : }

	cmp	ebp, esp
	call	__RTC_CheckEsp
	pop	ebp
	ret	0
_xmlFreeElementTableEntry ENDP
_TEXT	ENDS
; Function compile flags: /Odtp /RTCsu
; File c:\users\dag\documents\_clients\codeproject authors group\windows on arm\libxml2\libxml2-2.9.9\valid.c
;	COMDAT _xmlFreeElement
_TEXT	SEGMENT
_elem$ = 8						; size = 4
_xmlFreeElement PROC					; COMDAT

; 1358 : xmlFreeElement(xmlElementPtr elem) {

	push	ebp
	mov	ebp, esp
	push	esi
	mov	ecx, OFFSET __56F63275_valid@c
	call	@__CheckForDebuggerJustMyCode@4

; 1359 :     if (elem == NULL) return;

	cmp	DWORD PTR _elem$[ebp], 0
	jne	SHORT $LN2@xmlFreeEle
	jmp	$LN1@xmlFreeEle
$LN2@xmlFreeEle:

; 1360 :     xmlUnlinkNode((xmlNodePtr) elem);

	mov	eax, DWORD PTR _elem$[ebp]
	push	eax
	call	_xmlUnlinkNode
	add	esp, 4

; 1361 :     xmlFreeDocElementContent(elem->doc, elem->content);

	mov	ecx, DWORD PTR _elem$[ebp]
	mov	edx, DWORD PTR [ecx+40]
	push	edx
	mov	eax, DWORD PTR _elem$[ebp]
	mov	ecx, DWORD PTR [eax+32]
	push	ecx
	call	_xmlFreeDocElementContent
	add	esp, 8

; 1362 :     if (elem->name != NULL)

	mov	edx, DWORD PTR _elem$[ebp]
	cmp	DWORD PTR [edx+8], 0
	je	SHORT $LN3@xmlFreeEle

; 1363 : 	xmlFree((xmlChar *) elem->name);

	mov	esi, esp
	mov	eax, DWORD PTR _elem$[ebp]
	mov	ecx, DWORD PTR [eax+8]
	push	ecx
	call	DWORD PTR _xmlFree
	add	esp, 4
	cmp	esi, esp
	call	__RTC_CheckEsp
$LN3@xmlFreeEle:

; 1364 :     if (elem->prefix != NULL)

	mov	edx, DWORD PTR _elem$[ebp]
	cmp	DWORD PTR [edx+48], 0
	je	SHORT $LN4@xmlFreeEle

; 1365 : 	xmlFree((xmlChar *) elem->prefix);

	mov	esi, esp
	mov	eax, DWORD PTR _elem$[ebp]
	mov	ecx, DWORD PTR [eax+48]
	push	ecx
	call	DWORD PTR _xmlFree
	add	esp, 4
	cmp	esi, esp
	call	__RTC_CheckEsp
$LN4@xmlFreeEle:

; 1366 : #ifdef LIBXML_REGEXP_ENABLED
; 1367 :     if (elem->contModel != NULL)

	mov	edx, DWORD PTR _elem$[ebp]
	cmp	DWORD PTR [edx+52], 0
	je	SHORT $LN5@xmlFreeEle

; 1368 : 	xmlRegFreeRegexp(elem->contModel);

	mov	eax, DWORD PTR _elem$[ebp]
	mov	ecx, DWORD PTR [eax+52]
	push	ecx
	call	_xmlRegFreeRegexp
	add	esp, 4
$LN5@xmlFreeEle:

; 1369 : #endif
; 1370 :     xmlFree(elem);

	mov	esi, esp
	mov	edx, DWORD PTR _elem$[ebp]
	push	edx
	call	DWORD PTR _xmlFree
	add	esp, 4
	cmp	esi, esp
	call	__RTC_CheckEsp
$LN1@xmlFreeEle:

; 1371 : }

	pop	esi
	cmp	ebp, esp
	call	__RTC_CheckEsp
	pop	ebp
	ret	0
_xmlFreeElement ENDP
_TEXT	ENDS
; Function compile flags: /Odtp /RTCsu
; File c:\users\dag\documents\_clients\codeproject authors group\windows on arm\libxml2\libxml2-2.9.9\valid.c
;	COMDAT _xmlDumpElementContent
_TEXT	SEGMENT
tv198 = -8						; size = 4
tv69 = -4						; size = 4
_buf$ = 8						; size = 4
_content$ = 12						; size = 4
_glob$ = 16						; size = 4
_xmlDumpElementContent PROC				; COMDAT

; 1159 : xmlDumpElementContent(xmlBufferPtr buf, xmlElementContentPtr content, int glob) {

	push	ebp
	mov	ebp, esp
	sub	esp, 8
	mov	DWORD PTR [ebp-8], -858993460		; ccccccccH
	mov	DWORD PTR [ebp-4], -858993460		; ccccccccH
	mov	ecx, OFFSET __56F63275_valid@c
	call	@__CheckForDebuggerJustMyCode@4

; 1160 :     if (content == NULL) return;

	cmp	DWORD PTR _content$[ebp], 0
	jne	SHORT $LN6@xmlDumpEle
	jmp	$LN1@xmlDumpEle
$LN6@xmlDumpEle:

; 1161 : 
; 1162 :     if (glob) xmlBufferWriteChar(buf, "(");

	cmp	DWORD PTR _glob$[ebp], 0
	je	SHORT $LN7@xmlDumpEle
	push	OFFSET ??_C@_01ODHLEDKK@?$CI@
	mov	eax, DWORD PTR _buf$[ebp]
	push	eax
	call	_xmlBufferWriteChar
	add	esp, 8
$LN7@xmlDumpEle:

; 1163 :     switch (content->type) {

	mov	ecx, DWORD PTR _content$[ebp]
	mov	edx, DWORD PTR [ecx]
	mov	DWORD PTR tv69[ebp], edx
	mov	eax, DWORD PTR tv69[ebp]
	sub	eax, 1
	mov	DWORD PTR tv69[ebp], eax
	cmp	DWORD PTR tv69[ebp], 3
	ja	$LN25@xmlDumpEle
	mov	ecx, DWORD PTR tv69[ebp]
	jmp	DWORD PTR $LN32@xmlDumpEle[ecx*4]
$LN8@xmlDumpEle:

; 1164 :         case XML_ELEMENT_CONTENT_PCDATA:
; 1165 :             xmlBufferWriteChar(buf, "#PCDATA");

	push	OFFSET ??_C@_07ELDBONKP@?$CDPCDATA@
	mov	edx, DWORD PTR _buf$[ebp]
	push	edx
	call	_xmlBufferWriteChar
	add	esp, 8

; 1166 : 	    break;

	jmp	$LN2@xmlDumpEle
$LN9@xmlDumpEle:

; 1167 : 	case XML_ELEMENT_CONTENT_ELEMENT:
; 1168 : 	    if (content->prefix != NULL) {

	mov	eax, DWORD PTR _content$[ebp]
	cmp	DWORD PTR [eax+24], 0
	je	SHORT $LN10@xmlDumpEle

; 1169 : 		xmlBufferWriteCHAR(buf, content->prefix);

	mov	ecx, DWORD PTR _content$[ebp]
	mov	edx, DWORD PTR [ecx+24]
	push	edx
	mov	eax, DWORD PTR _buf$[ebp]
	push	eax
	call	_xmlBufferWriteCHAR
	add	esp, 8

; 1170 : 		xmlBufferWriteChar(buf, ":");

	push	OFFSET ??_C@_01JLIPDDHJ@?3@
	mov	ecx, DWORD PTR _buf$[ebp]
	push	ecx
	call	_xmlBufferWriteChar
	add	esp, 8
$LN10@xmlDumpEle:

; 1171 : 	    }
; 1172 : 	    xmlBufferWriteCHAR(buf, content->name);

	mov	edx, DWORD PTR _content$[ebp]
	mov	eax, DWORD PTR [edx+8]
	push	eax
	mov	ecx, DWORD PTR _buf$[ebp]
	push	ecx
	call	_xmlBufferWriteCHAR
	add	esp, 8

; 1173 : 	    break;

	jmp	$LN2@xmlDumpEle
$LN11@xmlDumpEle:

; 1174 : 	case XML_ELEMENT_CONTENT_SEQ:
; 1175 : 	    if ((content->c1 != NULL) &&

	mov	edx, DWORD PTR _content$[ebp]
	cmp	DWORD PTR [edx+12], 0
	je	SHORT $LN12@xmlDumpEle
	mov	eax, DWORD PTR _content$[ebp]
	mov	ecx, DWORD PTR [eax+12]
	cmp	DWORD PTR [ecx], 4
	je	SHORT $LN14@xmlDumpEle
	mov	edx, DWORD PTR _content$[ebp]
	mov	eax, DWORD PTR [edx+12]
	cmp	DWORD PTR [eax], 3
	jne	SHORT $LN12@xmlDumpEle
$LN14@xmlDumpEle:

; 1176 : 	        ((content->c1->type == XML_ELEMENT_CONTENT_OR) ||
; 1177 : 	         (content->c1->type == XML_ELEMENT_CONTENT_SEQ)))
; 1178 : 		xmlDumpElementContent(buf, content->c1, 1);

	push	1
	mov	ecx, DWORD PTR _content$[ebp]
	mov	edx, DWORD PTR [ecx+12]
	push	edx
	mov	eax, DWORD PTR _buf$[ebp]
	push	eax
	call	_xmlDumpElementContent
	add	esp, 12					; 0000000cH
	jmp	SHORT $LN13@xmlDumpEle
$LN12@xmlDumpEle:

; 1179 : 	    else
; 1180 : 		xmlDumpElementContent(buf, content->c1, 0);

	push	0
	mov	ecx, DWORD PTR _content$[ebp]
	mov	edx, DWORD PTR [ecx+12]
	push	edx
	mov	eax, DWORD PTR _buf$[ebp]
	push	eax
	call	_xmlDumpElementContent
	add	esp, 12					; 0000000cH
$LN13@xmlDumpEle:

; 1181 :             xmlBufferWriteChar(buf, " , ");

	push	OFFSET ??_C@_03NKFKBEPL@?5?0?5@
	mov	ecx, DWORD PTR _buf$[ebp]
	push	ecx
	call	_xmlBufferWriteChar
	add	esp, 8

; 1182 : 	    if ((content->c2 != NULL) &&

	mov	edx, DWORD PTR _content$[ebp]
	cmp	DWORD PTR [edx+16], 0
	je	SHORT $LN15@xmlDumpEle
	mov	eax, DWORD PTR _content$[ebp]
	mov	ecx, DWORD PTR [eax+16]
	cmp	DWORD PTR [ecx], 4
	je	SHORT $LN17@xmlDumpEle
	mov	edx, DWORD PTR _content$[ebp]
	mov	eax, DWORD PTR [edx+16]
	cmp	DWORD PTR [eax], 3
	jne	SHORT $LN15@xmlDumpEle
	mov	ecx, DWORD PTR _content$[ebp]
	mov	edx, DWORD PTR [ecx+16]
	cmp	DWORD PTR [edx+4], 1
	je	SHORT $LN15@xmlDumpEle
$LN17@xmlDumpEle:

; 1183 : 	        ((content->c2->type == XML_ELEMENT_CONTENT_OR) ||
; 1184 : 	         ((content->c2->type == XML_ELEMENT_CONTENT_SEQ) &&
; 1185 : 		  (content->c2->ocur != XML_ELEMENT_CONTENT_ONCE))))
; 1186 : 		xmlDumpElementContent(buf, content->c2, 1);

	push	1
	mov	eax, DWORD PTR _content$[ebp]
	mov	ecx, DWORD PTR [eax+16]
	push	ecx
	mov	edx, DWORD PTR _buf$[ebp]
	push	edx
	call	_xmlDumpElementContent
	add	esp, 12					; 0000000cH
	jmp	SHORT $LN16@xmlDumpEle
$LN15@xmlDumpEle:

; 1187 : 	    else
; 1188 : 		xmlDumpElementContent(buf, content->c2, 0);

	push	0
	mov	eax, DWORD PTR _content$[ebp]
	mov	ecx, DWORD PTR [eax+16]
	push	ecx
	mov	edx, DWORD PTR _buf$[ebp]
	push	edx
	call	_xmlDumpElementContent
	add	esp, 12					; 0000000cH
$LN16@xmlDumpEle:

; 1189 : 	    break;

	jmp	$LN2@xmlDumpEle
$LN18@xmlDumpEle:

; 1190 : 	case XML_ELEMENT_CONTENT_OR:
; 1191 : 	    if ((content->c1 != NULL) &&

	mov	eax, DWORD PTR _content$[ebp]
	cmp	DWORD PTR [eax+12], 0
	je	SHORT $LN19@xmlDumpEle
	mov	ecx, DWORD PTR _content$[ebp]
	mov	edx, DWORD PTR [ecx+12]
	cmp	DWORD PTR [edx], 4
	je	SHORT $LN21@xmlDumpEle
	mov	eax, DWORD PTR _content$[ebp]
	mov	ecx, DWORD PTR [eax+12]
	cmp	DWORD PTR [ecx], 3
	jne	SHORT $LN19@xmlDumpEle
$LN21@xmlDumpEle:

; 1192 : 	        ((content->c1->type == XML_ELEMENT_CONTENT_OR) ||
; 1193 : 	         (content->c1->type == XML_ELEMENT_CONTENT_SEQ)))
; 1194 : 		xmlDumpElementContent(buf, content->c1, 1);

	push	1
	mov	edx, DWORD PTR _content$[ebp]
	mov	eax, DWORD PTR [edx+12]
	push	eax
	mov	ecx, DWORD PTR _buf$[ebp]
	push	ecx
	call	_xmlDumpElementContent
	add	esp, 12					; 0000000cH
	jmp	SHORT $LN20@xmlDumpEle
$LN19@xmlDumpEle:

; 1195 : 	    else
; 1196 : 		xmlDumpElementContent(buf, content->c1, 0);

	push	0
	mov	edx, DWORD PTR _content$[ebp]
	mov	eax, DWORD PTR [edx+12]
	push	eax
	mov	ecx, DWORD PTR _buf$[ebp]
	push	ecx
	call	_xmlDumpElementContent
	add	esp, 12					; 0000000cH
$LN20@xmlDumpEle:

; 1197 :             xmlBufferWriteChar(buf, " | ");

	push	OFFSET ??_C@_03LGOGDKEL@?5?$HM?5@
	mov	edx, DWORD PTR _buf$[ebp]
	push	edx
	call	_xmlBufferWriteChar
	add	esp, 8

; 1198 : 	    if ((content->c2 != NULL) &&

	mov	eax, DWORD PTR _content$[ebp]
	cmp	DWORD PTR [eax+16], 0
	je	SHORT $LN22@xmlDumpEle
	mov	ecx, DWORD PTR _content$[ebp]
	mov	edx, DWORD PTR [ecx+16]
	cmp	DWORD PTR [edx], 3
	je	SHORT $LN24@xmlDumpEle
	mov	eax, DWORD PTR _content$[ebp]
	mov	ecx, DWORD PTR [eax+16]
	cmp	DWORD PTR [ecx], 4
	jne	SHORT $LN22@xmlDumpEle
	mov	edx, DWORD PTR _content$[ebp]
	mov	eax, DWORD PTR [edx+16]
	cmp	DWORD PTR [eax+4], 1
	je	SHORT $LN22@xmlDumpEle
$LN24@xmlDumpEle:

; 1199 : 	        ((content->c2->type == XML_ELEMENT_CONTENT_SEQ) ||
; 1200 : 	         ((content->c2->type == XML_ELEMENT_CONTENT_OR) &&
; 1201 : 		  (content->c2->ocur != XML_ELEMENT_CONTENT_ONCE))))
; 1202 : 		xmlDumpElementContent(buf, content->c2, 1);

	push	1
	mov	ecx, DWORD PTR _content$[ebp]
	mov	edx, DWORD PTR [ecx+16]
	push	edx
	mov	eax, DWORD PTR _buf$[ebp]
	push	eax
	call	_xmlDumpElementContent
	add	esp, 12					; 0000000cH
	jmp	SHORT $LN23@xmlDumpEle
$LN22@xmlDumpEle:

; 1203 : 	    else
; 1204 : 		xmlDumpElementContent(buf, content->c2, 0);

	push	0
	mov	ecx, DWORD PTR _content$[ebp]
	mov	edx, DWORD PTR [ecx+16]
	push	edx
	mov	eax, DWORD PTR _buf$[ebp]
	push	eax
	call	_xmlDumpElementContent
	add	esp, 12					; 0000000cH
$LN23@xmlDumpEle:

; 1205 : 	    break;

	jmp	SHORT $LN2@xmlDumpEle
$LN25@xmlDumpEle:

; 1206 : 	default:
; 1207 : 	    xmlErrValid(NULL, XML_ERR_INTERNAL_ERROR,

	push	0
	push	OFFSET ??_C@_0DC@GLPLFDD@Internal?3?5ELEMENT?5content?5corru@
	push	1
	push	0
	call	_xmlErrValid
	add	esp, 16					; 00000010H
$LN2@xmlDumpEle:

; 1208 : 		    "Internal: ELEMENT content corrupted invalid type\n",
; 1209 : 		    NULL);
; 1210 :     }
; 1211 :     if (glob)

	cmp	DWORD PTR _glob$[ebp], 0
	je	SHORT $LN26@xmlDumpEle

; 1212 :         xmlBufferWriteChar(buf, ")");

	push	OFFSET ??_C@_01PKGAHCOL@?$CJ@
	mov	ecx, DWORD PTR _buf$[ebp]
	push	ecx
	call	_xmlBufferWriteChar
	add	esp, 8
$LN26@xmlDumpEle:

; 1213 :     switch (content->ocur) {

	mov	edx, DWORD PTR _content$[ebp]
	mov	eax, DWORD PTR [edx+4]
	mov	DWORD PTR tv198[ebp], eax
	cmp	DWORD PTR tv198[ebp], 2
	je	SHORT $LN28@xmlDumpEle
	cmp	DWORD PTR tv198[ebp], 3
	je	SHORT $LN29@xmlDumpEle
	cmp	DWORD PTR tv198[ebp], 4
	je	SHORT $LN30@xmlDumpEle
	jmp	SHORT $LN1@xmlDumpEle

; 1214 :         case XML_ELEMENT_CONTENT_ONCE:
; 1215 : 	    break;

	jmp	SHORT $LN1@xmlDumpEle
$LN28@xmlDumpEle:

; 1216 :         case XML_ELEMENT_CONTENT_OPT:
; 1217 : 	    xmlBufferWriteChar(buf, "?");

	push	OFFSET ??_C@_01OGPIMHDM@?$DP@
	mov	ecx, DWORD PTR _buf$[ebp]
	push	ecx
	call	_xmlBufferWriteChar
	add	esp, 8

; 1218 : 	    break;

	jmp	SHORT $LN1@xmlDumpEle
$LN29@xmlDumpEle:

; 1219 :         case XML_ELEMENT_CONTENT_MULT:
; 1220 : 	    xmlBufferWriteChar(buf, "*");

	push	OFFSET ??_C@_01NBENCBCI@?$CK@
	mov	edx, DWORD PTR _buf$[ebp]
	push	edx
	call	_xmlBufferWriteChar
	add	esp, 8

; 1221 : 	    break;

	jmp	SHORT $LN1@xmlDumpEle
$LN30@xmlDumpEle:

; 1222 :         case XML_ELEMENT_CONTENT_PLUS:
; 1223 : 	    xmlBufferWriteChar(buf, "+");

	push	OFFSET ??_C@_01MIFGBAGJ@?$CL@
	mov	eax, DWORD PTR _buf$[ebp]
	push	eax
	call	_xmlBufferWriteChar
	add	esp, 8
$LN1@xmlDumpEle:

; 1224 : 	    break;
; 1225 :     }
; 1226 : }

	add	esp, 8
	cmp	ebp, esp
	call	__RTC_CheckEsp
	mov	esp, ebp
	pop	ebp
	ret	0
	npad	1
$LN32@xmlDumpEle:
	DD	$LN8@xmlDumpEle
	DD	$LN9@xmlDumpEle
	DD	$LN11@xmlDumpEle
	DD	$LN18@xmlDumpEle
_xmlDumpElementContent ENDP
_TEXT	ENDS
; Function compile flags: /Odtp /RTCsu
; File c:\users\dag\documents\_clients\codeproject authors group\windows on arm\libxml2\libxml2-2.9.9\valid.c
;	COMDAT _xmlValidBuildAContentModel
_TEXT	SEGMENT
tv282 = -108						; size = 4
tv216 = -104						; size = 4
tv93 = -100						; size = 4
tv73 = -96						; size = 4
_ocur$1 = -92						; size = 4
_oldend$2 = -88						; size = 4
_oldstate$3 = -84					; size = 4
_ocur$4 = -80						; size = 4
_oldend$5 = -76						; size = 4
_oldstate$6 = -72					; size = 4
_fullname$7 = -68					; size = 4
_fn$8 = -60						; size = 50
_oldstate$9 = -4					; size = 4
_content$ = 8						; size = 4
_ctxt$ = 12						; size = 4
_name$ = 16						; size = 4
_xmlValidBuildAContentModel PROC			; COMDAT

; 661  : 		           const xmlChar *name) {

	push	ebp
	mov	ebp, esp
	sub	esp, 108				; 0000006cH
	push	esi
	push	edi
	lea	edi, DWORD PTR [ebp-108]
	mov	ecx, 27					; 0000001bH
	mov	eax, -858993460				; ccccccccH
	rep stosd
	mov	ecx, OFFSET __56F63275_valid@c
	call	@__CheckForDebuggerJustMyCode@4

; 662  :     if (content == NULL) {

	cmp	DWORD PTR _content$[ebp], 0
	jne	SHORT $LN16@xmlValidBu

; 663  : 	xmlErrValidNode(ctxt, NULL, XML_ERR_INTERNAL_ERROR,

	push	0
	push	0
	mov	eax, DWORD PTR _name$[ebp]
	push	eax
	push	OFFSET ??_C@_0CL@FIAOIAHN@Found?5NULL?5content?5in?5content?5m@
	push	1
	push	0
	mov	ecx, DWORD PTR _ctxt$[ebp]
	push	ecx
	call	_xmlErrValidNode
	add	esp, 28					; 0000001cH

; 664  : 			"Found NULL content in content model of %s\n",
; 665  : 			name, NULL, NULL);
; 666  : 	return(0);

	xor	eax, eax
	jmp	$LN1@xmlValidBu
$LN16@xmlValidBu:

; 667  :     }
; 668  :     switch (content->type) {

	mov	edx, DWORD PTR _content$[ebp]
	mov	eax, DWORD PTR [edx]
	mov	DWORD PTR tv73[ebp], eax
	mov	ecx, DWORD PTR tv73[ebp]
	sub	ecx, 1
	mov	DWORD PTR tv73[ebp], ecx
	cmp	DWORD PTR tv73[ebp], 3
	ja	$LN40@xmlValidBu
	mov	edx, DWORD PTR tv73[ebp]
	jmp	DWORD PTR $LN45@xmlValidBu[edx*4]
$LN17@xmlValidBu:

; 669  : 	case XML_ELEMENT_CONTENT_PCDATA:
; 670  : 	    xmlErrValidNode(ctxt, NULL, XML_ERR_INTERNAL_ERROR,

	push	0
	push	0
	mov	eax, DWORD PTR _name$[ebp]
	push	eax
	push	OFFSET ??_C@_0CF@IIHAKBAI@Found?5PCDATA?5in?5content?5model?5o@
	push	1
	push	0
	mov	ecx, DWORD PTR _ctxt$[ebp]
	push	ecx
	call	_xmlErrValidNode
	add	esp, 28					; 0000001cH

; 671  : 			    "Found PCDATA in content model of %s\n",
; 672  : 		            name, NULL, NULL);
; 673  : 	    return(0);

	xor	eax, eax
	jmp	$LN1@xmlValidBu

; 674  : 	    break;

	jmp	$LN2@xmlValidBu
$LN18@xmlValidBu:

; 675  : 	case XML_ELEMENT_CONTENT_ELEMENT: {
; 676  : 	    xmlAutomataStatePtr oldstate = ctxt->state;

	mov	edx, DWORD PTR _ctxt$[ebp]
	mov	eax, DWORD PTR [edx+60]
	mov	DWORD PTR _oldstate$9[ebp], eax

; 677  : 	    xmlChar fn[50];
; 678  : 	    xmlChar *fullname;
; 679  : 
; 680  : 	    fullname = xmlBuildQName(content->name, content->prefix, fn, 50);

	push	50					; 00000032H
	lea	ecx, DWORD PTR _fn$8[ebp]
	push	ecx
	mov	edx, DWORD PTR _content$[ebp]
	mov	eax, DWORD PTR [edx+24]
	push	eax
	mov	ecx, DWORD PTR _content$[ebp]
	mov	edx, DWORD PTR [ecx+8]
	push	edx
	call	_xmlBuildQName
	add	esp, 16					; 00000010H
	mov	DWORD PTR _fullname$7[ebp], eax

; 681  : 	    if (fullname == NULL) {

	cmp	DWORD PTR _fullname$7[ebp], 0
	jne	SHORT $LN19@xmlValidBu

; 682  : 	        xmlVErrMemory(ctxt, "Building content model");

	push	OFFSET ??_C@_0BH@INHICIGB@Building?5content?5model@
	mov	eax, DWORD PTR _ctxt$[ebp]
	push	eax
	call	_xmlVErrMemory
	add	esp, 8

; 683  : 		return(0);

	xor	eax, eax
	jmp	$LN1@xmlValidBu
$LN19@xmlValidBu:

; 684  : 	    }
; 685  : 
; 686  : 	    switch (content->ocur) {

	mov	ecx, DWORD PTR _content$[ebp]
	mov	edx, DWORD PTR [ecx+4]
	mov	DWORD PTR tv93[ebp], edx
	mov	eax, DWORD PTR tv93[ebp]
	sub	eax, 1
	mov	DWORD PTR tv93[ebp], eax
	cmp	DWORD PTR tv93[ebp], 3
	ja	$LN4@xmlValidBu
	mov	ecx, DWORD PTR tv93[ebp]
	jmp	DWORD PTR $LN46@xmlValidBu[ecx*4]
$LN20@xmlValidBu:

; 687  : 		case XML_ELEMENT_CONTENT_ONCE:
; 688  : 		    ctxt->state = xmlAutomataNewTransition(ctxt->am,

	push	0
	mov	edx, DWORD PTR _fullname$7[ebp]
	push	edx
	push	0
	mov	eax, DWORD PTR _ctxt$[ebp]
	mov	ecx, DWORD PTR [eax+60]
	push	ecx
	mov	edx, DWORD PTR _ctxt$[ebp]
	mov	eax, DWORD PTR [edx+56]
	push	eax
	call	_xmlAutomataNewTransition
	add	esp, 20					; 00000014H
	mov	ecx, DWORD PTR _ctxt$[ebp]
	mov	DWORD PTR [ecx+60], eax

; 689  : 			    ctxt->state, NULL, fullname, NULL);
; 690  : 		    break;

	jmp	$LN4@xmlValidBu
$LN21@xmlValidBu:

; 691  : 		case XML_ELEMENT_CONTENT_OPT:
; 692  : 		    ctxt->state = xmlAutomataNewTransition(ctxt->am,

	push	0
	mov	edx, DWORD PTR _fullname$7[ebp]
	push	edx
	push	0
	mov	eax, DWORD PTR _ctxt$[ebp]
	mov	ecx, DWORD PTR [eax+60]
	push	ecx
	mov	edx, DWORD PTR _ctxt$[ebp]
	mov	eax, DWORD PTR [edx+56]
	push	eax
	call	_xmlAutomataNewTransition
	add	esp, 20					; 00000014H
	mov	ecx, DWORD PTR _ctxt$[ebp]
	mov	DWORD PTR [ecx+60], eax

; 693  : 			    ctxt->state, NULL, fullname, NULL);
; 694  : 		    xmlAutomataNewEpsilon(ctxt->am, oldstate, ctxt->state);

	mov	edx, DWORD PTR _ctxt$[ebp]
	mov	eax, DWORD PTR [edx+60]
	push	eax
	mov	ecx, DWORD PTR _oldstate$9[ebp]
	push	ecx
	mov	edx, DWORD PTR _ctxt$[ebp]
	mov	eax, DWORD PTR [edx+56]
	push	eax
	call	_xmlAutomataNewEpsilon
	add	esp, 12					; 0000000cH

; 695  : 		    break;

	jmp	$LN4@xmlValidBu
$LN22@xmlValidBu:

; 696  : 		case XML_ELEMENT_CONTENT_PLUS:
; 697  : 		    ctxt->state = xmlAutomataNewTransition(ctxt->am,

	push	0
	mov	ecx, DWORD PTR _fullname$7[ebp]
	push	ecx
	push	0
	mov	edx, DWORD PTR _ctxt$[ebp]
	mov	eax, DWORD PTR [edx+60]
	push	eax
	mov	ecx, DWORD PTR _ctxt$[ebp]
	mov	edx, DWORD PTR [ecx+56]
	push	edx
	call	_xmlAutomataNewTransition
	add	esp, 20					; 00000014H
	mov	ecx, DWORD PTR _ctxt$[ebp]
	mov	DWORD PTR [ecx+60], eax

; 698  : 			    ctxt->state, NULL, fullname, NULL);
; 699  : 		    xmlAutomataNewTransition(ctxt->am, ctxt->state,

	push	0
	mov	edx, DWORD PTR _fullname$7[ebp]
	push	edx
	mov	eax, DWORD PTR _ctxt$[ebp]
	mov	ecx, DWORD PTR [eax+60]
	push	ecx
	mov	edx, DWORD PTR _ctxt$[ebp]
	mov	eax, DWORD PTR [edx+60]
	push	eax
	mov	ecx, DWORD PTR _ctxt$[ebp]
	mov	edx, DWORD PTR [ecx+56]
	push	edx
	call	_xmlAutomataNewTransition
	add	esp, 20					; 00000014H

; 700  : 			                     ctxt->state, fullname, NULL);
; 701  : 		    break;

	jmp	SHORT $LN4@xmlValidBu
$LN23@xmlValidBu:

; 702  : 		case XML_ELEMENT_CONTENT_MULT:
; 703  : 		    ctxt->state = xmlAutomataNewEpsilon(ctxt->am,

	push	0
	mov	eax, DWORD PTR _ctxt$[ebp]
	mov	ecx, DWORD PTR [eax+60]
	push	ecx
	mov	edx, DWORD PTR _ctxt$[ebp]
	mov	eax, DWORD PTR [edx+56]
	push	eax
	call	_xmlAutomataNewEpsilon
	add	esp, 12					; 0000000cH
	mov	ecx, DWORD PTR _ctxt$[ebp]
	mov	DWORD PTR [ecx+60], eax

; 704  : 					    ctxt->state, NULL);
; 705  : 		    xmlAutomataNewTransition(ctxt->am,

	push	0
	mov	edx, DWORD PTR _fullname$7[ebp]
	push	edx
	mov	eax, DWORD PTR _ctxt$[ebp]
	mov	ecx, DWORD PTR [eax+60]
	push	ecx
	mov	edx, DWORD PTR _ctxt$[ebp]
	mov	eax, DWORD PTR [edx+60]
	push	eax
	mov	ecx, DWORD PTR _ctxt$[ebp]
	mov	edx, DWORD PTR [ecx+56]
	push	edx
	call	_xmlAutomataNewTransition
	add	esp, 20					; 00000014H
$LN4@xmlValidBu:

; 706  : 			    ctxt->state, ctxt->state, fullname, NULL);
; 707  : 		    break;
; 708  : 	    }
; 709  : 	    if ((fullname != fn) && (fullname != content->name))

	lea	eax, DWORD PTR _fn$8[ebp]
	cmp	DWORD PTR _fullname$7[ebp], eax
	je	SHORT $LN24@xmlValidBu
	mov	ecx, DWORD PTR _content$[ebp]
	mov	edx, DWORD PTR _fullname$7[ebp]
	cmp	edx, DWORD PTR [ecx+8]
	je	SHORT $LN24@xmlValidBu

; 710  : 		xmlFree(fullname);

	mov	esi, esp
	mov	eax, DWORD PTR _fullname$7[ebp]
	push	eax
	call	DWORD PTR _xmlFree
	add	esp, 4
	cmp	esi, esp
	call	__RTC_CheckEsp
$LN24@xmlValidBu:

; 711  : 	    break;

	jmp	$LN2@xmlValidBu
$LN25@xmlValidBu:

; 712  : 	}
; 713  : 	case XML_ELEMENT_CONTENT_SEQ: {
; 714  : 	    xmlAutomataStatePtr oldstate, oldend;
; 715  : 	    xmlElementContentOccur ocur;
; 716  : 
; 717  : 	    /*
; 718  : 	     * Simply iterate over the content
; 719  : 	     */
; 720  : 	    oldstate = ctxt->state;

	mov	ecx, DWORD PTR _ctxt$[ebp]
	mov	edx, DWORD PTR [ecx+60]
	mov	DWORD PTR _oldstate$6[ebp], edx

; 721  : 	    ocur = content->ocur;

	mov	eax, DWORD PTR _content$[ebp]
	mov	ecx, DWORD PTR [eax+4]
	mov	DWORD PTR _ocur$4[ebp], ecx

; 722  : 	    if (ocur != XML_ELEMENT_CONTENT_ONCE) {

	cmp	DWORD PTR _ocur$4[ebp], 1
	je	SHORT $LN8@xmlValidBu

; 723  : 		ctxt->state = xmlAutomataNewEpsilon(ctxt->am, oldstate, NULL);

	push	0
	mov	edx, DWORD PTR _oldstate$6[ebp]
	push	edx
	mov	eax, DWORD PTR _ctxt$[ebp]
	mov	ecx, DWORD PTR [eax+56]
	push	ecx
	call	_xmlAutomataNewEpsilon
	add	esp, 12					; 0000000cH
	mov	edx, DWORD PTR _ctxt$[ebp]
	mov	DWORD PTR [edx+60], eax

; 724  : 		oldstate = ctxt->state;

	mov	eax, DWORD PTR _ctxt$[ebp]
	mov	ecx, DWORD PTR [eax+60]
	mov	DWORD PTR _oldstate$6[ebp], ecx
$LN8@xmlValidBu:

; 725  : 	    }
; 726  : 	    do {
; 727  : 		xmlValidBuildAContentModel(content->c1, ctxt, name);

	mov	edx, DWORD PTR _name$[ebp]
	push	edx
	mov	eax, DWORD PTR _ctxt$[ebp]
	push	eax
	mov	ecx, DWORD PTR _content$[ebp]
	mov	edx, DWORD PTR [ecx+12]
	push	edx
	call	_xmlValidBuildAContentModel
	add	esp, 12					; 0000000cH

; 728  : 		content = content->c2;

	mov	eax, DWORD PTR _content$[ebp]
	mov	ecx, DWORD PTR [eax+16]
	mov	DWORD PTR _content$[ebp], ecx

; 729  : 	    } while ((content->type == XML_ELEMENT_CONTENT_SEQ) &&

	mov	edx, DWORD PTR _content$[ebp]
	cmp	DWORD PTR [edx], 3
	jne	SHORT $LN7@xmlValidBu
	mov	eax, DWORD PTR _content$[ebp]
	cmp	DWORD PTR [eax+4], 1
	je	SHORT $LN8@xmlValidBu
$LN7@xmlValidBu:

; 730  : 		     (content->ocur == XML_ELEMENT_CONTENT_ONCE));
; 731  : 	    xmlValidBuildAContentModel(content, ctxt, name);

	mov	ecx, DWORD PTR _name$[ebp]
	push	ecx
	mov	edx, DWORD PTR _ctxt$[ebp]
	push	edx
	mov	eax, DWORD PTR _content$[ebp]
	push	eax
	call	_xmlValidBuildAContentModel
	add	esp, 12					; 0000000cH

; 732  : 	    oldend = ctxt->state;

	mov	ecx, DWORD PTR _ctxt$[ebp]
	mov	edx, DWORD PTR [ecx+60]
	mov	DWORD PTR _oldend$5[ebp], edx

; 733  : 	    ctxt->state = xmlAutomataNewEpsilon(ctxt->am, oldend, NULL);

	push	0
	mov	eax, DWORD PTR _oldend$5[ebp]
	push	eax
	mov	ecx, DWORD PTR _ctxt$[ebp]
	mov	edx, DWORD PTR [ecx+56]
	push	edx
	call	_xmlAutomataNewEpsilon
	add	esp, 12					; 0000000cH
	mov	ecx, DWORD PTR _ctxt$[ebp]
	mov	DWORD PTR [ecx+60], eax

; 734  : 	    switch (ocur) {

	mov	edx, DWORD PTR _ocur$4[ebp]
	mov	DWORD PTR tv216[ebp], edx
	cmp	DWORD PTR tv216[ebp], 2
	je	SHORT $LN29@xmlValidBu
	cmp	DWORD PTR tv216[ebp], 3
	je	SHORT $LN30@xmlValidBu
	cmp	DWORD PTR tv216[ebp], 4
	je	SHORT $LN31@xmlValidBu
	jmp	SHORT $LN9@xmlValidBu

; 735  : 		case XML_ELEMENT_CONTENT_ONCE:
; 736  : 		    break;

	jmp	SHORT $LN9@xmlValidBu
$LN29@xmlValidBu:

; 737  : 		case XML_ELEMENT_CONTENT_OPT:
; 738  : 		    xmlAutomataNewEpsilon(ctxt->am, oldstate, ctxt->state);

	mov	eax, DWORD PTR _ctxt$[ebp]
	mov	ecx, DWORD PTR [eax+60]
	push	ecx
	mov	edx, DWORD PTR _oldstate$6[ebp]
	push	edx
	mov	eax, DWORD PTR _ctxt$[ebp]
	mov	ecx, DWORD PTR [eax+56]
	push	ecx
	call	_xmlAutomataNewEpsilon
	add	esp, 12					; 0000000cH

; 739  : 		    break;

	jmp	SHORT $LN9@xmlValidBu
$LN30@xmlValidBu:

; 740  : 		case XML_ELEMENT_CONTENT_MULT:
; 741  : 		    xmlAutomataNewEpsilon(ctxt->am, oldstate, ctxt->state);

	mov	edx, DWORD PTR _ctxt$[ebp]
	mov	eax, DWORD PTR [edx+60]
	push	eax
	mov	ecx, DWORD PTR _oldstate$6[ebp]
	push	ecx
	mov	edx, DWORD PTR _ctxt$[ebp]
	mov	eax, DWORD PTR [edx+56]
	push	eax
	call	_xmlAutomataNewEpsilon
	add	esp, 12					; 0000000cH

; 742  : 		    xmlAutomataNewEpsilon(ctxt->am, oldend, oldstate);

	mov	ecx, DWORD PTR _oldstate$6[ebp]
	push	ecx
	mov	edx, DWORD PTR _oldend$5[ebp]
	push	edx
	mov	eax, DWORD PTR _ctxt$[ebp]
	mov	ecx, DWORD PTR [eax+56]
	push	ecx
	call	_xmlAutomataNewEpsilon
	add	esp, 12					; 0000000cH

; 743  : 		    break;

	jmp	SHORT $LN9@xmlValidBu
$LN31@xmlValidBu:

; 744  : 		case XML_ELEMENT_CONTENT_PLUS:
; 745  : 		    xmlAutomataNewEpsilon(ctxt->am, oldend, oldstate);

	mov	edx, DWORD PTR _oldstate$6[ebp]
	push	edx
	mov	eax, DWORD PTR _oldend$5[ebp]
	push	eax
	mov	ecx, DWORD PTR _ctxt$[ebp]
	mov	edx, DWORD PTR [ecx+56]
	push	edx
	call	_xmlAutomataNewEpsilon
	add	esp, 12					; 0000000cH
$LN9@xmlValidBu:

; 746  : 		    break;
; 747  : 	    }
; 748  : 	    break;

	jmp	$LN2@xmlValidBu
$LN32@xmlValidBu:

; 749  : 	}
; 750  : 	case XML_ELEMENT_CONTENT_OR: {
; 751  : 	    xmlAutomataStatePtr oldstate, oldend;
; 752  : 	    xmlElementContentOccur ocur;
; 753  : 
; 754  : 	    ocur = content->ocur;

	mov	eax, DWORD PTR _content$[ebp]
	mov	ecx, DWORD PTR [eax+4]
	mov	DWORD PTR _ocur$1[ebp], ecx

; 755  : 	    if ((ocur == XML_ELEMENT_CONTENT_PLUS) ||

	cmp	DWORD PTR _ocur$1[ebp], 4
	je	SHORT $LN34@xmlValidBu
	cmp	DWORD PTR _ocur$1[ebp], 3
	jne	SHORT $LN33@xmlValidBu
$LN34@xmlValidBu:

; 756  : 		(ocur == XML_ELEMENT_CONTENT_MULT)) {
; 757  : 		ctxt->state = xmlAutomataNewEpsilon(ctxt->am,

	push	0
	mov	edx, DWORD PTR _ctxt$[ebp]
	mov	eax, DWORD PTR [edx+60]
	push	eax
	mov	ecx, DWORD PTR _ctxt$[ebp]
	mov	edx, DWORD PTR [ecx+56]
	push	edx
	call	_xmlAutomataNewEpsilon
	add	esp, 12					; 0000000cH
	mov	ecx, DWORD PTR _ctxt$[ebp]
	mov	DWORD PTR [ecx+60], eax
$LN33@xmlValidBu:

; 758  : 			ctxt->state, NULL);
; 759  : 	    }
; 760  : 	    oldstate = ctxt->state;

	mov	edx, DWORD PTR _ctxt$[ebp]
	mov	eax, DWORD PTR [edx+60]
	mov	DWORD PTR _oldstate$3[ebp], eax

; 761  : 	    oldend = xmlAutomataNewState(ctxt->am);

	mov	ecx, DWORD PTR _ctxt$[ebp]
	mov	edx, DWORD PTR [ecx+56]
	push	edx
	call	_xmlAutomataNewState
	add	esp, 4
	mov	DWORD PTR _oldend$2[ebp], eax
$LN13@xmlValidBu:

; 762  : 
; 763  : 	    /*
; 764  : 	     * iterate over the subtypes and remerge the end with an
; 765  : 	     * epsilon transition
; 766  : 	     */
; 767  : 	    do {
; 768  : 		ctxt->state = oldstate;

	mov	eax, DWORD PTR _ctxt$[ebp]
	mov	ecx, DWORD PTR _oldstate$3[ebp]
	mov	DWORD PTR [eax+60], ecx

; 769  : 		xmlValidBuildAContentModel(content->c1, ctxt, name);

	mov	edx, DWORD PTR _name$[ebp]
	push	edx
	mov	eax, DWORD PTR _ctxt$[ebp]
	push	eax
	mov	ecx, DWORD PTR _content$[ebp]
	mov	edx, DWORD PTR [ecx+12]
	push	edx
	call	_xmlValidBuildAContentModel
	add	esp, 12					; 0000000cH

; 770  : 		xmlAutomataNewEpsilon(ctxt->am, ctxt->state, oldend);

	mov	eax, DWORD PTR _oldend$2[ebp]
	push	eax
	mov	ecx, DWORD PTR _ctxt$[ebp]
	mov	edx, DWORD PTR [ecx+60]
	push	edx
	mov	eax, DWORD PTR _ctxt$[ebp]
	mov	ecx, DWORD PTR [eax+56]
	push	ecx
	call	_xmlAutomataNewEpsilon
	add	esp, 12					; 0000000cH

; 771  : 		content = content->c2;

	mov	edx, DWORD PTR _content$[ebp]
	mov	eax, DWORD PTR [edx+16]
	mov	DWORD PTR _content$[ebp], eax

; 772  : 	    } while ((content->type == XML_ELEMENT_CONTENT_OR) &&

	mov	ecx, DWORD PTR _content$[ebp]
	cmp	DWORD PTR [ecx], 4
	jne	SHORT $LN12@xmlValidBu
	mov	edx, DWORD PTR _content$[ebp]
	cmp	DWORD PTR [edx+4], 1
	je	SHORT $LN13@xmlValidBu
$LN12@xmlValidBu:

; 773  : 		     (content->ocur == XML_ELEMENT_CONTENT_ONCE));
; 774  : 	    ctxt->state = oldstate;

	mov	eax, DWORD PTR _ctxt$[ebp]
	mov	ecx, DWORD PTR _oldstate$3[ebp]
	mov	DWORD PTR [eax+60], ecx

; 775  : 	    xmlValidBuildAContentModel(content, ctxt, name);

	mov	edx, DWORD PTR _name$[ebp]
	push	edx
	mov	eax, DWORD PTR _ctxt$[ebp]
	push	eax
	mov	ecx, DWORD PTR _content$[ebp]
	push	ecx
	call	_xmlValidBuildAContentModel
	add	esp, 12					; 0000000cH

; 776  : 	    xmlAutomataNewEpsilon(ctxt->am, ctxt->state, oldend);

	mov	edx, DWORD PTR _oldend$2[ebp]
	push	edx
	mov	eax, DWORD PTR _ctxt$[ebp]
	mov	ecx, DWORD PTR [eax+60]
	push	ecx
	mov	edx, DWORD PTR _ctxt$[ebp]
	mov	eax, DWORD PTR [edx+56]
	push	eax
	call	_xmlAutomataNewEpsilon
	add	esp, 12					; 0000000cH

; 777  : 	    ctxt->state = xmlAutomataNewEpsilon(ctxt->am, oldend, NULL);

	push	0
	mov	ecx, DWORD PTR _oldend$2[ebp]
	push	ecx
	mov	edx, DWORD PTR _ctxt$[ebp]
	mov	eax, DWORD PTR [edx+56]
	push	eax
	call	_xmlAutomataNewEpsilon
	add	esp, 12					; 0000000cH
	mov	ecx, DWORD PTR _ctxt$[ebp]
	mov	DWORD PTR [ecx+60], eax

; 778  : 	    switch (ocur) {

	mov	edx, DWORD PTR _ocur$1[ebp]
	mov	DWORD PTR tv282[ebp], edx
	cmp	DWORD PTR tv282[ebp], 2
	je	SHORT $LN37@xmlValidBu
	cmp	DWORD PTR tv282[ebp], 3
	je	SHORT $LN38@xmlValidBu
	cmp	DWORD PTR tv282[ebp], 4
	je	SHORT $LN39@xmlValidBu
	jmp	SHORT $LN14@xmlValidBu

; 779  : 		case XML_ELEMENT_CONTENT_ONCE:
; 780  : 		    break;

	jmp	SHORT $LN14@xmlValidBu
$LN37@xmlValidBu:

; 781  : 		case XML_ELEMENT_CONTENT_OPT:
; 782  : 		    xmlAutomataNewEpsilon(ctxt->am, oldstate, ctxt->state);

	mov	eax, DWORD PTR _ctxt$[ebp]
	mov	ecx, DWORD PTR [eax+60]
	push	ecx
	mov	edx, DWORD PTR _oldstate$3[ebp]
	push	edx
	mov	eax, DWORD PTR _ctxt$[ebp]
	mov	ecx, DWORD PTR [eax+56]
	push	ecx
	call	_xmlAutomataNewEpsilon
	add	esp, 12					; 0000000cH

; 783  : 		    break;

	jmp	SHORT $LN14@xmlValidBu
$LN38@xmlValidBu:

; 784  : 		case XML_ELEMENT_CONTENT_MULT:
; 785  : 		    xmlAutomataNewEpsilon(ctxt->am, oldstate, ctxt->state);

	mov	edx, DWORD PTR _ctxt$[ebp]
	mov	eax, DWORD PTR [edx+60]
	push	eax
	mov	ecx, DWORD PTR _oldstate$3[ebp]
	push	ecx
	mov	edx, DWORD PTR _ctxt$[ebp]
	mov	eax, DWORD PTR [edx+56]
	push	eax
	call	_xmlAutomataNewEpsilon
	add	esp, 12					; 0000000cH

; 786  : 		    xmlAutomataNewEpsilon(ctxt->am, oldend, oldstate);

	mov	ecx, DWORD PTR _oldstate$3[ebp]
	push	ecx
	mov	edx, DWORD PTR _oldend$2[ebp]
	push	edx
	mov	eax, DWORD PTR _ctxt$[ebp]
	mov	ecx, DWORD PTR [eax+56]
	push	ecx
	call	_xmlAutomataNewEpsilon
	add	esp, 12					; 0000000cH

; 787  : 		    break;

	jmp	SHORT $LN14@xmlValidBu
$LN39@xmlValidBu:

; 788  : 		case XML_ELEMENT_CONTENT_PLUS:
; 789  : 		    xmlAutomataNewEpsilon(ctxt->am, oldend, oldstate);

	mov	edx, DWORD PTR _oldstate$3[ebp]
	push	edx
	mov	eax, DWORD PTR _oldend$2[ebp]
	push	eax
	mov	ecx, DWORD PTR _ctxt$[ebp]
	mov	edx, DWORD PTR [ecx+56]
	push	edx
	call	_xmlAutomataNewEpsilon
	add	esp, 12					; 0000000cH
$LN14@xmlValidBu:

; 790  : 		    break;
; 791  : 	    }
; 792  : 	    break;

	jmp	SHORT $LN2@xmlValidBu
$LN40@xmlValidBu:

; 793  : 	}
; 794  : 	default:
; 795  : 	    xmlErrValid(ctxt, XML_ERR_INTERNAL_ERROR,

	mov	eax, DWORD PTR _name$[ebp]
	push	eax
	push	OFFSET ??_C@_0CE@LMBMADBI@ContentModel?5broken?5for?5element@
	push	1
	mov	ecx, DWORD PTR _ctxt$[ebp]
	push	ecx
	call	_xmlErrValid
	add	esp, 16					; 00000010H

; 796  : 	                "ContentModel broken for element %s\n",
; 797  : 			(const char *) name);
; 798  : 	    return(0);

	xor	eax, eax
	jmp	SHORT $LN1@xmlValidBu
$LN2@xmlValidBu:

; 799  :     }
; 800  :     return(1);

	mov	eax, 1
$LN1@xmlValidBu:

; 801  : }

	push	edx
	mov	ecx, ebp
	push	eax
	lea	edx, DWORD PTR $LN44@xmlValidBu
	call	@_RTC_CheckStackVars@8
	pop	eax
	pop	edx
	pop	edi
	pop	esi
	add	esp, 108				; 0000006cH
	cmp	ebp, esp
	call	__RTC_CheckEsp
	mov	esp, ebp
	pop	ebp
	ret	0
	npad	2
$LN44@xmlValidBu:
	DD	1
	DD	$LN43@xmlValidBu
$LN43@xmlValidBu:
	DD	-60					; ffffffc4H
	DD	50					; 00000032H
	DD	$LN42@xmlValidBu
$LN42@xmlValidBu:
	DB	102					; 00000066H
	DB	110					; 0000006eH
	DB	0
	npad	1
$LN45@xmlValidBu:
	DD	$LN17@xmlValidBu
	DD	$LN18@xmlValidBu
	DD	$LN25@xmlValidBu
	DD	$LN32@xmlValidBu
$LN46@xmlValidBu:
	DD	$LN20@xmlValidBu
	DD	$LN21@xmlValidBu
	DD	$LN23@xmlValidBu
	DD	$LN22@xmlValidBu
_xmlValidBuildAContentModel ENDP
_TEXT	ENDS
; Function compile flags: /Odtp /RTCsu
; File c:\users\dag\documents\_clients\codeproject authors group\windows on arm\libxml2\libxml2-2.9.9\valid.c
;	COMDAT _nodeVPop
_TEXT	SEGMENT
_ret$ = -4						; size = 4
_ctxt$ = 8						; size = 4
_nodeVPop PROC						; COMDAT

; 467  : {

	push	ebp
	mov	ebp, esp
	push	ecx
	mov	DWORD PTR [ebp-4], -858993460		; ccccccccH
	mov	ecx, OFFSET __56F63275_valid@c
	call	@__CheckForDebuggerJustMyCode@4

; 468  :     xmlNodePtr ret;
; 469  : 
; 470  :     if (ctxt->nodeNr <= 0)

	mov	eax, DWORD PTR _ctxt$[ebp]
	cmp	DWORD PTR [eax+16], 0
	jg	SHORT $LN2@nodeVPop

; 471  :         return (NULL);

	xor	eax, eax
	jmp	SHORT $LN1@nodeVPop
$LN2@nodeVPop:

; 472  :     ctxt->nodeNr--;

	mov	ecx, DWORD PTR _ctxt$[ebp]
	mov	edx, DWORD PTR [ecx+16]
	sub	edx, 1
	mov	eax, DWORD PTR _ctxt$[ebp]
	mov	DWORD PTR [eax+16], edx

; 473  :     if (ctxt->nodeNr > 0)

	mov	ecx, DWORD PTR _ctxt$[ebp]
	cmp	DWORD PTR [ecx+16], 0
	jle	SHORT $LN3@nodeVPop

; 474  :         ctxt->node = ctxt->nodeTab[ctxt->nodeNr - 1];

	mov	edx, DWORD PTR _ctxt$[ebp]
	mov	eax, DWORD PTR [edx+16]
	mov	ecx, DWORD PTR _ctxt$[ebp]
	mov	edx, DWORD PTR [ecx+24]
	mov	ecx, DWORD PTR _ctxt$[ebp]
	mov	edx, DWORD PTR [edx+eax*4-4]
	mov	DWORD PTR [ecx+12], edx
	jmp	SHORT $LN4@nodeVPop
$LN3@nodeVPop:

; 475  :     else
; 476  :         ctxt->node = NULL;

	mov	eax, DWORD PTR _ctxt$[ebp]
	mov	DWORD PTR [eax+12], 0
$LN4@nodeVPop:

; 477  :     ret = ctxt->nodeTab[ctxt->nodeNr];

	mov	ecx, DWORD PTR _ctxt$[ebp]
	mov	edx, DWORD PTR [ecx+16]
	mov	eax, DWORD PTR _ctxt$[ebp]
	mov	ecx, DWORD PTR [eax+24]
	mov	edx, DWORD PTR [ecx+edx*4]
	mov	DWORD PTR _ret$[ebp], edx

; 478  :     ctxt->nodeTab[ctxt->nodeNr] = NULL;

	mov	eax, DWORD PTR _ctxt$[ebp]
	mov	ecx, DWORD PTR [eax+16]
	mov	edx, DWORD PTR _ctxt$[ebp]
	mov	eax, DWORD PTR [edx+24]
	mov	DWORD PTR [eax+ecx*4], 0

; 479  :     return (ret);

	mov	eax, DWORD PTR _ret$[ebp]
$LN1@nodeVPop:

; 480  : }

	add	esp, 4
	cmp	ebp, esp
	call	__RTC_CheckEsp
	mov	esp, ebp
	pop	ebp
	ret	0
_nodeVPop ENDP
_TEXT	ENDS
; Function compile flags: /Odtp /RTCsu
; File c:\users\dag\documents\_clients\codeproject authors group\windows on arm\libxml2\libxml2-2.9.9\valid.c
;	COMDAT _nodeVPush
_TEXT	SEGMENT
tv135 = -8						; size = 4
_tmp$1 = -4						; size = 4
_ctxt$ = 8						; size = 4
_value$ = 12						; size = 4
_nodeVPush PROC						; COMDAT

; 438  : {

	push	ebp
	mov	ebp, esp
	sub	esp, 8
	push	esi
	mov	DWORD PTR [ebp-8], -858993460		; ccccccccH
	mov	DWORD PTR [ebp-4], -858993460		; ccccccccH
	mov	ecx, OFFSET __56F63275_valid@c
	call	@__CheckForDebuggerJustMyCode@4

; 439  :     if (ctxt->nodeMax <= 0) {

	mov	eax, DWORD PTR _ctxt$[ebp]
	cmp	DWORD PTR [eax+20], 0
	jg	SHORT $LN2@nodeVPush

; 440  :         ctxt->nodeMax = 4;

	mov	ecx, DWORD PTR _ctxt$[ebp]
	mov	DWORD PTR [ecx+20], 4

; 441  :         ctxt->nodeTab =

	mov	edx, DWORD PTR _ctxt$[ebp]
	mov	eax, DWORD PTR [edx+20]
	shl	eax, 2
	mov	esi, esp
	push	eax
	call	DWORD PTR _xmlMalloc
	add	esp, 4
	cmp	esi, esp
	call	__RTC_CheckEsp
	mov	ecx, DWORD PTR _ctxt$[ebp]
	mov	DWORD PTR [ecx+24], eax

; 442  :             (xmlNodePtr *) xmlMalloc(ctxt->nodeMax *
; 443  :                                      sizeof(ctxt->nodeTab[0]));
; 444  :         if (ctxt->nodeTab == NULL) {

	mov	edx, DWORD PTR _ctxt$[ebp]
	cmp	DWORD PTR [edx+24], 0
	jne	SHORT $LN2@nodeVPush

; 445  : 	    xmlVErrMemory(ctxt, "malloc failed");

	push	OFFSET ??_C@_0O@IMHFIAOC@malloc?5failed@
	mov	eax, DWORD PTR _ctxt$[ebp]
	push	eax
	call	_xmlVErrMemory
	add	esp, 8

; 446  :             ctxt->nodeMax = 0;

	mov	ecx, DWORD PTR _ctxt$[ebp]
	mov	DWORD PTR [ecx+20], 0

; 447  :             return (0);

	xor	eax, eax
	jmp	$LN1@nodeVPush
$LN2@nodeVPush:

; 448  :         }
; 449  :     }
; 450  :     if (ctxt->nodeNr >= ctxt->nodeMax) {

	mov	edx, DWORD PTR _ctxt$[ebp]
	mov	eax, DWORD PTR _ctxt$[ebp]
	mov	ecx, DWORD PTR [edx+16]
	cmp	ecx, DWORD PTR [eax+20]
	jl	SHORT $LN4@nodeVPush

; 451  :         xmlNodePtr *tmp;
; 452  :         tmp = (xmlNodePtr *) xmlRealloc(ctxt->nodeTab,

	mov	edx, DWORD PTR _ctxt$[ebp]
	mov	eax, DWORD PTR [edx+20]
	shl	eax, 1
	shl	eax, 2
	mov	esi, esp
	push	eax
	mov	ecx, DWORD PTR _ctxt$[ebp]
	mov	edx, DWORD PTR [ecx+24]
	push	edx
	call	DWORD PTR _xmlRealloc
	add	esp, 8
	cmp	esi, esp
	call	__RTC_CheckEsp
	mov	DWORD PTR _tmp$1[ebp], eax

; 453  : 			      ctxt->nodeMax * 2 * sizeof(ctxt->nodeTab[0]));
; 454  :         if (tmp == NULL) {

	cmp	DWORD PTR _tmp$1[ebp], 0
	jne	SHORT $LN5@nodeVPush

; 455  : 	    xmlVErrMemory(ctxt, "realloc failed");

	push	OFFSET ??_C@_0P@BHJOIPMJ@realloc?5failed@
	mov	eax, DWORD PTR _ctxt$[ebp]
	push	eax
	call	_xmlVErrMemory
	add	esp, 8

; 456  :             return (0);

	xor	eax, eax
	jmp	SHORT $LN1@nodeVPush
$LN5@nodeVPush:

; 457  :         }
; 458  :         ctxt->nodeMax *= 2;

	mov	ecx, DWORD PTR _ctxt$[ebp]
	mov	edx, DWORD PTR [ecx+20]
	shl	edx, 1
	mov	eax, DWORD PTR _ctxt$[ebp]
	mov	DWORD PTR [eax+20], edx

; 459  : 	ctxt->nodeTab = tmp;

	mov	ecx, DWORD PTR _ctxt$[ebp]
	mov	edx, DWORD PTR _tmp$1[ebp]
	mov	DWORD PTR [ecx+24], edx
$LN4@nodeVPush:

; 460  :     }
; 461  :     ctxt->nodeTab[ctxt->nodeNr] = value;

	mov	eax, DWORD PTR _ctxt$[ebp]
	mov	ecx, DWORD PTR [eax+16]
	mov	edx, DWORD PTR _ctxt$[ebp]
	mov	eax, DWORD PTR [edx+24]
	mov	edx, DWORD PTR _value$[ebp]
	mov	DWORD PTR [eax+ecx*4], edx

; 462  :     ctxt->node = value;

	mov	eax, DWORD PTR _ctxt$[ebp]
	mov	ecx, DWORD PTR _value$[ebp]
	mov	DWORD PTR [eax+12], ecx

; 463  :     return (ctxt->nodeNr++);

	mov	edx, DWORD PTR _ctxt$[ebp]
	mov	eax, DWORD PTR [edx+16]
	mov	DWORD PTR tv135[ebp], eax
	mov	ecx, DWORD PTR _ctxt$[ebp]
	mov	edx, DWORD PTR [ecx+16]
	add	edx, 1
	mov	eax, DWORD PTR _ctxt$[ebp]
	mov	DWORD PTR [eax+16], edx
	mov	eax, DWORD PTR tv135[ebp]
$LN1@nodeVPush:

; 464  : }

	pop	esi
	add	esp, 8
	cmp	ebp, esp
	call	__RTC_CheckEsp
	mov	esp, ebp
	pop	ebp
	ret	0
_nodeVPush ENDP
_TEXT	ENDS
; Function compile flags: /Odtp /RTCsu
; File c:\users\dag\documents\_clients\codeproject authors group\windows on arm\libxml2\libxml2-2.9.9\valid.c
;	COMDAT _vstateVPop
_TEXT	SEGMENT
_elemDecl$ = -4						; size = 4
_ctxt$ = 8						; size = 4
_vstateVPop PROC					; COMDAT

; 318  : vstateVPop(xmlValidCtxtPtr ctxt) {

	push	ebp
	mov	ebp, esp
	push	ecx
	mov	DWORD PTR [ebp-4], -858993460		; ccccccccH
	mov	ecx, OFFSET __56F63275_valid@c
	call	@__CheckForDebuggerJustMyCode@4

; 319  :     xmlElementPtr elemDecl;
; 320  : 
; 321  :     if (ctxt->vstateNr < 1) return(-1);

	mov	eax, DWORD PTR _ctxt$[ebp]
	cmp	DWORD PTR [eax+44], 1
	jge	SHORT $LN2@vstateVPop
	or	eax, -1
	jmp	$LN1@vstateVPop
$LN2@vstateVPop:

; 322  :     ctxt->vstateNr--;

	mov	ecx, DWORD PTR _ctxt$[ebp]
	mov	edx, DWORD PTR [ecx+44]
	sub	edx, 1
	mov	eax, DWORD PTR _ctxt$[ebp]
	mov	DWORD PTR [eax+44], edx

; 323  :     elemDecl = ctxt->vstateTab[ctxt->vstateNr].elemDecl;

	mov	ecx, DWORD PTR _ctxt$[ebp]
	imul	edx, DWORD PTR [ecx+44], 12
	mov	eax, DWORD PTR _ctxt$[ebp]
	mov	ecx, DWORD PTR [eax+52]
	mov	edx, DWORD PTR [ecx+edx]
	mov	DWORD PTR _elemDecl$[ebp], edx

; 324  :     ctxt->vstateTab[ctxt->vstateNr].elemDecl = NULL;

	mov	eax, DWORD PTR _ctxt$[ebp]
	imul	ecx, DWORD PTR [eax+44], 12
	mov	edx, DWORD PTR _ctxt$[ebp]
	mov	eax, DWORD PTR [edx+52]
	mov	DWORD PTR [eax+ecx], 0

; 325  :     ctxt->vstateTab[ctxt->vstateNr].node = NULL;

	mov	ecx, DWORD PTR _ctxt$[ebp]
	imul	edx, DWORD PTR [ecx+44], 12
	mov	eax, DWORD PTR _ctxt$[ebp]
	mov	ecx, DWORD PTR [eax+52]
	mov	DWORD PTR [ecx+edx+4], 0

; 326  :     if ((elemDecl != NULL) && (elemDecl->etype == XML_ELEMENT_TYPE_ELEMENT)) {

	cmp	DWORD PTR _elemDecl$[ebp], 0
	je	SHORT $LN3@vstateVPop
	mov	edx, DWORD PTR _elemDecl$[ebp]
	cmp	DWORD PTR [edx+36], 4
	jne	SHORT $LN3@vstateVPop

