; Listing generated by Microsoft (R) Optimizing Compiler Version 19.16.27027.1 

	TITLE	C:\Users\DAG\Documents\_Clients\CodeProject Authors Group\Windows on ARM\libxml2\libxml2-2.9.9\xmlIO.c
	.686P
	.XMM
	include listing.inc
	.model	flat

INCLUDELIB MSVCRTD
INCLUDELIB OLDNAMES

PUBLIC	??_C@_0BB@HHOGALJI@Unknown?5IO?5error@		; `string'
PUBLIC	??_C@_0BC@HFNFNKAI@Permission?5denied@		; `string'
PUBLIC	??_C@_0CB@EPFKGNAK@Resource?5temporarily?5unavailabl@ ; `string'
PUBLIC	??_C@_0BE@NFGDDCEF@Bad?5file?5descriptor@	; `string'
PUBLIC	??_C@_0M@OEPJJONH@Bad?5message@			; `string'
PUBLIC	??_C@_0O@DCCPNFCJ@Resource?5busy@		; `string'
PUBLIC	??_C@_0BD@OIDFIKFE@Operation?5canceled@		; `string'
PUBLIC	??_C@_0BD@LOHELEP@No?5child?5processes@		; `string'
PUBLIC	??_C@_0BK@JAEBMJJM@Resource?5deadlock?5avoided@	; `string'
PUBLIC	??_C@_0N@MMJPGLJK@Domain?5error@		; `string'
PUBLIC	??_C@_0M@NAAJNNGH@File?5exists@			; `string'
PUBLIC	??_C@_0M@LOEHLCJD@Bad?5address@			; `string'
PUBLIC	??_C@_0P@LFMMIPAE@File?5too?5large@		; `string'
PUBLIC	??_C@_0BG@CLDIHNON@Operation?5in?5progress@	; `string'
PUBLIC	??_C@_0BK@FJBOAFDK@Interrupted?5function?5call@	; `string'
PUBLIC	??_C@_0BB@HMGGCEBG@Invalid?5argument@		; `string'
PUBLIC	??_C@_0BD@KKNFOBBD@Input?1output?5error@	; `string'
PUBLIC	??_C@_0P@NDHGCGKE@Is?5a?5directory@		; `string'
PUBLIC	??_C@_0BE@INBJMKGG@Too?5many?5open?5files@	; `string'
PUBLIC	??_C@_0P@PKCJJLLM@Too?5many?5links@		; `string'
PUBLIC	??_C@_0CE@CBLGIDGK@Inappropriate?5message?5buffer?5le@ ; `string'
PUBLIC	??_C@_0BC@BEDIHIDK@Filename?5too?5long@		; `string'
PUBLIC	??_C@_0BO@IIFBODJE@Too?5many?5open?5files?5in?5system@ ; `string'
PUBLIC	??_C@_0P@NLEIANHE@No?5such?5device@		; `string'
PUBLIC	??_C@_0BK@FMDHKPNF@No?5such?5file?5or?5directory@ ; `string'
PUBLIC	??_C@_0BC@HKPNECK@Exec?5format?5error@		; `string'
PUBLIC	??_C@_0BD@CLHBCGPB@No?5locks?5available@	; `string'
PUBLIC	??_C@_0BB@IMDKMPFB@Not?5enough?5space@		; `string'
PUBLIC	??_C@_0BI@FEALHKLD@No?5space?5left?5on?5device@	; `string'
PUBLIC	??_C@_0BJ@IHEHINLI@Function?5not?5implemented@	; `string'
PUBLIC	??_C@_0BA@CJBACOOL@Not?5a?5directory@		; `string'
PUBLIC	??_C@_0BE@ICMCHPHH@Directory?5not?5empty@	; `string'
PUBLIC	??_C@_0O@BKCHHJEH@Not?5supported@		; `string'
PUBLIC	??_C@_0CE@ONOKNLPF@Inappropriate?5I?1O?5control?5opera@ ; `string'
PUBLIC	??_C@_0BK@DPKMCKJ@No?5such?5device?5or?5address@ ; `string'
PUBLIC	??_C@_0BI@BJFCGOHL@Operation?5not?5permitted@	; `string'
PUBLIC	??_C@_0M@LHEPIIOM@Broken?5pipe@			; `string'
PUBLIC	??_C@_0BB@FCBJFCAJ@Result?5too?5large@		; `string'
PUBLIC	??_C@_0BG@DDBFNKBH@Read?9only?5file?5system@	; `string'
PUBLIC	??_C@_0N@FEHLOILP@Invalid?5seek@		; `string'
PUBLIC	??_C@_0BA@FKIAIBGA@No?5such?5process@		; `string'
PUBLIC	??_C@_0BE@JAEOFJAL@Operation?5timed?5out@	; `string'
PUBLIC	??_C@_0O@OAMDNOCP@Improper?5link@		; `string'
PUBLIC	??_C@_0CC@NMGOOKKB@Attempt?5to?5load?5network?5entity?5@ ; `string'
PUBLIC	??_C@_0O@OFGAHADM@encoder?5error@		; `string'
PUBLIC	??_C@_0M@EIOJBFOB@flush?5error@			; `string'
PUBLIC	??_C@_0M@OBCCECMB@write?5error@			; `string'
PUBLIC	??_C@_08DAIOBLIH@no?5input@			; `string'
PUBLIC	??_C@_0M@BKPABHOI@buffer?5full@			; `string'
PUBLIC	??_C@_0O@BKEKGFAA@loading?5error@		; `string'
PUBLIC	??_C@_0N@POEIPGGF@not?5a?5socket@		; `string'
PUBLIC	??_C@_0BC@DFIBIBIL@already?5connected@		; `string'
PUBLIC	??_C@_0BD@PJLIIJEL@connection?5refused@		; `string'
PUBLIC	??_C@_0BE@FGOAHGMF@unreachable?5network@	; `string'
PUBLIC	??_C@_0BA@CMANOPFH@adddress?5in?5use@		; `string'
PUBLIC	??_C@_0P@MHFAFLH@already?5in?5use@		; `string'
PUBLIC	??_C@_0BI@LHMDLEDC@unknown?5address?5familly@	; `string'
_DATA	SEGMENT
COMM	_forbiddenExp:DWORD
COMM	_emptyExp:DWORD
COMM	_xmlMalloc:DWORD
COMM	_xmlMallocAtomic:DWORD
COMM	_xmlRealloc:DWORD
COMM	_xmlFree:DWORD
COMM	_xmlMemStrdup:DWORD
COMM	_xmlIsBaseCharGroup:BYTE:010H
COMM	_xmlIsCharGroup:BYTE:010H
COMM	_xmlIsCombiningGroup:BYTE:010H
COMM	_xmlIsDigitGroup:BYTE:010H
COMM	_xmlIsExtenderGroup:BYTE:010H
COMM	_xmlIsIdeographicGroup:BYTE:010H
COMM	_xmlIsPubidChar_tab:BYTE:0100H
COMM	_xmlParserMaxDepth:DWORD
_DATA	ENDS
msvcjmc	SEGMENT
__188180DA_corecrt_math@h DB 01H
__2CC6E67D_corecrt_stdio_config@h DB 01H
__05476D76_corecrt_wstdio@h DB 01H
__A452D4A0_stdio@h DB 01H
__4384A2D9_corecrt_memcpy_s@h DB 01H
__4E51A221_corecrt_wstring@h DB 01H
__2140C079_string@h DB 01H
__A40A425D_stat@h DB 01H
__7B7A869E_ctype@h DB 01H
__457DD326_basetsd@h DB 01H
__1887E595_winnt@h DB 01H
__9FC7C64B_processthreadsapi@h DB 01H
__FA470AEC_memoryapi@h DB 01H
__F37DAFF1_winerror@h DB 01H
__7A450CCC_winbase@h DB 01H
__B4B40122_winioctl@h DB 01H
__86261D59_stralign@h DB 01H
__194286D1_winsock2@h DB 01H
__7D5E66B2_xmlio@c DB 01H
msvcjmc	ENDS
;	COMDAT ??_C@_0BI@LHMDLEDC@unknown?5address?5familly@
CONST	SEGMENT
??_C@_0BI@LHMDLEDC@unknown?5address?5familly@ DB 'unknown address familly'
	DB	00H						; `string'
CONST	ENDS
;	COMDAT ??_C@_0P@MHFAFLH@already?5in?5use@
CONST	SEGMENT
??_C@_0P@MHFAFLH@already?5in?5use@ DB 'already in use', 00H ; `string'
CONST	ENDS
;	COMDAT ??_C@_0BA@CMANOPFH@adddress?5in?5use@
CONST	SEGMENT
??_C@_0BA@CMANOPFH@adddress?5in?5use@ DB 'adddress in use', 00H ; `string'
CONST	ENDS
;	COMDAT ??_C@_0BE@FGOAHGMF@unreachable?5network@
CONST	SEGMENT
??_C@_0BE@FGOAHGMF@unreachable?5network@ DB 'unreachable network', 00H ; `string'
CONST	ENDS
;	COMDAT ??_C@_0BD@PJLIIJEL@connection?5refused@
CONST	SEGMENT
??_C@_0BD@PJLIIJEL@connection?5refused@ DB 'connection refused', 00H ; `string'
CONST	ENDS
;	COMDAT ??_C@_0BC@DFIBIBIL@already?5connected@
CONST	SEGMENT
??_C@_0BC@DFIBIBIL@already?5connected@ DB 'already connected', 00H ; `string'
CONST	ENDS
;	COMDAT ??_C@_0N@POEIPGGF@not?5a?5socket@
CONST	SEGMENT
??_C@_0N@POEIPGGF@not?5a?5socket@ DB 'not a socket', 00H ; `string'
CONST	ENDS
;	COMDAT ??_C@_0O@BKEKGFAA@loading?5error@
CONST	SEGMENT
??_C@_0O@BKEKGFAA@loading?5error@ DB 'loading error', 00H ; `string'
CONST	ENDS
;	COMDAT ??_C@_0M@BKPABHOI@buffer?5full@
CONST	SEGMENT
??_C@_0M@BKPABHOI@buffer?5full@ DB 'buffer full', 00H	; `string'
CONST	ENDS
;	COMDAT ??_C@_08DAIOBLIH@no?5input@
CONST	SEGMENT
??_C@_08DAIOBLIH@no?5input@ DB 'no input', 00H		; `string'
CONST	ENDS
;	COMDAT ??_C@_0M@OBCCECMB@write?5error@
CONST	SEGMENT
??_C@_0M@OBCCECMB@write?5error@ DB 'write error', 00H	; `string'
CONST	ENDS
;	COMDAT ??_C@_0M@EIOJBFOB@flush?5error@
CONST	SEGMENT
??_C@_0M@EIOJBFOB@flush?5error@ DB 'flush error', 00H	; `string'
CONST	ENDS
;	COMDAT ??_C@_0O@OFGAHADM@encoder?5error@
CONST	SEGMENT
??_C@_0O@OFGAHADM@encoder?5error@ DB 'encoder error', 00H ; `string'
CONST	ENDS
;	COMDAT ??_C@_0CC@NMGOOKKB@Attempt?5to?5load?5network?5entity?5@
CONST	SEGMENT
??_C@_0CC@NMGOOKKB@Attempt?5to?5load?5network?5entity?5@ DB 'Attempt to l'
	DB	'oad network entity %s', 00H			; `string'
CONST	ENDS
;	COMDAT ??_C@_0O@OAMDNOCP@Improper?5link@
CONST	SEGMENT
??_C@_0O@OAMDNOCP@Improper?5link@ DB 'Improper link', 00H ; `string'
CONST	ENDS
;	COMDAT ??_C@_0BE@JAEOFJAL@Operation?5timed?5out@
CONST	SEGMENT
??_C@_0BE@JAEOFJAL@Operation?5timed?5out@ DB 'Operation timed out', 00H ; `string'
CONST	ENDS
;	COMDAT ??_C@_0BA@FKIAIBGA@No?5such?5process@
CONST	SEGMENT
??_C@_0BA@FKIAIBGA@No?5such?5process@ DB 'No such process', 00H ; `string'
CONST	ENDS
;	COMDAT ??_C@_0N@FEHLOILP@Invalid?5seek@
CONST	SEGMENT
??_C@_0N@FEHLOILP@Invalid?5seek@ DB 'Invalid seek', 00H	; `string'
CONST	ENDS
;	COMDAT ??_C@_0BG@DDBFNKBH@Read?9only?5file?5system@
CONST	SEGMENT
??_C@_0BG@DDBFNKBH@Read?9only?5file?5system@ DB 'Read-only file system', 00H ; `string'
CONST	ENDS
;	COMDAT ??_C@_0BB@FCBJFCAJ@Result?5too?5large@
CONST	SEGMENT
??_C@_0BB@FCBJFCAJ@Result?5too?5large@ DB 'Result too large', 00H ; `string'
CONST	ENDS
;	COMDAT ??_C@_0M@LHEPIIOM@Broken?5pipe@
CONST	SEGMENT
??_C@_0M@LHEPIIOM@Broken?5pipe@ DB 'Broken pipe', 00H	; `string'
CONST	ENDS
;	COMDAT ??_C@_0BI@BJFCGOHL@Operation?5not?5permitted@
CONST	SEGMENT
??_C@_0BI@BJFCGOHL@Operation?5not?5permitted@ DB 'Operation not permitted'
	DB	00H						; `string'
CONST	ENDS
;	COMDAT ??_C@_0BK@DPKMCKJ@No?5such?5device?5or?5address@
CONST	SEGMENT
??_C@_0BK@DPKMCKJ@No?5such?5device?5or?5address@ DB 'No such device or ad'
	DB	'dress', 00H					; `string'
CONST	ENDS
;	COMDAT ??_C@_0CE@ONOKNLPF@Inappropriate?5I?1O?5control?5opera@
CONST	SEGMENT
??_C@_0CE@ONOKNLPF@Inappropriate?5I?1O?5control?5opera@ DB 'Inappropriate'
	DB	' I/O control operation', 00H		; `string'
CONST	ENDS
;	COMDAT ??_C@_0O@BKCHHJEH@Not?5supported@
CONST	SEGMENT
??_C@_0O@BKCHHJEH@Not?5supported@ DB 'Not supported', 00H ; `string'
CONST	ENDS
;	COMDAT ??_C@_0BE@ICMCHPHH@Directory?5not?5empty@
CONST	SEGMENT
??_C@_0BE@ICMCHPHH@Directory?5not?5empty@ DB 'Directory not empty', 00H ; `string'
CONST	ENDS
;	COMDAT ??_C@_0BA@CJBACOOL@Not?5a?5directory@
CONST	SEGMENT
??_C@_0BA@CJBACOOL@Not?5a?5directory@ DB 'Not a directory', 00H ; `string'
CONST	ENDS
;	COMDAT ??_C@_0BJ@IHEHINLI@Function?5not?5implemented@
CONST	SEGMENT
??_C@_0BJ@IHEHINLI@Function?5not?5implemented@ DB 'Function not implement'
	DB	'ed', 00H					; `string'
CONST	ENDS
;	COMDAT ??_C@_0BI@FEALHKLD@No?5space?5left?5on?5device@
CONST	SEGMENT
??_C@_0BI@FEALHKLD@No?5space?5left?5on?5device@ DB 'No space left on devi'
	DB	'ce', 00H					; `string'
CONST	ENDS
;	COMDAT ??_C@_0BB@IMDKMPFB@Not?5enough?5space@
CONST	SEGMENT
??_C@_0BB@IMDKMPFB@Not?5enough?5space@ DB 'Not enough space', 00H ; `string'
CONST	ENDS
;	COMDAT ??_C@_0BD@CLHBCGPB@No?5locks?5available@
CONST	SEGMENT
??_C@_0BD@CLHBCGPB@No?5locks?5available@ DB 'No locks available', 00H ; `string'
CONST	ENDS
;	COMDAT ??_C@_0BC@HKPNECK@Exec?5format?5error@
CONST	SEGMENT
??_C@_0BC@HKPNECK@Exec?5format?5error@ DB 'Exec format error', 00H ; `string'
CONST	ENDS
;	COMDAT ??_C@_0BK@FMDHKPNF@No?5such?5file?5or?5directory@
CONST	SEGMENT
??_C@_0BK@FMDHKPNF@No?5such?5file?5or?5directory@ DB 'No such file or dir'
	DB	'ectory', 00H				; `string'
CONST	ENDS
;	COMDAT ??_C@_0P@NLEIANHE@No?5such?5device@
CONST	SEGMENT
??_C@_0P@NLEIANHE@No?5such?5device@ DB 'No such device', 00H ; `string'
CONST	ENDS
;	COMDAT ??_C@_0BO@IIFBODJE@Too?5many?5open?5files?5in?5system@
CONST	SEGMENT
??_C@_0BO@IIFBODJE@Too?5many?5open?5files?5in?5system@ DB 'Too many open '
	DB	'files in system', 00H			; `string'
CONST	ENDS
;	COMDAT ??_C@_0BC@BEDIHIDK@Filename?5too?5long@
CONST	SEGMENT
??_C@_0BC@BEDIHIDK@Filename?5too?5long@ DB 'Filename too long', 00H ; `string'
CONST	ENDS
;	COMDAT ??_C@_0CE@CBLGIDGK@Inappropriate?5message?5buffer?5le@
CONST	SEGMENT
??_C@_0CE@CBLGIDGK@Inappropriate?5message?5buffer?5le@ DB 'Inappropriate '
	DB	'message buffer length', 00H			; `string'
CONST	ENDS
;	COMDAT ??_C@_0P@PKCJJLLM@Too?5many?5links@
CONST	SEGMENT
??_C@_0P@PKCJJLLM@Too?5many?5links@ DB 'Too many links', 00H ; `string'
CONST	ENDS
;	COMDAT ??_C@_0BE@INBJMKGG@Too?5many?5open?5files@
CONST	SEGMENT
??_C@_0BE@INBJMKGG@Too?5many?5open?5files@ DB 'Too many open files', 00H ; `string'
CONST	ENDS
;	COMDAT ??_C@_0P@NDHGCGKE@Is?5a?5directory@
CONST	SEGMENT
??_C@_0P@NDHGCGKE@Is?5a?5directory@ DB 'Is a directory', 00H ; `string'
CONST	ENDS
;	COMDAT ??_C@_0BD@KKNFOBBD@Input?1output?5error@
CONST	SEGMENT
??_C@_0BD@KKNFOBBD@Input?1output?5error@ DB 'Input/output error', 00H ; `string'
CONST	ENDS
;	COMDAT ??_C@_0BB@HMGGCEBG@Invalid?5argument@
CONST	SEGMENT
??_C@_0BB@HMGGCEBG@Invalid?5argument@ DB 'Invalid argument', 00H ; `string'
CONST	ENDS
;	COMDAT ??_C@_0BK@FJBOAFDK@Interrupted?5function?5call@
CONST	SEGMENT
??_C@_0BK@FJBOAFDK@Interrupted?5function?5call@ DB 'Interrupted function '
	DB	'call', 00H					; `string'
CONST	ENDS
;	COMDAT ??_C@_0BG@CLDIHNON@Operation?5in?5progress@
CONST	SEGMENT
??_C@_0BG@CLDIHNON@Operation?5in?5progress@ DB 'Operation in progress', 00H ; `string'
CONST	ENDS
;	COMDAT ??_C@_0P@LFMMIPAE@File?5too?5large@
CONST	SEGMENT
??_C@_0P@LFMMIPAE@File?5too?5large@ DB 'File too large', 00H ; `string'
CONST	ENDS
;	COMDAT ??_C@_0M@LOEHLCJD@Bad?5address@
CONST	SEGMENT
??_C@_0M@LOEHLCJD@Bad?5address@ DB 'Bad address', 00H	; `string'
CONST	ENDS
;	COMDAT ??_C@_0M@NAAJNNGH@File?5exists@
CONST	SEGMENT
??_C@_0M@NAAJNNGH@File?5exists@ DB 'File exists', 00H	; `string'
CONST	ENDS
;	COMDAT ??_C@_0N@MMJPGLJK@Domain?5error@
CONST	SEGMENT
??_C@_0N@MMJPGLJK@Domain?5error@ DB 'Domain error', 00H	; `string'
CONST	ENDS
;	COMDAT ??_C@_0BK@JAEBMJJM@Resource?5deadlock?5avoided@
CONST	SEGMENT
??_C@_0BK@JAEBMJJM@Resource?5deadlock?5avoided@ DB 'Resource deadlock avo'
	DB	'ided', 00H					; `string'
CONST	ENDS
;	COMDAT ??_C@_0BD@LOHELEP@No?5child?5processes@
CONST	SEGMENT
??_C@_0BD@LOHELEP@No?5child?5processes@ DB 'No child processes', 00H ; `string'
CONST	ENDS
;	COMDAT ??_C@_0BD@OIDFIKFE@Operation?5canceled@
CONST	SEGMENT
??_C@_0BD@OIDFIKFE@Operation?5canceled@ DB 'Operation canceled', 00H ; `string'
CONST	ENDS
;	COMDAT ??_C@_0O@DCCPNFCJ@Resource?5busy@
CONST	SEGMENT
??_C@_0O@DCCPNFCJ@Resource?5busy@ DB 'Resource busy', 00H ; `string'
CONST	ENDS
;	COMDAT ??_C@_0M@OEPJJONH@Bad?5message@
CONST	SEGMENT
??_C@_0M@OEPJJONH@Bad?5message@ DB 'Bad message', 00H	; `string'
CONST	ENDS
;	COMDAT ??_C@_0BE@NFGDDCEF@Bad?5file?5descriptor@
CONST	SEGMENT
??_C@_0BE@NFGDDCEF@Bad?5file?5descriptor@ DB 'Bad file descriptor', 00H ; `string'
CONST	ENDS
;	COMDAT ??_C@_0CB@EPFKGNAK@Resource?5temporarily?5unavailabl@
CONST	SEGMENT
??_C@_0CB@EPFKGNAK@Resource?5temporarily?5unavailabl@ DB 'Resource tempor'
	DB	'arily unavailable', 00H			; `string'
CONST	ENDS
;	COMDAT ??_C@_0BC@HFNFNKAI@Permission?5denied@
CONST	SEGMENT
??_C@_0BC@HFNFNKAI@Permission?5denied@ DB 'Permission denied', 00H ; `string'
CONST	ENDS
;	COMDAT ??_C@_0BB@HHOGALJI@Unknown?5IO?5error@
CONST	SEGMENT
??_C@_0BB@HHOGALJI@Unknown?5IO?5error@ DB 'Unknown IO error', 00H ; `string'
CONST	ENDS
PUBLIC	___local_stdio_printf_options
PUBLIC	_snprintf
PUBLIC	___xmlIOErr
PUBLIC	___xmlLoaderErr
PUBLIC	_xmlInputReadCallbackNop
PUBLIC	_xmlCleanupInputCallbacks
PUBLIC	_xmlPopInputCallbacks
PUBLIC	_xmlRegisterDefaultInputCallbacks
PUBLIC	_xmlAllocParserInputBuffer
PUBLIC	_xmlParserInputBufferCreateFilename
PUBLIC	_xmlParserInputBufferCreateFile
PUBLIC	_xmlParserInputBufferCreateFd
PUBLIC	_xmlParserInputBufferCreateMem
PUBLIC	_xmlParserInputBufferCreateStatic
PUBLIC	_xmlParserInputBufferCreateIO
PUBLIC	_xmlParserInputBufferRead
PUBLIC	_xmlParserInputBufferGrow
PUBLIC	_xmlParserInputBufferPush
PUBLIC	_xmlFreeParserInputBuffer
PUBLIC	_xmlParserGetDirectory
PUBLIC	_xmlRegisterInputCallbacks
PUBLIC	___xmlParserInputBufferCreateFilename
PUBLIC	_xmlCleanupOutputCallbacks
PUBLIC	_xmlRegisterDefaultOutputCallbacks
PUBLIC	_xmlAllocOutputBuffer
PUBLIC	_xmlOutputBufferCreateFilename
PUBLIC	_xmlOutputBufferCreateFile
PUBLIC	_xmlOutputBufferCreateBuffer
PUBLIC	_xmlOutputBufferCreateFd
PUBLIC	_xmlOutputBufferCreateIO
PUBLIC	_xmlOutputBufferGetContent
PUBLIC	_xmlOutputBufferGetSize
PUBLIC	_xmlOutputBufferWrite
PUBLIC	_xmlOutputBufferWriteString
PUBLIC	_xmlOutputBufferWriteEscape
PUBLIC	_xmlOutputBufferFlush
PUBLIC	_xmlOutputBufferClose
PUBLIC	_xmlRegisterOutputCallbacks
PUBLIC	___xmlOutputBufferCreateFilename
PUBLIC	_xmlRegisterHTTPPostCallbacks
PUBLIC	_xmlCheckHTTPInput
PUBLIC	_xmlNoNetExternalEntityLoader
PUBLIC	_xmlNormalizeWindowsPath
PUBLIC	_xmlCheckFilename
PUBLIC	_xmlFileMatch
PUBLIC	_xmlFileOpen
PUBLIC	_xmlFileRead
PUBLIC	_xmlFileClose
PUBLIC	_xmlIOHTTPMatch
PUBLIC	_xmlIOHTTPOpen
PUBLIC	_xmlIOHTTPOpenW
PUBLIC	_xmlIOHTTPRead
PUBLIC	_xmlIOHTTPClose
PUBLIC	_xmlIOFTPMatch
PUBLIC	_xmlIOFTPOpen
PUBLIC	_xmlIOFTPRead
PUBLIC	_xmlIOFTPClose
PUBLIC	_xmlSetExternalEntityLoader
PUBLIC	_xmlGetExternalEntityLoader
PUBLIC	_xmlLoadExternalEntity
PUBLIC	_xmlParserInputBufferCreateFilenameDefault
PUBLIC	_xmlOutputBufferCreateFilenameDefault
PUBLIC	_xmlAllocOutputBufferInternal
PUBLIC	__JustMyCode_Default
PUBLIC	??_C@_15MJDFFMKN@?$AAw?$AAb@			; `string'
PUBLIC	??_C@_15JJPIMNBO@?$AAr?$AAb@			; `string'
PUBLIC	??_C@_02GMLFBBN@wb@				; `string'
PUBLIC	??_C@_02JDPG@rb@				; `string'
PUBLIC	??_C@_01KDCPPGHE@r@				; `string'
PUBLIC	??_C@_01OJONOECF@b@				; `string'
PUBLIC	??_C@_06CDFDMJHA@read?$CI?$CJ@			; `string'
PUBLIC	??_C@_07BKPGOOAC@write?$CI?$CJ@			; `string'
PUBLIC	??_C@_07LBJPAJEN@close?$CI?$CJ@			; `string'
PUBLIC	??_C@_01JOAMLHOP@?9@				; `string'
PUBLIC	??_C@_0BC@IDKAIMBK@file?3?1?1localhost?1@	; `string'
PUBLIC	??_C@_08NPMJDGGI@file?3?1?1?1@			; `string'
PUBLIC	??_C@_06MONEMCJK@file?3?1@			; `string'
PUBLIC	??_C@_07MNJJGAFL@fread?$CI?$CJ@			; `string'
PUBLIC	??_C@_08LGKENNOL@fwrite?$CI?$CJ@		; `string'
PUBLIC	??_C@_08FAKMNOA@fflush?$CI?$CJ@			; `string'
PUBLIC	??_C@_08BNMNDKKE@fclose?$CI?$CJ@		; `string'
PUBLIC	??_C@_04NMBHCBBN@wb?$CFd@			; `string'
PUBLIC	??_C@_08FNKEGDJF@gzread?$CI?$CJ@		; `string'
PUBLIC	??_C@_09MKOIAPFP@gzwrite?$CI?$CJ@		; `string'
PUBLIC	??_C@_09GBIBOIBA@gzclose?$CI?$CJ@		; `string'
PUBLIC	??_C@_08CONNOODF@xzread?$CI?$CJ@		; `string'
PUBLIC	??_C@_09LHCEDCHF@xzclose?$CI?$CJ@		; `string'
PUBLIC	??_C@_0BI@PALIHBDA@creating?5buffer?5context@	; `string'
PUBLIC	??_C@_0BA@GIGPFFIA@creating?5buffer@		; `string'
PUBLIC	??_C@_06CJNJFBNP@1?42?411@			; `string'
PUBLIC	??_C@_0DF@HJICNPOB@Error?5initializing?5compression?5@ ; `string'
PUBLIC	??_C@_0BL@GHKILDDP@xmlCreateZMemBuff?3?5?5?$CFs?5?$CFd?6@ ; `string'
PUBLIC	??_C@_0BF@FJABJDFD@?$CFc?$CFc?$CFc?$CFc?$CFc?$CFc?$CFc?$CFc?$CFc?$CFc@ ; `string'
PUBLIC	??_C@_0CO@MDLOIDCC@Allocation?5failure?5extending?5ou@ ; `string'
PUBLIC	??_C@_0CD@GHKILCIJ@xmlZMemBuffExtend?3?5?5?$CFs?5?$CFlu?5byte@ ; `string'
PUBLIC	??_C@_0BN@LMICBFOE@bytes?5to?5buffer?4?5?5ZLIB?5error@ ; `string'
PUBLIC	??_C@_0CC@EIPKGAGC@Compression?5error?5while?5appendi@ ; `string'
PUBLIC	??_C@_0CC@EMHPFLHJ@xmlZMemBuffAppend?3?5?5?$CFs?5?$CFd?5?$CFs?5?9?5@ ; `string'
PUBLIC	??_C@_0CJ@BEAAAJBE@Error?5flushing?5zlib?5buffers?4?5?5E@ ; `string'
PUBLIC	??_C@_0CB@PEPDONBH@xmlZMemBuffGetContent?3?5?5?$CFs?5?9?5?$CFd@ ; `string'
PUBLIC	??_C@_07FGAOOBMN@http?3?1?1@			; `string'
PUBLIC	??_C@_0BN@HPAPFPOH@creating?5HTTP?5output?5context@ ; `string'
PUBLIC	??_C@_0M@MAMOHIEM@copying?5URI@			; `string'
PUBLIC	??_C@_0BO@GKIAAEMO@Error?5sending?5document?5to?5URI@ ; `string'
PUBLIC	??_C@_0CE@EMEBAPHK@Error?5appending?5to?5internal?5buf@ ; `string'
PUBLIC	??_C@_0BO@FAAFNDKK@xmlIOHTTPWrite?3?5?5?$CFs?6?$CFs?5?8?$CFs?8?4?6@ ; `string'
PUBLIC	??_C@_08HNLEKLC@text?1xml@			; `string'
PUBLIC	??_C@_0BH@GLHIGFDJ@Content?9Encoding?3?5gzip@	; `string'
PUBLIC	??_C@_0M@OBPMGCPN@data?5to?5URI@		; `string'
PUBLIC	??_C@_0CE@LJFLEKEA@Error?5retrieving?5content?4?6Unabl@ ; `string'
PUBLIC	??_C@_0CI@GBILCNOK@xmlIOHTTPCloseWrite?3?5?5?$CFs?5?8?$CFs?8?5?$CF@ ; `string'
PUBLIC	??_C@_0BL@JBOHJFIO@failed?4?5?5HTTP?5return?5code?3@ ; `string'
PUBLIC	??_C@_0N@PMLOIJLP@bytes?5to?5URI@		; `string'
PUBLIC	??_C@_0DE@NBPIPMNL@xmlIOHTTPCloseWrite?3?5HTTP?5?8?$CFs?8?5@ ; `string'
PUBLIC	??_C@_03KBBGFLEK@PUT@				; `string'
PUBLIC	??_C@_04HCJEIHPL@POST@				; `string'
PUBLIC	??_C@_06FNAPNHDD@ftp?3?1?1@			; `string'
PUBLIC	??_C@_0BG@GLAPLACG@creating?5input?5buffer@	; `string'
PUBLIC	??_C@_0BH@JBBBCCHB@creating?5output?5buffer@	; `string'
PUBLIC	??_C@_04DAMGJPCA@file@				; `string'
PUBLIC	??_C@_0BF@EADFILIC@growing?5input?5buffer@	; `string'
PUBLIC	??_C@_0CD@MCCOMMMF@failed?5to?5load?5HTTP?5resource?5?$CC?$CF@ ; `string'
PUBLIC	??_C@_0BO@FMFGBFHH@failed?5to?5load?5HTTP?5resource?6@ ; `string'
PUBLIC	??_C@_04FNIAEEJM@?1xml@				; `string'
PUBLIC	??_C@_04KIAAOCFM@?$CLxml@			; `string'
PUBLIC	??_C@_0BE@MFOALNCF@Unknown?5encoding?5?$CFs@	; `string'
PUBLIC	??_C@_04HIBGFPH@NULL@				; `string'
PUBLIC	??_C@_0CF@NIPBAEPO@failed?5to?5load?5external?5entity?5@ ; `string'
PUBLIC	??_C@_0BJ@CJFKOCMN@building?5canonical?5path?6@	; `string'
EXTRN	_xmlStrdup:PROC
EXTRN	_xmlStrstr:PROC
EXTRN	_xmlStrncasecmp:PROC
EXTRN	_xmlStrEqual:PROC
EXTRN	_xmlStrPrintf:PROC
EXTRN	__imp___wopen:PROC
EXTRN	__imp__close:PROC
EXTRN	__imp__dup:PROC
EXTRN	__imp__read:PROC
EXTRN	__imp__write:PROC
EXTRN	__imp__getcwd:PROC
EXTRN	__imp____acrt_iob_func:PROC
EXTRN	__imp___wfopen:PROC
EXTRN	__imp__fclose:PROC
EXTRN	__imp__ferror:PROC
EXTRN	__imp__fflush:PROC
EXTRN	__imp__fopen:PROC
EXTRN	__imp__fread:PROC
EXTRN	__imp__fwrite:PROC
EXTRN	__imp____stdio_common_vsprintf:PROC
EXTRN	__imp__fileno:PROC
EXTRN	__imp___errno:PROC
EXTRN	_strstr:PROC
EXTRN	__imp__strncpy:PROC
EXTRN	__imp___stat64i32:PROC
EXTRN	__imp___wstat64i32:PROC
EXTRN	__imp__MultiByteToWideChar@24:PROC
EXTRN	_deflate@8:PROC
EXTRN	_deflateEnd@4:PROC
EXTRN	_gzdopen@8:PROC
EXTRN	_gzread@12:PROC
EXTRN	_gzwrite@12:PROC
EXTRN	_gzdirect@4:PROC
EXTRN	_gzclose@4:PROC
EXTRN	_crc32@12:PROC
EXTRN	_deflateInit2_@32:PROC
EXTRN	_gzopen@8:PROC
EXTRN	_xmlBufContent:PROC
EXTRN	_xmlBufEnd:PROC
EXTRN	_xmlBufUse:PROC
EXTRN	_xmlBufShrink:PROC
EXTRN	_xmlBufferAdd:PROC
EXTRN	___xmlRaiseError:PROC
EXTRN	___xmlSimpleError:PROC
EXTRN	_xmlGetCharEncodingHandler:PROC
EXTRN	_xmlFindCharEncodingHandler:PROC
EXTRN	_xmlCharEncCloseFunc:PROC
EXTRN	___xmlDefaultBufferSize:PROC
EXTRN	___xmlParserInputBufferCreateFilenameValue:PROC
EXTRN	___xmlOutputBufferCreateFilenameValue:PROC
EXTRN	_xmlSwitchInputEncoding:PROC
EXTRN	___xmlErrEncoding:PROC
EXTRN	_xmlFreeInputStream:PROC
EXTRN	_xmlNewInputFromFile:PROC
EXTRN	_xmlParseURI:PROC
EXTRN	_xmlURIUnescapeString:PROC
EXTRN	_xmlFreeURI:PROC
EXTRN	_xmlCanonicPath:PROC
EXTRN	_xmlNanoHTTPMethod:PROC
EXTRN	_xmlNanoHTTPOpen:PROC
EXTRN	_xmlNanoHTTPReturnCode:PROC
EXTRN	_xmlNanoHTTPRedir:PROC
EXTRN	_xmlNanoHTTPEncoding:PROC
EXTRN	_xmlNanoHTTPMimeType:PROC
EXTRN	_xmlNanoHTTPRead:PROC
EXTRN	_xmlNanoHTTPClose:PROC
EXTRN	_xmlNanoFTPOpen:PROC
EXTRN	_xmlNanoFTPClose:PROC
EXTRN	_xmlNanoFTPRead:PROC
EXTRN	_xmlCatalogResolve:PROC
EXTRN	_xmlCatalogResolveURI:PROC
EXTRN	_xmlCatalogLocalResolve:PROC
EXTRN	_xmlCatalogLocalResolveURI:PROC
EXTRN	_xmlCatalogGetDefaults:PROC
EXTRN	_xmlBufCreate:PROC
EXTRN	_xmlBufCreateSize:PROC
EXTRN	_xmlBufCreateStatic:PROC
EXTRN	_xmlBufSetAllocationScheme:PROC
EXTRN	_xmlBufGetAllocationScheme:PROC
EXTRN	_xmlBufFree:PROC
EXTRN	_xmlBufGrow:PROC
EXTRN	_xmlBufAdd:PROC
EXTRN	_xmlBufAvail:PROC
EXTRN	_xmlBufAddLen:PROC
EXTRN	_xmlCharEncInput:PROC
EXTRN	_xmlCharEncOutput:PROC
EXTRN	___libxml2_xzopen:PROC
EXTRN	___libxml2_xzdopen:PROC
EXTRN	___libxml2_xzread:PROC
EXTRN	___libxml2_xzclose:PROC
EXTRN	___libxml2_xzcompressed:PROC
EXTRN	@_RTC_CheckStackVars@8:PROC
EXTRN	@__CheckForDebuggerJustMyCode@4:PROC
EXTRN	__RTC_CheckEsp:PROC
EXTRN	__RTC_InitBase:PROC
EXTRN	__RTC_Shutdown:PROC
EXTRN	_memset:PROC
_DATA	SEGMENT
COMM	?_OptionsStorage@?1??__local_stdio_printf_options@@9@9:QWORD							; `__local_stdio_printf_options'::`2'::_OptionsStorage
_DATA	ENDS
_BSS	SEGMENT
_xmlInputCallbackTable DB 0f0H DUP (?)
_xmlInputCallbackNr DD 01H DUP (?)
_xmlInputCallbackInitialized DD 01H DUP (?)
_xmlOutputCallbackTable DB 0f0H DUP (?)
_xmlOutputCallbackNr DD 01H DUP (?)
_xmlOutputCallbackInitialized DD 01H DUP (?)
_BSS	ENDS
;	COMDAT rtc$TMZ
rtc$TMZ	SEGMENT
__RTC_Shutdown.rtc$TMZ DD FLAT:__RTC_Shutdown
rtc$TMZ	ENDS
;	COMDAT rtc$IMZ
rtc$IMZ	SEGMENT
__RTC_InitBase.rtc$IMZ DD FLAT:__RTC_InitBase
rtc$IMZ	ENDS
;	COMDAT ??_C@_0BJ@CJFKOCMN@building?5canonical?5path?6@
CONST	SEGMENT
??_C@_0BJ@CJFKOCMN@building?5canonical?5path?6@ DB 'building canonical pa'
	DB	'th', 0aH, 00H				; `string'
CONST	ENDS
;	COMDAT ??_C@_0CF@NIPBAEPO@failed?5to?5load?5external?5entity?5@
CONST	SEGMENT
??_C@_0CF@NIPBAEPO@failed?5to?5load?5external?5entity?5@ DB 'failed to lo'
	DB	'ad external entity "%s"', 0aH, 00H		; `string'
CONST	ENDS
;	COMDAT ??_C@_04HIBGFPH@NULL@
CONST	SEGMENT
??_C@_04HIBGFPH@NULL@ DB 'NULL', 00H			; `string'
CONST	ENDS
;	COMDAT ??_C@_0BE@MFOALNCF@Unknown?5encoding?5?$CFs@
CONST	SEGMENT
??_C@_0BE@MFOALNCF@Unknown?5encoding?5?$CFs@ DB 'Unknown encoding %s', 00H ; `string'
CONST	ENDS
;	COMDAT ??_C@_04KIAAOCFM@?$CLxml@
CONST	SEGMENT
??_C@_04KIAAOCFM@?$CLxml@ DB '+xml', 00H		; `string'
CONST	ENDS
;	COMDAT ??_C@_04FNIAEEJM@?1xml@
CONST	SEGMENT
??_C@_04FNIAEEJM@?1xml@ DB '/xml', 00H			; `string'
CONST	ENDS
;	COMDAT ??_C@_0BO@FMFGBFHH@failed?5to?5load?5HTTP?5resource?6@
CONST	SEGMENT
??_C@_0BO@FMFGBFHH@failed?5to?5load?5HTTP?5resource?6@ DB 'failed to load'
	DB	' HTTP resource', 0aH, 00H			; `string'
CONST	ENDS
;	COMDAT ??_C@_0CD@MCCOMMMF@failed?5to?5load?5HTTP?5resource?5?$CC?$CF@
CONST	SEGMENT
??_C@_0CD@MCCOMMMF@failed?5to?5load?5HTTP?5resource?5?$CC?$CF@ DB 'failed'
	DB	' to load HTTP resource "%s"', 0aH, 00H	; `string'
CONST	ENDS
;	COMDAT ??_C@_0BF@EADFILIC@growing?5input?5buffer@
CONST	SEGMENT
??_C@_0BF@EADFILIC@growing?5input?5buffer@ DB 'growing input buffer', 00H ; `string'
CONST	ENDS
;	COMDAT ??_C@_04DAMGJPCA@file@
CONST	SEGMENT
??_C@_04DAMGJPCA@file@ DB 'file', 00H			; `string'
CONST	ENDS
;	COMDAT ??_C@_0BH@JBBBCCHB@creating?5output?5buffer@
CONST	SEGMENT
??_C@_0BH@JBBBCCHB@creating?5output?5buffer@ DB 'creating output buffer', 00H ; `string'
CONST	ENDS
;	COMDAT ??_C@_0BG@GLAPLACG@creating?5input?5buffer@
CONST	SEGMENT
??_C@_0BG@GLAPLACG@creating?5input?5buffer@ DB 'creating input buffer', 00H ; `string'
CONST	ENDS
;	COMDAT ??_C@_06FNAPNHDD@ftp?3?1?1@
CONST	SEGMENT
??_C@_06FNAPNHDD@ftp?3?1?1@ DB 'ftp://', 00H		; `string'
CONST	ENDS
;	COMDAT ??_C@_04HCJEIHPL@POST@
CONST	SEGMENT
??_C@_04HCJEIHPL@POST@ DB 'POST', 00H			; `string'
CONST	ENDS
;	COMDAT ??_C@_03KBBGFLEK@PUT@
CONST	SEGMENT
??_C@_03KBBGFLEK@PUT@ DB 'PUT', 00H			; `string'
CONST	ENDS
;	COMDAT ??_C@_0DE@NBPIPMNL@xmlIOHTTPCloseWrite?3?5HTTP?5?8?$CFs?8?5@
CONST	SEGMENT
??_C@_0DE@NBPIPMNL@xmlIOHTTPCloseWrite?3?5HTTP?5?8?$CFs?8?5@ DB 'xmlIOHTT'
	DB	'PCloseWrite: HTTP ''%s'' of %d %s', 0aH, '''%s'' %s %d', 0aH, 00H ; `string'
CONST	ENDS
;	COMDAT ??_C@_0N@PMLOIJLP@bytes?5to?5URI@
CONST	SEGMENT
??_C@_0N@PMLOIJLP@bytes?5to?5URI@ DB 'bytes to URI', 00H ; `string'
CONST	ENDS
;	COMDAT ??_C@_0BL@JBOHJFIO@failed?4?5?5HTTP?5return?5code?3@
CONST	SEGMENT
??_C@_0BL@JBOHJFIO@failed?4?5?5HTTP?5return?5code?3@ DB 'failed.  HTTP re'
	DB	'turn code:', 00H				; `string'
CONST	ENDS
;	COMDAT ??_C@_0CI@GBILCNOK@xmlIOHTTPCloseWrite?3?5?5?$CFs?5?8?$CFs?8?5?$CF@
CONST	SEGMENT
??_C@_0CI@GBILCNOK@xmlIOHTTPCloseWrite?3?5?5?$CFs?5?8?$CFs?8?5?$CF@ DB 'x'
	DB	'mlIOHTTPCloseWrite:  %s ''%s'' %s ''%s''.', 0aH, 00H ; `string'
CONST	ENDS
;	COMDAT ??_C@_0CE@LJFLEKEA@Error?5retrieving?5content?4?6Unabl@
CONST	SEGMENT
??_C@_0CE@LJFLEKEA@Error?5retrieving?5content?4?6Unabl@ DB 'Error retriev'
	DB	'ing content.', 0aH, 'Unable to', 00H	; `string'
CONST	ENDS
;	COMDAT ??_C@_0M@OBPMGCPN@data?5to?5URI@
CONST	SEGMENT
??_C@_0M@OBPMGCPN@data?5to?5URI@ DB 'data to URI', 00H	; `string'
CONST	ENDS
;	COMDAT ??_C@_0BH@GLHIGFDJ@Content?9Encoding?3?5gzip@
CONST	SEGMENT
??_C@_0BH@GLHIGFDJ@Content?9Encoding?3?5gzip@ DB 'Content-Encoding: gzip', 00H ; `string'
CONST	ENDS
;	COMDAT ??_C@_08HNLEKLC@text?1xml@
CONST	SEGMENT
??_C@_08HNLEKLC@text?1xml@ DB 'text/xml', 00H		; `string'
CONST	ENDS
;	COMDAT ??_C@_0BO@FAAFNDKK@xmlIOHTTPWrite?3?5?5?$CFs?6?$CFs?5?8?$CFs?8?4?6@
CONST	SEGMENT
??_C@_0BO@FAAFNDKK@xmlIOHTTPWrite?3?5?5?$CFs?6?$CFs?5?8?$CFs?8?4?6@ DB 'x'
	DB	'mlIOHTTPWrite:  %s', 0aH, '%s ''%s''.', 0aH, 00H ; `string'
CONST	ENDS
;	COMDAT ??_C@_0CE@EMEBAPHK@Error?5appending?5to?5internal?5buf@
CONST	SEGMENT
??_C@_0CE@EMEBAPHK@Error?5appending?5to?5internal?5buf@ DB 'Error appendi'
	DB	'ng to internal buffer.', 00H		; `string'
CONST	ENDS
;	COMDAT ??_C@_0BO@GKIAAEMO@Error?5sending?5document?5to?5URI@
CONST	SEGMENT
??_C@_0BO@GKIAAEMO@Error?5sending?5document?5to?5URI@ DB 'Error sending d'
	DB	'ocument to URI', 00H			; `string'
CONST	ENDS
;	COMDAT ??_C@_0M@MAMOHIEM@copying?5URI@
CONST	SEGMENT
??_C@_0M@MAMOHIEM@copying?5URI@ DB 'copying URI', 00H	; `string'
CONST	ENDS
;	COMDAT ??_C@_0BN@HPAPFPOH@creating?5HTTP?5output?5context@
CONST	SEGMENT
??_C@_0BN@HPAPFPOH@creating?5HTTP?5output?5context@ DB 'creating HTTP out'
	DB	'put context', 00H				; `string'
CONST	ENDS
;	COMDAT ??_C@_07FGAOOBMN@http?3?1?1@
CONST	SEGMENT
??_C@_07FGAOOBMN@http?3?1?1@ DB 'http://', 00H		; `string'
CONST	ENDS
;	COMDAT ??_C@_0CB@PEPDONBH@xmlZMemBuffGetContent?3?5?5?$CFs?5?9?5?$CFd@
CONST	SEGMENT
??_C@_0CB@PEPDONBH@xmlZMemBuffGetContent?3?5?5?$CFs?5?9?5?$CFd@ DB 'xmlZM'
	DB	'emBuffGetContent:  %s - %d', 0aH, 00H	; `string'
CONST	ENDS
;	COMDAT ??_C@_0CJ@BEAAAJBE@Error?5flushing?5zlib?5buffers?4?5?5E@
CONST	SEGMENT
??_C@_0CJ@BEAAAJBE@Error?5flushing?5zlib?5buffers?4?5?5E@ DB 'Error flush'
	DB	'ing zlib buffers.  Error code', 00H		; `string'
CONST	ENDS
;	COMDAT ??_C@_0CC@EMHPFLHJ@xmlZMemBuffAppend?3?5?5?$CFs?5?$CFd?5?$CFs?5?9?5@
CONST	SEGMENT
??_C@_0CC@EMHPFLHJ@xmlZMemBuffAppend?3?5?5?$CFs?5?$CFd?5?$CFs?5?9?5@ DB 'x'
	DB	'mlZMemBuffAppend:  %s %d %s - %d', 00H	; `string'
CONST	ENDS
;	COMDAT ??_C@_0CC@EIPKGAGC@Compression?5error?5while?5appendi@
CONST	SEGMENT
??_C@_0CC@EIPKGAGC@Compression?5error?5while?5appendi@ DB 'Compression er'
	DB	'ror while appending', 00H			; `string'
CONST	ENDS
;	COMDAT ??_C@_0BN@LMICBFOE@bytes?5to?5buffer?4?5?5ZLIB?5error@
CONST	SEGMENT
??_C@_0BN@LMICBFOE@bytes?5to?5buffer?4?5?5ZLIB?5error@ DB 'bytes to buffe'
	DB	'r.  ZLIB error', 00H			; `string'
CONST	ENDS
;	COMDAT ??_C@_0CD@GHKILCIJ@xmlZMemBuffExtend?3?5?5?$CFs?5?$CFlu?5byte@
CONST	SEGMENT
??_C@_0CD@GHKILCIJ@xmlZMemBuffExtend?3?5?5?$CFs?5?$CFlu?5byte@ DB 'xmlZMe'
	DB	'mBuffExtend:  %s %lu bytes.', 0aH, 00H	; `string'
CONST	ENDS
;	COMDAT ??_C@_0CO@MDLOIDCC@Allocation?5failure?5extending?5ou@
CONST	SEGMENT
??_C@_0CO@MDLOIDCC@Allocation?5failure?5extending?5ou@ DB 'Allocation fai'
	DB	'lure extending output buffer to', 00H	; `string'
CONST	ENDS
;	COMDAT ??_C@_0BF@FJABJDFD@?$CFc?$CFc?$CFc?$CFc?$CFc?$CFc?$CFc?$CFc?$CFc?$CFc@
CONST	SEGMENT
??_C@_0BF@FJABJDFD@?$CFc?$CFc?$CFc?$CFc?$CFc?$CFc?$CFc?$CFc?$CFc?$CFc@ DB '%'
	DB	'c%c%c%c%c%c%c%c%c%c', 00H			; `string'
CONST	ENDS
;	COMDAT ??_C@_0BL@GHKILDDP@xmlCreateZMemBuff?3?5?5?$CFs?5?$CFd?6@
CONST	SEGMENT
??_C@_0BL@GHKILDDP@xmlCreateZMemBuff?3?5?5?$CFs?5?$CFd?6@ DB 'xmlCreateZM'
	DB	'emBuff:  %s %d', 0aH, 00H			; `string'
CONST	ENDS
;	COMDAT ??_C@_0DF@HJICNPOB@Error?5initializing?5compression?5@
CONST	SEGMENT
??_C@_0DF@HJICNPOB@Error?5initializing?5compression?5@ DB 'Error initiali'
	DB	'zing compression context.  ZLIB error:', 00H ; `string'
CONST	ENDS
;	COMDAT ??_C@_06CJNJFBNP@1?42?411@
CONST	SEGMENT
??_C@_06CJNJFBNP@1?42?411@ DB '1.2.11', 00H		; `string'
CONST	ENDS
;	COMDAT ??_C@_0BA@GIGPFFIA@creating?5buffer@
CONST	SEGMENT
??_C@_0BA@GIGPFFIA@creating?5buffer@ DB 'creating buffer', 00H ; `string'
CONST	ENDS
;	COMDAT ??_C@_0BI@PALIHBDA@creating?5buffer?5context@
CONST	SEGMENT
??_C@_0BI@PALIHBDA@creating?5buffer?5context@ DB 'creating buffer context'
	DB	00H						; `string'
CONST	ENDS
;	COMDAT ??_C@_09LHCEDCHF@xzclose?$CI?$CJ@
CONST	SEGMENT
??_C@_09LHCEDCHF@xzclose?$CI?$CJ@ DB 'xzclose()', 00H	; `string'
CONST	ENDS
;	COMDAT ??_C@_08CONNOODF@xzread?$CI?$CJ@
CONST	SEGMENT
??_C@_08CONNOODF@xzread?$CI?$CJ@ DB 'xzread()', 00H	; `string'
CONST	ENDS
;	COMDAT ??_C@_09GBIBOIBA@gzclose?$CI?$CJ@
CONST	SEGMENT
??_C@_09GBIBOIBA@gzclose?$CI?$CJ@ DB 'gzclose()', 00H	; `string'
CONST	ENDS
;	COMDAT ??_C@_09MKOIAPFP@gzwrite?$CI?$CJ@
CONST	SEGMENT
??_C@_09MKOIAPFP@gzwrite?$CI?$CJ@ DB 'gzwrite()', 00H	; `string'
CONST	ENDS
;	COMDAT ??_C@_08FNKEGDJF@gzread?$CI?$CJ@
CONST	SEGMENT
??_C@_08FNKEGDJF@gzread?$CI?$CJ@ DB 'gzread()', 00H	; `string'
CONST	ENDS
;	COMDAT ??_C@_04NMBHCBBN@wb?$CFd@
CONST	SEGMENT
??_C@_04NMBHCBBN@wb?$CFd@ DB 'wb%d', 00H		; `string'
CONST	ENDS
;	COMDAT ??_C@_08BNMNDKKE@fclose?$CI?$CJ@
CONST	SEGMENT
??_C@_08BNMNDKKE@fclose?$CI?$CJ@ DB 'fclose()', 00H	; `string'
CONST	ENDS
;	COMDAT ??_C@_08FAKMNOA@fflush?$CI?$CJ@
CONST	SEGMENT
??_C@_08FAKMNOA@fflush?$CI?$CJ@ DB 'fflush()', 00H	; `string'
CONST	ENDS
;	COMDAT ??_C@_08LGKENNOL@fwrite?$CI?$CJ@
CONST	SEGMENT
??_C@_08LGKENNOL@fwrite?$CI?$CJ@ DB 'fwrite()', 00H	; `string'
CONST	ENDS
;	COMDAT ??_C@_07MNJJGAFL@fread?$CI?$CJ@
CONST	SEGMENT
??_C@_07MNJJGAFL@fread?$CI?$CJ@ DB 'fread()', 00H	; `string'
CONST	ENDS
;	COMDAT ??_C@_06MONEMCJK@file?3?1@
CONST	SEGMENT
??_C@_06MONEMCJK@file?3?1@ DB 'file:/', 00H		; `string'
CONST	ENDS
;	COMDAT ??_C@_08NPMJDGGI@file?3?1?1?1@
CONST	SEGMENT
??_C@_08NPMJDGGI@file?3?1?1?1@ DB 'file:///', 00H	; `string'
CONST	ENDS
;	COMDAT ??_C@_0BC@IDKAIMBK@file?3?1?1localhost?1@
CONST	SEGMENT
??_C@_0BC@IDKAIMBK@file?3?1?1localhost?1@ DB 'file://localhost/', 00H ; `string'
CONST	ENDS
;	COMDAT ??_C@_01JOAMLHOP@?9@
CONST	SEGMENT
??_C@_01JOAMLHOP@?9@ DB '-', 00H			; `string'
CONST	ENDS
;	COMDAT ??_C@_07LBJPAJEN@close?$CI?$CJ@
CONST	SEGMENT
??_C@_07LBJPAJEN@close?$CI?$CJ@ DB 'close()', 00H	; `string'
CONST	ENDS
;	COMDAT ??_C@_07BKPGOOAC@write?$CI?$CJ@
CONST	SEGMENT
??_C@_07BKPGOOAC@write?$CI?$CJ@ DB 'write()', 00H	; `string'
CONST	ENDS
;	COMDAT ??_C@_06CDFDMJHA@read?$CI?$CJ@
CONST	SEGMENT
??_C@_06CDFDMJHA@read?$CI?$CJ@ DB 'read()', 00H		; `string'
CONST	ENDS
;	COMDAT ??_C@_01OJONOECF@b@
CONST	SEGMENT
??_C@_01OJONOECF@b@ DB 'b', 00H				; `string'
CONST	ENDS
;	COMDAT ??_C@_01KDCPPGHE@r@
CONST	SEGMENT
??_C@_01KDCPPGHE@r@ DB 'r', 00H				; `string'
CONST	ENDS
;	COMDAT ??_C@_02JDPG@rb@
CONST	SEGMENT
??_C@_02JDPG@rb@ DB 'rb', 00H				; `string'
CONST	ENDS
;	COMDAT ??_C@_02GMLFBBN@wb@
CONST	SEGMENT
??_C@_02GMLFBBN@wb@ DB 'wb', 00H			; `string'
CONST	ENDS
;	COMDAT ??_C@_15JJPIMNBO@?$AAr?$AAb@
CONST	SEGMENT
??_C@_15JJPIMNBO@?$AAr?$AAb@ DB 'r', 00H, 'b', 00H, 00H, 00H ; `string'
CONST	ENDS
;	COMDAT ??_C@_15MJDFFMKN@?$AAw?$AAb@
CONST	SEGMENT
??_C@_15MJDFFMKN@?$AAw?$AAb@ DB 'w', 00H, 'b', 00H, 00H, 00H ; `string'
CONST	ENDS
_DATA	SEGMENT
_IOerr	DD	FLAT:??_C@_0BB@HHOGALJI@Unknown?5IO?5error@
	DD	FLAT:??_C@_0BC@HFNFNKAI@Permission?5denied@
	DD	FLAT:??_C@_0CB@EPFKGNAK@Resource?5temporarily?5unavailabl@
	DD	FLAT:??_C@_0BE@NFGDDCEF@Bad?5file?5descriptor@
	DD	FLAT:??_C@_0M@OEPJJONH@Bad?5message@
	DD	FLAT:??_C@_0O@DCCPNFCJ@Resource?5busy@
	DD	FLAT:??_C@_0BD@OIDFIKFE@Operation?5canceled@
	DD	FLAT:??_C@_0BD@LOHELEP@No?5child?5processes@
	DD	FLAT:??_C@_0BK@JAEBMJJM@Resource?5deadlock?5avoided@
	DD	FLAT:??_C@_0N@MMJPGLJK@Domain?5error@
	DD	FLAT:??_C@_0M@NAAJNNGH@File?5exists@
	DD	FLAT:??_C@_0M@LOEHLCJD@Bad?5address@
	DD	FLAT:??_C@_0P@LFMMIPAE@File?5too?5large@
	DD	FLAT:??_C@_0BG@CLDIHNON@Operation?5in?5progress@
	DD	FLAT:??_C@_0BK@FJBOAFDK@Interrupted?5function?5call@
	DD	FLAT:??_C@_0BB@HMGGCEBG@Invalid?5argument@
	DD	FLAT:??_C@_0BD@KKNFOBBD@Input?1output?5error@
	DD	FLAT:??_C@_0P@NDHGCGKE@Is?5a?5directory@
	DD	FLAT:??_C@_0BE@INBJMKGG@Too?5many?5open?5files@
	DD	FLAT:??_C@_0P@PKCJJLLM@Too?5many?5links@
	DD	FLAT:??_C@_0CE@CBLGIDGK@Inappropriate?5message?5buffer?5le@
	DD	FLAT:??_C@_0BC@BEDIHIDK@Filename?5too?5long@
	DD	FLAT:??_C@_0BO@IIFBODJE@Too?5many?5open?5files?5in?5system@
	DD	FLAT:??_C@_0P@NLEIANHE@No?5such?5device@
	DD	FLAT:??_C@_0BK@FMDHKPNF@No?5such?5file?5or?5directory@
	DD	FLAT:??_C@_0BC@HKPNECK@Exec?5format?5error@
	DD	FLAT:??_C@_0BD@CLHBCGPB@No?5locks?5available@
	DD	FLAT:??_C@_0BB@IMDKMPFB@Not?5enough?5space@
	DD	FLAT:??_C@_0BI@FEALHKLD@No?5space?5left?5on?5device@
	DD	FLAT:??_C@_0BJ@IHEHINLI@Function?5not?5implemented@
	DD	FLAT:??_C@_0BA@CJBACOOL@Not?5a?5directory@
	DD	FLAT:??_C@_0BE@ICMCHPHH@Directory?5not?5empty@
	DD	FLAT:??_C@_0O@BKCHHJEH@Not?5supported@
	DD	FLAT:??_C@_0CE@ONOKNLPF@Inappropriate?5I?1O?5control?5opera@
	DD	FLAT:??_C@_0BK@DPKMCKJ@No?5such?5device?5or?5address@
	DD	FLAT:??_C@_0BI@BJFCGOHL@Operation?5not?5permitted@
	DD	FLAT:??_C@_0M@LHEPIIOM@Broken?5pipe@
	DD	FLAT:??_C@_0BB@FCBJFCAJ@Result?5too?5large@
	DD	FLAT:??_C@_0BG@DDBFNKBH@Read?9only?5file?5system@
	DD	FLAT:??_C@_0N@FEHLOILP@Invalid?5seek@
	DD	FLAT:??_C@_0BA@FKIAIBGA@No?5such?5process@
	DD	FLAT:??_C@_0BE@JAEOFJAL@Operation?5timed?5out@
	DD	FLAT:??_C@_0O@OAMDNOCP@Improper?5link@
	DD	FLAT:??_C@_0CC@NMGOOKKB@Attempt?5to?5load?5network?5entity?5@
	DD	FLAT:??_C@_0O@OFGAHADM@encoder?5error@
	DD	FLAT:??_C@_0M@EIOJBFOB@flush?5error@
	DD	FLAT:??_C@_0M@OBCCECMB@write?5error@
	DD	FLAT:??_C@_08DAIOBLIH@no?5input@
	DD	FLAT:??_C@_0M@BKPABHOI@buffer?5full@
	DD	FLAT:??_C@_0O@BKEKGFAA@loading?5error@
	DD	FLAT:??_C@_0N@POEIPGGF@not?5a?5socket@
	DD	FLAT:??_C@_0BC@DFIBIBIL@already?5connected@
	DD	FLAT:??_C@_0BD@PJLIIJEL@connection?5refused@
	DD	FLAT:??_C@_0BE@FGOAHGMF@unreachable?5network@
	DD	FLAT:??_C@_0BA@CMANOPFH@adddress?5in?5use@
	DD	FLAT:??_C@_0P@MHFAFLH@already?5in?5use@
	DD	FLAT:??_C@_0BI@LHMDLEDC@unknown?5address?5familly@
_xmlCurrentExternalEntityLoader DD FLAT:_xmlDefaultExternalEntityLoader
_DATA	ENDS
; Function compile flags: /Odt
;	COMDAT __JustMyCode_Default
_TEXT	SEGMENT
__JustMyCode_Default PROC				; COMDAT
	push	ebp
	mov	ebp, esp
	pop	ebp
	ret	0
__JustMyCode_Default ENDP
_TEXT	ENDS
; Function compile flags: /Odtp /RTCsu
; File c:\users\dag\documents\_clients\codeproject authors group\windows on arm\libxml2\libxml2-2.9.9\xmlio.c
;	COMDAT _xmlDefaultExternalEntityLoader
_TEXT	SEGMENT
_options$1 = -12					; size = 4
_resource$ = -8						; size = 4
_ret$ = -4						; size = 4
_URL$ = 8						; size = 4
_ID$ = 12						; size = 4
_ctxt$ = 16						; size = 4
_xmlDefaultExternalEntityLoader PROC			; COMDAT

; 3947 : {

	push	ebp
	mov	ebp, esp
	sub	esp, 12					; 0000000cH
	push	esi
	mov	DWORD PTR [ebp-12], -858993460		; ccccccccH
	mov	DWORD PTR [ebp-8], -858993460		; ccccccccH
	mov	DWORD PTR [ebp-4], -858993460		; ccccccccH
	mov	ecx, OFFSET __7D5E66B2_xmlio@c
	call	@__CheckForDebuggerJustMyCode@4

; 3948 :     xmlParserInputPtr ret = NULL;

	mov	DWORD PTR _ret$[ebp], 0

; 3949 :     xmlChar *resource = NULL;

	mov	DWORD PTR _resource$[ebp], 0

; 3950 : 
; 3951 : #ifdef DEBUG_EXTERNAL_ENTITIES
; 3952 :     xmlGenericError(xmlGenericErrorContext,
; 3953 :                     "xmlDefaultExternalEntityLoader(%s, xxx)\n", URL);
; 3954 : #endif
; 3955 :     if ((ctxt != NULL) && (ctxt->options & XML_PARSE_NONET)) {

	cmp	DWORD PTR _ctxt$[ebp], 0
	je	SHORT $LN2@xmlDefault
	mov	eax, DWORD PTR _ctxt$[ebp]
	mov	ecx, DWORD PTR [eax+360]
	and	ecx, 2048				; 00000800H
	je	SHORT $LN2@xmlDefault

; 3956 :         int options = ctxt->options;

	mov	edx, DWORD PTR _ctxt$[ebp]
	mov	eax, DWORD PTR [edx+360]
	mov	DWORD PTR _options$1[ebp], eax

; 3957 : 
; 3958 : 	ctxt->options -= XML_PARSE_NONET;

	mov	ecx, DWORD PTR _ctxt$[ebp]
	mov	edx, DWORD PTR [ecx+360]
	sub	edx, 2048				; 00000800H
	mov	eax, DWORD PTR _ctxt$[ebp]
	mov	DWORD PTR [eax+360], edx

; 3959 :         ret = xmlNoNetExternalEntityLoader(URL, ID, ctxt);

	mov	ecx, DWORD PTR _ctxt$[ebp]
	push	ecx
	mov	edx, DWORD PTR _ID$[ebp]
	push	edx
	mov	eax, DWORD PTR _URL$[ebp]
	push	eax
	call	_xmlNoNetExternalEntityLoader
	add	esp, 12					; 0000000cH
	mov	DWORD PTR _ret$[ebp], eax

; 3960 : 	ctxt->options = options;

	mov	ecx, DWORD PTR _ctxt$[ebp]
	mov	edx, DWORD PTR _options$1[ebp]
	mov	DWORD PTR [ecx+360], edx

; 3961 : 	return(ret);

	mov	eax, DWORD PTR _ret$[ebp]
	jmp	$LN1@xmlDefault
$LN2@xmlDefault:

; 3962 :     }
; 3963 : #ifdef LIBXML_CATALOG_ENABLED
; 3964 :     resource = xmlResolveResourceFromCatalog(URL, ID, ctxt);

	mov	eax, DWORD PTR _ctxt$[ebp]
	push	eax
	mov	ecx, DWORD PTR _ID$[ebp]
	push	ecx
	mov	edx, DWORD PTR _URL$[ebp]
	push	edx
	call	_xmlResolveResourceFromCatalog
	add	esp, 12					; 0000000cH
	mov	DWORD PTR _resource$[ebp], eax

; 3965 : #endif
; 3966 : 
; 3967 :     if (resource == NULL)

	cmp	DWORD PTR _resource$[ebp], 0
	jne	SHORT $LN3@xmlDefault

; 3968 :         resource = (xmlChar *) URL;

	mov	eax, DWORD PTR _URL$[ebp]
	mov	DWORD PTR _resource$[ebp], eax
$LN3@xmlDefault:

; 3969 : 
; 3970 :     if (resource == NULL) {

	cmp	DWORD PTR _resource$[ebp], 0
	jne	SHORT $LN4@xmlDefault

; 3971 :         if (ID == NULL)

	cmp	DWORD PTR _ID$[ebp], 0
	jne	SHORT $LN5@xmlDefault

; 3972 :             ID = "NULL";

	mov	DWORD PTR _ID$[ebp], OFFSET ??_C@_04HIBGFPH@NULL@
$LN5@xmlDefault:

; 3973 :         __xmlLoaderErr(ctxt, "failed to load external entity \"%s\"\n", ID);

	mov	ecx, DWORD PTR _ID$[ebp]
	push	ecx
	push	OFFSET ??_C@_0CF@NIPBAEPO@failed?5to?5load?5external?5entity?5@
	mov	edx, DWORD PTR _ctxt$[ebp]
	push	edx
	call	___xmlLoaderErr
	add	esp, 12					; 0000000cH

; 3974 :         return (NULL);

	xor	eax, eax
	jmp	SHORT $LN1@xmlDefault
$LN4@xmlDefault:

; 3975 :     }
; 3976 :     ret = xmlNewInputFromFile(ctxt, (const char *) resource);

	mov	eax, DWORD PTR _resource$[ebp]
	push	eax
	mov	ecx, DWORD PTR _ctxt$[ebp]
	push	ecx
	call	_xmlNewInputFromFile
	add	esp, 8
	mov	DWORD PTR _ret$[ebp], eax

; 3977 :     if ((resource != NULL) && (resource != (xmlChar *) URL))

	cmp	DWORD PTR _resource$[ebp], 0
	je	SHORT $LN6@xmlDefault
	mov	edx, DWORD PTR _resource$[ebp]
	cmp	edx, DWORD PTR _URL$[ebp]
	je	SHORT $LN6@xmlDefault

; 3978 :         xmlFree(resource);

	mov	esi, esp
	mov	eax, DWORD PTR _resource$[ebp]
	push	eax
	call	DWORD PTR _xmlFree
	add	esp, 4
	cmp	esi, esp
	call	__RTC_CheckEsp
$LN6@xmlDefault:

; 3979 :     return (ret);

	mov	eax, DWORD PTR _ret$[ebp]
$LN1@xmlDefault:

; 3980 : }

	pop	esi
	add	esp, 12					; 0000000cH
	cmp	ebp, esp
	call	__RTC_CheckEsp
	mov	esp, ebp
	pop	ebp
	ret	0
_xmlDefaultExternalEntityLoader ENDP
_TEXT	ENDS
; Function compile flags: /Odtp /RTCsu
; File c:\users\dag\documents\_clients\codeproject authors group\windows on arm\libxml2\libxml2-2.9.9\xmlio.c
;	COMDAT _xmlResolveResourceFromCatalog
_TEXT	SEGMENT
_tmp$1 = -12						; size = 4
_pref$ = -8						; size = 4
_resource$ = -4						; size = 4
_URL$ = 8						; size = 4
_ID$ = 12						; size = 4
_ctxt$ = 16						; size = 4
_xmlResolveResourceFromCatalog PROC			; COMDAT

; 3872 :                               xmlParserCtxtPtr ctxt) {

	push	ebp
	mov	ebp, esp
	sub	esp, 12					; 0000000cH
	push	esi
	mov	DWORD PTR [ebp-12], -858993460		; ccccccccH
	mov	DWORD PTR [ebp-8], -858993460		; ccccccccH
	mov	DWORD PTR [ebp-4], -858993460		; ccccccccH
	mov	ecx, OFFSET __7D5E66B2_xmlio@c
	call	@__CheckForDebuggerJustMyCode@4

; 3873 :     xmlChar *resource = NULL;

	mov	DWORD PTR _resource$[ebp], 0

; 3874 :     xmlCatalogAllow pref;
; 3875 : 
; 3876 :     /*
; 3877 :      * If the resource doesn't exists as a file,
; 3878 :      * try to load it from the resource pointed in the catalogs
; 3879 :      */
; 3880 :     pref = xmlCatalogGetDefaults();

	call	_xmlCatalogGetDefaults
	mov	DWORD PTR _pref$[ebp], eax

; 3881 : 
; 3882 :     if ((pref != XML_CATA_ALLOW_NONE) && (!xmlNoNetExists(URL))) {

	cmp	DWORD PTR _pref$[ebp], 0
	je	$LN2@xmlResolve
	mov	eax, DWORD PTR _URL$[ebp]
	push	eax
	call	_xmlNoNetExists
	add	esp, 4
	test	eax, eax
	jne	$LN2@xmlResolve

; 3883 : 	/*
; 3884 : 	 * Do a local lookup
; 3885 : 	 */
; 3886 : 	if ((ctxt != NULL) && (ctxt->catalogs != NULL) &&

	cmp	DWORD PTR _ctxt$[ebp], 0
	je	SHORT $LN3@xmlResolve
	mov	ecx, DWORD PTR _ctxt$[ebp]
	cmp	DWORD PTR [ecx+284], 0
	je	SHORT $LN3@xmlResolve
	cmp	DWORD PTR _pref$[ebp], 3
	je	SHORT $LN4@xmlResolve
	cmp	DWORD PTR _pref$[ebp], 2
	jne	SHORT $LN3@xmlResolve
$LN4@xmlResolve:

; 3887 : 	    ((pref == XML_CATA_ALLOW_ALL) ||
; 3888 : 	     (pref == XML_CATA_ALLOW_DOCUMENT))) {
; 3889 : 	    resource = xmlCatalogLocalResolve(ctxt->catalogs,

	mov	edx, DWORD PTR _URL$[ebp]
	push	edx
	mov	eax, DWORD PTR _ID$[ebp]
	push	eax
	mov	ecx, DWORD PTR _ctxt$[ebp]
	mov	edx, DWORD PTR [ecx+284]
	push	edx
	call	_xmlCatalogLocalResolve
	add	esp, 12					; 0000000cH
	mov	DWORD PTR _resource$[ebp], eax
$LN3@xmlResolve:

; 3890 : 					      (const xmlChar *)ID,
; 3891 : 					      (const xmlChar *)URL);
; 3892 :         }
; 3893 : 	/*
; 3894 : 	 * Try a global lookup
; 3895 : 	 */
; 3896 : 	if ((resource == NULL) &&

	cmp	DWORD PTR _resource$[ebp], 0
	jne	SHORT $LN5@xmlResolve
	cmp	DWORD PTR _pref$[ebp], 3
	je	SHORT $LN6@xmlResolve
	cmp	DWORD PTR _pref$[ebp], 1
	jne	SHORT $LN5@xmlResolve
$LN6@xmlResolve:

; 3897 : 	    ((pref == XML_CATA_ALLOW_ALL) ||
; 3898 : 	     (pref == XML_CATA_ALLOW_GLOBAL))) {
; 3899 : 	    resource = xmlCatalogResolve((const xmlChar *)ID,

	mov	eax, DWORD PTR _URL$[ebp]
	push	eax
	mov	ecx, DWORD PTR _ID$[ebp]
	push	ecx
	call	_xmlCatalogResolve
	add	esp, 8
	mov	DWORD PTR _resource$[ebp], eax
$LN5@xmlResolve:

; 3900 : 					 (const xmlChar *)URL);
; 3901 : 	}
; 3902 : 	if ((resource == NULL) && (URL != NULL))

	cmp	DWORD PTR _resource$[ebp], 0
	jne	SHORT $LN7@xmlResolve
	cmp	DWORD PTR _URL$[ebp], 0
	je	SHORT $LN7@xmlResolve

; 3903 : 	    resource = xmlStrdup((const xmlChar *) URL);

	mov	edx, DWORD PTR _URL$[ebp]
	push	edx
	call	_xmlStrdup
	add	esp, 4
	mov	DWORD PTR _resource$[ebp], eax
$LN7@xmlResolve:

; 3904 : 
; 3905 : 	/*
; 3906 : 	 * TODO: do an URI lookup on the reference
; 3907 : 	 */
; 3908 : 	if ((resource != NULL) && (!xmlNoNetExists((const char *)resource))) {

	cmp	DWORD PTR _resource$[ebp], 0
	je	$LN2@xmlResolve
	mov	eax, DWORD PTR _resource$[ebp]
	push	eax
	call	_xmlNoNetExists
	add	esp, 4
	test	eax, eax
	jne	$LN2@xmlResolve

; 3909 : 	    xmlChar *tmp = NULL;

	mov	DWORD PTR _tmp$1[ebp], 0

; 3910 : 
; 3911 : 	    if ((ctxt != NULL) && (ctxt->catalogs != NULL) &&

	cmp	DWORD PTR _ctxt$[ebp], 0
	je	SHORT $LN9@xmlResolve
	mov	ecx, DWORD PTR _ctxt$[ebp]
	cmp	DWORD PTR [ecx+284], 0
	je	SHORT $LN9@xmlResolve
	cmp	DWORD PTR _pref$[ebp], 3
	je	SHORT $LN10@xmlResolve
	cmp	DWORD PTR _pref$[ebp], 2
	jne	SHORT $LN9@xmlResolve
$LN10@xmlResolve:

; 3912 : 		((pref == XML_CATA_ALLOW_ALL) ||
; 3913 : 		 (pref == XML_CATA_ALLOW_DOCUMENT))) {
; 3914 : 		tmp = xmlCatalogLocalResolveURI(ctxt->catalogs, resource);

	mov	edx, DWORD PTR _resource$[ebp]
	push	edx
	mov	eax, DWORD PTR _ctxt$[ebp]
	mov	ecx, DWORD PTR [eax+284]
	push	ecx
	call	_xmlCatalogLocalResolveURI
	add	esp, 8
	mov	DWORD PTR _tmp$1[ebp], eax
$LN9@xmlResolve:

; 3915 : 	    }
; 3916 : 	    if ((tmp == NULL) &&

	cmp	DWORD PTR _tmp$1[ebp], 0
	jne	SHORT $LN11@xmlResolve
	cmp	DWORD PTR _pref$[ebp], 3
	je	SHORT $LN12@xmlResolve
	cmp	DWORD PTR _pref$[ebp], 1
	jne	SHORT $LN11@xmlResolve
$LN12@xmlResolve:

; 3917 : 		((pref == XML_CATA_ALLOW_ALL) ||
; 3918 : 	         (pref == XML_CATA_ALLOW_GLOBAL))) {
; 3919 : 		tmp = xmlCatalogResolveURI(resource);

	mov	edx, DWORD PTR _resource$[ebp]
	push	edx
	call	_xmlCatalogResolveURI
	add	esp, 4
	mov	DWORD PTR _tmp$1[ebp], eax
$LN11@xmlResolve:

; 3920 : 	    }
; 3921 : 
; 3922 : 	    if (tmp != NULL) {

	cmp	DWORD PTR _tmp$1[ebp], 0
	je	SHORT $LN2@xmlResolve

; 3923 : 		xmlFree(resource);

	mov	esi, esp
	mov	eax, DWORD PTR _resource$[ebp]
	push	eax
	call	DWORD PTR _xmlFree
	add	esp, 4
	cmp	esi, esp
	call	__RTC_CheckEsp

; 3924 : 		resource = tmp;

	mov	ecx, DWORD PTR _tmp$1[ebp]
	mov	DWORD PTR _resource$[ebp], ecx
$LN2@xmlResolve:

; 3925 : 	    }
; 3926 : 	}
; 3927 :     }
; 3928 : 
; 3929 :     return resource;

	mov	eax, DWORD PTR _resource$[ebp]

; 3930 : }

	pop	esi
	add	esp, 12					; 0000000cH
	cmp	ebp, esp
	call	__RTC_CheckEsp
	mov	esp, ebp
	pop	ebp
	ret	0
_xmlResolveResourceFromCatalog ENDP
_TEXT	ENDS
; Function compile flags: /Odtp /RTCsu
; File c:\users\dag\documents\_clients\codeproject authors group\windows on arm\libxml2\libxml2-2.9.9\xmlio.c
;	COMDAT _xmlNoNetExists
_TEXT	SEGMENT
_path$ = -4						; size = 4
_URL$ = 8						; size = 4
_xmlNoNetExists PROC					; COMDAT

; 3832 : static int xmlNoNetExists(const char *URL) {

	push	ebp
	mov	ebp, esp
	push	ecx
	mov	DWORD PTR [ebp-4], -858993460		; ccccccccH
	mov	ecx, OFFSET __7D5E66B2_xmlio@c
	call	@__CheckForDebuggerJustMyCode@4

; 3833 :     const char *path;
; 3834 : 
; 3835 :     if (URL == NULL)

	cmp	DWORD PTR _URL$[ebp], 0
	jne	SHORT $LN2@xmlNoNetEx

; 3836 : 	return(0);

	xor	eax, eax
	jmp	SHORT $LN1@xmlNoNetEx
$LN2@xmlNoNetEx:

; 3837 : 
; 3838 :     if (!xmlStrncasecmp(BAD_CAST URL, BAD_CAST "file://localhost/", 17))

	push	17					; 00000011H
	push	OFFSET ??_C@_0BC@IDKAIMBK@file?3?1?1localhost?1@
	mov	eax, DWORD PTR _URL$[ebp]
	push	eax
	call	_xmlStrncasecmp
	add	esp, 12					; 0000000cH
	test	eax, eax
	jne	SHORT $LN3@xmlNoNetEx

; 3839 : #if defined (_WIN32) || defined (__DJGPP__) && !defined(__CYGWIN__)
; 3840 : 	path = &URL[17];

	mov	ecx, 1
	imul	edx, ecx, 17
	add	edx, DWORD PTR _URL$[ebp]
	mov	DWORD PTR _path$[ebp], edx
	jmp	SHORT $LN4@xmlNoNetEx
$LN3@xmlNoNetEx:

; 3841 : #else
; 3842 : 	path = &URL[16];
; 3843 : #endif
; 3844 :     else if (!xmlStrncasecmp(BAD_CAST URL, BAD_CAST "file:///", 8)) {

	push	8
	push	OFFSET ??_C@_08NPMJDGGI@file?3?1?1?1@
	mov	eax, DWORD PTR _URL$[ebp]
	push	eax
	call	_xmlStrncasecmp
	add	esp, 12					; 0000000cH
	test	eax, eax
	jne	SHORT $LN5@xmlNoNetEx

; 3845 : #if defined (_WIN32) || defined (__DJGPP__) && !defined(__CYGWIN__)
; 3846 : 	path = &URL[8];

	mov	ecx, 1
	shl	ecx, 3
	add	ecx, DWORD PTR _URL$[ebp]
	mov	DWORD PTR _path$[ebp], ecx

; 3847 : #else
; 3848 : 	path = &URL[7];
; 3849 : #endif
; 3850 :     } else

	jmp	SHORT $LN4@xmlNoNetEx
$LN5@xmlNoNetEx:

; 3851 : 	path = URL;

	mov	edx, DWORD PTR _URL$[ebp]
	mov	DWORD PTR _path$[ebp], edx
$LN4@xmlNoNetEx:

; 3852 : 
; 3853 :     return xmlCheckFilename(path);

	mov	eax, DWORD PTR _path$[ebp]
	push	eax
	call	_xmlCheckFilename
	add	esp, 4
$LN1@xmlNoNetEx:

; 3854 : }

	add	esp, 4
	cmp	ebp, esp
	call	__RTC_CheckEsp
	mov	esp, ebp
	pop	ebp
	ret	0
_xmlNoNetExists ENDP
_TEXT	ENDS
; Function compile flags: /Odtp /RTCsu
; File c:\users\dag\documents\_clients\codeproject authors group\windows on arm\libxml2\libxml2-2.9.9\xmlio.c
;	COMDAT _xmlEscapeContent
_TEXT	SEGMENT
_inend$ = -16						; size = 4
_outend$ = -12						; size = 4
_base$ = -8						; size = 4
_outstart$ = -4						; size = 4
_out$ = 8						; size = 4
_outlen$ = 12						; size = 4
_in$ = 16						; size = 4
_inlen$ = 20						; size = 4
_xmlEscapeContent PROC					; COMDAT

; 3436 :                  const xmlChar* in, int *inlen) {

	push	ebp
	mov	ebp, esp
	sub	esp, 16					; 00000010H
	mov	eax, -858993460				; ccccccccH
	mov	DWORD PTR [ebp-16], eax
	mov	DWORD PTR [ebp-12], eax
	mov	DWORD PTR [ebp-8], eax
	mov	DWORD PTR [ebp-4], eax
	mov	ecx, OFFSET __7D5E66B2_xmlio@c
	call	@__CheckForDebuggerJustMyCode@4

; 3437 :     unsigned char* outstart = out;

	mov	eax, DWORD PTR _out$[ebp]
	mov	DWORD PTR _outstart$[ebp], eax

; 3438 :     const unsigned char* base = in;

	mov	ecx, DWORD PTR _in$[ebp]
	mov	DWORD PTR _base$[ebp], ecx

; 3439 :     unsigned char* outend = out + *outlen;

	mov	edx, DWORD PTR _outlen$[ebp]
	mov	eax, DWORD PTR _out$[ebp]
	add	eax, DWORD PTR [edx]
	mov	DWORD PTR _outend$[ebp], eax

; 3440 :     const unsigned char* inend;
; 3441 : 
; 3442 :     inend = in + (*inlen);

	mov	ecx, DWORD PTR _inlen$[ebp]
	mov	edx, DWORD PTR _in$[ebp]
	add	edx, DWORD PTR [ecx]
	mov	DWORD PTR _inend$[ebp], edx
$LN2@xmlEscapeC:

; 3443 : 
; 3444 :     while ((in < inend) && (out < outend)) {

	mov	eax, DWORD PTR _in$[ebp]
	cmp	eax, DWORD PTR _inend$[ebp]
	jae	$LN3@xmlEscapeC
	mov	ecx, DWORD PTR _out$[ebp]
	cmp	ecx, DWORD PTR _outend$[ebp]
	jae	$LN3@xmlEscapeC

; 3445 : 	if (*in == '<') {

	mov	edx, DWORD PTR _in$[ebp]
	movzx	eax, BYTE PTR [edx]
	cmp	eax, 60					; 0000003cH
	jne	SHORT $LN4@xmlEscapeC

; 3446 : 	    if (outend - out < 4) break;

	mov	ecx, DWORD PTR _outend$[ebp]
	sub	ecx, DWORD PTR _out$[ebp]
	cmp	ecx, 4
	jge	SHORT $LN6@xmlEscapeC
	jmp	$LN3@xmlEscapeC
$LN6@xmlEscapeC:

; 3447 : 	    *out++ = '&';

	mov	edx, DWORD PTR _out$[ebp]
	mov	BYTE PTR [edx], 38			; 00000026H
	mov	eax, DWORD PTR _out$[ebp]
	add	eax, 1
	mov	DWORD PTR _out$[ebp], eax

; 3448 : 	    *out++ = 'l';

	mov	ecx, DWORD PTR _out$[ebp]
	mov	BYTE PTR [ecx], 108			; 0000006cH
	mov	edx, DWORD PTR _out$[ebp]
	add	edx, 1
	mov	DWORD PTR _out$[ebp], edx

; 3449 : 	    *out++ = 't';

	mov	eax, DWORD PTR _out$[ebp]
	mov	BYTE PTR [eax], 116			; 00000074H
	mov	ecx, DWORD PTR _out$[ebp]
	add	ecx, 1
	mov	DWORD PTR _out$[ebp], ecx

; 3450 : 	    *out++ = ';';

	mov	edx, DWORD PTR _out$[ebp]
	mov	BYTE PTR [edx], 59			; 0000003bH
	mov	eax, DWORD PTR _out$[ebp]
	add	eax, 1
	mov	DWORD PTR _out$[ebp], eax
	jmp	$LN5@xmlEscapeC
$LN4@xmlEscapeC:

; 3451 : 	} else if (*in == '>') {

	mov	ecx, DWORD PTR _in$[ebp]
	movzx	edx, BYTE PTR [ecx]
	cmp	edx, 62					; 0000003eH
	jne	SHORT $LN7@xmlEscapeC

; 3452 : 	    if (outend - out < 4) break;

	mov	eax, DWORD PTR _outend$[ebp]
	sub	eax, DWORD PTR _out$[ebp]
	cmp	eax, 4
	jge	SHORT $LN9@xmlEscapeC
	jmp	$LN3@xmlEscapeC
$LN9@xmlEscapeC:

; 3453 : 	    *out++ = '&';

	mov	ecx, DWORD PTR _out$[ebp]
	mov	BYTE PTR [ecx], 38			; 00000026H
	mov	edx, DWORD PTR _out$[ebp]
	add	edx, 1
	mov	DWORD PTR _out$[ebp], edx

; 3454 : 	    *out++ = 'g';

	mov	eax, DWORD PTR _out$[ebp]
	mov	BYTE PTR [eax], 103			; 00000067H
	mov	ecx, DWORD PTR _out$[ebp]
	add	ecx, 1
	mov	DWORD PTR _out$[ebp], ecx

; 3455 : 	    *out++ = 't';

	mov	edx, DWORD PTR _out$[ebp]
	mov	BYTE PTR [edx], 116			; 00000074H
	mov	eax, DWORD PTR _out$[ebp]
	add	eax, 1
	mov	DWORD PTR _out$[ebp], eax

; 3456 : 	    *out++ = ';';

	mov	ecx, DWORD PTR _out$[ebp]
	mov	BYTE PTR [ecx], 59			; 0000003bH
	mov	edx, DWORD PTR _out$[ebp]
	add	edx, 1
	mov	DWORD PTR _out$[ebp], edx
	jmp	$LN5@xmlEscapeC
$LN7@xmlEscapeC:

; 3457 : 	} else if (*in == '&') {

	mov	eax, DWORD PTR _in$[ebp]
	movzx	ecx, BYTE PTR [eax]
	cmp	ecx, 38					; 00000026H
	jne	SHORT $LN10@xmlEscapeC

; 3458 : 	    if (outend - out < 5) break;

	mov	edx, DWORD PTR _outend$[ebp]
	sub	edx, DWORD PTR _out$[ebp]
	cmp	edx, 5
	jge	SHORT $LN12@xmlEscapeC
	jmp	$LN3@xmlEscapeC
$LN12@xmlEscapeC:

; 3459 : 	    *out++ = '&';

	mov	eax, DWORD PTR _out$[ebp]
	mov	BYTE PTR [eax], 38			; 00000026H
	mov	ecx, DWORD PTR _out$[ebp]
	add	ecx, 1
	mov	DWORD PTR _out$[ebp], ecx

; 3460 : 	    *out++ = 'a';

	mov	edx, DWORD PTR _out$[ebp]
	mov	BYTE PTR [edx], 97			; 00000061H
	mov	eax, DWORD PTR _out$[ebp]
	add	eax, 1
	mov	DWORD PTR _out$[ebp], eax

; 3461 : 	    *out++ = 'm';

	mov	ecx, DWORD PTR _out$[ebp]
	mov	BYTE PTR [ecx], 109			; 0000006dH
	mov	edx, DWORD PTR _out$[ebp]
	add	edx, 1
	mov	DWORD PTR _out$[ebp], edx

; 3462 : 	    *out++ = 'p';

	mov	eax, DWORD PTR _out$[ebp]
	mov	BYTE PTR [eax], 112			; 00000070H
	mov	ecx, DWORD PTR _out$[ebp]
	add	ecx, 1
	mov	DWORD PTR _out$[ebp], ecx

; 3463 : 	    *out++ = ';';

	mov	edx, DWORD PTR _out$[ebp]
	mov	BYTE PTR [edx], 59			; 0000003bH
	mov	eax, DWORD PTR _out$[ebp]
	add	eax, 1
	mov	DWORD PTR _out$[ebp], eax
	jmp	SHORT $LN5@xmlEscapeC
$LN10@xmlEscapeC:

; 3464 : 	} else if (*in == '\r') {

	mov	ecx, DWORD PTR _in$[ebp]
	movzx	edx, BYTE PTR [ecx]
	cmp	edx, 13					; 0000000dH
	jne	SHORT $LN13@xmlEscapeC

; 3465 : 	    if (outend - out < 5) break;

	mov	eax, DWORD PTR _outend$[ebp]
	sub	eax, DWORD PTR _out$[ebp]
	cmp	eax, 5
	jge	SHORT $LN15@xmlEscapeC
	jmp	SHORT $LN3@xmlEscapeC
$LN15@xmlEscapeC:

; 3466 : 	    *out++ = '&';

	mov	ecx, DWORD PTR _out$[ebp]
	mov	BYTE PTR [ecx], 38			; 00000026H
	mov	edx, DWORD PTR _out$[ebp]
	add	edx, 1
	mov	DWORD PTR _out$[ebp], edx

; 3467 : 	    *out++ = '#';

	mov	eax, DWORD PTR _out$[ebp]
	mov	BYTE PTR [eax], 35			; 00000023H
	mov	ecx, DWORD PTR _out$[ebp]
	add	ecx, 1
	mov	DWORD PTR _out$[ebp], ecx

; 3468 : 	    *out++ = '1';

	mov	edx, DWORD PTR _out$[ebp]
	mov	BYTE PTR [edx], 49			; 00000031H
	mov	eax, DWORD PTR _out$[ebp]
	add	eax, 1
	mov	DWORD PTR _out$[ebp], eax

; 3469 : 	    *out++ = '3';

	mov	ecx, DWORD PTR _out$[ebp]
	mov	BYTE PTR [ecx], 51			; 00000033H
	mov	edx, DWORD PTR _out$[ebp]
	add	edx, 1
	mov	DWORD PTR _out$[ebp], edx

; 3470 : 	    *out++ = ';';

	mov	eax, DWORD PTR _out$[ebp]
	mov	BYTE PTR [eax], 59			; 0000003bH
	mov	ecx, DWORD PTR _out$[ebp]
	add	ecx, 1
	mov	DWORD PTR _out$[ebp], ecx

; 3471 : 	} else {

	jmp	SHORT $LN5@xmlEscapeC
$LN13@xmlEscapeC:

; 3472 : 	    *out++ = (unsigned char) *in;

	mov	edx, DWORD PTR _out$[ebp]
	mov	eax, DWORD PTR _in$[ebp]
	mov	cl, BYTE PTR [eax]
	mov	BYTE PTR [edx], cl
	mov	edx, DWORD PTR _out$[ebp]
	add	edx, 1
	mov	DWORD PTR _out$[ebp], edx
$LN5@xmlEscapeC:

; 3473 : 	}
; 3474 : 	++in;

	mov	eax, DWORD PTR _in$[ebp]
	add	eax, 1
	mov	DWORD PTR _in$[ebp], eax

; 3475 :     }

	jmp	$LN2@xmlEscapeC
$LN3@xmlEscapeC:

; 3476 :     *outlen = out - outstart;

	mov	ecx, DWORD PTR _out$[ebp]
	sub	ecx, DWORD PTR _outstart$[ebp]
	mov	edx, DWORD PTR _outlen$[ebp]
	mov	DWORD PTR [edx], ecx

; 3477 :     *inlen = in - base;

	mov	eax, DWORD PTR _in$[ebp]
	sub	eax, DWORD PTR _base$[ebp]
	mov	ecx, DWORD PTR _inlen$[ebp]
	mov	DWORD PTR [ecx], eax

; 3478 :     return(0);

	xor	eax, eax

; 3479 : }

	add	esp, 16					; 00000010H
	cmp	ebp, esp
	call	__RTC_CheckEsp
	mov	esp, ebp
	pop	ebp
	ret	0
_xmlEscapeContent ENDP
_TEXT	ENDS
; Function compile flags: /Odtp /RTCsu
; File c:\users\dag\documents\_clients\codeproject authors group\windows on arm\libxml2\libxml2-2.9.9\xmlio.c
;	COMDAT _endOfInput
_TEXT	SEGMENT
_context$ = 8						; size = 4
_buffer$ = 12						; size = 4
_len$ = 16						; size = 4
_endOfInput PROC					; COMDAT

; 3190 : 	    int len ATTRIBUTE_UNUSED) {

	push	ebp
	mov	ebp, esp
	mov	ecx, OFFSET __7D5E66B2_xmlio@c
	call	@__CheckForDebuggerJustMyCode@4

; 3191 :     return(0);

	xor	eax, eax

; 3192 : }

	cmp	ebp, esp
	call	__RTC_CheckEsp
	pop	ebp
	ret	0
_endOfInput ENDP
_TEXT	ENDS
; Function compile flags: /Odtp /RTCsu
; File c:\users\dag\documents\_clients\codeproject authors group\windows on arm\libxml2\libxml2-2.9.9\xmlio.c
;	COMDAT _xmlIOHTTPClosePost
_TEXT	SEGMENT
_ctxt$ = 8						; size = 4
_xmlIOHTTPClosePost PROC				; COMDAT

; 2094 : xmlIOHTTPClosePost( void * ctxt ) {

	push	ebp
	mov	ebp, esp
	mov	ecx, OFFSET __7D5E66B2_xmlio@c
	call	@__CheckForDebuggerJustMyCode@4

; 2095 :     return ( xmlIOHTTPCloseWrite( ctxt, "POST" ) );

	push	OFFSET ??_C@_04HCJEIHPL@POST@
	mov	eax, DWORD PTR _ctxt$[ebp]
	push	eax
	call	_xmlIOHTTPCloseWrite
	add	esp, 8

; 2096 : }

	cmp	ebp, esp
	call	__RTC_CheckEsp
	pop	ebp
	ret	0
_xmlIOHTTPClosePost ENDP
_TEXT	ENDS
; Function compile flags: /Odtp /RTCsu
; File c:\users\dag\documents\_clients\codeproject authors group\windows on arm\libxml2\libxml2-2.9.9\xmlio.c
;	COMDAT _xmlIOHTTPClosePut
_TEXT	SEGMENT
_ctxt$ = 8						; size = 4
_xmlIOHTTPClosePut PROC					; COMDAT

; 2080 : xmlIOHTTPClosePut( void * ctxt ) {

	push	ebp
	mov	ebp, esp
	mov	ecx, OFFSET __7D5E66B2_xmlio@c
	call	@__CheckForDebuggerJustMyCode@4

; 2081 :     return ( xmlIOHTTPCloseWrite( ctxt, "PUT" ) );

	push	OFFSET ??_C@_03KBBGFLEK@PUT@
	mov	eax, DWORD PTR _ctxt$[ebp]
	push	eax
	call	_xmlIOHTTPCloseWrite
	add	esp, 8

; 2082 : }

	cmp	ebp, esp
	call	__RTC_CheckEsp
	pop	ebp
	ret	0
_xmlIOHTTPClosePut ENDP
_TEXT	ENDS
; Function compile flags: /Odtp /RTCsu
; File c:\users\dag\documents\_clients\codeproject authors group\windows on arm\libxml2\libxml2-2.9.9\xmlio.c
;	COMDAT _xmlIOHTTPCloseWrite
_TEXT	SEGMENT
_msg$1 = -1064						; size = 500
_msg$2 = -556						; size = 500
_dctxt$3 = -52						; size = 4
_http_ctxt$ = -48					; size = 4
_content_type$ = -40					; size = 4
_content_encoding$ = -32				; size = 4
_http_content$ = -24					; size = 4
_ctxt$ = -16						; size = 4
_content_lgth$ = -12					; size = 4
_http_rtn$ = -8						; size = 4
_close_rc$ = -4						; size = 4
_context$ = 8						; size = 4
_http_mthd$ = 12					; size = 4
_xmlIOHTTPCloseWrite PROC				; COMDAT

; 1944 : xmlIOHTTPCloseWrite( void * context, const char * http_mthd ) {

	push	ebp
	mov	ebp, esp
	sub	esp, 1068				; 0000042cH
	push	esi
	push	edi
	lea	edi, DWORD PTR [ebp-1068]
	mov	ecx, 267				; 0000010bH
	mov	eax, -858993460				; ccccccccH
	rep stosd
	mov	ecx, OFFSET __7D5E66B2_xmlio@c
	call	@__CheckForDebuggerJustMyCode@4

; 1945 : 
; 1946 :     int				close_rc = -1;

	mov	DWORD PTR _close_rc$[ebp], -1

; 1947 :     int				http_rtn = 0;

	mov	DWORD PTR _http_rtn$[ebp], 0

; 1948 :     int				content_lgth = 0;

	mov	DWORD PTR _content_lgth$[ebp], 0

; 1949 :     xmlIOHTTPWriteCtxtPtr	ctxt = context;

	mov	eax, DWORD PTR _context$[ebp]
	mov	DWORD PTR _ctxt$[ebp], eax

; 1950 : 
; 1951 :     char *			http_content = NULL;

	mov	DWORD PTR _http_content$[ebp], 0

; 1952 :     char *			content_encoding = NULL;

	mov	DWORD PTR _content_encoding$[ebp], 0

; 1953 :     char *			content_type = (char *) "text/xml";

	mov	DWORD PTR _content_type$[ebp], OFFSET ??_C@_08HNLEKLC@text?1xml@

; 1954 :     void *			http_ctxt = NULL;

	mov	DWORD PTR _http_ctxt$[ebp], 0

; 1955 : 
; 1956 :     if ( ( ctxt == NULL ) || ( http_mthd == NULL ) )

	cmp	DWORD PTR _ctxt$[ebp], 0
	je	SHORT $LN3@xmlIOHTTPC
	cmp	DWORD PTR _http_mthd$[ebp], 0
	jne	SHORT $LN2@xmlIOHTTPC
$LN3@xmlIOHTTPC:

; 1957 : 	return ( -1 );

	or	eax, -1
	jmp	$LN1@xmlIOHTTPC
$LN2@xmlIOHTTPC:

; 1958 : 
; 1959 :     /*  Retrieve the content from the appropriate buffer  */
; 1960 : 
; 1961 : #ifdef LIBXML_ZLIB_ENABLED
; 1962 : 
; 1963 :     if ( ctxt->compression > 0 ) {

	mov	ecx, DWORD PTR _ctxt$[ebp]
	cmp	DWORD PTR [ecx], 0
	jle	SHORT $LN4@xmlIOHTTPC

; 1964 : 	content_lgth = xmlZMemBuffGetContent( ctxt->doc_buff, &http_content );

	lea	edx, DWORD PTR _http_content$[ebp]
	push	edx
	mov	eax, DWORD PTR _ctxt$[ebp]
	mov	ecx, DWORD PTR [eax+8]
	push	ecx
	call	_xmlZMemBuffGetContent
	add	esp, 8
	mov	DWORD PTR _content_lgth$[ebp], eax

; 1965 : 	content_encoding = (char *) "Content-Encoding: gzip";

	mov	DWORD PTR _content_encoding$[ebp], OFFSET ??_C@_0BH@GLHIGFDJ@Content?9Encoding?3?5gzip@

; 1966 :     }

	jmp	SHORT $LN5@xmlIOHTTPC
$LN4@xmlIOHTTPC:

; 1967 :     else
; 1968 : #endif
; 1969 :     {
; 1970 : 	/*  Pull the data out of the memory output buffer  */
; 1971 : 
; 1972 : 	xmlOutputBufferPtr	dctxt = ctxt->doc_buff;

	mov	edx, DWORD PTR _ctxt$[ebp]
	mov	eax, DWORD PTR [edx+8]
	mov	DWORD PTR _dctxt$3[ebp], eax

; 1973 : 	http_content = (char *) xmlBufContent(dctxt->buffer);

	mov	ecx, DWORD PTR _dctxt$3[ebp]
	mov	edx, DWORD PTR [ecx+16]
	push	edx
	call	_xmlBufContent
	add	esp, 4
	mov	DWORD PTR _http_content$[ebp], eax

; 1974 : 	content_lgth = xmlBufUse(dctxt->buffer);

	mov	eax, DWORD PTR _dctxt$3[ebp]
	mov	ecx, DWORD PTR [eax+16]
	push	ecx
	call	_xmlBufUse
	add	esp, 4
	mov	DWORD PTR _content_lgth$[ebp], eax
$LN5@xmlIOHTTPC:

; 1975 :     }
; 1976 : 
; 1977 :     if ( http_content == NULL ) {

	cmp	DWORD PTR _http_content$[ebp], 0
	jne	SHORT $LN6@xmlIOHTTPC

; 1978 : 	xmlChar msg[500];
; 1979 : 	xmlStrPrintf(msg, 500,

	mov	edx, DWORD PTR _ctxt$[ebp]
	mov	eax, DWORD PTR [edx+4]
	push	eax
	push	OFFSET ??_C@_0M@OBPMGCPN@data?5to?5URI@
	mov	ecx, DWORD PTR _http_mthd$[ebp]
	push	ecx
	push	OFFSET ??_C@_0CE@LJFLEKEA@Error?5retrieving?5content?4?6Unabl@
	push	OFFSET ??_C@_0CI@GBILCNOK@xmlIOHTTPCloseWrite?3?5?5?$CFs?5?8?$CFs?8?5?$CF@
	push	500					; 000001f4H
	lea	edx, DWORD PTR _msg$2[ebp]
	push	edx
	call	_xmlStrPrintf
	add	esp, 28					; 0000001cH

; 1980 : 		     "xmlIOHTTPCloseWrite:  %s '%s' %s '%s'.\n",
; 1981 : 		     "Error retrieving content.\nUnable to",
; 1982 : 		     http_mthd, "data to URI", ctxt->uri );
; 1983 : 	xmlIOErr(XML_IO_WRITE, (const char *) msg);

	lea	eax, DWORD PTR _msg$2[ebp]
	push	eax
	push	1546					; 0000060aH
	call	_xmlIOErr
	add	esp, 8

; 1984 :     }

	jmp	$LN7@xmlIOHTTPC
$LN6@xmlIOHTTPC:

; 1985 : 
; 1986 :     else {
; 1987 : 
; 1988 : 	http_ctxt = xmlNanoHTTPMethod( ctxt->uri, http_mthd, http_content,

	mov	ecx, DWORD PTR _content_lgth$[ebp]
	push	ecx
	mov	edx, DWORD PTR _content_encoding$[ebp]
	push	edx
	lea	eax, DWORD PTR _content_type$[ebp]
	push	eax
	mov	ecx, DWORD PTR _http_content$[ebp]
	push	ecx
	mov	edx, DWORD PTR _http_mthd$[ebp]
	push	edx
	mov	eax, DWORD PTR _ctxt$[ebp]
	mov	ecx, DWORD PTR [eax+4]
	push	ecx
	call	_xmlNanoHTTPMethod
	add	esp, 24					; 00000018H
	mov	DWORD PTR _http_ctxt$[ebp], eax

; 1989 : 					&content_type, content_encoding,
; 1990 : 					content_lgth );
; 1991 : 
; 1992 : 	if ( http_ctxt != NULL ) {

	cmp	DWORD PTR _http_ctxt$[ebp], 0
	je	$LN7@xmlIOHTTPC

; 1993 : #ifdef DEBUG_HTTP
; 1994 : 	    /*  If testing/debugging - dump reply with request content  */
; 1995 : 
; 1996 : 	    FILE *	tst_file = NULL;
; 1997 : 	    char	buffer[ 4096 ];
; 1998 : 	    char *	dump_name = NULL;
; 1999 : 	    int		avail;
; 2000 : 
; 2001 : 	    xmlGenericError( xmlGenericErrorContext,
; 2002 : 			"xmlNanoHTTPCloseWrite:  HTTP %s to\n%s returned %d.\n",
; 2003 : 			http_mthd, ctxt->uri,
; 2004 : 			xmlNanoHTTPReturnCode( http_ctxt ) );
; 2005 : 
; 2006 : 	    /*
; 2007 : 	    **  Since either content or reply may be gzipped,
; 2008 : 	    **  dump them to separate files instead of the
; 2009 : 	    **  standard error context.
; 2010 : 	    */
; 2011 : 
; 2012 : 	    dump_name = tempnam( NULL, "lxml" );
; 2013 : 	    if ( dump_name != NULL ) {
; 2014 : 		(void)snprintf( buffer, sizeof(buffer), "%s.content", dump_name );
; 2015 : 
; 2016 : 		tst_file = fopen( buffer, "wb" );
; 2017 : 		if ( tst_file != NULL ) {
; 2018 : 		    xmlGenericError( xmlGenericErrorContext,
; 2019 : 			"Transmitted content saved in file:  %s\n", buffer );
; 2020 : 
; 2021 : 		    fwrite( http_content, sizeof( char ),
; 2022 : 					content_lgth, tst_file );
; 2023 : 		    fclose( tst_file );
; 2024 : 		}
; 2025 : 
; 2026 : 		(void)snprintf( buffer, sizeof(buffer), "%s.reply", dump_name );
; 2027 : 		tst_file = fopen( buffer, "wb" );
; 2028 : 		if ( tst_file != NULL ) {
; 2029 : 		    xmlGenericError( xmlGenericErrorContext,
; 2030 : 			"Reply content saved in file:  %s\n", buffer );
; 2031 : 
; 2032 : 
; 2033 : 		    while ( (avail = xmlNanoHTTPRead( http_ctxt,
; 2034 : 					buffer, sizeof( buffer ) )) > 0 ) {
; 2035 : 
; 2036 : 			fwrite( buffer, sizeof( char ), avail, tst_file );
; 2037 : 		    }
; 2038 : 
; 2039 : 		    fclose( tst_file );
; 2040 : 		}
; 2041 : 
; 2042 : 		free( dump_name );
; 2043 : 	    }
; 2044 : #endif  /*  DEBUG_HTTP  */
; 2045 : 
; 2046 : 	    http_rtn = xmlNanoHTTPReturnCode( http_ctxt );

	mov	edx, DWORD PTR _http_ctxt$[ebp]
	push	edx
	call	_xmlNanoHTTPReturnCode
	add	esp, 4
	mov	DWORD PTR _http_rtn$[ebp], eax

; 2047 : 	    if ( ( http_rtn >= 200 ) && ( http_rtn < 300 ) )

	cmp	DWORD PTR _http_rtn$[ebp], 200		; 000000c8H
	jl	SHORT $LN9@xmlIOHTTPC
	cmp	DWORD PTR _http_rtn$[ebp], 300		; 0000012cH
	jge	SHORT $LN9@xmlIOHTTPC

; 2048 : 		close_rc = 0;

	mov	DWORD PTR _close_rc$[ebp], 0
	jmp	SHORT $LN10@xmlIOHTTPC
$LN9@xmlIOHTTPC:

; 2049 : 	    else {
; 2050 :                 xmlChar msg[500];
; 2051 :                 xmlStrPrintf(msg, 500,

	mov	eax, DWORD PTR _http_rtn$[ebp]
	push	eax
	push	OFFSET ??_C@_0BL@JBOHJFIO@failed?4?5?5HTTP?5return?5code?3@
	mov	ecx, DWORD PTR _ctxt$[ebp]
	mov	edx, DWORD PTR [ecx+4]
	push	edx
	push	OFFSET ??_C@_0N@PMLOIJLP@bytes?5to?5URI@
	mov	eax, DWORD PTR _content_lgth$[ebp]
	push	eax
	mov	ecx, DWORD PTR _http_mthd$[ebp]
	push	ecx
	push	OFFSET ??_C@_0DE@NBPIPMNL@xmlIOHTTPCloseWrite?3?5HTTP?5?8?$CFs?8?5@
	push	500					; 000001f4H
	lea	edx, DWORD PTR _msg$1[ebp]
	push	edx
	call	_xmlStrPrintf
	add	esp, 36					; 00000024H

; 2052 :                       "xmlIOHTTPCloseWrite: HTTP '%s' of %d %s\n'%s' %s %d\n",
; 2053 : 			    http_mthd, content_lgth,
; 2054 : 			    "bytes to URI", ctxt->uri,
; 2055 : 			    "failed.  HTTP return code:", http_rtn );
; 2056 : 		xmlIOErr(XML_IO_WRITE, (const char *) msg);

	lea	eax, DWORD PTR _msg$1[ebp]
	push	eax
	push	1546					; 0000060aH
	call	_xmlIOErr
	add	esp, 8
$LN10@xmlIOHTTPC:

; 2057 :             }
; 2058 : 
; 2059 : 	    xmlNanoHTTPClose( http_ctxt );

	mov	ecx, DWORD PTR _http_ctxt$[ebp]
	push	ecx
	call	_xmlNanoHTTPClose
	add	esp, 4

; 2060 : 	    xmlFree( content_type );

	mov	esi, esp
	mov	edx, DWORD PTR _content_type$[ebp]
	push	edx
	call	DWORD PTR _xmlFree
	add	esp, 4
	cmp	esi, esp
	call	__RTC_CheckEsp
$LN7@xmlIOHTTPC:

; 2061 : 	}
; 2062 :     }
; 2063 : 
; 2064 :     /*  Final cleanups  */
; 2065 : 
; 2066 :     xmlFreeHTTPWriteCtxt( ctxt );

	mov	eax, DWORD PTR _ctxt$[ebp]
	push	eax
	call	_xmlFreeHTTPWriteCtxt
	add	esp, 4

; 2067 : 
; 2068 :     return ( close_rc );

	mov	eax, DWORD PTR _close_rc$[ebp]
$LN1@xmlIOHTTPC:

; 2069 : }

	push	edx
	mov	ecx, ebp
	push	eax
	lea	edx, DWORD PTR $LN17@xmlIOHTTPC
	call	@_RTC_CheckStackVars@8
	pop	eax
	pop	edx
	pop	edi
	pop	esi
	add	esp, 1068				; 0000042cH
	cmp	ebp, esp
	call	__RTC_CheckEsp
	mov	esp, ebp
	pop	ebp
	ret	0
$LN17@xmlIOHTTPC:
	DD	4
	DD	$LN16@xmlIOHTTPC
$LN16@xmlIOHTTPC:
	DD	-24					; ffffffe8H
	DD	4
	DD	$LN12@xmlIOHTTPC
	DD	-40					; ffffffd8H
	DD	4
	DD	$LN13@xmlIOHTTPC
	DD	-556					; fffffdd4H
	DD	500					; 000001f4H
	DD	$LN14@xmlIOHTTPC
	DD	-1064					; fffffbd8H
	DD	500					; 000001f4H
	DD	$LN15@xmlIOHTTPC
$LN15@xmlIOHTTPC:
	DB	109					; 0000006dH
	DB	115					; 00000073H
	DB	103					; 00000067H
	DB	0
$LN14@xmlIOHTTPC:
	DB	109					; 0000006dH
	DB	115					; 00000073H
	DB	103					; 00000067H
	DB	0
$LN13@xmlIOHTTPC:
	DB	99					; 00000063H
	DB	111					; 0000006fH
	DB	110					; 0000006eH
	DB	116					; 00000074H
	DB	101					; 00000065H
	DB	110					; 0000006eH
	DB	116					; 00000074H
	DB	95					; 0000005fH
	DB	116					; 00000074H
	DB	121					; 00000079H
	DB	112					; 00000070H
	DB	101					; 00000065H
	DB	0
$LN12@xmlIOHTTPC:
	DB	104					; 00000068H
	DB	116					; 00000074H
	DB	116					; 00000074H
	DB	112					; 00000070H
	DB	95					; 0000005fH
	DB	99					; 00000063H
	DB	111					; 0000006fH
	DB	110					; 0000006eH
	DB	116					; 00000074H
	DB	101					; 00000065H
	DB	110					; 0000006eH
	DB	116					; 00000074H
	DB	0
_xmlIOHTTPCloseWrite ENDP
_TEXT	ENDS
; Function compile flags: /Odtp /RTCsu
; File c:\users\dag\documents\_clients\codeproject authors group\windows on arm\libxml2\libxml2-2.9.9\xmlio.c
;	COMDAT _xmlIOHTTPWrite
_TEXT	SEGMENT
_msg$1 = -508						; size = 500
_ctxt$ = -4						; size = 4
_context$ = 8						; size = 4
_buffer$ = 12						; size = 4
_len$ = 16						; size = 4
_xmlIOHTTPWrite PROC					; COMDAT

; 1886 : xmlIOHTTPWrite( void * context, const char * buffer, int len ) {

	push	ebp
	mov	ebp, esp
	sub	esp, 512				; 00000200H
	push	edi
	lea	edi, DWORD PTR [ebp-512]
	mov	ecx, 128				; 00000080H
	mov	eax, -858993460				; ccccccccH
	rep stosd
	mov	ecx, OFFSET __7D5E66B2_xmlio@c
	call	@__CheckForDebuggerJustMyCode@4

; 1887 : 
; 1888 :     xmlIOHTTPWriteCtxtPtr	ctxt = context;

	mov	eax, DWORD PTR _context$[ebp]
	mov	DWORD PTR _ctxt$[ebp], eax

; 1889 : 
; 1890 :     if ( ( ctxt == NULL ) || ( ctxt->doc_buff == NULL ) || ( buffer == NULL ) )

	cmp	DWORD PTR _ctxt$[ebp], 0
	je	SHORT $LN3@xmlIOHTTPW
	mov	ecx, DWORD PTR _ctxt$[ebp]
	cmp	DWORD PTR [ecx+8], 0
	je	SHORT $LN3@xmlIOHTTPW
	cmp	DWORD PTR _buffer$[ebp], 0
	jne	SHORT $LN2@xmlIOHTTPW
$LN3@xmlIOHTTPW:

; 1891 : 	return ( -1 );

	or	eax, -1
	jmp	$LN1@xmlIOHTTPW
$LN2@xmlIOHTTPW:

; 1892 : 
; 1893 :     if ( len > 0 ) {

	cmp	DWORD PTR _len$[ebp], 0
	jle	$LN4@xmlIOHTTPW

; 1894 : 
; 1895 : 	/*  Use gzwrite or fwrite as previously setup in the open call  */
; 1896 : 
; 1897 : #ifdef LIBXML_ZLIB_ENABLED
; 1898 : 	if ( ctxt->compression > 0 )

	mov	edx, DWORD PTR _ctxt$[ebp]
	cmp	DWORD PTR [edx], 0
	jle	SHORT $LN5@xmlIOHTTPW

; 1899 : 	    len = xmlZMemBuffAppend( ctxt->doc_buff, buffer, len );

	mov	eax, DWORD PTR _len$[ebp]
	push	eax
	mov	ecx, DWORD PTR _buffer$[ebp]
	push	ecx
	mov	edx, DWORD PTR _ctxt$[ebp]
	mov	eax, DWORD PTR [edx+8]
	push	eax
	call	_xmlZMemBuffAppend
	add	esp, 12					; 0000000cH
	mov	DWORD PTR _len$[ebp], eax
	jmp	SHORT $LN6@xmlIOHTTPW
$LN5@xmlIOHTTPW:

; 1900 : 
; 1901 : 	else
; 1902 : #endif
; 1903 : 	    len = xmlOutputBufferWrite( ctxt->doc_buff, len, buffer );

	mov	ecx, DWORD PTR _buffer$[ebp]
	push	ecx
	mov	edx, DWORD PTR _len$[ebp]
	push	edx
	mov	eax, DWORD PTR _ctxt$[ebp]
	mov	ecx, DWORD PTR [eax+8]
	push	ecx
	call	_xmlOutputBufferWrite
	add	esp, 12					; 0000000cH
	mov	DWORD PTR _len$[ebp], eax
$LN6@xmlIOHTTPW:

; 1904 : 
; 1905 : 	if ( len < 0 ) {

	cmp	DWORD PTR _len$[ebp], 0
	jge	SHORT $LN4@xmlIOHTTPW

; 1906 : 	    xmlChar msg[500];
; 1907 : 	    xmlStrPrintf(msg, 500,

	mov	edx, DWORD PTR _ctxt$[ebp]
	mov	eax, DWORD PTR [edx+4]
	push	eax
	push	OFFSET ??_C@_0BO@GKIAAEMO@Error?5sending?5document?5to?5URI@
	push	OFFSET ??_C@_0CE@EMEBAPHK@Error?5appending?5to?5internal?5buf@
	push	OFFSET ??_C@_0BO@FAAFNDKK@xmlIOHTTPWrite?3?5?5?$CFs?6?$CFs?5?8?$CFs?8?4?6@
	push	500					; 000001f4H
	lea	ecx, DWORD PTR _msg$1[ebp]
	push	ecx
	call	_xmlStrPrintf
	add	esp, 24					; 00000018H

; 1908 : 			"xmlIOHTTPWrite:  %s\n%s '%s'.\n",
; 1909 : 			"Error appending to internal buffer.",
; 1910 : 			"Error sending document to URI",
; 1911 : 			ctxt->uri );
; 1912 : 	    xmlIOErr(XML_IO_WRITE, (const char *) msg);

	lea	edx, DWORD PTR _msg$1[ebp]
	push	edx
	push	1546					; 0000060aH
	call	_xmlIOErr
	add	esp, 8
$LN4@xmlIOHTTPW:

; 1913 : 	}
; 1914 :     }
; 1915 : 
; 1916 :     return ( len );

	mov	eax, DWORD PTR _len$[ebp]
$LN1@xmlIOHTTPW:

; 1917 : }

	push	edx
	mov	ecx, ebp
	push	eax
	lea	edx, DWORD PTR $LN11@xmlIOHTTPW
	call	@_RTC_CheckStackVars@8
	pop	eax
	pop	edx
	pop	edi
	add	esp, 512				; 00000200H
	cmp	ebp, esp
	call	__RTC_CheckEsp
	mov	esp, ebp
	pop	ebp
	ret	0
	npad	1
$LN11@xmlIOHTTPW:
	DD	1
	DD	$LN10@xmlIOHTTPW
$LN10@xmlIOHTTPW:
	DD	-508					; fffffe04H
	DD	500					; 000001f4H
	DD	$LN9@xmlIOHTTPW
$LN9@xmlIOHTTPW:
	DB	109					; 0000006dH
	DB	115					; 00000073H
	DB	103					; 00000067H
	DB	0
_xmlIOHTTPWrite ENDP
_TEXT	ENDS
; Function compile flags: /Odtp /RTCsu
; File c:\users\dag\documents\_clients\codeproject authors group\windows on arm\libxml2\libxml2-2.9.9\xmlio.c
;	COMDAT _xmlIOHTTPDfltOpenW
_TEXT	SEGMENT
_post_uri$ = 8						; size = 4
_xmlIOHTTPDfltOpenW PROC				; COMDAT

; 1851 : xmlIOHTTPDfltOpenW( const char * post_uri ) {

	push	ebp
	mov	ebp, esp
	mov	ecx, OFFSET __7D5E66B2_xmlio@c
	call	@__CheckForDebuggerJustMyCode@4

; 1852 :     return ( xmlIOHTTPOpenW( post_uri, 0 ) );

	push	0
	mov	eax, DWORD PTR _post_uri$[ebp]
	push	eax
	call	_xmlIOHTTPOpenW
	add	esp, 8

; 1853 : }

	cmp	ebp, esp
	call	__RTC_CheckEsp
	pop	ebp
	ret	0
_xmlIOHTTPDfltOpenW ENDP
_TEXT	ENDS
; Function compile flags: /Odtp /RTCsu
; File c:\users\dag\documents\_clients\codeproject authors group\windows on arm\libxml2\libxml2-2.9.9\xmlio.c
;	COMDAT _xmlFreeHTTPWriteCtxt
_TEXT	SEGMENT
_ctxt$ = 8						; size = 4
_xmlFreeHTTPWriteCtxt PROC				; COMDAT

; 1724 : {

	push	ebp
	mov	ebp, esp
	push	esi
	mov	ecx, OFFSET __7D5E66B2_xmlio@c
	call	@__CheckForDebuggerJustMyCode@4

; 1725 :     if ( ctxt->uri != NULL )

	mov	eax, DWORD PTR _ctxt$[ebp]
	cmp	DWORD PTR [eax+4], 0
	je	SHORT $LN2@xmlFreeHTT

; 1726 : 	xmlFree( ctxt->uri );

	mov	esi, esp
	mov	ecx, DWORD PTR _ctxt$[ebp]
	mov	edx, DWORD PTR [ecx+4]
	push	edx
	call	DWORD PTR _xmlFree
	add	esp, 4
	cmp	esi, esp
	call	__RTC_CheckEsp
$LN2@xmlFreeHTT:

; 1727 : 
; 1728 :     if ( ctxt->doc_buff != NULL ) {

	mov	eax, DWORD PTR _ctxt$[ebp]
	cmp	DWORD PTR [eax+8], 0
	je	SHORT $LN3@xmlFreeHTT

; 1729 : 
; 1730 : #ifdef LIBXML_ZLIB_ENABLED
; 1731 : 	if ( ctxt->compression > 0 ) {

	mov	ecx, DWORD PTR _ctxt$[ebp]
	cmp	DWORD PTR [ecx], 0
	jle	SHORT $LN4@xmlFreeHTT

; 1732 : 	    xmlFreeZMemBuff( ctxt->doc_buff );

	mov	edx, DWORD PTR _ctxt$[ebp]
	mov	eax, DWORD PTR [edx+8]
	push	eax
	call	_xmlFreeZMemBuff
	add	esp, 4

; 1733 : 	}

	jmp	SHORT $LN3@xmlFreeHTT
$LN4@xmlFreeHTT:

; 1734 : 	else
; 1735 : #endif
; 1736 : 	{
; 1737 : 	    xmlOutputBufferClose( ctxt->doc_buff );

	mov	ecx, DWORD PTR _ctxt$[ebp]
	mov	edx, DWORD PTR [ecx+8]
	push	edx
	call	_xmlOutputBufferClose
	add	esp, 4
$LN3@xmlFreeHTT:

; 1738 : 	}
; 1739 :     }
; 1740 : 
; 1741 :     xmlFree( ctxt );

	mov	esi, esp
	mov	eax, DWORD PTR _ctxt$[ebp]
	push	eax
	call	DWORD PTR _xmlFree
	add	esp, 4
	cmp	esi, esp
	call	__RTC_CheckEsp

; 1742 :     return;
; 1743 : }

	pop	esi
	cmp	ebp, esp
	call	__RTC_CheckEsp
	pop	ebp
	ret	0
_xmlFreeHTTPWriteCtxt ENDP
_TEXT	ENDS
; Function compile flags: /Odtp /RTCsu
; File c:\users\dag\documents\_clients\codeproject authors group\windows on arm\libxml2\libxml2-2.9.9\xmlio.c
;	COMDAT _xmlZMemBuffGetContent
_TEXT	SEGMENT
_msg$1 = -512						; size = 500
_z_err$ = -8						; size = 4
_zlgth$ = -4						; size = 4
_buff$ = 8						; size = 4
_data_ref$ = 12						; size = 4
_xmlZMemBuffGetContent PROC				; COMDAT

; 1655 : xmlZMemBuffGetContent( xmlZMemBuffPtr buff, char ** data_ref ) {

	push	ebp
	mov	ebp, esp
	sub	esp, 516				; 00000204H
	push	edi
	lea	edi, DWORD PTR [ebp-516]
	mov	ecx, 129				; 00000081H
	mov	eax, -858993460				; ccccccccH
	rep stosd
	mov	ecx, OFFSET __7D5E66B2_xmlio@c
	call	@__CheckForDebuggerJustMyCode@4

; 1656 : 
; 1657 :     int		zlgth = -1;

	mov	DWORD PTR _zlgth$[ebp], -1

; 1658 :     int		z_err;
; 1659 : 
; 1660 :     if ( ( buff == NULL ) || ( data_ref == NULL ) )

	cmp	DWORD PTR _buff$[ebp], 0
	je	SHORT $LN6@xmlZMemBuf
	cmp	DWORD PTR _data_ref$[ebp], 0
	jne	SHORT $LN4@xmlZMemBuf
$LN6@xmlZMemBuf:

; 1661 : 	return ( -1 );

	or	eax, -1
	jmp	$LN1@xmlZMemBuf
$LN4@xmlZMemBuf:

; 1662 : 
; 1663 :     /*  Need to loop until compression output buffers are flushed  */
; 1664 : 
; 1665 :     do
; 1666 :     {
; 1667 : 	z_err = deflate( &buff->zctrl, Z_FINISH );

	push	4
	mov	eax, DWORD PTR _buff$[ebp]
	add	eax, 12					; 0000000cH
	push	eax
	call	_deflate@8
	mov	DWORD PTR _z_err$[ebp], eax

; 1668 : 	if ( z_err == Z_OK ) {

	cmp	DWORD PTR _z_err$[ebp], 0
	jne	SHORT $LN2@xmlZMemBuf

; 1669 : 	    /*  In this case Z_OK means more buffer space needed  */
; 1670 : 
; 1671 : 	    if ( xmlZMemBuffExtend( buff, buff->size ) == -1 )

	mov	ecx, DWORD PTR _buff$[ebp]
	mov	edx, DWORD PTR [ecx]
	push	edx
	mov	eax, DWORD PTR _buff$[ebp]
	push	eax
	call	_xmlZMemBuffExtend
	add	esp, 8
	cmp	eax, -1
	jne	SHORT $LN2@xmlZMemBuf

; 1672 : 		return ( -1 );

	or	eax, -1
	jmp	$LN1@xmlZMemBuf
$LN2@xmlZMemBuf:

; 1673 : 	}
; 1674 :     }
; 1675 :     while ( z_err == Z_OK );

	cmp	DWORD PTR _z_err$[ebp], 0
	je	SHORT $LN4@xmlZMemBuf

; 1676 : 
; 1677 :     /*  If the compression state is not Z_STREAM_END, some error occurred  */
; 1678 : 
; 1679 :     if ( z_err == Z_STREAM_END ) {

	cmp	DWORD PTR _z_err$[ebp], 1
	jne	SHORT $LN9@xmlZMemBuf

; 1680 : 
; 1681 : 	/*  Need to append the gzip data trailer  */
; 1682 : 
; 1683 : 	if ( buff->zctrl.avail_out < ( 2 * sizeof( unsigned long ) ) ) {

	mov	ecx, DWORD PTR _buff$[ebp]
	cmp	DWORD PTR [ecx+28], 8
	jae	SHORT $LN11@xmlZMemBuf

; 1684 : 	    if ( xmlZMemBuffExtend(buff, (2 * sizeof(unsigned long))) == -1 )

	push	8
	mov	edx, DWORD PTR _buff$[ebp]
	push	edx
	call	_xmlZMemBuffExtend
	add	esp, 8
	cmp	eax, -1
	jne	SHORT $LN11@xmlZMemBuf

; 1685 : 		return ( -1 );

	or	eax, -1
	jmp	SHORT $LN1@xmlZMemBuf
$LN11@xmlZMemBuf:

; 1686 : 	}
; 1687 : 
; 1688 : 	/*
; 1689 : 	**  For whatever reason, the CRC and length data are pushed out
; 1690 : 	**  in reverse byte order.  So a memcpy can't be used here.
; 1691 : 	*/
; 1692 : 
; 1693 : 	append_reverse_ulong( buff, buff->crc );

	mov	eax, DWORD PTR _buff$[ebp]
	mov	ecx, DWORD PTR [eax+4]
	push	ecx
	mov	edx, DWORD PTR _buff$[ebp]
	push	edx
	call	_append_reverse_ulong
	add	esp, 8

; 1694 : 	append_reverse_ulong( buff, buff->zctrl.total_in );

	mov	eax, DWORD PTR _buff$[ebp]
	mov	ecx, DWORD PTR [eax+20]
	push	ecx
	mov	edx, DWORD PTR _buff$[ebp]
	push	edx
	call	_append_reverse_ulong
	add	esp, 8

; 1695 : 
; 1696 : 	zlgth = buff->zctrl.next_out - buff->zbuff;

	mov	eax, DWORD PTR _buff$[ebp]
	mov	ecx, DWORD PTR _buff$[ebp]
	mov	edx, DWORD PTR [eax+24]
	sub	edx, DWORD PTR [ecx+8]
	mov	DWORD PTR _zlgth$[ebp], edx

; 1697 : 	*data_ref = (char *)buff->zbuff;

	mov	eax, DWORD PTR _data_ref$[ebp]
	mov	ecx, DWORD PTR _buff$[ebp]
	mov	edx, DWORD PTR [ecx+8]
	mov	DWORD PTR [eax], edx

; 1698 :     }

	jmp	SHORT $LN10@xmlZMemBuf
$LN9@xmlZMemBuf:

; 1699 : 
; 1700 :     else {
; 1701 : 	xmlChar msg[500];
; 1702 : 	xmlStrPrintf(msg, 500,

	mov	eax, DWORD PTR _z_err$[ebp]
	push	eax
	push	OFFSET ??_C@_0CJ@BEAAAJBE@Error?5flushing?5zlib?5buffers?4?5?5E@
	push	OFFSET ??_C@_0CB@PEPDONBH@xmlZMemBuffGetContent?3?5?5?$CFs?5?9?5?$CFd@
	push	500					; 000001f4H
	lea	ecx, DWORD PTR _msg$1[ebp]
	push	ecx
	call	_xmlStrPrintf
	add	esp, 20					; 00000014H

; 1703 : 		    "xmlZMemBuffGetContent:  %s - %d\n",
; 1704 : 		    "Error flushing zlib buffers.  Error code", z_err );
; 1705 : 	xmlIOErr(XML_IO_WRITE, (const char *) msg);

	lea	edx, DWORD PTR _msg$1[ebp]
	push	edx
	push	1546					; 0000060aH
	call	_xmlIOErr
	add	esp, 8
$LN10@xmlZMemBuf:

; 1706 :     }
; 1707 : 
; 1708 :     return ( zlgth );

	mov	eax, DWORD PTR _zlgth$[ebp]
$LN1@xmlZMemBuf:

; 1709 : }

	push	edx
	mov	ecx, ebp
	push	eax
	lea	edx, DWORD PTR $LN16@xmlZMemBuf
	call	@_RTC_CheckStackVars@8
	pop	eax
	pop	edx
	pop	edi
	add	esp, 516				; 00000204H
	cmp	ebp, esp
	call	__RTC_CheckEsp
	mov	esp, ebp
	pop	ebp
	ret	0
	npad	2
$LN16@xmlZMemBuf:
	DD	1
	DD	$LN15@xmlZMemBuf
$LN15@xmlZMemBuf:
	DD	-512					; fffffe00H
	DD	500					; 000001f4H
	DD	$LN14@xmlZMemBuf
$LN14@xmlZMemBuf:
	DB	109					; 0000006dH
	DB	115					; 00000073H
	DB	103					; 00000067H
	DB	0
_xmlZMemBuffGetContent ENDP
_TEXT	ENDS
; Function compile flags: /Odtp /RTCsu
; File c:\users\dag\documents\_clients\codeproject authors group\windows on arm\libxml2\libxml2-2.9.9\xmlio.c
;	COMDAT _xmlZMemBuffAppend
_TEXT	SEGMENT
_msg$1 = -512						; size = 500
_min_accept$ = -8					; size = 4
_z_err$ = -4						; size = 4
_buff$ = 8						; size = 4
_src$ = 12						; size = 4
_len$ = 16						; size = 4
_xmlZMemBuffAppend PROC					; COMDAT

; 1605 : xmlZMemBuffAppend( xmlZMemBuffPtr buff, const char * src, int len ) {

	push	ebp
	mov	ebp, esp
	sub	esp, 516				; 00000204H
	push	edi
	lea	edi, DWORD PTR [ebp-516]
	mov	ecx, 129				; 00000081H
	mov	eax, -858993460				; ccccccccH
	rep stosd
	mov	ecx, OFFSET __7D5E66B2_xmlio@c
	call	@__CheckForDebuggerJustMyCode@4

; 1606 : 
; 1607 :     int		z_err;
; 1608 :     size_t	min_accept;
; 1609 : 
; 1610 :     if ( ( buff == NULL ) || ( src == NULL ) )

	cmp	DWORD PTR _buff$[ebp], 0
	je	SHORT $LN5@xmlZMemBuf
	cmp	DWORD PTR _src$[ebp], 0
	jne	SHORT $LN4@xmlZMemBuf
$LN5@xmlZMemBuf:

; 1611 : 	return ( -1 );

	or	eax, -1
	jmp	$LN1@xmlZMemBuf
$LN4@xmlZMemBuf:

; 1612 : 
; 1613 :     buff->zctrl.avail_in = len;

	mov	eax, DWORD PTR _buff$[ebp]
	mov	ecx, DWORD PTR _len$[ebp]
	mov	DWORD PTR [eax+16], ecx

; 1614 :     buff->zctrl.next_in  = (unsigned char *)src;

	mov	edx, DWORD PTR _buff$[ebp]
	mov	eax, DWORD PTR _src$[ebp]
	mov	DWORD PTR [edx+12], eax
$LN2@xmlZMemBuf:

; 1615 :     while ( buff->zctrl.avail_in > 0 ) {

	mov	ecx, DWORD PTR _buff$[ebp]
	cmp	DWORD PTR [ecx+16], 0
	jbe	$LN3@xmlZMemBuf

; 1616 : 	/*
; 1617 : 	**  Extend the buffer prior to deflate call if a reasonable amount
; 1618 : 	**  of output buffer space is not available.
; 1619 : 	*/
; 1620 : 	min_accept = buff->zctrl.avail_in / DFLT_ZLIB_RATIO;

	mov	edx, DWORD PTR _buff$[ebp]
	mov	eax, DWORD PTR [edx+16]
	xor	edx, edx
	mov	ecx, 5
	div	ecx
	mov	DWORD PTR _min_accept$[ebp], eax

; 1621 : 	if ( buff->zctrl.avail_out <= min_accept ) {

	mov	edx, DWORD PTR _buff$[ebp]
	mov	eax, DWORD PTR [edx+28]
	cmp	eax, DWORD PTR _min_accept$[ebp]
	ja	SHORT $LN6@xmlZMemBuf

; 1622 : 	    if ( xmlZMemBuffExtend( buff, buff->size ) == -1 )

	mov	ecx, DWORD PTR _buff$[ebp]
	mov	edx, DWORD PTR [ecx]
	push	edx
	mov	eax, DWORD PTR _buff$[ebp]
	push	eax
	call	_xmlZMemBuffExtend
	add	esp, 8
	cmp	eax, -1
	jne	SHORT $LN6@xmlZMemBuf

; 1623 : 		return ( -1 );

	or	eax, -1
	jmp	SHORT $LN1@xmlZMemBuf
$LN6@xmlZMemBuf:

; 1624 : 	}
; 1625 : 
; 1626 : 	z_err = deflate( &buff->zctrl, Z_NO_FLUSH );

	push	0
	mov	ecx, DWORD PTR _buff$[ebp]
	add	ecx, 12					; 0000000cH
	push	ecx
	call	_deflate@8
	mov	DWORD PTR _z_err$[ebp], eax

; 1627 : 	if ( z_err != Z_OK ) {

	cmp	DWORD PTR _z_err$[ebp], 0
	je	SHORT $LN8@xmlZMemBuf

; 1628 : 	    xmlChar msg[500];
; 1629 : 	    xmlStrPrintf(msg, 500,

	mov	edx, DWORD PTR _z_err$[ebp]
	push	edx
	push	OFFSET ??_C@_0BN@LMICBFOE@bytes?5to?5buffer?4?5?5ZLIB?5error@
	mov	eax, DWORD PTR _len$[ebp]
	push	eax
	push	OFFSET ??_C@_0CC@EIPKGAGC@Compression?5error?5while?5appendi@
	push	OFFSET ??_C@_0CC@EMHPFLHJ@xmlZMemBuffAppend?3?5?5?$CFs?5?$CFd?5?$CFs?5?9?5@
	push	500					; 000001f4H
	lea	ecx, DWORD PTR _msg$1[ebp]
	push	ecx
	call	_xmlStrPrintf
	add	esp, 28					; 0000001cH

; 1630 : 			"xmlZMemBuffAppend:  %s %d %s - %d",
; 1631 : 			"Compression error while appending",
; 1632 : 			len, "bytes to buffer.  ZLIB error", z_err );
; 1633 : 	    xmlIOErr(XML_IO_WRITE, (const char *) msg);

	lea	edx, DWORD PTR _msg$1[ebp]
	push	edx
	push	1546					; 0000060aH
	call	_xmlIOErr
	add	esp, 8

; 1634 : 	    return ( -1 );

	or	eax, -1
	jmp	SHORT $LN1@xmlZMemBuf
$LN8@xmlZMemBuf:

; 1635 : 	}
; 1636 :     }

	jmp	$LN2@xmlZMemBuf
$LN3@xmlZMemBuf:

; 1637 : 
; 1638 :     buff->crc = crc32( buff->crc, (unsigned char *)src, len );

	mov	eax, DWORD PTR _len$[ebp]
	push	eax
	mov	ecx, DWORD PTR _src$[ebp]
	push	ecx
	mov	edx, DWORD PTR _buff$[ebp]
	mov	eax, DWORD PTR [edx+4]
	push	eax
	call	_crc32@12
	mov	ecx, DWORD PTR _buff$[ebp]
	mov	DWORD PTR [ecx+4], eax

; 1639 : 
; 1640 :     return ( len );

	mov	eax, DWORD PTR _len$[ebp]
$LN1@xmlZMemBuf:

; 1641 : }

	push	edx
	mov	ecx, ebp
	push	eax
	lea	edx, DWORD PTR $LN12@xmlZMemBuf
	call	@_RTC_CheckStackVars@8
	pop	eax
	pop	edx
	pop	edi
	add	esp, 516				; 00000204H
	cmp	ebp, esp
	call	__RTC_CheckEsp
	mov	esp, ebp
	pop	ebp
	ret	0
	npad	2
$LN12@xmlZMemBuf:
	DD	1
	DD	$LN11@xmlZMemBuf
$LN11@xmlZMemBuf:
	DD	-512					; fffffe00H
	DD	500					; 000001f4H
	DD	$LN10@xmlZMemBuf
$LN10@xmlZMemBuf:
	DB	109					; 0000006dH
	DB	115					; 00000073H
	DB	103					; 00000067H
	DB	0
_xmlZMemBuffAppend ENDP
_TEXT	ENDS
; Function compile flags: /Odtp /RTCsu
; File c:\users\dag\documents\_clients\codeproject authors group\windows on arm\libxml2\libxml2-2.9.9\xmlio.c
;	COMDAT _xmlZMemBuffExtend
_TEXT	SEGMENT
_msg$1 = -520						; size = 500
_tmp_ptr$ = -16						; size = 4
_cur_used$ = -12					; size = 4
_new_size$ = -8						; size = 4
_rc$ = -4						; size = 4
_buff$ = 8						; size = 4
_ext_amt$ = 12						; size = 4
_xmlZMemBuffExtend PROC					; COMDAT

; 1547 : xmlZMemBuffExtend( xmlZMemBuffPtr buff, size_t ext_amt ) {

	push	ebp
	mov	ebp, esp
	sub	esp, 524				; 0000020cH
	push	esi
	push	edi
	lea	edi, DWORD PTR [ebp-524]
	mov	ecx, 131				; 00000083H
	mov	eax, -858993460				; ccccccccH
	rep stosd
	mov	ecx, OFFSET __7D5E66B2_xmlio@c
	call	@__CheckForDebuggerJustMyCode@4

; 1548 : 
; 1549 :     int			rc = -1;

	mov	DWORD PTR _rc$[ebp], -1

; 1550 :     size_t		new_size;
; 1551 :     size_t		cur_used;
; 1552 : 
; 1553 :     unsigned char *	tmp_ptr = NULL;

	mov	DWORD PTR _tmp_ptr$[ebp], 0

; 1554 : 
; 1555 :     if ( buff == NULL )

	cmp	DWORD PTR _buff$[ebp], 0
	jne	SHORT $LN2@xmlZMemBuf

; 1556 : 	return ( -1 );

	or	eax, -1
	jmp	$LN1@xmlZMemBuf
	jmp	SHORT $LN3@xmlZMemBuf
$LN2@xmlZMemBuf:

; 1557 : 
; 1558 :     else if ( ext_amt == 0 )

	cmp	DWORD PTR _ext_amt$[ebp], 0
	jne	SHORT $LN3@xmlZMemBuf

; 1559 : 	return ( 0 );

	xor	eax, eax
	jmp	$LN1@xmlZMemBuf
$LN3@xmlZMemBuf:

; 1560 : 
; 1561 :     cur_used = buff->zctrl.next_out - buff->zbuff;

	mov	eax, DWORD PTR _buff$[ebp]
	mov	ecx, DWORD PTR _buff$[ebp]
	mov	edx, DWORD PTR [eax+24]
	sub	edx, DWORD PTR [ecx+8]
	mov	DWORD PTR _cur_used$[ebp], edx

; 1562 :     new_size = buff->size + ext_amt;

	mov	eax, DWORD PTR _buff$[ebp]
	mov	ecx, DWORD PTR [eax]
	add	ecx, DWORD PTR _ext_amt$[ebp]
	mov	DWORD PTR _new_size$[ebp], ecx

; 1563 : 
; 1564 : #ifdef DEBUG_HTTP
; 1565 :     if ( cur_used > new_size )
; 1566 : 	xmlGenericError( xmlGenericErrorContext,
; 1567 : 			"xmlZMemBuffExtend:  %s\n%s %d bytes.\n",
; 1568 : 			"Buffer overwrite detected during compressed memory",
; 1569 : 			"buffer extension.  Overflowed by",
; 1570 : 			(cur_used - new_size ) );
; 1571 : #endif
; 1572 : 
; 1573 :     tmp_ptr = xmlRealloc( buff->zbuff, new_size );

	mov	esi, esp
	mov	edx, DWORD PTR _new_size$[ebp]
	push	edx
	mov	eax, DWORD PTR _buff$[ebp]
	mov	ecx, DWORD PTR [eax+8]
	push	ecx
	call	DWORD PTR _xmlRealloc
	add	esp, 8
	cmp	esi, esp
	call	__RTC_CheckEsp
	mov	DWORD PTR _tmp_ptr$[ebp], eax

; 1574 :     if ( tmp_ptr != NULL ) {

	cmp	DWORD PTR _tmp_ptr$[ebp], 0
	je	SHORT $LN5@xmlZMemBuf

; 1575 : 	rc = 0;

	mov	DWORD PTR _rc$[ebp], 0

; 1576 : 	buff->size  = new_size;

	mov	edx, DWORD PTR _buff$[ebp]
	mov	eax, DWORD PTR _new_size$[ebp]
	mov	DWORD PTR [edx], eax

; 1577 : 	buff->zbuff = tmp_ptr;

	mov	ecx, DWORD PTR _buff$[ebp]
	mov	edx, DWORD PTR _tmp_ptr$[ebp]
	mov	DWORD PTR [ecx+8], edx

; 1578 : 	buff->zctrl.next_out  = tmp_ptr + cur_used;

	mov	eax, DWORD PTR _tmp_ptr$[ebp]
	add	eax, DWORD PTR _cur_used$[ebp]
	mov	ecx, DWORD PTR _buff$[ebp]
	mov	DWORD PTR [ecx+24], eax

; 1579 : 	buff->zctrl.avail_out = new_size - cur_used;

	mov	edx, DWORD PTR _new_size$[ebp]
	sub	edx, DWORD PTR _cur_used$[ebp]
	mov	eax, DWORD PTR _buff$[ebp]
	mov	DWORD PTR [eax+28], edx

; 1580 :     }

	jmp	SHORT $LN6@xmlZMemBuf
$LN5@xmlZMemBuf:

; 1581 :     else {
; 1582 : 	xmlChar msg[500];
; 1583 : 	xmlStrPrintf(msg, 500,

	mov	ecx, DWORD PTR _new_size$[ebp]
	push	ecx
	push	OFFSET ??_C@_0CO@MDLOIDCC@Allocation?5failure?5extending?5ou@
	push	OFFSET ??_C@_0CD@GHKILCIJ@xmlZMemBuffExtend?3?5?5?$CFs?5?$CFlu?5byte@
	push	500					; 000001f4H
	lea	edx, DWORD PTR _msg$1[ebp]
	push	edx
	call	_xmlStrPrintf
	add	esp, 20					; 00000014H

; 1584 : 		    "xmlZMemBuffExtend:  %s %lu bytes.\n",
; 1585 : 		    "Allocation failure extending output buffer to",
; 1586 : 		    (unsigned long) new_size );
; 1587 : 	xmlIOErr(XML_IO_WRITE, (const char *) msg);

	lea	eax, DWORD PTR _msg$1[ebp]
	push	eax
	push	1546					; 0000060aH
	call	_xmlIOErr
	add	esp, 8
$LN6@xmlZMemBuf:

; 1588 :     }
; 1589 : 
; 1590 :     return ( rc );

	mov	eax, DWORD PTR _rc$[ebp]
$LN1@xmlZMemBuf:

; 1591 : }

	push	edx
	mov	ecx, ebp
	push	eax
	lea	edx, DWORD PTR $LN10@xmlZMemBuf
	call	@_RTC_CheckStackVars@8
	pop	eax
	pop	edx
	pop	edi
	pop	esi
	add	esp, 524				; 0000020cH
	cmp	ebp, esp
	call	__RTC_CheckEsp
	mov	esp, ebp
	pop	ebp
	ret	0
	npad	3
$LN10@xmlZMemBuf:
	DD	1
	DD	$LN9@xmlZMemBuf
$LN9@xmlZMemBuf:
	DD	-520					; fffffdf8H
	DD	500					; 000001f4H
	DD	$LN8@xmlZMemBuf
$LN8@xmlZMemBuf:
	DB	109					; 0000006dH
	DB	115					; 00000073H
	DB	103					; 00000067H
	DB	0
_xmlZMemBuffExtend ENDP
_TEXT	ENDS
; Function compile flags: /Odtp /RTCsu
; File c:\users\dag\documents\_clients\codeproject authors group\windows on arm\libxml2\libxml2-2.9.9\xmlio.c
;	COMDAT _xmlCreateZMemBuff
_TEXT	SEGMENT
_msg$1 = -516						; size = 500
_buff$ = -12						; size = 4
_hdr_lgth$ = -8						; size = 4
_z_err$ = -4						; size = 4
_compression$ = 8					; size = 4
_xmlCreateZMemBuff PROC					; COMDAT

; 1483 : xmlCreateZMemBuff( int compression ) {

	push	ebp
	mov	ebp, esp
	sub	esp, 520				; 00000208H
	push	esi
	push	edi
	lea	edi, DWORD PTR [ebp-520]
	mov	ecx, 130				; 00000082H
	mov	eax, -858993460				; ccccccccH
	rep stosd
	mov	ecx, OFFSET __7D5E66B2_xmlio@c
	call	@__CheckForDebuggerJustMyCode@4

; 1484 : 
; 1485 :     int			z_err;
; 1486 :     int			hdr_lgth;
; 1487 :     xmlZMemBuffPtr	buff = NULL;

	mov	DWORD PTR _buff$[ebp], 0

; 1488 : 
; 1489 :     if ( ( compression < 1 ) || ( compression > 9 ) )

	cmp	DWORD PTR _compression$[ebp], 1
	jl	SHORT $LN3@xmlCreateZ
	cmp	DWORD PTR _compression$[ebp], 9
	jle	SHORT $LN2@xmlCreateZ
$LN3@xmlCreateZ:

; 1490 : 	return ( NULL );

	xor	eax, eax
	jmp	$LN1@xmlCreateZ
$LN2@xmlCreateZ:

; 1491 : 
; 1492 :     /*  Create the control and data areas  */
; 1493 : 
; 1494 :     buff = xmlMalloc( sizeof( xmlZMemBuff ) );

	mov	esi, esp
	push	68					; 00000044H
	call	DWORD PTR _xmlMalloc
	add	esp, 4
	cmp	esi, esp
	call	__RTC_CheckEsp
	mov	DWORD PTR _buff$[ebp], eax

; 1495 :     if ( buff == NULL ) {

	cmp	DWORD PTR _buff$[ebp], 0
	jne	SHORT $LN4@xmlCreateZ

; 1496 : 	xmlIOErrMemory("creating buffer context");

	push	OFFSET ??_C@_0BI@PALIHBDA@creating?5buffer?5context@
	call	_xmlIOErrMemory
	add	esp, 4

; 1497 : 	return ( NULL );

	xor	eax, eax
	jmp	$LN1@xmlCreateZ
$LN4@xmlCreateZ:

; 1498 :     }
; 1499 : 
; 1500 :     (void)memset( buff, 0, sizeof( xmlZMemBuff ) );

	push	68					; 00000044H
	push	0
	mov	eax, DWORD PTR _buff$[ebp]
	push	eax
	call	_memset
	add	esp, 12					; 0000000cH

; 1501 :     buff->size = INIT_HTTP_BUFF_SIZE;

	mov	ecx, DWORD PTR _buff$[ebp]
	mov	DWORD PTR [ecx], 32768			; 00008000H

; 1502 :     buff->zbuff = xmlMalloc( buff->size );

	mov	esi, esp
	mov	edx, DWORD PTR _buff$[ebp]
	mov	eax, DWORD PTR [edx]
	push	eax
	call	DWORD PTR _xmlMalloc
	add	esp, 4
	cmp	esi, esp
	call	__RTC_CheckEsp
	mov	ecx, DWORD PTR _buff$[ebp]
	mov	DWORD PTR [ecx+8], eax

; 1503 :     if ( buff->zbuff == NULL ) {

	mov	edx, DWORD PTR _buff$[ebp]
	cmp	DWORD PTR [edx+8], 0
	jne	SHORT $LN5@xmlCreateZ

; 1504 : 	xmlFreeZMemBuff( buff );

	mov	eax, DWORD PTR _buff$[ebp]
	push	eax
	call	_xmlFreeZMemBuff
	add	esp, 4

; 1505 : 	xmlIOErrMemory("creating buffer");

	push	OFFSET ??_C@_0BA@GIGPFFIA@creating?5buffer@
	call	_xmlIOErrMemory
	add	esp, 4

; 1506 : 	return ( NULL );

	xor	eax, eax
	jmp	$LN1@xmlCreateZ
$LN5@xmlCreateZ:

; 1507 :     }
; 1508 : 
; 1509 :     z_err = deflateInit2( &buff->zctrl, compression, Z_DEFLATED,

	push	56					; 00000038H
	push	OFFSET ??_C@_06CJNJFBNP@1?42?411@
	push	0
	push	8
	push	-15					; fffffff1H
	push	8
	mov	ecx, DWORD PTR _compression$[ebp]
	push	ecx
	mov	edx, DWORD PTR _buff$[ebp]
	add	edx, 12					; 0000000cH
	push	edx
	call	_deflateInit2_@32
	mov	DWORD PTR _z_err$[ebp], eax

; 1510 : 			    DFLT_WBITS, DFLT_MEM_LVL, Z_DEFAULT_STRATEGY );
; 1511 :     if ( z_err != Z_OK ) {

	cmp	DWORD PTR _z_err$[ebp], 0
	je	SHORT $LN6@xmlCreateZ

; 1512 : 	xmlChar msg[500];
; 1513 : 	xmlFreeZMemBuff( buff );

	mov	eax, DWORD PTR _buff$[ebp]
	push	eax
	call	_xmlFreeZMemBuff
	add	esp, 4

; 1514 : 	buff = NULL;

	mov	DWORD PTR _buff$[ebp], 0

; 1515 : 	xmlStrPrintf(msg, 500,

	mov	ecx, DWORD PTR _z_err$[ebp]
	push	ecx
	push	OFFSET ??_C@_0DF@HJICNPOB@Error?5initializing?5compression?5@
	push	OFFSET ??_C@_0BL@GHKILDDP@xmlCreateZMemBuff?3?5?5?$CFs?5?$CFd?6@
	push	500					; 000001f4H
	lea	edx, DWORD PTR _msg$1[ebp]
	push	edx
	call	_xmlStrPrintf
	add	esp, 20					; 00000014H

; 1516 : 		    "xmlCreateZMemBuff:  %s %d\n",
; 1517 : 		    "Error initializing compression context.  ZLIB error:",
; 1518 : 		    z_err );
; 1519 : 	xmlIOErr(XML_IO_WRITE, (const char *) msg);

	lea	eax, DWORD PTR _msg$1[ebp]
	push	eax
	push	1546					; 0000060aH
	call	_xmlIOErr
	add	esp, 8

; 1520 : 	return ( NULL );

	xor	eax, eax
	jmp	SHORT $LN1@xmlCreateZ
$LN6@xmlCreateZ:

; 1521 :     }
; 1522 : 
; 1523 :     /*  Set the header data.  The CRC will be needed for the trailer  */
; 1524 :     buff->crc = crc32( 0L, NULL, 0 );

	push	0
	push	0
	push	0
	call	_crc32@12
	mov	ecx, DWORD PTR _buff$[ebp]
	mov	DWORD PTR [ecx+4], eax

; 1525 :     hdr_lgth = snprintf( (char *)buff->zbuff, buff->size,

	push	3
	push	0
	push	0
	push	0
	push	0
	push	0
	push	0
	push	8
	push	139					; 0000008bH
	push	31					; 0000001fH
	push	OFFSET ??_C@_0BF@FJABJDFD@?$CFc?$CFc?$CFc?$CFc?$CFc?$CFc?$CFc?$CFc?$CFc?$CFc@
	mov	edx, DWORD PTR _buff$[ebp]
	mov	eax, DWORD PTR [edx]
	push	eax
	mov	ecx, DWORD PTR _buff$[ebp]
	mov	edx, DWORD PTR [ecx+8]
	push	edx
	call	_snprintf
	add	esp, 52					; 00000034H
	mov	DWORD PTR _hdr_lgth$[ebp], eax

; 1526 : 			"%c%c%c%c%c%c%c%c%c%c",
; 1527 : 			GZ_MAGIC1, GZ_MAGIC2, Z_DEFLATED,
; 1528 : 			0, 0, 0, 0, 0, 0, LXML_ZLIB_OS_CODE );
; 1529 :     buff->zctrl.next_out  = buff->zbuff + hdr_lgth;

	mov	eax, DWORD PTR _buff$[ebp]
	mov	ecx, DWORD PTR [eax+8]
	add	ecx, DWORD PTR _hdr_lgth$[ebp]
	mov	edx, DWORD PTR _buff$[ebp]
	mov	DWORD PTR [edx+24], ecx

; 1530 :     buff->zctrl.avail_out = buff->size - hdr_lgth;

	mov	eax, DWORD PTR _buff$[ebp]
	mov	ecx, DWORD PTR [eax]
	sub	ecx, DWORD PTR _hdr_lgth$[ebp]
	mov	edx, DWORD PTR _buff$[ebp]
	mov	DWORD PTR [edx+28], ecx

; 1531 : 
; 1532 :     return ( buff );

	mov	eax, DWORD PTR _buff$[ebp]
$LN1@xmlCreateZ:

; 1533 : }

	push	edx
	mov	ecx, ebp
	push	eax
	lea	edx, DWORD PTR $LN10@xmlCreateZ
	call	@_RTC_CheckStackVars@8
	pop	eax
	pop	edx
	pop	edi
	pop	esi
	add	esp, 520				; 00000208H
	cmp	ebp, esp
	call	__RTC_CheckEsp
	mov	esp, ebp
	pop	ebp
	ret	0
$LN10@xmlCreateZ:
	DD	1
	DD	$LN9@xmlCreateZ
$LN9@xmlCreateZ:
	DD	-516					; fffffdfcH
	DD	500					; 000001f4H
	DD	$LN8@xmlCreateZ
$LN8@xmlCreateZ:
	DB	109					; 0000006dH
	DB	115					; 00000073H
	DB	103					; 00000067H
	DB	0
_xmlCreateZMemBuff ENDP
_TEXT	ENDS
; Function compile flags: /Odtp /RTCsu
; File c:\users\dag\documents\_clients\codeproject authors group\windows on arm\libxml2\libxml2-2.9.9\xmlio.c
;	COMDAT _xmlFreeZMemBuff
_TEXT	SEGMENT
_buff$ = 8						; size = 4
_xmlFreeZMemBuff PROC					; COMDAT

; 1448 : xmlFreeZMemBuff( xmlZMemBuffPtr buff ) {

	push	ebp
	mov	ebp, esp
	push	esi
	mov	ecx, OFFSET __7D5E66B2_xmlio@c
	call	@__CheckForDebuggerJustMyCode@4

; 1449 : 
; 1450 : #ifdef DEBUG_HTTP
; 1451 :     int z_err;
; 1452 : #endif
; 1453 : 
; 1454 :     if ( buff == NULL )

	cmp	DWORD PTR _buff$[ebp], 0
	jne	SHORT $LN2@xmlFreeZMe

; 1455 : 	return;

	jmp	SHORT $LN1@xmlFreeZMe
$LN2@xmlFreeZMe:

; 1456 : 
; 1457 :     xmlFree( buff->zbuff );

	mov	esi, esp
	mov	eax, DWORD PTR _buff$[ebp]
	mov	ecx, DWORD PTR [eax+8]
	push	ecx
	call	DWORD PTR _xmlFree
	add	esp, 4
	cmp	esi, esp
	call	__RTC_CheckEsp

; 1458 : #ifdef DEBUG_HTTP
; 1459 :     z_err = deflateEnd( &buff->zctrl );
; 1460 :     if ( z_err != Z_OK )
; 1461 : 	xmlGenericError( xmlGenericErrorContext,
; 1462 : 			"xmlFreeZMemBuff:  Error releasing zlib context:  %d\n",
; 1463 : 			z_err );
; 1464 : #else
; 1465 :     deflateEnd( &buff->zctrl );

	mov	edx, DWORD PTR _buff$[ebp]
	add	edx, 12					; 0000000cH
	push	edx
	call	_deflateEnd@4

; 1466 : #endif
; 1467 : 
; 1468 :     xmlFree( buff );

	mov	esi, esp
	mov	eax, DWORD PTR _buff$[ebp]
	push	eax
	call	DWORD PTR _xmlFree
	add	esp, 4
	cmp	esi, esp
	call	__RTC_CheckEsp
$LN1@xmlFreeZMe:

; 1469 :     return;
; 1470 : }

	pop	esi
	cmp	ebp, esp
	call	__RTC_CheckEsp
	pop	ebp
	ret	0
_xmlFreeZMemBuff ENDP
_TEXT	ENDS
; Function compile flags: /Odtp /RTCsu
; File c:\users\dag\documents\_clients\codeproject authors group\windows on arm\libxml2\libxml2-2.9.9\xmlio.c
;	COMDAT _append_reverse_ulong
_TEXT	SEGMENT
_idx$ = -4						; size = 4
_buff$ = 8						; size = 4
_data$ = 12						; size = 4
_append_reverse_ulong PROC				; COMDAT

; 1417 : append_reverse_ulong( xmlZMemBuff * buff, unsigned long data ) {

	push	ebp
	mov	ebp, esp
	push	ecx
	mov	DWORD PTR [ebp-4], -858993460		; ccccccccH
	mov	ecx, OFFSET __7D5E66B2_xmlio@c
	call	@__CheckForDebuggerJustMyCode@4

; 1418 : 
; 1419 :     int		idx;
; 1420 : 
; 1421 :     if ( buff == NULL )

	cmp	DWORD PTR _buff$[ebp], 0
	jne	SHORT $LN5@append_rev

; 1422 : 	return;

	jmp	SHORT $LN1@append_rev
$LN5@append_rev:

; 1423 : 
; 1424 :     /*
; 1425 :     **  This is plagiarized from putLong in gzio.c (zlib source) where
; 1426 :     **  the number "4" is hardcoded.  If zlib is ever patched to
; 1427 :     **  support 64 bit file sizes, this code would need to be patched
; 1428 :     **  as well.
; 1429 :     */
; 1430 : 
; 1431 :     for ( idx = 0; idx < 4; idx++ ) {

	mov	DWORD PTR _idx$[ebp], 0
	jmp	SHORT $LN4@append_rev
$LN2@append_rev:
	mov	eax, DWORD PTR _idx$[ebp]
	add	eax, 1
	mov	DWORD PTR _idx$[ebp], eax
$LN4@append_rev:
	cmp	DWORD PTR _idx$[ebp], 4
	jge	SHORT $LN1@append_rev

; 1432 : 	*buff->zctrl.next_out = ( data & 0xff );

	mov	ecx, DWORD PTR _data$[ebp]
	and	ecx, 255				; 000000ffH
	mov	edx, DWORD PTR _buff$[ebp]
	mov	eax, DWORD PTR [edx+24]
	mov	BYTE PTR [eax], cl

; 1433 : 	data >>= 8;

	mov	ecx, DWORD PTR _data$[ebp]
	shr	ecx, 8
	mov	DWORD PTR _data$[ebp], ecx

; 1434 : 	buff->zctrl.next_out++;

	mov	edx, DWORD PTR _buff$[ebp]
	mov	eax, DWORD PTR [edx+24]
	add	eax, 1
	mov	ecx, DWORD PTR _buff$[ebp]
	mov	DWORD PTR [ecx+24], eax

; 1435 :     }

	jmp	SHORT $LN2@append_rev
$LN1@append_rev:

; 1436 : 
; 1437 :     return;
; 1438 : }

	add	esp, 4
	cmp	ebp, esp
	call	__RTC_CheckEsp
	mov	esp, ebp
	pop	ebp
	ret	0
_append_reverse_ulong ENDP
_TEXT	ENDS
; Function compile flags: /Odtp /RTCsu
; File c:\users\dag\documents\_clients\codeproject authors group\windows on arm\libxml2\libxml2-2.9.9\xmlio.c
;	COMDAT _xmlXzfileClose
_TEXT	SEGMENT
tv67 = -8						; size = 4
_ret$ = -4						; size = 4
_context$ = 8						; size = 4
_xmlXzfileClose PROC					; COMDAT

; 1356 : xmlXzfileClose (void * context) {

	push	ebp
	mov	ebp, esp
	sub	esp, 8
	mov	DWORD PTR [ebp-8], -858993460		; ccccccccH
	mov	DWORD PTR [ebp-4], -858993460		; ccccccccH
	mov	ecx, OFFSET __7D5E66B2_xmlio@c
	call	@__CheckForDebuggerJustMyCode@4

; 1357 :     int ret;
; 1358 : 
; 1359 :     ret =  (__libxml2_xzclose((xzFile) context) == LZMA_OK ) ? 0 : -1;

	mov	eax, DWORD PTR _context$[ebp]
	push	eax
	call	___libxml2_xzclose
	add	esp, 4
	test	eax, eax
	jne	SHORT $LN4@xmlXzfileC
	mov	DWORD PTR tv67[ebp], 0
	jmp	SHORT $LN5@xmlXzfileC
$LN4@xmlXzfileC:
	mov	DWORD PTR tv67[ebp], -1
$LN5@xmlXzfileC:
	mov	ecx, DWORD PTR tv67[ebp]
	mov	DWORD PTR _ret$[ebp], ecx

; 1360 :     if (ret < 0) xmlIOErr(0, "xzclose()");

	cmp	DWORD PTR _ret$[ebp], 0
	jge	SHORT $LN2@xmlXzfileC
	push	OFFSET ??_C@_09LHCEDCHF@xzclose?$CI?$CJ@
	push	0
	call	_xmlIOErr
	add	esp, 8
$LN2@xmlXzfileC:

; 1361 :     return(ret);

	mov	eax, DWORD PTR _ret$[ebp]

; 1362 : }

	add	esp, 8
	cmp	ebp, esp
	call	__RTC_CheckEsp
	mov	esp, ebp
	pop	ebp
	ret	0
_xmlXzfileClose ENDP
_TEXT	ENDS
; Function compile flags: /Odtp /RTCsu
; File c:\users\dag\documents\_clients\codeproject authors group\windows on arm\libxml2\libxml2-2.9.9\xmlio.c
;	COMDAT _xmlXzfileRead
_TEXT	SEGMENT
_ret$ = -4						; size = 4
_context$ = 8						; size = 4
_buffer$ = 12						; size = 4
_len$ = 16						; size = 4
_xmlXzfileRead PROC					; COMDAT

; 1341 : xmlXzfileRead (void * context, char * buffer, int len) {

	push	ebp
	mov	ebp, esp
	push	ecx
	mov	DWORD PTR [ebp-4], -858993460		; ccccccccH
	mov	ecx, OFFSET __7D5E66B2_xmlio@c
	call	@__CheckForDebuggerJustMyCode@4

; 1342 :     int ret;
; 1343 : 
; 1344 :     ret = __libxml2_xzread((xzFile) context, &buffer[0], len);

	mov	eax, DWORD PTR _len$[ebp]
	push	eax
	mov	ecx, 1
	imul	edx, ecx, 0
	add	edx, DWORD PTR _buffer$[ebp]
	push	edx
	mov	eax, DWORD PTR _context$[ebp]
	push	eax
	call	___libxml2_xzread
	add	esp, 12					; 0000000cH
	mov	DWORD PTR _ret$[ebp], eax

; 1345 :     if (ret < 0) xmlIOErr(0, "xzread()");

	cmp	DWORD PTR _ret$[ebp], 0
	jge	SHORT $LN2@xmlXzfileR
	push	OFFSET ??_C@_08CONNOODF@xzread?$CI?$CJ@
	push	0
	call	_xmlIOErr
	add	esp, 8
$LN2@xmlXzfileR:

; 1346 :     return(ret);

	mov	eax, DWORD PTR _ret$[ebp]

; 1347 : }

	add	esp, 4
	cmp	ebp, esp
	call	__RTC_CheckEsp
	mov	esp, ebp
	pop	ebp
	ret	0
_xmlXzfileRead ENDP
_TEXT	ENDS
; Function compile flags: /Odtp /RTCsu
; File c:\users\dag\documents\_clients\codeproject authors group\windows on arm\libxml2\libxml2-2.9.9\xmlio.c
;	COMDAT _xmlXzfileOpen
_TEXT	SEGMENT
_retval$ = -8						; size = 4
_unescaped$ = -4					; size = 4
_filename$ = 8						; size = 4
_xmlXzfileOpen PROC					; COMDAT

; 1314 : xmlXzfileOpen (const char *filename) {

	push	ebp
	mov	ebp, esp
	sub	esp, 8
	push	esi
	mov	DWORD PTR [ebp-8], -858993460		; ccccccccH
	mov	DWORD PTR [ebp-4], -858993460		; ccccccccH
	mov	ecx, OFFSET __7D5E66B2_xmlio@c
	call	@__CheckForDebuggerJustMyCode@4

; 1315 :     char *unescaped;
; 1316 :     void *retval;
; 1317 : 
; 1318 :     retval = xmlXzfileOpen_real(filename);

	mov	eax, DWORD PTR _filename$[ebp]
	push	eax
	call	_xmlXzfileOpen_real
	add	esp, 4
	mov	DWORD PTR _retval$[ebp], eax

; 1319 :     if (retval == NULL) {

	cmp	DWORD PTR _retval$[ebp], 0
	jne	SHORT $LN2@xmlXzfileO

; 1320 : 	unescaped = xmlURIUnescapeString(filename, 0, NULL);

	push	0
	push	0
	mov	ecx, DWORD PTR _filename$[ebp]
	push	ecx
	call	_xmlURIUnescapeString
	add	esp, 12					; 0000000cH
	mov	DWORD PTR _unescaped$[ebp], eax

; 1321 : 	if (unescaped != NULL) {

	cmp	DWORD PTR _unescaped$[ebp], 0
	je	SHORT $LN3@xmlXzfileO

; 1322 : 	    retval = xmlXzfileOpen_real(unescaped);

	mov	edx, DWORD PTR _unescaped$[ebp]
	push	edx
	call	_xmlXzfileOpen_real
	add	esp, 4
	mov	DWORD PTR _retval$[ebp], eax
$LN3@xmlXzfileO:

; 1323 : 	}
; 1324 : 	xmlFree(unescaped);

	mov	esi, esp
	mov	eax, DWORD PTR _unescaped$[ebp]
	push	eax
	call	DWORD PTR _xmlFree
	add	esp, 4
	cmp	esi, esp
	call	__RTC_CheckEsp
$LN2@xmlXzfileO:

; 1325 :     }
; 1326 : 
; 1327 :     return retval;

	mov	eax, DWORD PTR _retval$[ebp]

; 1328 : }

	pop	esi
	add	esp, 8
	cmp	ebp, esp
	call	__RTC_CheckEsp
	mov	esp, ebp
	pop	ebp
	ret	0
_xmlXzfileOpen ENDP
_TEXT	ENDS
; Function compile flags: /Odtp /RTCsu
; File c:\users\dag\documents\_clients\codeproject authors group\windows on arm\libxml2\libxml2-2.9.9\xmlio.c
;	COMDAT _xmlXzfileOpen_real
_TEXT	SEGMENT
tv67 = -28						; size = 4
tv156 = -24						; size = 4
tv151 = -18						; size = 1
tv144 = -17						; size = 1
tv139 = -16						; size = 4
tv141 = -12						; size = 4
_fd$ = -8						; size = 4
_path$ = -4						; size = 4
_filename$ = 8						; size = 4
_xmlXzfileOpen_real PROC				; COMDAT

; 1276 : xmlXzfileOpen_real (const char *filename) {

	push	ebp
	mov	ebp, esp
	sub	esp, 28					; 0000001cH
	push	esi
	mov	eax, -858993460				; ccccccccH
	mov	DWORD PTR [ebp-28], eax
	mov	DWORD PTR [ebp-24], eax
	mov	DWORD PTR [ebp-20], eax
	mov	DWORD PTR [ebp-16], eax
	mov	DWORD PTR [ebp-12], eax
	mov	DWORD PTR [ebp-8], eax
	mov	DWORD PTR [ebp-4], eax
	mov	ecx, OFFSET __7D5E66B2_xmlio@c
	call	@__CheckForDebuggerJustMyCode@4

; 1277 :     const char *path = NULL;

	mov	DWORD PTR _path$[ebp], 0

; 1278 :     xzFile fd;
; 1279 : 
; 1280 :     if (!strcmp(filename, "-")) {

	mov	DWORD PTR tv141[ebp], OFFSET ??_C@_01JOAMLHOP@?9@
	mov	eax, DWORD PTR _filename$[ebp]
	mov	DWORD PTR tv139[ebp], eax
$LL12@xmlXzfileO:
	mov	ecx, DWORD PTR tv139[ebp]
	mov	dl, BYTE PTR [ecx]
	mov	BYTE PTR tv144[ebp], dl
	mov	eax, DWORD PTR tv141[ebp]
	cmp	dl, BYTE PTR [eax]
	jne	SHORT $LN13@xmlXzfileO
	cmp	BYTE PTR tv144[ebp], 0
	je	SHORT $LN14@xmlXzfileO
	mov	ecx, DWORD PTR tv139[ebp]
	mov	dl, BYTE PTR [ecx+1]
	mov	BYTE PTR tv151[ebp], dl
	mov	eax, DWORD PTR tv141[ebp]
	cmp	dl, BYTE PTR [eax+1]
	jne	SHORT $LN13@xmlXzfileO
	add	DWORD PTR tv139[ebp], 2
	add	DWORD PTR tv141[ebp], 2
	cmp	BYTE PTR tv151[ebp], 0
	jne	SHORT $LL12@xmlXzfileO
$LN14@xmlXzfileO:
	mov	DWORD PTR tv156[ebp], 0
	jmp	SHORT $LN15@xmlXzfileO
$LN13@xmlXzfileO:
	sbb	ecx, ecx
	or	ecx, 1
	mov	DWORD PTR tv156[ebp], ecx
$LN15@xmlXzfileO:
	mov	edx, DWORD PTR tv156[ebp]
	mov	DWORD PTR tv67[ebp], edx
	cmp	DWORD PTR tv67[ebp], 0
	jne	SHORT $LN2@xmlXzfileO

; 1281 :         fd = __libxml2_xzdopen(dup(fileno(stdin)), "rb");

	push	OFFSET ??_C@_02JDPG@rb@
	mov	esi, esp
	push	0
	call	DWORD PTR __imp____acrt_iob_func
	add	esp, 4
	cmp	esi, esp
	call	__RTC_CheckEsp
	mov	esi, esp
	push	eax
	call	DWORD PTR __imp__fileno
	add	esp, 4
	cmp	esi, esp
	call	__RTC_CheckEsp
	mov	esi, esp
	push	eax
	call	DWORD PTR __imp__dup
	add	esp, 4
	cmp	esi, esp
	call	__RTC_CheckEsp
	push	eax
	call	___libxml2_xzdopen
	add	esp, 8
	mov	DWORD PTR _fd$[ebp], eax

; 1282 : 	return((void *) fd);

	mov	eax, DWORD PTR _fd$[ebp]
	jmp	$LN1@xmlXzfileO
$LN2@xmlXzfileO:

; 1283 :     }
; 1284 : 
; 1285 :     if (!xmlStrncasecmp(BAD_CAST filename, BAD_CAST "file://localhost/", 17)) {

	push	17					; 00000011H
	push	OFFSET ??_C@_0BC@IDKAIMBK@file?3?1?1localhost?1@
	mov	eax, DWORD PTR _filename$[ebp]
	push	eax
	call	_xmlStrncasecmp
	add	esp, 12					; 0000000cH
	test	eax, eax
	jne	SHORT $LN3@xmlXzfileO

; 1286 : 	path = &filename[16];

	mov	ecx, 1
	shl	ecx, 4
	add	ecx, DWORD PTR _filename$[ebp]
	mov	DWORD PTR _path$[ebp], ecx
	jmp	SHORT $LN4@xmlXzfileO
$LN3@xmlXzfileO:

; 1287 :     } else if (!xmlStrncasecmp(BAD_CAST filename, BAD_CAST "file:///", 8)) {

	push	8
	push	OFFSET ??_C@_08NPMJDGGI@file?3?1?1?1@
	mov	edx, DWORD PTR _filename$[ebp]
	push	edx
	call	_xmlStrncasecmp
	add	esp, 12					; 0000000cH
	test	eax, eax
	jne	SHORT $LN5@xmlXzfileO

; 1288 : 	path = &filename[7];

	mov	eax, 1
	imul	ecx, eax, 7
	add	ecx, DWORD PTR _filename$[ebp]
	mov	DWORD PTR _path$[ebp], ecx
	jmp	SHORT $LN4@xmlXzfileO
$LN5@xmlXzfileO:

; 1289 :     } else if (!xmlStrncasecmp(BAD_CAST filename, BAD_CAST "file:/", 6)) {

	push	6
	push	OFFSET ??_C@_06MONEMCJK@file?3?1@
	mov	edx, DWORD PTR _filename$[ebp]
	push	edx
	call	_xmlStrncasecmp
	add	esp, 12					; 0000000cH
	test	eax, eax
	jne	SHORT $LN7@xmlXzfileO

; 1290 :         /* lots of generators seems to lazy to read RFC 1738 */
; 1291 : 	path = &filename[5];

	mov	eax, 1
	imul	ecx, eax, 5
	add	ecx, DWORD PTR _filename$[ebp]
	mov	DWORD PTR _path$[ebp], ecx

; 1292 :     } else

	jmp	SHORT $LN4@xmlXzfileO
$LN7@xmlXzfileO:

; 1293 : 	path = filename;

	mov	edx, DWORD PTR _filename$[ebp]
	mov	DWORD PTR _path$[ebp], edx
$LN4@xmlXzfileO:

; 1294 : 
; 1295 :     if (path == NULL)

	cmp	DWORD PTR _path$[ebp], 0
	jne	SHORT $LN9@xmlXzfileO

; 1296 : 	return(NULL);

	xor	eax, eax
	jmp	SHORT $LN1@xmlXzfileO
$LN9@xmlXzfileO:

; 1297 :     if (!xmlCheckFilename(path))

	mov	eax, DWORD PTR _path$[ebp]
	push	eax
	call	_xmlCheckFilename
	add	esp, 4
	test	eax, eax
	jne	SHORT $LN10@xmlXzfileO

; 1298 :         return(NULL);

	xor	eax, eax
	jmp	SHORT $LN1@xmlXzfileO
$LN10@xmlXzfileO:

; 1299 : 
; 1300 :     fd = __libxml2_xzopen(path, "rb");

	push	OFFSET ??_C@_02JDPG@rb@
	mov	ecx, DWORD PTR _path$[ebp]
	push	ecx
	call	___libxml2_xzopen
	add	esp, 8
	mov	DWORD PTR _fd$[ebp], eax

; 1301 :     return((void *) fd);

	mov	eax, DWORD PTR _fd$[ebp]
$LN1@xmlXzfileO:

; 1302 : }

	pop	esi
	add	esp, 28					; 0000001cH
	cmp	ebp, esp
	call	__RTC_CheckEsp
	mov	esp, ebp
	pop	ebp
	ret	0
_xmlXzfileOpen_real ENDP
_TEXT	ENDS
; Function compile flags: /Odtp /RTCsu
; File c:\users\dag\documents\_clients\codeproject authors group\windows on arm\libxml2\libxml2-2.9.9\xmlio.c
;	COMDAT _xmlXzfileMatch
_TEXT	SEGMENT
_filename$ = 8						; size = 4
_xmlXzfileMatch PROC					; COMDAT

; 1262 : xmlXzfileMatch (const char *filename ATTRIBUTE_UNUSED) {

	push	ebp
	mov	ebp, esp
	mov	ecx, OFFSET __7D5E66B2_xmlio@c
	call	@__CheckForDebuggerJustMyCode@4

; 1263 :     return(1);

	mov	eax, 1

; 1264 : }

	cmp	ebp, esp
	call	__RTC_CheckEsp
	pop	ebp
	ret	0
_xmlXzfileMatch ENDP
_TEXT	ENDS
; Function compile flags: /Odtp /RTCsu
; File c:\users\dag\documents\_clients\codeproject authors group\windows on arm\libxml2\libxml2-2.9.9\xmlio.c
;	COMDAT _xmlGzfileClose
_TEXT	SEGMENT
tv67 = -8						; size = 4
_ret$ = -4						; size = 4
_context$ = 8						; size = 4
_xmlGzfileClose PROC					; COMDAT

; 1237 : xmlGzfileClose (void * context) {

	push	ebp
	mov	ebp, esp
	sub	esp, 8
	mov	DWORD PTR [ebp-8], -858993460		; ccccccccH
	mov	DWORD PTR [ebp-4], -858993460		; ccccccccH
	mov	ecx, OFFSET __7D5E66B2_xmlio@c
	call	@__CheckForDebuggerJustMyCode@4

; 1238 :     int ret;
; 1239 : 
; 1240 :     ret =  (gzclose((gzFile) context) == Z_OK ) ? 0 : -1;

	mov	eax, DWORD PTR _context$[ebp]
	push	eax
	call	_gzclose@4
	test	eax, eax
	jne	SHORT $LN4@xmlGzfileC
	mov	DWORD PTR tv67[ebp], 0
	jmp	SHORT $LN5@xmlGzfileC
$LN4@xmlGzfileC:
	mov	DWORD PTR tv67[ebp], -1
$LN5@xmlGzfileC:
	mov	ecx, DWORD PTR tv67[ebp]
	mov	DWORD PTR _ret$[ebp], ecx

; 1241 :     if (ret < 0) xmlIOErr(0, "gzclose()");

	cmp	DWORD PTR _ret$[ebp], 0
	jge	SHORT $LN2@xmlGzfileC
	push	OFFSET ??_C@_09GBIBOIBA@gzclose?$CI?$CJ@
	push	0
	call	_xmlIOErr
	add	esp, 8
$LN2@xmlGzfileC:

; 1242 :     return(ret);

	mov	eax, DWORD PTR _ret$[ebp]

; 1243 : }

	add	esp, 8
	cmp	ebp, esp
	call	__RTC_CheckEsp
	mov	esp, ebp
	pop	ebp
	ret	0
_xmlGzfileClose ENDP
_TEXT	ENDS
; Function compile flags: /Odtp /RTCsu
; File c:\users\dag\documents\_clients\codeproject authors group\windows on arm\libxml2\libxml2-2.9.9\xmlio.c
;	COMDAT _xmlGzfileWrite
_TEXT	SEGMENT
_ret$ = -4						; size = 4
_context$ = 8						; size = 4
_buffer$ = 12						; size = 4
_len$ = 16						; size = 4
_xmlGzfileWrite PROC					; COMDAT

; 1221 : xmlGzfileWrite (void * context, const char * buffer, int len) {

	push	ebp
	mov	ebp, esp
	push	ecx
	mov	DWORD PTR [ebp-4], -858993460		; ccccccccH
	mov	ecx, OFFSET __7D5E66B2_xmlio@c
	call	@__CheckForDebuggerJustMyCode@4

; 1222 :     int ret;
; 1223 : 
; 1224 :     ret = gzwrite((gzFile) context, (char *) &buffer[0], len);

	mov	eax, DWORD PTR _len$[ebp]
	push	eax
	mov	ecx, 1
	imul	edx, ecx, 0
	add	edx, DWORD PTR _buffer$[ebp]
	push	edx
	mov	eax, DWORD PTR _context$[ebp]
	push	eax
	call	_gzwrite@12
	mov	DWORD PTR _ret$[ebp], eax

; 1225 :     if (ret < 0) xmlIOErr(0, "gzwrite()");

	cmp	DWORD PTR _ret$[ebp], 0
	jge	SHORT $LN2@xmlGzfileW
	push	OFFSET ??_C@_09MKOIAPFP@gzwrite?$CI?$CJ@
	push	0
	call	_xmlIOErr
	add	esp, 8
$LN2@xmlGzfileW:

; 1226 :     return(ret);

	mov	eax, DWORD PTR _ret$[ebp]

; 1227 : }

	add	esp, 4
	cmp	ebp, esp
	call	__RTC_CheckEsp
	mov	esp, ebp
	pop	ebp
	ret	0
_xmlGzfileWrite ENDP
_TEXT	ENDS
; Function compile flags: /Odtp /RTCsu
; File c:\users\dag\documents\_clients\codeproject authors group\windows on arm\libxml2\libxml2-2.9.9\xmlio.c
;	COMDAT _xmlGzfileRead
_TEXT	SEGMENT
_ret$ = -4						; size = 4
_context$ = 8						; size = 4
_buffer$ = 12						; size = 4
_len$ = 16						; size = 4
_xmlGzfileRead PROC					; COMDAT

; 1201 : xmlGzfileRead (void * context, char * buffer, int len) {

	push	ebp
	mov	ebp, esp
	push	ecx
	mov	DWORD PTR [ebp-4], -858993460		; ccccccccH
	mov	ecx, OFFSET __7D5E66B2_xmlio@c
	call	@__CheckForDebuggerJustMyCode@4

; 1202 :     int ret;
; 1203 : 
; 1204 :     ret = gzread((gzFile) context, &buffer[0], len);

	mov	eax, DWORD PTR _len$[ebp]
	push	eax
	mov	ecx, 1
	imul	edx, ecx, 0
	add	edx, DWORD PTR _buffer$[ebp]
	push	edx
	mov	eax, DWORD PTR _context$[ebp]
	push	eax
	call	_gzread@12
	mov	DWORD PTR _ret$[ebp], eax

; 1205 :     if (ret < 0) xmlIOErr(0, "gzread()");

	cmp	DWORD PTR _ret$[ebp], 0
	jge	SHORT $LN2@xmlGzfileR
	push	OFFSET ??_C@_08FNKEGDJF@gzread?$CI?$CJ@
	push	0
	call	_xmlIOErr
	add	esp, 8
$LN2@xmlGzfileR:

; 1206 :     return(ret);

	mov	eax, DWORD PTR _ret$[ebp]

; 1207 : }

	add	esp, 4
	cmp	ebp, esp
	call	__RTC_CheckEsp
	mov	esp, ebp
	pop	ebp
	ret	0
_xmlGzfileRead ENDP
_TEXT	ENDS
; Function compile flags: /Odtp /RTCsu
; File c:\users\dag\documents\_clients\codeproject authors group\windows on arm\libxml2\libxml2-2.9.9\xmlio.c
;	COMDAT _xmlGzfileOpenW
_TEXT	SEGMENT
tv71 = -56						; size = 4
tv155 = -52						; size = 4
tv150 = -46						; size = 1
tv143 = -45						; size = 1
tv138 = -44						; size = 4
tv140 = -40						; size = 4
_duped_fd$1 = -36					; size = 4
_fd$ = -32						; size = 4
_mode$ = -24						; size = 15
_path$ = -4						; size = 4
_filename$ = 8						; size = 4
_compression$ = 12					; size = 4
_xmlGzfileOpenW PROC					; COMDAT

; 1147 : xmlGzfileOpenW (const char *filename, int compression) {

	push	ebp
	mov	ebp, esp
	sub	esp, 56					; 00000038H
	push	esi
	push	edi
	lea	edi, DWORD PTR [ebp-56]
	mov	ecx, 14					; 0000000eH
	mov	eax, -858993460				; ccccccccH
	rep stosd
	mov	ecx, OFFSET __7D5E66B2_xmlio@c
	call	@__CheckForDebuggerJustMyCode@4

; 1148 :     const char *path = NULL;

	mov	DWORD PTR _path$[ebp], 0

; 1149 :     char mode[15];
; 1150 :     gzFile fd;
; 1151 : 
; 1152 :     snprintf(mode, sizeof(mode), "wb%d", compression);

	mov	eax, DWORD PTR _compression$[ebp]
	push	eax
	push	OFFSET ??_C@_04NMBHCBBN@wb?$CFd@
	push	15					; 0000000fH
	lea	ecx, DWORD PTR _mode$[ebp]
	push	ecx
	call	_snprintf
	add	esp, 16					; 00000010H

; 1153 :     if (!strcmp(filename, "-")) {

	mov	DWORD PTR tv140[ebp], OFFSET ??_C@_01JOAMLHOP@?9@
	mov	edx, DWORD PTR _filename$[ebp]
	mov	DWORD PTR tv138[ebp], edx
$LL10@xmlGzfileO:
	mov	eax, DWORD PTR tv138[ebp]
	mov	cl, BYTE PTR [eax]
	mov	BYTE PTR tv143[ebp], cl
	mov	edx, DWORD PTR tv140[ebp]
	cmp	cl, BYTE PTR [edx]
	jne	SHORT $LN11@xmlGzfileO
	cmp	BYTE PTR tv143[ebp], 0
	je	SHORT $LN12@xmlGzfileO
	mov	eax, DWORD PTR tv138[ebp]
	mov	cl, BYTE PTR [eax+1]
	mov	BYTE PTR tv150[ebp], cl
	mov	edx, DWORD PTR tv140[ebp]
	cmp	cl, BYTE PTR [edx+1]
	jne	SHORT $LN11@xmlGzfileO
	add	DWORD PTR tv138[ebp], 2
	add	DWORD PTR tv140[ebp], 2
	cmp	BYTE PTR tv150[ebp], 0
	jne	SHORT $LL10@xmlGzfileO
$LN12@xmlGzfileO:
	mov	DWORD PTR tv155[ebp], 0
	jmp	SHORT $LN13@xmlGzfileO
$LN11@xmlGzfileO:
	sbb	eax, eax
	or	eax, 1
	mov	DWORD PTR tv155[ebp], eax
$LN13@xmlGzfileO:
	mov	ecx, DWORD PTR tv155[ebp]
	mov	DWORD PTR tv71[ebp], ecx
	cmp	DWORD PTR tv71[ebp], 0
	jne	SHORT $LN2@xmlGzfileO

; 1154 :         int duped_fd = dup(fileno(stdout));

	mov	esi, esp
	push	1
	call	DWORD PTR __imp____acrt_iob_func
	add	esp, 4
	cmp	esi, esp
	call	__RTC_CheckEsp
	mov	esi, esp
	push	eax
	call	DWORD PTR __imp__fileno
	add	esp, 4
	cmp	esi, esp
	call	__RTC_CheckEsp
	mov	esi, esp
	push	eax
	call	DWORD PTR __imp__dup
	add	esp, 4
	cmp	esi, esp
	call	__RTC_CheckEsp
	mov	DWORD PTR _duped_fd$1[ebp], eax

; 1155 :         fd = gzdopen(duped_fd, "rb");

	push	OFFSET ??_C@_02JDPG@rb@
	mov	edx, DWORD PTR _duped_fd$1[ebp]
	push	edx
	call	_gzdopen@8
	mov	DWORD PTR _fd$[ebp], eax

; 1156 :         if (fd == Z_NULL && duped_fd >= 0) {

	cmp	DWORD PTR _fd$[ebp], 0
	jne	SHORT $LN3@xmlGzfileO
	cmp	DWORD PTR _duped_fd$1[ebp], 0
	jl	SHORT $LN3@xmlGzfileO

; 1157 :             close(duped_fd);  /* gzdOpen() does not close on failure */

	mov	esi, esp
	mov	eax, DWORD PTR _duped_fd$1[ebp]
	push	eax
	call	DWORD PTR __imp__close
	add	esp, 4
	cmp	esi, esp
	call	__RTC_CheckEsp
$LN3@xmlGzfileO:

; 1158 :         }
; 1159 : 
; 1160 : 	return((void *) fd);

	mov	eax, DWORD PTR _fd$[ebp]
	jmp	SHORT $LN1@xmlGzfileO
$LN2@xmlGzfileO:

; 1161 :     }
; 1162 : 
; 1163 :     if (!xmlStrncasecmp(BAD_CAST filename, BAD_CAST "file://localhost/", 17))

	push	17					; 00000011H
	push	OFFSET ??_C@_0BC@IDKAIMBK@file?3?1?1localhost?1@
	mov	ecx, DWORD PTR _filename$[ebp]
	push	ecx
	call	_xmlStrncasecmp
	add	esp, 12					; 0000000cH
	test	eax, eax
	jne	SHORT $LN4@xmlGzfileO

; 1164 : #if defined (_WIN32) || defined (__DJGPP__) && !defined(__CYGWIN__)
; 1165 : 	path = &filename[17];

	mov	edx, 1
	imul	eax, edx, 17
	add	eax, DWORD PTR _filename$[ebp]
	mov	DWORD PTR _path$[ebp], eax
	jmp	SHORT $LN5@xmlGzfileO
$LN4@xmlGzfileO:

; 1166 : #else
; 1167 : 	path = &filename[16];
; 1168 : #endif
; 1169 :     else if (!xmlStrncasecmp(BAD_CAST filename, BAD_CAST "file:///", 8)) {

	push	8
	push	OFFSET ??_C@_08NPMJDGGI@file?3?1?1?1@
	mov	ecx, DWORD PTR _filename$[ebp]
	push	ecx
	call	_xmlStrncasecmp
	add	esp, 12					; 0000000cH
	test	eax, eax
	jne	SHORT $LN6@xmlGzfileO

; 1170 : #if defined (_WIN32) || defined (__DJGPP__) && !defined(__CYGWIN__)
; 1171 : 	path = &filename[8];

	mov	edx, 1
	shl	edx, 3
	add	edx, DWORD PTR _filename$[ebp]
	mov	DWORD PTR _path$[ebp], edx

; 1172 : #else
; 1173 : 	path = &filename[7];
; 1174 : #endif
; 1175 :     } else

	jmp	SHORT $LN5@xmlGzfileO
$LN6@xmlGzfileO:

; 1176 : 	path = filename;

	mov	eax, DWORD PTR _filename$[ebp]
	mov	DWORD PTR _path$[ebp], eax
$LN5@xmlGzfileO:

; 1177 : 
; 1178 :     if (path == NULL)

	cmp	DWORD PTR _path$[ebp], 0
	jne	SHORT $LN8@xmlGzfileO

; 1179 : 	return(NULL);

	xor	eax, eax
	jmp	SHORT $LN1@xmlGzfileO
$LN8@xmlGzfileO:

; 1180 : 
; 1181 : #if defined(_WIN32) || defined (__DJGPP__) && !defined (__CYGWIN__)
; 1182 :     fd = xmlWrapGzOpenUtf8(path, mode);

	lea	ecx, DWORD PTR _mode$[ebp]
	push	ecx
	mov	edx, DWORD PTR _path$[ebp]
	push	edx
	call	_xmlWrapGzOpenUtf8
	add	esp, 8
	mov	DWORD PTR _fd$[ebp], eax

; 1183 : #else
; 1184 :     fd = gzopen(path, mode);
; 1185 : #endif
; 1186 :     return((void *) fd);

	mov	eax, DWORD PTR _fd$[ebp]
$LN1@xmlGzfileO:

; 1187 : }

	push	edx
	mov	ecx, ebp
	push	eax
	lea	edx, DWORD PTR $LN16@xmlGzfileO
	call	@_RTC_CheckStackVars@8
	pop	eax
	pop	edx
	pop	edi
	pop	esi
	add	esp, 56					; 00000038H
	cmp	ebp, esp
	call	__RTC_CheckEsp
	mov	esp, ebp
	pop	ebp
	ret	0
	npad	1
$LN16@xmlGzfileO:
	DD	1
	DD	$LN15@xmlGzfileO
$LN15@xmlGzfileO:
	DD	-24					; ffffffe8H
	DD	15					; 0000000fH
	DD	$LN14@xmlGzfileO
$LN14@xmlGzfileO:
	DB	109					; 0000006dH
	DB	111					; 0000006fH
	DB	100					; 00000064H
	DB	101					; 00000065H
	DB	0
_xmlGzfileOpenW ENDP
_TEXT	ENDS
; Function compile flags: /Odtp /RTCsu
; File c:\users\dag\documents\_clients\codeproject authors group\windows on arm\libxml2\libxml2-2.9.9\xmlio.c
;	COMDAT _xmlGzfileOpen
_TEXT	SEGMENT
_retval$ = -8						; size = 4
_unescaped$ = -4					; size = 4
_filename$ = 8						; size = 4
_xmlGzfileOpen PROC					; COMDAT

; 1120 : xmlGzfileOpen (const char *filename) {

	push	ebp
	mov	ebp, esp
	sub	esp, 8
	push	esi
	mov	DWORD PTR [ebp-8], -858993460		; ccccccccH
	mov	DWORD PTR [ebp-4], -858993460		; ccccccccH
	mov	ecx, OFFSET __7D5E66B2_xmlio@c
	call	@__CheckForDebuggerJustMyCode@4

; 1121 :     char *unescaped;
; 1122 :     void *retval;
; 1123 : 
; 1124 :     retval = xmlGzfileOpen_real(filename);

	mov	eax, DWORD PTR _filename$[ebp]
	push	eax
	call	_xmlGzfileOpen_real
	add	esp, 4
	mov	DWORD PTR _retval$[ebp], eax

; 1125 :     if (retval == NULL) {

	cmp	DWORD PTR _retval$[ebp], 0
	jne	SHORT $LN2@xmlGzfileO

; 1126 : 	unescaped = xmlURIUnescapeString(filename, 0, NULL);

	push	0
	push	0
	mov	ecx, DWORD PTR _filename$[ebp]
	push	ecx
	call	_xmlURIUnescapeString
	add	esp, 12					; 0000000cH
	mov	DWORD PTR _unescaped$[ebp], eax

; 1127 : 	if (unescaped != NULL) {

	cmp	DWORD PTR _unescaped$[ebp], 0
	je	SHORT $LN3@xmlGzfileO

; 1128 : 	    retval = xmlGzfileOpen_real(unescaped);

	mov	edx, DWORD PTR _unescaped$[ebp]
	push	edx
	call	_xmlGzfileOpen_real
	add	esp, 4
	mov	DWORD PTR _retval$[ebp], eax
$LN3@xmlGzfileO:

; 1129 : 	}
; 1130 : 	xmlFree(unescaped);

	mov	esi, esp
	mov	eax, DWORD PTR _unescaped$[ebp]
	push	eax
	call	DWORD PTR _xmlFree
	add	esp, 4
	cmp	esi, esp
	call	__RTC_CheckEsp
$LN2@xmlGzfileO:

; 1131 :     }
; 1132 :     return retval;

	mov	eax, DWORD PTR _retval$[ebp]

; 1133 : }

	pop	esi
	add	esp, 8
	cmp	ebp, esp
	call	__RTC_CheckEsp
	mov	esp, ebp
	pop	ebp
	ret	0
_xmlGzfileOpen ENDP
_TEXT	ENDS
; Function compile flags: /Odtp /RTCsu
; File c:\users\dag\documents\_clients\codeproject authors group\windows on arm\libxml2\libxml2-2.9.9\xmlio.c
;	COMDAT _xmlGzfileOpen_real
_TEXT	SEGMENT
tv67 = -32						; size = 4
tv152 = -28						; size = 4
tv147 = -22						; size = 1
tv140 = -21						; size = 1
tv135 = -20						; size = 4
tv137 = -16						; size = 4
_duped_fd$1 = -12					; size = 4
_fd$ = -8						; size = 4
_path$ = -4						; size = 4
_filename$ = 8						; size = 4
_xmlGzfileOpen_real PROC				; COMDAT

; 1070 : xmlGzfileOpen_real (const char *filename) {

	push	ebp
	mov	ebp, esp
	sub	esp, 32					; 00000020H
	push	esi
	mov	eax, -858993460				; ccccccccH
	mov	DWORD PTR [ebp-32], eax
	mov	DWORD PTR [ebp-28], eax
	mov	DWORD PTR [ebp-24], eax
	mov	DWORD PTR [ebp-20], eax
	mov	DWORD PTR [ebp-16], eax
	mov	DWORD PTR [ebp-12], eax
	mov	DWORD PTR [ebp-8], eax
	mov	DWORD PTR [ebp-4], eax
	mov	ecx, OFFSET __7D5E66B2_xmlio@c
	call	@__CheckForDebuggerJustMyCode@4

; 1071 :     const char *path = NULL;

	mov	DWORD PTR _path$[ebp], 0

; 1072 :     gzFile fd;
; 1073 : 
; 1074 :     if (!strcmp(filename, "-")) {

	mov	DWORD PTR tv137[ebp], OFFSET ??_C@_01JOAMLHOP@?9@
	mov	eax, DWORD PTR _filename$[ebp]
	mov	DWORD PTR tv135[ebp], eax
$LL11@xmlGzfileO:
	mov	ecx, DWORD PTR tv135[ebp]
	mov	dl, BYTE PTR [ecx]
	mov	BYTE PTR tv140[ebp], dl
	mov	eax, DWORD PTR tv137[ebp]
	cmp	dl, BYTE PTR [eax]
	jne	SHORT $LN12@xmlGzfileO
	cmp	BYTE PTR tv140[ebp], 0
	je	SHORT $LN13@xmlGzfileO
	mov	ecx, DWORD PTR tv135[ebp]
	mov	dl, BYTE PTR [ecx+1]
	mov	BYTE PTR tv147[ebp], dl
	mov	eax, DWORD PTR tv137[ebp]
	cmp	dl, BYTE PTR [eax+1]
	jne	SHORT $LN12@xmlGzfileO
	add	DWORD PTR tv135[ebp], 2
	add	DWORD PTR tv137[ebp], 2
	cmp	BYTE PTR tv147[ebp], 0
	jne	SHORT $LL11@xmlGzfileO
$LN13@xmlGzfileO:
	mov	DWORD PTR tv152[ebp], 0
	jmp	SHORT $LN14@xmlGzfileO
$LN12@xmlGzfileO:
	sbb	ecx, ecx
	or	ecx, 1
	mov	DWORD PTR tv152[ebp], ecx
$LN14@xmlGzfileO:
	mov	edx, DWORD PTR tv152[ebp]
	mov	DWORD PTR tv67[ebp], edx
	cmp	DWORD PTR tv67[ebp], 0
	jne	SHORT $LN2@xmlGzfileO

; 1075 :         int duped_fd = dup(fileno(stdin));

	mov	esi, esp
	push	0
	call	DWORD PTR __imp____acrt_iob_func
	add	esp, 4
	cmp	esi, esp
	call	__RTC_CheckEsp
	mov	esi, esp
	push	eax
	call	DWORD PTR __imp__fileno
	add	esp, 4
	cmp	esi, esp
	call	__RTC_CheckEsp
	mov	esi, esp
	push	eax
	call	DWORD PTR __imp__dup
	add	esp, 4
	cmp	esi, esp
	call	__RTC_CheckEsp
	mov	DWORD PTR _duped_fd$1[ebp], eax

; 1076 :         fd = gzdopen(duped_fd, "rb");

	push	OFFSET ??_C@_02JDPG@rb@
	mov	eax, DWORD PTR _duped_fd$1[ebp]
	push	eax
	call	_gzdopen@8
	mov	DWORD PTR _fd$[ebp], eax

; 1077 :         if (fd == Z_NULL && duped_fd >= 0) {

	cmp	DWORD PTR _fd$[ebp], 0
	jne	SHORT $LN3@xmlGzfileO
	cmp	DWORD PTR _duped_fd$1[ebp], 0
	jl	SHORT $LN3@xmlGzfileO

; 1078 :             close(duped_fd);  /* gzdOpen() does not close on failure */

	mov	esi, esp
	mov	ecx, DWORD PTR _duped_fd$1[ebp]
	push	ecx
	call	DWORD PTR __imp__close
	add	esp, 4
	cmp	esi, esp
	call	__RTC_CheckEsp
$LN3@xmlGzfileO:

; 1079 :         }
; 1080 : 
; 1081 : 	return((void *) fd);

	mov	eax, DWORD PTR _fd$[ebp]
	jmp	$LN1@xmlGzfileO
$LN2@xmlGzfileO:

; 1082 :     }
; 1083 : 
; 1084 :     if (!xmlStrncasecmp(BAD_CAST filename, BAD_CAST "file://localhost/", 17))

	push	17					; 00000011H
	push	OFFSET ??_C@_0BC@IDKAIMBK@file?3?1?1localhost?1@
	mov	edx, DWORD PTR _filename$[ebp]
	push	edx
	call	_xmlStrncasecmp
	add	esp, 12					; 0000000cH
	test	eax, eax
	jne	SHORT $LN4@xmlGzfileO

; 1085 : #if defined (_WIN32) || defined (__DJGPP__) && !defined(__CYGWIN__)
; 1086 : 	path = &filename[17];

	mov	eax, 1
	imul	ecx, eax, 17
	add	ecx, DWORD PTR _filename$[ebp]
	mov	DWORD PTR _path$[ebp], ecx
	jmp	SHORT $LN5@xmlGzfileO
$LN4@xmlGzfileO:

; 1087 : #else
; 1088 : 	path = &filename[16];
; 1089 : #endif
; 1090 :     else if (!xmlStrncasecmp(BAD_CAST filename, BAD_CAST "file:///", 8)) {

	push	8
	push	OFFSET ??_C@_08NPMJDGGI@file?3?1?1?1@
	mov	edx, DWORD PTR _filename$[ebp]
	push	edx
	call	_xmlStrncasecmp
	add	esp, 12					; 0000000cH
	test	eax, eax
	jne	SHORT $LN6@xmlGzfileO

; 1091 : #if defined (_WIN32) || defined (__DJGPP__) && !defined(__CYGWIN__)
; 1092 : 	path = &filename[8];

	mov	eax, 1
	shl	eax, 3
	add	eax, DWORD PTR _filename$[ebp]
	mov	DWORD PTR _path$[ebp], eax

; 1093 : #else
; 1094 : 	path = &filename[7];
; 1095 : #endif
; 1096 :     } else

	jmp	SHORT $LN5@xmlGzfileO
$LN6@xmlGzfileO:

; 1097 : 	path = filename;

	mov	ecx, DWORD PTR _filename$[ebp]
	mov	DWORD PTR _path$[ebp], ecx
$LN5@xmlGzfileO:

; 1098 : 
; 1099 :     if (path == NULL)

	cmp	DWORD PTR _path$[ebp], 0
	jne	SHORT $LN8@xmlGzfileO

; 1100 : 	return(NULL);

	xor	eax, eax
	jmp	SHORT $LN1@xmlGzfileO
$LN8@xmlGzfileO:

; 1101 :     if (!xmlCheckFilename(path))

	mov	edx, DWORD PTR _path$[ebp]
	push	edx
	call	_xmlCheckFilename
	add	esp, 4
	test	eax, eax
	jne	SHORT $LN9@xmlGzfileO

; 1102 :         return(NULL);

	xor	eax, eax
	jmp	SHORT $LN1@xmlGzfileO
$LN9@xmlGzfileO:

; 1103 : 
; 1104 : #if defined(_WIN32) || defined (__DJGPP__) && !defined (__CYGWIN__)
; 1105 :     fd = xmlWrapGzOpenUtf8(path, "rb");

	push	OFFSET ??_C@_02JDPG@rb@
	mov	eax, DWORD PTR _path$[ebp]
	push	eax
	call	_xmlWrapGzOpenUtf8
	add	esp, 8
	mov	DWORD PTR _fd$[ebp], eax

; 1106 : #else
; 1107 :     fd = gzopen(path, "rb");
; 1108 : #endif
; 1109 :     return((void *) fd);

	mov	eax, DWORD PTR _fd$[ebp]
$LN1@xmlGzfileO:

; 1110 : }

	pop	esi
	add	esp, 32					; 00000020H
	cmp	ebp, esp
	call	__RTC_CheckEsp
	mov	esp, ebp
	pop	ebp
	ret	0
_xmlGzfileOpen_real ENDP
_TEXT	ENDS
; Function compile flags: /Odtp /RTCsu
; File c:\users\dag\documents\_clients\codeproject authors group\windows on arm\libxml2\libxml2-2.9.9\xmlio.c
;	COMDAT _xmlGzfileMatch
_TEXT	SEGMENT
_filename$ = 8						; size = 4
_xmlGzfileMatch PROC					; COMDAT

; 1056 : xmlGzfileMatch (const char *filename ATTRIBUTE_UNUSED) {

	push	ebp
	mov	ebp, esp
	mov	ecx, OFFSET __7D5E66B2_xmlio@c
	call	@__CheckForDebuggerJustMyCode@4

; 1057 :     return(1);

	mov	eax, 1

; 1058 : }

	cmp	ebp, esp
	call	__RTC_CheckEsp
	pop	ebp
	ret	0
_xmlGzfileMatch ENDP
_TEXT	ENDS
; Function compile flags: /Odtp /RTCsu
; File c:\users\dag\documents\_clients\codeproject authors group\windows on arm\libxml2\libxml2-2.9.9\xmlio.c
;	COMDAT _xmlBufferWrite
_TEXT	SEGMENT
_ret$ = -4						; size = 4
_context$ = 8						; size = 4
_buffer$ = 12						; size = 4
_len$ = 16						; size = 4
_xmlBufferWrite PROC					; COMDAT

; 1031 : xmlBufferWrite (void * context, const char * buffer, int len) {

	push	ebp
	mov	ebp, esp
	push	ecx
	mov	DWORD PTR [ebp-4], -858993460		; ccccccccH
	mov	ecx, OFFSET __7D5E66B2_xmlio@c
	call	@__CheckForDebuggerJustMyCode@4

; 1032 :     int ret;
; 1033 : 
; 1034 :     ret = xmlBufferAdd((xmlBufferPtr) context, (const xmlChar *) buffer, len);

	mov	eax, DWORD PTR _len$[ebp]
	push	eax
	mov	ecx, DWORD PTR _buffer$[ebp]
	push	ecx
	mov	edx, DWORD PTR _context$[ebp]
	push	edx
	call	_xmlBufferAdd
	add	esp, 12					; 0000000cH
	mov	DWORD PTR _ret$[ebp], eax

; 1035 :     if (ret != 0)

	cmp	DWORD PTR _ret$[ebp], 0
	je	SHORT $LN2@xmlBufferW

; 1036 :         return(-1);

	or	eax, -1
	jmp	SHORT $LN1@xmlBufferW
$LN2@xmlBufferW:

; 1037 :     return(len);

	mov	eax, DWORD PTR _len$[ebp]
$LN1@xmlBufferW:

; 1038 : }

	add	esp, 4
	cmp	ebp, esp
	call	__RTC_CheckEsp
	mov	esp, ebp
	pop	ebp
	ret	0
_xmlBufferWrite ENDP
_TEXT	ENDS
; Function compile flags: /Odtp /RTCsu
; File c:\users\dag\documents\_clients\codeproject authors group\windows on arm\libxml2\libxml2-2.9.9\xmlio.c
;	COMDAT _xmlFileFlush
_TEXT	SEGMENT
tv68 = -8						; size = 4
_ret$ = -4						; size = 4
_context$ = 8						; size = 4
_xmlFileFlush PROC					; COMDAT

; 1008 : xmlFileFlush (void * context) {

	push	ebp
	mov	ebp, esp
	sub	esp, 8
	push	esi
	mov	DWORD PTR [ebp-8], -858993460		; ccccccccH
	mov	DWORD PTR [ebp-4], -858993460		; ccccccccH
	mov	ecx, OFFSET __7D5E66B2_xmlio@c
	call	@__CheckForDebuggerJustMyCode@4

; 1009 :     int ret;
; 1010 : 
; 1011 :     if (context == NULL)

	cmp	DWORD PTR _context$[ebp], 0
	jne	SHORT $LN2@xmlFileFlu

; 1012 :         return(-1);

	or	eax, -1
	jmp	SHORT $LN1@xmlFileFlu
$LN2@xmlFileFlu:

; 1013 :     ret = ( fflush((FILE *) context) == EOF ) ? -1 : 0;

	mov	esi, esp
	mov	eax, DWORD PTR _context$[ebp]
	push	eax
	call	DWORD PTR __imp__fflush
	add	esp, 4
	cmp	esi, esp
	call	__RTC_CheckEsp
	cmp	eax, -1
	jne	SHORT $LN5@xmlFileFlu
	mov	DWORD PTR tv68[ebp], -1
	jmp	SHORT $LN6@xmlFileFlu
$LN5@xmlFileFlu:
	mov	DWORD PTR tv68[ebp], 0
$LN6@xmlFileFlu:
	mov	ecx, DWORD PTR tv68[ebp]
	mov	DWORD PTR _ret$[ebp], ecx

; 1014 :     if (ret < 0)

	cmp	DWORD PTR _ret$[ebp], 0
	jge	SHORT $LN3@xmlFileFlu

; 1015 :         xmlIOErr(0, "fflush()");

	push	OFFSET ??_C@_08FAKMNOA@fflush?$CI?$CJ@
	push	0
	call	_xmlIOErr
	add	esp, 8
$LN3@xmlFileFlu:

; 1016 :     return(ret);

	mov	eax, DWORD PTR _ret$[ebp]
$LN1@xmlFileFlu:

; 1017 : }

	pop	esi
	add	esp, 8
	cmp	ebp, esp
	call	__RTC_CheckEsp
	mov	esp, ebp
	pop	ebp
	ret	0
_xmlFileFlush ENDP
_TEXT	ENDS
; Function compile flags: /Odtp /RTCsu
; File c:\users\dag\documents\_clients\codeproject authors group\windows on arm\libxml2\libxml2-2.9.9\xmlio.c
;	COMDAT _xmlFileWrite
_TEXT	SEGMENT
_items$ = -4						; size = 4
_context$ = 8						; size = 4
_buffer$ = 12						; size = 4
_len$ = 16						; size = 4
_xmlFileWrite PROC					; COMDAT

; 957  : xmlFileWrite (void * context, const char * buffer, int len) {

	push	ebp
	mov	ebp, esp
	push	ecx
	push	esi
	mov	DWORD PTR [ebp-4], -858993460		; ccccccccH
	mov	ecx, OFFSET __7D5E66B2_xmlio@c
	call	@__CheckForDebuggerJustMyCode@4

; 958  :     int items;
; 959  : 
; 960  :     if ((context == NULL) || (buffer == NULL))

	cmp	DWORD PTR _context$[ebp], 0
	je	SHORT $LN3@xmlFileWri
	cmp	DWORD PTR _buffer$[ebp], 0
	jne	SHORT $LN2@xmlFileWri
$LN3@xmlFileWri:

; 961  :         return(-1);

	or	eax, -1
	jmp	SHORT $LN1@xmlFileWri
$LN2@xmlFileWri:

; 962  :     items = fwrite(&buffer[0], len, 1, (FILE *) context);

	mov	esi, esp
	mov	eax, DWORD PTR _context$[ebp]
	push	eax
	push	1
	mov	ecx, DWORD PTR _len$[ebp]
	push	ecx
	mov	edx, 1
	imul	eax, edx, 0
	add	eax, DWORD PTR _buffer$[ebp]
	push	eax
	call	DWORD PTR __imp__fwrite
	add	esp, 16					; 00000010H
	cmp	esi, esp
	call	__RTC_CheckEsp
	mov	DWORD PTR _items$[ebp], eax

; 963  :     if ((items == 0) && (ferror((FILE *) context))) {

	cmp	DWORD PTR _items$[ebp], 0
	jne	SHORT $LN4@xmlFileWri
	mov	esi, esp
	mov	ecx, DWORD PTR _context$[ebp]
	push	ecx
	call	DWORD PTR __imp__ferror
	add	esp, 4
	cmp	esi, esp
	call	__RTC_CheckEsp
	test	eax, eax
	je	SHORT $LN4@xmlFileWri

; 964  :         xmlIOErr(0, "fwrite()");

	push	OFFSET ??_C@_08LGKENNOL@fwrite?$CI?$CJ@
	push	0
	call	_xmlIOErr
	add	esp, 8

; 965  : 	return(-1);

	or	eax, -1
	jmp	SHORT $LN1@xmlFileWri
$LN4@xmlFileWri:

; 966  :     }
; 967  :     return(items * len);

	mov	eax, DWORD PTR _items$[ebp]
	imul	eax, DWORD PTR _len$[ebp]
$LN1@xmlFileWri:

; 968  : }

	pop	esi
	add	esp, 4
	cmp	ebp, esp
	call	__RTC_CheckEsp
	mov	esp, ebp
	pop	ebp
	ret	0
_xmlFileWrite ENDP
_TEXT	ENDS
; Function compile flags: /Odtp /RTCsu
; File c:\users\dag\documents\_clients\codeproject authors group\windows on arm\libxml2\libxml2-2.9.9\xmlio.c
;	COMDAT _xmlFileOpenW
_TEXT	SEGMENT
tv67 = -28						; size = 4
tv142 = -24						; size = 4
tv137 = -18						; size = 1
tv130 = -17						; size = 1
tv93 = -16						; size = 4
tv95 = -12						; size = 4
_fd$ = -8						; size = 4
_path$ = -4						; size = 4
_filename$ = 8						; size = 4
_xmlFileOpenW PROC					; COMDAT

; 885  : xmlFileOpenW (const char *filename) {

	push	ebp
	mov	ebp, esp
	sub	esp, 28					; 0000001cH
	push	esi
	mov	eax, -858993460				; ccccccccH
	mov	DWORD PTR [ebp-28], eax
	mov	DWORD PTR [ebp-24], eax
	mov	DWORD PTR [ebp-20], eax
	mov	DWORD PTR [ebp-16], eax
	mov	DWORD PTR [ebp-12], eax
	mov	DWORD PTR [ebp-8], eax
	mov	DWORD PTR [ebp-4], eax
	mov	ecx, OFFSET __7D5E66B2_xmlio@c
	call	@__CheckForDebuggerJustMyCode@4

; 886  :     const char *path = NULL;

	mov	DWORD PTR _path$[ebp], 0

; 887  :     FILE *fd;
; 888  : 
; 889  :     if (!strcmp(filename, "-")) {

	mov	DWORD PTR tv95[ebp], OFFSET ??_C@_01JOAMLHOP@?9@
	mov	eax, DWORD PTR _filename$[ebp]
	mov	DWORD PTR tv93[ebp], eax
$LL10@xmlFileOpe:
	mov	ecx, DWORD PTR tv93[ebp]
	mov	dl, BYTE PTR [ecx]
	mov	BYTE PTR tv130[ebp], dl
	mov	eax, DWORD PTR tv95[ebp]
	cmp	dl, BYTE PTR [eax]
	jne	SHORT $LN11@xmlFileOpe
	cmp	BYTE PTR tv130[ebp], 0
	je	SHORT $LN12@xmlFileOpe
	mov	ecx, DWORD PTR tv93[ebp]
	mov	dl, BYTE PTR [ecx+1]
	mov	BYTE PTR tv137[ebp], dl
	mov	eax, DWORD PTR tv95[ebp]
	cmp	dl, BYTE PTR [eax+1]
	jne	SHORT $LN11@xmlFileOpe
	add	DWORD PTR tv93[ebp], 2
	add	DWORD PTR tv95[ebp], 2
	cmp	BYTE PTR tv137[ebp], 0
	jne	SHORT $LL10@xmlFileOpe
$LN12@xmlFileOpe:
	mov	DWORD PTR tv142[ebp], 0
	jmp	SHORT $LN13@xmlFileOpe
$LN11@xmlFileOpe:
	sbb	ecx, ecx
	or	ecx, 1
	mov	DWORD PTR tv142[ebp], ecx
$LN13@xmlFileOpe:
	mov	edx, DWORD PTR tv142[ebp]
	mov	DWORD PTR tv67[ebp], edx
	cmp	DWORD PTR tv67[ebp], 0
	jne	SHORT $LN2@xmlFileOpe

; 890  : 	fd = stdout;

	mov	esi, esp
	push	1
	call	DWORD PTR __imp____acrt_iob_func
	add	esp, 4
	cmp	esi, esp
	call	__RTC_CheckEsp
	mov	DWORD PTR _fd$[ebp], eax

; 891  : 	return((void *) fd);

	mov	eax, DWORD PTR _fd$[ebp]
	jmp	$LN1@xmlFileOpe
$LN2@xmlFileOpe:

; 892  :     }
; 893  : 
; 894  :     if (!xmlStrncasecmp(BAD_CAST filename, BAD_CAST "file://localhost/", 17))

	push	17					; 00000011H
	push	OFFSET ??_C@_0BC@IDKAIMBK@file?3?1?1localhost?1@
	mov	eax, DWORD PTR _filename$[ebp]
	push	eax
	call	_xmlStrncasecmp
	add	esp, 12					; 0000000cH
	test	eax, eax
	jne	SHORT $LN3@xmlFileOpe

; 895  : #if defined (_WIN32) || defined (__DJGPP__) && !defined(__CYGWIN__)
; 896  : 	path = &filename[17];

	mov	ecx, 1
	imul	edx, ecx, 17
	add	edx, DWORD PTR _filename$[ebp]
	mov	DWORD PTR _path$[ebp], edx
	jmp	SHORT $LN4@xmlFileOpe
$LN3@xmlFileOpe:

; 897  : #else
; 898  : 	path = &filename[16];
; 899  : #endif
; 900  :     else if (!xmlStrncasecmp(BAD_CAST filename, BAD_CAST "file:///", 8)) {

	push	8
	push	OFFSET ??_C@_08NPMJDGGI@file?3?1?1?1@
	mov	eax, DWORD PTR _filename$[ebp]
	push	eax
	call	_xmlStrncasecmp
	add	esp, 12					; 0000000cH
	test	eax, eax
	jne	SHORT $LN5@xmlFileOpe

; 901  : #if defined (_WIN32) || defined (__DJGPP__) && !defined(__CYGWIN__)
; 902  : 	path = &filename[8];

	mov	ecx, 1
	shl	ecx, 3
	add	ecx, DWORD PTR _filename$[ebp]
	mov	DWORD PTR _path$[ebp], ecx

; 903  : #else
; 904  : 	path = &filename[7];
; 905  : #endif
; 906  :     } else

	jmp	SHORT $LN4@xmlFileOpe
$LN5@xmlFileOpe:

; 907  : 	path = filename;

	mov	edx, DWORD PTR _filename$[ebp]
	mov	DWORD PTR _path$[ebp], edx
$LN4@xmlFileOpe:

; 908  : 
; 909  :     if (path == NULL)

	cmp	DWORD PTR _path$[ebp], 0
	jne	SHORT $LN7@xmlFileOpe

; 910  : 	return(NULL);

	xor	eax, eax
	jmp	SHORT $LN1@xmlFileOpe
$LN7@xmlFileOpe:

; 911  : 
; 912  : #if defined(_WIN32) || defined (__DJGPP__) && !defined (__CYGWIN__)
; 913  :     fd = xmlWrapOpenUtf8(path, 1);

	push	1
	mov	eax, DWORD PTR _path$[ebp]
	push	eax
	call	_xmlWrapOpenUtf8
	add	esp, 8
	mov	DWORD PTR _fd$[ebp], eax

; 914  : #elif(__MVS__)
; 915  :     fd = fopen(path, "w");
; 916  : #else
; 917  :     fd = fopen(path, "wb");
; 918  : #endif /* WIN32 */
; 919  : 
; 920  :     if (fd == NULL) xmlIOErr(0, path);

	cmp	DWORD PTR _fd$[ebp], 0
	jne	SHORT $LN8@xmlFileOpe
	mov	ecx, DWORD PTR _path$[ebp]
	push	ecx
	push	0
	call	_xmlIOErr
	add	esp, 8
$LN8@xmlFileOpe:

; 921  :     return((void *) fd);

	mov	eax, DWORD PTR _fd$[ebp]
$LN1@xmlFileOpe:

; 922  : }

	pop	esi
	add	esp, 28					; 0000001cH
	cmp	ebp, esp
	call	__RTC_CheckEsp
	mov	esp, ebp
	pop	ebp
	ret	0
_xmlFileOpenW ENDP
_TEXT	ENDS
; Function compile flags: /Odtp /RTCsu
; File c:\users\dag\documents\_clients\codeproject authors group\windows on arm\libxml2\libxml2-2.9.9\xmlio.c
;	COMDAT _xmlFileOpen_real
_TEXT	SEGMENT
tv68 = -28						; size = 4
tv154 = -24						; size = 4
tv149 = -18						; size = 1
tv142 = -17						; size = 1
tv137 = -16						; size = 4
tv139 = -12						; size = 4
_fd$ = -8						; size = 4
_path$ = -4						; size = 4
_filename$ = 8						; size = 4
_xmlFileOpen_real PROC					; COMDAT

; 800  : xmlFileOpen_real (const char *filename) {

	push	ebp
	mov	ebp, esp
	sub	esp, 28					; 0000001cH
	push	esi
	mov	eax, -858993460				; ccccccccH
	mov	DWORD PTR [ebp-28], eax
	mov	DWORD PTR [ebp-24], eax
	mov	DWORD PTR [ebp-20], eax
	mov	DWORD PTR [ebp-16], eax
	mov	DWORD PTR [ebp-12], eax
	mov	DWORD PTR [ebp-8], eax
	mov	DWORD PTR [ebp-4], eax
	mov	ecx, OFFSET __7D5E66B2_xmlio@c
	call	@__CheckForDebuggerJustMyCode@4

; 801  :     const char *path = filename;

	mov	eax, DWORD PTR _filename$[ebp]
	mov	DWORD PTR _path$[ebp], eax

; 802  :     FILE *fd;
; 803  : 
; 804  :     if (filename == NULL)

	cmp	DWORD PTR _filename$[ebp], 0
	jne	SHORT $LN2@xmlFileOpe

; 805  :         return(NULL);

	xor	eax, eax
	jmp	$LN1@xmlFileOpe
$LN2@xmlFileOpe:

; 806  : 
; 807  :     if (!strcmp(filename, "-")) {

	mov	DWORD PTR tv139[ebp], OFFSET ??_C@_01JOAMLHOP@?9@
	mov	ecx, DWORD PTR _filename$[ebp]
	mov	DWORD PTR tv137[ebp], ecx
$LL12@xmlFileOpe:
	mov	edx, DWORD PTR tv137[ebp]
	mov	al, BYTE PTR [edx]
	mov	BYTE PTR tv142[ebp], al
	mov	ecx, DWORD PTR tv139[ebp]
	cmp	al, BYTE PTR [ecx]
	jne	SHORT $LN13@xmlFileOpe
	cmp	BYTE PTR tv142[ebp], 0
	je	SHORT $LN14@xmlFileOpe
	mov	edx, DWORD PTR tv137[ebp]
	mov	al, BYTE PTR [edx+1]
	mov	BYTE PTR tv149[ebp], al
	mov	ecx, DWORD PTR tv139[ebp]
	cmp	al, BYTE PTR [ecx+1]
	jne	SHORT $LN13@xmlFileOpe
	add	DWORD PTR tv137[ebp], 2
	add	DWORD PTR tv139[ebp], 2
	cmp	BYTE PTR tv149[ebp], 0
	jne	SHORT $LL12@xmlFileOpe
$LN14@xmlFileOpe:
	mov	DWORD PTR tv154[ebp], 0
	jmp	SHORT $LN15@xmlFileOpe
$LN13@xmlFileOpe:
	sbb	edx, edx
	or	edx, 1
	mov	DWORD PTR tv154[ebp], edx
$LN15@xmlFileOpe:
	mov	eax, DWORD PTR tv154[ebp]
	mov	DWORD PTR tv68[ebp], eax
	cmp	DWORD PTR tv68[ebp], 0
	jne	SHORT $LN3@xmlFileOpe

; 808  : 	fd = stdin;

	mov	esi, esp
	push	0
	call	DWORD PTR __imp____acrt_iob_func
	add	esp, 4
	cmp	esi, esp
	call	__RTC_CheckEsp
	mov	DWORD PTR _fd$[ebp], eax

; 809  : 	return((void *) fd);

	mov	eax, DWORD PTR _fd$[ebp]
	jmp	$LN1@xmlFileOpe
$LN3@xmlFileOpe:

; 810  :     }
; 811  : 
; 812  :     if (!xmlStrncasecmp(BAD_CAST filename, BAD_CAST "file://localhost/", 17)) {

	push	17					; 00000011H
	push	OFFSET ??_C@_0BC@IDKAIMBK@file?3?1?1localhost?1@
	mov	ecx, DWORD PTR _filename$[ebp]
	push	ecx
	call	_xmlStrncasecmp
	add	esp, 12					; 0000000cH
	test	eax, eax
	jne	SHORT $LN4@xmlFileOpe

; 813  : #if defined (_WIN32) || defined (__DJGPP__) && !defined(__CYGWIN__)
; 814  : 	path = &filename[17];

	mov	edx, 1
	imul	eax, edx, 17
	add	eax, DWORD PTR _filename$[ebp]
	mov	DWORD PTR _path$[ebp], eax
	jmp	SHORT $LN5@xmlFileOpe
$LN4@xmlFileOpe:

; 815  : #else
; 816  : 	path = &filename[16];
; 817  : #endif
; 818  :     } else if (!xmlStrncasecmp(BAD_CAST filename, BAD_CAST "file:///", 8)) {

	push	8
	push	OFFSET ??_C@_08NPMJDGGI@file?3?1?1?1@
	mov	ecx, DWORD PTR _filename$[ebp]
	push	ecx
	call	_xmlStrncasecmp
	add	esp, 12					; 0000000cH
	test	eax, eax
	jne	SHORT $LN6@xmlFileOpe

; 819  : #if defined (_WIN32) || defined (__DJGPP__) && !defined(__CYGWIN__)
; 820  : 	path = &filename[8];

	mov	edx, 1
	shl	edx, 3
	add	edx, DWORD PTR _filename$[ebp]
	mov	DWORD PTR _path$[ebp], edx
	jmp	SHORT $LN5@xmlFileOpe
$LN6@xmlFileOpe:

; 821  : #else
; 822  : 	path = &filename[7];
; 823  : #endif
; 824  :     } else if (!xmlStrncasecmp(BAD_CAST filename, BAD_CAST "file:/", 6)) {

	push	6
	push	OFFSET ??_C@_06MONEMCJK@file?3?1@
	mov	eax, DWORD PTR _filename$[ebp]
	push	eax
	call	_xmlStrncasecmp
	add	esp, 12					; 0000000cH
	test	eax, eax
	jne	SHORT $LN5@xmlFileOpe

; 825  :         /* lots of generators seems to lazy to read RFC 1738 */
; 826  : #if defined (_WIN32) || defined (__DJGPP__) && !defined(__CYGWIN__)
; 827  : 	path = &filename[6];

	mov	ecx, 1
	imul	edx, ecx, 6
	add	edx, DWORD PTR _filename$[ebp]
	mov	DWORD PTR _path$[ebp], edx
$LN5@xmlFileOpe:

; 828  : #else
; 829  : 	path = &filename[5];
; 830  : #endif
; 831  :     }
; 832  : 
; 833  :     /* Do not check DDNAME on zOS ! */
; 834  : #if !defined(__MVS__)
; 835  :     if (!xmlCheckFilename(path))

	mov	eax, DWORD PTR _path$[ebp]
	push	eax
	call	_xmlCheckFilename
	add	esp, 4
	test	eax, eax
	jne	SHORT $LN9@xmlFileOpe

; 836  :         return(NULL);

	xor	eax, eax
	jmp	SHORT $LN1@xmlFileOpe
$LN9@xmlFileOpe:

; 837  : #endif
; 838  : 
; 839  : #if defined(_WIN32) || defined (__DJGPP__) && !defined (__CYGWIN__)
; 840  :     fd = xmlWrapOpenUtf8(path, 0);

	push	0
	mov	ecx, DWORD PTR _path$[ebp]
	push	ecx
	call	_xmlWrapOpenUtf8
	add	esp, 8
	mov	DWORD PTR _fd$[ebp], eax

; 841  : #else
; 842  :     fd = fopen(path, "r");
; 843  : #endif /* WIN32 */
; 844  :     if (fd == NULL) xmlIOErr(0, path);

	cmp	DWORD PTR _fd$[ebp], 0
	jne	SHORT $LN10@xmlFileOpe
	mov	edx, DWORD PTR _path$[ebp]
	push	edx
	push	0
	call	_xmlIOErr
	add	esp, 8
$LN10@xmlFileOpe:

; 845  :     return((void *) fd);

	mov	eax, DWORD PTR _fd$[ebp]
$LN1@xmlFileOpe:

; 846  : }

	pop	esi
	add	esp, 28					; 0000001cH
	cmp	ebp, esp
	call	__RTC_CheckEsp
	mov	esp, ebp
	pop	ebp
	ret	0
_xmlFileOpen_real ENDP
_TEXT	ENDS
; Function compile flags: /Odtp /RTCsu
; File c:\users\dag\documents\_clients\codeproject authors group\windows on arm\libxml2\libxml2-2.9.9\xmlio.c
;	COMDAT _xmlFdClose
_TEXT	SEGMENT
_ret$ = -4						; size = 4
_context$ = 8						; size = 4
_xmlFdClose PROC					; COMDAT

; 770  : xmlFdClose (void * context) {

	push	ebp
	mov	ebp, esp
	push	ecx
	push	esi
	mov	DWORD PTR [ebp-4], -858993460		; ccccccccH
	mov	ecx, OFFSET __7D5E66B2_xmlio@c
	call	@__CheckForDebuggerJustMyCode@4

; 771  :     int ret;
; 772  :     ret = close((int) (ptrdiff_t) context);

	mov	esi, esp
	mov	eax, DWORD PTR _context$[ebp]
	push	eax
	call	DWORD PTR __imp__close
	add	esp, 4
	cmp	esi, esp
	call	__RTC_CheckEsp
	mov	DWORD PTR _ret$[ebp], eax

; 773  :     if (ret < 0) xmlIOErr(0, "close()");

	cmp	DWORD PTR _ret$[ebp], 0
	jge	SHORT $LN2@xmlFdClose
	push	OFFSET ??_C@_07LBJPAJEN@close?$CI?$CJ@
	push	0
	call	_xmlIOErr
	add	esp, 8
$LN2@xmlFdClose:

; 774  :     return(ret);

	mov	eax, DWORD PTR _ret$[ebp]

; 775  : }

	pop	esi
	add	esp, 4
	cmp	ebp, esp
	call	__RTC_CheckEsp
	mov	esp, ebp
	pop	ebp
	ret	0
_xmlFdClose ENDP
_TEXT	ENDS
; Function compile flags: /Odtp /RTCsu
; File c:\users\dag\documents\_clients\codeproject authors group\windows on arm\libxml2\libxml2-2.9.9\xmlio.c
;	COMDAT _xmlFdWrite
_TEXT	SEGMENT
_ret$ = -4						; size = 4
_context$ = 8						; size = 4
_buffer$ = 12						; size = 4
_len$ = 16						; size = 4
_xmlFdWrite PROC					; COMDAT

; 750  : xmlFdWrite (void * context, const char * buffer, int len) {

	push	ebp
	mov	ebp, esp
	push	ecx
	push	esi
	mov	DWORD PTR [ebp-4], -858993460		; ccccccccH
	mov	ecx, OFFSET __7D5E66B2_xmlio@c
	call	@__CheckForDebuggerJustMyCode@4

; 751  :     int ret = 0;

	mov	DWORD PTR _ret$[ebp], 0

; 752  : 
; 753  :     if (len > 0) {

	cmp	DWORD PTR _len$[ebp], 0
	jle	SHORT $LN2@xmlFdWrite

; 754  : 	ret = write((int) (ptrdiff_t) context, &buffer[0], len);

	mov	esi, esp
	mov	eax, DWORD PTR _len$[ebp]
	push	eax
	mov	ecx, 1
	imul	edx, ecx, 0
	add	edx, DWORD PTR _buffer$[ebp]
	push	edx
	mov	eax, DWORD PTR _context$[ebp]
	push	eax
	call	DWORD PTR __imp__write
	add	esp, 12					; 0000000cH
	cmp	esi, esp
	call	__RTC_CheckEsp
	mov	DWORD PTR _ret$[ebp], eax

; 755  : 	if (ret < 0) xmlIOErr(0, "write()");

	cmp	DWORD PTR _ret$[ebp], 0
	jge	SHORT $LN2@xmlFdWrite
	push	OFFSET ??_C@_07BKPGOOAC@write?$CI?$CJ@
	push	0
	call	_xmlIOErr
	add	esp, 8
$LN2@xmlFdWrite:

; 756  :     }
; 757  :     return(ret);

	mov	eax, DWORD PTR _ret$[ebp]

; 758  : }

	pop	esi
	add	esp, 4
	cmp	ebp, esp
	call	__RTC_CheckEsp
	mov	esp, ebp
	pop	ebp
	ret	0
_xmlFdWrite ENDP
_TEXT	ENDS
; Function compile flags: /Odtp /RTCsu
; File c:\users\dag\documents\_clients\codeproject authors group\windows on arm\libxml2\libxml2-2.9.9\xmlio.c
;	COMDAT _xmlFdRead
_TEXT	SEGMENT
_ret$ = -4						; size = 4
_context$ = 8						; size = 4
_buffer$ = 12						; size = 4
_len$ = 16						; size = 4
_xmlFdRead PROC						; COMDAT

; 730  : xmlFdRead (void * context, char * buffer, int len) {

	push	ebp
	mov	ebp, esp
	push	ecx
	push	esi
	mov	DWORD PTR [ebp-4], -858993460		; ccccccccH
	mov	ecx, OFFSET __7D5E66B2_xmlio@c
	call	@__CheckForDebuggerJustMyCode@4

; 731  :     int ret;
; 732  : 
; 733  :     ret = read((int) (ptrdiff_t) context, &buffer[0], len);

	mov	esi, esp
	mov	eax, DWORD PTR _len$[ebp]
	push	eax
	mov	ecx, 1
	imul	edx, ecx, 0
	add	edx, DWORD PTR _buffer$[ebp]
	push	edx
	mov	eax, DWORD PTR _context$[ebp]
	push	eax
	call	DWORD PTR __imp__read
	add	esp, 12					; 0000000cH
	cmp	esi, esp
	call	__RTC_CheckEsp
	mov	DWORD PTR _ret$[ebp], eax

; 734  :     if (ret < 0) xmlIOErr(0, "read()");

	cmp	DWORD PTR _ret$[ebp], 0
	jge	SHORT $LN2@xmlFdRead
	push	OFFSET ??_C@_06CDFDMJHA@read?$CI?$CJ@
	push	0
	call	_xmlIOErr
	add	esp, 8
$LN2@xmlFdRead:

; 735  :     return(ret);

	mov	eax, DWORD PTR _ret$[ebp]

; 736  : }

	pop	esi
	add	esp, 4
	cmp	ebp, esp
	call	__RTC_CheckEsp
	mov	esp, ebp
	pop	ebp
	ret	0
_xmlFdRead ENDP
_TEXT	ENDS
; Function compile flags: /Odtp /RTCsu
; File c:\users\dag\documents\_clients\codeproject authors group\windows on arm\libxml2\libxml2-2.9.9\xmlio.c
;	COMDAT _xmlWrapStatUtf8
_TEXT	SEGMENT
_wPath$ = -8						; size = 4
_retval$ = -4						; size = 4
_path$ = 8						; size = 4
_info$ = 12						; size = 4
_xmlWrapStatUtf8 PROC					; COMDAT

; 637  : xmlWrapStatUtf8(const char *path, struct _stat *info) {

	push	ebp
	mov	ebp, esp
	sub	esp, 8
	push	esi
	mov	DWORD PTR [ebp-8], -858993460		; ccccccccH
	mov	DWORD PTR [ebp-4], -858993460		; ccccccccH
	mov	ecx, OFFSET __7D5E66B2_xmlio@c
	call	@__CheckForDebuggerJustMyCode@4

; 638  :     int retval = -1;

	mov	DWORD PTR _retval$[ebp], -1

; 639  :     wchar_t *wPath;
; 640  : 
; 641  :     wPath = __xmlIOWin32UTF8ToWChar(path);

	mov	eax, DWORD PTR _path$[ebp]
	push	eax
	call	___xmlIOWin32UTF8ToWChar
	add	esp, 4
	mov	DWORD PTR _wPath$[ebp], eax

; 642  :     if (wPath) {

	cmp	DWORD PTR _wPath$[ebp], 0
	je	SHORT $LN2@xmlWrapSta

; 643  :        retval = _wstat(wPath, info);

	mov	esi, esp
	mov	ecx, DWORD PTR _info$[ebp]
	push	ecx
	mov	edx, DWORD PTR _wPath$[ebp]
	push	edx
	call	DWORD PTR __imp___wstat64i32
	add	esp, 8
	cmp	esi, esp
	call	__RTC_CheckEsp
	mov	DWORD PTR _retval$[ebp], eax

; 644  :        xmlFree(wPath);

	mov	esi, esp
	mov	eax, DWORD PTR _wPath$[ebp]
	push	eax
	call	DWORD PTR _xmlFree
	add	esp, 4
	cmp	esi, esp
	call	__RTC_CheckEsp
$LN2@xmlWrapSta:

; 645  :     }
; 646  :     /* maybe path in native encoding */
; 647  :     if(retval < 0)

	cmp	DWORD PTR _retval$[ebp], 0
	jge	SHORT $LN3@xmlWrapSta

; 648  :        retval = _stat(path, info);

	mov	esi, esp
	mov	ecx, DWORD PTR _info$[ebp]
	push	ecx
	mov	edx, DWORD PTR _path$[ebp]
	push	edx
	call	DWORD PTR __imp___stat64i32
	add	esp, 8
	cmp	esi, esp
	call	__RTC_CheckEsp
	mov	DWORD PTR _retval$[ebp], eax
$LN3@xmlWrapSta:

; 649  :     return retval;

	mov	eax, DWORD PTR _retval$[ebp]

; 650  : }

	pop	esi
	add	esp, 8
	cmp	ebp, esp
	call	__RTC_CheckEsp
	mov	esp, ebp
	pop	ebp
	ret	0
_xmlWrapStatUtf8 ENDP
_TEXT	ENDS
; Function compile flags: /Odtp /RTCsu
; File c:\users\dag\documents\_clients\codeproject authors group\windows on arm\libxml2\libxml2-2.9.9\xmlio.c
;	COMDAT _xmlWrapGzOpenUtf8
_TEXT	SEGMENT
tv80 = -24						; size = 4
tv75 = -20						; size = 4
_m$1 = -16						; size = 4
_d$2 = -12						; size = 4
_wPath$ = -8						; size = 4
_fd$ = -4						; size = 4
_path$ = 8						; size = 4
_mode$ = 12						; size = 4
_xmlWrapGzOpenUtf8 PROC					; COMDAT

; 603  : {

	push	ebp
	mov	ebp, esp
	sub	esp, 24					; 00000018H
	push	esi
	mov	eax, -858993460				; ccccccccH
	mov	DWORD PTR [ebp-24], eax
	mov	DWORD PTR [ebp-20], eax
	mov	DWORD PTR [ebp-16], eax
	mov	DWORD PTR [ebp-12], eax
	mov	DWORD PTR [ebp-8], eax
	mov	DWORD PTR [ebp-4], eax
	mov	ecx, OFFSET __7D5E66B2_xmlio@c
	call	@__CheckForDebuggerJustMyCode@4

; 604  :     gzFile fd;
; 605  :     wchar_t *wPath;
; 606  : 
; 607  :     fd = gzopen (path, mode);

	mov	eax, DWORD PTR _mode$[ebp]
	push	eax
	mov	ecx, DWORD PTR _path$[ebp]
	push	ecx
	call	_gzopen@8
	mov	DWORD PTR _fd$[ebp], eax

; 608  :     if (fd)

	cmp	DWORD PTR _fd$[ebp], 0
	je	SHORT $LN2@xmlWrapGzO

; 609  :         return fd;

	mov	eax, DWORD PTR _fd$[ebp]
	jmp	$LN1@xmlWrapGzO
$LN2@xmlWrapGzO:

; 610  : 
; 611  :     wPath = __xmlIOWin32UTF8ToWChar(path);

	mov	edx, DWORD PTR _path$[ebp]
	push	edx
	call	___xmlIOWin32UTF8ToWChar
	add	esp, 4
	mov	DWORD PTR _wPath$[ebp], eax

; 612  :     if(wPath)

	cmp	DWORD PTR _wPath$[ebp], 0
	je	$LN3@xmlWrapGzO

; 613  :     {
; 614  : 	int d, m = (strstr(mode, "r") ? O_RDONLY : O_RDWR);

	push	OFFSET ??_C@_01KDCPPGHE@r@
	mov	eax, DWORD PTR _mode$[ebp]
	push	eax
	call	_strstr
	add	esp, 8
	test	eax, eax
	je	SHORT $LN6@xmlWrapGzO
	mov	DWORD PTR tv75[ebp], 0
	jmp	SHORT $LN7@xmlWrapGzO
$LN6@xmlWrapGzO:
	mov	DWORD PTR tv75[ebp], 2
$LN7@xmlWrapGzO:
	mov	ecx, DWORD PTR tv75[ebp]
	mov	DWORD PTR _m$1[ebp], ecx

; 615  : #ifdef _O_BINARY
; 616  :         m |= (strstr(mode, "b") ? _O_BINARY : 0);

	push	OFFSET ??_C@_01OJONOECF@b@
	mov	edx, DWORD PTR _mode$[ebp]
	push	edx
	call	_strstr
	add	esp, 8
	test	eax, eax
	je	SHORT $LN8@xmlWrapGzO
	mov	DWORD PTR tv80[ebp], 32768		; 00008000H
	jmp	SHORT $LN9@xmlWrapGzO
$LN8@xmlWrapGzO:
	mov	DWORD PTR tv80[ebp], 0
$LN9@xmlWrapGzO:
	mov	eax, DWORD PTR _m$1[ebp]
	or	eax, DWORD PTR tv80[ebp]
	mov	DWORD PTR _m$1[ebp], eax

; 617  : #endif
; 618  : 	d = _wopen(wPath, m);

	mov	esi, esp
	mov	ecx, DWORD PTR _m$1[ebp]
	push	ecx
	mov	edx, DWORD PTR _wPath$[ebp]
	push	edx
	call	DWORD PTR __imp___wopen
	add	esp, 8
	cmp	esi, esp
	call	__RTC_CheckEsp
	mov	DWORD PTR _d$2[ebp], eax

; 619  : 	if (d >= 0)

	cmp	DWORD PTR _d$2[ebp], 0
	jl	SHORT $LN4@xmlWrapGzO

; 620  : 	    fd = gzdopen(d, mode);

	mov	eax, DWORD PTR _mode$[ebp]
	push	eax
	mov	ecx, DWORD PTR _d$2[ebp]
	push	ecx
	call	_gzdopen@8
	mov	DWORD PTR _fd$[ebp], eax
$LN4@xmlWrapGzO:

; 621  :         xmlFree(wPath);

	mov	esi, esp
	mov	edx, DWORD PTR _wPath$[ebp]
	push	edx
	call	DWORD PTR _xmlFree
	add	esp, 4
	cmp	esi, esp
	call	__RTC_CheckEsp
$LN3@xmlWrapGzO:

; 622  :     }
; 623  : 
; 624  :     return fd;

	mov	eax, DWORD PTR _fd$[ebp]
$LN1@xmlWrapGzO:

; 625  : }

	pop	esi
	add	esp, 24					; 00000018H
	cmp	ebp, esp
	call	__RTC_CheckEsp
	mov	esp, ebp
	pop	ebp
	ret	0
_xmlWrapGzOpenUtf8 ENDP
_TEXT	ENDS
; Function compile flags: /Odtp /RTCsu
; File c:\users\dag\documents\_clients\codeproject authors group\windows on arm\libxml2\libxml2-2.9.9\xmlio.c
;	COMDAT _xmlWrapOpenUtf8
_TEXT	SEGMENT
tv76 = -16						; size = 4
tv69 = -12						; size = 4
_wPath$ = -8						; size = 4
_fd$ = -4						; size = 4
_path$ = 8						; size = 4
_mode$ = 12						; size = 4
_xmlWrapOpenUtf8 PROC					; COMDAT

; 583  : {

	push	ebp
	mov	ebp, esp
	sub	esp, 16					; 00000010H
	push	esi
	mov	eax, -858993460				; ccccccccH
	mov	DWORD PTR [ebp-16], eax
	mov	DWORD PTR [ebp-12], eax
	mov	DWORD PTR [ebp-8], eax
	mov	DWORD PTR [ebp-4], eax
	mov	ecx, OFFSET __7D5E66B2_xmlio@c
	call	@__CheckForDebuggerJustMyCode@4

; 584  :     FILE *fd = NULL;

	mov	DWORD PTR _fd$[ebp], 0

; 585  :     wchar_t *wPath;
; 586  : 
; 587  :     wPath = __xmlIOWin32UTF8ToWChar(path);

	mov	eax, DWORD PTR _path$[ebp]
	push	eax
	call	___xmlIOWin32UTF8ToWChar
	add	esp, 4
	mov	DWORD PTR _wPath$[ebp], eax

; 588  :     if(wPath)

	cmp	DWORD PTR _wPath$[ebp], 0
	je	SHORT $LN2@xmlWrapOpe

; 589  :     {
; 590  :        fd = _wfopen(wPath, mode ? L"wb" : L"rb");

	cmp	DWORD PTR _mode$[ebp], 0
	je	SHORT $LN5@xmlWrapOpe
	mov	DWORD PTR tv69[ebp], OFFSET ??_C@_15MJDFFMKN@?$AAw?$AAb@
	jmp	SHORT $LN6@xmlWrapOpe
$LN5@xmlWrapOpe:
	mov	DWORD PTR tv69[ebp], OFFSET ??_C@_15JJPIMNBO@?$AAr?$AAb@
$LN6@xmlWrapOpe:
	mov	esi, esp
	mov	ecx, DWORD PTR tv69[ebp]
	push	ecx
	mov	edx, DWORD PTR _wPath$[ebp]
	push	edx
	call	DWORD PTR __imp___wfopen
	add	esp, 8
	cmp	esi, esp
	call	__RTC_CheckEsp
	mov	DWORD PTR _fd$[ebp], eax

; 591  :        xmlFree(wPath);

	mov	esi, esp
	mov	eax, DWORD PTR _wPath$[ebp]
	push	eax
	call	DWORD PTR _xmlFree
	add	esp, 4
	cmp	esi, esp
	call	__RTC_CheckEsp
$LN2@xmlWrapOpe:

; 592  :     }
; 593  :     /* maybe path in native encoding */
; 594  :     if(fd == NULL)

	cmp	DWORD PTR _fd$[ebp], 0
	jne	SHORT $LN3@xmlWrapOpe

; 595  :        fd = fopen(path, mode ? "wb" : "rb");

	cmp	DWORD PTR _mode$[ebp], 0
	je	SHORT $LN7@xmlWrapOpe
	mov	DWORD PTR tv76[ebp], OFFSET ??_C@_02GMLFBBN@wb@
	jmp	SHORT $LN8@xmlWrapOpe
$LN7@xmlWrapOpe:
	mov	DWORD PTR tv76[ebp], OFFSET ??_C@_02JDPG@rb@
$LN8@xmlWrapOpe:
	mov	esi, esp
	mov	ecx, DWORD PTR tv76[ebp]
	push	ecx
	mov	edx, DWORD PTR _path$[ebp]
	push	edx
	call	DWORD PTR __imp__fopen
	add	esp, 8
	cmp	esi, esp
	call	__RTC_CheckEsp
	mov	DWORD PTR _fd$[ebp], eax
$LN3@xmlWrapOpe:

; 596  : 
; 597  :     return fd;

	mov	eax, DWORD PTR _fd$[ebp]

; 598  : }

	pop	esi
	add	esp, 16					; 00000010H
	cmp	ebp, esp
	call	__RTC_CheckEsp
	mov	esp, ebp
	pop	ebp
	ret	0
_xmlWrapOpenUtf8 ENDP
_TEXT	ENDS
; Function compile flags: /Odtp /RTCsu
; File c:\users\dag\documents\_clients\codeproject authors group\windows on arm\libxml2\libxml2-2.9.9\xmlio.c
;	COMDAT _xmlIOErr
_TEXT	SEGMENT
_code$ = 8						; size = 4
_extra$ = 12						; size = 4
_xmlIOErr PROC						; COMDAT

; 425  : {

	push	ebp
	mov	ebp, esp
	mov	ecx, OFFSET __7D5E66B2_xmlio@c
	call	@__CheckForDebuggerJustMyCode@4

; 426  :     __xmlIOErr(XML_FROM_IO, code, extra);

	mov	eax, DWORD PTR _extra$[ebp]
	push	eax
	mov	ecx, DWORD PTR _code$[ebp]
	push	ecx
	push	8
	call	___xmlIOErr
	add	esp, 12					; 0000000cH

; 427  : }

	cmp	ebp, esp
	call	__RTC_CheckEsp
	pop	ebp
	ret	0
_xmlIOErr ENDP
_TEXT	ENDS
; Function compile flags: /Odtp /RTCsu
; File c:\users\dag\documents\_clients\codeproject authors group\windows on arm\libxml2\libxml2-2.9.9\xmlio.c
;	COMDAT _xmlIOErrMemory
_TEXT	SEGMENT
_extra$ = 8						; size = 4
_xmlIOErrMemory PROC					; COMDAT

; 233  : {

	push	ebp
	mov	ebp, esp
	mov	ecx, OFFSET __7D5E66B2_xmlio@c
	call	@__CheckForDebuggerJustMyCode@4

; 234  :     __xmlSimpleError(XML_FROM_IO, XML_ERR_NO_MEMORY, NULL, NULL, extra);

	mov	eax, DWORD PTR _extra$[ebp]
	push	eax
	push	0
	push	0
	push	2
	push	8
	call	___xmlSimpleError
	add	esp, 20					; 00000014H

; 235  : }

	cmp	ebp, esp
	call	__RTC_CheckEsp
	pop	ebp
	ret	0
_xmlIOErrMemory ENDP
_TEXT	ENDS
; Function compile flags: /Odtp /RTCsu
; File c:\users\dag\documents\_clients\codeproject authors group\windows on arm\libxml2\libxml2-2.9.9\xmlio.c
;	COMDAT ___xmlIOWin32UTF8ToWChar
_TEXT	SEGMENT
_wLen$1 = -8						; size = 4
_wString$ = -4						; size = 4
_u8String$ = 8						; size = 4
___xmlIOWin32UTF8ToWChar PROC				; COMDAT

; 202  : {

	push	ebp
	mov	ebp, esp
	sub	esp, 8
	push	esi
	mov	DWORD PTR [ebp-8], -858993460		; ccccccccH
	mov	DWORD PTR [ebp-4], -858993460		; ccccccccH
	mov	ecx, OFFSET __7D5E66B2_xmlio@c
	call	@__CheckForDebuggerJustMyCode@4

; 203  :     wchar_t *wString = NULL;

	mov	DWORD PTR _wString$[ebp], 0

; 204  : 
; 205  :     if (u8String) {

	cmp	DWORD PTR _u8String$[ebp], 0
	je	$LN2@xmlIOWin32

; 206  :         int wLen =

	mov	esi, esp
	push	0
	push	0
	push	-1
	mov	eax, DWORD PTR _u8String$[ebp]
	push	eax
	push	8
	push	65001					; 0000fde9H
	call	DWORD PTR __imp__MultiByteToWideChar@24
	cmp	esi, esp
	call	__RTC_CheckEsp
	mov	DWORD PTR _wLen$1[ebp], eax

; 207  :             MultiByteToWideChar(CP_UTF8, MB_ERR_INVALID_CHARS, u8String,
; 208  :                                 -1, NULL, 0);
; 209  :         if (wLen) {

	cmp	DWORD PTR _wLen$1[ebp], 0
	je	SHORT $LN2@xmlIOWin32

; 210  :             wString = xmlMalloc(wLen * sizeof(wchar_t));

	mov	ecx, DWORD PTR _wLen$1[ebp]
	shl	ecx, 1
	mov	esi, esp
	push	ecx
	call	DWORD PTR _xmlMalloc
	add	esp, 4
	cmp	esi, esp
	call	__RTC_CheckEsp
	mov	DWORD PTR _wString$[ebp], eax

; 211  :             if (wString) {

	cmp	DWORD PTR _wString$[ebp], 0
	je	SHORT $LN2@xmlIOWin32

; 212  :                 if (MultiByteToWideChar
; 213  :                     (CP_UTF8, 0, u8String, -1, wString, wLen) == 0) {

	mov	esi, esp
	mov	edx, DWORD PTR _wLen$1[ebp]
	push	edx
	mov	eax, DWORD PTR _wString$[ebp]
	push	eax
	push	-1
	mov	ecx, DWORD PTR _u8String$[ebp]
	push	ecx
	push	0
	push	65001					; 0000fde9H
	call	DWORD PTR __imp__MultiByteToWideChar@24
	cmp	esi, esp
	call	__RTC_CheckEsp
	test	eax, eax
	jne	SHORT $LN2@xmlIOWin32

; 214  :                     xmlFree(wString);

	mov	esi, esp
	mov	edx, DWORD PTR _wString$[ebp]
	push	edx
	call	DWORD PTR _xmlFree
	add	esp, 4
	cmp	esi, esp
	call	__RTC_CheckEsp

; 215  :                     wString = NULL;

	mov	DWORD PTR _wString$[ebp], 0
$LN2@xmlIOWin32:

; 216  :                 }
; 217  :             }
; 218  :         }
; 219  :     }
; 220  : 
; 221  :     return wString;

	mov	eax, DWORD PTR _wString$[ebp]

; 222  : }

	pop	esi
	add	esp, 8
	cmp	ebp, esp
	call	__RTC_CheckEsp
	mov	esp, ebp
	pop	ebp
	ret	0
___xmlIOWin32UTF8ToWChar ENDP
_TEXT	ENDS
; Function compile flags: /Odtp /RTCsu
; File c:\users\dag\documents\_clients\codeproject authors group\windows on arm\libxml2\libxml2-2.9.9\xmlio.c
;	COMDAT _xmlAllocOutputBufferInternal
_TEXT	SEGMENT
_ret$ = -4						; size = 4
_encoder$ = 8						; size = 4
_xmlAllocOutputBufferInternal PROC			; COMDAT

; 2413 : xmlAllocOutputBufferInternal(xmlCharEncodingHandlerPtr encoder) {

	push	ebp
	mov	ebp, esp
	push	ecx
	push	esi
	mov	DWORD PTR [ebp-4], -858993460		; ccccccccH
	mov	ecx, OFFSET __7D5E66B2_xmlio@c
	call	@__CheckForDebuggerJustMyCode@4

; 2414 :     xmlOutputBufferPtr ret;
; 2415 : 
; 2416 :     ret = (xmlOutputBufferPtr) xmlMalloc(sizeof(xmlOutputBuffer));

	mov	esi, esp
	push	32					; 00000020H
	call	DWORD PTR _xmlMalloc
	add	esp, 4
	cmp	esi, esp
	call	__RTC_CheckEsp
	mov	DWORD PTR _ret$[ebp], eax

; 2417 :     if (ret == NULL) {

	cmp	DWORD PTR _ret$[ebp], 0
	jne	SHORT $LN2@xmlAllocOu

; 2418 : 	xmlIOErrMemory("creating output buffer");

	push	OFFSET ??_C@_0BH@JBBBCCHB@creating?5output?5buffer@
	call	_xmlIOErrMemory
	add	esp, 4

; 2419 : 	return(NULL);

	xor	eax, eax
	jmp	$LN1@xmlAllocOu
$LN2@xmlAllocOu:

; 2420 :     }
; 2421 :     memset(ret, 0, (size_t) sizeof(xmlOutputBuffer));

	xor	eax, eax
	mov	ecx, DWORD PTR _ret$[ebp]
	mov	DWORD PTR [ecx], eax
	mov	DWORD PTR [ecx+4], eax
	mov	DWORD PTR [ecx+8], eax
	mov	DWORD PTR [ecx+12], eax
	mov	DWORD PTR [ecx+16], eax
	mov	DWORD PTR [ecx+20], eax
	mov	DWORD PTR [ecx+24], eax
	mov	DWORD PTR [ecx+28], eax

; 2422 :     ret->buffer = xmlBufCreate();

	call	_xmlBufCreate
	mov	edx, DWORD PTR _ret$[ebp]
	mov	DWORD PTR [edx+16], eax

; 2423 :     if (ret->buffer == NULL) {

	mov	eax, DWORD PTR _ret$[ebp]
	cmp	DWORD PTR [eax+16], 0
	jne	SHORT $LN3@xmlAllocOu

; 2424 :         xmlFree(ret);

	mov	esi, esp
	mov	ecx, DWORD PTR _ret$[ebp]
	push	ecx
	call	DWORD PTR _xmlFree
	add	esp, 4
	cmp	esi, esp
	call	__RTC_CheckEsp

; 2425 : 	return(NULL);

	xor	eax, eax
	jmp	$LN1@xmlAllocOu
$LN3@xmlAllocOu:

; 2426 :     }
; 2427 : 
; 2428 : 
; 2429 :     /*
; 2430 :      * For conversion buffers we use the special IO handling
; 2431 :      */
; 2432 :     xmlBufSetAllocationScheme(ret->buffer, XML_BUFFER_ALLOC_IO);

	push	3
	mov	edx, DWORD PTR _ret$[ebp]
	mov	eax, DWORD PTR [edx+16]
	push	eax
	call	_xmlBufSetAllocationScheme
	add	esp, 8

; 2433 : 
; 2434 :     ret->encoder = encoder;

	mov	ecx, DWORD PTR _ret$[ebp]
	mov	edx, DWORD PTR _encoder$[ebp]
	mov	DWORD PTR [ecx+12], edx

; 2435 :     if (encoder != NULL) {

	cmp	DWORD PTR _encoder$[ebp], 0
	je	SHORT $LN4@xmlAllocOu

; 2436 :         ret->conv = xmlBufCreateSize(4000);

	push	4000					; 00000fa0H
	call	_xmlBufCreateSize
	add	esp, 4
	mov	ecx, DWORD PTR _ret$[ebp]
	mov	DWORD PTR [ecx+20], eax

; 2437 : 	if (ret->conv == NULL) {

	mov	edx, DWORD PTR _ret$[ebp]
	cmp	DWORD PTR [edx+20], 0
	jne	SHORT $LN6@xmlAllocOu

; 2438 : 	    xmlFree(ret);

	mov	esi, esp
	mov	eax, DWORD PTR _ret$[ebp]
	push	eax
	call	DWORD PTR _xmlFree
	add	esp, 4
	cmp	esi, esp
	call	__RTC_CheckEsp

; 2439 : 	    return(NULL);

	xor	eax, eax
	jmp	SHORT $LN1@xmlAllocOu
$LN6@xmlAllocOu:

; 2440 : 	}
; 2441 : 
; 2442 : 	/*
; 2443 : 	 * This call is designed to initiate the encoder state
; 2444 : 	 */
; 2445 :         xmlCharEncOutput(ret, 1);

	push	1
	mov	ecx, DWORD PTR _ret$[ebp]
	push	ecx
	call	_xmlCharEncOutput
	add	esp, 8

; 2446 :     } else

	jmp	SHORT $LN5@xmlAllocOu
$LN4@xmlAllocOu:

; 2447 :         ret->conv = NULL;

	mov	edx, DWORD PTR _ret$[ebp]
	mov	DWORD PTR [edx+20], 0
$LN5@xmlAllocOu:

; 2448 :     ret->writecallback = NULL;

	mov	eax, DWORD PTR _ret$[ebp]
	mov	DWORD PTR [eax+4], 0

; 2449 :     ret->closecallback = NULL;

	mov	ecx, DWORD PTR _ret$[ebp]
	mov	DWORD PTR [ecx+8], 0

; 2450 :     ret->context = NULL;

	mov	edx, DWORD PTR _ret$[ebp]
	mov	DWORD PTR [edx], 0

; 2451 :     ret->written = 0;

	mov	eax, DWORD PTR _ret$[ebp]
	mov	DWORD PTR [eax+24], 0

; 2452 : 
; 2453 :     return(ret);

	mov	eax, DWORD PTR _ret$[ebp]
$LN1@xmlAllocOu:

; 2454 : }

	pop	esi
	add	esp, 4
	cmp	ebp, esp
	call	__RTC_CheckEsp
	mov	esp, ebp
	pop	ebp
	ret	0
_xmlAllocOutputBufferInternal ENDP
_TEXT	ENDS
; Function compile flags: /Odtp /RTCsu
; File c:\users\dag\documents\_clients\codeproject authors group\windows on arm\libxml2\libxml2-2.9.9\xmlio.c
;	COMDAT _xmlOutputBufferCreateFilenameDefault
_TEXT	SEGMENT
_old$ = -4						; size = 4
_func$ = 8						; size = 4
_xmlOutputBufferCreateFilenameDefault PROC		; COMDAT

; 3111 : {

	push	ebp
	mov	ebp, esp
	push	ecx
	mov	DWORD PTR [ebp-4], -858993460		; ccccccccH
	mov	ecx, OFFSET __7D5E66B2_xmlio@c
	call	@__CheckForDebuggerJustMyCode@4

; 3112 :     xmlOutputBufferCreateFilenameFunc old = xmlOutputBufferCreateFilenameValue;

	call	___xmlOutputBufferCreateFilenameValue
	mov	eax, DWORD PTR [eax]
	mov	DWORD PTR _old$[ebp], eax

; 3113 : #ifdef LIBXML_OUTPUT_ENABLED
; 3114 :     if (old == NULL) {

	cmp	DWORD PTR _old$[ebp], 0
	jne	SHORT $LN2@xmlOutputB

; 3115 : 		old = __xmlOutputBufferCreateFilename;

	mov	DWORD PTR _old$[ebp], OFFSET ___xmlOutputBufferCreateFilename
$LN2@xmlOutputB:

; 3116 : 	}
; 3117 : #endif
; 3118 :     xmlOutputBufferCreateFilenameValue = func;

	call	___xmlOutputBufferCreateFilenameValue
	mov	ecx, DWORD PTR _func$[ebp]
	mov	DWORD PTR [eax], ecx

; 3119 :     return(old);

	mov	eax, DWORD PTR _old$[ebp]

; 3120 : }

	add	esp, 4
	cmp	ebp, esp
	call	__RTC_CheckEsp
	mov	esp, ebp
	pop	ebp
	ret	0
_xmlOutputBufferCreateFilenameDefault ENDP
_TEXT	ENDS
; Function compile flags: /Odtp /RTCsu
; File c:\users\dag\documents\_clients\codeproject authors group\windows on arm\libxml2\libxml2-2.9.9\xmlio.c
;	COMDAT _xmlParserInputBufferCreateFilenameDefault
_TEXT	SEGMENT
_old$ = -4						; size = 4
_func$ = 8						; size = 4
_xmlParserInputBufferCreateFilenameDefault PROC		; COMDAT

; 3091 : {

	push	ebp
	mov	ebp, esp
	push	ecx
	mov	DWORD PTR [ebp-4], -858993460		; ccccccccH
	mov	ecx, OFFSET __7D5E66B2_xmlio@c
	call	@__CheckForDebuggerJustMyCode@4

; 3092 :     xmlParserInputBufferCreateFilenameFunc old = xmlParserInputBufferCreateFilenameValue;

	call	___xmlParserInputBufferCreateFilenameValue
	mov	eax, DWORD PTR [eax]
	mov	DWORD PTR _old$[ebp], eax

; 3093 :     if (old == NULL) {

	cmp	DWORD PTR _old$[ebp], 0
	jne	SHORT $LN2@xmlParserI

; 3094 : 		old = __xmlParserInputBufferCreateFilename;

	mov	DWORD PTR _old$[ebp], OFFSET ___xmlParserInputBufferCreateFilename
$LN2@xmlParserI:

; 3095 : 	}
; 3096 : 
; 3097 :     xmlParserInputBufferCreateFilenameValue = func;

	call	___xmlParserInputBufferCreateFilenameValue
	mov	ecx, DWORD PTR _func$[ebp]
	mov	DWORD PTR [eax], ecx

; 3098 :     return(old);

	mov	eax, DWORD PTR _old$[ebp]

; 3099 : }

	add	esp, 4
	cmp	ebp, esp
	call	__RTC_CheckEsp
	mov	esp, ebp
	pop	ebp
	ret	0
_xmlParserInputBufferCreateFilenameDefault ENDP
_TEXT	ENDS
; Function compile flags: /Odtp /RTCsu
; File c:\users\dag\documents\_clients\codeproject authors group\windows on arm\libxml2\libxml2-2.9.9\xmlio.c
;	COMDAT _xmlLoadExternalEntity
_TEXT	SEGMENT
_ret$1 = -8						; size = 4
_canonicFilename$2 = -4					; size = 4
_URL$ = 8						; size = 4
_ID$ = 12						; size = 4
_ctxt$ = 16						; size = 4
_xmlLoadExternalEntity PROC				; COMDAT

; 4021 :                       xmlParserCtxtPtr ctxt) {

	push	ebp
	mov	ebp, esp
	sub	esp, 8
	push	esi
	mov	DWORD PTR [ebp-8], -858993460		; ccccccccH
	mov	DWORD PTR [ebp-4], -858993460		; ccccccccH
	mov	ecx, OFFSET __7D5E66B2_xmlio@c
	call	@__CheckForDebuggerJustMyCode@4

; 4022 :     if ((URL != NULL) && (xmlNoNetExists(URL) == 0)) {

	cmp	DWORD PTR _URL$[ebp], 0
	je	SHORT $LN2@xmlLoadExt
	mov	eax, DWORD PTR _URL$[ebp]
	push	eax
	call	_xmlNoNetExists
	add	esp, 4
	test	eax, eax
	jne	SHORT $LN2@xmlLoadExt

; 4023 : 	char *canonicFilename;
; 4024 : 	xmlParserInputPtr ret;
; 4025 : 
; 4026 : 	canonicFilename = (char *) xmlCanonicPath((const xmlChar *) URL);

	mov	ecx, DWORD PTR _URL$[ebp]
	push	ecx
	call	_xmlCanonicPath
	add	esp, 4
	mov	DWORD PTR _canonicFilename$2[ebp], eax

; 4027 : 	if (canonicFilename == NULL) {

	cmp	DWORD PTR _canonicFilename$2[ebp], 0
	jne	SHORT $LN3@xmlLoadExt

; 4028 :             xmlIOErrMemory("building canonical path\n");

	push	OFFSET ??_C@_0BJ@CJFKOCMN@building?5canonical?5path?6@
	call	_xmlIOErrMemory
	add	esp, 4

; 4029 : 	    return(NULL);

	xor	eax, eax
	jmp	SHORT $LN1@xmlLoadExt
$LN3@xmlLoadExt:

; 4030 : 	}
; 4031 : 
; 4032 : 	ret = xmlCurrentExternalEntityLoader(canonicFilename, ID, ctxt);

	mov	esi, esp
	mov	edx, DWORD PTR _ctxt$[ebp]
	push	edx
	mov	eax, DWORD PTR _ID$[ebp]
	push	eax
	mov	ecx, DWORD PTR _canonicFilename$2[ebp]
	push	ecx
	call	DWORD PTR _xmlCurrentExternalEntityLoader
	add	esp, 12					; 0000000cH
	cmp	esi, esp
	call	__RTC_CheckEsp
	mov	DWORD PTR _ret$1[ebp], eax

; 4033 : 	xmlFree(canonicFilename);

	mov	esi, esp
	mov	edx, DWORD PTR _canonicFilename$2[ebp]
	push	edx
	call	DWORD PTR _xmlFree
	add	esp, 4
	cmp	esi, esp
	call	__RTC_CheckEsp

; 4034 : 	return(ret);

	mov	eax, DWORD PTR _ret$1[ebp]
	jmp	SHORT $LN1@xmlLoadExt
$LN2@xmlLoadExt:

; 4035 :     }
; 4036 :     return(xmlCurrentExternalEntityLoader(URL, ID, ctxt));

	mov	esi, esp
	mov	eax, DWORD PTR _ctxt$[ebp]
	push	eax
	mov	ecx, DWORD PTR _ID$[ebp]
	push	ecx
	mov	edx, DWORD PTR _URL$[ebp]
	push	edx
	call	DWORD PTR _xmlCurrentExternalEntityLoader
	add	esp, 12					; 0000000cH
	cmp	esi, esp
	call	__RTC_CheckEsp
$LN1@xmlLoadExt:

; 4037 : }

	pop	esi
	add	esp, 8
	cmp	ebp, esp
	call	__RTC_CheckEsp
	mov	esp, ebp
	pop	ebp
	ret	0
_xmlLoadExternalEntity ENDP
_TEXT	ENDS
; Function compile flags: /Odtp /RTCsu
; File c:\users\dag\documents\_clients\codeproject authors group\windows on arm\libxml2\libxml2-2.9.9\xmlio.c
;	COMDAT _xmlGetExternalEntityLoader
_TEXT	SEGMENT
_xmlGetExternalEntityLoader PROC			; COMDAT

; 4004 : xmlGetExternalEntityLoader(void) {

	push	ebp
	mov	ebp, esp
	mov	ecx, OFFSET __7D5E66B2_xmlio@c
	call	@__CheckForDebuggerJustMyCode@4

; 4005 :     return(xmlCurrentExternalEntityLoader);

	mov	eax, DWORD PTR _xmlCurrentExternalEntityLoader

; 4006 : }

	cmp	ebp, esp
	call	__RTC_CheckEsp
	pop	ebp
	ret	0
_xmlGetExternalEntityLoader ENDP
_TEXT	ENDS
; Function compile flags: /Odtp /RTCsu
; File c:\users\dag\documents\_clients\codeproject authors group\windows on arm\libxml2\libxml2-2.9.9\xmlio.c
;	COMDAT _xmlSetExternalEntityLoader
_TEXT	SEGMENT
_f$ = 8							; size = 4
_xmlSetExternalEntityLoader PROC			; COMDAT

; 3992 : xmlSetExternalEntityLoader(xmlExternalEntityLoader f) {

	push	ebp
	mov	ebp, esp
	mov	ecx, OFFSET __7D5E66B2_xmlio@c
	call	@__CheckForDebuggerJustMyCode@4

; 3993 :     xmlCurrentExternalEntityLoader = f;

	mov	eax, DWORD PTR _f$[ebp]
	mov	DWORD PTR _xmlCurrentExternalEntityLoader, eax

; 3994 : }

	cmp	ebp, esp
	call	__RTC_CheckEsp
	pop	ebp
	ret	0
_xmlSetExternalEntityLoader ENDP
_TEXT	ENDS
; Function compile flags: /Odtp /RTCsu
; File c:\users\dag\documents\_clients\codeproject authors group\windows on arm\libxml2\libxml2-2.9.9\xmlio.c
;	COMDAT _xmlIOFTPClose
_TEXT	SEGMENT
_context$ = 8						; size = 4
_xmlIOFTPClose PROC					; COMDAT

; 2160 : xmlIOFTPClose (void * context) {

	push	ebp
	mov	ebp, esp
	mov	ecx, OFFSET __7D5E66B2_xmlio@c
	call	@__CheckForDebuggerJustMyCode@4

; 2161 :     return ( xmlNanoFTPClose(context) );

	mov	eax, DWORD PTR _context$[ebp]
	push	eax
	call	_xmlNanoFTPClose
	add	esp, 4

; 2162 : }

	cmp	ebp, esp
	call	__RTC_CheckEsp
	pop	ebp
	ret	0
_xmlIOFTPClose ENDP
_TEXT	ENDS
; Function compile flags: /Odtp /RTCsu
; File c:\users\dag\documents\_clients\codeproject authors group\windows on arm\libxml2\libxml2-2.9.9\xmlio.c
;	COMDAT _xmlIOFTPRead
_TEXT	SEGMENT
_context$ = 8						; size = 4
_buffer$ = 12						; size = 4
_len$ = 16						; size = 4
_xmlIOFTPRead PROC					; COMDAT

; 2146 : xmlIOFTPRead(void * context, char * buffer, int len) {

	push	ebp
	mov	ebp, esp
	mov	ecx, OFFSET __7D5E66B2_xmlio@c
	call	@__CheckForDebuggerJustMyCode@4

; 2147 :     if ((buffer == NULL) || (len < 0)) return(-1);

	cmp	DWORD PTR _buffer$[ebp], 0
	je	SHORT $LN3@xmlIOFTPRe
	cmp	DWORD PTR _len$[ebp], 0
	jge	SHORT $LN2@xmlIOFTPRe
$LN3@xmlIOFTPRe:
	or	eax, -1
	jmp	SHORT $LN1@xmlIOFTPRe
$LN2@xmlIOFTPRe:

; 2148 :     return(xmlNanoFTPRead(context, &buffer[0], len));

	mov	eax, DWORD PTR _len$[ebp]
	push	eax
	mov	ecx, 1
	imul	edx, ecx, 0
	add	edx, DWORD PTR _buffer$[ebp]
	push	edx
	mov	eax, DWORD PTR _context$[ebp]
	push	eax
	call	_xmlNanoFTPRead
	add	esp, 12					; 0000000cH
$LN1@xmlIOFTPRe:

; 2149 : }

	cmp	ebp, esp
	call	__RTC_CheckEsp
	pop	ebp
	ret	0
_xmlIOFTPRead ENDP
_TEXT	ENDS
; Function compile flags: /Odtp /RTCsu
; File c:\users\dag\documents\_clients\codeproject authors group\windows on arm\libxml2\libxml2-2.9.9\xmlio.c
;	COMDAT _xmlIOFTPOpen
_TEXT	SEGMENT
_filename$ = 8						; size = 4
_xmlIOFTPOpen PROC					; COMDAT

; 2131 : xmlIOFTPOpen (const char *filename) {

	push	ebp
	mov	ebp, esp
	mov	ecx, OFFSET __7D5E66B2_xmlio@c
	call	@__CheckForDebuggerJustMyCode@4

; 2132 :     return(xmlNanoFTPOpen(filename));

	mov	eax, DWORD PTR _filename$[ebp]
	push	eax
	call	_xmlNanoFTPOpen
	add	esp, 4

; 2133 : }

	cmp	ebp, esp
	call	__RTC_CheckEsp
	pop	ebp
	ret	0
_xmlIOFTPOpen ENDP
_TEXT	ENDS
; Function compile flags: /Odtp /RTCsu
; File c:\users\dag\documents\_clients\codeproject authors group\windows on arm\libxml2\libxml2-2.9.9\xmlio.c
;	COMDAT _xmlIOFTPMatch
_TEXT	SEGMENT
_filename$ = 8						; size = 4
_xmlIOFTPMatch PROC					; COMDAT

; 2116 : xmlIOFTPMatch (const char *filename) {

	push	ebp
	mov	ebp, esp
	mov	ecx, OFFSET __7D5E66B2_xmlio@c
	call	@__CheckForDebuggerJustMyCode@4

; 2117 :     if (!xmlStrncasecmp(BAD_CAST filename, BAD_CAST "ftp://", 6))

	push	6
	push	OFFSET ??_C@_06FNAPNHDD@ftp?3?1?1@
	mov	eax, DWORD PTR _filename$[ebp]
	push	eax
	call	_xmlStrncasecmp
	add	esp, 12					; 0000000cH
	test	eax, eax
	jne	SHORT $LN2@xmlIOFTPMa

; 2118 : 	return(1);

	mov	eax, 1
	jmp	SHORT $LN1@xmlIOFTPMa
$LN2@xmlIOFTPMa:

; 2119 :     return(0);

	xor	eax, eax
$LN1@xmlIOFTPMa:

; 2120 : }

	cmp	ebp, esp
	call	__RTC_CheckEsp
	pop	ebp
	ret	0
_xmlIOFTPMatch ENDP
_TEXT	ENDS
; Function compile flags: /Odtp /RTCsu
; File c:\users\dag\documents\_clients\codeproject authors group\windows on arm\libxml2\libxml2-2.9.9\xmlio.c
;	COMDAT _xmlIOHTTPClose
_TEXT	SEGMENT
_context$ = 8						; size = 4
_xmlIOHTTPClose PROC					; COMDAT

; 1930 : xmlIOHTTPClose (void * context) {

	push	ebp
	mov	ebp, esp
	mov	ecx, OFFSET __7D5E66B2_xmlio@c
	call	@__CheckForDebuggerJustMyCode@4

; 1931 :     xmlNanoHTTPClose(context);

	mov	eax, DWORD PTR _context$[ebp]
	push	eax
	call	_xmlNanoHTTPClose
	add	esp, 4

; 1932 :     return 0;

	xor	eax, eax

; 1933 : }

	cmp	ebp, esp
	call	__RTC_CheckEsp
	pop	ebp
	ret	0
_xmlIOHTTPClose ENDP
_TEXT	ENDS
; Function compile flags: /Odtp /RTCsu
; File c:\users\dag\documents\_clients\codeproject authors group\windows on arm\libxml2\libxml2-2.9.9\xmlio.c
;	COMDAT _xmlIOHTTPRead
_TEXT	SEGMENT
_context$ = 8						; size = 4
_buffer$ = 12						; size = 4
_len$ = 16						; size = 4
_xmlIOHTTPRead PROC					; COMDAT

; 1867 : xmlIOHTTPRead(void * context, char * buffer, int len) {

	push	ebp
	mov	ebp, esp
	mov	ecx, OFFSET __7D5E66B2_xmlio@c
	call	@__CheckForDebuggerJustMyCode@4

; 1868 :     if ((buffer == NULL) || (len < 0)) return(-1);

	cmp	DWORD PTR _buffer$[ebp], 0
	je	SHORT $LN3@xmlIOHTTPR
	cmp	DWORD PTR _len$[ebp], 0
	jge	SHORT $LN2@xmlIOHTTPR
$LN3@xmlIOHTTPR:
	or	eax, -1
	jmp	SHORT $LN1@xmlIOHTTPR
$LN2@xmlIOHTTPR:

; 1869 :     return(xmlNanoHTTPRead(context, &buffer[0], len));

	mov	eax, DWORD PTR _len$[ebp]
	push	eax
	mov	ecx, 1
	imul	edx, ecx, 0
	add	edx, DWORD PTR _buffer$[ebp]
	push	edx
	mov	eax, DWORD PTR _context$[ebp]
	push	eax
	call	_xmlNanoHTTPRead
	add	esp, 12					; 0000000cH
$LN1@xmlIOHTTPR:

; 1870 : }

	cmp	ebp, esp
	call	__RTC_CheckEsp
	pop	ebp
	ret	0
_xmlIOHTTPRead ENDP
_TEXT	ENDS
; Function compile flags: /Odtp /RTCsu
; File c:\users\dag\documents\_clients\codeproject authors group\windows on arm\libxml2\libxml2-2.9.9\xmlio.c
;	COMDAT _xmlIOHTTPOpenW
_TEXT	SEGMENT
_ctxt$ = -4						; size = 4
_post_uri$ = 8						; size = 4
_compression$ = 12					; size = 4
_xmlIOHTTPOpenW PROC					; COMDAT

; 1789 : {

	push	ebp
	mov	ebp, esp
	push	ecx
	push	esi
	mov	DWORD PTR [ebp-4], -858993460		; ccccccccH
	mov	ecx, OFFSET __7D5E66B2_xmlio@c
	call	@__CheckForDebuggerJustMyCode@4

; 1790 : 
; 1791 :     xmlIOHTTPWriteCtxtPtr ctxt = NULL;

	mov	DWORD PTR _ctxt$[ebp], 0

; 1792 : 
; 1793 :     if (post_uri == NULL)

	cmp	DWORD PTR _post_uri$[ebp], 0
	jne	SHORT $LN2@xmlIOHTTPO

; 1794 :         return (NULL);

	xor	eax, eax
	jmp	$LN1@xmlIOHTTPO
$LN2@xmlIOHTTPO:

; 1795 : 
; 1796 :     ctxt = xmlMalloc(sizeof(xmlIOHTTPWriteCtxt));

	mov	esi, esp
	push	12					; 0000000cH
	call	DWORD PTR _xmlMalloc
	add	esp, 4
	cmp	esi, esp
	call	__RTC_CheckEsp
	mov	DWORD PTR _ctxt$[ebp], eax

; 1797 :     if (ctxt == NULL) {

	cmp	DWORD PTR _ctxt$[ebp], 0
	jne	SHORT $LN3@xmlIOHTTPO

; 1798 : 	xmlIOErrMemory("creating HTTP output context");

	push	OFFSET ??_C@_0BN@HPAPFPOH@creating?5HTTP?5output?5context@
	call	_xmlIOErrMemory
	add	esp, 4

; 1799 :         return (NULL);

	xor	eax, eax
	jmp	$LN1@xmlIOHTTPO
$LN3@xmlIOHTTPO:

; 1800 :     }
; 1801 : 
; 1802 :     (void) memset(ctxt, 0, sizeof(xmlIOHTTPWriteCtxt));

	xor	eax, eax
	mov	ecx, DWORD PTR _ctxt$[ebp]
	mov	DWORD PTR [ecx], eax
	mov	DWORD PTR [ecx+4], eax
	mov	DWORD PTR [ecx+8], eax

; 1803 : 
; 1804 :     ctxt->uri = (char *) xmlStrdup((const xmlChar *)post_uri);

	mov	edx, DWORD PTR _post_uri$[ebp]
	push	edx
	call	_xmlStrdup
	add	esp, 4
	mov	ecx, DWORD PTR _ctxt$[ebp]
	mov	DWORD PTR [ecx+4], eax

; 1805 :     if (ctxt->uri == NULL) {

	mov	edx, DWORD PTR _ctxt$[ebp]
	cmp	DWORD PTR [edx+4], 0
	jne	SHORT $LN4@xmlIOHTTPO

; 1806 : 	xmlIOErrMemory("copying URI");

	push	OFFSET ??_C@_0M@MAMOHIEM@copying?5URI@
	call	_xmlIOErrMemory
	add	esp, 4

; 1807 :         xmlFreeHTTPWriteCtxt(ctxt);

	mov	eax, DWORD PTR _ctxt$[ebp]
	push	eax
	call	_xmlFreeHTTPWriteCtxt
	add	esp, 4

; 1808 :         return (NULL);

	xor	eax, eax
	jmp	SHORT $LN1@xmlIOHTTPO
$LN4@xmlIOHTTPO:

; 1809 :     }
; 1810 : 
; 1811 :     /*
; 1812 :      * **  Since the document length is required for an HTTP post,
; 1813 :      * **  need to put the document into a buffer.  A memory buffer
; 1814 :      * **  is being used to avoid pushing the data to disk and back.
; 1815 :      */
; 1816 : 
; 1817 : #ifdef LIBXML_ZLIB_ENABLED
; 1818 :     if ((compression > 0) && (compression <= 9)) {

	cmp	DWORD PTR _compression$[ebp], 0
	jle	SHORT $LN5@xmlIOHTTPO
	cmp	DWORD PTR _compression$[ebp], 9
	jg	SHORT $LN5@xmlIOHTTPO

; 1819 : 
; 1820 :         ctxt->compression = compression;

	mov	ecx, DWORD PTR _ctxt$[ebp]
	mov	edx, DWORD PTR _compression$[ebp]
	mov	DWORD PTR [ecx], edx

; 1821 :         ctxt->doc_buff = xmlCreateZMemBuff(compression);

	mov	eax, DWORD PTR _compression$[ebp]
	push	eax
	call	_xmlCreateZMemBuff
	add	esp, 4
	mov	ecx, DWORD PTR _ctxt$[ebp]
	mov	DWORD PTR [ecx+8], eax

; 1822 :     } else

	jmp	SHORT $LN6@xmlIOHTTPO
$LN5@xmlIOHTTPO:

; 1823 : #endif
; 1824 :     {
; 1825 :         /*  Any character conversions should have been done before this  */
; 1826 : 
; 1827 :         ctxt->doc_buff = xmlAllocOutputBufferInternal(NULL);

	push	0
	call	_xmlAllocOutputBufferInternal
	add	esp, 4
	mov	edx, DWORD PTR _ctxt$[ebp]
	mov	DWORD PTR [edx+8], eax
$LN6@xmlIOHTTPO:

; 1828 :     }
; 1829 : 
; 1830 :     if (ctxt->doc_buff == NULL) {

	mov	eax, DWORD PTR _ctxt$[ebp]
	cmp	DWORD PTR [eax+8], 0
	jne	SHORT $LN7@xmlIOHTTPO

; 1831 :         xmlFreeHTTPWriteCtxt(ctxt);

	mov	ecx, DWORD PTR _ctxt$[ebp]
	push	ecx
	call	_xmlFreeHTTPWriteCtxt
	add	esp, 4

; 1832 :         ctxt = NULL;

	mov	DWORD PTR _ctxt$[ebp], 0
$LN7@xmlIOHTTPO:

; 1833 :     }
; 1834 : 
; 1835 :     return (ctxt);

	mov	eax, DWORD PTR _ctxt$[ebp]
$LN1@xmlIOHTTPO:

; 1836 : }

	pop	esi
	add	esp, 4
	cmp	ebp, esp
	call	__RTC_CheckEsp
	mov	esp, ebp
	pop	ebp
	ret	0
_xmlIOHTTPOpenW ENDP
_TEXT	ENDS
; Function compile flags: /Odtp /RTCsu
; File c:\users\dag\documents\_clients\codeproject authors group\windows on arm\libxml2\libxml2-2.9.9\xmlio.c
;	COMDAT _xmlIOHTTPOpen
_TEXT	SEGMENT
_filename$ = 8						; size = 4
_xmlIOHTTPOpen PROC					; COMDAT

; 1771 : xmlIOHTTPOpen (const char *filename) {

	push	ebp
	mov	ebp, esp
	mov	ecx, OFFSET __7D5E66B2_xmlio@c
	call	@__CheckForDebuggerJustMyCode@4

; 1772 :     return(xmlNanoHTTPOpen(filename, NULL));

	push	0
	mov	eax, DWORD PTR _filename$[ebp]
	push	eax
	call	_xmlNanoHTTPOpen
	add	esp, 8

; 1773 : }

	cmp	ebp, esp
	call	__RTC_CheckEsp
	pop	ebp
	ret	0
_xmlIOHTTPOpen ENDP
_TEXT	ENDS
; Function compile flags: /Odtp /RTCsu
; File c:\users\dag\documents\_clients\codeproject authors group\windows on arm\libxml2\libxml2-2.9.9\xmlio.c
;	COMDAT _xmlIOHTTPMatch
_TEXT	SEGMENT
_filename$ = 8						; size = 4
_xmlIOHTTPMatch PROC					; COMDAT

; 1756 : xmlIOHTTPMatch (const char *filename) {

	push	ebp
	mov	ebp, esp
	mov	ecx, OFFSET __7D5E66B2_xmlio@c
	call	@__CheckForDebuggerJustMyCode@4

; 1757 :     if (!xmlStrncasecmp(BAD_CAST filename, BAD_CAST "http://", 7))

	push	7
	push	OFFSET ??_C@_07FGAOOBMN@http?3?1?1@
	mov	eax, DWORD PTR _filename$[ebp]
	push	eax
	call	_xmlStrncasecmp
	add	esp, 12					; 0000000cH
	test	eax, eax
	jne	SHORT $LN2@xmlIOHTTPM

; 1758 : 	return(1);

	mov	eax, 1
	jmp	SHORT $LN1@xmlIOHTTPM
$LN2@xmlIOHTTPM:

; 1759 :     return(0);

	xor	eax, eax
$LN1@xmlIOHTTPM:

; 1760 : }

	cmp	ebp, esp
	call	__RTC_CheckEsp
	pop	ebp
	ret	0
_xmlIOHTTPMatch ENDP
_TEXT	ENDS
; Function compile flags: /Odtp /RTCsu
; File c:\users\dag\documents\_clients\codeproject authors group\windows on arm\libxml2\libxml2-2.9.9\xmlio.c
;	COMDAT _xmlFileClose
_TEXT	SEGMENT
tv82 = -12						; size = 4
_ret$ = -8						; size = 4
_fil$ = -4						; size = 4
_context$ = 8						; size = 4
_xmlFileClose PROC					; COMDAT

; 980  : xmlFileClose (void * context) {

	push	ebp
	mov	ebp, esp
	sub	esp, 12					; 0000000cH
	push	esi
	mov	DWORD PTR [ebp-12], -858993460		; ccccccccH
	mov	DWORD PTR [ebp-8], -858993460		; ccccccccH
	mov	DWORD PTR [ebp-4], -858993460		; ccccccccH
	mov	ecx, OFFSET __7D5E66B2_xmlio@c
	call	@__CheckForDebuggerJustMyCode@4

; 981  :     FILE *fil;
; 982  :     int ret;
; 983  : 
; 984  :     if (context == NULL)

	cmp	DWORD PTR _context$[ebp], 0
	jne	SHORT $LN2@xmlFileClo

; 985  :         return(-1);

	or	eax, -1
	jmp	$LN1@xmlFileClo
$LN2@xmlFileClo:

; 986  :     fil = (FILE *) context;

	mov	eax, DWORD PTR _context$[ebp]
	mov	DWORD PTR _fil$[ebp], eax

; 987  :     if ((fil == stdout) || (fil == stderr)) {

	mov	esi, esp
	push	1
	call	DWORD PTR __imp____acrt_iob_func
	add	esp, 4
	cmp	esi, esp
	call	__RTC_CheckEsp
	cmp	DWORD PTR _fil$[ebp], eax
	je	SHORT $LN4@xmlFileClo
	mov	esi, esp
	push	2
	call	DWORD PTR __imp____acrt_iob_func
	add	esp, 4
	cmp	esi, esp
	call	__RTC_CheckEsp
	cmp	DWORD PTR _fil$[ebp], eax
	jne	SHORT $LN3@xmlFileClo
$LN4@xmlFileClo:

; 988  :         ret = fflush(fil);

	mov	esi, esp
	mov	ecx, DWORD PTR _fil$[ebp]
	push	ecx
	call	DWORD PTR __imp__fflush
	add	esp, 4
	cmp	esi, esp
	call	__RTC_CheckEsp
	mov	DWORD PTR _ret$[ebp], eax

; 989  : 	if (ret < 0)

	cmp	DWORD PTR _ret$[ebp], 0
	jge	SHORT $LN5@xmlFileClo

; 990  : 	    xmlIOErr(0, "fflush()");

	push	OFFSET ??_C@_08FAKMNOA@fflush?$CI?$CJ@
	push	0
	call	_xmlIOErr
	add	esp, 8
$LN5@xmlFileClo:

; 991  : 	return(0);

	xor	eax, eax
	jmp	SHORT $LN1@xmlFileClo
$LN3@xmlFileClo:

; 992  :     }
; 993  :     if (fil == stdin)

	mov	esi, esp
	push	0
	call	DWORD PTR __imp____acrt_iob_func
	add	esp, 4
	cmp	esi, esp
	call	__RTC_CheckEsp
	cmp	DWORD PTR _fil$[ebp], eax
	jne	SHORT $LN6@xmlFileClo

; 994  : 	return(0);

	xor	eax, eax
	jmp	SHORT $LN1@xmlFileClo
$LN6@xmlFileClo:

; 995  :     ret = ( fclose((FILE *) context) == EOF ) ? -1 : 0;

	mov	esi, esp
	mov	edx, DWORD PTR _context$[ebp]
	push	edx
	call	DWORD PTR __imp__fclose
	add	esp, 4
	cmp	esi, esp
	call	__RTC_CheckEsp
	cmp	eax, -1
	jne	SHORT $LN9@xmlFileClo
	mov	DWORD PTR tv82[ebp], -1
	jmp	SHORT $LN10@xmlFileClo
$LN9@xmlFileClo:
	mov	DWORD PTR tv82[ebp], 0
$LN10@xmlFileClo:
	mov	eax, DWORD PTR tv82[ebp]
	mov	DWORD PTR _ret$[ebp], eax

; 996  :     if (ret < 0)

	cmp	DWORD PTR _ret$[ebp], 0
	jge	SHORT $LN7@xmlFileClo

; 997  :         xmlIOErr(0, "fclose()");

	push	OFFSET ??_C@_08BNMNDKKE@fclose?$CI?$CJ@
	push	0
	call	_xmlIOErr
	add	esp, 8
$LN7@xmlFileClo:

; 998  :     return(ret);

	mov	eax, DWORD PTR _ret$[ebp]
$LN1@xmlFileClo:

; 999  : }

	pop	esi
	add	esp, 12					; 0000000cH
	cmp	ebp, esp
	call	__RTC_CheckEsp
	mov	esp, ebp
	pop	ebp
	ret	0
_xmlFileClose ENDP
_TEXT	ENDS
; Function compile flags: /Odtp /RTCsu
; File c:\users\dag\documents\_clients\codeproject authors group\windows on arm\libxml2\libxml2-2.9.9\xmlio.c
;	COMDAT _xmlFileRead
_TEXT	SEGMENT
_ret$ = -4						; size = 4
_context$ = 8						; size = 4
_buffer$ = 12						; size = 4
_len$ = 16						; size = 4
_xmlFileRead PROC					; COMDAT

; 936  : xmlFileRead (void * context, char * buffer, int len) {

	push	ebp
	mov	ebp, esp
	push	ecx
	push	esi
	mov	DWORD PTR [ebp-4], -858993460		; ccccccccH
	mov	ecx, OFFSET __7D5E66B2_xmlio@c
	call	@__CheckForDebuggerJustMyCode@4

; 937  :     int ret;
; 938  :     if ((context == NULL) || (buffer == NULL))

	cmp	DWORD PTR _context$[ebp], 0
	je	SHORT $LN3@xmlFileRea
	cmp	DWORD PTR _buffer$[ebp], 0
	jne	SHORT $LN2@xmlFileRea
$LN3@xmlFileRea:

; 939  :         return(-1);

	or	eax, -1
	jmp	SHORT $LN1@xmlFileRea
$LN2@xmlFileRea:

; 940  :     ret = fread(&buffer[0], 1,  len, (FILE *) context);

	mov	esi, esp
	mov	eax, DWORD PTR _context$[ebp]
	push	eax
	mov	ecx, DWORD PTR _len$[ebp]
	push	ecx
	push	1
	mov	edx, 1
	imul	eax, edx, 0
	add	eax, DWORD PTR _buffer$[ebp]
	push	eax
	call	DWORD PTR __imp__fread
	add	esp, 16					; 00000010H
	cmp	esi, esp
	call	__RTC_CheckEsp
	mov	DWORD PTR _ret$[ebp], eax

; 941  :     if (ret < 0) xmlIOErr(0, "fread()");

	cmp	DWORD PTR _ret$[ebp], 0
	jge	SHORT $LN4@xmlFileRea
	push	OFFSET ??_C@_07MNJJGAFL@fread?$CI?$CJ@
	push	0
	call	_xmlIOErr
	add	esp, 8
$LN4@xmlFileRea:

; 942  :     return(ret);

	mov	eax, DWORD PTR _ret$[ebp]
$LN1@xmlFileRea:

; 943  : }

	pop	esi
	add	esp, 4
	cmp	ebp, esp
	call	__RTC_CheckEsp
	mov	esp, ebp
	pop	ebp
	ret	0
_xmlFileRead ENDP
_TEXT	ENDS
; Function compile flags: /Odtp /RTCsu
; File c:\users\dag\documents\_clients\codeproject authors group\windows on arm\libxml2\libxml2-2.9.9\xmlio.c
;	COMDAT _xmlFileOpen
_TEXT	SEGMENT
_retval$ = -8						; size = 4
_unescaped$ = -4					; size = 4
_filename$ = 8						; size = 4
_xmlFileOpen PROC					; COMDAT

; 858  : xmlFileOpen (const char *filename) {

	push	ebp
	mov	ebp, esp
	sub	esp, 8
	push	esi
	mov	DWORD PTR [ebp-8], -858993460		; ccccccccH
	mov	DWORD PTR [ebp-4], -858993460		; ccccccccH
	mov	ecx, OFFSET __7D5E66B2_xmlio@c
	call	@__CheckForDebuggerJustMyCode@4

; 859  :     char *unescaped;
; 860  :     void *retval;
; 861  : 
; 862  :     retval = xmlFileOpen_real(filename);

	mov	eax, DWORD PTR _filename$[ebp]
	push	eax
	call	_xmlFileOpen_real
	add	esp, 4
	mov	DWORD PTR _retval$[ebp], eax

; 863  :     if (retval == NULL) {

	cmp	DWORD PTR _retval$[ebp], 0
	jne	SHORT $LN2@xmlFileOpe

; 864  : 	unescaped = xmlURIUnescapeString(filename, 0, NULL);

	push	0
	push	0
	mov	ecx, DWORD PTR _filename$[ebp]
	push	ecx
	call	_xmlURIUnescapeString
	add	esp, 12					; 0000000cH
	mov	DWORD PTR _unescaped$[ebp], eax

; 865  : 	if (unescaped != NULL) {

	cmp	DWORD PTR _unescaped$[ebp], 0
	je	SHORT $LN2@xmlFileOpe

; 866  : 	    retval = xmlFileOpen_real(unescaped);

	mov	edx, DWORD PTR _unescaped$[ebp]
	push	edx
	call	_xmlFileOpen_real
	add	esp, 4
	mov	DWORD PTR _retval$[ebp], eax

; 867  : 	    xmlFree(unescaped);

	mov	esi, esp
	mov	eax, DWORD PTR _unescaped$[ebp]
	push	eax
	call	DWORD PTR _xmlFree
	add	esp, 4
	cmp	esi, esp
	call	__RTC_CheckEsp
$LN2@xmlFileOpe:

; 868  : 	}
; 869  :     }
; 870  : 
; 871  :     return retval;

	mov	eax, DWORD PTR _retval$[ebp]

; 872  : }

	pop	esi
	add	esp, 8
	cmp	ebp, esp
	call	__RTC_CheckEsp
	mov	esp, ebp
	pop	ebp
	ret	0
_xmlFileOpen ENDP
_TEXT	ENDS
; Function compile flags: /Odtp /RTCsu
; File c:\users\dag\documents\_clients\codeproject authors group\windows on arm\libxml2\libxml2-2.9.9\xmlio.c
;	COMDAT _xmlFileMatch
_TEXT	SEGMENT
_filename$ = 8						; size = 4
_xmlFileMatch PROC					; COMDAT

; 786  : xmlFileMatch (const char *filename ATTRIBUTE_UNUSED) {

	push	ebp
	mov	ebp, esp
	mov	ecx, OFFSET __7D5E66B2_xmlio@c
	call	@__CheckForDebuggerJustMyCode@4

; 787  :     return(1);

	mov	eax, 1

; 788  : }

	cmp	ebp, esp
	call	__RTC_CheckEsp
	pop	ebp
	ret	0
_xmlFileMatch ENDP
_TEXT	ENDS
; Function compile flags: /Odtp /RTCsu
; File c:\users\dag\documents\_clients\codeproject authors group\windows on arm\libxml2\libxml2-2.9.9\xmlio.c
;	COMDAT _xmlCheckFilename
_TEXT	SEGMENT
_stat_buffer$ = -52					; size = 48
_path$ = 8						; size = 4
_xmlCheckFilename PROC					; COMDAT

; 670  : {

	push	ebp
	mov	ebp, esp
	sub	esp, 56					; 00000038H
	push	edi
	lea	edi, DWORD PTR [ebp-56]
	mov	ecx, 14					; 0000000eH
	mov	eax, -858993460				; ccccccccH
	rep stosd
	mov	ecx, OFFSET __7D5E66B2_xmlio@c
	call	@__CheckForDebuggerJustMyCode@4

; 671  : #ifdef HAVE_STAT
; 672  : #if defined(_WIN32) || defined (__DJGPP__) && !defined (__CYGWIN__)
; 673  :     struct _stat stat_buffer;
; 674  : #else
; 675  :     struct stat stat_buffer;
; 676  : #endif
; 677  : #endif
; 678  :     if (path == NULL)

	cmp	DWORD PTR _path$[ebp], 0
	jne	SHORT $LN2@xmlCheckFi

; 679  : 	return(0);

	xor	eax, eax
	jmp	$LN1@xmlCheckFi
$LN2@xmlCheckFi:

; 680  : 
; 681  : #ifdef HAVE_STAT
; 682  : #if defined(_WIN32) || defined (__DJGPP__) && !defined (__CYGWIN__)
; 683  :     /*
; 684  :      * On Windows stat and wstat do not work with long pathname,
; 685  :      * which start with '\\?\'
; 686  :      */
; 687  :     if ((path[0] == '\\') && (path[1] == '\\') && (path[2] == '?') &&

	mov	eax, 1
	imul	ecx, eax, 0
	mov	edx, DWORD PTR _path$[ebp]
	movsx	eax, BYTE PTR [edx+ecx]
	cmp	eax, 92					; 0000005cH
	jne	SHORT $LN3@xmlCheckFi
	mov	ecx, 1
	shl	ecx, 0
	mov	edx, DWORD PTR _path$[ebp]
	movsx	eax, BYTE PTR [edx+ecx]
	cmp	eax, 92					; 0000005cH
	jne	SHORT $LN3@xmlCheckFi
	mov	ecx, 1
	shl	ecx, 1
	mov	edx, DWORD PTR _path$[ebp]
	movsx	eax, BYTE PTR [edx+ecx]
	cmp	eax, 63					; 0000003fH
	jne	SHORT $LN3@xmlCheckFi
	mov	ecx, 1
	imul	edx, ecx, 3
	mov	eax, DWORD PTR _path$[ebp]
	movsx	ecx, BYTE PTR [eax+edx]
	cmp	ecx, 92					; 0000005cH
	jne	SHORT $LN3@xmlCheckFi

; 688  : 	(path[3] == '\\') )
; 689  : 	    return 1;

	mov	eax, 1
	jmp	SHORT $LN1@xmlCheckFi
$LN3@xmlCheckFi:

; 690  : 
; 691  :     if (xmlWrapStatUtf8(path, &stat_buffer) == -1)

	lea	edx, DWORD PTR _stat_buffer$[ebp]
	push	edx
	mov	eax, DWORD PTR _path$[ebp]
	push	eax
	call	_xmlWrapStatUtf8
	add	esp, 8
	cmp	eax, -1
	jne	SHORT $LN4@xmlCheckFi

; 692  :         return 0;

	xor	eax, eax
	jmp	SHORT $LN1@xmlCheckFi
$LN4@xmlCheckFi:

; 693  : #else
; 694  :     if (stat(path, &stat_buffer) == -1)
; 695  :         return 0;
; 696  : #endif
; 697  : #ifdef S_ISDIR
; 698  :     if (S_ISDIR(stat_buffer.st_mode))

	movzx	ecx, WORD PTR _stat_buffer$[ebp+6]
	and	ecx, 61440				; 0000f000H
	cmp	ecx, 16384				; 00004000H
	jne	SHORT $LN5@xmlCheckFi

; 699  :         return 2;

	mov	eax, 2
	jmp	SHORT $LN1@xmlCheckFi
$LN5@xmlCheckFi:

; 700  : #endif
; 701  : #endif /* HAVE_STAT */
; 702  :     return 1;

	mov	eax, 1
$LN1@xmlCheckFi:

; 703  : }

	push	edx
	mov	ecx, ebp
	push	eax
	lea	edx, DWORD PTR $LN9@xmlCheckFi
	call	@_RTC_CheckStackVars@8
	pop	eax
	pop	edx
	pop	edi
	add	esp, 56					; 00000038H
	cmp	ebp, esp
	call	__RTC_CheckEsp
	mov	esp, ebp
	pop	ebp
	ret	0
	npad	2
$LN9@xmlCheckFi:
	DD	1
	DD	$LN8@xmlCheckFi
$LN8@xmlCheckFi:
	DD	-52					; ffffffccH
	DD	48					; 00000030H
	DD	$LN7@xmlCheckFi
$LN7@xmlCheckFi:
	DB	115					; 00000073H
	DB	116					; 00000074H
	DB	97					; 00000061H
	DB	116					; 00000074H
	DB	95					; 0000005fH
	DB	98					; 00000062H
	DB	117					; 00000075H
	DB	102					; 00000066H
	DB	102					; 00000066H
	DB	101					; 00000065H
	DB	114					; 00000072H
	DB	0
_xmlCheckFilename ENDP
_TEXT	ENDS
; Function compile flags: /Odtp /RTCsu
; File c:\users\dag\documents\_clients\codeproject authors group\windows on arm\libxml2\libxml2-2.9.9\xmlio.c
;	COMDAT _xmlNormalizeWindowsPath
_TEXT	SEGMENT
_path$ = 8						; size = 4
_xmlNormalizeWindowsPath PROC				; COMDAT

; 483  : {

	push	ebp
	mov	ebp, esp
	mov	ecx, OFFSET __7D5E66B2_xmlio@c
	call	@__CheckForDebuggerJustMyCode@4

; 484  :     return xmlCanonicPath(path);

	mov	eax, DWORD PTR _path$[ebp]
	push	eax
	call	_xmlCanonicPath
	add	esp, 4

; 485  : }

	cmp	ebp, esp
	call	__RTC_CheckEsp
	pop	ebp
	ret	0
_xmlNormalizeWindowsPath ENDP
_TEXT	ENDS
; Function compile flags: /Odtp /RTCsu
; File c:\users\dag\documents\_clients\codeproject authors group\windows on arm\libxml2\libxml2-2.9.9\xmlio.c
;	COMDAT _xmlNoNetExternalEntityLoader
_TEXT	SEGMENT
_resource$ = -8						; size = 4
_input$ = -4						; size = 4
_URL$ = 8						; size = 4
_ID$ = 12						; size = 4
_ctxt$ = 16						; size = 4
_xmlNoNetExternalEntityLoader PROC			; COMDAT

; 4058 :                              xmlParserCtxtPtr ctxt) {

	push	ebp
	mov	ebp, esp
	sub	esp, 8
	push	esi
	mov	DWORD PTR [ebp-8], -858993460		; ccccccccH
	mov	DWORD PTR [ebp-4], -858993460		; ccccccccH
	mov	ecx, OFFSET __7D5E66B2_xmlio@c
	call	@__CheckForDebuggerJustMyCode@4

; 4059 :     xmlParserInputPtr input = NULL;

	mov	DWORD PTR _input$[ebp], 0

; 4060 :     xmlChar *resource = NULL;

	mov	DWORD PTR _resource$[ebp], 0

; 4061 : 
; 4062 : #ifdef LIBXML_CATALOG_ENABLED
; 4063 :     resource = xmlResolveResourceFromCatalog(URL, ID, ctxt);

	mov	eax, DWORD PTR _ctxt$[ebp]
	push	eax
	mov	ecx, DWORD PTR _ID$[ebp]
	push	ecx
	mov	edx, DWORD PTR _URL$[ebp]
	push	edx
	call	_xmlResolveResourceFromCatalog
	add	esp, 12					; 0000000cH
	mov	DWORD PTR _resource$[ebp], eax

; 4064 : #endif
; 4065 : 
; 4066 :     if (resource == NULL)

	cmp	DWORD PTR _resource$[ebp], 0
	jne	SHORT $LN2@xmlNoNetEx

; 4067 : 	resource = (xmlChar *) URL;

	mov	eax, DWORD PTR _URL$[ebp]
	mov	DWORD PTR _resource$[ebp], eax
$LN2@xmlNoNetEx:

; 4068 : 
; 4069 :     if (resource != NULL) {

	cmp	DWORD PTR _resource$[ebp], 0
	je	SHORT $LN3@xmlNoNetEx

; 4070 :         if ((!xmlStrncasecmp(BAD_CAST resource, BAD_CAST "ftp://", 6)) ||

	push	6
	push	OFFSET ??_C@_06FNAPNHDD@ftp?3?1?1@
	mov	ecx, DWORD PTR _resource$[ebp]
	push	ecx
	call	_xmlStrncasecmp
	add	esp, 12					; 0000000cH
	test	eax, eax
	je	SHORT $LN5@xmlNoNetEx
	push	7
	push	OFFSET ??_C@_07FGAOOBMN@http?3?1?1@
	mov	edx, DWORD PTR _resource$[ebp]
	push	edx
	call	_xmlStrncasecmp
	add	esp, 12					; 0000000cH
	test	eax, eax
	jne	SHORT $LN3@xmlNoNetEx
$LN5@xmlNoNetEx:

; 4071 :             (!xmlStrncasecmp(BAD_CAST resource, BAD_CAST "http://", 7))) {
; 4072 :             xmlIOErr(XML_IO_NETWORK_ATTEMPT, (const char *) resource);

	mov	eax, DWORD PTR _resource$[ebp]
	push	eax
	push	1543					; 00000607H
	call	_xmlIOErr
	add	esp, 8

; 4073 : 	    if (resource != (xmlChar *) URL)

	mov	ecx, DWORD PTR _resource$[ebp]
	cmp	ecx, DWORD PTR _URL$[ebp]
	je	SHORT $LN6@xmlNoNetEx

; 4074 : 		xmlFree(resource);

	mov	esi, esp
	mov	edx, DWORD PTR _resource$[ebp]
	push	edx
	call	DWORD PTR _xmlFree
	add	esp, 4
	cmp	esi, esp
	call	__RTC_CheckEsp
$LN6@xmlNoNetEx:

; 4075 : 	    return(NULL);

	xor	eax, eax
	jmp	SHORT $LN1@xmlNoNetEx
$LN3@xmlNoNetEx:

; 4076 : 	}
; 4077 :     }
; 4078 :     input = xmlDefaultExternalEntityLoader((const char *) resource, ID, ctxt);

	mov	eax, DWORD PTR _ctxt$[ebp]
	push	eax
	mov	ecx, DWORD PTR _ID$[ebp]
	push	ecx
	mov	edx, DWORD PTR _resource$[ebp]
	push	edx
	call	_xmlDefaultExternalEntityLoader
	add	esp, 12					; 0000000cH
	mov	DWORD PTR _input$[ebp], eax

; 4079 :     if (resource != (xmlChar *) URL)

	mov	eax, DWORD PTR _resource$[ebp]
	cmp	eax, DWORD PTR _URL$[ebp]
	je	SHORT $LN7@xmlNoNetEx

; 4080 : 	xmlFree(resource);

	mov	esi, esp
	mov	ecx, DWORD PTR _resource$[ebp]
	push	ecx
	call	DWORD PTR _xmlFree
	add	esp, 4
	cmp	esi, esp
	call	__RTC_CheckEsp
$LN7@xmlNoNetEx:

; 4081 :     return(input);

	mov	eax, DWORD PTR _input$[ebp]
$LN1@xmlNoNetEx:

; 4082 : }

	pop	esi
	add	esp, 8
	cmp	ebp, esp
	call	__RTC_CheckEsp
	mov	esp, ebp
	pop	ebp
	ret	0
_xmlNoNetExternalEntityLoader ENDP
_TEXT	ENDS
; Function compile flags: /Odtp /RTCsu
; File c:\users\dag\documents\_clients\codeproject authors group\windows on arm\libxml2\libxml2-2.9.9\xmlio.c
;	COMDAT _xmlCheckHTTPInput
_TEXT	SEGMENT
_handler$1 = -20					; size = 4
_code$2 = -16						; size = 4
_mime$3 = -12						; size = 4
_redir$4 = -8						; size = 4
_encoding$5 = -4					; size = 4
_ctxt$ = 8						; size = 4
_ret$ = 12						; size = 4
_xmlCheckHTTPInput PROC					; COMDAT

; 3771 : xmlCheckHTTPInput(xmlParserCtxtPtr ctxt, xmlParserInputPtr ret) {

	push	ebp
	mov	ebp, esp
	sub	esp, 20					; 00000014H
	push	esi
	mov	eax, -858993460				; ccccccccH
	mov	DWORD PTR [ebp-20], eax
	mov	DWORD PTR [ebp-16], eax
	mov	DWORD PTR [ebp-12], eax
	mov	DWORD PTR [ebp-8], eax
	mov	DWORD PTR [ebp-4], eax
	mov	ecx, OFFSET __7D5E66B2_xmlio@c
	call	@__CheckForDebuggerJustMyCode@4

; 3772 : #ifdef LIBXML_HTTP_ENABLED
; 3773 :     if ((ret != NULL) && (ret->buf != NULL) &&
; 3774 :         (ret->buf->readcallback == xmlIOHTTPRead) &&

	cmp	DWORD PTR _ret$[ebp], 0
	je	$LN2@xmlCheckHT
	mov	eax, DWORD PTR _ret$[ebp]
	cmp	DWORD PTR [eax], 0
	je	$LN2@xmlCheckHT
	mov	ecx, DWORD PTR _ret$[ebp]
	mov	edx, DWORD PTR [ecx]
	cmp	DWORD PTR [edx+4], OFFSET _xmlIOHTTPRead
	jne	$LN2@xmlCheckHT
	mov	eax, DWORD PTR _ret$[ebp]
	mov	ecx, DWORD PTR [eax]
	cmp	DWORD PTR [ecx], 0
	je	$LN2@xmlCheckHT

; 3775 :         (ret->buf->context != NULL)) {
; 3776 :         const char *encoding;
; 3777 :         const char *redir;
; 3778 :         const char *mime;
; 3779 :         int code;
; 3780 : 
; 3781 :         code = xmlNanoHTTPReturnCode(ret->buf->context);

	mov	edx, DWORD PTR _ret$[ebp]
	mov	eax, DWORD PTR [edx]
	mov	ecx, DWORD PTR [eax]
	push	ecx
	call	_xmlNanoHTTPReturnCode
	add	esp, 4
	mov	DWORD PTR _code$2[ebp], eax

; 3782 :         if (code >= 400) {

	cmp	DWORD PTR _code$2[ebp], 400		; 00000190H
	jl	SHORT $LN3@xmlCheckHT

; 3783 :             /* fatal error */
; 3784 : 	    if (ret->filename != NULL)

	mov	edx, DWORD PTR _ret$[ebp]
	cmp	DWORD PTR [edx+4], 0
	je	SHORT $LN5@xmlCheckHT

; 3785 : 		__xmlLoaderErr(ctxt, "failed to load HTTP resource \"%s\"\n",

	mov	eax, DWORD PTR _ret$[ebp]
	mov	ecx, DWORD PTR [eax+4]
	push	ecx
	push	OFFSET ??_C@_0CD@MCCOMMMF@failed?5to?5load?5HTTP?5resource?5?$CC?$CF@
	mov	edx, DWORD PTR _ctxt$[ebp]
	push	edx
	call	___xmlLoaderErr
	add	esp, 12					; 0000000cH
	jmp	SHORT $LN6@xmlCheckHT
$LN5@xmlCheckHT:

; 3786 :                          (const char *) ret->filename);
; 3787 : 	    else
; 3788 : 		__xmlLoaderErr(ctxt, "failed to load HTTP resource\n", NULL);

	push	0
	push	OFFSET ??_C@_0BO@FMFGBFHH@failed?5to?5load?5HTTP?5resource?6@
	mov	eax, DWORD PTR _ctxt$[ebp]
	push	eax
	call	___xmlLoaderErr
	add	esp, 12					; 0000000cH
$LN6@xmlCheckHT:

; 3789 :             xmlFreeInputStream(ret);

	mov	ecx, DWORD PTR _ret$[ebp]
	push	ecx
	call	_xmlFreeInputStream
	add	esp, 4

; 3790 :             ret = NULL;

	mov	DWORD PTR _ret$[ebp], 0

; 3791 :         } else {

	jmp	$LN2@xmlCheckHT
$LN3@xmlCheckHT:

; 3792 : 
; 3793 :             mime = xmlNanoHTTPMimeType(ret->buf->context);

	mov	edx, DWORD PTR _ret$[ebp]
	mov	eax, DWORD PTR [edx]
	mov	ecx, DWORD PTR [eax]
	push	ecx
	call	_xmlNanoHTTPMimeType
	add	esp, 4
	mov	DWORD PTR _mime$3[ebp], eax

; 3794 :             if ((xmlStrstr(BAD_CAST mime, BAD_CAST "/xml")) ||

	push	OFFSET ??_C@_04FNIAEEJM@?1xml@
	mov	edx, DWORD PTR _mime$3[ebp]
	push	edx
	call	_xmlStrstr
	add	esp, 8
	test	eax, eax
	jne	SHORT $LN8@xmlCheckHT
	push	OFFSET ??_C@_04KIAAOCFM@?$CLxml@
	mov	eax, DWORD PTR _mime$3[ebp]
	push	eax
	call	_xmlStrstr
	add	esp, 8
	test	eax, eax
	je	SHORT $LN7@xmlCheckHT
$LN8@xmlCheckHT:

; 3795 :                 (xmlStrstr(BAD_CAST mime, BAD_CAST "+xml"))) {
; 3796 :                 encoding = xmlNanoHTTPEncoding(ret->buf->context);

	mov	ecx, DWORD PTR _ret$[ebp]
	mov	edx, DWORD PTR [ecx]
	mov	eax, DWORD PTR [edx]
	push	eax
	call	_xmlNanoHTTPEncoding
	add	esp, 4
	mov	DWORD PTR _encoding$5[ebp], eax

; 3797 :                 if (encoding != NULL) {

	cmp	DWORD PTR _encoding$5[ebp], 0
	je	SHORT $LN7@xmlCheckHT

; 3798 :                     xmlCharEncodingHandlerPtr handler;
; 3799 : 
; 3800 :                     handler = xmlFindCharEncodingHandler(encoding);

	mov	ecx, DWORD PTR _encoding$5[ebp]
	push	ecx
	call	_xmlFindCharEncodingHandler
	add	esp, 4
	mov	DWORD PTR _handler$1[ebp], eax

; 3801 :                     if (handler != NULL) {

	cmp	DWORD PTR _handler$1[ebp], 0
	je	SHORT $LN10@xmlCheckHT

; 3802 :                         xmlSwitchInputEncoding(ctxt, ret, handler);

	mov	edx, DWORD PTR _handler$1[ebp]
	push	edx
	mov	eax, DWORD PTR _ret$[ebp]
	push	eax
	mov	ecx, DWORD PTR _ctxt$[ebp]
	push	ecx
	call	_xmlSwitchInputEncoding
	add	esp, 12					; 0000000cH

; 3803 :                     } else {

	jmp	SHORT $LN11@xmlCheckHT
$LN10@xmlCheckHT:

; 3804 :                         __xmlErrEncoding(ctxt, XML_ERR_UNKNOWN_ENCODING,

	push	0
	mov	edx, DWORD PTR _encoding$5[ebp]
	push	edx
	push	OFFSET ??_C@_0BE@MFOALNCF@Unknown?5encoding?5?$CFs@
	push	31					; 0000001fH
	mov	eax, DWORD PTR _ctxt$[ebp]
	push	eax
	call	___xmlErrEncoding
	add	esp, 20					; 00000014H
$LN11@xmlCheckHT:

; 3805 :                                          "Unknown encoding %s",
; 3806 :                                          BAD_CAST encoding, NULL);
; 3807 :                     }
; 3808 :                     if (ret->encoding == NULL)

	mov	ecx, DWORD PTR _ret$[ebp]
	cmp	DWORD PTR [ecx+44], 0
	jne	SHORT $LN7@xmlCheckHT

; 3809 :                         ret->encoding = xmlStrdup(BAD_CAST encoding);

	mov	edx, DWORD PTR _encoding$5[ebp]
	push	edx
	call	_xmlStrdup
	add	esp, 4
	mov	ecx, DWORD PTR _ret$[ebp]
	mov	DWORD PTR [ecx+44], eax
$LN7@xmlCheckHT:

; 3810 :                 }
; 3811 : #if 0
; 3812 :             } else if (xmlStrstr(BAD_CAST mime, BAD_CAST "html")) {
; 3813 : #endif
; 3814 :             }
; 3815 :             redir = xmlNanoHTTPRedir(ret->buf->context);

	mov	edx, DWORD PTR _ret$[ebp]
	mov	eax, DWORD PTR [edx]
	mov	ecx, DWORD PTR [eax]
	push	ecx
	call	_xmlNanoHTTPRedir
	add	esp, 4
	mov	DWORD PTR _redir$4[ebp], eax

; 3816 :             if (redir != NULL) {

	cmp	DWORD PTR _redir$4[ebp], 0
	je	SHORT $LN2@xmlCheckHT

; 3817 :                 if (ret->filename != NULL)

	mov	edx, DWORD PTR _ret$[ebp]
	cmp	DWORD PTR [edx+4], 0
	je	SHORT $LN14@xmlCheckHT

; 3818 :                     xmlFree((xmlChar *) ret->filename);

	mov	esi, esp
	mov	eax, DWORD PTR _ret$[ebp]
	mov	ecx, DWORD PTR [eax+4]
	push	ecx
	call	DWORD PTR _xmlFree
	add	esp, 4
	cmp	esi, esp
	call	__RTC_CheckEsp
$LN14@xmlCheckHT:

; 3819 :                 if (ret->directory != NULL) {

	mov	edx, DWORD PTR _ret$[ebp]
	cmp	DWORD PTR [edx+8], 0
	je	SHORT $LN15@xmlCheckHT

; 3820 :                     xmlFree((xmlChar *) ret->directory);

	mov	esi, esp
	mov	eax, DWORD PTR _ret$[ebp]
	mov	ecx, DWORD PTR [eax+8]
	push	ecx
	call	DWORD PTR _xmlFree
	add	esp, 4
	cmp	esi, esp
	call	__RTC_CheckEsp

; 3821 :                     ret->directory = NULL;

	mov	edx, DWORD PTR _ret$[ebp]
	mov	DWORD PTR [edx+8], 0
$LN15@xmlCheckHT:

; 3822 :                 }
; 3823 :                 ret->filename =

	mov	eax, DWORD PTR _redir$4[ebp]
	push	eax
	call	_xmlStrdup
	add	esp, 4
	mov	ecx, DWORD PTR _ret$[ebp]
	mov	DWORD PTR [ecx+4], eax
$LN2@xmlCheckHT:

; 3824 :                     (char *) xmlStrdup((const xmlChar *) redir);
; 3825 :             }
; 3826 :         }
; 3827 :     }
; 3828 : #endif
; 3829 :     return(ret);

	mov	eax, DWORD PTR _ret$[ebp]

; 3830 : }

	pop	esi
	add	esp, 20					; 00000014H
	cmp	ebp, esp
	call	__RTC_CheckEsp
	mov	esp, ebp
	pop	ebp
	ret	0
_xmlCheckHTTPInput ENDP
_TEXT	ENDS
; Function compile flags: /Odtp /RTCsu
; File c:\users\dag\documents\_clients\codeproject authors group\windows on arm\libxml2\libxml2-2.9.9\xmlio.c
;	COMDAT _xmlRegisterHTTPPostCallbacks
_TEXT	SEGMENT
_xmlRegisterHTTPPostCallbacks PROC			; COMDAT

; 2301 : xmlRegisterHTTPPostCallbacks( void ) {

	push	ebp
	mov	ebp, esp
	mov	ecx, OFFSET __7D5E66B2_xmlio@c
	call	@__CheckForDebuggerJustMyCode@4

; 2302 : 
; 2303 :     /*  Register defaults if not done previously  */
; 2304 : 
; 2305 :     if ( xmlOutputCallbackInitialized == 0 )

	cmp	DWORD PTR _xmlOutputCallbackInitialized, 0
	jne	SHORT $LN2@xmlRegiste

; 2306 : 	xmlRegisterDefaultOutputCallbacks( );

	call	_xmlRegisterDefaultOutputCallbacks
$LN2@xmlRegiste:

; 2307 : 
; 2308 :     xmlRegisterOutputCallbacks(xmlIOHTTPMatch, xmlIOHTTPDfltOpenW,

	push	OFFSET _xmlIOHTTPClosePost
	push	OFFSET _xmlIOHTTPWrite
	push	OFFSET _xmlIOHTTPDfltOpenW
	push	OFFSET _xmlIOHTTPMatch
	call	_xmlRegisterOutputCallbacks
	add	esp, 16					; 00000010H

; 2309 : 	                       xmlIOHTTPWrite, xmlIOHTTPClosePost);
; 2310 :     return;
; 2311 : }

	cmp	ebp, esp
	call	__RTC_CheckEsp
	pop	ebp
	ret	0
_xmlRegisterHTTPPostCallbacks ENDP
_TEXT	ENDS
; Function compile flags: /Odtp /RTCsu
; File c:\users\dag\documents\_clients\codeproject authors group\windows on arm\libxml2\libxml2-2.9.9\xmlio.c
;	COMDAT ___xmlOutputBufferCreateFilename
_TEXT	SEGMENT
_is_file_uri$ = -24					; size = 4
_unescaped$ = -20					; size = 4
_context$ = -16						; size = 4
_i$ = -12						; size = 4
_puri$ = -8						; size = 4
_ret$ = -4						; size = 4
_URI$ = 8						; size = 4
_encoder$ = 12						; size = 4
_compression$ = 16					; size = 4
___xmlOutputBufferCreateFilename PROC			; COMDAT

; 2625 :                               int compression ATTRIBUTE_UNUSED) {

	push	ebp
	mov	ebp, esp
	sub	esp, 24					; 00000018H
	push	esi
	mov	eax, -858993460				; ccccccccH
	mov	DWORD PTR [ebp-24], eax
	mov	DWORD PTR [ebp-20], eax
	mov	DWORD PTR [ebp-16], eax
	mov	DWORD PTR [ebp-12], eax
	mov	DWORD PTR [ebp-8], eax
	mov	DWORD PTR [ebp-4], eax
	mov	ecx, OFFSET __7D5E66B2_xmlio@c
	call	@__CheckForDebuggerJustMyCode@4

; 2626 :     xmlOutputBufferPtr ret;
; 2627 :     xmlURIPtr puri;
; 2628 :     int i = 0;

	mov	DWORD PTR _i$[ebp], 0

; 2629 :     void *context = NULL;

	mov	DWORD PTR _context$[ebp], 0

; 2630 :     char *unescaped = NULL;

	mov	DWORD PTR _unescaped$[ebp], 0

; 2631 : #ifdef LIBXML_ZLIB_ENABLED
; 2632 :     int is_file_uri = 1;

	mov	DWORD PTR _is_file_uri$[ebp], 1

; 2633 : #endif
; 2634 : 
; 2635 :     if (xmlOutputCallbackInitialized == 0)

	cmp	DWORD PTR _xmlOutputCallbackInitialized, 0
	jne	SHORT $LN8@xmlOutputB

; 2636 : 	xmlRegisterDefaultOutputCallbacks();

	call	_xmlRegisterDefaultOutputCallbacks
$LN8@xmlOutputB:

; 2637 : 
; 2638 :     if (URI == NULL) return(NULL);

	cmp	DWORD PTR _URI$[ebp], 0
	jne	SHORT $LN9@xmlOutputB
	xor	eax, eax
	jmp	$LN1@xmlOutputB
$LN9@xmlOutputB:

; 2639 : 
; 2640 :     puri = xmlParseURI(URI);

	mov	eax, DWORD PTR _URI$[ebp]
	push	eax
	call	_xmlParseURI
	add	esp, 4
	mov	DWORD PTR _puri$[ebp], eax

; 2641 :     if (puri != NULL) {

	cmp	DWORD PTR _puri$[ebp], 0
	je	SHORT $LN10@xmlOutputB

; 2642 : #ifdef LIBXML_ZLIB_ENABLED
; 2643 :         if ((puri->scheme != NULL) &&

	mov	ecx, DWORD PTR _puri$[ebp]
	cmp	DWORD PTR [ecx], 0
	je	SHORT $LN11@xmlOutputB
	push	OFFSET ??_C@_04DAMGJPCA@file@
	mov	edx, DWORD PTR _puri$[ebp]
	mov	eax, DWORD PTR [edx]
	push	eax
	call	_xmlStrEqual
	add	esp, 8
	test	eax, eax
	jne	SHORT $LN11@xmlOutputB

; 2644 : 	    (!xmlStrEqual(BAD_CAST puri->scheme, BAD_CAST "file")))
; 2645 : 	    is_file_uri = 0;

	mov	DWORD PTR _is_file_uri$[ebp], 0
$LN11@xmlOutputB:

; 2646 : #endif
; 2647 : 	/*
; 2648 : 	 * try to limit the damages of the URI unescaping code.
; 2649 : 	 */
; 2650 : 	if ((puri->scheme == NULL) ||

	mov	ecx, DWORD PTR _puri$[ebp]
	cmp	DWORD PTR [ecx], 0
	je	SHORT $LN13@xmlOutputB
	push	OFFSET ??_C@_04DAMGJPCA@file@
	mov	edx, DWORD PTR _puri$[ebp]
	mov	eax, DWORD PTR [edx]
	push	eax
	call	_xmlStrEqual
	add	esp, 8
	test	eax, eax
	je	SHORT $LN12@xmlOutputB
$LN13@xmlOutputB:

; 2651 : 	    (xmlStrEqual(BAD_CAST puri->scheme, BAD_CAST "file")))
; 2652 : 	    unescaped = xmlURIUnescapeString(URI, 0, NULL);

	push	0
	push	0
	mov	ecx, DWORD PTR _URI$[ebp]
	push	ecx
	call	_xmlURIUnescapeString
	add	esp, 12					; 0000000cH
	mov	DWORD PTR _unescaped$[ebp], eax
$LN12@xmlOutputB:

; 2653 : 	xmlFreeURI(puri);

	mov	edx, DWORD PTR _puri$[ebp]
	push	edx
	call	_xmlFreeURI
	add	esp, 4
$LN10@xmlOutputB:

; 2654 :     }
; 2655 : 
; 2656 :     /*
; 2657 :      * Try to find one of the output accept method accepting that scheme
; 2658 :      * Go in reverse to give precedence to user defined handlers.
; 2659 :      * try with an unescaped version of the URI
; 2660 :      */
; 2661 :     if (unescaped != NULL) {

	cmp	DWORD PTR _unescaped$[ebp], 0
	je	$LN14@xmlOutputB

; 2662 : #ifdef LIBXML_ZLIB_ENABLED
; 2663 : 	if ((compression > 0) && (compression <= 9) && (is_file_uri == 1)) {

	cmp	DWORD PTR _compression$[ebp], 0
	jle	SHORT $LN15@xmlOutputB
	cmp	DWORD PTR _compression$[ebp], 9
	jg	SHORT $LN15@xmlOutputB
	cmp	DWORD PTR _is_file_uri$[ebp], 1
	jne	SHORT $LN15@xmlOutputB

; 2664 : 	    context = xmlGzfileOpenW(unescaped, compression);

	mov	eax, DWORD PTR _compression$[ebp]
	push	eax
	mov	ecx, DWORD PTR _unescaped$[ebp]
	push	ecx
	call	_xmlGzfileOpenW
	add	esp, 8
	mov	DWORD PTR _context$[ebp], eax

; 2665 : 	    if (context != NULL) {

	cmp	DWORD PTR _context$[ebp], 0
	je	SHORT $LN15@xmlOutputB

; 2666 : 		ret = xmlAllocOutputBufferInternal(encoder);

	mov	edx, DWORD PTR _encoder$[ebp]
	push	edx
	call	_xmlAllocOutputBufferInternal
	add	esp, 4
	mov	DWORD PTR _ret$[ebp], eax

; 2667 : 		if (ret != NULL) {

	cmp	DWORD PTR _ret$[ebp], 0
	je	SHORT $LN17@xmlOutputB

; 2668 : 		    ret->context = context;

	mov	eax, DWORD PTR _ret$[ebp]
	mov	ecx, DWORD PTR _context$[ebp]
	mov	DWORD PTR [eax], ecx

; 2669 : 		    ret->writecallback = xmlGzfileWrite;

	mov	edx, DWORD PTR _ret$[ebp]
	mov	DWORD PTR [edx+4], OFFSET _xmlGzfileWrite

; 2670 : 		    ret->closecallback = xmlGzfileClose;

	mov	eax, DWORD PTR _ret$[ebp]
	mov	DWORD PTR [eax+8], OFFSET _xmlGzfileClose
$LN17@xmlOutputB:

; 2671 : 		}
; 2672 : 		xmlFree(unescaped);

	mov	esi, esp
	mov	ecx, DWORD PTR _unescaped$[ebp]
	push	ecx
	call	DWORD PTR _xmlFree
	add	esp, 4
	cmp	esi, esp
	call	__RTC_CheckEsp

; 2673 : 		return(ret);

	mov	eax, DWORD PTR _ret$[ebp]
	jmp	$LN1@xmlOutputB
$LN15@xmlOutputB:

; 2674 : 	    }
; 2675 : 	}
; 2676 : #endif
; 2677 : 	for (i = xmlOutputCallbackNr - 1;i >= 0;i--) {

	mov	edx, DWORD PTR _xmlOutputCallbackNr
	sub	edx, 1
	mov	DWORD PTR _i$[ebp], edx
	jmp	SHORT $LN4@xmlOutputB
$LN2@xmlOutputB:
	mov	eax, DWORD PTR _i$[ebp]
	sub	eax, 1
	mov	DWORD PTR _i$[ebp], eax
$LN4@xmlOutputB:
	cmp	DWORD PTR _i$[ebp], 0
	jl	$LN3@xmlOutputB

; 2678 : 	    if ((xmlOutputCallbackTable[i].matchcallback != NULL) &&

	mov	ecx, DWORD PTR _i$[ebp]
	shl	ecx, 4
	cmp	DWORD PTR _xmlOutputCallbackTable[ecx], 0
	je	SHORT $LN18@xmlOutputB
	mov	esi, esp
	mov	edx, DWORD PTR _unescaped$[ebp]
	push	edx
	mov	eax, DWORD PTR _i$[ebp]
	shl	eax, 4
	mov	ecx, DWORD PTR _xmlOutputCallbackTable[eax]
	call	ecx
	add	esp, 4
	cmp	esi, esp
	call	__RTC_CheckEsp
	test	eax, eax
	je	SHORT $LN18@xmlOutputB

; 2679 : 		(xmlOutputCallbackTable[i].matchcallback(unescaped) != 0)) {
; 2680 : #if defined(LIBXML_HTTP_ENABLED) && defined(LIBXML_ZLIB_ENABLED)
; 2681 : 		/*  Need to pass compression parameter into HTTP open calls  */
; 2682 : 		if (xmlOutputCallbackTable[i].matchcallback == xmlIOHTTPMatch)

	mov	edx, DWORD PTR _i$[ebp]
	shl	edx, 4
	cmp	DWORD PTR _xmlOutputCallbackTable[edx], OFFSET _xmlIOHTTPMatch
	jne	SHORT $LN19@xmlOutputB

; 2683 : 		    context = xmlIOHTTPOpenW(unescaped, compression);

	mov	eax, DWORD PTR _compression$[ebp]
	push	eax
	mov	ecx, DWORD PTR _unescaped$[ebp]
	push	ecx
	call	_xmlIOHTTPOpenW
	add	esp, 8
	mov	DWORD PTR _context$[ebp], eax
	jmp	SHORT $LN20@xmlOutputB
$LN19@xmlOutputB:

; 2684 : 		else
; 2685 : #endif
; 2686 : 		    context = xmlOutputCallbackTable[i].opencallback(unescaped);

	mov	esi, esp
	mov	edx, DWORD PTR _unescaped$[ebp]
	push	edx
	mov	eax, DWORD PTR _i$[ebp]
	shl	eax, 4
	mov	ecx, DWORD PTR _xmlOutputCallbackTable[eax+4]
	call	ecx
	add	esp, 4
	cmp	esi, esp
	call	__RTC_CheckEsp
	mov	DWORD PTR _context$[ebp], eax
$LN20@xmlOutputB:

; 2687 : 		if (context != NULL)

	cmp	DWORD PTR _context$[ebp], 0
	je	SHORT $LN18@xmlOutputB

; 2688 : 		    break;

	jmp	SHORT $LN3@xmlOutputB
$LN18@xmlOutputB:

; 2689 : 	    }
; 2690 : 	}

	jmp	$LN2@xmlOutputB
$LN3@xmlOutputB:

; 2691 : 	xmlFree(unescaped);

	mov	esi, esp
	mov	edx, DWORD PTR _unescaped$[ebp]
	push	edx
	call	DWORD PTR _xmlFree
	add	esp, 4
	cmp	esi, esp
	call	__RTC_CheckEsp
$LN14@xmlOutputB:

; 2692 :     }
; 2693 : 
; 2694 :     /*
; 2695 :      * If this failed try with a non-escaped URI this may be a strange
; 2696 :      * filename
; 2697 :      */
; 2698 :     if (context == NULL) {

	cmp	DWORD PTR _context$[ebp], 0
	jne	$LN22@xmlOutputB

; 2699 : #ifdef LIBXML_ZLIB_ENABLED
; 2700 : 	if ((compression > 0) && (compression <= 9) && (is_file_uri == 1)) {

	cmp	DWORD PTR _compression$[ebp], 0
	jle	SHORT $LN23@xmlOutputB
	cmp	DWORD PTR _compression$[ebp], 9
	jg	SHORT $LN23@xmlOutputB
	cmp	DWORD PTR _is_file_uri$[ebp], 1
	jne	SHORT $LN23@xmlOutputB

; 2701 : 	    context = xmlGzfileOpenW(URI, compression);

	mov	eax, DWORD PTR _compression$[ebp]
	push	eax
	mov	ecx, DWORD PTR _URI$[ebp]
	push	ecx
	call	_xmlGzfileOpenW
	add	esp, 8
	mov	DWORD PTR _context$[ebp], eax

; 2702 : 	    if (context != NULL) {

	cmp	DWORD PTR _context$[ebp], 0
	je	SHORT $LN23@xmlOutputB

; 2703 : 		ret = xmlAllocOutputBufferInternal(encoder);

	mov	edx, DWORD PTR _encoder$[ebp]
	push	edx
	call	_xmlAllocOutputBufferInternal
	add	esp, 4
	mov	DWORD PTR _ret$[ebp], eax

; 2704 : 		if (ret != NULL) {

	cmp	DWORD PTR _ret$[ebp], 0
	je	SHORT $LN25@xmlOutputB

; 2705 : 		    ret->context = context;

	mov	eax, DWORD PTR _ret$[ebp]
	mov	ecx, DWORD PTR _context$[ebp]
	mov	DWORD PTR [eax], ecx

; 2706 : 		    ret->writecallback = xmlGzfileWrite;

	mov	edx, DWORD PTR _ret$[ebp]
	mov	DWORD PTR [edx+4], OFFSET _xmlGzfileWrite

; 2707 : 		    ret->closecallback = xmlGzfileClose;

	mov	eax, DWORD PTR _ret$[ebp]
	mov	DWORD PTR [eax+8], OFFSET _xmlGzfileClose
$LN25@xmlOutputB:

; 2708 : 		}
; 2709 : 		return(ret);

	mov	eax, DWORD PTR _ret$[ebp]
	jmp	$LN1@xmlOutputB
$LN23@xmlOutputB:

; 2710 : 	    }
; 2711 : 	}
; 2712 : #endif
; 2713 : 	for (i = xmlOutputCallbackNr - 1;i >= 0;i--) {

	mov	ecx, DWORD PTR _xmlOutputCallbackNr
	sub	ecx, 1
	mov	DWORD PTR _i$[ebp], ecx
	jmp	SHORT $LN7@xmlOutputB
$LN5@xmlOutputB:
	mov	edx, DWORD PTR _i$[ebp]
	sub	edx, 1
	mov	DWORD PTR _i$[ebp], edx
$LN7@xmlOutputB:
	cmp	DWORD PTR _i$[ebp], 0
	jl	$LN22@xmlOutputB

; 2714 : 	    if ((xmlOutputCallbackTable[i].matchcallback != NULL) &&

	mov	eax, DWORD PTR _i$[ebp]
	shl	eax, 4
	cmp	DWORD PTR _xmlOutputCallbackTable[eax], 0
	je	SHORT $LN26@xmlOutputB
	mov	esi, esp
	mov	ecx, DWORD PTR _URI$[ebp]
	push	ecx
	mov	edx, DWORD PTR _i$[ebp]
	shl	edx, 4
	mov	eax, DWORD PTR _xmlOutputCallbackTable[edx]
	call	eax
	add	esp, 4
	cmp	esi, esp
	call	__RTC_CheckEsp
	test	eax, eax
	je	SHORT $LN26@xmlOutputB

; 2715 : 		(xmlOutputCallbackTable[i].matchcallback(URI) != 0)) {
; 2716 : #if defined(LIBXML_HTTP_ENABLED) && defined(LIBXML_ZLIB_ENABLED)
; 2717 : 		/*  Need to pass compression parameter into HTTP open calls  */
; 2718 : 		if (xmlOutputCallbackTable[i].matchcallback == xmlIOHTTPMatch)

	mov	ecx, DWORD PTR _i$[ebp]
	shl	ecx, 4
	cmp	DWORD PTR _xmlOutputCallbackTable[ecx], OFFSET _xmlIOHTTPMatch
	jne	SHORT $LN27@xmlOutputB

; 2719 : 		    context = xmlIOHTTPOpenW(URI, compression);

	mov	edx, DWORD PTR _compression$[ebp]
	push	edx
	mov	eax, DWORD PTR _URI$[ebp]
	push	eax
	call	_xmlIOHTTPOpenW
	add	esp, 8
	mov	DWORD PTR _context$[ebp], eax
	jmp	SHORT $LN28@xmlOutputB
$LN27@xmlOutputB:

; 2720 : 		else
; 2721 : #endif
; 2722 : 		    context = xmlOutputCallbackTable[i].opencallback(URI);

	mov	esi, esp
	mov	ecx, DWORD PTR _URI$[ebp]
	push	ecx
	mov	edx, DWORD PTR _i$[ebp]
	shl	edx, 4
	mov	eax, DWORD PTR _xmlOutputCallbackTable[edx+4]
	call	eax
	add	esp, 4
	cmp	esi, esp
	call	__RTC_CheckEsp
	mov	DWORD PTR _context$[ebp], eax
$LN28@xmlOutputB:

; 2723 : 		if (context != NULL)

	cmp	DWORD PTR _context$[ebp], 0
	je	SHORT $LN26@xmlOutputB

; 2724 : 		    break;

	jmp	SHORT $LN22@xmlOutputB
$LN26@xmlOutputB:

; 2725 : 	    }
; 2726 : 	}

	jmp	$LN5@xmlOutputB
$LN22@xmlOutputB:

; 2727 :     }
; 2728 : 
; 2729 :     if (context == NULL) {

	cmp	DWORD PTR _context$[ebp], 0
	jne	SHORT $LN30@xmlOutputB

; 2730 : 	return(NULL);

	xor	eax, eax
	jmp	SHORT $LN1@xmlOutputB
$LN30@xmlOutputB:

; 2731 :     }
; 2732 : 
; 2733 :     /*
; 2734 :      * Allocate the Output buffer front-end.
; 2735 :      */
; 2736 :     ret = xmlAllocOutputBufferInternal(encoder);

	mov	ecx, DWORD PTR _encoder$[ebp]
	push	ecx
	call	_xmlAllocOutputBufferInternal
	add	esp, 4
	mov	DWORD PTR _ret$[ebp], eax

; 2737 :     if (ret != NULL) {

	cmp	DWORD PTR _ret$[ebp], 0
	je	SHORT $LN31@xmlOutputB

; 2738 : 	ret->context = context;

	mov	edx, DWORD PTR _ret$[ebp]
	mov	eax, DWORD PTR _context$[ebp]
	mov	DWORD PTR [edx], eax

; 2739 : 	ret->writecallback = xmlOutputCallbackTable[i].writecallback;

	mov	ecx, DWORD PTR _i$[ebp]
	shl	ecx, 4
	mov	edx, DWORD PTR _ret$[ebp]
	mov	eax, DWORD PTR _xmlOutputCallbackTable[ecx+8]
	mov	DWORD PTR [edx+4], eax

; 2740 : 	ret->closecallback = xmlOutputCallbackTable[i].closecallback;

	mov	ecx, DWORD PTR _i$[ebp]
	shl	ecx, 4
	mov	edx, DWORD PTR _ret$[ebp]
	mov	eax, DWORD PTR _xmlOutputCallbackTable[ecx+12]
	mov	DWORD PTR [edx+8], eax
$LN31@xmlOutputB:

; 2741 :     }
; 2742 :     return(ret);

	mov	eax, DWORD PTR _ret$[ebp]
$LN1@xmlOutputB:

; 2743 : }

	pop	esi
	add	esp, 24					; 00000018H
	cmp	ebp, esp
	call	__RTC_CheckEsp
	mov	esp, ebp
	pop	ebp
	ret	0
___xmlOutputBufferCreateFilename ENDP
_TEXT	ENDS
; Function compile flags: /Odtp /RTCsu
; File c:\users\dag\documents\_clients\codeproject authors group\windows on arm\libxml2\libxml2-2.9.9\xmlio.c
;	COMDAT _xmlRegisterOutputCallbacks
_TEXT	SEGMENT
tv78 = -4						; size = 4
_matchFunc$ = 8						; size = 4
_openFunc$ = 12						; size = 4
_writeFunc$ = 16					; size = 4
_closeFunc$ = 20					; size = 4
_xmlRegisterOutputCallbacks PROC			; COMDAT

; 2207 : 	xmlOutputCloseCallback closeFunc) {

	push	ebp
	mov	ebp, esp
	push	ecx
	mov	DWORD PTR [ebp-4], -858993460		; ccccccccH
	mov	ecx, OFFSET __7D5E66B2_xmlio@c
	call	@__CheckForDebuggerJustMyCode@4

; 2208 :     if (xmlOutputCallbackNr >= MAX_OUTPUT_CALLBACK) {

	cmp	DWORD PTR _xmlOutputCallbackNr, 15	; 0000000fH
	jl	SHORT $LN2@xmlRegiste

; 2209 : 	return(-1);

	or	eax, -1
	jmp	SHORT $LN1@xmlRegiste
$LN2@xmlRegiste:

; 2210 :     }
; 2211 :     xmlOutputCallbackTable[xmlOutputCallbackNr].matchcallback = matchFunc;

	mov	eax, DWORD PTR _xmlOutputCallbackNr
	shl	eax, 4
	mov	ecx, DWORD PTR _matchFunc$[ebp]
	mov	DWORD PTR _xmlOutputCallbackTable[eax], ecx

; 2212 :     xmlOutputCallbackTable[xmlOutputCallbackNr].opencallback = openFunc;

	mov	edx, DWORD PTR _xmlOutputCallbackNr
	shl	edx, 4
	mov	eax, DWORD PTR _openFunc$[ebp]
	mov	DWORD PTR _xmlOutputCallbackTable[edx+4], eax

; 2213 :     xmlOutputCallbackTable[xmlOutputCallbackNr].writecallback = writeFunc;

	mov	ecx, DWORD PTR _xmlOutputCallbackNr
	shl	ecx, 4
	mov	edx, DWORD PTR _writeFunc$[ebp]
	mov	DWORD PTR _xmlOutputCallbackTable[ecx+8], edx

; 2214 :     xmlOutputCallbackTable[xmlOutputCallbackNr].closecallback = closeFunc;

	mov	eax, DWORD PTR _xmlOutputCallbackNr
	shl	eax, 4
	mov	ecx, DWORD PTR _closeFunc$[ebp]
	mov	DWORD PTR _xmlOutputCallbackTable[eax+12], ecx

; 2215 :     xmlOutputCallbackInitialized = 1;

	mov	DWORD PTR _xmlOutputCallbackInitialized, 1

; 2216 :     return(xmlOutputCallbackNr++);

	mov	edx, DWORD PTR _xmlOutputCallbackNr
	mov	DWORD PTR tv78[ebp], edx
	mov	eax, DWORD PTR _xmlOutputCallbackNr
	add	eax, 1
	mov	DWORD PTR _xmlOutputCallbackNr, eax
	mov	eax, DWORD PTR tv78[ebp]
$LN1@xmlRegiste:

; 2217 : }

	add	esp, 4
	cmp	ebp, esp
	call	__RTC_CheckEsp
	mov	esp, ebp
	pop	ebp
	ret	0
_xmlRegisterOutputCallbacks ENDP
_TEXT	ENDS
; Function compile flags: /Odtp /RTCsu
; File c:\users\dag\documents\_clients\codeproject authors group\windows on arm\libxml2\libxml2-2.9.9\xmlio.c
;	COMDAT _xmlOutputBufferClose
_TEXT	SEGMENT
tv93 = -12						; size = 4
_err_rc$ = -8						; size = 4
_written$ = -4						; size = 4
_out$ = 8						; size = 4
_xmlOutputBufferClose PROC				; COMDAT

; 2498 : {

	push	ebp
	mov	ebp, esp
	sub	esp, 12					; 0000000cH
	push	esi
	mov	DWORD PTR [ebp-12], -858993460		; ccccccccH
	mov	DWORD PTR [ebp-8], -858993460		; ccccccccH
	mov	DWORD PTR [ebp-4], -858993460		; ccccccccH
	mov	ecx, OFFSET __7D5E66B2_xmlio@c
	call	@__CheckForDebuggerJustMyCode@4

; 2499 :     int written;
; 2500 :     int err_rc = 0;

	mov	DWORD PTR _err_rc$[ebp], 0

; 2501 : 
; 2502 :     if (out == NULL)

	cmp	DWORD PTR _out$[ebp], 0
	jne	SHORT $LN2@xmlOutputB

; 2503 :         return (-1);

	or	eax, -1
	jmp	$LN1@xmlOutputB
$LN2@xmlOutputB:

; 2504 :     if (out->writecallback != NULL)

	mov	eax, DWORD PTR _out$[ebp]
	cmp	DWORD PTR [eax+4], 0
	je	SHORT $LN3@xmlOutputB

; 2505 :         xmlOutputBufferFlush(out);

	mov	ecx, DWORD PTR _out$[ebp]
	push	ecx
	call	_xmlOutputBufferFlush
	add	esp, 4
$LN3@xmlOutputB:

; 2506 :     if (out->closecallback != NULL) {

	mov	edx, DWORD PTR _out$[ebp]
	cmp	DWORD PTR [edx+8], 0
	je	SHORT $LN4@xmlOutputB

; 2507 :         err_rc = out->closecallback(out->context);

	mov	esi, esp
	mov	eax, DWORD PTR _out$[ebp]
	mov	ecx, DWORD PTR [eax]
	push	ecx
	mov	edx, DWORD PTR _out$[ebp]
	mov	eax, DWORD PTR [edx+8]
	call	eax
	add	esp, 4
	cmp	esi, esp
	call	__RTC_CheckEsp
	mov	DWORD PTR _err_rc$[ebp], eax
$LN4@xmlOutputB:

; 2508 :     }
; 2509 :     written = out->written;

	mov	ecx, DWORD PTR _out$[ebp]
	mov	edx, DWORD PTR [ecx+24]
	mov	DWORD PTR _written$[ebp], edx

; 2510 :     if (out->conv) {

	mov	eax, DWORD PTR _out$[ebp]
	cmp	DWORD PTR [eax+20], 0
	je	SHORT $LN5@xmlOutputB

; 2511 :         xmlBufFree(out->conv);

	mov	ecx, DWORD PTR _out$[ebp]
	mov	edx, DWORD PTR [ecx+20]
	push	edx
	call	_xmlBufFree
	add	esp, 4

; 2512 :         out->conv = NULL;

	mov	eax, DWORD PTR _out$[ebp]
	mov	DWORD PTR [eax+20], 0
$LN5@xmlOutputB:

; 2513 :     }
; 2514 :     if (out->encoder != NULL) {

	mov	ecx, DWORD PTR _out$[ebp]
	cmp	DWORD PTR [ecx+12], 0
	je	SHORT $LN6@xmlOutputB

; 2515 :         xmlCharEncCloseFunc(out->encoder);

	mov	edx, DWORD PTR _out$[ebp]
	mov	eax, DWORD PTR [edx+12]
	push	eax
	call	_xmlCharEncCloseFunc
	add	esp, 4
$LN6@xmlOutputB:

; 2516 :     }
; 2517 :     if (out->buffer != NULL) {

	mov	ecx, DWORD PTR _out$[ebp]
	cmp	DWORD PTR [ecx+16], 0
	je	SHORT $LN7@xmlOutputB

; 2518 :         xmlBufFree(out->buffer);

	mov	edx, DWORD PTR _out$[ebp]
	mov	eax, DWORD PTR [edx+16]
	push	eax
	call	_xmlBufFree
	add	esp, 4

; 2519 :         out->buffer = NULL;

	mov	ecx, DWORD PTR _out$[ebp]
	mov	DWORD PTR [ecx+16], 0
$LN7@xmlOutputB:

; 2520 :     }
; 2521 : 
; 2522 :     if (out->error)

	mov	edx, DWORD PTR _out$[ebp]
	cmp	DWORD PTR [edx+28], 0
	je	SHORT $LN8@xmlOutputB

; 2523 :         err_rc = -1;

	mov	DWORD PTR _err_rc$[ebp], -1
$LN8@xmlOutputB:

; 2524 :     xmlFree(out);

	mov	esi, esp
	mov	eax, DWORD PTR _out$[ebp]
	push	eax
	call	DWORD PTR _xmlFree
	add	esp, 4
	cmp	esi, esp
	call	__RTC_CheckEsp

; 2525 :     return ((err_rc == 0) ? written : err_rc);

	cmp	DWORD PTR _err_rc$[ebp], 0
	jne	SHORT $LN10@xmlOutputB
	mov	ecx, DWORD PTR _written$[ebp]
	mov	DWORD PTR tv93[ebp], ecx
	jmp	SHORT $LN11@xmlOutputB
$LN10@xmlOutputB:
	mov	edx, DWORD PTR _err_rc$[ebp]
	mov	DWORD PTR tv93[ebp], edx
$LN11@xmlOutputB:
	mov	eax, DWORD PTR tv93[ebp]
$LN1@xmlOutputB:

; 2526 : }

	pop	esi
	add	esp, 12					; 0000000cH
	cmp	ebp, esp
	call	__RTC_CheckEsp
	mov	esp, ebp
	pop	ebp
	ret	0
_xmlOutputBufferClose ENDP
_TEXT	ENDS
; Function compile flags: /Odtp /RTCsu
; File c:\users\dag\documents\_clients\codeproject authors group\windows on arm\libxml2\libxml2-2.9.9\xmlio.c
;	COMDAT _xmlOutputBufferFlush
_TEXT	SEGMENT
_ret$ = -8						; size = 4
_nbchars$ = -4						; size = 4
_out$ = 8						; size = 4
_xmlOutputBufferFlush PROC				; COMDAT

; 3649 : xmlOutputBufferFlush(xmlOutputBufferPtr out) {

	push	ebp
	mov	ebp, esp
	sub	esp, 8
	push	esi
	mov	DWORD PTR [ebp-8], -858993460		; ccccccccH
	mov	DWORD PTR [ebp-4], -858993460		; ccccccccH
	mov	ecx, OFFSET __7D5E66B2_xmlio@c
	call	@__CheckForDebuggerJustMyCode@4

; 3650 :     int nbchars = 0, ret = 0;

	mov	DWORD PTR _nbchars$[ebp], 0
	mov	DWORD PTR _ret$[ebp], 0

; 3651 : 
; 3652 :     if ((out == NULL) || (out->error)) return(-1);

	cmp	DWORD PTR _out$[ebp], 0
	je	SHORT $LN6@xmlOutputB
	mov	eax, DWORD PTR _out$[ebp]
	cmp	DWORD PTR [eax+28], 0
	je	SHORT $LN5@xmlOutputB
$LN6@xmlOutputB:
	or	eax, -1
	jmp	$LN1@xmlOutputB
$LN5@xmlOutputB:

; 3653 :     /*
; 3654 :      * first handle encoding stuff.
; 3655 :      */
; 3656 :     if ((out->conv != NULL) && (out->encoder != NULL)) {

	mov	ecx, DWORD PTR _out$[ebp]
	cmp	DWORD PTR [ecx+20], 0
	je	SHORT $LN7@xmlOutputB
	mov	edx, DWORD PTR _out$[ebp]
	cmp	DWORD PTR [edx+12], 0
	je	SHORT $LN7@xmlOutputB
$LN4@xmlOutputB:

; 3657 : 	/*
; 3658 : 	 * convert as much as possible to the parser output buffer.
; 3659 : 	 */
; 3660 : 	do {
; 3661 : 	    nbchars = xmlCharEncOutput(out, 0);

	push	0
	mov	eax, DWORD PTR _out$[ebp]
	push	eax
	call	_xmlCharEncOutput
	add	esp, 8
	mov	DWORD PTR _nbchars$[ebp], eax

; 3662 : 	    if (nbchars < 0) {

	cmp	DWORD PTR _nbchars$[ebp], 0
	jge	SHORT $LN2@xmlOutputB

; 3663 : 		xmlIOErr(XML_IO_ENCODER, NULL);

	push	0
	push	1544					; 00000608H
	call	_xmlIOErr
	add	esp, 8

; 3664 : 		out->error = XML_IO_ENCODER;

	mov	ecx, DWORD PTR _out$[ebp]
	mov	DWORD PTR [ecx+28], 1544		; 00000608H

; 3665 : 		return(-1);

	or	eax, -1
	jmp	$LN1@xmlOutputB
$LN2@xmlOutputB:

; 3666 : 	    }
; 3667 : 	} while (nbchars);

	cmp	DWORD PTR _nbchars$[ebp], 0
	jne	SHORT $LN4@xmlOutputB
$LN7@xmlOutputB:

; 3668 :     }
; 3669 : 
; 3670 :     /*
; 3671 :      * second flush the stuff to the I/O channel
; 3672 :      */
; 3673 :     if ((out->conv != NULL) && (out->encoder != NULL) &&

	mov	edx, DWORD PTR _out$[ebp]
	cmp	DWORD PTR [edx+20], 0
	je	SHORT $LN9@xmlOutputB
	mov	eax, DWORD PTR _out$[ebp]
	cmp	DWORD PTR [eax+12], 0
	je	SHORT $LN9@xmlOutputB
	mov	ecx, DWORD PTR _out$[ebp]
	cmp	DWORD PTR [ecx+4], 0
	je	SHORT $LN9@xmlOutputB

; 3674 : 	(out->writecallback != NULL)) {
; 3675 : 	ret = out->writecallback(out->context,

	mov	edx, DWORD PTR _out$[ebp]
	mov	eax, DWORD PTR [edx+20]
	push	eax
	call	_xmlBufUse
	add	esp, 4
	mov	esi, esp
	push	eax
	mov	ecx, DWORD PTR _out$[ebp]
	mov	edx, DWORD PTR [ecx+20]
	push	edx
	call	_xmlBufContent
	add	esp, 4
	push	eax
	mov	eax, DWORD PTR _out$[ebp]
	mov	ecx, DWORD PTR [eax]
	push	ecx
	mov	edx, DWORD PTR _out$[ebp]
	mov	eax, DWORD PTR [edx+4]
	call	eax
	add	esp, 12					; 0000000cH
	cmp	esi, esp
	call	__RTC_CheckEsp
	mov	DWORD PTR _ret$[ebp], eax

; 3676 :                                  (const char *)xmlBufContent(out->conv),
; 3677 :                                  xmlBufUse(out->conv));
; 3678 : 	if (ret >= 0)

	cmp	DWORD PTR _ret$[ebp], 0
	jl	SHORT $LN11@xmlOutputB

; 3679 : 	    xmlBufShrink(out->conv, ret);

	mov	ecx, DWORD PTR _ret$[ebp]
	push	ecx
	mov	edx, DWORD PTR _out$[ebp]
	mov	eax, DWORD PTR [edx+20]
	push	eax
	call	_xmlBufShrink
	add	esp, 8
$LN11@xmlOutputB:

; 3680 :     } else if (out->writecallback != NULL) {

	jmp	SHORT $LN10@xmlOutputB
$LN9@xmlOutputB:
	mov	ecx, DWORD PTR _out$[ebp]
	cmp	DWORD PTR [ecx+4], 0
	je	SHORT $LN10@xmlOutputB

; 3681 : 	ret = out->writecallback(out->context,

	mov	edx, DWORD PTR _out$[ebp]
	mov	eax, DWORD PTR [edx+16]
	push	eax
	call	_xmlBufUse
	add	esp, 4
	mov	esi, esp
	push	eax
	mov	ecx, DWORD PTR _out$[ebp]
	mov	edx, DWORD PTR [ecx+16]
	push	edx
	call	_xmlBufContent
	add	esp, 4
	push	eax
	mov	eax, DWORD PTR _out$[ebp]
	mov	ecx, DWORD PTR [eax]
	push	ecx
	mov	edx, DWORD PTR _out$[ebp]
	mov	eax, DWORD PTR [edx+4]
	call	eax
	add	esp, 12					; 0000000cH
	cmp	esi, esp
	call	__RTC_CheckEsp
	mov	DWORD PTR _ret$[ebp], eax

; 3682 :                                  (const char *)xmlBufContent(out->buffer),
; 3683 :                                  xmlBufUse(out->buffer));
; 3684 : 	if (ret >= 0)

	cmp	DWORD PTR _ret$[ebp], 0
	jl	SHORT $LN10@xmlOutputB

; 3685 : 	    xmlBufShrink(out->buffer, ret);

	mov	ecx, DWORD PTR _ret$[ebp]
	push	ecx
	mov	edx, DWORD PTR _out$[ebp]
	mov	eax, DWORD PTR [edx+16]
	push	eax
	call	_xmlBufShrink
	add	esp, 8
$LN10@xmlOutputB:

; 3686 :     }
; 3687 :     if (ret < 0) {

	cmp	DWORD PTR _ret$[ebp], 0
	jge	SHORT $LN14@xmlOutputB

; 3688 : 	xmlIOErr(XML_IO_FLUSH, NULL);

	push	0
	push	1545					; 00000609H
	call	_xmlIOErr
	add	esp, 8

; 3689 : 	out->error = XML_IO_FLUSH;

	mov	ecx, DWORD PTR _out$[ebp]
	mov	DWORD PTR [ecx+28], 1545		; 00000609H

; 3690 : 	return(ret);

	mov	eax, DWORD PTR _ret$[ebp]
	jmp	SHORT $LN1@xmlOutputB
$LN14@xmlOutputB:

; 3691 :     }
; 3692 :     out->written += ret;

	mov	edx, DWORD PTR _out$[ebp]
	mov	eax, DWORD PTR [edx+24]
	add	eax, DWORD PTR _ret$[ebp]
	mov	ecx, DWORD PTR _out$[ebp]
	mov	DWORD PTR [ecx+24], eax

; 3693 : 
; 3694 : #ifdef DEBUG_INPUT
; 3695 :     xmlGenericError(xmlGenericErrorContext,
; 3696 : 	    "I/O: flushed %d chars\n", ret);
; 3697 : #endif
; 3698 :     return(ret);

	mov	eax, DWORD PTR _ret$[ebp]
$LN1@xmlOutputB:

; 3699 : }

	pop	esi
	add	esp, 8
	cmp	ebp, esp
	call	__RTC_CheckEsp
	mov	esp, ebp
	pop	ebp
	ret	0
_xmlOutputBufferFlush ENDP
_TEXT	ENDS
; Function compile flags: /Odtp /RTCsu
; File c:\users\dag\documents\_clients\codeproject authors group\windows on arm\libxml2\libxml2-2.9.9\xmlio.c
;	COMDAT _xmlOutputBufferWriteEscape
_TEXT	SEGMENT
tv76 = -60						; size = 4
tv240 = -53						; size = 1
tv237 = -52						; size = 4
tv234 = -48						; size = 4
_cons$ = -40						; size = 4
_len$ = -32						; size = 4
_chunk$ = -24						; size = 4
_oldwritten$ = -16					; size = 4
_written$ = -12						; size = 4
_ret$ = -8						; size = 4
_nbchars$ = -4						; size = 4
_out$ = 8						; size = 4
_str$ = 12						; size = 4
_escaping$ = 16						; size = 4
_xmlOutputBufferWriteEscape PROC			; COMDAT

; 3498 :                            xmlCharEncodingOutputFunc escaping) {

	push	ebp
	mov	ebp, esp
	sub	esp, 60					; 0000003cH
	push	esi
	push	edi
	lea	edi, DWORD PTR [ebp-60]
	mov	ecx, 15					; 0000000fH
	mov	eax, -858993460				; ccccccccH
	rep stosd
	mov	ecx, OFFSET __7D5E66B2_xmlio@c
	call	@__CheckForDebuggerJustMyCode@4

; 3499 :     int nbchars = 0; /* number of chars to output to I/O */

	mov	DWORD PTR _nbchars$[ebp], 0

; 3500 :     int ret;         /* return from function call */
; 3501 :     int written = 0; /* number of char written to I/O so far */

	mov	DWORD PTR _written$[ebp], 0

; 3502 :     int oldwritten=0;/* loop guard */

	mov	DWORD PTR _oldwritten$[ebp], 0

; 3503 :     int chunk;       /* number of byte currently processed from str */
; 3504 :     int len;         /* number of bytes in str */
; 3505 :     int cons;        /* byte from str consumed */
; 3506 : 
; 3507 :     if ((out == NULL) || (out->error) || (str == NULL) ||
; 3508 :         (out->buffer == NULL) ||

	cmp	DWORD PTR _out$[ebp], 0
	je	SHORT $LN6@xmlOutputB
	mov	eax, DWORD PTR _out$[ebp]
	cmp	DWORD PTR [eax+28], 0
	jne	SHORT $LN6@xmlOutputB
	cmp	DWORD PTR _str$[ebp], 0
	je	SHORT $LN6@xmlOutputB
	mov	ecx, DWORD PTR _out$[ebp]
	cmp	DWORD PTR [ecx+16], 0
	je	SHORT $LN6@xmlOutputB
	mov	edx, DWORD PTR _out$[ebp]
	mov	eax, DWORD PTR [edx+16]
	push	eax
	call	_xmlBufGetAllocationScheme
	add	esp, 4
	cmp	eax, 2
	jne	SHORT $LN5@xmlOutputB
$LN6@xmlOutputB:

; 3509 : 	(xmlBufGetAllocationScheme(out->buffer) == XML_BUFFER_ALLOC_IMMUTABLE))
; 3510 :         return(-1);

	or	eax, -1
	jmp	$LN1@xmlOutputB
$LN5@xmlOutputB:

; 3511 :     len = strlen((const char *)str);

	mov	ecx, DWORD PTR _str$[ebp]
	mov	DWORD PTR tv234[ebp], ecx
	mov	edx, DWORD PTR tv234[ebp]
	add	edx, 1
	mov	DWORD PTR tv237[ebp], edx
$LL32@xmlOutputB:
	mov	eax, DWORD PTR tv234[ebp]
	mov	cl, BYTE PTR [eax]
	mov	BYTE PTR tv240[ebp], cl
	add	DWORD PTR tv234[ebp], 1
	cmp	BYTE PTR tv240[ebp], 0
	jne	SHORT $LL32@xmlOutputB
	mov	edx, DWORD PTR tv234[ebp]
	sub	edx, DWORD PTR tv237[ebp]
	mov	DWORD PTR tv76[ebp], edx
	mov	eax, DWORD PTR tv76[ebp]
	mov	DWORD PTR _len$[ebp], eax

; 3512 :     if (len < 0) return(0);

	cmp	DWORD PTR _len$[ebp], 0
	jge	SHORT $LN7@xmlOutputB
	xor	eax, eax
	jmp	$LN1@xmlOutputB
$LN7@xmlOutputB:

; 3513 :     if (out->error) return(-1);

	mov	ecx, DWORD PTR _out$[ebp]
	cmp	DWORD PTR [ecx+28], 0
	je	SHORT $LN8@xmlOutputB
	or	eax, -1
	jmp	$LN1@xmlOutputB
$LN8@xmlOutputB:

; 3514 :     if (escaping == NULL) escaping = xmlEscapeContent;

	cmp	DWORD PTR _escaping$[ebp], 0
	jne	SHORT $LN4@xmlOutputB
	mov	DWORD PTR _escaping$[ebp], OFFSET _xmlEscapeContent
$LN4@xmlOutputB:

; 3515 : 
; 3516 :     do {
; 3517 :         oldwritten = written;

	mov	edx, DWORD PTR _written$[ebp]
	mov	DWORD PTR _oldwritten$[ebp], edx

; 3518 : 
; 3519 :         /*
; 3520 : 	 * how many bytes to consume and how many bytes to store.
; 3521 : 	 */
; 3522 : 	cons = len;

	mov	eax, DWORD PTR _len$[ebp]
	mov	DWORD PTR _cons$[ebp], eax

; 3523 : 	chunk = xmlBufAvail(out->buffer) - 1;

	mov	ecx, DWORD PTR _out$[ebp]
	mov	edx, DWORD PTR [ecx+16]
	push	edx
	call	_xmlBufAvail
	add	esp, 4
	sub	eax, 1
	mov	DWORD PTR _chunk$[ebp], eax

; 3524 : 
; 3525 :         /*
; 3526 : 	 * make sure we have enough room to save first, if this is
; 3527 : 	 * not the case force a flush, but make sure we stay in the loop
; 3528 : 	 */
; 3529 : 	if (chunk < 40) {

	cmp	DWORD PTR _chunk$[ebp], 40		; 00000028H
	jge	SHORT $LN10@xmlOutputB

; 3530 : 	    if (xmlBufGrow(out->buffer, 100) < 0)

	push	100					; 00000064H
	mov	eax, DWORD PTR _out$[ebp]
	mov	ecx, DWORD PTR [eax+16]
	push	ecx
	call	_xmlBufGrow
	add	esp, 8
	test	eax, eax
	jge	SHORT $LN11@xmlOutputB

; 3531 : 	        return(-1);

	or	eax, -1
	jmp	$LN1@xmlOutputB
$LN11@xmlOutputB:

; 3532 :             oldwritten = -1;

	mov	DWORD PTR _oldwritten$[ebp], -1

; 3533 : 	    continue;

	jmp	$LN2@xmlOutputB
$LN10@xmlOutputB:

; 3534 : 	}
; 3535 : 
; 3536 : 	/*
; 3537 : 	 * first handle encoding stuff.
; 3538 : 	 */
; 3539 : 	if (out->encoder != NULL) {

	mov	edx, DWORD PTR _out$[ebp]
	cmp	DWORD PTR [edx+12], 0
	je	$LN12@xmlOutputB

; 3540 : 	    /*
; 3541 : 	     * Store the data in the incoming raw buffer
; 3542 : 	     */
; 3543 : 	    if (out->conv == NULL) {

	mov	eax, DWORD PTR _out$[ebp]
	cmp	DWORD PTR [eax+20], 0
	jne	SHORT $LN14@xmlOutputB

; 3544 : 		out->conv = xmlBufCreate();

	call	_xmlBufCreate
	mov	ecx, DWORD PTR _out$[ebp]
	mov	DWORD PTR [ecx+20], eax
$LN14@xmlOutputB:

; 3545 : 	    }
; 3546 : 	    ret = escaping(xmlBufEnd(out->buffer) ,

	mov	esi, esp
	lea	edx, DWORD PTR _cons$[ebp]
	push	edx
	mov	eax, DWORD PTR _str$[ebp]
	push	eax
	lea	ecx, DWORD PTR _chunk$[ebp]
	push	ecx
	mov	edx, DWORD PTR _out$[ebp]
	mov	eax, DWORD PTR [edx+16]
	push	eax
	call	_xmlBufEnd
	add	esp, 4
	push	eax
	call	DWORD PTR _escaping$[ebp]
	add	esp, 16					; 00000010H
	cmp	esi, esp
	call	__RTC_CheckEsp
	mov	DWORD PTR _ret$[ebp], eax

; 3547 : 	                   &chunk, str, &cons);
; 3548 : 	    if ((ret < 0) || (chunk == 0)) /* chunk==0 => nothing done */

	cmp	DWORD PTR _ret$[ebp], 0
	jl	SHORT $LN16@xmlOutputB
	cmp	DWORD PTR _chunk$[ebp], 0
	jne	SHORT $LN15@xmlOutputB
$LN16@xmlOutputB:

; 3549 : 	        return(-1);

	or	eax, -1
	jmp	$LN1@xmlOutputB
$LN15@xmlOutputB:

; 3550 :             xmlBufAddLen(out->buffer, chunk);

	mov	ecx, DWORD PTR _chunk$[ebp]
	push	ecx
	mov	edx, DWORD PTR _out$[ebp]
	mov	eax, DWORD PTR [edx+16]
	push	eax
	call	_xmlBufAddLen
	add	esp, 8

; 3551 : 
; 3552 : 	    if ((xmlBufUse(out->buffer) < MINLEN) && (cons == len))

	mov	ecx, DWORD PTR _out$[ebp]
	mov	edx, DWORD PTR [ecx+16]
	push	edx
	call	_xmlBufUse
	add	esp, 4
	cmp	eax, 4000				; 00000fa0H
	jae	SHORT $LN17@xmlOutputB
	mov	eax, DWORD PTR _cons$[ebp]
	cmp	eax, DWORD PTR _len$[ebp]
	jne	SHORT $LN17@xmlOutputB

; 3553 : 		goto done;

	jmp	$done$37
$LN17@xmlOutputB:

; 3554 : 
; 3555 : 	    /*
; 3556 : 	     * convert as much as possible to the output buffer.
; 3557 : 	     */
; 3558 : 	    ret = xmlCharEncOutput(out, 0);

	push	0
	mov	ecx, DWORD PTR _out$[ebp]
	push	ecx
	call	_xmlCharEncOutput
	add	esp, 8
	mov	DWORD PTR _ret$[ebp], eax

; 3559 : 	    if ((ret < 0) && (ret != -3)) {

	cmp	DWORD PTR _ret$[ebp], 0
	jge	SHORT $LN18@xmlOutputB
	cmp	DWORD PTR _ret$[ebp], -3		; fffffffdH
	je	SHORT $LN18@xmlOutputB

; 3560 : 		xmlIOErr(XML_IO_ENCODER, NULL);

	push	0
	push	1544					; 00000608H
	call	_xmlIOErr
	add	esp, 8

; 3561 : 		out->error = XML_IO_ENCODER;

	mov	edx, DWORD PTR _out$[ebp]
	mov	DWORD PTR [edx+28], 1544		; 00000608H

; 3562 : 		return(-1);

	or	eax, -1
	jmp	$LN1@xmlOutputB
$LN18@xmlOutputB:

; 3563 : 	    }
; 3564 : 	    nbchars = xmlBufUse(out->conv);

	mov	eax, DWORD PTR _out$[ebp]
	mov	ecx, DWORD PTR [eax+20]
	push	ecx
	call	_xmlBufUse
	add	esp, 4
	mov	DWORD PTR _nbchars$[ebp], eax

; 3565 : 	} else {

	jmp	SHORT $LN13@xmlOutputB
$LN12@xmlOutputB:

; 3566 : 	    ret = escaping(xmlBufEnd(out->buffer), &chunk, str, &cons);

	mov	esi, esp
	lea	edx, DWORD PTR _cons$[ebp]
	push	edx
	mov	eax, DWORD PTR _str$[ebp]
	push	eax
	lea	ecx, DWORD PTR _chunk$[ebp]
	push	ecx
	mov	edx, DWORD PTR _out$[ebp]
	mov	eax, DWORD PTR [edx+16]
	push	eax
	call	_xmlBufEnd
	add	esp, 4
	push	eax
	call	DWORD PTR _escaping$[ebp]
	add	esp, 16					; 00000010H
	cmp	esi, esp
	call	__RTC_CheckEsp
	mov	DWORD PTR _ret$[ebp], eax

; 3567 : 	    if ((ret < 0) || (chunk == 0)) /* chunk==0 => nothing done */

	cmp	DWORD PTR _ret$[ebp], 0
	jl	SHORT $LN20@xmlOutputB
	cmp	DWORD PTR _chunk$[ebp], 0
	jne	SHORT $LN19@xmlOutputB
$LN20@xmlOutputB:

; 3568 : 	        return(-1);

	or	eax, -1
	jmp	$LN1@xmlOutputB
$LN19@xmlOutputB:

; 3569 :             xmlBufAddLen(out->buffer, chunk);

	mov	ecx, DWORD PTR _chunk$[ebp]
	push	ecx
	mov	edx, DWORD PTR _out$[ebp]
	mov	eax, DWORD PTR [edx+16]
	push	eax
	call	_xmlBufAddLen
	add	esp, 8

; 3570 : 	    nbchars = xmlBufUse(out->buffer);

	mov	ecx, DWORD PTR _out$[ebp]
	mov	edx, DWORD PTR [ecx+16]
	push	edx
	call	_xmlBufUse
	add	esp, 4
	mov	DWORD PTR _nbchars$[ebp], eax
$LN13@xmlOutputB:

; 3571 : 	}
; 3572 : 	str += cons;

	mov	eax, DWORD PTR _str$[ebp]
	add	eax, DWORD PTR _cons$[ebp]
	mov	DWORD PTR _str$[ebp], eax

; 3573 : 	len -= cons;

	mov	ecx, DWORD PTR _len$[ebp]
	sub	ecx, DWORD PTR _cons$[ebp]
	mov	DWORD PTR _len$[ebp], ecx

; 3574 : 
; 3575 : 	if ((nbchars < MINLEN) && (len <= 0))

	cmp	DWORD PTR _nbchars$[ebp], 4000		; 00000fa0H
	jge	SHORT $LN21@xmlOutputB
	cmp	DWORD PTR _len$[ebp], 0
	jg	SHORT $LN21@xmlOutputB

; 3576 : 	    goto done;

	jmp	$done$37
$LN21@xmlOutputB:

; 3577 : 
; 3578 : 	if (out->writecallback) {

	mov	edx, DWORD PTR _out$[ebp]
	cmp	DWORD PTR [edx+4], 0
	je	$LN22@xmlOutputB

; 3579 : 	    /*
; 3580 : 	     * second write the stuff to the I/O channel
; 3581 : 	     */
; 3582 : 	    if (out->encoder != NULL) {

	mov	eax, DWORD PTR _out$[ebp]
	cmp	DWORD PTR [eax+12], 0
	je	SHORT $LN24@xmlOutputB

; 3583 : 		ret = out->writecallback(out->context,

	mov	esi, esp
	mov	ecx, DWORD PTR _nbchars$[ebp]
	push	ecx
	mov	edx, DWORD PTR _out$[ebp]
	mov	eax, DWORD PTR [edx+20]
	push	eax
	call	_xmlBufContent
	add	esp, 4
	push	eax
	mov	ecx, DWORD PTR _out$[ebp]
	mov	edx, DWORD PTR [ecx]
	push	edx
	mov	eax, DWORD PTR _out$[ebp]
	mov	ecx, DWORD PTR [eax+4]
	call	ecx
	add	esp, 12					; 0000000cH
	cmp	esi, esp
	call	__RTC_CheckEsp
	mov	DWORD PTR _ret$[ebp], eax

; 3584 :                            (const char *)xmlBufContent(out->conv), nbchars);
; 3585 : 		if (ret >= 0)

	cmp	DWORD PTR _ret$[ebp], 0
	jl	SHORT $LN26@xmlOutputB

; 3586 : 		    xmlBufShrink(out->conv, ret);

	mov	edx, DWORD PTR _ret$[ebp]
	push	edx
	mov	eax, DWORD PTR _out$[ebp]
	mov	ecx, DWORD PTR [eax+20]
	push	ecx
	call	_xmlBufShrink
	add	esp, 8
$LN26@xmlOutputB:

; 3587 : 	    } else {

	jmp	SHORT $LN25@xmlOutputB
$LN24@xmlOutputB:

; 3588 : 		ret = out->writecallback(out->context,

	mov	esi, esp
	mov	edx, DWORD PTR _nbchars$[ebp]
	push	edx
	mov	eax, DWORD PTR _out$[ebp]
	mov	ecx, DWORD PTR [eax+16]
	push	ecx
	call	_xmlBufContent
	add	esp, 4
	push	eax
	mov	edx, DWORD PTR _out$[ebp]
	mov	eax, DWORD PTR [edx]
	push	eax
	mov	ecx, DWORD PTR _out$[ebp]
	mov	edx, DWORD PTR [ecx+4]
	call	edx
	add	esp, 12					; 0000000cH
	cmp	esi, esp
	call	__RTC_CheckEsp
	mov	DWORD PTR _ret$[ebp], eax

; 3589 :                            (const char *)xmlBufContent(out->buffer), nbchars);
; 3590 : 		if (ret >= 0)

	cmp	DWORD PTR _ret$[ebp], 0
	jl	SHORT $LN25@xmlOutputB

; 3591 : 		    xmlBufShrink(out->buffer, ret);

	mov	eax, DWORD PTR _ret$[ebp]
	push	eax
	mov	ecx, DWORD PTR _out$[ebp]
	mov	edx, DWORD PTR [ecx+16]
	push	edx
	call	_xmlBufShrink
	add	esp, 8
$LN25@xmlOutputB:

; 3592 : 	    }
; 3593 : 	    if (ret < 0) {

	cmp	DWORD PTR _ret$[ebp], 0
	jge	SHORT $LN28@xmlOutputB

; 3594 : 		xmlIOErr(XML_IO_WRITE, NULL);

	push	0
	push	1546					; 0000060aH
	call	_xmlIOErr
	add	esp, 8

; 3595 : 		out->error = XML_IO_WRITE;

	mov	eax, DWORD PTR _out$[ebp]
	mov	DWORD PTR [eax+28], 1546		; 0000060aH

; 3596 : 		return(ret);

	mov	eax, DWORD PTR _ret$[ebp]
	jmp	SHORT $LN1@xmlOutputB
$LN28@xmlOutputB:

; 3597 : 	    }
; 3598 : 	    out->written += ret;

	mov	ecx, DWORD PTR _out$[ebp]
	mov	edx, DWORD PTR [ecx+24]
	add	edx, DWORD PTR _ret$[ebp]
	mov	eax, DWORD PTR _out$[ebp]
	mov	DWORD PTR [eax+24], edx
	jmp	SHORT $LN23@xmlOutputB
$LN22@xmlOutputB:

; 3599 : 	} else if (xmlBufAvail(out->buffer) < MINLEN) {

	mov	ecx, DWORD PTR _out$[ebp]
	mov	edx, DWORD PTR [ecx+16]
	push	edx
	call	_xmlBufAvail
	add	esp, 4
	cmp	eax, 4000				; 00000fa0H
	jae	SHORT $LN23@xmlOutputB

; 3600 : 	    xmlBufGrow(out->buffer, MINLEN);

	push	4000					; 00000fa0H
	mov	eax, DWORD PTR _out$[ebp]
	mov	ecx, DWORD PTR [eax+16]
	push	ecx
	call	_xmlBufGrow
	add	esp, 8
$LN23@xmlOutputB:

; 3601 : 	}
; 3602 : 	written += nbchars;

	mov	edx, DWORD PTR _written$[ebp]
	add	edx, DWORD PTR _nbchars$[ebp]
	mov	DWORD PTR _written$[ebp], edx
$LN2@xmlOutputB:

; 3603 :     } while ((len > 0) && (oldwritten != written));

	cmp	DWORD PTR _len$[ebp], 0
	jle	SHORT $done$37
	mov	eax, DWORD PTR _oldwritten$[ebp]
	cmp	eax, DWORD PTR _written$[ebp]
	jne	$LN4@xmlOutputB
$done$37:

; 3604 : 
; 3605 : done:
; 3606 : #ifdef DEBUG_INPUT
; 3607 :     xmlGenericError(xmlGenericErrorContext,
; 3608 : 	    "I/O: wrote %d chars\n", written);
; 3609 : #endif
; 3610 :     return(written);

	mov	eax, DWORD PTR _written$[ebp]
$LN1@xmlOutputB:

; 3611 : }

	push	edx
	mov	ecx, ebp
	push	eax
	lea	edx, DWORD PTR $LN36@xmlOutputB
	call	@_RTC_CheckStackVars@8
	pop	eax
	pop	edx
	pop	edi
	pop	esi
	add	esp, 60					; 0000003cH
	cmp	ebp, esp
	call	__RTC_CheckEsp
	mov	esp, ebp
	pop	ebp
	ret	0
	npad	3
$LN36@xmlOutputB:
	DD	2
	DD	$LN35@xmlOutputB
$LN35@xmlOutputB:
	DD	-24					; ffffffe8H
	DD	4
	DD	$LN33@xmlOutputB
	DD	-40					; ffffffd8H
	DD	4
	DD	$LN34@xmlOutputB
$LN34@xmlOutputB:
	DB	99					; 00000063H
	DB	111					; 0000006fH
	DB	110					; 0000006eH
	DB	115					; 00000073H
	DB	0
$LN33@xmlOutputB:
	DB	99					; 00000063H
	DB	104					; 00000068H
	DB	117					; 00000075H
	DB	110					; 0000006eH
	DB	107					; 0000006bH
	DB	0
_xmlOutputBufferWriteEscape ENDP
_TEXT	ENDS
; Function compile flags: /Odtp /RTCsu
; File c:\users\dag\documents\_clients\codeproject authors group\windows on arm\libxml2\libxml2-2.9.9\xmlio.c
;	COMDAT _xmlOutputBufferWriteString
_TEXT	SEGMENT
tv70 = -20						; size = 4
tv87 = -13						; size = 1
tv84 = -12						; size = 4
tv81 = -8						; size = 4
_len$ = -4						; size = 4
_out$ = 8						; size = 4
_str$ = 12						; size = 4
_xmlOutputBufferWriteString PROC			; COMDAT

; 3627 : xmlOutputBufferWriteString(xmlOutputBufferPtr out, const char *str) {

	push	ebp
	mov	ebp, esp
	sub	esp, 20					; 00000014H
	mov	eax, -858993460				; ccccccccH
	mov	DWORD PTR [ebp-20], eax
	mov	DWORD PTR [ebp-16], eax
	mov	DWORD PTR [ebp-12], eax
	mov	DWORD PTR [ebp-8], eax
	mov	DWORD PTR [ebp-4], eax
	mov	ecx, OFFSET __7D5E66B2_xmlio@c
	call	@__CheckForDebuggerJustMyCode@4

; 3628 :     int len;
; 3629 : 
; 3630 :     if ((out == NULL) || (out->error)) return(-1);

	cmp	DWORD PTR _out$[ebp], 0
	je	SHORT $LN3@xmlOutputB
	mov	eax, DWORD PTR _out$[ebp]
	cmp	DWORD PTR [eax+28], 0
	je	SHORT $LN2@xmlOutputB
$LN3@xmlOutputB:
	or	eax, -1
	jmp	SHORT $LN1@xmlOutputB
$LN2@xmlOutputB:

; 3631 :     if (str == NULL)

	cmp	DWORD PTR _str$[ebp], 0
	jne	SHORT $LN4@xmlOutputB

; 3632 :         return(-1);

	or	eax, -1
	jmp	SHORT $LN1@xmlOutputB
$LN4@xmlOutputB:

; 3633 :     len = strlen(str);

	mov	ecx, DWORD PTR _str$[ebp]
	mov	DWORD PTR tv81[ebp], ecx
	mov	edx, DWORD PTR tv81[ebp]
	add	edx, 1
	mov	DWORD PTR tv84[ebp], edx
$LL7@xmlOutputB:
	mov	eax, DWORD PTR tv81[ebp]
	mov	cl, BYTE PTR [eax]
	mov	BYTE PTR tv87[ebp], cl
	add	DWORD PTR tv81[ebp], 1
	cmp	BYTE PTR tv87[ebp], 0
	jne	SHORT $LL7@xmlOutputB
	mov	edx, DWORD PTR tv81[ebp]
	sub	edx, DWORD PTR tv84[ebp]
	mov	DWORD PTR tv70[ebp], edx
	mov	eax, DWORD PTR tv70[ebp]
	mov	DWORD PTR _len$[ebp], eax

; 3634 : 
; 3635 :     if (len > 0)

	cmp	DWORD PTR _len$[ebp], 0
	jle	SHORT $LN5@xmlOutputB

; 3636 : 	return(xmlOutputBufferWrite(out, len, str));

	mov	ecx, DWORD PTR _str$[ebp]
	push	ecx
	mov	edx, DWORD PTR _len$[ebp]
	push	edx
	mov	eax, DWORD PTR _out$[ebp]
	push	eax
	call	_xmlOutputBufferWrite
	add	esp, 12					; 0000000cH
	jmp	SHORT $LN1@xmlOutputB
$LN5@xmlOutputB:

; 3637 :     return(len);

	mov	eax, DWORD PTR _len$[ebp]
$LN1@xmlOutputB:

; 3638 : }

	add	esp, 20					; 00000014H
	cmp	ebp, esp
	call	__RTC_CheckEsp
	mov	esp, ebp
	pop	ebp
	ret	0
_xmlOutputBufferWriteString ENDP
_TEXT	ENDS
; Function compile flags: /Odtp /RTCsu
; File c:\users\dag\documents\_clients\codeproject authors group\windows on arm\libxml2\libxml2-2.9.9\xmlio.c
;	COMDAT _xmlOutputBufferWrite
_TEXT	SEGMENT
_chunk$ = -16						; size = 4
_written$ = -12						; size = 4
_ret$ = -8						; size = 4
_nbchars$ = -4						; size = 4
_out$ = 8						; size = 4
_len$ = 12						; size = 4
_buf$ = 16						; size = 4
_xmlOutputBufferWrite PROC				; COMDAT

; 3334 : xmlOutputBufferWrite(xmlOutputBufferPtr out, int len, const char *buf) {

	push	ebp
	mov	ebp, esp
	sub	esp, 16					; 00000010H
	push	esi
	mov	eax, -858993460				; ccccccccH
	mov	DWORD PTR [ebp-16], eax
	mov	DWORD PTR [ebp-12], eax
	mov	DWORD PTR [ebp-8], eax
	mov	DWORD PTR [ebp-4], eax
	mov	ecx, OFFSET __7D5E66B2_xmlio@c
	call	@__CheckForDebuggerJustMyCode@4

; 3335 :     int nbchars = 0; /* number of chars to output to I/O */

	mov	DWORD PTR _nbchars$[ebp], 0

; 3336 :     int ret;         /* return from function call */
; 3337 :     int written = 0; /* number of char written to I/O so far */

	mov	DWORD PTR _written$[ebp], 0

; 3338 :     int chunk;       /* number of byte curreent processed from buf */
; 3339 : 
; 3340 :     if ((out == NULL) || (out->error)) return(-1);

	cmp	DWORD PTR _out$[ebp], 0
	je	SHORT $LN6@xmlOutputB
	mov	eax, DWORD PTR _out$[ebp]
	cmp	DWORD PTR [eax+28], 0
	je	SHORT $LN5@xmlOutputB
$LN6@xmlOutputB:
	or	eax, -1
	jmp	$LN1@xmlOutputB
$LN5@xmlOutputB:

; 3341 :     if (len < 0) return(0);

	cmp	DWORD PTR _len$[ebp], 0
	jge	SHORT $LN7@xmlOutputB
	xor	eax, eax
	jmp	$LN1@xmlOutputB
$LN7@xmlOutputB:

; 3342 :     if (out->error) return(-1);

	mov	ecx, DWORD PTR _out$[ebp]
	cmp	DWORD PTR [ecx+28], 0
	je	SHORT $LN4@xmlOutputB
	or	eax, -1
	jmp	$LN1@xmlOutputB
$LN4@xmlOutputB:

; 3343 : 
; 3344 :     do {
; 3345 : 	chunk = len;

	mov	edx, DWORD PTR _len$[ebp]
	mov	DWORD PTR _chunk$[ebp], edx

; 3346 : 	if (chunk > 4 * MINLEN)

	cmp	DWORD PTR _chunk$[ebp], 16000		; 00003e80H
	jle	SHORT $LN9@xmlOutputB

; 3347 : 	    chunk = 4 * MINLEN;

	mov	DWORD PTR _chunk$[ebp], 16000		; 00003e80H
$LN9@xmlOutputB:

; 3348 : 
; 3349 : 	/*
; 3350 : 	 * first handle encoding stuff.
; 3351 : 	 */
; 3352 : 	if (out->encoder != NULL) {

	mov	eax, DWORD PTR _out$[ebp]
	cmp	DWORD PTR [eax+12], 0
	je	$LN10@xmlOutputB

; 3353 : 	    /*
; 3354 : 	     * Store the data in the incoming raw buffer
; 3355 : 	     */
; 3356 : 	    if (out->conv == NULL) {

	mov	ecx, DWORD PTR _out$[ebp]
	cmp	DWORD PTR [ecx+20], 0
	jne	SHORT $LN12@xmlOutputB

; 3357 : 		out->conv = xmlBufCreate();

	call	_xmlBufCreate
	mov	edx, DWORD PTR _out$[ebp]
	mov	DWORD PTR [edx+20], eax
$LN12@xmlOutputB:

; 3358 : 	    }
; 3359 : 	    ret = xmlBufAdd(out->buffer, (const xmlChar *) buf, chunk);

	mov	eax, DWORD PTR _chunk$[ebp]
	push	eax
	mov	ecx, DWORD PTR _buf$[ebp]
	push	ecx
	mov	edx, DWORD PTR _out$[ebp]
	mov	eax, DWORD PTR [edx+16]
	push	eax
	call	_xmlBufAdd
	add	esp, 12					; 0000000cH
	mov	DWORD PTR _ret$[ebp], eax

; 3360 : 	    if (ret != 0)

	cmp	DWORD PTR _ret$[ebp], 0
	je	SHORT $LN13@xmlOutputB

; 3361 : 	        return(-1);

	or	eax, -1
	jmp	$LN1@xmlOutputB
$LN13@xmlOutputB:

; 3362 : 
; 3363 : 	    if ((xmlBufUse(out->buffer) < MINLEN) && (chunk == len))

	mov	ecx, DWORD PTR _out$[ebp]
	mov	edx, DWORD PTR [ecx+16]
	push	edx
	call	_xmlBufUse
	add	esp, 4
	cmp	eax, 4000				; 00000fa0H
	jae	SHORT $LN14@xmlOutputB
	mov	eax, DWORD PTR _chunk$[ebp]
	cmp	eax, DWORD PTR _len$[ebp]
	jne	SHORT $LN14@xmlOutputB

; 3364 : 		goto done;

	jmp	$done$25
$LN14@xmlOutputB:

; 3365 : 
; 3366 : 	    /*
; 3367 : 	     * convert as much as possible to the parser reading buffer.
; 3368 : 	     */
; 3369 : 	    ret = xmlCharEncOutput(out, 0);

	push	0
	mov	ecx, DWORD PTR _out$[ebp]
	push	ecx
	call	_xmlCharEncOutput
	add	esp, 8
	mov	DWORD PTR _ret$[ebp], eax

; 3370 : 	    if ((ret < 0) && (ret != -3)) {

	cmp	DWORD PTR _ret$[ebp], 0
	jge	SHORT $LN15@xmlOutputB
	cmp	DWORD PTR _ret$[ebp], -3		; fffffffdH
	je	SHORT $LN15@xmlOutputB

; 3371 : 		xmlIOErr(XML_IO_ENCODER, NULL);

	push	0
	push	1544					; 00000608H
	call	_xmlIOErr
	add	esp, 8

; 3372 : 		out->error = XML_IO_ENCODER;

	mov	edx, DWORD PTR _out$[ebp]
	mov	DWORD PTR [edx+28], 1544		; 00000608H

; 3373 : 		return(-1);

	or	eax, -1
	jmp	$LN1@xmlOutputB
$LN15@xmlOutputB:

; 3374 : 	    }
; 3375 : 	    nbchars = xmlBufUse(out->conv);

	mov	eax, DWORD PTR _out$[ebp]
	mov	ecx, DWORD PTR [eax+20]
	push	ecx
	call	_xmlBufUse
	add	esp, 4
	mov	DWORD PTR _nbchars$[ebp], eax

; 3376 : 	} else {

	jmp	SHORT $LN11@xmlOutputB
$LN10@xmlOutputB:

; 3377 : 	    ret = xmlBufAdd(out->buffer, (const xmlChar *) buf, chunk);

	mov	edx, DWORD PTR _chunk$[ebp]
	push	edx
	mov	eax, DWORD PTR _buf$[ebp]
	push	eax
	mov	ecx, DWORD PTR _out$[ebp]
	mov	edx, DWORD PTR [ecx+16]
	push	edx
	call	_xmlBufAdd
	add	esp, 12					; 0000000cH
	mov	DWORD PTR _ret$[ebp], eax

; 3378 : 	    if (ret != 0)

	cmp	DWORD PTR _ret$[ebp], 0
	je	SHORT $LN16@xmlOutputB

; 3379 : 	        return(-1);

	or	eax, -1
	jmp	$LN1@xmlOutputB
$LN16@xmlOutputB:

; 3380 : 	    nbchars = xmlBufUse(out->buffer);

	mov	eax, DWORD PTR _out$[ebp]
	mov	ecx, DWORD PTR [eax+16]
	push	ecx
	call	_xmlBufUse
	add	esp, 4
	mov	DWORD PTR _nbchars$[ebp], eax
$LN11@xmlOutputB:

; 3381 : 	}
; 3382 : 	buf += chunk;

	mov	edx, DWORD PTR _buf$[ebp]
	add	edx, DWORD PTR _chunk$[ebp]
	mov	DWORD PTR _buf$[ebp], edx

; 3383 : 	len -= chunk;

	mov	eax, DWORD PTR _len$[ebp]
	sub	eax, DWORD PTR _chunk$[ebp]
	mov	DWORD PTR _len$[ebp], eax

; 3384 : 
; 3385 : 	if ((nbchars < MINLEN) && (len <= 0))

	cmp	DWORD PTR _nbchars$[ebp], 4000		; 00000fa0H
	jge	SHORT $LN17@xmlOutputB
	cmp	DWORD PTR _len$[ebp], 0
	jg	SHORT $LN17@xmlOutputB

; 3386 : 	    goto done;

	jmp	$done$25
$LN17@xmlOutputB:

; 3387 : 
; 3388 : 	if (out->writecallback) {

	mov	ecx, DWORD PTR _out$[ebp]
	cmp	DWORD PTR [ecx+4], 0
	je	$LN18@xmlOutputB

; 3389 : 	    /*
; 3390 : 	     * second write the stuff to the I/O channel
; 3391 : 	     */
; 3392 : 	    if (out->encoder != NULL) {

	mov	edx, DWORD PTR _out$[ebp]
	cmp	DWORD PTR [edx+12], 0
	je	SHORT $LN19@xmlOutputB

; 3393 : 		ret = out->writecallback(out->context,

	mov	esi, esp
	mov	eax, DWORD PTR _nbchars$[ebp]
	push	eax
	mov	ecx, DWORD PTR _out$[ebp]
	mov	edx, DWORD PTR [ecx+20]
	push	edx
	call	_xmlBufContent
	add	esp, 4
	push	eax
	mov	eax, DWORD PTR _out$[ebp]
	mov	ecx, DWORD PTR [eax]
	push	ecx
	mov	edx, DWORD PTR _out$[ebp]
	mov	eax, DWORD PTR [edx+4]
	call	eax
	add	esp, 12					; 0000000cH
	cmp	esi, esp
	call	__RTC_CheckEsp
	mov	DWORD PTR _ret$[ebp], eax

; 3394 :                            (const char *)xmlBufContent(out->conv), nbchars);
; 3395 : 		if (ret >= 0)

	cmp	DWORD PTR _ret$[ebp], 0
	jl	SHORT $LN21@xmlOutputB

; 3396 : 		    xmlBufShrink(out->conv, ret);

	mov	ecx, DWORD PTR _ret$[ebp]
	push	ecx
	mov	edx, DWORD PTR _out$[ebp]
	mov	eax, DWORD PTR [edx+20]
	push	eax
	call	_xmlBufShrink
