; Listing generated by Microsoft (R) Optimizing Compiler Version 19.16.27027.1 

	TITLE	C:\Users\DAG\Documents\_Clients\CodeProject Authors Group\Windows on ARM\libxml2\libxml2-2.9.9\xmlmemory.c
	.686P
	.XMM
	include listing.inc
	.model	flat

INCLUDELIB MSVCRTD
INCLUDELIB OLDNAMES

_DATA	SEGMENT
COMM	_xmlMalloc:DWORD
COMM	_xmlMallocAtomic:DWORD
COMM	_xmlRealloc:DWORD
COMM	_xmlFree:DWORD
COMM	_xmlMemStrdup:DWORD
COMM	_forbiddenExp:DWORD
COMM	_emptyExp:DWORD
_DATA	ENDS
msvcjmc	SEGMENT
__188180DA_corecrt_math@h DB 01H
__2CC6E67D_corecrt_stdio_config@h DB 01H
__05476D76_corecrt_wstdio@h DB 01H
__A452D4A0_stdio@h DB 01H
__4384A2D9_corecrt_memcpy_s@h DB 01H
__4E51A221_corecrt_wstring@h DB 01H
__2140C079_string@h DB 01H
__C0802A2B_corecrt_wtime@h DB 01H
__04AA828A_time@h DB 01H
__7B7A869E_ctype@h DB 01H
__D8018AA9_xmlmemory@c DB 01H
msvcjmc	ENDS
PUBLIC	___local_stdio_printf_options
PUBLIC	___local_stdio_scanf_options
PUBLIC	_fprintf
PUBLIC	_sscanf
PUBLIC	_xmlMemSetup
PUBLIC	_xmlMemGet
PUBLIC	_xmlGcMemSetup
PUBLIC	_xmlGcMemGet
PUBLIC	_xmlInitMemory
PUBLIC	_xmlCleanupMemory
PUBLIC	_xmlMemUsed
PUBLIC	_xmlMemBlocks
PUBLIC	_xmlMemDisplay
PUBLIC	_xmlMemDisplayLast
PUBLIC	_xmlMemShow
PUBLIC	_xmlMemoryDump
PUBLIC	_xmlMemMalloc
PUBLIC	_xmlMemRealloc
PUBLIC	_xmlMemFree
PUBLIC	_xmlMemoryStrdup
PUBLIC	_xmlMallocLoc
PUBLIC	_xmlReallocLoc
PUBLIC	_xmlMallocAtomicLoc
PUBLIC	_xmlMemStrdupLoc
PUBLIC	_xmlMallocBreakpoint
PUBLIC	__JustMyCode_Default
PUBLIC	??_C@_0CJ@PFFCFAIM@xmlMallocBreakpoint?5reached?5on?5@ ; `string'
PUBLIC	??_C@_0CC@KENAJNOB@xmlMallocLoc?5?3?5Unsigned?5overflo@ ; `string'
PUBLIC	??_C@_0CC@GHPBNICE@xmlMallocLoc?5?3?5Out?5of?5free?5spac@ ; `string'
PUBLIC	??_C@_0BF@EOHFMDNL@?$CFp?5?3?5Malloc?$CI?$CFlu?$CJ?5Ok?6@ ; `string'
PUBLIC	??_C@_0CI@KCPHLLJL@xmlMallocAtomicLoc?5?3?5Unsigned?5o@ ; `string'
PUBLIC	??_C@_0CI@GBNGPOFO@xmlMallocAtomicLoc?5?3?5Out?5of?5fre@ ; `string'
PUBLIC	??_C@_04CGFJFPFD@none@				; `string'
PUBLIC	??_C@_0CD@EKEGIKEO@xmlReallocLoc?5?3?5Unsigned?5overfl@ ; `string'
PUBLIC	??_C@_0BP@EHGEOOF@?$CFp?5?3?5Realloced?$CI?$CFlu?5?9?$DO?5?$CFlu?$CJ?5Ok?6@ ; `string'
PUBLIC	??_C@_0CI@FDKALOEN@trying?5to?5free?5pointer?5from?5fre@ ; `string'
PUBLIC	??_C@_0O@EGNDPFML@?$CFp?5?3?5Freed?$CI?$CJ?6@	; `string'
PUBLIC	??_C@_0BG@PIJFHHCD@xmlMemFree?$CI?$CFp?$CJ?5error?6@ ; `string'
PUBLIC	??_C@_0CF@MMHEHJPP@xmlMemStrdupLoc?5?3?5Unsigned?5over@ ; `string'
PUBLIC	??_C@_0BC@KPBPMJFD@?$CFp?5?3?5Strdup?$CI?$CJ?5Ok?6@ ; `string'
PUBLIC	??_C@_01NOFIACDB@w@				; `string'
PUBLIC	??_C@_0M@CNJBCEKM@?4memorylist@			; `string'
PUBLIC	??_C@_0DD@OBJABBCC@Memory?5list?5not?5compiled?5?$CIMEM_L@ ; `string'
PUBLIC	??_C@_0CE@GGGDAPNO@Memory?5tag?5error?5occurs?5?3?$CFp?5?6?7?5@ ; `string'
PUBLIC	??_C@_0CL@DBCIPLIB@?5?5?5?5?5?5MEMORY?5ALLOCATED?5?3?5?$CFlu?0?5M@ ; `string'
PUBLIC	??_C@_0BD@GCGPPOKD@XML_MEM_BREAKPOINT@		; `string'
PUBLIC	??_C@_03BKPMHLPH@?$CFud@			; `string'
PUBLIC	??_C@_0O@IPGKJECE@XML_MEM_TRACE@		; `string'
PUBLIC	??_C@_02BBAHNLBA@?$CFp@				; `string'
EXTRN	__imp__fclose:PROC
EXTRN	__imp__fopen:PROC
EXTRN	__imp____stdio_common_vfprintf:PROC
EXTRN	__imp____stdio_common_vsscanf:PROC
EXTRN	__imp__free:PROC
EXTRN	__imp__malloc:PROC
EXTRN	__imp__realloc:PROC
EXTRN	__imp__getenv:PROC
EXTRN	_xmlNewMutex:PROC
EXTRN	_xmlMutexLock:PROC
EXTRN	_xmlMutexUnlock:PROC
EXTRN	_xmlFreeMutex:PROC
EXTRN	___xmlGenericError:PROC
EXTRN	___xmlGenericErrorContext:PROC
EXTRN	@__CheckForDebuggerJustMyCode@4:PROC
EXTRN	__RTC_CheckEsp:PROC
EXTRN	__RTC_InitBase:PROC
EXTRN	__RTC_Shutdown:PROC
EXTRN	_memset:PROC
_DATA	SEGMENT
COMM	?_OptionsStorage@?1??__local_stdio_printf_options@@9@9:QWORD							; `__local_stdio_printf_options'::`2'::_OptionsStorage
COMM	?_OptionsStorage@?1??__local_stdio_scanf_options@@9@9:QWORD							; `__local_stdio_scanf_options'::`2'::_OptionsStorage
_DATA	ENDS
_BSS	SEGMENT
_xmlMemInitialized DD 01H DUP (?)
_debugMemSize DD 01H DUP (?)
_debugMemBlocks DD 01H DUP (?)
_debugMaxMemSize DD 01H DUP (?)
_xmlMemMutex DD	01H DUP (?)
_block	DD	01H DUP (?)
_xmlMemStopAtBlock DD 01H DUP (?)
_xmlMemTraceBlockAt DD 01H DUP (?)
_BSS	ENDS
;	COMDAT rtc$TMZ
rtc$TMZ	SEGMENT
__RTC_Shutdown.rtc$TMZ DD FLAT:__RTC_Shutdown
rtc$TMZ	ENDS
;	COMDAT rtc$IMZ
rtc$IMZ	SEGMENT
__RTC_InitBase.rtc$IMZ DD FLAT:__RTC_InitBase
rtc$IMZ	ENDS
;	COMDAT ??_C@_02BBAHNLBA@?$CFp@
CONST	SEGMENT
??_C@_02BBAHNLBA@?$CFp@ DB '%p', 00H			; `string'
CONST	ENDS
;	COMDAT ??_C@_0O@IPGKJECE@XML_MEM_TRACE@
CONST	SEGMENT
??_C@_0O@IPGKJECE@XML_MEM_TRACE@ DB 'XML_MEM_TRACE', 00H ; `string'
CONST	ENDS
;	COMDAT ??_C@_03BKPMHLPH@?$CFud@
CONST	SEGMENT
??_C@_03BKPMHLPH@?$CFud@ DB '%ud', 00H			; `string'
CONST	ENDS
;	COMDAT ??_C@_0BD@GCGPPOKD@XML_MEM_BREAKPOINT@
CONST	SEGMENT
??_C@_0BD@GCGPPOKD@XML_MEM_BREAKPOINT@ DB 'XML_MEM_BREAKPOINT', 00H ; `string'
CONST	ENDS
;	COMDAT ??_C@_0CL@DBCIPLIB@?5?5?5?5?5?5MEMORY?5ALLOCATED?5?3?5?$CFlu?0?5M@
CONST	SEGMENT
??_C@_0CL@DBCIPLIB@?5?5?5?5?5?5MEMORY?5ALLOCATED?5?3?5?$CFlu?0?5M@ DB '  '
	DB	'    MEMORY ALLOCATED : %lu, MAX was %lu', 0aH, 00H ; `string'
CONST	ENDS
;	COMDAT ??_C@_0CE@GGGDAPNO@Memory?5tag?5error?5occurs?5?3?$CFp?5?6?7?5@
CONST	SEGMENT
??_C@_0CE@GGGDAPNO@Memory?5tag?5error?5occurs?5?3?$CFp?5?6?7?5@ DB 'Memor'
	DB	'y tag error occurs :%p ', 0aH, 09H, ' bye', 0aH, 00H ; `string'
CONST	ENDS
;	COMDAT ??_C@_0DD@OBJABBCC@Memory?5list?5not?5compiled?5?$CIMEM_L@
CONST	SEGMENT
??_C@_0DD@OBJABBCC@Memory?5list?5not?5compiled?5?$CIMEM_L@ DB 'Memory lis'
	DB	't not compiled (MEM_LIST not defined !)', 0aH, 00H ; `string'
CONST	ENDS
;	COMDAT ??_C@_0M@CNJBCEKM@?4memorylist@
CONST	SEGMENT
??_C@_0M@CNJBCEKM@?4memorylist@ DB '.memorylist', 00H	; `string'
CONST	ENDS
;	COMDAT ??_C@_01NOFIACDB@w@
CONST	SEGMENT
??_C@_01NOFIACDB@w@ DB 'w', 00H				; `string'
CONST	ENDS
;	COMDAT ??_C@_0BC@KPBPMJFD@?$CFp?5?3?5Strdup?$CI?$CJ?5Ok?6@
CONST	SEGMENT
??_C@_0BC@KPBPMJFD@?$CFp?5?3?5Strdup?$CI?$CJ?5Ok?6@ DB '%p : Strdup() Ok', 0aH
	DB	00H						; `string'
CONST	ENDS
;	COMDAT ??_C@_0CF@MMHEHJPP@xmlMemStrdupLoc?5?3?5Unsigned?5over@
CONST	SEGMENT
??_C@_0CF@MMHEHJPP@xmlMemStrdupLoc?5?3?5Unsigned?5over@ DB 'xmlMemStrdupL'
	DB	'oc : Unsigned overflow', 0aH, 00H		; `string'
CONST	ENDS
;	COMDAT ??_C@_0BG@PIJFHHCD@xmlMemFree?$CI?$CFp?$CJ?5error?6@
CONST	SEGMENT
??_C@_0BG@PIJFHHCD@xmlMemFree?$CI?$CFp?$CJ?5error?6@ DB 'xmlMemFree(%p) e'
	DB	'rror', 0aH, 00H				; `string'
CONST	ENDS
;	COMDAT ??_C@_0O@EGNDPFML@?$CFp?5?3?5Freed?$CI?$CJ?6@
CONST	SEGMENT
??_C@_0O@EGNDPFML@?$CFp?5?3?5Freed?$CI?$CJ?6@ DB '%p : Freed()', 0aH, 00H ; `string'
CONST	ENDS
;	COMDAT ??_C@_0CI@FDKALOEN@trying?5to?5free?5pointer?5from?5fre@
CONST	SEGMENT
??_C@_0CI@FDKALOEN@trying?5to?5free?5pointer?5from?5fre@ DB 'trying to fr'
	DB	'ee pointer from freed area', 0aH, 00H	; `string'
CONST	ENDS
;	COMDAT ??_C@_0BP@EHGEOOF@?$CFp?5?3?5Realloced?$CI?$CFlu?5?9?$DO?5?$CFlu?$CJ?5Ok?6@
CONST	SEGMENT
??_C@_0BP@EHGEOOF@?$CFp?5?3?5Realloced?$CI?$CFlu?5?9?$DO?5?$CFlu?$CJ?5Ok?6@ DB '%'
	DB	'p : Realloced(%lu -> %lu) Ok', 0aH, 00H	; `string'
CONST	ENDS
;	COMDAT ??_C@_0CD@EKEGIKEO@xmlReallocLoc?5?3?5Unsigned?5overfl@
CONST	SEGMENT
??_C@_0CD@EKEGIKEO@xmlReallocLoc?5?3?5Unsigned?5overfl@ DB 'xmlReallocLoc'
	DB	' : Unsigned overflow', 0aH, 00H		; `string'
CONST	ENDS
;	COMDAT ??_C@_04CGFJFPFD@none@
CONST	SEGMENT
??_C@_04CGFJFPFD@none@ DB 'none', 00H			; `string'
CONST	ENDS
;	COMDAT ??_C@_0CI@GBNGPOFO@xmlMallocAtomicLoc?5?3?5Out?5of?5fre@
CONST	SEGMENT
??_C@_0CI@GBNGPOFO@xmlMallocAtomicLoc?5?3?5Out?5of?5fre@ DB 'xmlMallocAto'
	DB	'micLoc : Out of free space', 0aH, 00H	; `string'
CONST	ENDS
;	COMDAT ??_C@_0CI@KCPHLLJL@xmlMallocAtomicLoc?5?3?5Unsigned?5o@
CONST	SEGMENT
??_C@_0CI@KCPHLLJL@xmlMallocAtomicLoc?5?3?5Unsigned?5o@ DB 'xmlMallocAtom'
	DB	'icLoc : Unsigned overflow', 0aH, 00H	; `string'
CONST	ENDS
;	COMDAT ??_C@_0BF@EOHFMDNL@?$CFp?5?3?5Malloc?$CI?$CFlu?$CJ?5Ok?6@
CONST	SEGMENT
??_C@_0BF@EOHFMDNL@?$CFp?5?3?5Malloc?$CI?$CFlu?$CJ?5Ok?6@ DB '%p : Malloc'
	DB	'(%lu) Ok', 0aH, 00H				; `string'
CONST	ENDS
;	COMDAT ??_C@_0CC@GHPBNICE@xmlMallocLoc?5?3?5Out?5of?5free?5spac@
CONST	SEGMENT
??_C@_0CC@GHPBNICE@xmlMallocLoc?5?3?5Out?5of?5free?5spac@ DB 'xmlMallocLo'
	DB	'c : Out of free space', 0aH, 00H		; `string'
CONST	ENDS
;	COMDAT ??_C@_0CC@KENAJNOB@xmlMallocLoc?5?3?5Unsigned?5overflo@
CONST	SEGMENT
??_C@_0CC@KENAJNOB@xmlMallocLoc?5?3?5Unsigned?5overflo@ DB 'xmlMallocLoc '
	DB	': Unsigned overflow', 0aH, 00H		; `string'
CONST	ENDS
;	COMDAT ??_C@_0CJ@PFFCFAIM@xmlMallocBreakpoint?5reached?5on?5@
CONST	SEGMENT
??_C@_0CJ@PFFCFAIM@xmlMallocBreakpoint?5reached?5on?5@ DB 'xmlMallocBreak'
	DB	'point reached on block %d', 0aH, 00H	; `string'
CONST	ENDS
; Function compile flags: /Odt
;	COMDAT __JustMyCode_Default
_TEXT	SEGMENT
__JustMyCode_Default PROC				; COMDAT
	push	ebp
	mov	ebp, esp
	pop	ebp
	ret	0
__JustMyCode_Default ENDP
_TEXT	ENDS
; Function compile flags: /Odtp /RTCsu
; File c:\users\dag\documents\_clients\codeproject authors group\windows on arm\libxml2\libxml2-2.9.9\xmlmemory.c
;	COMDAT _debugmem_tag_error
_TEXT	SEGMENT
_p$ = 8							; size = 4
_debugmem_tag_error PROC				; COMDAT

; 863  : {

	push	ebp
	mov	ebp, esp
	push	esi
	mov	ecx, OFFSET __D8018AA9_xmlmemory@c
	call	@__CheckForDebuggerJustMyCode@4

; 864  :      xmlGenericError(xmlGenericErrorContext,

	mov	esi, esp
	mov	eax, DWORD PTR _p$[ebp]
	push	eax
	push	OFFSET ??_C@_0CE@GGGDAPNO@Memory?5tag?5error?5occurs?5?3?$CFp?5?6?7?5@
	call	___xmlGenericErrorContext
	mov	ecx, DWORD PTR [eax]
	push	ecx
	call	___xmlGenericError
	mov	edx, DWORD PTR [eax]
	call	edx
	add	esp, 12					; 0000000cH
	cmp	esi, esp
	call	__RTC_CheckEsp

; 865  : 	     "Memory tag error occurs :%p \n\t bye\n", p);
; 866  : #ifdef MEM_LIST
; 867  :      if (stderr)
; 868  :      xmlMemDisplay(stderr);
; 869  : #endif
; 870  : }

	pop	esi
	cmp	ebp, esp
	call	__RTC_CheckEsp
	pop	ebp
	ret	0
_debugmem_tag_error ENDP
_TEXT	ENDS
; Function compile flags: /Odtp /RTCsu
; File c:\users\dag\documents\_clients\codeproject authors group\windows on arm\libxml2\libxml2-2.9.9\xmlmemory.c
;	COMDAT _xmlMallocBreakpoint
_TEXT	SEGMENT
_xmlMallocBreakpoint PROC				; COMDAT

; 145  : xmlMallocBreakpoint(void) {

	push	ebp
	mov	ebp, esp
	push	esi
	mov	ecx, OFFSET __D8018AA9_xmlmemory@c
	call	@__CheckForDebuggerJustMyCode@4

; 146  :     xmlGenericError(xmlGenericErrorContext,

	mov	esi, esp
	mov	eax, DWORD PTR _xmlMemStopAtBlock
	push	eax
	push	OFFSET ??_C@_0CJ@PFFCFAIM@xmlMallocBreakpoint?5reached?5on?5@
	call	___xmlGenericErrorContext
	mov	ecx, DWORD PTR [eax]
	push	ecx
	call	___xmlGenericError
	mov	edx, DWORD PTR [eax]
	call	edx
	add	esp, 12					; 0000000cH
	cmp	esi, esp
	call	__RTC_CheckEsp

; 147  : 	    "xmlMallocBreakpoint reached on block %d\n", xmlMemStopAtBlock);
; 148  : }

	pop	esi
	cmp	ebp, esp
	call	__RTC_CheckEsp
	pop	ebp
	ret	0
_xmlMallocBreakpoint ENDP
_TEXT	ENDS
; Function compile flags: /Odtp /RTCsu
; File c:\users\dag\documents\_clients\codeproject authors group\windows on arm\libxml2\libxml2-2.9.9\xmlmemory.c
;	COMDAT _xmlMemStrdupLoc
_TEXT	SEGMENT
tv132 = -41						; size = 1
tv131 = -40						; size = 4
tv130 = -36						; size = 4
tv129 = -32						; size = 4
tv66 = -28						; size = 4
tv150 = -21						; size = 1
tv147 = -20						; size = 4
tv144 = -16						; size = 4
_p$ = -12						; size = 4
_size$ = -8						; size = 4
_s$ = -4						; size = 4
_str$ = 8						; size = 4
_file$ = 12						; size = 4
_line$ = 16						; size = 4
_xmlMemStrdupLoc PROC					; COMDAT

; 508  : {

	push	ebp
	mov	ebp, esp
	sub	esp, 44					; 0000002cH
	push	esi
	push	edi
	lea	edi, DWORD PTR [ebp-44]
	mov	ecx, 11					; 0000000bH
	mov	eax, -858993460				; ccccccccH
	rep stosd
	mov	ecx, OFFSET __D8018AA9_xmlmemory@c
	call	@__CheckForDebuggerJustMyCode@4

; 509  :     char *s;
; 510  :     size_t size = strlen(str) + 1;

	mov	eax, DWORD PTR _str$[ebp]
	mov	DWORD PTR tv144[ebp], eax
	mov	ecx, DWORD PTR tv144[ebp]
	add	ecx, 1
	mov	DWORD PTR tv147[ebp], ecx
$LL10@xmlMemStrd:
	mov	edx, DWORD PTR tv144[ebp]
	mov	al, BYTE PTR [edx]
	mov	BYTE PTR tv150[ebp], al
	add	DWORD PTR tv144[ebp], 1
	cmp	BYTE PTR tv150[ebp], 0
	jne	SHORT $LL10@xmlMemStrd
	mov	ecx, DWORD PTR tv144[ebp]
	sub	ecx, DWORD PTR tv147[ebp]
	mov	DWORD PTR tv66[ebp], ecx
	mov	edx, DWORD PTR tv66[ebp]
	add	edx, 1
	mov	DWORD PTR _size$[ebp], edx

; 511  :     MEMHDR *p;
; 512  : 
; 513  :     if (!xmlMemInitialized) xmlInitMemory();

	cmp	DWORD PTR _xmlMemInitialized, 0
	jne	SHORT $LN2@xmlMemStrd
	call	_xmlInitMemory
$LN2@xmlMemStrd:

; 514  :     TEST_POINT
; 515  : 
; 516  :     if (size > (MAX_SIZE_T - RESERVE_SIZE)) {

	cmp	DWORD PTR _size$[ebp], -25		; ffffffe7H
	jbe	SHORT $LN3@xmlMemStrd

; 517  : 	xmlGenericError(xmlGenericErrorContext,

	mov	esi, esp
	push	OFFSET ??_C@_0CF@MMHEHJPP@xmlMemStrdupLoc?5?3?5Unsigned?5over@
	call	___xmlGenericErrorContext
	mov	eax, DWORD PTR [eax]
	push	eax
	call	___xmlGenericError
	mov	ecx, DWORD PTR [eax]
	call	ecx
	add	esp, 8
	cmp	esi, esp
	call	__RTC_CheckEsp

; 518  : 		"xmlMemStrdupLoc : Unsigned overflow\n");
; 519  : 	xmlMemoryDump();

	call	_xmlMemoryDump

; 520  : 	return(NULL);

	xor	eax, eax
	jmp	$LN1@xmlMemStrd
$LN3@xmlMemStrd:

; 521  :     }
; 522  : 
; 523  :     p = (MEMHDR *) malloc(RESERVE_SIZE+size);

	mov	edx, DWORD PTR _size$[ebp]
	add	edx, 24					; 00000018H
	mov	esi, esp
	push	edx
	call	DWORD PTR __imp__malloc
	add	esp, 4
	cmp	esi, esp
	call	__RTC_CheckEsp
	mov	DWORD PTR _p$[ebp], eax

; 524  :     if (!p) {

	cmp	DWORD PTR _p$[ebp], 0
	jne	SHORT $LN4@xmlMemStrd

; 525  :       goto error;

	jmp	$error$11
$LN4@xmlMemStrd:

; 526  :     }
; 527  :     p->mh_tag = MEMTAG;

	mov	eax, DWORD PTR _p$[ebp]
	mov	DWORD PTR [eax], 23205			; 00005aa5H

; 528  :     p->mh_size = size;

	mov	ecx, DWORD PTR _p$[ebp]
	mov	edx, DWORD PTR _size$[ebp]
	mov	DWORD PTR [ecx+12], edx

; 529  :     p->mh_type = STRDUP_TYPE;

	mov	eax, DWORD PTR _p$[ebp]
	mov	DWORD PTR [eax+4], 3

; 530  :     p->mh_file = file;

	mov	ecx, DWORD PTR _p$[ebp]
	mov	edx, DWORD PTR _file$[ebp]
	mov	DWORD PTR [ecx+16], edx

; 531  :     p->mh_line = line;

	mov	eax, DWORD PTR _p$[ebp]
	mov	ecx, DWORD PTR _line$[ebp]
	mov	DWORD PTR [eax+20], ecx

; 532  :     xmlMutexLock(xmlMemMutex);

	mov	edx, DWORD PTR _xmlMemMutex
	push	edx
	call	_xmlMutexLock
	add	esp, 4

; 533  :     p->mh_number = ++block;

	mov	eax, DWORD PTR _block
	add	eax, 1
	mov	DWORD PTR _block, eax
	mov	ecx, DWORD PTR _p$[ebp]
	mov	edx, DWORD PTR _block
	mov	DWORD PTR [ecx+8], edx

; 534  :     debugMemSize += size;

	mov	eax, DWORD PTR _debugMemSize
	add	eax, DWORD PTR _size$[ebp]
	mov	DWORD PTR _debugMemSize, eax

; 535  :     debugMemBlocks++;

	mov	ecx, DWORD PTR _debugMemBlocks
	add	ecx, 1
	mov	DWORD PTR _debugMemBlocks, ecx

; 536  :     if (debugMemSize > debugMaxMemSize) debugMaxMemSize = debugMemSize;

	mov	edx, DWORD PTR _debugMemSize
	cmp	edx, DWORD PTR _debugMaxMemSize
	jbe	SHORT $LN5@xmlMemStrd
	mov	eax, DWORD PTR _debugMemSize
	mov	DWORD PTR _debugMaxMemSize, eax
$LN5@xmlMemStrd:

; 537  : #ifdef MEM_LIST
; 538  :     debugmem_list_add(p);
; 539  : #endif
; 540  :     xmlMutexUnlock(xmlMemMutex);

	mov	ecx, DWORD PTR _xmlMemMutex
	push	ecx
	call	_xmlMutexUnlock
	add	esp, 4

; 541  : 
; 542  :     s = (char *) HDR_2_CLIENT(p);

	mov	edx, DWORD PTR _p$[ebp]
	add	edx, 24					; 00000018H
	mov	DWORD PTR _s$[ebp], edx

; 543  : 
; 544  :     if (xmlMemStopAtBlock == p->mh_number) xmlMallocBreakpoint();

	mov	eax, DWORD PTR _p$[ebp]
	mov	ecx, DWORD PTR _xmlMemStopAtBlock
	cmp	ecx, DWORD PTR [eax+8]
	jne	SHORT $LN6@xmlMemStrd
	call	_xmlMallocBreakpoint
$LN6@xmlMemStrd:

; 545  : 
; 546  :     strcpy(s,str);

	mov	edx, DWORD PTR _str$[ebp]
	mov	DWORD PTR tv129[ebp], edx
	mov	eax, DWORD PTR _s$[ebp]
	mov	DWORD PTR tv130[ebp], eax
	mov	ecx, DWORD PTR tv130[ebp]
	mov	DWORD PTR tv131[ebp], ecx
$LN9@xmlMemStrd:
	mov	edx, DWORD PTR tv129[ebp]
	mov	al, BYTE PTR [edx]
	mov	BYTE PTR tv132[ebp], al
	mov	ecx, DWORD PTR tv130[ebp]
	mov	dl, BYTE PTR tv132[ebp]
	mov	BYTE PTR [ecx], dl
	mov	eax, DWORD PTR tv129[ebp]
	add	eax, 1
	mov	DWORD PTR tv129[ebp], eax
	mov	ecx, DWORD PTR tv130[ebp]
	add	ecx, 1
	mov	DWORD PTR tv130[ebp], ecx
	cmp	BYTE PTR tv132[ebp], 0
	jne	SHORT $LN9@xmlMemStrd

; 547  : 
; 548  :     TEST_POINT
; 549  : 
; 550  :     if (xmlMemTraceBlockAt == s) {

	mov	edx, DWORD PTR _xmlMemTraceBlockAt
	cmp	edx, DWORD PTR _s$[ebp]
	jne	SHORT $LN7@xmlMemStrd

; 551  : 	xmlGenericError(xmlGenericErrorContext,

	mov	esi, esp
	mov	eax, DWORD PTR _xmlMemTraceBlockAt
	push	eax
	push	OFFSET ??_C@_0BC@KPBPMJFD@?$CFp?5?3?5Strdup?$CI?$CJ?5Ok?6@
	call	___xmlGenericErrorContext
	mov	ecx, DWORD PTR [eax]
	push	ecx
	call	___xmlGenericError
	mov	edx, DWORD PTR [eax]
	call	edx
	add	esp, 12					; 0000000cH
	cmp	esi, esp
	call	__RTC_CheckEsp

; 552  : 			"%p : Strdup() Ok\n", xmlMemTraceBlockAt);
; 553  : 	xmlMallocBreakpoint();

	call	_xmlMallocBreakpoint
$LN7@xmlMemStrd:

; 554  :     }
; 555  : 
; 556  :     return(s);

	mov	eax, DWORD PTR _s$[ebp]
	jmp	SHORT $LN1@xmlMemStrd
$error$11:

; 557  : 
; 558  : error:
; 559  :     return(NULL);

	xor	eax, eax
$LN1@xmlMemStrd:

; 560  : }

	pop	edi
	pop	esi
	add	esp, 44					; 0000002cH
	cmp	ebp, esp
	call	__RTC_CheckEsp
	mov	esp, ebp
	pop	ebp
	ret	0
_xmlMemStrdupLoc ENDP
_TEXT	ENDS
; Function compile flags: /Odtp /RTCsu
; File c:\users\dag\documents\_clients\codeproject authors group\windows on arm\libxml2\libxml2-2.9.9\xmlmemory.c
;	COMDAT _xmlMallocAtomicLoc
_TEXT	SEGMENT
_ret$ = -8						; size = 4
_p$ = -4						; size = 4
_size$ = 8						; size = 4
_file$ = 12						; size = 4
_line$ = 16						; size = 4
_xmlMallocAtomicLoc PROC				; COMDAT

; 239  : {

	push	ebp
	mov	ebp, esp
	sub	esp, 8
	push	esi
	mov	DWORD PTR [ebp-8], -858993460		; ccccccccH
	mov	DWORD PTR [ebp-4], -858993460		; ccccccccH
	mov	ecx, OFFSET __D8018AA9_xmlmemory@c
	call	@__CheckForDebuggerJustMyCode@4

; 240  :     MEMHDR *p;
; 241  :     void *ret;
; 242  : 
; 243  :     if (!xmlMemInitialized) xmlInitMemory();

	cmp	DWORD PTR _xmlMemInitialized, 0
	jne	SHORT $LN2@xmlMallocA
	call	_xmlInitMemory
$LN2@xmlMallocA:

; 244  : #ifdef DEBUG_MEMORY
; 245  :     xmlGenericError(xmlGenericErrorContext,
; 246  : 	    "Malloc(%d)\n",size);
; 247  : #endif
; 248  : 
; 249  :     TEST_POINT
; 250  : 
; 251  :     if (size > (MAX_SIZE_T - RESERVE_SIZE)) {

	cmp	DWORD PTR _size$[ebp], -25		; ffffffe7H
	jbe	SHORT $LN3@xmlMallocA

; 252  : 	xmlGenericError(xmlGenericErrorContext,

	mov	esi, esp
	push	OFFSET ??_C@_0CI@KCPHLLJL@xmlMallocAtomicLoc?5?3?5Unsigned?5o@
	call	___xmlGenericErrorContext
	mov	eax, DWORD PTR [eax]
	push	eax
	call	___xmlGenericError
	mov	ecx, DWORD PTR [eax]
	call	ecx
	add	esp, 8
	cmp	esi, esp
	call	__RTC_CheckEsp

; 253  : 		"xmlMallocAtomicLoc : Unsigned overflow\n");
; 254  : 	xmlMemoryDump();

	call	_xmlMemoryDump

; 255  : 	return(NULL);

	xor	eax, eax
	jmp	$LN1@xmlMallocA
$LN3@xmlMallocA:

; 256  :     }
; 257  : 
; 258  :     p = (MEMHDR *) malloc(RESERVE_SIZE+size);

	mov	edx, DWORD PTR _size$[ebp]
	add	edx, 24					; 00000018H
	mov	esi, esp
	push	edx
	call	DWORD PTR __imp__malloc
	add	esp, 4
	cmp	esi, esp
	call	__RTC_CheckEsp
	mov	DWORD PTR _p$[ebp], eax

; 259  : 
; 260  :     if (!p) {

	cmp	DWORD PTR _p$[ebp], 0
	jne	SHORT $LN4@xmlMallocA

; 261  : 	xmlGenericError(xmlGenericErrorContext,

	mov	esi, esp
	push	OFFSET ??_C@_0CI@GBNGPOFO@xmlMallocAtomicLoc?5?3?5Out?5of?5fre@
	call	___xmlGenericErrorContext
	mov	eax, DWORD PTR [eax]
	push	eax
	call	___xmlGenericError
	mov	ecx, DWORD PTR [eax]
	call	ecx
	add	esp, 8
	cmp	esi, esp
	call	__RTC_CheckEsp

; 262  : 		"xmlMallocAtomicLoc : Out of free space\n");
; 263  : 	xmlMemoryDump();

	call	_xmlMemoryDump

; 264  : 	return(NULL);

	xor	eax, eax
	jmp	$LN1@xmlMallocA
$LN4@xmlMallocA:

; 265  :     }
; 266  :     p->mh_tag = MEMTAG;

	mov	edx, DWORD PTR _p$[ebp]
	mov	DWORD PTR [edx], 23205			; 00005aa5H

; 267  :     p->mh_size = size;

	mov	eax, DWORD PTR _p$[ebp]
	mov	ecx, DWORD PTR _size$[ebp]
	mov	DWORD PTR [eax+12], ecx

; 268  :     p->mh_type = MALLOC_ATOMIC_TYPE;

	mov	edx, DWORD PTR _p$[ebp]
	mov	DWORD PTR [edx+4], 4

; 269  :     p->mh_file = file;

	mov	eax, DWORD PTR _p$[ebp]
	mov	ecx, DWORD PTR _file$[ebp]
	mov	DWORD PTR [eax+16], ecx

; 270  :     p->mh_line = line;

	mov	edx, DWORD PTR _p$[ebp]
	mov	eax, DWORD PTR _line$[ebp]
	mov	DWORD PTR [edx+20], eax

; 271  :     xmlMutexLock(xmlMemMutex);

	mov	ecx, DWORD PTR _xmlMemMutex
	push	ecx
	call	_xmlMutexLock
	add	esp, 4

; 272  :     p->mh_number = ++block;

	mov	edx, DWORD PTR _block
	add	edx, 1
	mov	DWORD PTR _block, edx
	mov	eax, DWORD PTR _p$[ebp]
	mov	ecx, DWORD PTR _block
	mov	DWORD PTR [eax+8], ecx

; 273  :     debugMemSize += size;

	mov	edx, DWORD PTR _debugMemSize
	add	edx, DWORD PTR _size$[ebp]
	mov	DWORD PTR _debugMemSize, edx

; 274  :     debugMemBlocks++;

	mov	eax, DWORD PTR _debugMemBlocks
	add	eax, 1
	mov	DWORD PTR _debugMemBlocks, eax

; 275  :     if (debugMemSize > debugMaxMemSize) debugMaxMemSize = debugMemSize;

	mov	ecx, DWORD PTR _debugMemSize
	cmp	ecx, DWORD PTR _debugMaxMemSize
	jbe	SHORT $LN5@xmlMallocA
	mov	edx, DWORD PTR _debugMemSize
	mov	DWORD PTR _debugMaxMemSize, edx
$LN5@xmlMallocA:

; 276  : #ifdef MEM_LIST
; 277  :     debugmem_list_add(p);
; 278  : #endif
; 279  :     xmlMutexUnlock(xmlMemMutex);

	mov	eax, DWORD PTR _xmlMemMutex
	push	eax
	call	_xmlMutexUnlock
	add	esp, 4

; 280  : 
; 281  : #ifdef DEBUG_MEMORY
; 282  :     xmlGenericError(xmlGenericErrorContext,
; 283  : 	    "Malloc(%d) Ok\n",size);
; 284  : #endif
; 285  : 
; 286  :     if (xmlMemStopAtBlock == p->mh_number) xmlMallocBreakpoint();

	mov	ecx, DWORD PTR _p$[ebp]
	mov	edx, DWORD PTR _xmlMemStopAtBlock
	cmp	edx, DWORD PTR [ecx+8]
	jne	SHORT $LN6@xmlMallocA
	call	_xmlMallocBreakpoint
$LN6@xmlMallocA:

; 287  : 
; 288  :     ret = HDR_2_CLIENT(p);

	mov	eax, DWORD PTR _p$[ebp]
	add	eax, 24					; 00000018H
	mov	DWORD PTR _ret$[ebp], eax

; 289  : 
; 290  :     if (xmlMemTraceBlockAt == ret) {

	mov	ecx, DWORD PTR _xmlMemTraceBlockAt
	cmp	ecx, DWORD PTR _ret$[ebp]
	jne	SHORT $LN7@xmlMallocA

; 291  : 	xmlGenericError(xmlGenericErrorContext,

	mov	esi, esp
	mov	edx, DWORD PTR _size$[ebp]
	push	edx
	mov	eax, DWORD PTR _xmlMemTraceBlockAt
	push	eax
	push	OFFSET ??_C@_0BF@EOHFMDNL@?$CFp?5?3?5Malloc?$CI?$CFlu?$CJ?5Ok?6@
	call	___xmlGenericErrorContext
	mov	ecx, DWORD PTR [eax]
	push	ecx
	call	___xmlGenericError
	mov	edx, DWORD PTR [eax]
	call	edx
	add	esp, 16					; 00000010H
	cmp	esi, esp
	call	__RTC_CheckEsp

; 292  : 			"%p : Malloc(%lu) Ok\n", xmlMemTraceBlockAt,
; 293  : 			(long unsigned)size);
; 294  : 	xmlMallocBreakpoint();

	call	_xmlMallocBreakpoint
$LN7@xmlMallocA:

; 295  :     }
; 296  : 
; 297  :     TEST_POINT
; 298  : 
; 299  :     return(ret);

	mov	eax, DWORD PTR _ret$[ebp]
$LN1@xmlMallocA:

; 300  : }

	pop	esi
	add	esp, 8
	cmp	ebp, esp
	call	__RTC_CheckEsp
	mov	esp, ebp
	pop	ebp
	ret	0
_xmlMallocAtomicLoc ENDP
_TEXT	ENDS
; Function compile flags: /Odtp /RTCsu
; File c:\users\dag\documents\_clients\codeproject authors group\windows on arm\libxml2\libxml2-2.9.9\xmlmemory.c
;	COMDAT _xmlReallocLoc
_TEXT	SEGMENT
_number$ = -12						; size = 4
_tmp$ = -8						; size = 4
_p$ = -4						; size = 4
_ptr$ = 8						; size = 4
_size$ = 12						; size = 4
_file$ = 16						; size = 4
_line$ = 20						; size = 4
_xmlReallocLoc PROC					; COMDAT

; 330  : {

	push	ebp
	mov	ebp, esp
	sub	esp, 12					; 0000000cH
	push	esi
	mov	DWORD PTR [ebp-12], -858993460		; ccccccccH
	mov	DWORD PTR [ebp-8], -858993460		; ccccccccH
	mov	DWORD PTR [ebp-4], -858993460		; ccccccccH
	mov	ecx, OFFSET __D8018AA9_xmlmemory@c
	call	@__CheckForDebuggerJustMyCode@4

; 331  :     MEMHDR *p, *tmp;
; 332  :     unsigned long number;
; 333  : #ifdef DEBUG_MEMORY
; 334  :     size_t oldsize;
; 335  : #endif
; 336  : 
; 337  :     if (ptr == NULL)

	cmp	DWORD PTR _ptr$[ebp], 0
	jne	SHORT $LN2@xmlRealloc

; 338  :         return(xmlMallocLoc(size, file, line));

	mov	eax, DWORD PTR _line$[ebp]
	push	eax
	mov	ecx, DWORD PTR _file$[ebp]
	push	ecx
	mov	edx, DWORD PTR _size$[ebp]
	push	edx
	call	_xmlMallocLoc
	add	esp, 12					; 0000000cH
	jmp	$LN1@xmlRealloc
$LN2@xmlRealloc:

; 339  : 
; 340  :     if (!xmlMemInitialized) xmlInitMemory();

	cmp	DWORD PTR _xmlMemInitialized, 0
	jne	SHORT $LN3@xmlRealloc
	call	_xmlInitMemory
$LN3@xmlRealloc:

; 341  :     TEST_POINT
; 342  : 
; 343  :     p = CLIENT_2_HDR(ptr);

	mov	eax, DWORD PTR _ptr$[ebp]
	sub	eax, 24					; 00000018H
	mov	DWORD PTR _p$[ebp], eax

; 344  :     number = p->mh_number;

	mov	ecx, DWORD PTR _p$[ebp]
	mov	edx, DWORD PTR [ecx+8]
	mov	DWORD PTR _number$[ebp], edx

; 345  :     if (xmlMemStopAtBlock == number) xmlMallocBreakpoint();

	mov	eax, DWORD PTR _xmlMemStopAtBlock
	cmp	eax, DWORD PTR _number$[ebp]
	jne	SHORT $LN4@xmlRealloc
	call	_xmlMallocBreakpoint
$LN4@xmlRealloc:

; 346  :     if (p->mh_tag != MEMTAG) {

	mov	ecx, DWORD PTR _p$[ebp]
	cmp	DWORD PTR [ecx], 23205			; 00005aa5H
	je	SHORT $LN5@xmlRealloc

; 347  :        Mem_Tag_Err(p);

	mov	edx, DWORD PTR _p$[ebp]
	push	edx
	call	_debugmem_tag_error
	add	esp, 4

; 348  : 	 goto error;

	jmp	$error$11
$LN5@xmlRealloc:

; 349  :     }
; 350  :     p->mh_tag = ~MEMTAG;

	mov	eax, DWORD PTR _p$[ebp]
	mov	DWORD PTR [eax], -23206			; ffffa55aH

; 351  :     xmlMutexLock(xmlMemMutex);

	mov	ecx, DWORD PTR _xmlMemMutex
	push	ecx
	call	_xmlMutexLock
	add	esp, 4

; 352  :     debugMemSize -= p->mh_size;

	mov	edx, DWORD PTR _p$[ebp]
	mov	eax, DWORD PTR _debugMemSize
	sub	eax, DWORD PTR [edx+12]
	mov	DWORD PTR _debugMemSize, eax

; 353  :     debugMemBlocks--;

	mov	ecx, DWORD PTR _debugMemBlocks
	sub	ecx, 1
	mov	DWORD PTR _debugMemBlocks, ecx

; 354  : #ifdef DEBUG_MEMORY
; 355  :     oldsize = p->mh_size;
; 356  : #endif
; 357  : #ifdef MEM_LIST
; 358  :     debugmem_list_delete(p);
; 359  : #endif
; 360  :     xmlMutexUnlock(xmlMemMutex);

	mov	edx, DWORD PTR _xmlMemMutex
	push	edx
	call	_xmlMutexUnlock
	add	esp, 4

; 361  : 
; 362  :     if (size > (MAX_SIZE_T - RESERVE_SIZE)) {

	cmp	DWORD PTR _size$[ebp], -25		; ffffffe7H
	jbe	SHORT $LN6@xmlRealloc

; 363  : 	xmlGenericError(xmlGenericErrorContext,

	mov	esi, esp
	push	OFFSET ??_C@_0CD@EKEGIKEO@xmlReallocLoc?5?3?5Unsigned?5overfl@
	call	___xmlGenericErrorContext
	mov	eax, DWORD PTR [eax]
	push	eax
	call	___xmlGenericError
	mov	ecx, DWORD PTR [eax]
	call	ecx
	add	esp, 8
	cmp	esi, esp
	call	__RTC_CheckEsp

; 364  : 		"xmlReallocLoc : Unsigned overflow\n");
; 365  : 	xmlMemoryDump();

	call	_xmlMemoryDump

; 366  : 	return(NULL);

	xor	eax, eax
	jmp	$LN1@xmlRealloc
$LN6@xmlRealloc:

; 367  :     }
; 368  : 
; 369  :     tmp = (MEMHDR *) realloc(p,RESERVE_SIZE+size);

	mov	edx, DWORD PTR _size$[ebp]
	add	edx, 24					; 00000018H
	mov	esi, esp
	push	edx
	mov	eax, DWORD PTR _p$[ebp]
	push	eax
	call	DWORD PTR __imp__realloc
	add	esp, 8
	cmp	esi, esp
	call	__RTC_CheckEsp
	mov	DWORD PTR _tmp$[ebp], eax

; 370  :     if (!tmp) {

	cmp	DWORD PTR _tmp$[ebp], 0
	jne	SHORT $LN7@xmlRealloc

; 371  : 	 free(p);

	mov	esi, esp
	mov	ecx, DWORD PTR _p$[ebp]
	push	ecx
	call	DWORD PTR __imp__free
	add	esp, 4
	cmp	esi, esp
	call	__RTC_CheckEsp

; 372  : 	 goto error;

	jmp	$error$11
$LN7@xmlRealloc:

; 373  :     }
; 374  :     p = tmp;

	mov	edx, DWORD PTR _tmp$[ebp]
	mov	DWORD PTR _p$[ebp], edx

; 375  :     if (xmlMemTraceBlockAt == ptr) {

	mov	eax, DWORD PTR _xmlMemTraceBlockAt
	cmp	eax, DWORD PTR _ptr$[ebp]
	jne	SHORT $LN8@xmlRealloc

; 376  : 	xmlGenericError(xmlGenericErrorContext,

	mov	esi, esp
	mov	ecx, DWORD PTR _size$[ebp]
	push	ecx
	mov	edx, DWORD PTR _p$[ebp]
	mov	eax, DWORD PTR [edx+12]
	push	eax
	mov	ecx, DWORD PTR _xmlMemTraceBlockAt
	push	ecx
	push	OFFSET ??_C@_0BP@EHGEOOF@?$CFp?5?3?5Realloced?$CI?$CFlu?5?9?$DO?5?$CFlu?$CJ?5Ok?6@
	call	___xmlGenericErrorContext
	mov	edx, DWORD PTR [eax]
	push	edx
	call	___xmlGenericError
	mov	eax, DWORD PTR [eax]
	call	eax
	add	esp, 20					; 00000014H
	cmp	esi, esp
	call	__RTC_CheckEsp

; 377  : 			"%p : Realloced(%lu -> %lu) Ok\n",
; 378  : 			xmlMemTraceBlockAt, (long unsigned)p->mh_size,
; 379  : 			(long unsigned)size);
; 380  : 	xmlMallocBreakpoint();

	call	_xmlMallocBreakpoint
$LN8@xmlRealloc:

; 381  :     }
; 382  :     p->mh_tag = MEMTAG;

	mov	ecx, DWORD PTR _p$[ebp]
	mov	DWORD PTR [ecx], 23205			; 00005aa5H

; 383  :     p->mh_number = number;

	mov	edx, DWORD PTR _p$[ebp]
	mov	eax, DWORD PTR _number$[ebp]
	mov	DWORD PTR [edx+8], eax

; 384  :     p->mh_type = REALLOC_TYPE;

	mov	ecx, DWORD PTR _p$[ebp]
	mov	DWORD PTR [ecx+4], 2

; 385  :     p->mh_size = size;

	mov	edx, DWORD PTR _p$[ebp]
	mov	eax, DWORD PTR _size$[ebp]
	mov	DWORD PTR [edx+12], eax

; 386  :     p->mh_file = file;

	mov	ecx, DWORD PTR _p$[ebp]
	mov	edx, DWORD PTR _file$[ebp]
	mov	DWORD PTR [ecx+16], edx

; 387  :     p->mh_line = line;

	mov	eax, DWORD PTR _p$[ebp]
	mov	ecx, DWORD PTR _line$[ebp]
	mov	DWORD PTR [eax+20], ecx

; 388  :     xmlMutexLock(xmlMemMutex);

	mov	edx, DWORD PTR _xmlMemMutex
	push	edx
	call	_xmlMutexLock
	add	esp, 4

; 389  :     debugMemSize += size;

	mov	eax, DWORD PTR _debugMemSize
	add	eax, DWORD PTR _size$[ebp]
	mov	DWORD PTR _debugMemSize, eax

; 390  :     debugMemBlocks++;

	mov	ecx, DWORD PTR _debugMemBlocks
	add	ecx, 1
	mov	DWORD PTR _debugMemBlocks, ecx

; 391  :     if (debugMemSize > debugMaxMemSize) debugMaxMemSize = debugMemSize;

	mov	edx, DWORD PTR _debugMemSize
	cmp	edx, DWORD PTR _debugMaxMemSize
	jbe	SHORT $LN9@xmlRealloc
	mov	eax, DWORD PTR _debugMemSize
	mov	DWORD PTR _debugMaxMemSize, eax
$LN9@xmlRealloc:

; 392  : #ifdef MEM_LIST
; 393  :     debugmem_list_add(p);
; 394  : #endif
; 395  :     xmlMutexUnlock(xmlMemMutex);

	mov	ecx, DWORD PTR _xmlMemMutex
	push	ecx
	call	_xmlMutexUnlock
	add	esp, 4

; 396  : 
; 397  :     TEST_POINT
; 398  : 
; 399  : #ifdef DEBUG_MEMORY
; 400  :     xmlGenericError(xmlGenericErrorContext,
; 401  : 	    "Realloced(%d to %d) Ok\n", oldsize, size);
; 402  : #endif
; 403  :     return(HDR_2_CLIENT(p));

	mov	eax, DWORD PTR _p$[ebp]
	add	eax, 24					; 00000018H
	jmp	SHORT $LN1@xmlRealloc
$error$11:

; 404  : 
; 405  : error:
; 406  :     return(NULL);

	xor	eax, eax
$LN1@xmlRealloc:

; 407  : }

	pop	esi
	add	esp, 12					; 0000000cH
	cmp	ebp, esp
	call	__RTC_CheckEsp
	mov	esp, ebp
	pop	ebp
	ret	0
_xmlReallocLoc ENDP
_TEXT	ENDS
; Function compile flags: /Odtp /RTCsu
; File c:\users\dag\documents\_clients\codeproject authors group\windows on arm\libxml2\libxml2-2.9.9\xmlmemory.c
;	COMDAT _xmlMallocLoc
_TEXT	SEGMENT
_ret$ = -8						; size = 4
_p$ = -4						; size = 4
_size$ = 8						; size = 4
_file$ = 12						; size = 4
_line$ = 16						; size = 4
_xmlMallocLoc PROC					; COMDAT

; 163  : {

	push	ebp
	mov	ebp, esp
	sub	esp, 8
	push	esi
	mov	DWORD PTR [ebp-8], -858993460		; ccccccccH
	mov	DWORD PTR [ebp-4], -858993460		; ccccccccH
	mov	ecx, OFFSET __D8018AA9_xmlmemory@c
	call	@__CheckForDebuggerJustMyCode@4

; 164  :     MEMHDR *p;
; 165  :     void *ret;
; 166  : 
; 167  :     if (!xmlMemInitialized) xmlInitMemory();

	cmp	DWORD PTR _xmlMemInitialized, 0
	jne	SHORT $LN2@xmlMallocL
	call	_xmlInitMemory
$LN2@xmlMallocL:

; 168  : #ifdef DEBUG_MEMORY
; 169  :     xmlGenericError(xmlGenericErrorContext,
; 170  : 	    "Malloc(%d)\n",size);
; 171  : #endif
; 172  : 
; 173  :     TEST_POINT
; 174  : 
; 175  :     if (size > (MAX_SIZE_T - RESERVE_SIZE)) {

	cmp	DWORD PTR _size$[ebp], -25		; ffffffe7H
	jbe	SHORT $LN3@xmlMallocL

; 176  : 	xmlGenericError(xmlGenericErrorContext,

	mov	esi, esp
	push	OFFSET ??_C@_0CC@KENAJNOB@xmlMallocLoc?5?3?5Unsigned?5overflo@
	call	___xmlGenericErrorContext
	mov	eax, DWORD PTR [eax]
	push	eax
	call	___xmlGenericError
	mov	ecx, DWORD PTR [eax]
	call	ecx
	add	esp, 8
	cmp	esi, esp
	call	__RTC_CheckEsp

; 177  : 		"xmlMallocLoc : Unsigned overflow\n");
; 178  : 	xmlMemoryDump();

	call	_xmlMemoryDump

; 179  : 	return(NULL);

	xor	eax, eax
	jmp	$LN1@xmlMallocL
$LN3@xmlMallocL:

; 180  :     }
; 181  : 
; 182  :     p = (MEMHDR *) malloc(RESERVE_SIZE+size);

	mov	edx, DWORD PTR _size$[ebp]
	add	edx, 24					; 00000018H
	mov	esi, esp
	push	edx
	call	DWORD PTR __imp__malloc
	add	esp, 4
	cmp	esi, esp
	call	__RTC_CheckEsp
	mov	DWORD PTR _p$[ebp], eax

; 183  : 
; 184  :     if (!p) {

	cmp	DWORD PTR _p$[ebp], 0
	jne	SHORT $LN4@xmlMallocL

; 185  : 	xmlGenericError(xmlGenericErrorContext,

	mov	esi, esp
	push	OFFSET ??_C@_0CC@GHPBNICE@xmlMallocLoc?5?3?5Out?5of?5free?5spac@
	call	___xmlGenericErrorContext
	mov	eax, DWORD PTR [eax]
	push	eax
	call	___xmlGenericError
	mov	ecx, DWORD PTR [eax]
	call	ecx
	add	esp, 8
	cmp	esi, esp
	call	__RTC_CheckEsp

; 186  : 		"xmlMallocLoc : Out of free space\n");
; 187  : 	xmlMemoryDump();

	call	_xmlMemoryDump

; 188  : 	return(NULL);

	xor	eax, eax
	jmp	$LN1@xmlMallocL
$LN4@xmlMallocL:

; 189  :     }
; 190  :     p->mh_tag = MEMTAG;

	mov	edx, DWORD PTR _p$[ebp]
	mov	DWORD PTR [edx], 23205			; 00005aa5H

; 191  :     p->mh_size = size;

	mov	eax, DWORD PTR _p$[ebp]
	mov	ecx, DWORD PTR _size$[ebp]
	mov	DWORD PTR [eax+12], ecx

; 192  :     p->mh_type = MALLOC_TYPE;

	mov	edx, DWORD PTR _p$[ebp]
	mov	DWORD PTR [edx+4], 1

; 193  :     p->mh_file = file;

	mov	eax, DWORD PTR _p$[ebp]
	mov	ecx, DWORD PTR _file$[ebp]
	mov	DWORD PTR [eax+16], ecx

; 194  :     p->mh_line = line;

	mov	edx, DWORD PTR _p$[ebp]
	mov	eax, DWORD PTR _line$[ebp]
	mov	DWORD PTR [edx+20], eax

; 195  :     xmlMutexLock(xmlMemMutex);

	mov	ecx, DWORD PTR _xmlMemMutex
	push	ecx
	call	_xmlMutexLock
	add	esp, 4

; 196  :     p->mh_number = ++block;

	mov	edx, DWORD PTR _block
	add	edx, 1
	mov	DWORD PTR _block, edx
	mov	eax, DWORD PTR _p$[ebp]
	mov	ecx, DWORD PTR _block
	mov	DWORD PTR [eax+8], ecx

; 197  :     debugMemSize += size;

	mov	edx, DWORD PTR _debugMemSize
	add	edx, DWORD PTR _size$[ebp]
	mov	DWORD PTR _debugMemSize, edx

; 198  :     debugMemBlocks++;

	mov	eax, DWORD PTR _debugMemBlocks
	add	eax, 1
	mov	DWORD PTR _debugMemBlocks, eax

; 199  :     if (debugMemSize > debugMaxMemSize) debugMaxMemSize = debugMemSize;

	mov	ecx, DWORD PTR _debugMemSize
	cmp	ecx, DWORD PTR _debugMaxMemSize
	jbe	SHORT $LN5@xmlMallocL
	mov	edx, DWORD PTR _debugMemSize
	mov	DWORD PTR _debugMaxMemSize, edx
$LN5@xmlMallocL:

; 200  : #ifdef MEM_LIST
; 201  :     debugmem_list_add(p);
; 202  : #endif
; 203  :     xmlMutexUnlock(xmlMemMutex);

	mov	eax, DWORD PTR _xmlMemMutex
	push	eax
	call	_xmlMutexUnlock
	add	esp, 4

; 204  : 
; 205  : #ifdef DEBUG_MEMORY
; 206  :     xmlGenericError(xmlGenericErrorContext,
; 207  : 	    "Malloc(%d) Ok\n",size);
; 208  : #endif
; 209  : 
; 210  :     if (xmlMemStopAtBlock == p->mh_number) xmlMallocBreakpoint();

	mov	ecx, DWORD PTR _p$[ebp]
	mov	edx, DWORD PTR _xmlMemStopAtBlock
	cmp	edx, DWORD PTR [ecx+8]
	jne	SHORT $LN6@xmlMallocL
	call	_xmlMallocBreakpoint
$LN6@xmlMallocL:

; 211  : 
; 212  :     ret = HDR_2_CLIENT(p);

	mov	eax, DWORD PTR _p$[ebp]
	add	eax, 24					; 00000018H
	mov	DWORD PTR _ret$[ebp], eax

; 213  : 
; 214  :     if (xmlMemTraceBlockAt == ret) {

	mov	ecx, DWORD PTR _xmlMemTraceBlockAt
	cmp	ecx, DWORD PTR _ret$[ebp]
	jne	SHORT $LN7@xmlMallocL

; 215  : 	xmlGenericError(xmlGenericErrorContext,

	mov	esi, esp
	mov	edx, DWORD PTR _size$[ebp]
	push	edx
	mov	eax, DWORD PTR _xmlMemTraceBlockAt
	push	eax
	push	OFFSET ??_C@_0BF@EOHFMDNL@?$CFp?5?3?5Malloc?$CI?$CFlu?$CJ?5Ok?6@
	call	___xmlGenericErrorContext
	mov	ecx, DWORD PTR [eax]
	push	ecx
	call	___xmlGenericError
	mov	edx, DWORD PTR [eax]
	call	edx
	add	esp, 16					; 00000010H
	cmp	esi, esp
	call	__RTC_CheckEsp

; 216  : 			"%p : Malloc(%lu) Ok\n", xmlMemTraceBlockAt,
; 217  : 			(long unsigned)size);
; 218  : 	xmlMallocBreakpoint();

	call	_xmlMallocBreakpoint
$LN7@xmlMallocL:

; 219  :     }
; 220  : 
; 221  :     TEST_POINT
; 222  : 
; 223  :     return(ret);

	mov	eax, DWORD PTR _ret$[ebp]
$LN1@xmlMallocL:

; 224  : }

	pop	esi
	add	esp, 8
	cmp	ebp, esp
	call	__RTC_CheckEsp
	mov	esp, ebp
	pop	ebp
	ret	0
_xmlMallocLoc ENDP
_TEXT	ENDS
; Function compile flags: /Odtp /RTCsu
; File c:\users\dag\documents\_clients\codeproject authors group\windows on arm\libxml2\libxml2-2.9.9\xmlmemory.c
;	COMDAT _xmlMemoryStrdup
_TEXT	SEGMENT
_str$ = 8						; size = 4
_xmlMemoryStrdup PROC					; COMDAT

; 572  : xmlMemoryStrdup(const char *str) {

	push	ebp
	mov	ebp, esp
	mov	ecx, OFFSET __D8018AA9_xmlmemory@c
	call	@__CheckForDebuggerJustMyCode@4

; 573  :     return(xmlMemStrdupLoc(str, "none", 0));

	push	0
	push	OFFSET ??_C@_04CGFJFPFD@none@
	mov	eax, DWORD PTR _str$[ebp]
	push	eax
	call	_xmlMemStrdupLoc
	add	esp, 12					; 0000000cH

; 574  : }

	cmp	ebp, esp
	call	__RTC_CheckEsp
	pop	ebp
	ret	0
_xmlMemoryStrdup ENDP
_TEXT	ENDS
; Function compile flags: /Odtp /RTCsu
; File c:\users\dag\documents\_clients\codeproject authors group\windows on arm\libxml2\libxml2-2.9.9\xmlmemory.c
;	COMDAT _xmlMemFree
_TEXT	SEGMENT
_target$ = -8						; size = 4
_p$ = -4						; size = 4
_ptr$ = 8						; size = 4
_xmlMemFree PROC					; COMDAT

; 432  : {

	push	ebp
	mov	ebp, esp
	sub	esp, 8
	push	esi
	mov	DWORD PTR [ebp-8], -858993460		; ccccccccH
	mov	DWORD PTR [ebp-4], -858993460		; ccccccccH
	mov	ecx, OFFSET __D8018AA9_xmlmemory@c
	call	@__CheckForDebuggerJustMyCode@4

; 433  :     MEMHDR *p;
; 434  :     char *target;
; 435  : #ifdef DEBUG_MEMORY
; 436  :     size_t size;
; 437  : #endif
; 438  : 
; 439  :     if (ptr == NULL)

	cmp	DWORD PTR _ptr$[ebp], 0
	jne	SHORT $LN2@xmlMemFree

; 440  : 	return;

	jmp	$LN1@xmlMemFree
$LN2@xmlMemFree:

; 441  : 
; 442  :     if (ptr == (void *) -1) {

	cmp	DWORD PTR _ptr$[ebp], -1
	jne	SHORT $LN3@xmlMemFree

; 443  : 	xmlGenericError(xmlGenericErrorContext,

	mov	esi, esp
	push	OFFSET ??_C@_0CI@FDKALOEN@trying?5to?5free?5pointer?5from?5fre@
	call	___xmlGenericErrorContext
	mov	eax, DWORD PTR [eax]
	push	eax
	call	___xmlGenericError
	mov	ecx, DWORD PTR [eax]
	call	ecx
	add	esp, 8
	cmp	esi, esp
	call	__RTC_CheckEsp

; 444  : 	    "trying to free pointer from freed area\n");
; 445  :         goto error;

	jmp	$error$8
$LN3@xmlMemFree:

; 446  :     }
; 447  : 
; 448  :     if (xmlMemTraceBlockAt == ptr) {

	mov	edx, DWORD PTR _xmlMemTraceBlockAt
	cmp	edx, DWORD PTR _ptr$[ebp]
	jne	SHORT $LN4@xmlMemFree

; 449  : 	xmlGenericError(xmlGenericErrorContext,

	mov	esi, esp
	mov	eax, DWORD PTR _xmlMemTraceBlockAt
	push	eax
	push	OFFSET ??_C@_0O@EGNDPFML@?$CFp?5?3?5Freed?$CI?$CJ?6@
	call	___xmlGenericErrorContext
	mov	ecx, DWORD PTR [eax]
	push	ecx
	call	___xmlGenericError
	mov	edx, DWORD PTR [eax]
	call	edx
	add	esp, 12					; 0000000cH
	cmp	esi, esp
	call	__RTC_CheckEsp

; 450  : 			"%p : Freed()\n", xmlMemTraceBlockAt);
; 451  : 	xmlMallocBreakpoint();

	call	_xmlMallocBreakpoint
$LN4@xmlMemFree:

; 452  :     }
; 453  : 
; 454  :     TEST_POINT
; 455  : 
; 456  :     target = (char *) ptr;

	mov	eax, DWORD PTR _ptr$[ebp]
	mov	DWORD PTR _target$[ebp], eax

; 457  : 
; 458  :     p = CLIENT_2_HDR(ptr);

	mov	ecx, DWORD PTR _ptr$[ebp]
	sub	ecx, 24					; 00000018H
	mov	DWORD PTR _p$[ebp], ecx

; 459  :     if (p->mh_tag != MEMTAG) {

	mov	edx, DWORD PTR _p$[ebp]
	cmp	DWORD PTR [edx], 23205			; 00005aa5H
	je	SHORT $LN5@xmlMemFree

; 460  :         Mem_Tag_Err(p);

	mov	eax, DWORD PTR _p$[ebp]
	push	eax
	call	_debugmem_tag_error
	add	esp, 4

; 461  :         goto error;

	jmp	$error$8
$LN5@xmlMemFree:

; 462  :     }
; 463  :     if (xmlMemStopAtBlock == p->mh_number) xmlMallocBreakpoint();

	mov	ecx, DWORD PTR _p$[ebp]
	mov	edx, DWORD PTR _xmlMemStopAtBlock
	cmp	edx, DWORD PTR [ecx+8]
	jne	SHORT $LN6@xmlMemFree
	call	_xmlMallocBreakpoint
$LN6@xmlMemFree:

; 464  :     p->mh_tag = ~MEMTAG;

	mov	eax, DWORD PTR _p$[ebp]
	mov	DWORD PTR [eax], -23206			; ffffa55aH

; 465  :     memset(target, -1, p->mh_size);

	mov	ecx, DWORD PTR _p$[ebp]
	mov	edx, DWORD PTR [ecx+12]
	push	edx
	push	-1
	mov	eax, DWORD PTR _target$[ebp]
	push	eax
	call	_memset
	add	esp, 12					; 0000000cH

; 466  :     xmlMutexLock(xmlMemMutex);

	mov	ecx, DWORD PTR _xmlMemMutex
	push	ecx
	call	_xmlMutexLock
	add	esp, 4

; 467  :     debugMemSize -= p->mh_size;

	mov	edx, DWORD PTR _p$[ebp]
	mov	eax, DWORD PTR _debugMemSize
	sub	eax, DWORD PTR [edx+12]
	mov	DWORD PTR _debugMemSize, eax

; 468  :     debugMemBlocks--;

	mov	ecx, DWORD PTR _debugMemBlocks
	sub	ecx, 1
	mov	DWORD PTR _debugMemBlocks, ecx

; 469  : #ifdef DEBUG_MEMORY
; 470  :     size = p->mh_size;
; 471  : #endif
; 472  : #ifdef MEM_LIST
; 473  :     debugmem_list_delete(p);
; 474  : #endif
; 475  :     xmlMutexUnlock(xmlMemMutex);

	mov	edx, DWORD PTR _xmlMemMutex
	push	edx
	call	_xmlMutexUnlock
	add	esp, 4

; 476  : 
; 477  :     free(p);

	mov	esi, esp
	mov	eax, DWORD PTR _p$[ebp]
	push	eax
	call	DWORD PTR __imp__free
	add	esp, 4
	cmp	esi, esp
	call	__RTC_CheckEsp

; 478  : 
; 479  :     TEST_POINT
; 480  : 
; 481  : #ifdef DEBUG_MEMORY
; 482  :     xmlGenericError(xmlGenericErrorContext,
; 483  : 	    "Freed(%d) Ok\n", size);
; 484  : #endif
; 485  : 
; 486  :     return;

	jmp	SHORT $LN1@xmlMemFree
$error$8:

; 487  : 
; 488  : error:
; 489  :     xmlGenericError(xmlGenericErrorContext,

	mov	esi, esp
	mov	ecx, DWORD PTR _ptr$[ebp]
	push	ecx
	push	OFFSET ??_C@_0BG@PIJFHHCD@xmlMemFree?$CI?$CFp?$CJ?5error?6@
	call	___xmlGenericErrorContext
	mov	edx, DWORD PTR [eax]
	push	edx
	call	___xmlGenericError
	mov	eax, DWORD PTR [eax]
	call	eax
	add	esp, 12					; 0000000cH
	cmp	esi, esp
	call	__RTC_CheckEsp

; 490  : 	    "xmlMemFree(%p) error\n", ptr);
; 491  :     xmlMallocBreakpoint();

	call	_xmlMallocBreakpoint
$LN1@xmlMemFree:

; 492  :     return;
; 493  : }

	pop	esi
	add	esp, 8
	cmp	ebp, esp
	call	__RTC_CheckEsp
	mov	esp, ebp
	pop	ebp
	ret	0
_xmlMemFree ENDP
_TEXT	ENDS
; Function compile flags: /Odtp /RTCsu
; File c:\users\dag\documents\_clients\codeproject authors group\windows on arm\libxml2\libxml2-2.9.9\xmlmemory.c
;	COMDAT _xmlMemRealloc
_TEXT	SEGMENT
_ptr$ = 8						; size = 4
_size$ = 12						; size = 4
_xmlMemRealloc PROC					; COMDAT

; 420  : xmlMemRealloc(void *ptr,size_t size) {

	push	ebp
	mov	ebp, esp
	mov	ecx, OFFSET __D8018AA9_xmlmemory@c
	call	@__CheckForDebuggerJustMyCode@4

; 421  :     return(xmlReallocLoc(ptr, size, "none", 0));

	push	0
	push	OFFSET ??_C@_04CGFJFPFD@none@
	mov	eax, DWORD PTR _size$[ebp]
	push	eax
	mov	ecx, DWORD PTR _ptr$[ebp]
	push	ecx
	call	_xmlReallocLoc
	add	esp, 16					; 00000010H

; 422  : }

	cmp	ebp, esp
	call	__RTC_CheckEsp
	pop	ebp
	ret	0
_xmlMemRealloc ENDP
_TEXT	ENDS
; Function compile flags: /Odtp /RTCsu
; File c:\users\dag\documents\_clients\codeproject authors group\windows on arm\libxml2\libxml2-2.9.9\xmlmemory.c
;	COMDAT _xmlMemMalloc
_TEXT	SEGMENT
_size$ = 8						; size = 4
_xmlMemMalloc PROC					; COMDAT

; 312  : {

	push	ebp
	mov	ebp, esp
	mov	ecx, OFFSET __D8018AA9_xmlmemory@c
	call	@__CheckForDebuggerJustMyCode@4

; 313  :     return(xmlMallocLoc(size, "none", 0));

	push	0
	push	OFFSET ??_C@_04CGFJFPFD@none@
	mov	eax, DWORD PTR _size$[ebp]
	push	eax
	call	_xmlMallocLoc
	add	esp, 12					; 0000000cH

; 314  : }

	cmp	ebp, esp
	call	__RTC_CheckEsp
	pop	ebp
	ret	0
_xmlMemMalloc ENDP
_TEXT	ENDS
; Function compile flags: /Odtp /RTCsu
; File c:\users\dag\documents\_clients\codeproject authors group\windows on arm\libxml2\libxml2-2.9.9\xmlmemory.c
;	COMDAT _xmlMemoryDump
_TEXT	SEGMENT
_xmlMemoryDump PROC					; COMDAT

; 932  : {

	push	ebp
	mov	ebp, esp
	mov	ecx, OFFSET __D8018AA9_xmlmemory@c
	call	@__CheckForDebuggerJustMyCode@4

; 933  : #ifdef MEM_LIST
; 934  :     FILE *dump;
; 935  : 
; 936  :     if (debugMaxMemSize == 0)
; 937  : 	return;
; 938  :     dump = fopen(".memdump", "w");
; 939  :     if (dump == NULL)
; 940  : 	xmlMemoryDumpFile = stderr;
; 941  :     else xmlMemoryDumpFile = dump;
; 942  : 
; 943  :     xmlMemDisplay(xmlMemoryDumpFile);
; 944  : 
; 945  :     if (dump != NULL) fclose(dump);
; 946  : #endif /* MEM_LIST */
; 947  : }

	cmp	ebp, esp
	call	__RTC_CheckEsp
	pop	ebp
	ret	0
_xmlMemoryDump ENDP
_TEXT	ENDS
; Function compile flags: /Odtp /RTCsu
; File c:\users\dag\documents\_clients\codeproject authors group\windows on arm\libxml2\libxml2-2.9.9\xmlmemory.c
;	COMDAT _xmlMemShow
_TEXT	SEGMENT
_fp$ = 8						; size = 4
_nr$ = 12						; size = 4
_xmlMemShow PROC					; COMDAT

; 887  : {

	push	ebp
	mov	ebp, esp
	mov	ecx, OFFSET __D8018AA9_xmlmemory@c
	call	@__CheckForDebuggerJustMyCode@4

; 888  : #ifdef MEM_LIST
; 889  :     MEMHDR *p;
; 890  : #endif
; 891  : 
; 892  :     if (fp != NULL)

	cmp	DWORD PTR _fp$[ebp], 0
	je	SHORT $LN1@xmlMemShow

; 893  : 	fprintf(fp,"      MEMORY ALLOCATED : %lu, MAX was %lu\n",

	mov	eax, DWORD PTR _debugMaxMemSize
	push	eax
	mov	ecx, DWORD PTR _debugMemSize
	push	ecx
	push	OFFSET ??_C@_0CL@DBCIPLIB@?5?5?5?5?5?5MEMORY?5ALLOCATED?5?3?5?$CFlu?0?5M@
	mov	edx, DWORD PTR _fp$[ebp]
	push	edx
	call	_fprintf
	add	esp, 16					; 00000010H
$LN1@xmlMemShow:

; 894  : 		debugMemSize, debugMaxMemSize);
; 895  : #ifdef MEM_LIST
; 896  :     xmlMutexLock(xmlMemMutex);
; 897  :     if (nr > 0) {
; 898  : 	fprintf(fp,"NUMBER   SIZE  TYPE   WHERE\n");
; 899  : 	p = memlist;
; 900  : 	while ((p) && nr > 0) {
; 901  : 	      fprintf(fp,"%6lu %6lu ",p->mh_number,(unsigned long)p->mh_size);
; 902  : 	    switch (p->mh_type) {
; 903  : 	       case STRDUP_TYPE:fprintf(fp,"strdup()  in ");break;
; 904  : 	       case MALLOC_TYPE:fprintf(fp,"malloc()  in ");break;
; 905  : 	       case MALLOC_ATOMIC_TYPE:fprintf(fp,"atomicmalloc()  in ");break;
; 906  : 	      case REALLOC_TYPE:fprintf(fp,"realloc() in ");break;
; 907  : 	      case REALLOC_ATOMIC_TYPE:fprintf(fp,"atomicrealloc() in ");break;
; 908  : 		default:fprintf(fp,"   ???    in ");break;
; 909  : 	    }
; 910  : 	    if (p->mh_file != NULL)
; 911  : 	        fprintf(fp,"%s(%u)", p->mh_file, p->mh_line);
; 912  : 	    if (p->mh_tag != MEMTAG)
; 913  : 		fprintf(fp,"  INVALID");
; 914  : 	    xmlMemContentShow(fp, p);
; 915  : 	    fprintf(fp,"\n");
; 916  : 	    nr--;
; 917  : 	    p = p->mh_next;
; 918  : 	}
; 919  :     }
; 920  :     xmlMutexUnlock(xmlMemMutex);
; 921  : #endif /* MEM_LIST */
; 922  : }

	cmp	ebp, esp
	call	__RTC_CheckEsp
	pop	ebp
	ret	0
_xmlMemShow ENDP
_TEXT	ENDS
; Function compile flags: /Odtp /RTCsu
; File c:\users\dag\documents\_clients\codeproject authors group\windows on arm\libxml2\libxml2-2.9.9\xmlmemory.c
;	COMDAT _xmlMemDisplayLast
_TEXT	SEGMENT
_old_fp$ = -4						; size = 4
_fp$ = 8						; size = 4
_nbBytes$ = 12						; size = 4
_xmlMemDisplayLast PROC					; COMDAT

; 686  : {

	push	ebp
	mov	ebp, esp
	push	ecx
	push	esi
	mov	DWORD PTR [ebp-4], -858993460		; ccccccccH
	mov	ecx, OFFSET __D8018AA9_xmlmemory@c
	call	@__CheckForDebuggerJustMyCode@4

; 687  : #ifdef MEM_LIST
; 688  :     MEMHDR *p;
; 689  :     unsigned idx;
; 690  :     int     nb = 0;
; 691  : #endif
; 692  :     FILE *old_fp = fp;

	mov	eax, DWORD PTR _fp$[ebp]
	mov	DWORD PTR _old_fp$[ebp], eax

; 693  : 
; 694  :     if (nbBytes <= 0)

	cmp	DWORD PTR _nbBytes$[ebp], 0
	jg	SHORT $LN2@xmlMemDisp

; 695  :         return;

	jmp	SHORT $LN1@xmlMemDisp
$LN2@xmlMemDisp:

; 696  : 
; 697  :     if (fp == NULL) {

	cmp	DWORD PTR _fp$[ebp], 0
	jne	SHORT $LN3@xmlMemDisp

; 698  : 	fp = fopen(".memorylist", "w");

	mov	esi, esp
	push	OFFSET ??_C@_01NOFIACDB@w@
	push	OFFSET ??_C@_0M@CNJBCEKM@?4memorylist@
	call	DWORD PTR __imp__fopen
	add	esp, 8
	cmp	esi, esp
	call	__RTC_CheckEsp
	mov	DWORD PTR _fp$[ebp], eax

; 699  : 	if (fp == NULL)

	cmp	DWORD PTR _fp$[ebp], 0
	jne	SHORT $LN3@xmlMemDisp

; 700  : 	    return;

	jmp	SHORT $LN1@xmlMemDisp
$LN3@xmlMemDisp:

; 701  :     }
; 702  : 
; 703  : #ifdef MEM_LIST
; 704  :     fprintf(fp,"   Last %li MEMORY ALLOCATED : %lu, MAX was %lu\n",
; 705  :             nbBytes, debugMemSize, debugMaxMemSize);
; 706  :     fprintf(fp,"BLOCK  NUMBER   SIZE  TYPE\n");
; 707  :     idx = 0;
; 708  :     xmlMutexLock(xmlMemMutex);
; 709  :     p = memlist;
; 710  :     while ((p) && (nbBytes > 0)) {
; 711  : 	  fprintf(fp,"%-5u  %6lu %6lu ",idx++,p->mh_number,
; 712  : 		  (unsigned long)p->mh_size);
; 713  :         switch (p->mh_type) {
; 714  :            case STRDUP_TYPE:fprintf(fp,"strdup()  in ");break;
; 715  :            case MALLOC_TYPE:fprintf(fp,"malloc()  in ");break;
; 716  :            case REALLOC_TYPE:fprintf(fp,"realloc() in ");break;
; 717  :            case MALLOC_ATOMIC_TYPE:fprintf(fp,"atomicmalloc()  in ");break;
; 718  :            case REALLOC_ATOMIC_TYPE:fprintf(fp,"atomicrealloc() in ");break;
; 719  :            default:
; 720  : 	        fprintf(fp,"Unknown memory block, may be corrupted");
; 721  : 		xmlMutexUnlock(xmlMemMutex);
; 722  : 		if (old_fp == NULL)
; 723  : 		    fclose(fp);
; 724  : 		return;
; 725  :         }
; 726  : 	if (p->mh_file != NULL) fprintf(fp,"%s(%u)", p->mh_file, p->mh_line);
; 727  :         if (p->mh_tag != MEMTAG)
; 728  : 	      fprintf(fp,"  INVALID");
; 729  :         nb++;
; 730  : 	if (nb < 100)
; 731  : 	    xmlMemContentShow(fp, p);
; 732  : 	else
; 733  : 	    fprintf(fp," skip");
; 734  : 
; 735  :         fprintf(fp,"\n");
; 736  : 	nbBytes -= (unsigned long)p->mh_size;
; 737  :         p = p->mh_next;
; 738  :     }
; 739  :     xmlMutexUnlock(xmlMemMutex);
; 740  : #else
; 741  :     fprintf(fp,"Memory list not compiled (MEM_LIST not defined !)\n");

	push	OFFSET ??_C@_0DD@OBJABBCC@Memory?5list?5not?5compiled?5?$CIMEM_L@
	mov	ecx, DWORD PTR _fp$[ebp]
	push	ecx
	call	_fprintf
	add	esp, 8

; 742  : #endif
; 743  :     if (old_fp == NULL)

	cmp	DWORD PTR _old_fp$[ebp], 0
	jne	SHORT $LN1@xmlMemDisp

; 744  : 	fclose(fp);

	mov	esi, esp
	mov	edx, DWORD PTR _fp$[ebp]
	push	edx
	call	DWORD PTR __imp__fclose
	add	esp, 4
	cmp	esi, esp
	call	__RTC_CheckEsp
$LN1@xmlMemDisp:

; 745  : }

	pop	esi
	add	esp, 4
	cmp	ebp, esp
	call	__RTC_CheckEsp
	mov	esp, ebp
	pop	ebp
	ret	0
_xmlMemDisplayLast ENDP
_TEXT	ENDS
; Function compile flags: /Odtp /RTCsu
; File c:\users\dag\documents\_clients\codeproject authors group\windows on arm\libxml2\libxml2-2.9.9\xmlmemory.c
;	COMDAT _xmlMemDisplay
_TEXT	SEGMENT
_old_fp$ = -4						; size = 4
_fp$ = 8						; size = 4
_xmlMemDisplay PROC					; COMDAT

; 757  : {

	push	ebp
	mov	ebp, esp
	push	ecx
	push	esi
	mov	DWORD PTR [ebp-4], -858993460		; ccccccccH
	mov	ecx, OFFSET __D8018AA9_xmlmemory@c
	call	@__CheckForDebuggerJustMyCode@4

; 758  : #ifdef MEM_LIST
; 759  :     MEMHDR *p;
; 760  :     unsigned idx;
; 761  :     int     nb = 0;
; 762  : #if defined(HAVE_LOCALTIME) && defined(HAVE_STRFTIME)
; 763  :     time_t currentTime;
; 764  :     char buf[500];
; 765  :     struct tm * tstruct;
; 766  : #endif
; 767  : #endif
; 768  :     FILE *old_fp = fp;

	mov	eax, DWORD PTR _fp$[ebp]
	mov	DWORD PTR _old_fp$[ebp], eax

; 769  : 
; 770  :     if (fp == NULL) {

	cmp	DWORD PTR _fp$[ebp], 0
	jne	SHORT $LN2@xmlMemDisp

; 771  : 	fp = fopen(".memorylist", "w");

	mov	esi, esp
	push	OFFSET ??_C@_01NOFIACDB@w@
	push	OFFSET ??_C@_0M@CNJBCEKM@?4memorylist@
	call	DWORD PTR __imp__fopen
	add	esp, 8
	cmp	esi, esp
	call	__RTC_CheckEsp
	mov	DWORD PTR _fp$[ebp], eax

; 772  : 	if (fp == NULL)

	cmp	DWORD PTR _fp$[ebp], 0
	jne	SHORT $LN2@xmlMemDisp

; 773  : 	    return;

	jmp	SHORT $LN1@xmlMemDisp
$LN2@xmlMemDisp:

; 774  :     }
; 775  : 
; 776  : #ifdef MEM_LIST
; 777  : #if defined(HAVE_LOCALTIME) && defined(HAVE_STRFTIME)
; 778  :     currentTime = time(NULL);
; 779  :     tstruct = localtime(&currentTime);
; 780  :     strftime(buf, sizeof(buf) - 1, "%I:%M:%S %p", tstruct);
; 781  :     fprintf(fp,"      %s\n\n", buf);
; 782  : #endif
; 783  : 
; 784  : 
; 785  :     fprintf(fp,"      MEMORY ALLOCATED : %lu, MAX was %lu\n",
; 786  :             debugMemSize, debugMaxMemSize);
; 787  :     fprintf(fp,"BLOCK  NUMBER   SIZE  TYPE\n");
; 788  :     idx = 0;
; 789  :     xmlMutexLock(xmlMemMutex);
; 790  :     p = memlist;
; 791  :     while (p) {
; 792  : 	  fprintf(fp,"%-5u  %6lu %6lu ",idx++,p->mh_number,
; 793  : 		  (unsigned long)p->mh_size);
; 794  :         switch (p->mh_type) {
; 795  :            case STRDUP_TYPE:fprintf(fp,"strdup()  in ");break;
; 796  :            case MALLOC_TYPE:fprintf(fp,"malloc()  in ");break;
; 797  :            case REALLOC_TYPE:fprintf(fp,"realloc() in ");break;
; 798  :            case MALLOC_ATOMIC_TYPE:fprintf(fp,"atomicmalloc()  in ");break;
; 799  :            case REALLOC_ATOMIC_TYPE:fprintf(fp,"atomicrealloc() in ");break;
; 800  :            default:
; 801  : 	        fprintf(fp,"Unknown memory block, may be corrupted");
; 802  : 		xmlMutexUnlock(xmlMemMutex);
; 803  : 		if (old_fp == NULL)
; 804  : 		    fclose(fp);
; 805  : 		return;
; 806  :         }
; 807  : 	if (p->mh_file != NULL) fprintf(fp,"%s(%u)", p->mh_file, p->mh_line);
; 808  :         if (p->mh_tag != MEMTAG)
; 809  : 	      fprintf(fp,"  INVALID");
; 810  :         nb++;
; 811  : 	if (nb < 100)
; 812  : 	    xmlMemContentShow(fp, p);
; 813  : 	else
; 814  : 	    fprintf(fp," skip");
; 815  : 
; 816  :         fprintf(fp,"\n");
; 817  :         p = p->mh_next;
; 818  :     }
; 819  :     xmlMutexUnlock(xmlMemMutex);
; 820  : #else
; 821  :     fprintf(fp,"Memory list not compiled (MEM_LIST not defined !)\n");

	push	OFFSET ??_C@_0DD@OBJABBCC@Memory?5list?5not?5compiled?5?$CIMEM_L@
	mov	ecx, DWORD PTR _fp$[ebp]
	push	ecx
	call	_fprintf
	add	esp, 8

; 822  : #endif
; 823  :     if (old_fp == NULL)

	cmp	DWORD PTR _old_fp$[ebp], 0
	jne	SHORT $LN1@xmlMemDisp

; 824  : 	fclose(fp);

	mov	esi, esp
	mov	edx, DWORD PTR _fp$[ebp]
	push	edx
	call	DWORD PTR __imp__fclose
	add	esp, 4
	cmp	esi, esp
	call	__RTC_CheckEsp
$LN1@xmlMemDisp:

; 825  : }

	pop	esi
	add	esp, 4
	cmp	ebp, esp
	call	__RTC_CheckEsp
	mov	esp, ebp
	pop	ebp
	ret	0
_xmlMemDisplay ENDP
_TEXT	ENDS
; Function compile flags: /Odtp /RTCsu
; File c:\users\dag\documents\_clients\codeproject authors group\windows on arm\libxml2\libxml2-2.9.9\xmlmemory.c
;	COMDAT _xmlMemBlocks
_TEXT	SEGMENT
_res$ = -4						; size = 4
_xmlMemBlocks PROC					; COMDAT

; 603  : xmlMemBlocks(void) {

	push	ebp
	mov	ebp, esp
	push	ecx
	mov	DWORD PTR [ebp-4], -858993460		; ccccccccH
	mov	ecx, OFFSET __D8018AA9_xmlmemory@c
	call	@__CheckForDebuggerJustMyCode@4

; 604  :     int res;
; 605  : 
; 606  :     xmlMutexLock(xmlMemMutex);

	mov	eax, DWORD PTR _xmlMemMutex
	push	eax
	call	_xmlMutexLock
	add	esp, 4

; 607  :     res = debugMemBlocks;

	mov	ecx, DWORD PTR _debugMemBlocks
	mov	DWORD PTR _res$[ebp], ecx

; 608  :     xmlMutexUnlock(xmlMemMutex);

	mov	edx, DWORD PTR _xmlMemMutex
	push	edx
	call	_xmlMutexUnlock
	add	esp, 4

; 609  :     return(res);

	mov	eax, DWORD PTR _res$[ebp]

; 610  : }

	add	esp, 4
	cmp	ebp, esp
	call	__RTC_CheckEsp
	mov	esp, ebp
	pop	ebp
	ret	0
_xmlMemBlocks ENDP
_TEXT	ENDS
; Function compile flags: /Odtp /RTCsu
; File c:\users\dag\documents\_clients\codeproject authors group\windows on arm\libxml2\libxml2-2.9.9\xmlmemory.c
;	COMDAT _xmlMemUsed
_TEXT	SEGMENT
_res$ = -4						; size = 4
_xmlMemUsed PROC					; COMDAT

; 585  : xmlMemUsed(void) {

	push	ebp
	mov	ebp, esp
	push	ecx
	mov	DWORD PTR [ebp-4], -858993460		; ccccccccH
	mov	ecx, OFFSET __D8018AA9_xmlmemory@c
	call	@__CheckForDebuggerJustMyCode@4

; 586  :     int res;
; 587  : 
; 588  :     xmlMutexLock(xmlMemMutex);

	mov	eax, DWORD PTR _xmlMemMutex
	push	eax
	call	_xmlMutexLock
	add	esp, 4

; 589  :     res = debugMemSize;

	mov	ecx, DWORD PTR _debugMemSize
	mov	DWORD PTR _res$[ebp], ecx

; 590  :     xmlMutexUnlock(xmlMemMutex);

	mov	edx, DWORD PTR _xmlMemMutex
	push	edx
	call	_xmlMutexUnlock
	add	esp, 4

; 591  :     return(res);

	mov	eax, DWORD PTR _res$[ebp]

; 592  : }

	add	esp, 4
	cmp	ebp, esp
	call	__RTC_CheckEsp
	mov	esp, ebp
	pop	ebp
	ret	0
_xmlMemUsed ENDP
_TEXT	ENDS
; Function compile flags: /Odtp /RTCsu
; File c:\users\dag\documents\_clients\codeproject authors group\windows on arm\libxml2\libxml2-2.9.9\xmlmemory.c
;	COMDAT _xmlCleanupMemory
_TEXT	SEGMENT
_xmlCleanupMemory PROC					; COMDAT

; 1008 : xmlCleanupMemory(void) {

	push	ebp
	mov	ebp, esp
	mov	ecx, OFFSET __D8018AA9_xmlmemory@c
	call	@__CheckForDebuggerJustMyCode@4

; 1009 : #ifdef DEBUG_MEMORY
; 1010 :      xmlGenericError(xmlGenericErrorContext,
; 1011 : 	     "xmlCleanupMemory()\n");
; 1012 : #endif
; 1013 :     if (xmlMemInitialized == 0)

	cmp	DWORD PTR _xmlMemInitialized, 0
	jne	SHORT $LN2@xmlCleanup

; 1014 :         return;

	jmp	SHORT $LN1@xmlCleanup
$LN2@xmlCleanup:

; 1015 : 
; 1016 :     xmlFreeMutex(xmlMemMutex);

	mov	eax, DWORD PTR _xmlMemMutex
	push	eax
	call	_xmlFreeMutex
	add	esp, 4

; 1017 :     xmlMemMutex = NULL;

	mov	DWORD PTR _xmlMemMutex, 0

; 1018 :     xmlMemInitialized = 0;

	mov	DWORD PTR _xmlMemInitialized, 0
$LN1@xmlCleanup:

; 1019 : #ifdef DEBUG_MEMORY
; 1020 :      xmlGenericError(xmlGenericErrorContext,
; 1021 : 	     "xmlCleanupMemory() Ok\n");
; 1022 : #endif
; 1023 : }

	cmp	ebp, esp
	call	__RTC_CheckEsp
	pop	ebp
	ret	0
_xmlCleanupMemory ENDP
_TEXT	ENDS
; Function compile flags: /Odtp /RTCsu
; File c:\users\dag\documents\_clients\codeproject authors group\windows on arm\libxml2\libxml2-2.9.9\xmlmemory.c
;	COMDAT _xmlInitMemory
_TEXT	SEGMENT
_breakpoint$ = -4					; size = 4
_xmlInitMemory PROC					; COMDAT

; 965  : {

	push	ebp
	mov	ebp, esp
	push	ecx
	push	esi
	mov	DWORD PTR [ebp-4], -858993460		; ccccccccH
	mov	ecx, OFFSET __D8018AA9_xmlmemory@c
	call	@__CheckForDebuggerJustMyCode@4

; 966  : #ifdef HAVE_STDLIB_H
; 967  :      char *breakpoint;
; 968  : #endif
; 969  : #ifdef DEBUG_MEMORY
; 970  :      xmlGenericError(xmlGenericErrorContext,
; 971  : 	     "xmlInitMemory()\n");
; 972  : #endif
; 973  :     /*
; 974  :      This is really not good code (see Bug 130419).  Suggestions for
; 975  :      improvement will be welcome!
; 976  :     */
; 977  :      if (xmlMemInitialized) return(-1);

	cmp	DWORD PTR _xmlMemInitialized, 0
	je	SHORT $LN2@xmlInitMem
	or	eax, -1
	jmp	$LN1@xmlInitMem
$LN2@xmlInitMem:

; 978  :      xmlMemInitialized = 1;

	mov	DWORD PTR _xmlMemInitialized, 1

; 979  :      xmlMemMutex = xmlNewMutex();

	call	_xmlNewMutex
	mov	DWORD PTR _xmlMemMutex, eax

; 980  : 
; 981  : #ifdef HAVE_STDLIB_H
; 982  :      breakpoint = getenv("XML_MEM_BREAKPOINT");

	mov	esi, esp
	push	OFFSET ??_C@_0BD@GCGPPOKD@XML_MEM_BREAKPOINT@
	call	DWORD PTR __imp__getenv
	add	esp, 4
	cmp	esi, esp
	call	__RTC_CheckEsp
	mov	DWORD PTR _breakpoint$[ebp], eax

; 983  :      if (breakpoint != NULL) {

	cmp	DWORD PTR _breakpoint$[ebp], 0
	je	SHORT $LN3@xmlInitMem

; 984  :          sscanf(breakpoint, "%ud", &xmlMemStopAtBlock);

	push	OFFSET _xmlMemStopAtBlock
	push	OFFSET ??_C@_03BKPMHLPH@?$CFud@
	mov	eax, DWORD PTR _breakpoint$[ebp]
	push	eax
	call	_sscanf
	add	esp, 12					; 0000000cH
$LN3@xmlInitMem:

; 985  :      }
; 986  : #endif
; 987  : #ifdef HAVE_STDLIB_H
; 988  :      breakpoint = getenv("XML_MEM_TRACE");

	mov	esi, esp
	push	OFFSET ??_C@_0O@IPGKJECE@XML_MEM_TRACE@
	call	DWORD PTR __imp__getenv
	add	esp, 4
	cmp	esi, esp
	call	__RTC_CheckEsp
	mov	DWORD PTR _breakpoint$[ebp], eax

; 989  :      if (breakpoint != NULL) {

	cmp	DWORD PTR _breakpoint$[ebp], 0
	je	SHORT $LN4@xmlInitMem

; 990  :          sscanf(breakpoint, "%p", &xmlMemTraceBlockAt);

	push	OFFSET _xmlMemTraceBlockAt
	push	OFFSET ??_C@_02BBAHNLBA@?$CFp@
	mov	ecx, DWORD PTR _breakpoint$[ebp]
	push	ecx
	call	_sscanf
	add	esp, 12					; 0000000cH
$LN4@xmlInitMem:

; 991  :      }
; 992  : #endif
; 993  : 
; 994  : #ifdef DEBUG_MEMORY
; 995  :      xmlGenericError(xmlGenericErrorContext,
; 996  : 	     "xmlInitMemory() Ok\n");
; 997  : #endif
; 998  :      return(0);

	xor	eax, eax
$LN1@xmlInitMem:

; 999  : }

	pop	esi
	add	esp, 4
	cmp	ebp, esp
	call	__RTC_CheckEsp
	mov	esp, ebp
	pop	ebp
	ret	0
_xmlInitMemory ENDP
_TEXT	ENDS
; Function compile flags: /Odtp /RTCsu
; File c:\users\dag\documents\_clients\codeproject authors group\windows on arm\libxml2\libxml2-2.9.9\xmlmemory.c
;	COMDAT _xmlGcMemGet
_TEXT	SEGMENT
_freeFunc$ = 8						; size = 4
_mallocFunc$ = 12					; size = 4
_mallocAtomicFunc$ = 16					; size = 4
_reallocFunc$ = 20					; size = 4
_strdupFunc$ = 24					; size = 4
_xmlGcMemGet PROC					; COMDAT

; 1153 : 	    xmlStrdupFunc *strdupFunc) {

	push	ebp
	mov	ebp, esp
	mov	ecx, OFFSET __D8018AA9_xmlmemory@c
	call	@__CheckForDebuggerJustMyCode@4

; 1154 :     if (freeFunc != NULL) *freeFunc = xmlFree;

	cmp	DWORD PTR _freeFunc$[ebp], 0
	je	SHORT $LN2@xmlGcMemGe
	mov	eax, DWORD PTR _freeFunc$[ebp]
	mov	ecx, DWORD PTR _xmlFree
	mov	DWORD PTR [eax], ecx
$LN2@xmlGcMemGe:

; 1155 :     if (mallocFunc != NULL) *mallocFunc = xmlMalloc;

	cmp	DWORD PTR _mallocFunc$[ebp], 0
	je	SHORT $LN3@xmlGcMemGe
	mov	edx, DWORD PTR _mallocFunc$[ebp]
	mov	eax, DWORD PTR _xmlMalloc
	mov	DWORD PTR [edx], eax
$LN3@xmlGcMemGe:

; 1156 :     if (mallocAtomicFunc != NULL) *mallocAtomicFunc = xmlMallocAtomic;

	cmp	DWORD PTR _mallocAtomicFunc$[ebp], 0
	je	SHORT $LN4@xmlGcMemGe
	mov	ecx, DWORD PTR _mallocAtomicFunc$[ebp]
	mov	edx, DWORD PTR _xmlMallocAtomic
	mov	DWORD PTR [ecx], edx
$LN4@xmlGcMemGe:

; 1157 :     if (reallocFunc != NULL) *reallocFunc = xmlRealloc;

	cmp	DWORD PTR _reallocFunc$[ebp], 0
	je	SHORT $LN5@xmlGcMemGe
	mov	eax, DWORD PTR _reallocFunc$[ebp]
	mov	ecx, DWORD PTR _xmlRealloc
	mov	DWORD PTR [eax], ecx
$LN5@xmlGcMemGe:

; 1158 :     if (strdupFunc != NULL) *strdupFunc = xmlMemStrdup;

	cmp	DWORD PTR _strdupFunc$[ebp], 0
	je	SHORT $LN6@xmlGcMemGe
	mov	edx, DWORD PTR _strdupFunc$[ebp]
	mov	eax, DWORD PTR _xmlMemStrdup
	mov	DWORD PTR [edx], eax
$LN6@xmlGcMemGe:

; 1159 :     return(0);

	xor	eax, eax

; 1160 : }

	cmp	ebp, esp
	call	__RTC_CheckEsp
	pop	ebp
	ret	0
_xmlGcMemGet ENDP
_TEXT	ENDS
; Function compile flags: /Odtp /RTCsu
; File c:\users\dag\documents\_clients\codeproject authors group\windows on arm\libxml2\libxml2-2.9.9\xmlmemory.c
;	COMDAT _xmlGcMemSetup
_TEXT	SEGMENT
_freeFunc$ = 8						; size = 4
_mallocFunc$ = 12					; size = 4
_mallocAtomicFunc$ = 16					; size = 4
_reallocFunc$ = 20					; size = 4
_strdupFunc$ = 24					; size = 4
_xmlGcMemSetup PROC					; COMDAT

; 1109 : 	      xmlStrdupFunc strdupFunc) {

	push	ebp
	mov	ebp, esp
	mov	ecx, OFFSET __D8018AA9_xmlmemory@c
	call	@__CheckForDebuggerJustMyCode@4

; 1110 : #ifdef DEBUG_MEMORY
; 1111 :      xmlGenericError(xmlGenericErrorContext,
; 1112 : 	     "xmlGcMemSetup()\n");
; 1113 : #endif
; 1114 :     if (freeFunc == NULL)

	cmp	DWORD PTR _freeFunc$[ebp], 0
	jne	SHORT $LN2@xmlGcMemSe

; 1115 : 	return(-1);

	or	eax, -1
	jmp	SHORT $LN1@xmlGcMemSe
$LN2@xmlGcMemSe:

; 1116 :     if (mallocFunc == NULL)

	cmp	DWORD PTR _mallocFunc$[ebp], 0
	jne	SHORT $LN3@xmlGcMemSe

; 1117 : 	return(-1);

	or	eax, -1
	jmp	SHORT $LN1@xmlGcMemSe
$LN3@xmlGcMemSe:

; 1118 :     if (mallocAtomicFunc == NULL)

	cmp	DWORD PTR _mallocAtomicFunc$[ebp], 0
	jne	SHORT $LN4@xmlGcMemSe

; 1119 : 	return(-1);

	or	eax, -1
	jmp	SHORT $LN1@xmlGcMemSe
$LN4@xmlGcMemSe:

; 1120 :     if (reallocFunc == NULL)

	cmp	DWORD PTR _reallocFunc$[ebp], 0
	jne	SHORT $LN5@xmlGcMemSe

; 1121 : 	return(-1);

	or	eax, -1
	jmp	SHORT $LN1@xmlGcMemSe
$LN5@xmlGcMemSe:

; 1122 :     if (strdupFunc == NULL)

	cmp	DWORD PTR _strdupFunc$[ebp], 0
	jne	SHORT $LN6@xmlGcMemSe

; 1123 : 	return(-1);

	or	eax, -1
	jmp	SHORT $LN1@xmlGcMemSe
$LN6@xmlGcMemSe:

; 1124 :     xmlFree = freeFunc;

	mov	eax, DWORD PTR _freeFunc$[ebp]
	mov	DWORD PTR _xmlFree, eax

; 1125 :     xmlMalloc = mallocFunc;

	mov	ecx, DWORD PTR _mallocFunc$[ebp]
	mov	DWORD PTR _xmlMalloc, ecx

; 1126 :     xmlMallocAtomic = mallocAtomicFunc;

	mov	edx, DWORD PTR _mallocAtomicFunc$[ebp]
	mov	DWORD PTR _xmlMallocAtomic, edx

; 1127 :     xmlRealloc = reallocFunc;

	mov	eax, DWORD PTR _reallocFunc$[ebp]
	mov	DWORD PTR _xmlRealloc, eax

; 1128 :     xmlMemStrdup = strdupFunc;

	mov	ecx, DWORD PTR _strdupFunc$[ebp]
	mov	DWORD PTR _xmlMemStrdup, ecx

; 1129 : #ifdef DEBUG_MEMORY
; 1130 :      xmlGenericError(xmlGenericErrorContext,
; 1131 : 	     "xmlGcMemSetup() Ok\n");
; 1132 : #endif
; 1133 :     return(0);

	xor	eax, eax
$LN1@xmlGcMemSe:

; 1134 : }

	cmp	ebp, esp
	call	__RTC_CheckEsp
	pop	ebp
	ret	0
_xmlGcMemSetup ENDP
_TEXT	ENDS
; Function compile flags: /Odtp /RTCsu
; File c:\users\dag\documents\_clients\codeproject authors group\windows on arm\libxml2\libxml2-2.9.9\xmlmemory.c
;	COMDAT _xmlMemGet
_TEXT	SEGMENT
_freeFunc$ = 8						; size = 4
_mallocFunc$ = 12					; size = 4
_reallocFunc$ = 16					; size = 4
_strdupFunc$ = 20					; size = 4
_xmlMemGet PROC						; COMDAT

; 1080 : 	  xmlReallocFunc *reallocFunc, xmlStrdupFunc *strdupFunc) {

	push	ebp
	mov	ebp, esp
	mov	ecx, OFFSET __D8018AA9_xmlmemory@c
	call	@__CheckForDebuggerJustMyCode@4

; 1081 :     if (freeFunc != NULL) *freeFunc = xmlFree;

	cmp	DWORD PTR _freeFunc$[ebp], 0
	je	SHORT $LN2@xmlMemGet
	mov	eax, DWORD PTR _freeFunc$[ebp]
	mov	ecx, DWORD PTR _xmlFree
	mov	DWORD PTR [eax], ecx
$LN2@xmlMemGet:

; 1082 :     if (mallocFunc != NULL) *mallocFunc = xmlMalloc;

	cmp	DWORD PTR _mallocFunc$[ebp], 0
	je	SHORT $LN3@xmlMemGet
	mov	edx, DWORD PTR _mallocFunc$[ebp]
	mov	eax, DWORD PTR _xmlMalloc
	mov	DWORD PTR [edx], eax
$LN3@xmlMemGet:

; 1083 :     if (reallocFunc != NULL) *reallocFunc = xmlRealloc;

	cmp	DWORD PTR _reallocFunc$[ebp], 0
	je	SHORT $LN4@xmlMemGet
	mov	ecx, DWORD PTR _reallocFunc$[ebp]
	mov	edx, DWORD PTR _xmlRealloc
	mov	DWORD PTR [ecx], edx
$LN4@xmlMemGet:

; 1084 :     if (strdupFunc != NULL) *strdupFunc = xmlMemStrdup;

	cmp	DWORD PTR _strdupFunc$[ebp], 0
	je	SHORT $LN5@xmlMemGet
	mov	eax, DWORD PTR _strdupFunc$[ebp]
	mov	ecx, DWORD PTR _xmlMemStrdup
	mov	DWORD PTR [eax], ecx
$LN5@xmlMemGet:

; 1085 :     return(0);

	xor	eax, eax

; 1086 : }

	cmp	ebp, esp
	call	__RTC_CheckEsp
	pop	ebp
	ret	0
_xmlMemGet ENDP
_TEXT	ENDS
; Function compile flags: /Odtp /RTCsu
; File c:\users\dag\documents\_clients\codeproject authors group\windows on arm\libxml2\libxml2-2.9.9\xmlmemory.c
;	COMDAT _xmlMemSetup
_TEXT	SEGMENT
_freeFunc$ = 8						; size = 4
_mallocFunc$ = 12					; size = 4
_reallocFunc$ = 16					; size = 4
_strdupFunc$ = 20					; size = 4
_xmlMemSetup PROC					; COMDAT

; 1042 :             xmlReallocFunc reallocFunc, xmlStrdupFunc strdupFunc) {

	push	ebp
	mov	ebp, esp
	mov	ecx, OFFSET __D8018AA9_xmlmemory@c
	call	@__CheckForDebuggerJustMyCode@4

; 1043 : #ifdef DEBUG_MEMORY
; 1044 :      xmlGenericError(xmlGenericErrorContext,
; 1045 : 	     "xmlMemSetup()\n");
; 1046 : #endif
; 1047 :     if (freeFunc == NULL)

	cmp	DWORD PTR _freeFunc$[ebp], 0
	jne	SHORT $LN2@xmlMemSetu

; 1048 : 	return(-1);

	or	eax, -1
	jmp	SHORT $LN1@xmlMemSetu
$LN2@xmlMemSetu:

; 1049 :     if (mallocFunc == NULL)

	cmp	DWORD PTR _mallocFunc$[ebp], 0
	jne	SHORT $LN3@xmlMemSetu

; 1050 : 	return(-1);

	or	eax, -1
	jmp	SHORT $LN1@xmlMemSetu
$LN3@xmlMemSetu:

; 1051 :     if (reallocFunc == NULL)

	cmp	DWORD PTR _reallocFunc$[ebp], 0
	jne	SHORT $LN4@xmlMemSetu

; 1052 : 	return(-1);

	or	eax, -1
	jmp	SHORT $LN1@xmlMemSetu
$LN4@xmlMemSetu:

; 1053 :     if (strdupFunc == NULL)

	cmp	DWORD PTR _strdupFunc$[ebp], 0
	jne	SHORT $LN5@xmlMemSetu

; 1054 : 	return(-1);

	or	eax, -1
	jmp	SHORT $LN1@xmlMemSetu
$LN5@xmlMemSetu:

; 1055 :     xmlFree = freeFunc;

	mov	eax, DWORD PTR _freeFunc$[ebp]
	mov	DWORD PTR _xmlFree, eax

; 1056 :     xmlMalloc = mallocFunc;

	mov	ecx, DWORD PTR _mallocFunc$[ebp]
	mov	DWORD PTR _xmlMalloc, ecx

; 1057 :     xmlMallocAtomic = mallocFunc;

	mov	edx, DWORD PTR _mallocFunc$[ebp]
	mov	DWORD PTR _xmlMallocAtomic, edx

; 1058 :     xmlRealloc = reallocFunc;

	mov	eax, DWORD PTR _reallocFunc$[ebp]
	mov	DWORD PTR _xmlRealloc, eax

; 1059 :     xmlMemStrdup = strdupFunc;

	mov	ecx, DWORD PTR _strdupFunc$[ebp]
	mov	DWORD PTR _xmlMemStrdup, ecx

; 1060 : #ifdef DEBUG_MEMORY
; 1061 :      xmlGenericError(xmlGenericErrorContext,
; 1062 : 	     "xmlMemSetup() Ok\n");
; 1063 : #endif
; 1064 :     return(0);

	xor	eax, eax
$LN1@xmlMemSetu:

; 1065 : }

	cmp	ebp, esp
	call	__RTC_CheckEsp
	pop	ebp
	ret	0
_xmlMemSetup ENDP
_TEXT	ENDS
; Function compile flags: /Odtp /RTCsu
; File c:\program files (x86)\windows kits\10\include\10.0.17763.0\ucrt\stdio.h
;	COMDAT _sscanf
_TEXT	SEGMENT
__Format$ = -12						; size = 4
__ArgList$ = -8						; size = 4
__Result$ = -4						; size = 4
__Buffer$ = 8						; size = 4
__Format$ = 12						; size = 4
_sscanf	PROC						; COMDAT

; 2270 :     {

	push	ebp
	mov	ebp, esp
	sub	esp, 12					; 0000000cH
	push	esi
	mov	DWORD PTR [ebp-12], -858993460		; ccccccccH
	mov	DWORD PTR [ebp-8], -858993460		; ccccccccH
	mov	DWORD PTR [ebp-4], -858993460		; ccccccccH
	mov	ecx, OFFSET __A452D4A0_stdio@h
	call	@__CheckForDebuggerJustMyCode@4

; 2271 :         int _Result;
; 2272 :         va_list _ArgList;
; 2273 :         __crt_va_start(_ArgList, _Format);

	lea	eax, DWORD PTR __Format$[ebp+4]
	mov	DWORD PTR __ArgList$[ebp], eax

; 2274 :         _Result = _vsscanf_l(_Buffer, _Format, NULL, _ArgList);

	mov	ecx, DWORD PTR __Format$[ebp]
	mov	DWORD PTR __Format$[ebp], ecx

; 2176 :         return __stdio_common_vsscanf(

	mov	esi, esp
	mov	edx, DWORD PTR __ArgList$[ebp]
	push	edx
	push	0
	mov	eax, DWORD PTR __Format$[ebp]
	push	eax
	push	-1
	mov	ecx, DWORD PTR __Buffer$[ebp]
	push	ecx
	call	___local_stdio_scanf_options
	mov	edx, DWORD PTR [eax+4]
	push	edx
	mov	eax, DWORD PTR [eax]
	push	eax
	call	DWORD PTR __imp____stdio_common_vsscanf
	add	esp, 28					; 0000001cH
	cmp	esi, esp
	call	__RTC_CheckEsp

; 2274 :         _Result = _vsscanf_l(_Buffer, _Format, NULL, _ArgList);

	mov	DWORD PTR __Result$[ebp], eax

; 2275 :         __crt_va_end(_ArgList);

	mov	DWORD PTR __ArgList$[ebp], 0

; 2276 :         return _Result;

	mov	eax, DWORD PTR __Result$[ebp]

; 2277 :     }

	pop	esi
	add	esp, 12					; 0000000cH
	cmp	ebp, esp
	call	__RTC_CheckEsp
	mov	esp, ebp
	pop	ebp
	ret	0
_sscanf	ENDP
_TEXT	ENDS
; Function compile flags: /Odtp /RTCsu
; File c:\program files (x86)\windows kits\10\include\10.0.17763.0\ucrt\stdio.h
;	COMDAT _fprintf
_TEXT	SEGMENT
__Format$ = -12						; size = 4
__ArgList$ = -8						; size = 4
__Result$ = -4						; size = 4
__Stream$ = 8						; size = 4
__Format$ = 12						; size = 4
_fprintf PROC						; COMDAT

; 835  :     {

	push	ebp
	mov	ebp, esp
	sub	esp, 12					; 0000000cH
	push	esi
	mov	DWORD PTR [ebp-12], -858993460		; ccccccccH
	mov	DWORD PTR [ebp-8], -858993460		; ccccccccH
	mov	DWORD PTR [ebp-4], -858993460		; ccccccccH
	mov	ecx, OFFSET __A452D4A0_stdio@h
	call	@__CheckForDebuggerJustMyCode@4

; 836  :         int _Result;
; 837  :         va_list _ArgList;
; 838  :         __crt_va_start(_ArgList, _Format);

	lea	eax, DWORD PTR __Format$[ebp+4]
	mov	DWORD PTR __ArgList$[ebp], eax

; 839  :         _Result = _vfprintf_l(_Stream, _Format, NULL, _ArgList);

	mov	ecx, DWORD PTR __Format$[ebp]
	mov	DWORD PTR __Format$[ebp], ecx

; 643  :         return __stdio_common_vfprintf(_CRT_INTERNAL_LOCAL_PRINTF_OPTIONS, _Stream, _Format, _Locale, _ArgList);

	mov	esi, esp
	mov	edx, DWORD PTR __ArgList$[ebp]
	push	edx
	push	0
	mov	eax, DWORD PTR __Format$[ebp]
	push	eax
	mov	ecx, DWORD PTR __Stream$[ebp]
	push	ecx
	call	___local_stdio_printf_options
	mov	edx, DWORD PTR [eax+4]
	push	edx
	mov	eax, DWORD PTR [eax]
	push	eax
	call	DWORD PTR __imp____stdio_common_vfprintf
	add	esp, 24					; 00000018H
	cmp	esi, esp
	call	__RTC_CheckEsp

; 839  :         _Result = _vfprintf_l(_Stream, _Format, NULL, _ArgList);

	mov	DWORD PTR __Result$[ebp], eax

; 840  :         __crt_va_end(_ArgList);

	mov	DWORD PTR __ArgList$[ebp], 0

; 841  :         return _Result;

	mov	eax, DWORD PTR __Result$[ebp]

; 842  :     }

	pop	esi
	add	esp, 12					; 0000000cH
	cmp	ebp, esp
	call	__RTC_CheckEsp
	mov	esp, ebp
	pop	ebp
	ret	0
_fprintf ENDP
_TEXT	ENDS
; Function compile flags: /Odtp /RTCsu
; File c:\program files (x86)\windows kits\10\include\10.0.17763.0\ucrt\corecrt_stdio_config.h
;	COMDAT ___local_stdio_scanf_options
_TEXT	SEGMENT
___local_stdio_scanf_options PROC			; COMDAT

; 96   :     {

	push	ebp
	mov	ebp, esp
	mov	ecx, OFFSET __2CC6E67D_corecrt_stdio_config@h
	call	@__CheckForDebuggerJustMyCode@4

; 97   :         static unsigned __int64 _OptionsStorage;
; 98   :         return &_OptionsStorage;

	mov	eax, OFFSET ?_OptionsStorage@?1??__local_stdio_scanf_options@@9@9 ; `__local_stdio_scanf_options'::`2'::_OptionsStorage

; 99   :     }

	cmp	ebp, esp
	call	__RTC_CheckEsp
	pop	ebp
	ret	0
___local_stdio_scanf_options ENDP
_TEXT	ENDS
; Function compile flags: /Odtp /RTCsu
; File c:\program files (x86)\windows kits\10\include\10.0.17763.0\ucrt\corecrt_stdio_config.h
;	COMDAT ___local_stdio_printf_options
_TEXT	SEGMENT
___local_stdio_printf_options PROC			; COMDAT

; 86   :     {

	push	ebp
	mov	ebp, esp
	mov	ecx, OFFSET __2CC6E67D_corecrt_stdio_config@h
	call	@__CheckForDebuggerJustMyCode@4

; 87   :         static unsigned __int64 _OptionsStorage;
; 88   :         return &_OptionsStorage;

	mov	eax, OFFSET ?_OptionsStorage@?1??__local_stdio_printf_options@@9@9 ; `__local_stdio_printf_options'::`2'::_OptionsStorage

; 89   :     }

	cmp	ebp, esp
	call	__RTC_CheckEsp
	pop	ebp
	ret	0
___local_stdio_printf_options ENDP
_TEXT	ENDS
END
