; Listing generated by Microsoft (R) Optimizing Compiler Version 19.16.27027.1 

	TITLE	C:\Users\DAG\Documents\_Clients\CodeProject Authors Group\Windows on ARM\libxml2\libxml2-2.9.9\xmlreader.c
	.686P
	.XMM
	include listing.inc
	.model	flat

INCLUDELIB MSVCRTD
INCLUDELIB OLDNAMES

_DATA	SEGMENT
COMM	_xmlMalloc:DWORD
COMM	_xmlMallocAtomic:DWORD
COMM	_xmlRealloc:DWORD
COMM	_xmlFree:DWORD
COMM	_xmlMemStrdup:DWORD
COMM	_xmlIsBaseCharGroup:BYTE:010H
COMM	_xmlIsCharGroup:BYTE:010H
COMM	_xmlIsCombiningGroup:BYTE:010H
COMM	_xmlIsDigitGroup:BYTE:010H
COMM	_xmlIsExtenderGroup:BYTE:010H
COMM	_xmlIsIdeographicGroup:BYTE:010H
COMM	_xmlIsPubidChar_tab:BYTE:0100H
COMM	_xmlParserMaxDepth:DWORD
COMM	_forbiddenExp:DWORD
COMM	_emptyExp:DWORD
_DATA	ENDS
msvcjmc	SEGMENT
__188180DA_corecrt_math@h DB 01H
__2CC6E67D_corecrt_stdio_config@h DB 01H
__05476D76_corecrt_wstdio@h DB 01H
__A452D4A0_stdio@h DB 01H
__4384A2D9_corecrt_memcpy_s@h DB 01H
__4E51A221_corecrt_wstring@h DB 01H
__2140C079_string@h DB 01H
__7B7A869E_ctype@h DB 01H
__BC13D883_xmlreader@c DB 01H
msvcjmc	ENDS
PUBLIC	___local_stdio_printf_options
PUBLIC	_printf
PUBLIC	_xmlNewTextReader
PUBLIC	_xmlNewTextReaderFilename
PUBLIC	_xmlFreeTextReader
PUBLIC	_xmlTextReaderSetup
PUBLIC	_xmlTextReaderRead
PUBLIC	_xmlTextReaderReadInnerXml
PUBLIC	_xmlTextReaderReadOuterXml
PUBLIC	_xmlTextReaderReadString
PUBLIC	_xmlTextReaderReadAttributeValue
PUBLIC	_xmlTextReaderAttributeCount
PUBLIC	_xmlTextReaderDepth
PUBLIC	_xmlTextReaderHasAttributes
PUBLIC	_xmlTextReaderHasValue
PUBLIC	_xmlTextReaderIsDefault
PUBLIC	_xmlTextReaderIsEmptyElement
PUBLIC	_xmlTextReaderNodeType
PUBLIC	_xmlTextReaderQuoteChar
PUBLIC	_xmlTextReaderReadState
PUBLIC	_xmlTextReaderIsNamespaceDecl
PUBLIC	_xmlTextReaderConstBaseUri
PUBLIC	_xmlTextReaderConstLocalName
PUBLIC	_xmlTextReaderConstName
PUBLIC	_xmlTextReaderConstNamespaceUri
PUBLIC	_xmlTextReaderConstPrefix
PUBLIC	_xmlTextReaderConstXmlLang
PUBLIC	_xmlTextReaderConstString
PUBLIC	_xmlTextReaderConstValue
PUBLIC	_xmlTextReaderBaseUri
PUBLIC	_xmlTextReaderLocalName
PUBLIC	_xmlTextReaderName
PUBLIC	_xmlTextReaderNamespaceUri
PUBLIC	_xmlTextReaderPrefix
PUBLIC	_xmlTextReaderXmlLang
PUBLIC	_xmlTextReaderValue
PUBLIC	_xmlTextReaderClose
PUBLIC	_xmlTextReaderGetAttributeNo
PUBLIC	_xmlTextReaderGetAttribute
PUBLIC	_xmlTextReaderGetAttributeNs
PUBLIC	_xmlTextReaderGetRemainder
PUBLIC	_xmlTextReaderLookupNamespace
PUBLIC	_xmlTextReaderMoveToAttributeNo
PUBLIC	_xmlTextReaderMoveToAttribute
PUBLIC	_xmlTextReaderMoveToAttributeNs
PUBLIC	_xmlTextReaderMoveToFirstAttribute
PUBLIC	_xmlTextReaderMoveToNextAttribute
PUBLIC	_xmlTextReaderMoveToElement
PUBLIC	_xmlTextReaderNormalization
PUBLIC	_xmlTextReaderConstEncoding
PUBLIC	_xmlTextReaderSetParserProp
PUBLIC	_xmlTextReaderGetParserProp
PUBLIC	_xmlTextReaderCurrentNode
PUBLIC	_xmlTextReaderGetParserLineNumber
PUBLIC	_xmlTextReaderGetParserColumnNumber
PUBLIC	_xmlTextReaderPreserve
PUBLIC	_xmlTextReaderPreservePattern
PUBLIC	_xmlTextReaderCurrentDoc
PUBLIC	_xmlTextReaderExpand
PUBLIC	_xmlTextReaderNext
PUBLIC	_xmlTextReaderNextSibling
PUBLIC	_xmlTextReaderIsValid
PUBLIC	_xmlTextReaderRelaxNGValidate
PUBLIC	_xmlTextReaderRelaxNGValidateCtxt
PUBLIC	_xmlTextReaderRelaxNGSetSchema
PUBLIC	_xmlTextReaderSchemaValidate
PUBLIC	_xmlTextReaderSchemaValidateCtxt
PUBLIC	_xmlTextReaderSetSchema
PUBLIC	_xmlTextReaderConstXmlVersion
PUBLIC	_xmlTextReaderStandalone
PUBLIC	_xmlTextReaderByteConsumed
PUBLIC	_xmlReaderWalker
PUBLIC	_xmlReaderForDoc
PUBLIC	_xmlReaderForFile
PUBLIC	_xmlReaderForMemory
PUBLIC	_xmlReaderForFd
PUBLIC	_xmlReaderForIO
PUBLIC	_xmlReaderNewWalker
PUBLIC	_xmlReaderNewDoc
PUBLIC	_xmlReaderNewFile
PUBLIC	_xmlReaderNewMemory
PUBLIC	_xmlReaderNewFd
PUBLIC	_xmlReaderNewIO
PUBLIC	_xmlTextReaderLocatorLineNumber
PUBLIC	_xmlTextReaderLocatorBaseURI
PUBLIC	_xmlTextReaderSetErrorHandler
PUBLIC	_xmlTextReaderSetStructuredErrorHandler
PUBLIC	_xmlTextReaderGetErrorHandler
PUBLIC	__JustMyCode_Default
PUBLIC	??_C@_0BE@MPMNBMMA@xmlMalloc?5failed?5?$CB?6@	; `string'
PUBLIC	??_C@_0BF@DCPGEBNC@xmlRealloc?5failed?5?$CB?6@	; `string'
PUBLIC	??_C@_01JLIPDDHJ@?3@				; `string'
PUBLIC	??_C@_0BB@DOFEEJAH@Expand?5failed?5?$CB?6@	; `string'
PUBLIC	??_C@_00CNPNBAHC@@				; `string'
PUBLIC	??_C@_0CA@MIIEHMNN@http?3?1?1www?4w3?4org?12003?1XInclude@ ; `string'
PUBLIC	??_C@_0CA@JAOIMFBM@http?3?1?1www?4w3?4org?12001?1XInclude@ ; `string'
PUBLIC	??_C@_0GL@PIJMIJNC@c?3?2users?2dag?2documents?2_clients@ ; `string'
PUBLIC	??_C@_0BO@MDEMDPPE@Unimplemented?5block?5at?5?$CFs?3?$CFd?6@ ; `string'
PUBLIC	??_C@_0CC@HCDAIILG@xmlNewTextReader?5?3?5malloc?5faile@ ; `string'
PUBLIC	??_C@_05PPEFOGKI@xmlns@				; `string'
PUBLIC	??_C@_0BO@GBJIDPIB@http?3?1?1www?4w3?4org?12000?1xmlns?1@ ; `string'
PUBLIC	??_C@_05NOBOONOA@?$CDtext@			; `string'
PUBLIC	??_C@_0P@LIENAFBO@?$CDcdata?9section@		; `string'
PUBLIC	??_C@_08FBDKDMPC@?$CDcomment@			; `string'
PUBLIC	??_C@_09DFKKGJPK@?$CDdocument@			; `string'
PUBLIC	??_C@_0BD@FMMPJIKP@?$CDdocument?9fragment@	; `string'
PUBLIC	??_C@_0CE@MNBJMFAB@xmlTextReaderSetup?5?3?5malloc?5fai@ ; `string'
PUBLIC	??_C@_02DKCKIIND@?$CFs@				; `string'
PUBLIC	??_C@_0BE@KJPJIHAO@vsnprintf?5failed?5?$CB?6@	; `string'
PUBLIC	??_C@_07FHOHOHLG@include@			; `string'
EXTRN	_xmlStrdup:PROC
EXTRN	_xmlStrEqual:PROC
EXTRN	_xmlStrlen:PROC
EXTRN	_xmlStrcat:PROC
EXTRN	__imp____acrt_iob_func:PROC
EXTRN	__imp____stdio_common_vfprintf:PROC
EXTRN	__imp____stdio_common_vsprintf:PROC
EXTRN	_xmlBufContent:PROC
EXTRN	_xmlBufUse:PROC
EXTRN	_xmlBufShrink:PROC
EXTRN	_xmlDictCreate:PROC
EXTRN	_xmlDictFree:PROC
EXTRN	_xmlDictLookup:PROC
EXTRN	_xmlDictQLookup:PROC
EXTRN	_xmlDictOwns:PROC
EXTRN	_xmlSplitQName2:PROC
EXTRN	_xmlBufferCreate:PROC
EXTRN	_xmlBufferFree:PROC
EXTRN	_xmlBufferCat:PROC
EXTRN	_xmlFreeDtd:PROC
EXTRN	_xmlFreeNs:PROC
EXTRN	_xmlFreeNsList:PROC
EXTRN	_xmlFreeDoc:PROC
EXTRN	_xmlCopyDtd:PROC
EXTRN	_xmlNewDocText:PROC
EXTRN	_xmlDocCopyNode:PROC
EXTRN	_xmlGetLineNo:PROC
EXTRN	_xmlIsBlankNode:PROC
EXTRN	_xmlUnlinkNode:PROC
EXTRN	_xmlFreeNode:PROC
EXTRN	_xmlSearchNs:PROC
EXTRN	_xmlGetNoNsProp:PROC
EXTRN	_xmlGetNsProp:PROC
EXTRN	_xmlNodeListGetString:PROC
EXTRN	_xmlBufGetNodeContent:PROC
EXTRN	_xmlNodeGetLang:PROC
EXTRN	_xmlNodeGetSpacePreserve:PROC
EXTRN	_xmlNodeGetBase:PROC
EXTRN	_xmlNodeDump:PROC
EXTRN	_xmlHashFree:PROC
EXTRN	_xmlHashLookup:PROC
EXTRN	_xmlParserError:PROC
EXTRN	_xmlParserWarning:PROC
EXTRN	_xmlParserValidityError:PROC
EXTRN	_xmlParserValidityWarning:PROC
EXTRN	_xmlIsID:PROC
EXTRN	_xmlFreeRefTable:PROC
EXTRN	_xmlValidatePushElement:PROC
EXTRN	_xmlValidatePushCData:PROC
EXTRN	_xmlValidatePopElement:PROC
EXTRN	_xmlFindCharEncodingHandler:PROC
EXTRN	_xmlAllocParserInputBuffer:PROC
EXTRN	_xmlParserInputBufferCreateFilename:PROC
EXTRN	_xmlParserInputBufferCreateFd:PROC
EXTRN	_xmlParserInputBufferCreateStatic:PROC
EXTRN	_xmlParserInputBufferCreateIO:PROC
EXTRN	_xmlParserInputBufferRead:PROC
EXTRN	_xmlFreeParserInputBuffer:PROC
EXTRN	_xmlParserGetDirectory:PROC
EXTRN	_xmlStopParser:PROC
EXTRN	_xmlFreeParserCtxt:PROC
EXTRN	_xmlCreatePushParserCtxt:PROC
EXTRN	_xmlParseChunk:PROC
EXTRN	_xmlByteConsumed:PROC
EXTRN	_xmlCtxtReset:PROC
EXTRN	_xmlCtxtUseOptions:PROC
EXTRN	_xmlSAXVersion:PROC
EXTRN	___xmlGenericError:PROC
EXTRN	___xmlGenericErrorContext:PROC
EXTRN	___xmlDeregisterNodeDefaultValue:PROC
EXTRN	_xmlRelaxNGNewParserCtxt:PROC
EXTRN	_xmlRelaxNGFreeParserCtxt:PROC
EXTRN	_xmlRelaxNGSetParserErrors:PROC
EXTRN	_xmlRelaxNGParse:PROC
EXTRN	_xmlRelaxNGFree:PROC
EXTRN	_xmlRelaxNGSetValidErrors:PROC
EXTRN	_xmlRelaxNGSetValidStructuredErrors:PROC
EXTRN	_xmlRelaxNGNewValidCtxt:PROC
EXTRN	_xmlRelaxNGFreeValidCtxt:PROC
EXTRN	_xmlRelaxNGValidatePushElement:PROC
EXTRN	_xmlRelaxNGValidatePushCData:PROC
EXTRN	_xmlRelaxNGValidatePopElement:PROC
EXTRN	_xmlRelaxNGValidateFullElement:PROC
EXTRN	_xmlSchemaNewParserCtxt:PROC
EXTRN	_xmlSchemaFreeParserCtxt:PROC
EXTRN	_xmlSchemaSetParserErrors:PROC
EXTRN	_xmlSchemaIsValid:PROC
EXTRN	_xmlSchemaParse:PROC
EXTRN	_xmlSchemaFree:PROC
EXTRN	_xmlSchemaSetValidErrors:PROC
EXTRN	_xmlSchemaSetValidStructuredErrors:PROC
EXTRN	_xmlSchemaNewValidCtxt:PROC
EXTRN	_xmlSchemaFreeValidCtxt:PROC
EXTRN	_xmlSchemaSAXPlug:PROC
EXTRN	_xmlSchemaSAXUnplug:PROC
EXTRN	_xmlSchemaValidateSetLocator:PROC
EXTRN	_xmlSwitchToEncoding:PROC
EXTRN	_xmlNewInputStream:PROC
EXTRN	_inputPush:PROC
EXTRN	_xmlCanonicPath:PROC
EXTRN	_xmlXIncludeNewContext:PROC
EXTRN	_xmlXIncludeSetFlags:PROC
EXTRN	_xmlXIncludeFreeContext:PROC
EXTRN	_xmlXIncludeProcessNode:PROC
EXTRN	_xmlFreePattern:PROC
EXTRN	_xmlPatterncompile:PROC
EXTRN	_xmlPatternMatch:PROC
EXTRN	_xmlBufCreateSize:PROC
EXTRN	_xmlBufSetAllocationScheme:PROC
EXTRN	_xmlBufGetAllocationScheme:PROC
EXTRN	_xmlBufFree:PROC
EXTRN	_xmlBufEmpty:PROC
EXTRN	_xmlBufResetInput:PROC
EXTRN	@_RTC_CheckStackVars@8:PROC
EXTRN	@__CheckForDebuggerJustMyCode@4:PROC
EXTRN	__RTC_CheckEsp:PROC
EXTRN	__RTC_InitBase:PROC
EXTRN	__RTC_Shutdown:PROC
EXTRN	_memset:PROC
EXTRN	___xmlRegisterCallbacks:DWORD
_DATA	SEGMENT
COMM	?_OptionsStorage@?1??__local_stdio_printf_options@@9@9:QWORD							; `__local_stdio_printf_options'::`2'::_OptionsStorage
_DATA	ENDS
;	COMDAT rtc$TMZ
rtc$TMZ	SEGMENT
__RTC_Shutdown.rtc$TMZ DD FLAT:__RTC_Shutdown
rtc$TMZ	ENDS
;	COMDAT rtc$IMZ
rtc$IMZ	SEGMENT
__RTC_InitBase.rtc$IMZ DD FLAT:__RTC_InitBase
rtc$IMZ	ENDS
;	COMDAT ??_C@_07FHOHOHLG@include@
CONST	SEGMENT
??_C@_07FHOHOHLG@include@ DB 'include', 00H		; `string'
CONST	ENDS
;	COMDAT ??_C@_0BE@KJPJIHAO@vsnprintf?5failed?5?$CB?6@
CONST	SEGMENT
??_C@_0BE@KJPJIHAO@vsnprintf?5failed?5?$CB?6@ DB 'vsnprintf failed !', 0aH
	DB	00H						; `string'
CONST	ENDS
;	COMDAT ??_C@_02DKCKIIND@?$CFs@
CONST	SEGMENT
??_C@_02DKCKIIND@?$CFs@ DB '%s', 00H			; `string'
CONST	ENDS
;	COMDAT ??_C@_0CE@MNBJMFAB@xmlTextReaderSetup?5?3?5malloc?5fai@
CONST	SEGMENT
??_C@_0CE@MNBJMFAB@xmlTextReaderSetup?5?3?5malloc?5fai@ DB 'xmlTextReader'
	DB	'Setup : malloc failed', 0aH, 00H		; `string'
CONST	ENDS
;	COMDAT ??_C@_0BD@FMMPJIKP@?$CDdocument?9fragment@
CONST	SEGMENT
??_C@_0BD@FMMPJIKP@?$CDdocument?9fragment@ DB '#document-fragment', 00H ; `string'
CONST	ENDS
;	COMDAT ??_C@_09DFKKGJPK@?$CDdocument@
CONST	SEGMENT
??_C@_09DFKKGJPK@?$CDdocument@ DB '#document', 00H	; `string'
CONST	ENDS
;	COMDAT ??_C@_08FBDKDMPC@?$CDcomment@
CONST	SEGMENT
??_C@_08FBDKDMPC@?$CDcomment@ DB '#comment', 00H	; `string'
CONST	ENDS
;	COMDAT ??_C@_0P@LIENAFBO@?$CDcdata?9section@
CONST	SEGMENT
??_C@_0P@LIENAFBO@?$CDcdata?9section@ DB '#cdata-section', 00H ; `string'
CONST	ENDS
;	COMDAT ??_C@_05NOBOONOA@?$CDtext@
CONST	SEGMENT
??_C@_05NOBOONOA@?$CDtext@ DB '#text', 00H		; `string'
CONST	ENDS
;	COMDAT ??_C@_0BO@GBJIDPIB@http?3?1?1www?4w3?4org?12000?1xmlns?1@
CONST	SEGMENT
??_C@_0BO@GBJIDPIB@http?3?1?1www?4w3?4org?12000?1xmlns?1@ DB 'http://www.'
	DB	'w3.org/2000/xmlns/', 00H			; `string'
CONST	ENDS
;	COMDAT ??_C@_05PPEFOGKI@xmlns@
CONST	SEGMENT
??_C@_05PPEFOGKI@xmlns@ DB 'xmlns', 00H			; `string'
CONST	ENDS
;	COMDAT ??_C@_0CC@HCDAIILG@xmlNewTextReader?5?3?5malloc?5faile@
CONST	SEGMENT
??_C@_0CC@HCDAIILG@xmlNewTextReader?5?3?5malloc?5faile@ DB 'xmlNewTextRea'
	DB	'der : malloc failed', 0aH, 00H		; `string'
CONST	ENDS
;	COMDAT ??_C@_0BO@MDEMDPPE@Unimplemented?5block?5at?5?$CFs?3?$CFd?6@
CONST	SEGMENT
??_C@_0BO@MDEMDPPE@Unimplemented?5block?5at?5?$CFs?3?$CFd?6@ DB 'Unimplem'
	DB	'ented block at %s:%d', 0aH, 00H		; `string'
CONST	ENDS
;	COMDAT ??_C@_0GL@PIJMIJNC@c?3?2users?2dag?2documents?2_clients@
CONST	SEGMENT
??_C@_0GL@PIJMIJNC@c?3?2users?2dag?2documents?2_clients@ DB 'c:\users\dag'
	DB	'\documents\_clients\codeproject authors group\windows on arm\'
	DB	'libxml2\libxml2-2.9.9\xmlreader.c', 00H	; `string'
CONST	ENDS
;	COMDAT ??_C@_0CA@JAOIMFBM@http?3?1?1www?4w3?4org?12001?1XInclude@
CONST	SEGMENT
??_C@_0CA@JAOIMFBM@http?3?1?1www?4w3?4org?12001?1XInclude@ DB 'http://www'
	DB	'.w3.org/2001/XInclude', 00H			; `string'
CONST	ENDS
;	COMDAT ??_C@_0CA@MIIEHMNN@http?3?1?1www?4w3?4org?12003?1XInclude@
CONST	SEGMENT
??_C@_0CA@MIIEHMNN@http?3?1?1www?4w3?4org?12003?1XInclude@ DB 'http://www'
	DB	'.w3.org/2003/XInclude', 00H			; `string'
CONST	ENDS
;	COMDAT ??_C@_00CNPNBAHC@@
CONST	SEGMENT
??_C@_00CNPNBAHC@@ DB 00H				; `string'
CONST	ENDS
;	COMDAT ??_C@_0BB@DOFEEJAH@Expand?5failed?5?$CB?6@
CONST	SEGMENT
??_C@_0BB@DOFEEJAH@Expand?5failed?5?$CB?6@ DB 'Expand failed !', 0aH, 00H ; `string'
CONST	ENDS
;	COMDAT ??_C@_01JLIPDDHJ@?3@
CONST	SEGMENT
??_C@_01JLIPDDHJ@?3@ DB ':', 00H			; `string'
CONST	ENDS
;	COMDAT ??_C@_0BF@DCPGEBNC@xmlRealloc?5failed?5?$CB?6@
CONST	SEGMENT
??_C@_0BF@DCPGEBNC@xmlRealloc?5failed?5?$CB?6@ DB 'xmlRealloc failed !', 0aH
	DB	00H						; `string'
CONST	ENDS
;	COMDAT ??_C@_0BE@MPMNBMMA@xmlMalloc?5failed?5?$CB?6@
CONST	SEGMENT
??_C@_0BE@MPMNBMMA@xmlMalloc?5failed?5?$CB?6@ DB 'xmlMalloc failed !', 0aH
	DB	00H						; `string'
CONST	ENDS
; Function compile flags: /Odt
;	COMDAT __JustMyCode_Default
_TEXT	SEGMENT
__JustMyCode_Default PROC				; COMDAT
	push	ebp
	mov	ebp, esp
	pop	ebp
	ret	0
__JustMyCode_Default ENDP
_TEXT	ENDS
; Function compile flags: /Odtp /RTCsu
; File c:\users\dag\documents\_clients\codeproject authors group\windows on arm\libxml2\libxml2-2.9.9\xmlreader.c
;	COMDAT _xmlTextReaderWarning
_TEXT	SEGMENT
_ap$ = -4						; size = 4
_ctxt$ = 8						; size = 4
_msg$ = 12						; size = 4
_xmlTextReaderWarning PROC				; COMDAT

; 4878 : {

	push	ebp
	mov	ebp, esp
	push	ecx
	mov	DWORD PTR [ebp-4], -858993460		; ccccccccH
	mov	ecx, OFFSET __BC13D883_xmlreader@c
	call	@__CheckForDebuggerJustMyCode@4

; 4879 :     va_list ap;
; 4880 : 
; 4881 :     va_start(ap, msg);

	lea	eax, DWORD PTR _msg$[ebp+4]
	mov	DWORD PTR _ap$[ebp], eax

; 4882 :     xmlTextReaderGenericError(ctxt,

	mov	ecx, DWORD PTR _ap$[ebp]
	push	ecx
	mov	edx, DWORD PTR _msg$[ebp]
	push	edx
	call	_xmlTextReaderBuildMessage
	add	esp, 8
	push	eax
	push	3
	mov	eax, DWORD PTR _ctxt$[ebp]
	push	eax
	call	_xmlTextReaderGenericError
	add	esp, 12					; 0000000cH

; 4883 :                               XML_PARSER_SEVERITY_WARNING,
; 4884 :                               xmlTextReaderBuildMessage(msg, ap));
; 4885 :     va_end(ap);

	mov	DWORD PTR _ap$[ebp], 0

; 4886 : }

	add	esp, 4
	cmp	ebp, esp
	call	__RTC_CheckEsp
	mov	esp, ebp
	pop	ebp
	ret	0
_xmlTextReaderWarning ENDP
_TEXT	ENDS
; Function compile flags: /Odtp /RTCsu
; File c:\users\dag\documents\_clients\codeproject authors group\windows on arm\libxml2\libxml2-2.9.9\xmlreader.c
;	COMDAT _xmlTextReaderError
_TEXT	SEGMENT
_ap$ = -4						; size = 4
_ctxt$ = 8						; size = 4
_msg$ = 12						; size = 4
_xmlTextReaderError PROC				; COMDAT

; 4865 : {

	push	ebp
	mov	ebp, esp
	push	ecx
	mov	DWORD PTR [ebp-4], -858993460		; ccccccccH
	mov	ecx, OFFSET __BC13D883_xmlreader@c
	call	@__CheckForDebuggerJustMyCode@4

; 4866 :     va_list ap;
; 4867 : 
; 4868 :     va_start(ap, msg);

	lea	eax, DWORD PTR _msg$[ebp+4]
	mov	DWORD PTR _ap$[ebp], eax

; 4869 :     xmlTextReaderGenericError(ctxt,

	mov	ecx, DWORD PTR _ap$[ebp]
	push	ecx
	mov	edx, DWORD PTR _msg$[ebp]
	push	edx
	call	_xmlTextReaderBuildMessage
	add	esp, 8
	push	eax
	push	4
	mov	eax, DWORD PTR _ctxt$[ebp]
	push	eax
	call	_xmlTextReaderGenericError
	add	esp, 12					; 0000000cH

; 4870 :                               XML_PARSER_SEVERITY_ERROR,
; 4871 :                               xmlTextReaderBuildMessage(msg, ap));
; 4872 :     va_end(ap);

	mov	DWORD PTR _ap$[ebp], 0

; 4873 : 
; 4874 : }

	add	esp, 4
	cmp	ebp, esp
	call	__RTC_CheckEsp
	mov	esp, ebp
	pop	ebp
	ret	0
_xmlTextReaderError ENDP
_TEXT	ENDS
; Function compile flags: /Odtp /RTCsu
; File c:\users\dag\documents\_clients\codeproject authors group\windows on arm\libxml2\libxml2-2.9.9\xmlreader.c
;	COMDAT _xmlTextReaderGenericError
_TEXT	SEGMENT
_reader$ = -8						; size = 4
_ctx$ = -4						; size = 4
_ctxt$ = 8						; size = 4
_severity$ = 12						; size = 4
_str$ = 16						; size = 4
_xmlTextReaderGenericError PROC				; COMDAT

; 4838 : {

	push	ebp
	mov	ebp, esp
	sub	esp, 8
	push	esi
	mov	DWORD PTR [ebp-8], -858993460		; ccccccccH
	mov	DWORD PTR [ebp-4], -858993460		; ccccccccH
	mov	ecx, OFFSET __BC13D883_xmlreader@c
	call	@__CheckForDebuggerJustMyCode@4

; 4839 :     xmlParserCtxtPtr ctx = (xmlParserCtxtPtr) ctxt;

	mov	eax, DWORD PTR _ctxt$[ebp]
	mov	DWORD PTR _ctx$[ebp], eax

; 4840 : 
; 4841 :     xmlTextReaderPtr reader = (xmlTextReaderPtr) ctx->_private;

	mov	ecx, DWORD PTR _ctx$[ebp]
	mov	edx, DWORD PTR [ecx+272]
	mov	DWORD PTR _reader$[ebp], edx

; 4842 : 
; 4843 :     if (str != NULL) {

	cmp	DWORD PTR _str$[ebp], 0
	je	SHORT $LN1@xmlTextRea

; 4844 :         if (reader->errorFunc)

	mov	eax, DWORD PTR _reader$[ebp]
	cmp	DWORD PTR [eax+108], 0
	je	SHORT $LN3@xmlTextRea

; 4845 :             reader->errorFunc(reader->errorFuncArg, str, severity,

	mov	esi, esp
	mov	ecx, DWORD PTR _ctx$[ebp]
	push	ecx
	mov	edx, DWORD PTR _severity$[ebp]
	push	edx
	mov	eax, DWORD PTR _str$[ebp]
	push	eax
	mov	ecx, DWORD PTR _reader$[ebp]
	mov	edx, DWORD PTR [ecx+112]
	push	edx
	mov	eax, DWORD PTR _reader$[ebp]
	mov	ecx, DWORD PTR [eax+108]
	call	ecx
	add	esp, 16					; 00000010H
	cmp	esi, esp
	call	__RTC_CheckEsp
$LN3@xmlTextRea:

; 4846 :                               (xmlTextReaderLocatorPtr) ctx);
; 4847 :         xmlFree(str);

	mov	esi, esp
	mov	edx, DWORD PTR _str$[ebp]
	push	edx
	call	DWORD PTR _xmlFree
	add	esp, 4
	cmp	esi, esp
	call	__RTC_CheckEsp
$LN1@xmlTextRea:

; 4848 :     }
; 4849 : }

	pop	esi
	add	esp, 8
	cmp	ebp, esp
	call	__RTC_CheckEsp
	mov	esp, ebp
	pop	ebp
	ret	0
_xmlTextReaderGenericError ENDP
_TEXT	ENDS
; Function compile flags: /Odtp /RTCsu
; File c:\users\dag\documents\_clients\codeproject authors group\windows on arm\libxml2\libxml2-2.9.9\xmlreader.c
;	COMDAT _xmlTextReaderSchemaValidateInternal
_TEXT	SEGMENT
_pctxt$1 = -4						; size = 4
_reader$ = 8						; size = 4
_xsd$ = 12						; size = 4
_ctxt$ = 16						; size = 4
_options$ = 20						; size = 4
_xmlTextReaderSchemaValidateInternal PROC		; COMDAT

; 4457 : {

	push	ebp
	mov	ebp, esp
	push	ecx
	mov	DWORD PTR [ebp-4], -858993460		; ccccccccH
	mov	ecx, OFFSET __BC13D883_xmlreader@c
	call	@__CheckForDebuggerJustMyCode@4

; 4458 :     if (reader == NULL)

	cmp	DWORD PTR _reader$[ebp], 0
	jne	SHORT $LN2@xmlTextRea

; 4459 :         return(-1);

	or	eax, -1
	jmp	$LN1@xmlTextRea
$LN2@xmlTextRea:

; 4460 : 
; 4461 :     if ((xsd != NULL) && (ctxt != NULL))

	cmp	DWORD PTR _xsd$[ebp], 0
	je	SHORT $LN3@xmlTextRea
	cmp	DWORD PTR _ctxt$[ebp], 0
	je	SHORT $LN3@xmlTextRea

; 4462 : 	return(-1);

	or	eax, -1
	jmp	$LN1@xmlTextRea
$LN3@xmlTextRea:

; 4463 : 
; 4464 :     if (((xsd != NULL) || (ctxt != NULL)) &&

	cmp	DWORD PTR _xsd$[ebp], 0
	jne	SHORT $LN5@xmlTextRea
	cmp	DWORD PTR _ctxt$[ebp], 0
	je	SHORT $LN4@xmlTextRea
$LN5@xmlTextRea:
	mov	eax, DWORD PTR _reader$[ebp]
	cmp	DWORD PTR [eax], 0
	jne	SHORT $LN6@xmlTextRea
	mov	ecx, DWORD PTR _reader$[ebp]
	cmp	DWORD PTR [ecx+20], 0
	jne	SHORT $LN4@xmlTextRea
$LN6@xmlTextRea:

; 4465 : 	((reader->mode != XML_TEXTREADER_MODE_INITIAL) ||
; 4466 :         (reader->ctxt == NULL)))
; 4467 : 	return(-1);

	or	eax, -1
	jmp	$LN1@xmlTextRea
$LN4@xmlTextRea:

; 4468 : 
; 4469 :     /* Cleanup previous validation stuff. */
; 4470 :     if (reader->xsdPlug != NULL) {

	mov	edx, DWORD PTR _reader$[ebp]
	cmp	DWORD PTR [edx+152], 0
	je	SHORT $LN7@xmlTextRea

; 4471 : 	xmlSchemaSAXUnplug(reader->xsdPlug);

	mov	eax, DWORD PTR _reader$[ebp]
	mov	ecx, DWORD PTR [eax+152]
	push	ecx
	call	_xmlSchemaSAXUnplug
	add	esp, 4

; 4472 : 	reader->xsdPlug = NULL;

	mov	edx, DWORD PTR _reader$[ebp]
	mov	DWORD PTR [edx+152], 0
$LN7@xmlTextRea:

; 4473 :     }
; 4474 :     if (reader->xsdValidCtxt != NULL) {

	mov	eax, DWORD PTR _reader$[ebp]
	cmp	DWORD PTR [eax+140], 0
	je	SHORT $LN8@xmlTextRea

; 4475 : 	if (! reader->xsdPreserveCtxt)

	mov	ecx, DWORD PTR _reader$[ebp]
	cmp	DWORD PTR [ecx+144], 0
	jne	SHORT $LN9@xmlTextRea

; 4476 : 	    xmlSchemaFreeValidCtxt(reader->xsdValidCtxt);

	mov	edx, DWORD PTR _reader$[ebp]
	mov	eax, DWORD PTR [edx+140]
	push	eax
	call	_xmlSchemaFreeValidCtxt
	add	esp, 4
$LN9@xmlTextRea:

; 4477 : 	reader->xsdValidCtxt = NULL;

	mov	ecx, DWORD PTR _reader$[ebp]
	mov	DWORD PTR [ecx+140], 0
$LN8@xmlTextRea:

; 4478 :     }
; 4479 :     reader->xsdPreserveCtxt = 0;

	mov	edx, DWORD PTR _reader$[ebp]
	mov	DWORD PTR [edx+144], 0

; 4480 :     if (reader->xsdSchemas != NULL) {

	mov	eax, DWORD PTR _reader$[ebp]
	cmp	DWORD PTR [eax+136], 0
	je	SHORT $LN10@xmlTextRea

; 4481 : 	xmlSchemaFree(reader->xsdSchemas);

	mov	ecx, DWORD PTR _reader$[ebp]
	mov	edx, DWORD PTR [ecx+136]
	push	edx
	call	_xmlSchemaFree
	add	esp, 4

; 4482 : 	reader->xsdSchemas = NULL;

	mov	eax, DWORD PTR _reader$[ebp]
	mov	DWORD PTR [eax+136], 0
$LN10@xmlTextRea:

; 4483 :     }
; 4484 : 
; 4485 :     if ((xsd == NULL) && (ctxt == NULL)) {

	cmp	DWORD PTR _xsd$[ebp], 0
	jne	SHORT $LN11@xmlTextRea
	cmp	DWORD PTR _ctxt$[ebp], 0
	jne	SHORT $LN11@xmlTextRea

; 4486 : 	/* We just want to deactivate the validation, so get out. */
; 4487 : 	return(0);

	xor	eax, eax
	jmp	$LN1@xmlTextRea
$LN11@xmlTextRea:

; 4488 :     }
; 4489 : 
; 4490 :     if (xsd != NULL) {

	cmp	DWORD PTR _xsd$[ebp], 0
	je	$LN12@xmlTextRea

; 4491 : 	xmlSchemaParserCtxtPtr pctxt;
; 4492 : 	/* Parse the schema and create validation environment. */
; 4493 : 	pctxt = xmlSchemaNewParserCtxt(xsd);

	mov	ecx, DWORD PTR _xsd$[ebp]
	push	ecx
	call	_xmlSchemaNewParserCtxt
	add	esp, 4
	mov	DWORD PTR _pctxt$1[ebp], eax

; 4494 : 	if (reader->errorFunc != NULL) {

	mov	edx, DWORD PTR _reader$[ebp]
	cmp	DWORD PTR [edx+108], 0
	je	SHORT $LN14@xmlTextRea

; 4495 : 	    xmlSchemaSetParserErrors(pctxt,

	mov	eax, DWORD PTR _reader$[ebp]
	push	eax
	push	OFFSET _xmlTextReaderValidityWarningRelay
	push	OFFSET _xmlTextReaderValidityErrorRelay
	mov	ecx, DWORD PTR _pctxt$1[ebp]
	push	ecx
	call	_xmlSchemaSetParserErrors
	add	esp, 16					; 00000010H
$LN14@xmlTextRea:

; 4496 : 		xmlTextReaderValidityErrorRelay,
; 4497 : 		xmlTextReaderValidityWarningRelay,
; 4498 : 		reader);
; 4499 : 	}
; 4500 : 	reader->xsdSchemas = xmlSchemaParse(pctxt);

	mov	edx, DWORD PTR _pctxt$1[ebp]
	push	edx
	call	_xmlSchemaParse
	add	esp, 4
	mov	ecx, DWORD PTR _reader$[ebp]
	mov	DWORD PTR [ecx+136], eax

; 4501 : 	xmlSchemaFreeParserCtxt(pctxt);

	mov	edx, DWORD PTR _pctxt$1[ebp]
	push	edx
	call	_xmlSchemaFreeParserCtxt
	add	esp, 4

; 4502 : 	if (reader->xsdSchemas == NULL)

	mov	eax, DWORD PTR _reader$[ebp]
	cmp	DWORD PTR [eax+136], 0
	jne	SHORT $LN15@xmlTextRea

; 4503 : 	    return(-1);

	or	eax, -1
	jmp	$LN1@xmlTextRea
$LN15@xmlTextRea:

; 4504 : 	reader->xsdValidCtxt = xmlSchemaNewValidCtxt(reader->xsdSchemas);

	mov	ecx, DWORD PTR _reader$[ebp]
	mov	edx, DWORD PTR [ecx+136]
	push	edx
	call	_xmlSchemaNewValidCtxt
	add	esp, 4
	mov	ecx, DWORD PTR _reader$[ebp]
	mov	DWORD PTR [ecx+140], eax

; 4505 : 	if (reader->xsdValidCtxt == NULL) {

	mov	edx, DWORD PTR _reader$[ebp]
	cmp	DWORD PTR [edx+140], 0
	jne	SHORT $LN16@xmlTextRea

; 4506 : 	    xmlSchemaFree(reader->xsdSchemas);

	mov	eax, DWORD PTR _reader$[ebp]
	mov	ecx, DWORD PTR [eax+136]
	push	ecx
	call	_xmlSchemaFree
	add	esp, 4

; 4507 : 	    reader->xsdSchemas = NULL;

	mov	edx, DWORD PTR _reader$[ebp]
	mov	DWORD PTR [edx+136], 0

; 4508 : 	    return(-1);

	or	eax, -1
	jmp	$LN1@xmlTextRea
$LN16@xmlTextRea:

; 4509 : 	}
; 4510 : 	reader->xsdPlug = xmlSchemaSAXPlug(reader->xsdValidCtxt,

	mov	eax, DWORD PTR _reader$[ebp]
	mov	ecx, DWORD PTR [eax+20]
	add	ecx, 4
	push	ecx
	mov	edx, DWORD PTR _reader$[ebp]
	mov	eax, DWORD PTR [edx+20]
	push	eax
	mov	ecx, DWORD PTR _reader$[ebp]
	mov	edx, DWORD PTR [ecx+140]
	push	edx
	call	_xmlSchemaSAXPlug
	add	esp, 12					; 0000000cH
	mov	ecx, DWORD PTR _reader$[ebp]
	mov	DWORD PTR [ecx+152], eax

; 4511 : 	    &(reader->ctxt->sax),
; 4512 : 	    &(reader->ctxt->userData));
; 4513 : 	if (reader->xsdPlug == NULL) {

	mov	edx, DWORD PTR _reader$[ebp]
	cmp	DWORD PTR [edx+152], 0
	jne	SHORT $LN17@xmlTextRea

; 4514 : 	    xmlSchemaFree(reader->xsdSchemas);

	mov	eax, DWORD PTR _reader$[ebp]
	mov	ecx, DWORD PTR [eax+136]
	push	ecx
	call	_xmlSchemaFree
	add	esp, 4

; 4515 : 	    reader->xsdSchemas = NULL;

	mov	edx, DWORD PTR _reader$[ebp]
	mov	DWORD PTR [edx+136], 0

; 4516 : 	    xmlSchemaFreeValidCtxt(reader->xsdValidCtxt);

	mov	eax, DWORD PTR _reader$[ebp]
	mov	ecx, DWORD PTR [eax+140]
	push	ecx
	call	_xmlSchemaFreeValidCtxt
	add	esp, 4

; 4517 : 	    reader->xsdValidCtxt = NULL;

	mov	edx, DWORD PTR _reader$[ebp]
	mov	DWORD PTR [edx+140], 0

; 4518 : 	    return(-1);

	or	eax, -1
	jmp	$LN1@xmlTextRea
$LN17@xmlTextRea:

; 4519 : 	}
; 4520 :     } else {

	jmp	SHORT $LN13@xmlTextRea
$LN12@xmlTextRea:

; 4521 : 	/* Use the given validation context. */
; 4522 : 	reader->xsdValidCtxt = ctxt;

	mov	eax, DWORD PTR _reader$[ebp]
	mov	ecx, DWORD PTR _ctxt$[ebp]
	mov	DWORD PTR [eax+140], ecx

; 4523 : 	reader->xsdPreserveCtxt = 1;

	mov	edx, DWORD PTR _reader$[ebp]
	mov	DWORD PTR [edx+144], 1

; 4524 : 	reader->xsdPlug = xmlSchemaSAXPlug(reader->xsdValidCtxt,

	mov	eax, DWORD PTR _reader$[ebp]
	mov	ecx, DWORD PTR [eax+20]
	add	ecx, 4
	push	ecx
	mov	edx, DWORD PTR _reader$[ebp]
	mov	eax, DWORD PTR [edx+20]
	push	eax
	mov	ecx, DWORD PTR _reader$[ebp]
	mov	edx, DWORD PTR [ecx+140]
	push	edx
	call	_xmlSchemaSAXPlug
	add	esp, 12					; 0000000cH
	mov	ecx, DWORD PTR _reader$[ebp]
	mov	DWORD PTR [ecx+152], eax

; 4525 : 	    &(reader->ctxt->sax),
; 4526 : 	    &(reader->ctxt->userData));
; 4527 : 	if (reader->xsdPlug == NULL) {

	mov	edx, DWORD PTR _reader$[ebp]
	cmp	DWORD PTR [edx+152], 0
	jne	SHORT $LN13@xmlTextRea

; 4528 : 	    reader->xsdValidCtxt = NULL;

	mov	eax, DWORD PTR _reader$[ebp]
	mov	DWORD PTR [eax+140], 0

; 4529 : 	    reader->xsdPreserveCtxt = 0;

	mov	ecx, DWORD PTR _reader$[ebp]
	mov	DWORD PTR [ecx+144], 0

; 4530 : 	    return(-1);

	or	eax, -1
	jmp	$LN1@xmlTextRea
$LN13@xmlTextRea:

; 4531 : 	}
; 4532 :     }
; 4533 :     xmlSchemaValidateSetLocator(reader->xsdValidCtxt,

	mov	edx, DWORD PTR _reader$[ebp]
	push	edx
	push	OFFSET _xmlTextReaderLocator
	mov	eax, DWORD PTR _reader$[ebp]
	mov	ecx, DWORD PTR [eax+140]
	push	ecx
	call	_xmlSchemaValidateSetLocator
	add	esp, 12					; 0000000cH

; 4534 :                                 xmlTextReaderLocator,
; 4535 : 				(void *) reader);
; 4536 :     /*
; 4537 :     * Redirect the validation context's error channels to use
; 4538 :     * the reader channels.
; 4539 :     * TODO: In case the user provides the validation context we
; 4540 :     *   could make this redirection optional.
; 4541 :     */
; 4542 :     if (reader->errorFunc != NULL) {

	mov	edx, DWORD PTR _reader$[ebp]
	cmp	DWORD PTR [edx+108], 0
	je	SHORT $LN19@xmlTextRea

; 4543 : 	xmlSchemaSetValidErrors(reader->xsdValidCtxt,

	mov	eax, DWORD PTR _reader$[ebp]
	push	eax
	push	OFFSET _xmlTextReaderValidityWarningRelay
	push	OFFSET _xmlTextReaderValidityErrorRelay
	mov	ecx, DWORD PTR _reader$[ebp]
	mov	edx, DWORD PTR [ecx+140]
	push	edx
	call	_xmlSchemaSetValidErrors
	add	esp, 16					; 00000010H
$LN19@xmlTextRea:

; 4544 : 			 xmlTextReaderValidityErrorRelay,
; 4545 : 			 xmlTextReaderValidityWarningRelay,
; 4546 : 			 reader);
; 4547 :     }
; 4548 : 	if (reader->sErrorFunc != NULL) {

	mov	eax, DWORD PTR _reader$[ebp]
	cmp	DWORD PTR [eax+192], 0
	je	SHORT $LN20@xmlTextRea

; 4549 : 		xmlSchemaSetValidStructuredErrors(reader->xsdValidCtxt,

	mov	ecx, DWORD PTR _reader$[ebp]
	push	ecx
	push	OFFSET _xmlTextReaderValidityStructuredRelay
	mov	edx, DWORD PTR _reader$[ebp]
	mov	eax, DWORD PTR [edx+140]
	push	eax
	call	_xmlSchemaSetValidStructuredErrors
	add	esp, 12					; 0000000cH
$LN20@xmlTextRea:

; 4550 : 			xmlTextReaderValidityStructuredRelay,
; 4551 : 			reader);
; 4552 :     }
; 4553 :     reader->xsdValidErrors = 0;

	mov	ecx, DWORD PTR _reader$[ebp]
	mov	DWORD PTR [ecx+148], 0

; 4554 :     reader->validate = XML_TEXTREADER_VALIDATE_XSD;

	mov	edx, DWORD PTR _reader$[ebp]
	mov	DWORD PTR [edx+8], 4

; 4555 :     return(0);

	xor	eax, eax
$LN1@xmlTextRea:

; 4556 : }

	add	esp, 4
	cmp	ebp, esp
	call	__RTC_CheckEsp
	mov	esp, ebp
	pop	ebp
	ret	0
_xmlTextReaderSchemaValidateInternal ENDP
_TEXT	ENDS
; Function compile flags: /Odtp /RTCsu
; File c:\users\dag\documents\_clients\codeproject authors group\windows on arm\libxml2\libxml2-2.9.9\xmlreader.c
;	COMDAT _xmlTextReaderRelaxNGValidateInternal
_TEXT	SEGMENT
_pctxt$1 = -4						; size = 4
_reader$ = 8						; size = 4
_rng$ = 12						; size = 4
_ctxt$ = 16						; size = 4
_options$ = 20						; size = 4
_xmlTextReaderRelaxNGValidateInternal PROC		; COMDAT

; 4354 : {

	push	ebp
	mov	ebp, esp
	push	ecx
	mov	DWORD PTR [ebp-4], -858993460		; ccccccccH
	mov	ecx, OFFSET __BC13D883_xmlreader@c
	call	@__CheckForDebuggerJustMyCode@4

; 4355 :     if (reader == NULL)

	cmp	DWORD PTR _reader$[ebp], 0
	jne	SHORT $LN2@xmlTextRea

; 4356 : 	return(-1);

	or	eax, -1
	jmp	$LN1@xmlTextRea
$LN2@xmlTextRea:

; 4357 : 
; 4358 :     if ((rng != NULL) && (ctxt != NULL))

	cmp	DWORD PTR _rng$[ebp], 0
	je	SHORT $LN3@xmlTextRea
	cmp	DWORD PTR _ctxt$[ebp], 0
	je	SHORT $LN3@xmlTextRea

; 4359 : 	return (-1);

	or	eax, -1
	jmp	$LN1@xmlTextRea
$LN3@xmlTextRea:

; 4360 : 
; 4361 :     if (((rng != NULL) || (ctxt != NULL)) &&

	cmp	DWORD PTR _rng$[ebp], 0
	jne	SHORT $LN5@xmlTextRea
	cmp	DWORD PTR _ctxt$[ebp], 0
	je	SHORT $LN4@xmlTextRea
$LN5@xmlTextRea:
	mov	eax, DWORD PTR _reader$[ebp]
	cmp	DWORD PTR [eax], 0
	jne	SHORT $LN6@xmlTextRea
	mov	ecx, DWORD PTR _reader$[ebp]
	cmp	DWORD PTR [ecx+20], 0
	jne	SHORT $LN4@xmlTextRea
$LN6@xmlTextRea:

; 4362 : 	((reader->mode != XML_TEXTREADER_MODE_INITIAL) ||
; 4363 : 	 (reader->ctxt == NULL)))
; 4364 : 	return(-1);

	or	eax, -1
	jmp	$LN1@xmlTextRea
$LN4@xmlTextRea:

; 4365 : 
; 4366 :     /* Cleanup previous validation stuff. */
; 4367 :     if (reader->rngValidCtxt != NULL) {

	mov	edx, DWORD PTR _reader$[ebp]
	cmp	DWORD PTR [edx+120], 0
	je	SHORT $LN7@xmlTextRea

; 4368 : 	if ( !reader->rngPreserveCtxt)

	mov	eax, DWORD PTR _reader$[ebp]
	cmp	DWORD PTR [eax+124], 0
	jne	SHORT $LN8@xmlTextRea

; 4369 : 	    xmlRelaxNGFreeValidCtxt(reader->rngValidCtxt);

	mov	ecx, DWORD PTR _reader$[ebp]
	mov	edx, DWORD PTR [ecx+120]
	push	edx
	call	_xmlRelaxNGFreeValidCtxt
	add	esp, 4
$LN8@xmlTextRea:

; 4370 : 	reader->rngValidCtxt = NULL;

	mov	eax, DWORD PTR _reader$[ebp]
	mov	DWORD PTR [eax+120], 0
$LN7@xmlTextRea:

; 4371 :     }
; 4372 :     reader->rngPreserveCtxt = 0;

	mov	ecx, DWORD PTR _reader$[ebp]
	mov	DWORD PTR [ecx+124], 0

; 4373 :     if (reader->rngSchemas != NULL) {

	mov	edx, DWORD PTR _reader$[ebp]
	cmp	DWORD PTR [edx+116], 0
	je	SHORT $LN9@xmlTextRea

; 4374 : 	xmlRelaxNGFree(reader->rngSchemas);

	mov	eax, DWORD PTR _reader$[ebp]
	mov	ecx, DWORD PTR [eax+116]
	push	ecx
	call	_xmlRelaxNGFree
	add	esp, 4

; 4375 : 	reader->rngSchemas = NULL;

	mov	edx, DWORD PTR _reader$[ebp]
	mov	DWORD PTR [edx+116], 0
$LN9@xmlTextRea:

; 4376 :     }
; 4377 : 
; 4378 :     if ((rng == NULL) && (ctxt == NULL)) {

	cmp	DWORD PTR _rng$[ebp], 0
	jne	SHORT $LN10@xmlTextRea
	cmp	DWORD PTR _ctxt$[ebp], 0
	jne	SHORT $LN10@xmlTextRea

; 4379 : 	/* We just want to deactivate the validation, so get out. */
; 4380 : 	return(0);

	xor	eax, eax
	jmp	$LN1@xmlTextRea
$LN10@xmlTextRea:

; 4381 :     }
; 4382 : 
; 4383 : 
; 4384 :     if (rng != NULL) {

	cmp	DWORD PTR _rng$[ebp], 0
	je	$LN11@xmlTextRea

; 4385 : 	xmlRelaxNGParserCtxtPtr pctxt;
; 4386 : 	/* Parse the schema and create validation environment. */
; 4387 : 
; 4388 : 	pctxt = xmlRelaxNGNewParserCtxt(rng);

	mov	eax, DWORD PTR _rng$[ebp]
	push	eax
	call	_xmlRelaxNGNewParserCtxt
	add	esp, 4
	mov	DWORD PTR _pctxt$1[ebp], eax

; 4389 : 	if (reader->errorFunc != NULL) {

	mov	ecx, DWORD PTR _reader$[ebp]
	cmp	DWORD PTR [ecx+108], 0
	je	SHORT $LN13@xmlTextRea

; 4390 : 	    xmlRelaxNGSetParserErrors(pctxt,

	mov	edx, DWORD PTR _reader$[ebp]
	push	edx
	push	OFFSET _xmlTextReaderValidityWarningRelay
	push	OFFSET _xmlTextReaderValidityErrorRelay
	mov	eax, DWORD PTR _pctxt$1[ebp]
	push	eax
	call	_xmlRelaxNGSetParserErrors
	add	esp, 16					; 00000010H
$LN13@xmlTextRea:

; 4391 : 		xmlTextReaderValidityErrorRelay,
; 4392 : 		xmlTextReaderValidityWarningRelay,
; 4393 : 		reader);
; 4394 : 	}
; 4395 : 	if (reader->sErrorFunc != NULL) {

	mov	ecx, DWORD PTR _reader$[ebp]
	cmp	DWORD PTR [ecx+192], 0
	je	SHORT $LN14@xmlTextRea

; 4396 : 	    xmlRelaxNGSetValidStructuredErrors(reader->rngValidCtxt,

	mov	edx, DWORD PTR _reader$[ebp]
	push	edx
	push	OFFSET _xmlTextReaderValidityStructuredRelay
	mov	eax, DWORD PTR _reader$[ebp]
	mov	ecx, DWORD PTR [eax+120]
	push	ecx
	call	_xmlRelaxNGSetValidStructuredErrors
	add	esp, 12					; 0000000cH
$LN14@xmlTextRea:

; 4397 : 		xmlTextReaderValidityStructuredRelay,
; 4398 : 		reader);
; 4399 : 	}
; 4400 : 	reader->rngSchemas = xmlRelaxNGParse(pctxt);

	mov	edx, DWORD PTR _pctxt$1[ebp]
	push	edx
	call	_xmlRelaxNGParse
	add	esp, 4
	mov	ecx, DWORD PTR _reader$[ebp]
	mov	DWORD PTR [ecx+116], eax

; 4401 : 	xmlRelaxNGFreeParserCtxt(pctxt);

	mov	edx, DWORD PTR _pctxt$1[ebp]
	push	edx
	call	_xmlRelaxNGFreeParserCtxt
	add	esp, 4

; 4402 : 	if (reader->rngSchemas == NULL)

	mov	eax, DWORD PTR _reader$[ebp]
	cmp	DWORD PTR [eax+116], 0
	jne	SHORT $LN15@xmlTextRea

; 4403 : 	    return(-1);

	or	eax, -1
	jmp	$LN1@xmlTextRea
$LN15@xmlTextRea:

; 4404 : 	reader->rngValidCtxt = xmlRelaxNGNewValidCtxt(reader->rngSchemas);

	mov	ecx, DWORD PTR _reader$[ebp]
	mov	edx, DWORD PTR [ecx+116]
	push	edx
	call	_xmlRelaxNGNewValidCtxt
	add	esp, 4
	mov	ecx, DWORD PTR _reader$[ebp]
	mov	DWORD PTR [ecx+120], eax

; 4405 : 	if (reader->rngValidCtxt == NULL) {

	mov	edx, DWORD PTR _reader$[ebp]
	cmp	DWORD PTR [edx+120], 0
	jne	SHORT $LN16@xmlTextRea

; 4406 : 	    xmlRelaxNGFree(reader->rngSchemas);

	mov	eax, DWORD PTR _reader$[ebp]
	mov	ecx, DWORD PTR [eax+116]
	push	ecx
	call	_xmlRelaxNGFree
	add	esp, 4

; 4407 : 	    reader->rngSchemas = NULL;

	mov	edx, DWORD PTR _reader$[ebp]
	mov	DWORD PTR [edx+116], 0

; 4408 : 	    return(-1);

	or	eax, -1
	jmp	$LN1@xmlTextRea
$LN16@xmlTextRea:

; 4409 : 	}
; 4410 :     } else {

	jmp	SHORT $LN12@xmlTextRea
$LN11@xmlTextRea:

; 4411 : 	/* Use the given validation context. */
; 4412 : 	reader->rngValidCtxt = ctxt;

	mov	eax, DWORD PTR _reader$[ebp]
	mov	ecx, DWORD PTR _ctxt$[ebp]
	mov	DWORD PTR [eax+120], ecx

; 4413 : 	reader->rngPreserveCtxt = 1;

	mov	edx, DWORD PTR _reader$[ebp]
	mov	DWORD PTR [edx+124], 1
$LN12@xmlTextRea:

; 4414 :     }
; 4415 :     /*
; 4416 :     * Redirect the validation context's error channels to use
; 4417 :     * the reader channels.
; 4418 :     * TODO: In case the user provides the validation context we
; 4419 :     *	could make this redirection optional.
; 4420 :     */
; 4421 :     if (reader->errorFunc != NULL) {

	mov	eax, DWORD PTR _reader$[ebp]
	cmp	DWORD PTR [eax+108], 0
	je	SHORT $LN17@xmlTextRea

; 4422 : 	xmlRelaxNGSetValidErrors(reader->rngValidCtxt,

	mov	ecx, DWORD PTR _reader$[ebp]
	push	ecx
	push	OFFSET _xmlTextReaderValidityWarningRelay
	push	OFFSET _xmlTextReaderValidityErrorRelay
	mov	edx, DWORD PTR _reader$[ebp]
	mov	eax, DWORD PTR [edx+120]
	push	eax
	call	_xmlRelaxNGSetValidErrors
	add	esp, 16					; 00000010H
$LN17@xmlTextRea:

; 4423 : 			 xmlTextReaderValidityErrorRelay,
; 4424 : 			 xmlTextReaderValidityWarningRelay,
; 4425 : 			 reader);
; 4426 :     }
; 4427 : 	if (reader->sErrorFunc != NULL) {

	mov	ecx, DWORD PTR _reader$[ebp]
	cmp	DWORD PTR [ecx+192], 0
	je	SHORT $LN18@xmlTextRea

; 4428 : 		xmlRelaxNGSetValidStructuredErrors(reader->rngValidCtxt,

	mov	edx, DWORD PTR _reader$[ebp]
	push	edx
	push	OFFSET _xmlTextReaderValidityStructuredRelay
	mov	eax, DWORD PTR _reader$[ebp]
	mov	ecx, DWORD PTR [eax+120]
	push	ecx
	call	_xmlRelaxNGSetValidStructuredErrors
	add	esp, 12					; 0000000cH
$LN18@xmlTextRea:

; 4429 : 			xmlTextReaderValidityStructuredRelay,
; 4430 : 			reader);
; 4431 :     }
; 4432 :     reader->rngValidErrors = 0;

	mov	edx, DWORD PTR _reader$[ebp]
	mov	DWORD PTR [edx+128], 0

; 4433 :     reader->rngFullNode = NULL;

	mov	eax, DWORD PTR _reader$[ebp]
	mov	DWORD PTR [eax+132], 0

; 4434 :     reader->validate = XML_TEXTREADER_VALIDATE_RNG;

	mov	ecx, DWORD PTR _reader$[ebp]
	mov	DWORD PTR [ecx+8], 2

; 4435 :     return(0);

	xor	eax, eax
$LN1@xmlTextRea:

; 4436 : }

	add	esp, 4
	cmp	ebp, esp
	call	__RTC_CheckEsp
	mov	esp, ebp
	pop	ebp
	ret	0
_xmlTextReaderRelaxNGValidateInternal ENDP
_TEXT	ENDS
; Function compile flags: /Odtp /RTCsu
; File c:\users\dag\documents\_clients\codeproject authors group\windows on arm\libxml2\libxml2-2.9.9\xmlreader.c
;	COMDAT _xmlTextReaderLocator
_TEXT	SEGMENT
_doc$1 = -16						; size = 4
_ret$2 = -12						; size = 4
_res$3 = -8						; size = 4
_reader$ = -4						; size = 4
_ctx$ = 8						; size = 4
_file$ = 12						; size = 4
_line$ = 16						; size = 4
_xmlTextReaderLocator PROC				; COMDAT

; 4206 : xmlTextReaderLocator(void *ctx, const char **file, unsigned long *line) {

	push	ebp
	mov	ebp, esp
	sub	esp, 16					; 00000010H
	mov	eax, -858993460				; ccccccccH
	mov	DWORD PTR [ebp-16], eax
	mov	DWORD PTR [ebp-12], eax
	mov	DWORD PTR [ebp-8], eax
	mov	DWORD PTR [ebp-4], eax
	mov	ecx, OFFSET __BC13D883_xmlreader@c
	call	@__CheckForDebuggerJustMyCode@4

; 4207 :     xmlTextReaderPtr reader;
; 4208 : 
; 4209 :     if ((ctx == NULL) || ((file == NULL) && (line == NULL)))

	cmp	DWORD PTR _ctx$[ebp], 0
	je	SHORT $LN3@xmlTextRea
	cmp	DWORD PTR _file$[ebp], 0
	jne	SHORT $LN2@xmlTextRea
	cmp	DWORD PTR _line$[ebp], 0
	jne	SHORT $LN2@xmlTextRea
$LN3@xmlTextRea:

; 4210 :         return(-1);

	or	eax, -1
	jmp	$LN1@xmlTextRea
$LN2@xmlTextRea:

; 4211 : 
; 4212 :     if (file != NULL)

	cmp	DWORD PTR _file$[ebp], 0
	je	SHORT $LN4@xmlTextRea

; 4213 :         *file = NULL;

	mov	eax, DWORD PTR _file$[ebp]
	mov	DWORD PTR [eax], 0
$LN4@xmlTextRea:

; 4214 :     if (line != NULL)

	cmp	DWORD PTR _line$[ebp], 0
	je	SHORT $LN5@xmlTextRea

; 4215 :         *line = 0;

	mov	ecx, DWORD PTR _line$[ebp]
	mov	DWORD PTR [ecx], 0
$LN5@xmlTextRea:

; 4216 : 
; 4217 :     reader = (xmlTextReaderPtr) ctx;

	mov	edx, DWORD PTR _ctx$[ebp]
	mov	DWORD PTR _reader$[ebp], edx

; 4218 :     if ((reader->ctxt != NULL) && (reader->ctxt->input != NULL)) {

	mov	eax, DWORD PTR _reader$[ebp]
	cmp	DWORD PTR [eax+20], 0
	je	SHORT $LN6@xmlTextRea
	mov	ecx, DWORD PTR _reader$[ebp]
	mov	edx, DWORD PTR [ecx+20]
	cmp	DWORD PTR [edx+36], 0
	je	SHORT $LN6@xmlTextRea

; 4219 : 	if (file != NULL)

	cmp	DWORD PTR _file$[ebp], 0
	je	SHORT $LN7@xmlTextRea

; 4220 : 	    *file = reader->ctxt->input->filename;

	mov	eax, DWORD PTR _reader$[ebp]
	mov	ecx, DWORD PTR [eax+20]
	mov	edx, DWORD PTR [ecx+36]
	mov	eax, DWORD PTR _file$[ebp]
	mov	ecx, DWORD PTR [edx+4]
	mov	DWORD PTR [eax], ecx
$LN7@xmlTextRea:

; 4221 : 	if (line != NULL)

	cmp	DWORD PTR _line$[ebp], 0
	je	SHORT $LN8@xmlTextRea

; 4222 : 	    *line = reader->ctxt->input->line;

	mov	edx, DWORD PTR _reader$[ebp]
	mov	eax, DWORD PTR [edx+20]
	mov	ecx, DWORD PTR [eax+36]
	mov	edx, DWORD PTR _line$[ebp]
	mov	eax, DWORD PTR [ecx+28]
	mov	DWORD PTR [edx], eax
$LN8@xmlTextRea:

; 4223 : 	return(0);

	xor	eax, eax
	jmp	SHORT $LN1@xmlTextRea
$LN6@xmlTextRea:

; 4224 :     }
; 4225 :     if (reader->node != NULL) {

	mov	ecx, DWORD PTR _reader$[ebp]
	cmp	DWORD PTR [ecx+64], 0
	je	SHORT $LN9@xmlTextRea

; 4226 :         long res;
; 4227 : 	int ret = 0;

	mov	DWORD PTR _ret$2[ebp], 0

; 4228 : 
; 4229 : 	if (line != NULL) {

	cmp	DWORD PTR _line$[ebp], 0
	je	SHORT $LN10@xmlTextRea

; 4230 : 	    res = xmlGetLineNo(reader->node);

	mov	edx, DWORD PTR _reader$[ebp]
	mov	eax, DWORD PTR [edx+64]
	push	eax
	call	_xmlGetLineNo
	add	esp, 4
	mov	DWORD PTR _res$3[ebp], eax

; 4231 : 	    if (res > 0)

	cmp	DWORD PTR _res$3[ebp], 0
	jle	SHORT $LN11@xmlTextRea

; 4232 : 	        *line = (unsigned long) res;

	mov	ecx, DWORD PTR _line$[ebp]
	mov	edx, DWORD PTR _res$3[ebp]
	mov	DWORD PTR [ecx], edx
	jmp	SHORT $LN10@xmlTextRea
$LN11@xmlTextRea:

; 4233 : 	    else
; 4234 :                 ret = -1;

	mov	DWORD PTR _ret$2[ebp], -1
$LN10@xmlTextRea:

; 4235 : 	}
; 4236 :         if (file != NULL) {

	cmp	DWORD PTR _file$[ebp], 0
	je	SHORT $LN13@xmlTextRea

; 4237 : 	    xmlDocPtr doc = reader->node->doc;

	mov	eax, DWORD PTR _reader$[ebp]
	mov	ecx, DWORD PTR [eax+64]
	mov	edx, DWORD PTR [ecx+32]
	mov	DWORD PTR _doc$1[ebp], edx

; 4238 : 	    if ((doc != NULL) && (doc->URL != NULL))

	cmp	DWORD PTR _doc$1[ebp], 0
	je	SHORT $LN14@xmlTextRea
	mov	eax, DWORD PTR _doc$1[ebp]
	cmp	DWORD PTR [eax+72], 0
	je	SHORT $LN14@xmlTextRea

; 4239 : 	        *file = (const char *) doc->URL;

	mov	ecx, DWORD PTR _file$[ebp]
	mov	edx, DWORD PTR _doc$1[ebp]
	mov	eax, DWORD PTR [edx+72]
	mov	DWORD PTR [ecx], eax
	jmp	SHORT $LN13@xmlTextRea
$LN14@xmlTextRea:

; 4240 : 	    else
; 4241 :                 ret = -1;

	mov	DWORD PTR _ret$2[ebp], -1
$LN13@xmlTextRea:

; 4242 : 	}
; 4243 : 	return(ret);

	mov	eax, DWORD PTR _ret$2[ebp]
	jmp	SHORT $LN1@xmlTextRea
$LN9@xmlTextRea:

; 4244 :     }
; 4245 :     return(-1);

	or	eax, -1
$LN1@xmlTextRea:

; 4246 : }

	add	esp, 16					; 00000010H
	cmp	ebp, esp
	call	__RTC_CheckEsp
	mov	esp, ebp
	pop	ebp
	ret	0
_xmlTextReaderLocator ENDP
_TEXT	ENDS
; Function compile flags: /Odtp /RTCsu
; File c:\users\dag\documents\_clients\codeproject authors group\windows on arm\libxml2\libxml2-2.9.9\xmlreader.c
;	COMDAT _xmlTextReaderValidityStructuredRelay
_TEXT	SEGMENT
_reader$ = -4						; size = 4
_userData$ = 8						; size = 4
_error$ = 12						; size = 4
_xmlTextReaderValidityStructuredRelay PROC		; COMDAT

; 4122 : {

	push	ebp
	mov	ebp, esp
	push	ecx
	push	esi
	mov	DWORD PTR [ebp-4], -858993460		; ccccccccH
	mov	ecx, OFFSET __BC13D883_xmlreader@c
	call	@__CheckForDebuggerJustMyCode@4

; 4123 :     xmlTextReaderPtr reader = (xmlTextReaderPtr) userData;

	mov	eax, DWORD PTR _userData$[ebp]
	mov	DWORD PTR _reader$[ebp], eax

; 4124 : 
; 4125 :     if (reader->sErrorFunc) {

	mov	ecx, DWORD PTR _reader$[ebp]
	cmp	DWORD PTR [ecx+192], 0
	je	SHORT $LN2@xmlTextRea

; 4126 :         reader->sErrorFunc(reader->errorFuncArg, error);

	mov	esi, esp
	mov	edx, DWORD PTR _error$[ebp]
	push	edx
	mov	eax, DWORD PTR _reader$[ebp]
	mov	ecx, DWORD PTR [eax+112]
	push	ecx
	mov	edx, DWORD PTR _reader$[ebp]
	mov	eax, DWORD PTR [edx+192]
	call	eax
	add	esp, 8
	cmp	esi, esp
	call	__RTC_CheckEsp

; 4127 :     } else {

	jmp	SHORT $LN1@xmlTextRea
$LN2@xmlTextRea:

; 4128 :         xmlTextReaderStructuredError(reader, error);

	mov	ecx, DWORD PTR _error$[ebp]
	push	ecx
	mov	edx, DWORD PTR _reader$[ebp]
	push	edx
	call	_xmlTextReaderStructuredError
	add	esp, 8
$LN1@xmlTextRea:

; 4129 :     }
; 4130 : }

	pop	esi
	add	esp, 4
	cmp	ebp, esp
	call	__RTC_CheckEsp
	mov	esp, ebp
	pop	ebp
	ret	0
_xmlTextReaderValidityStructuredRelay ENDP
_TEXT	ENDS
; Function compile flags: /Odtp /RTCsu
; File c:\users\dag\documents\_clients\codeproject authors group\windows on arm\libxml2\libxml2-2.9.9\xmlreader.c
;	COMDAT _xmlTextReaderStructuredError
_TEXT	SEGMENT
_reader$ = -8						; size = 4
_ctx$ = -4						; size = 4
_ctxt$ = 8						; size = 4
_error$ = 12						; size = 4
_xmlTextReaderStructuredError PROC			; COMDAT

; 4853 : {

	push	ebp
	mov	ebp, esp
	sub	esp, 8
	push	esi
	mov	DWORD PTR [ebp-8], -858993460		; ccccccccH
	mov	DWORD PTR [ebp-4], -858993460		; ccccccccH
	mov	ecx, OFFSET __BC13D883_xmlreader@c
	call	@__CheckForDebuggerJustMyCode@4

; 4854 :     xmlParserCtxtPtr ctx = (xmlParserCtxtPtr) ctxt;

	mov	eax, DWORD PTR _ctxt$[ebp]
	mov	DWORD PTR _ctx$[ebp], eax

; 4855 : 
; 4856 :     xmlTextReaderPtr reader = (xmlTextReaderPtr) ctx->_private;

	mov	ecx, DWORD PTR _ctx$[ebp]
	mov	edx, DWORD PTR [ecx+272]
	mov	DWORD PTR _reader$[ebp], edx

; 4857 : 
; 4858 :     if (error && reader->sErrorFunc) {

	cmp	DWORD PTR _error$[ebp], 0
	je	SHORT $LN1@xmlTextRea
	mov	eax, DWORD PTR _reader$[ebp]
	cmp	DWORD PTR [eax+192], 0
	je	SHORT $LN1@xmlTextRea

; 4859 :         reader->sErrorFunc(reader->errorFuncArg, (xmlErrorPtr) error);

	mov	esi, esp
	mov	ecx, DWORD PTR _error$[ebp]
	push	ecx
	mov	edx, DWORD PTR _reader$[ebp]
	mov	eax, DWORD PTR [edx+112]
	push	eax
	mov	ecx, DWORD PTR _reader$[ebp]
	mov	edx, DWORD PTR [ecx+192]
	call	edx
	add	esp, 8
	cmp	esi, esp
	call	__RTC_CheckEsp
$LN1@xmlTextRea:

; 4860 :     }
; 4861 : }

	pop	esi
	add	esp, 8
	cmp	ebp, esp
	call	__RTC_CheckEsp
	mov	esp, ebp
	pop	ebp
	ret	0
_xmlTextReaderStructuredError ENDP
_TEXT	ENDS
; Function compile flags: /Odtp /RTCsu
; File c:\users\dag\documents\_clients\codeproject authors group\windows on arm\libxml2\libxml2-2.9.9\xmlreader.c
;	COMDAT _xmlTextReaderValidityWarningRelay
_TEXT	SEGMENT
_ap$ = -12						; size = 4
_str$ = -8						; size = 4
_reader$ = -4						; size = 4
_ctx$ = 8						; size = 4
_msg$ = 12						; size = 4
_xmlTextReaderValidityWarningRelay PROC			; COMDAT

; 4096 : {

	push	ebp
	mov	ebp, esp
	sub	esp, 12					; 0000000cH
	push	esi
	mov	DWORD PTR [ebp-12], -858993460		; ccccccccH
	mov	DWORD PTR [ebp-8], -858993460		; ccccccccH
	mov	DWORD PTR [ebp-4], -858993460		; ccccccccH
	mov	ecx, OFFSET __BC13D883_xmlreader@c
	call	@__CheckForDebuggerJustMyCode@4

; 4097 :     xmlTextReaderPtr reader = (xmlTextReaderPtr) ctx;

	mov	eax, DWORD PTR _ctx$[ebp]
	mov	DWORD PTR _reader$[ebp], eax

; 4098 : 
; 4099 :     char *str;
; 4100 : 
; 4101 :     va_list ap;
; 4102 : 
; 4103 :     va_start(ap, msg);

	lea	ecx, DWORD PTR _msg$[ebp+4]
	mov	DWORD PTR _ap$[ebp], ecx

; 4104 :     str = xmlTextReaderBuildMessage(msg, ap);

	mov	edx, DWORD PTR _ap$[ebp]
	push	edx
	mov	eax, DWORD PTR _msg$[ebp]
	push	eax
	call	_xmlTextReaderBuildMessage
	add	esp, 8
	mov	DWORD PTR _str$[ebp], eax

; 4105 :     if (!reader->errorFunc) {

	mov	ecx, DWORD PTR _reader$[ebp]
	cmp	DWORD PTR [ecx+108], 0
	jne	SHORT $LN2@xmlTextRea

; 4106 :         xmlTextReaderValidityWarning(ctx, "%s", str);

	mov	edx, DWORD PTR _str$[ebp]
	push	edx
	push	OFFSET ??_C@_02DKCKIIND@?$CFs@
	mov	eax, DWORD PTR _ctx$[ebp]
	push	eax
	call	_xmlTextReaderValidityWarning
	add	esp, 12					; 0000000cH

; 4107 :     } else {

	jmp	SHORT $LN3@xmlTextRea
$LN2@xmlTextRea:

; 4108 :         reader->errorFunc(reader->errorFuncArg, str,

	mov	esi, esp
	push	0
	push	1
	mov	ecx, DWORD PTR _str$[ebp]
	push	ecx
	mov	edx, DWORD PTR _reader$[ebp]
	mov	eax, DWORD PTR [edx+112]
	push	eax
	mov	ecx, DWORD PTR _reader$[ebp]
	mov	edx, DWORD PTR [ecx+108]
	call	edx
	add	esp, 16					; 00000010H
	cmp	esi, esp
	call	__RTC_CheckEsp
$LN3@xmlTextRea:

; 4109 :                           XML_PARSER_SEVERITY_VALIDITY_WARNING,
; 4110 :                           NULL /* locator */ );
; 4111 :     }
; 4112 :     if (str != NULL)

	cmp	DWORD PTR _str$[ebp], 0
	je	SHORT $LN4@xmlTextRea

; 4113 :         xmlFree(str);

	mov	esi, esp
	mov	eax, DWORD PTR _str$[ebp]
	push	eax
	call	DWORD PTR _xmlFree
	add	esp, 4
	cmp	esi, esp
	call	__RTC_CheckEsp
$LN4@xmlTextRea:

; 4114 :     va_end(ap);

	mov	DWORD PTR _ap$[ebp], 0

; 4115 : }

	pop	esi
	add	esp, 12					; 0000000cH
	cmp	ebp, esp
	call	__RTC_CheckEsp
	mov	esp, ebp
	pop	ebp
	ret	0
_xmlTextReaderValidityWarningRelay ENDP
_TEXT	ENDS
; Function compile flags: /Odtp /RTCsu
; File c:\users\dag\documents\_clients\codeproject authors group\windows on arm\libxml2\libxml2-2.9.9\xmlreader.c
;	COMDAT _xmlTextReaderValidityErrorRelay
_TEXT	SEGMENT
_ap$ = -12						; size = 4
_str$ = -8						; size = 4
_reader$ = -4						; size = 4
_ctx$ = 8						; size = 4
_msg$ = 12						; size = 4
_xmlTextReaderValidityErrorRelay PROC			; COMDAT

; 4073 : {

	push	ebp
	mov	ebp, esp
	sub	esp, 12					; 0000000cH
	push	esi
	mov	DWORD PTR [ebp-12], -858993460		; ccccccccH
	mov	DWORD PTR [ebp-8], -858993460		; ccccccccH
	mov	DWORD PTR [ebp-4], -858993460		; ccccccccH
	mov	ecx, OFFSET __BC13D883_xmlreader@c
	call	@__CheckForDebuggerJustMyCode@4

; 4074 :     xmlTextReaderPtr reader = (xmlTextReaderPtr) ctx;

	mov	eax, DWORD PTR _ctx$[ebp]
	mov	DWORD PTR _reader$[ebp], eax

; 4075 : 
; 4076 :     char *str;
; 4077 : 
; 4078 :     va_list ap;
; 4079 : 
; 4080 :     va_start(ap, msg);

	lea	ecx, DWORD PTR _msg$[ebp+4]
	mov	DWORD PTR _ap$[ebp], ecx

; 4081 :     str = xmlTextReaderBuildMessage(msg, ap);

	mov	edx, DWORD PTR _ap$[ebp]
	push	edx
	mov	eax, DWORD PTR _msg$[ebp]
	push	eax
	call	_xmlTextReaderBuildMessage
	add	esp, 8
	mov	DWORD PTR _str$[ebp], eax

; 4082 :     if (!reader->errorFunc) {

	mov	ecx, DWORD PTR _reader$[ebp]
	cmp	DWORD PTR [ecx+108], 0
	jne	SHORT $LN2@xmlTextRea

; 4083 :         xmlTextReaderValidityError(ctx, "%s", str);

	mov	edx, DWORD PTR _str$[ebp]
	push	edx
	push	OFFSET ??_C@_02DKCKIIND@?$CFs@
	mov	eax, DWORD PTR _ctx$[ebp]
	push	eax
	call	_xmlTextReaderValidityError
	add	esp, 12					; 0000000cH

; 4084 :     } else {

	jmp	SHORT $LN3@xmlTextRea
$LN2@xmlTextRea:

; 4085 :         reader->errorFunc(reader->errorFuncArg, str,

	mov	esi, esp
	push	0
	push	2
	mov	ecx, DWORD PTR _str$[ebp]
	push	ecx
	mov	edx, DWORD PTR _reader$[ebp]
	mov	eax, DWORD PTR [edx+112]
	push	eax
	mov	ecx, DWORD PTR _reader$[ebp]
	mov	edx, DWORD PTR [ecx+108]
	call	edx
	add	esp, 16					; 00000010H
	cmp	esi, esp
	call	__RTC_CheckEsp
$LN3@xmlTextRea:

; 4086 :                           XML_PARSER_SEVERITY_VALIDITY_ERROR,
; 4087 :                           NULL /* locator */ );
; 4088 :     }
; 4089 :     if (str != NULL)

	cmp	DWORD PTR _str$[ebp], 0
	je	SHORT $LN4@xmlTextRea

; 4090 :         xmlFree(str);

	mov	esi, esp
	mov	eax, DWORD PTR _str$[ebp]
	push	eax
	call	DWORD PTR _xmlFree
	add	esp, 4
	cmp	esi, esp
	call	__RTC_CheckEsp
$LN4@xmlTextRea:

; 4091 :     va_end(ap);

	mov	DWORD PTR _ap$[ebp], 0

; 4092 : }

	pop	esi
	add	esp, 12					; 0000000cH
	cmp	ebp, esp
	call	__RTC_CheckEsp
	mov	esp, ebp
	pop	ebp
	ret	0
_xmlTextReaderValidityErrorRelay ENDP
_TEXT	ENDS
; Function compile flags: /Odtp /RTCsu
; File c:\users\dag\documents\_clients\codeproject authors group\windows on arm\libxml2\libxml2-2.9.9\xmlreader.c
;	COMDAT _xmlTextReaderValidityWarning
_TEXT	SEGMENT
_len$ = -8						; size = 4
_ap$ = -4						; size = 4
_ctxt$ = 8						; size = 4
_msg$ = 12						; size = 4
_xmlTextReaderValidityWarning PROC			; COMDAT

; 4910 : {

	push	ebp
	mov	ebp, esp
	sub	esp, 8
	mov	DWORD PTR [ebp-8], -858993460		; ccccccccH
	mov	DWORD PTR [ebp-4], -858993460		; ccccccccH
	mov	ecx, OFFSET __BC13D883_xmlreader@c
	call	@__CheckForDebuggerJustMyCode@4

; 4911 :     va_list ap;
; 4912 : 
; 4913 :     int len = xmlStrlen((const xmlChar *) msg);

	mov	eax, DWORD PTR _msg$[ebp]
	push	eax
	call	_xmlStrlen
	add	esp, 4
	mov	DWORD PTR _len$[ebp], eax

; 4914 : 
; 4915 :     if ((len != 0) && (msg[len - 1] != ':')) {

	cmp	DWORD PTR _len$[ebp], 0
	je	SHORT $LN1@xmlTextRea
	mov	ecx, DWORD PTR _msg$[ebp]
	add	ecx, DWORD PTR _len$[ebp]
	movsx	edx, BYTE PTR [ecx-1]
	cmp	edx, 58					; 0000003aH
	je	SHORT $LN1@xmlTextRea

; 4916 :         /*
; 4917 :          * some callbacks only report locator information:
; 4918 :          * skip them (mimicking behaviour in error.c)
; 4919 :          */
; 4920 :         va_start(ap, msg);

	lea	eax, DWORD PTR _msg$[ebp+4]
	mov	DWORD PTR _ap$[ebp], eax

; 4921 :         xmlTextReaderGenericError(ctxt,

	mov	ecx, DWORD PTR _ap$[ebp]
	push	ecx
	mov	edx, DWORD PTR _msg$[ebp]
	push	edx
	call	_xmlTextReaderBuildMessage
	add	esp, 8
	push	eax
	push	1
	mov	eax, DWORD PTR _ctxt$[ebp]
	push	eax
	call	_xmlTextReaderGenericError
	add	esp, 12					; 0000000cH

; 4922 :                                   XML_PARSER_SEVERITY_VALIDITY_WARNING,
; 4923 :                                   xmlTextReaderBuildMessage(msg, ap));
; 4924 :         va_end(ap);

	mov	DWORD PTR _ap$[ebp], 0
$LN1@xmlTextRea:

; 4925 :     }
; 4926 : }

	add	esp, 8
	cmp	ebp, esp
	call	__RTC_CheckEsp
	mov	esp, ebp
	pop	ebp
	ret	0
_xmlTextReaderValidityWarning ENDP
_TEXT	ENDS
; Function compile flags: /Odtp /RTCsu
; File c:\users\dag\documents\_clients\codeproject authors group\windows on arm\libxml2\libxml2-2.9.9\xmlreader.c
;	COMDAT _xmlTextReaderValidityError
_TEXT	SEGMENT
_len$ = -8						; size = 4
_ap$ = -4						; size = 4
_ctxt$ = 8						; size = 4
_msg$ = 12						; size = 4
_xmlTextReaderValidityError PROC			; COMDAT

; 4890 : {

	push	ebp
	mov	ebp, esp
	sub	esp, 8
	mov	DWORD PTR [ebp-8], -858993460		; ccccccccH
	mov	DWORD PTR [ebp-4], -858993460		; ccccccccH
	mov	ecx, OFFSET __BC13D883_xmlreader@c
	call	@__CheckForDebuggerJustMyCode@4

; 4891 :     va_list ap;
; 4892 : 
; 4893 :     int len = xmlStrlen((const xmlChar *) msg);

	mov	eax, DWORD PTR _msg$[ebp]
	push	eax
	call	_xmlStrlen
	add	esp, 4
	mov	DWORD PTR _len$[ebp], eax

; 4894 : 
; 4895 :     if ((len > 1) && (msg[len - 2] != ':')) {

	cmp	DWORD PTR _len$[ebp], 1
	jle	SHORT $LN1@xmlTextRea
	mov	ecx, DWORD PTR _msg$[ebp]
	add	ecx, DWORD PTR _len$[ebp]
	movsx	edx, BYTE PTR [ecx-2]
	cmp	edx, 58					; 0000003aH
	je	SHORT $LN1@xmlTextRea

; 4896 :         /*
; 4897 :          * some callbacks only report locator information:
; 4898 :          * skip them (mimicking behaviour in error.c)
; 4899 :          */
; 4900 :         va_start(ap, msg);

	lea	eax, DWORD PTR _msg$[ebp+4]
	mov	DWORD PTR _ap$[ebp], eax

; 4901 :         xmlTextReaderGenericError(ctxt,

	mov	ecx, DWORD PTR _ap$[ebp]
	push	ecx
	mov	edx, DWORD PTR _msg$[ebp]
	push	edx
	call	_xmlTextReaderBuildMessage
	add	esp, 8
	push	eax
	push	2
	mov	eax, DWORD PTR _ctxt$[ebp]
	push	eax
	call	_xmlTextReaderGenericError
	add	esp, 12					; 0000000cH

; 4902 :                                   XML_PARSER_SEVERITY_VALIDITY_ERROR,
; 4903 :                                   xmlTextReaderBuildMessage(msg, ap));
; 4904 :         va_end(ap);

	mov	DWORD PTR _ap$[ebp], 0
$LN1@xmlTextRea:

; 4905 :     }
; 4906 : }

	add	esp, 8
	cmp	ebp, esp
	call	__RTC_CheckEsp
	mov	esp, ebp
	pop	ebp
	ret	0
_xmlTextReaderValidityError ENDP
_TEXT	ENDS
; Function compile flags: /Odtp /RTCsu
; File c:\users\dag\documents\_clients\codeproject authors group\windows on arm\libxml2\libxml2-2.9.9\xmlreader.c
; File c:\program files (x86)\windows kits\10\include\10.0.17763.0\ucrt\stdio.h
; File c:\users\dag\documents\_clients\codeproject authors group\windows on arm\libxml2\libxml2-2.9.9\xmlreader.c
;	COMDAT _xmlTextReaderBuildMessage
_TEXT	SEGMENT
tv134 = -28						; size = 4
__Result$1 = -24					; size = 4
_aq$ = -20						; size = 4
_str$ = -16						; size = 4
_larger$ = -12						; size = 4
_chars$ = -8						; size = 4
_size$ = -4						; size = 4
_msg$ = 8						; size = 4
_ap$ = 12						; size = 4
_xmlTextReaderBuildMessage PROC				; COMDAT

; 4727 : xmlTextReaderBuildMessage(const char *msg, va_list ap) {

	push	ebp
	mov	ebp, esp
	sub	esp, 28					; 0000001cH
	push	esi
	mov	eax, -858993460				; ccccccccH
	mov	DWORD PTR [ebp-28], eax
	mov	DWORD PTR [ebp-24], eax
	mov	DWORD PTR [ebp-20], eax
	mov	DWORD PTR [ebp-16], eax
	mov	DWORD PTR [ebp-12], eax
	mov	DWORD PTR [ebp-8], eax
	mov	DWORD PTR [ebp-4], eax
	mov	ecx, OFFSET __BC13D883_xmlreader@c
	call	@__CheckForDebuggerJustMyCode@4

; 4728 :     int size = 0;

	mov	DWORD PTR _size$[ebp], 0

; 4729 :     int chars;
; 4730 :     char *larger;
; 4731 :     char *str = NULL;

	mov	DWORD PTR _str$[ebp], 0
$LN2@xmlTextRea:

; 4732 :     va_list aq;
; 4733 : 
; 4734 :     while (1) {

	mov	eax, 1
	test	eax, eax
	je	$LN3@xmlTextRea

; 4735 :         VA_COPY(aq, ap);

	mov	ecx, DWORD PTR _ap$[ebp]
	mov	DWORD PTR _aq$[ebp], ecx
; File c:\program files (x86)\windows kits\10\include\10.0.17763.0\ucrt\stdio.h

; 1440 :         int const _Result = __stdio_common_vsprintf(

	mov	esi, esp
	mov	edx, DWORD PTR _aq$[ebp]
	push	edx
	push	0
	mov	eax, DWORD PTR _msg$[ebp]
	push	eax
	mov	ecx, DWORD PTR _size$[ebp]
	push	ecx
	mov	edx, DWORD PTR _str$[ebp]
	push	edx
	call	___local_stdio_printf_options
	mov	ecx, DWORD PTR [eax]
	or	ecx, 2
	mov	edx, DWORD PTR [eax+4]
	push	edx
	push	ecx
	call	DWORD PTR __imp____stdio_common_vsprintf
	add	esp, 28					; 0000001cH
	cmp	esi, esp
	call	__RTC_CheckEsp
	mov	DWORD PTR __Result$1[ebp], eax

; 1441 :             _CRT_INTERNAL_LOCAL_PRINTF_OPTIONS | _CRT_INTERNAL_PRINTF_STANDARD_SNPRINTF_BEHAVIOR,
; 1442 :             _Buffer, _BufferCount, _Format, NULL, _ArgList);
; 1443 : 
; 1444 :         return _Result < 0 ? -1 : _Result;

	cmp	DWORD PTR __Result$1[ebp], 0
	jge	SHORT $LN15@xmlTextRea
	mov	DWORD PTR tv134[ebp], -1
	jmp	SHORT $LN13@xmlTextRea
$LN15@xmlTextRea:
	mov	eax, DWORD PTR __Result$1[ebp]
	mov	DWORD PTR tv134[ebp], eax
$LN13@xmlTextRea:
; File c:\users\dag\documents\_clients\codeproject authors group\windows on arm\libxml2\libxml2-2.9.9\xmlreader.c

; 4736 :         chars = vsnprintf(str, size, msg, aq);

	mov	ecx, DWORD PTR tv134[ebp]
	mov	DWORD PTR _chars$[ebp], ecx

; 4737 :         va_end(aq);

	mov	DWORD PTR _aq$[ebp], 0

; 4738 :         if (chars < 0) {

	cmp	DWORD PTR _chars$[ebp], 0
	jge	SHORT $LN4@xmlTextRea

; 4739 : 	    xmlGenericError(xmlGenericErrorContext, "vsnprintf failed !\n");

	mov	esi, esp
	push	OFFSET ??_C@_0BE@KJPJIHAO@vsnprintf?5failed?5?$CB?6@
	call	___xmlGenericErrorContext
	mov	edx, DWORD PTR [eax]
	push	edx
	call	___xmlGenericError
	mov	eax, DWORD PTR [eax]
	call	eax
	add	esp, 8
	cmp	esi, esp
	call	__RTC_CheckEsp

; 4740 : 	    if (str)

	cmp	DWORD PTR _str$[ebp], 0
	je	SHORT $LN5@xmlTextRea

; 4741 : 		xmlFree(str);

	mov	esi, esp
	mov	ecx, DWORD PTR _str$[ebp]
	push	ecx
	call	DWORD PTR _xmlFree
	add	esp, 4
	cmp	esi, esp
	call	__RTC_CheckEsp
$LN5@xmlTextRea:

; 4742 : 	    return NULL;

	xor	eax, eax
	jmp	$LN1@xmlTextRea
$LN4@xmlTextRea:

; 4743 : 	}
; 4744 : 	if ((chars < size) || (size == MAX_ERR_MSG_SIZE))

	mov	edx, DWORD PTR _chars$[ebp]
	cmp	edx, DWORD PTR _size$[ebp]
	jl	SHORT $LN7@xmlTextRea
	cmp	DWORD PTR _size$[ebp], 64000		; 0000fa00H
	jne	SHORT $LN6@xmlTextRea
$LN7@xmlTextRea:

; 4745 :             break;

	jmp	$LN3@xmlTextRea
$LN6@xmlTextRea:

; 4746 :         if (chars < MAX_ERR_MSG_SIZE)

	cmp	DWORD PTR _chars$[ebp], 64000		; 0000fa00H
	jge	SHORT $LN8@xmlTextRea

; 4747 : 	size = chars + 1;

	mov	eax, DWORD PTR _chars$[ebp]
	add	eax, 1
	mov	DWORD PTR _size$[ebp], eax
	jmp	SHORT $LN9@xmlTextRea
$LN8@xmlTextRea:

; 4748 : 	else
; 4749 : 		size = MAX_ERR_MSG_SIZE;

	mov	DWORD PTR _size$[ebp], 64000		; 0000fa00H
$LN9@xmlTextRea:

; 4750 :         if ((larger = (char *) xmlRealloc(str, size)) == NULL) {

	mov	esi, esp
	mov	ecx, DWORD PTR _size$[ebp]
	push	ecx
	mov	edx, DWORD PTR _str$[ebp]
	push	edx
	call	DWORD PTR _xmlRealloc
	add	esp, 8
	cmp	esi, esp
	call	__RTC_CheckEsp
	mov	DWORD PTR _larger$[ebp], eax
	cmp	DWORD PTR _larger$[ebp], 0
	jne	SHORT $LN10@xmlTextRea

; 4751 : 	    xmlGenericError(xmlGenericErrorContext, "xmlRealloc failed !\n");

	mov	esi, esp
	push	OFFSET ??_C@_0BF@DCPGEBNC@xmlRealloc?5failed?5?$CB?6@
	call	___xmlGenericErrorContext
	mov	eax, DWORD PTR [eax]
	push	eax
	call	___xmlGenericError
	mov	ecx, DWORD PTR [eax]
	call	ecx
	add	esp, 8
	cmp	esi, esp
	call	__RTC_CheckEsp

; 4752 : 	    if (str)

	cmp	DWORD PTR _str$[ebp], 0
	je	SHORT $LN11@xmlTextRea

; 4753 :                 xmlFree(str);

	mov	esi, esp
	mov	edx, DWORD PTR _str$[ebp]
	push	edx
	call	DWORD PTR _xmlFree
	add	esp, 4
	cmp	esi, esp
	call	__RTC_CheckEsp
$LN11@xmlTextRea:

; 4754 :             return NULL;

	xor	eax, eax
	jmp	SHORT $LN1@xmlTextRea
$LN10@xmlTextRea:

; 4755 :         }
; 4756 :         str = larger;

	mov	eax, DWORD PTR _larger$[ebp]
	mov	DWORD PTR _str$[ebp], eax

; 4757 :     }

	jmp	$LN2@xmlTextRea
$LN3@xmlTextRea:

; 4758 : 
; 4759 :     return str;

	mov	eax, DWORD PTR _str$[ebp]
$LN1@xmlTextRea:

; 4760 : }

	pop	esi
	add	esp, 28					; 0000001cH
	cmp	ebp, esp
	call	__RTC_CheckEsp
	mov	esp, ebp
	pop	ebp
	ret	0
_xmlTextReaderBuildMessage ENDP
_TEXT	ENDS
; Function compile flags: /Odtp /RTCsu
; File c:\users\dag\documents\_clients\codeproject authors group\windows on arm\libxml2\libxml2-2.9.9\xmlreader.c
;	COMDAT _xmlTextReaderCollectSiblings
_TEXT	SEGMENT
tv72 = -16						; size = 4
_tmp$1 = -12						; size = 4
_ret$ = -8						; size = 4
_buffer$ = -4						; size = 4
_node$ = 8						; size = 4
_xmlTextReaderCollectSiblings PROC			; COMDAT

; 1245 : {

	push	ebp
	mov	ebp, esp
	sub	esp, 16					; 00000010H
	push	esi
	mov	eax, -858993460				; ccccccccH
	mov	DWORD PTR [ebp-16], eax
	mov	DWORD PTR [ebp-12], eax
	mov	DWORD PTR [ebp-8], eax
	mov	DWORD PTR [ebp-4], eax
	mov	ecx, OFFSET __BC13D883_xmlreader@c
	call	@__CheckForDebuggerJustMyCode@4

; 1246 :     xmlBufferPtr buffer;
; 1247 :     xmlChar *ret;
; 1248 : 
; 1249 :     if ((node == NULL) || (node->type == XML_NAMESPACE_DECL))

	cmp	DWORD PTR _node$[ebp], 0
	je	SHORT $LN8@xmlTextRea
	mov	eax, DWORD PTR _node$[ebp]
	cmp	DWORD PTR [eax+4], 18			; 00000012H
	jne	SHORT $LN7@xmlTextRea
$LN8@xmlTextRea:

; 1250 :         return(NULL);

	xor	eax, eax
	jmp	$LN1@xmlTextRea
$LN7@xmlTextRea:

; 1251 : 
; 1252 :     buffer = xmlBufferCreate();

	call	_xmlBufferCreate
	mov	DWORD PTR _buffer$[ebp], eax

; 1253 :     if (buffer == NULL)

	cmp	DWORD PTR _buffer$[ebp], 0
	jne	SHORT $LN9@xmlTextRea

; 1254 :        return NULL;

	xor	eax, eax
	jmp	$LN1@xmlTextRea
$LN9@xmlTextRea:

; 1255 : 
; 1256 :     for ( ; node != NULL; node = node->next) {

	jmp	SHORT $LN4@xmlTextRea
$LN2@xmlTextRea:
	mov	ecx, DWORD PTR _node$[ebp]
	mov	edx, DWORD PTR [ecx+24]
	mov	DWORD PTR _node$[ebp], edx
$LN4@xmlTextRea:
	cmp	DWORD PTR _node$[ebp], 0
	je	SHORT $LN3@xmlTextRea

; 1257 :        switch (node->type) {

	mov	eax, DWORD PTR _node$[ebp]
	mov	ecx, DWORD PTR [eax+4]
	mov	DWORD PTR tv72[ebp], ecx
	cmp	DWORD PTR tv72[ebp], 1
	je	SHORT $LN11@xmlTextRea
	cmp	DWORD PTR tv72[ebp], 2
	jle	SHORT $LN5@xmlTextRea
	cmp	DWORD PTR tv72[ebp], 4
	jle	SHORT $LN10@xmlTextRea
	jmp	SHORT $LN5@xmlTextRea
$LN10@xmlTextRea:

; 1258 :        case XML_TEXT_NODE:
; 1259 :        case XML_CDATA_SECTION_NODE:
; 1260 :            xmlBufferCat(buffer, node->content);

	mov	edx, DWORD PTR _node$[ebp]
	mov	eax, DWORD PTR [edx+40]
	push	eax
	mov	ecx, DWORD PTR _buffer$[ebp]
	push	ecx
	call	_xmlBufferCat
	add	esp, 8

; 1261 :            break;

	jmp	SHORT $LN5@xmlTextRea
$LN11@xmlTextRea:

; 1262 :        case XML_ELEMENT_NODE: {
; 1263 :            xmlChar *tmp;
; 1264 : 
; 1265 : 	   tmp = xmlTextReaderCollectSiblings(node->children);

	mov	edx, DWORD PTR _node$[ebp]
	mov	eax, DWORD PTR [edx+12]
	push	eax
	call	_xmlTextReaderCollectSiblings
	add	esp, 4
	mov	DWORD PTR _tmp$1[ebp], eax

; 1266 :            xmlBufferCat(buffer, tmp);

	mov	ecx, DWORD PTR _tmp$1[ebp]
	push	ecx
	mov	edx, DWORD PTR _buffer$[ebp]
	push	edx
	call	_xmlBufferCat
	add	esp, 8

; 1267 : 	   xmlFree(tmp);

	mov	esi, esp
	mov	eax, DWORD PTR _tmp$1[ebp]
	push	eax
	call	DWORD PTR _xmlFree
	add	esp, 4
	cmp	esi, esp
	call	__RTC_CheckEsp
$LN5@xmlTextRea:

; 1268 : 	   break;
; 1269 :        }
; 1270 :        default:
; 1271 :            break;
; 1272 :        }
; 1273 :     }

	jmp	SHORT $LN2@xmlTextRea
$LN3@xmlTextRea:

; 1274 :     ret = buffer->content;

	mov	ecx, DWORD PTR _buffer$[ebp]
	mov	edx, DWORD PTR [ecx]
	mov	DWORD PTR _ret$[ebp], edx

; 1275 :     buffer->content = NULL;

	mov	eax, DWORD PTR _buffer$[ebp]
	mov	DWORD PTR [eax], 0

; 1276 :     xmlBufferFree(buffer);

	mov	ecx, DWORD PTR _buffer$[ebp]
	push	ecx
	call	_xmlBufferFree
	add	esp, 4

; 1277 :     return(ret);

	mov	eax, DWORD PTR _ret$[ebp]
$LN1@xmlTextRea:

; 1278 : }

	pop	esi
	add	esp, 16					; 00000010H
	cmp	ebp, esp
	call	__RTC_CheckEsp
	mov	esp, ebp
	pop	ebp
	ret	0
_xmlTextReaderCollectSiblings ENDP
_TEXT	ENDS
; Function compile flags: /Odtp /RTCsu
; File c:\users\dag\documents\_clients\codeproject authors group\windows on arm\libxml2\libxml2-2.9.9\xmlreader.c
;	COMDAT _xmlTextReaderDoExpand
_TEXT	SEGMENT
_val$ = -4						; size = 4
_reader$ = 8						; size = 4
_xmlTextReaderDoExpand PROC				; COMDAT

; 1210 : xmlTextReaderDoExpand(xmlTextReaderPtr reader) {

	push	ebp
	mov	ebp, esp
	push	ecx
	mov	DWORD PTR [ebp-4], -858993460		; ccccccccH
	mov	ecx, OFFSET __BC13D883_xmlreader@c
	call	@__CheckForDebuggerJustMyCode@4

; 1211 :     int val;
; 1212 : 
; 1213 :     if ((reader == NULL) || (reader->node == NULL) || (reader->ctxt == NULL))

	cmp	DWORD PTR _reader$[ebp], 0
	je	SHORT $LN6@xmlTextRea
	mov	eax, DWORD PTR _reader$[ebp]
	cmp	DWORD PTR [eax+64], 0
	je	SHORT $LN6@xmlTextRea
	mov	ecx, DWORD PTR _reader$[ebp]
	cmp	DWORD PTR [ecx+20], 0
	jne	SHORT $LN4@xmlTextRea
$LN6@xmlTextRea:

; 1214 :         return(-1);

	or	eax, -1
	jmp	$LN1@xmlTextRea
$LN4@xmlTextRea:

; 1215 :     do {
; 1216 : 	if (reader->ctxt->instate == XML_PARSER_EOF) return(1);

	mov	edx, DWORD PTR _reader$[ebp]
	mov	eax, DWORD PTR [edx+20]
	cmp	DWORD PTR [eax+172], -1
	jne	SHORT $LN7@xmlTextRea
	mov	eax, 1
	jmp	SHORT $LN1@xmlTextRea
$LN7@xmlTextRea:

; 1217 : 
; 1218 :         if (xmlTextReaderGetSuccessor(reader->node) != NULL)

	mov	ecx, DWORD PTR _reader$[ebp]
	mov	edx, DWORD PTR [ecx+64]
	push	edx
	call	_xmlTextReaderGetSuccessor
	add	esp, 4
	test	eax, eax
	je	SHORT $LN8@xmlTextRea

; 1219 : 	    return(1);

	mov	eax, 1
	jmp	SHORT $LN1@xmlTextRea
$LN8@xmlTextRea:

; 1220 : 	if (reader->ctxt->nodeNr < reader->depth)

	mov	eax, DWORD PTR _reader$[ebp]
	mov	ecx, DWORD PTR [eax+20]
	mov	edx, DWORD PTR _reader$[ebp]
	mov	eax, DWORD PTR [ecx+56]
	cmp	eax, DWORD PTR [edx+72]
	jge	SHORT $LN9@xmlTextRea

; 1221 : 	    return(1);

	mov	eax, 1
	jmp	SHORT $LN1@xmlTextRea
$LN9@xmlTextRea:

; 1222 : 	if (reader->mode == XML_TEXTREADER_MODE_EOF)

	mov	ecx, DWORD PTR _reader$[ebp]
	cmp	DWORD PTR [ecx], 3
	jne	SHORT $LN10@xmlTextRea

; 1223 : 	    return(1);

	mov	eax, 1
	jmp	SHORT $LN1@xmlTextRea
$LN10@xmlTextRea:

; 1224 : 	val = xmlTextReaderPushData(reader);

	mov	edx, DWORD PTR _reader$[ebp]
	push	edx
	call	_xmlTextReaderPushData
	add	esp, 4
	mov	DWORD PTR _val$[ebp], eax

; 1225 : 	if (val < 0){

	cmp	DWORD PTR _val$[ebp], 0
	jge	SHORT $LN2@xmlTextRea

; 1226 : 	    reader->mode = XML_TEXTREADER_MODE_ERROR;

	mov	eax, DWORD PTR _reader$[ebp]
	mov	DWORD PTR [eax], 2

; 1227 : 	    return(-1);

	or	eax, -1
	jmp	SHORT $LN1@xmlTextRea
$LN2@xmlTextRea:

; 1228 : 	}
; 1229 :     } while(reader->mode != XML_TEXTREADER_MODE_EOF);

	mov	ecx, DWORD PTR _reader$[ebp]
	cmp	DWORD PTR [ecx], 3
	jne	$LN4@xmlTextRea

; 1230 :     return(1);

	mov	eax, 1
$LN1@xmlTextRea:

; 1231 : }

	add	esp, 4
	cmp	ebp, esp
	call	__RTC_CheckEsp
	mov	esp, ebp
	pop	ebp
	ret	0
_xmlTextReaderDoExpand ENDP
_TEXT	ENDS
; Function compile flags: /Odtp /RTCsu
; File c:\users\dag\documents\_clients\codeproject authors group\windows on arm\libxml2\libxml2-2.9.9\xmlreader.c
;	COMDAT _xmlTextReaderGetSuccessor
_TEXT	SEGMENT
_cur$ = 8						; size = 4
_xmlTextReaderGetSuccessor PROC				; COMDAT

; 1187 : xmlTextReaderGetSuccessor(xmlNodePtr cur) {

	push	ebp
	mov	ebp, esp
	mov	ecx, OFFSET __BC13D883_xmlreader@c
	call	@__CheckForDebuggerJustMyCode@4

; 1188 :     if (cur == NULL) return(NULL) ; /* ERROR */

	cmp	DWORD PTR _cur$[ebp], 0
	jne	SHORT $LN5@xmlTextRea
	xor	eax, eax
	jmp	SHORT $LN1@xmlTextRea
$LN5@xmlTextRea:

; 1189 :     if (cur->next != NULL) return(cur->next) ;

	mov	eax, DWORD PTR _cur$[ebp]
	cmp	DWORD PTR [eax+24], 0
	je	SHORT $LN4@xmlTextRea
	mov	ecx, DWORD PTR _cur$[ebp]
	mov	eax, DWORD PTR [ecx+24]
	jmp	SHORT $LN1@xmlTextRea
$LN4@xmlTextRea:

; 1190 :     do {
; 1191 :         cur = cur->parent;

	mov	edx, DWORD PTR _cur$[ebp]
	mov	eax, DWORD PTR [edx+20]
	mov	DWORD PTR _cur$[ebp], eax

; 1192 :         if (cur == NULL) break;

	cmp	DWORD PTR _cur$[ebp], 0
	jne	SHORT $LN7@xmlTextRea
	jmp	SHORT $LN3@xmlTextRea
$LN7@xmlTextRea:

; 1193 :         if (cur->next != NULL) return(cur->next);

	mov	ecx, DWORD PTR _cur$[ebp]
	cmp	DWORD PTR [ecx+24], 0
	je	SHORT $LN2@xmlTextRea
	mov	edx, DWORD PTR _cur$[ebp]
	mov	eax, DWORD PTR [edx+24]
	jmp	SHORT $LN1@xmlTextRea
$LN2@xmlTextRea:

; 1194 :     } while (cur != NULL);

	cmp	DWORD PTR _cur$[ebp], 0
	jne	SHORT $LN4@xmlTextRea
$LN3@xmlTextRea:

; 1195 :     return(cur);

	mov	eax, DWORD PTR _cur$[ebp]
$LN1@xmlTextRea:

; 1196 : }

	cmp	ebp, esp
	call	__RTC_CheckEsp
	pop	ebp
	ret	0
_xmlTextReaderGetSuccessor ENDP
_TEXT	ENDS
; Function compile flags: /Odtp /RTCsu
; File c:\users\dag\documents\_clients\codeproject authors group\windows on arm\libxml2\libxml2-2.9.9\xmlreader.c
;	COMDAT _xmlTextReaderValidateEntity
_TEXT	SEGMENT
_tmp$1 = -16						; size = 4
_ctxt$ = -12						; size = 4
_node$ = -8						; size = 4
_oldnode$ = -4						; size = 4
_reader$ = 8						; size = 4
_xmlTextReaderValidateEntity PROC			; COMDAT

; 1090 : xmlTextReaderValidateEntity(xmlTextReaderPtr reader) {

	push	ebp
	mov	ebp, esp
	sub	esp, 16					; 00000010H
	push	esi
	mov	eax, -858993460				; ccccccccH
	mov	DWORD PTR [ebp-16], eax
	mov	DWORD PTR [ebp-12], eax
	mov	DWORD PTR [ebp-8], eax
	mov	DWORD PTR [ebp-4], eax
	mov	ecx, OFFSET __BC13D883_xmlreader@c
	call	@__CheckForDebuggerJustMyCode@4

; 1091 :     xmlNodePtr oldnode = reader->node;

	mov	eax, DWORD PTR _reader$[ebp]
	mov	ecx, DWORD PTR [eax+64]
	mov	DWORD PTR _oldnode$[ebp], ecx

; 1092 :     xmlNodePtr node = reader->node;

	mov	edx, DWORD PTR _reader$[ebp]
	mov	eax, DWORD PTR [edx+64]
	mov	DWORD PTR _node$[ebp], eax

; 1093 :     xmlParserCtxtPtr ctxt = reader->ctxt;

	mov	ecx, DWORD PTR _reader$[ebp]
	mov	edx, DWORD PTR [ecx+20]
	mov	DWORD PTR _ctxt$[ebp], edx
$LN4@xmlTextRea:

; 1094 : 
; 1095 :     do {
; 1096 : 	if (node->type == XML_ENTITY_REF_NODE) {

	mov	eax, DWORD PTR _node$[ebp]
	cmp	DWORD PTR [eax+4], 5
	jne	$LN10@xmlTextRea

; 1097 : 	    /*
; 1098 : 	     * Case where the underlying tree is not availble, lookup the entity
; 1099 : 	     * and walk it.
; 1100 : 	     */
; 1101 : 	    if ((node->children == NULL) && (ctxt->sax != NULL) &&

	mov	ecx, DWORD PTR _node$[ebp]
	cmp	DWORD PTR [ecx+12], 0
	jne	SHORT $LN12@xmlTextRea
	mov	edx, DWORD PTR _ctxt$[ebp]
	cmp	DWORD PTR [edx], 0
	je	SHORT $LN12@xmlTextRea
	mov	eax, DWORD PTR _ctxt$[ebp]
	mov	ecx, DWORD PTR [eax]
	cmp	DWORD PTR [ecx+20], 0
	je	SHORT $LN12@xmlTextRea

; 1102 : 		(ctxt->sax->getEntity != NULL)) {
; 1103 : 		node->children = (xmlNodePtr)

	mov	esi, esp
	mov	edx, DWORD PTR _node$[ebp]
	mov	eax, DWORD PTR [edx+8]
	push	eax
	mov	ecx, DWORD PTR _ctxt$[ebp]
	push	ecx
	mov	edx, DWORD PTR _ctxt$[ebp]
	mov	eax, DWORD PTR [edx]
	mov	ecx, DWORD PTR [eax+20]
	call	ecx
	add	esp, 8
	cmp	esi, esp
	call	__RTC_CheckEsp
	mov	edx, DWORD PTR _node$[ebp]
	mov	DWORD PTR [edx+12], eax
$LN12@xmlTextRea:

; 1104 : 		    ctxt->sax->getEntity(ctxt, node->name);
; 1105 : 	    }
; 1106 : 
; 1107 : 	    if ((node->children != NULL) &&
; 1108 : 		(node->children->type == XML_ENTITY_DECL) &&

	mov	eax, DWORD PTR _node$[ebp]
	cmp	DWORD PTR [eax+12], 0
	je	SHORT $LN13@xmlTextRea
	mov	ecx, DWORD PTR _node$[ebp]
	mov	edx, DWORD PTR [ecx+12]
	cmp	DWORD PTR [edx+4], 17			; 00000011H
	jne	SHORT $LN13@xmlTextRea
	mov	eax, DWORD PTR _node$[ebp]
	mov	ecx, DWORD PTR [eax+12]
	cmp	DWORD PTR [ecx+12], 0
	je	SHORT $LN13@xmlTextRea

; 1109 : 		(node->children->children != NULL)) {
; 1110 : 		xmlTextReaderEntPush(reader, node);

	mov	edx, DWORD PTR _node$[ebp]
	push	edx
	mov	eax, DWORD PTR _reader$[ebp]
	push	eax
	call	_xmlTextReaderEntPush
	add	esp, 8

; 1111 : 		node = node->children->children;

	mov	ecx, DWORD PTR _node$[ebp]
	mov	edx, DWORD PTR [ecx+12]
	mov	eax, DWORD PTR [edx+12]
	mov	DWORD PTR _node$[ebp], eax

; 1112 : 		continue;

	jmp	$LN2@xmlTextRea

; 1113 : 	    } else {

	jmp	SHORT $LN14@xmlTextRea
$LN13@xmlTextRea:

; 1114 : 		/*
; 1115 : 		 * The error has probably be raised already.
; 1116 : 		 */
; 1117 : 		if (node == oldnode)

	mov	ecx, DWORD PTR _node$[ebp]
	cmp	ecx, DWORD PTR _oldnode$[ebp]
	jne	SHORT $LN15@xmlTextRea

; 1118 : 		    break;

	jmp	$LN3@xmlTextRea
$LN15@xmlTextRea:

; 1119 : 		node = node->next;

	mov	edx, DWORD PTR _node$[ebp]
	mov	eax, DWORD PTR [edx+24]
	mov	DWORD PTR _node$[ebp], eax
$LN14@xmlTextRea:

; 1120 : 	    }

	jmp	SHORT $LN11@xmlTextRea
$LN10@xmlTextRea:

; 1121 : #ifdef LIBXML_REGEXP_ENABLED
; 1122 : 	} else if (node->type == XML_ELEMENT_NODE) {

	mov	ecx, DWORD PTR _node$[ebp]
	cmp	DWORD PTR [ecx+4], 1
	jne	SHORT $LN16@xmlTextRea

; 1123 : 	    reader->node = node;

	mov	edx, DWORD PTR _reader$[ebp]
	mov	eax, DWORD PTR _node$[ebp]
	mov	DWORD PTR [edx+64], eax

; 1124 : 	    xmlTextReaderValidatePush(reader);

	mov	ecx, DWORD PTR _reader$[ebp]
	push	ecx
	call	_xmlTextReaderValidatePush
	add	esp, 4
	jmp	SHORT $LN11@xmlTextRea
$LN16@xmlTextRea:

; 1125 : 	} else if ((node->type == XML_TEXT_NODE) ||

	mov	edx, DWORD PTR _node$[ebp]
	cmp	DWORD PTR [edx+4], 3
	je	SHORT $LN19@xmlTextRea
	mov	eax, DWORD PTR _node$[ebp]
	cmp	DWORD PTR [eax+4], 4
	jne	SHORT $LN11@xmlTextRea
$LN19@xmlTextRea:

; 1126 : 		   (node->type == XML_CDATA_SECTION_NODE)) {
; 1127 :             xmlTextReaderValidateCData(reader, node->content,

	mov	ecx, DWORD PTR _node$[ebp]
	mov	edx, DWORD PTR [ecx+40]
	push	edx
	call	_xmlStrlen
	add	esp, 4
	push	eax
	mov	eax, DWORD PTR _node$[ebp]
	mov	ecx, DWORD PTR [eax+40]
	push	ecx
	mov	edx, DWORD PTR _reader$[ebp]
	push	edx
	call	_xmlTextReaderValidateCData
	add	esp, 12					; 0000000cH
$LN11@xmlTextRea:

; 1128 : 	                               xmlStrlen(node->content));
; 1129 : #endif
; 1130 : 	}
; 1131 : 
; 1132 : 	/*
; 1133 : 	 * go to next node
; 1134 : 	 */
; 1135 : 	if (node->children != NULL) {

	mov	eax, DWORD PTR _node$[ebp]
	cmp	DWORD PTR [eax+12], 0
	je	SHORT $LN20@xmlTextRea

; 1136 : 	    node = node->children;

	mov	ecx, DWORD PTR _node$[ebp]
	mov	edx, DWORD PTR [ecx+12]
	mov	DWORD PTR _node$[ebp], edx

; 1137 : 	    continue;

	jmp	$LN2@xmlTextRea
	jmp	SHORT $LN21@xmlTextRea
$LN20@xmlTextRea:

; 1138 : 	} else if (node->type == XML_ELEMENT_NODE) {

	mov	eax, DWORD PTR _node$[ebp]
	cmp	DWORD PTR [eax+4], 1
	jne	SHORT $LN21@xmlTextRea

; 1139 : 	    xmlTextReaderValidatePop(reader);

	mov	ecx, DWORD PTR _reader$[ebp]
	push	ecx
	call	_xmlTextReaderValidatePop
	add	esp, 4
$LN21@xmlTextRea:

; 1140 : 	}
; 1141 : 	if (node->next != NULL) {

	mov	edx, DWORD PTR _node$[ebp]
	cmp	DWORD PTR [edx+24], 0
	je	SHORT $LN7@xmlTextRea

; 1142 : 	    node = node->next;

	mov	eax, DWORD PTR _node$[ebp]
	mov	ecx, DWORD PTR [eax+24]
	mov	DWORD PTR _node$[ebp], ecx

; 1143 : 	    continue;

	jmp	$LN2@xmlTextRea
$LN7@xmlTextRea:

; 1144 : 	}
; 1145 : 	do {
; 1146 : 	    node = node->parent;

	mov	edx, DWORD PTR _node$[ebp]
	mov	eax, DWORD PTR [edx+20]
	mov	DWORD PTR _node$[ebp], eax

; 1147 : 	    if (node->type == XML_ELEMENT_NODE) {

	mov	ecx, DWORD PTR _node$[ebp]
	cmp	DWORD PTR [ecx+4], 1
	jne	SHORT $LN24@xmlTextRea

; 1148 : 	        xmlNodePtr tmp;
; 1149 : 		if (reader->entNr == 0) {

	mov	edx, DWORD PTR _reader$[ebp]
	cmp	DWORD PTR [edx+96], 0
	jne	SHORT $LN25@xmlTextRea
$LN8@xmlTextRea:

; 1150 : 		    while ((tmp = node->last) != NULL) {

	mov	eax, DWORD PTR _node$[ebp]
	mov	ecx, DWORD PTR [eax+16]
	mov	DWORD PTR _tmp$1[ebp], ecx
	cmp	DWORD PTR _tmp$1[ebp], 0
	je	SHORT $LN25@xmlTextRea

; 1151 : 			if ((tmp->extra & NODE_IS_PRESERVED) == 0) {

	mov	edx, DWORD PTR _tmp$1[ebp]
	movzx	eax, WORD PTR [edx+58]
	and	eax, 2
	jne	SHORT $LN26@xmlTextRea

; 1152 : 			    xmlUnlinkNode(tmp);

	mov	ecx, DWORD PTR _tmp$1[ebp]
	push	ecx
	call	_xmlUnlinkNode
	add	esp, 4

; 1153 : 			    xmlTextReaderFreeNode(reader, tmp);

	mov	edx, DWORD PTR _tmp$1[ebp]
	push	edx
	mov	eax, DWORD PTR _reader$[ebp]
	push	eax
	call	_xmlTextReaderFreeNode
	add	esp, 8

; 1154 : 			} else

	jmp	SHORT $LN27@xmlTextRea
$LN26@xmlTextRea:

; 1155 : 			    break;

	jmp	SHORT $LN25@xmlTextRea
$LN27@xmlTextRea:

; 1156 : 		    }

	jmp	SHORT $LN8@xmlTextRea
$LN25@xmlTextRea:

; 1157 : 		}
; 1158 : 		reader->node = node;

	mov	ecx, DWORD PTR _reader$[ebp]
	mov	edx, DWORD PTR _node$[ebp]
	mov	DWORD PTR [ecx+64], edx

; 1159 : 		xmlTextReaderValidatePop(reader);

	mov	eax, DWORD PTR _reader$[ebp]
	push	eax
	call	_xmlTextReaderValidatePop
	add	esp, 4
$LN24@xmlTextRea:

; 1160 : 	    }
; 1161 : 	    if ((node->type == XML_ENTITY_DECL) &&
; 1162 : 		(reader->ent != NULL) && (reader->ent->children == node)) {

	mov	ecx, DWORD PTR _node$[ebp]
	cmp	DWORD PTR [ecx+4], 17			; 00000011H
	jne	SHORT $LN28@xmlTextRea
	mov	edx, DWORD PTR _reader$[ebp]
	cmp	DWORD PTR [edx+92], 0
	je	SHORT $LN28@xmlTextRea
	mov	eax, DWORD PTR _reader$[ebp]
	mov	ecx, DWORD PTR [eax+92]
	mov	edx, DWORD PTR [ecx+12]
	cmp	edx, DWORD PTR _node$[ebp]
	jne	SHORT $LN28@xmlTextRea

; 1163 : 		node = xmlTextReaderEntPop(reader);

	mov	eax, DWORD PTR _reader$[ebp]
	push	eax
	call	_xmlTextReaderEntPop
	add	esp, 4
	mov	DWORD PTR _node$[ebp], eax
$LN28@xmlTextRea:

; 1164 : 	    }
; 1165 : 	    if (node == oldnode)

	mov	ecx, DWORD PTR _node$[ebp]
	cmp	ecx, DWORD PTR _oldnode$[ebp]
	jne	SHORT $LN29@xmlTextRea

; 1166 : 		break;

	jmp	SHORT $LN2@xmlTextRea
$LN29@xmlTextRea:

; 1167 : 	    if (node->next != NULL) {

	mov	edx, DWORD PTR _node$[ebp]
	cmp	DWORD PTR [edx+24], 0
	je	SHORT $LN5@xmlTextRea

; 1168 : 		node = node->next;

	mov	eax, DWORD PTR _node$[ebp]
	mov	ecx, DWORD PTR [eax+24]
	mov	DWORD PTR _node$[ebp], ecx

; 1169 : 		break;

	jmp	SHORT $LN2@xmlTextRea
$LN5@xmlTextRea:

; 1170 : 	    }
; 1171 : 	} while ((node != NULL) && (node != oldnode));

	cmp	DWORD PTR _node$[ebp], 0
	je	SHORT $LN2@xmlTextRea
	mov	edx, DWORD PTR _node$[ebp]
	cmp	edx, DWORD PTR _oldnode$[ebp]
	jne	$LN7@xmlTextRea
$LN2@xmlTextRea:

; 1172 :     } while ((node != NULL) && (node != oldnode));

	cmp	DWORD PTR _node$[ebp], 0
	je	SHORT $LN3@xmlTextRea
	mov	eax, DWORD PTR _node$[ebp]
	cmp	eax, DWORD PTR _oldnode$[ebp]
	jne	$LN4@xmlTextRea
$LN3@xmlTextRea:

; 1173 :     reader->node = oldnode;

	mov	ecx, DWORD PTR _reader$[ebp]
	mov	edx, DWORD PTR _oldnode$[ebp]
	mov	DWORD PTR [ecx+64], edx

; 1174 : }

	pop	esi
	add	esp, 16					; 00000010H
	cmp	ebp, esp
	call	__RTC_CheckEsp
	mov	esp, ebp
	pop	ebp
	ret	0
_xmlTextReaderValidateEntity ENDP
_TEXT	ENDS
; Function compile flags: /Odtp /RTCsu
; File c:\users\dag\documents\_clients\codeproject authors group\windows on arm\libxml2\libxml2-2.9.9\xmlreader.c
;	COMDAT _xmlTextReaderValidatePop
_TEXT	SEGMENT
_ret$1 = -12						; size = 4
_qname$2 = -8						; size = 4
_node$ = -4						; size = 4
_reader$ = 8						; size = 4
_xmlTextReaderValidatePop PROC				; COMDAT

; 1039 : xmlTextReaderValidatePop(xmlTextReaderPtr reader) {

	push	ebp
	mov	ebp, esp
	sub	esp, 12					; 0000000cH
	push	esi
	mov	DWORD PTR [ebp-12], -858993460		; ccccccccH
	mov	DWORD PTR [ebp-8], -858993460		; ccccccccH
	mov	DWORD PTR [ebp-4], -858993460		; ccccccccH
	mov	ecx, OFFSET __BC13D883_xmlreader@c
	call	@__CheckForDebuggerJustMyCode@4

; 1040 :     xmlNodePtr node = reader->node;

	mov	eax, DWORD PTR _reader$[ebp]
	mov	ecx, DWORD PTR [eax+64]
	mov	DWORD PTR _node$[ebp], ecx

; 1041 : 
; 1042 : #ifdef LIBXML_VALID_ENABLED
; 1043 :     if ((reader->validate == XML_TEXTREADER_VALIDATE_DTD) &&
; 1044 :         (reader->ctxt != NULL) && (reader->ctxt->validate == 1)) {

	mov	edx, DWORD PTR _reader$[ebp]
	cmp	DWORD PTR [edx+8], 1
	jne	$LN2@xmlTextRea
	mov	eax, DWORD PTR _reader$[ebp]
	cmp	DWORD PTR [eax+20], 0
	je	$LN2@xmlTextRea
	mov	ecx, DWORD PTR _reader$[ebp]
	mov	edx, DWORD PTR [ecx+20]
	cmp	DWORD PTR [edx+104], 1
	jne	$LN2@xmlTextRea

; 1045 : 	if ((node->ns == NULL) || (node->ns->prefix == NULL)) {

	mov	eax, DWORD PTR _node$[ebp]
	cmp	DWORD PTR [eax+36], 0
	je	SHORT $LN5@xmlTextRea
	mov	ecx, DWORD PTR _node$[ebp]
	mov	edx, DWORD PTR [ecx+36]
	cmp	DWORD PTR [edx+12], 0
	jne	SHORT $LN3@xmlTextRea
$LN5@xmlTextRea:

; 1046 : 	    reader->ctxt->valid &= xmlValidatePopElement(&reader->ctxt->vctxt,

	mov	eax, DWORD PTR _reader$[ebp]
	mov	esi, DWORD PTR [eax+20]
	mov	ecx, DWORD PTR _node$[ebp]
	mov	edx, DWORD PTR [ecx+8]
	push	edx
	mov	eax, DWORD PTR _node$[ebp]
	push	eax
	mov	ecx, DWORD PTR _reader$[ebp]
	mov	edx, DWORD PTR [ecx+20]
	mov	eax, DWORD PTR [edx+8]
	push	eax
	mov	ecx, DWORD PTR _reader$[ebp]
	mov	edx, DWORD PTR [ecx+20]
	add	edx, 108				; 0000006cH
	push	edx
	call	_xmlValidatePopElement
	add	esp, 16					; 00000010H
	and	eax, DWORD PTR [esi+100]
	mov	ecx, DWORD PTR _reader$[ebp]
	mov	edx, DWORD PTR [ecx+20]
	mov	DWORD PTR [edx+100], eax

; 1047 : 				    reader->ctxt->myDoc, node, node->name);
; 1048 : 	} else {

	jmp	$LN2@xmlTextRea
$LN3@xmlTextRea:

; 1049 : 	    /* TODO use the BuildQName interface */
; 1050 : 	    xmlChar *qname;
; 1051 : 
; 1052 : 	    qname = xmlStrdup(node->ns->prefix);

	mov	eax, DWORD PTR _node$[ebp]
	mov	ecx, DWORD PTR [eax+36]
	mov	edx, DWORD PTR [ecx+12]
	push	edx
	call	_xmlStrdup
	add	esp, 4
	mov	DWORD PTR _qname$2[ebp], eax

; 1053 : 	    qname = xmlStrcat(qname, BAD_CAST ":");

	push	OFFSET ??_C@_01JLIPDDHJ@?3@
	mov	eax, DWORD PTR _qname$2[ebp]
	push	eax
	call	_xmlStrcat
	add	esp, 8
	mov	DWORD PTR _qname$2[ebp], eax

; 1054 : 	    qname = xmlStrcat(qname, node->name);

	mov	ecx, DWORD PTR _node$[ebp]
	mov	edx, DWORD PTR [ecx+8]
	push	edx
	mov	eax, DWORD PTR _qname$2[ebp]
	push	eax
	call	_xmlStrcat
	add	esp, 8
	mov	DWORD PTR _qname$2[ebp], eax

; 1055 : 	    reader->ctxt->valid &= xmlValidatePopElement(&reader->ctxt->vctxt,

	mov	ecx, DWORD PTR _reader$[ebp]
	mov	esi, DWORD PTR [ecx+20]
	mov	edx, DWORD PTR _qname$2[ebp]
	push	edx
	mov	eax, DWORD PTR _node$[ebp]
	push	eax
	mov	ecx, DWORD PTR _reader$[ebp]
	mov	edx, DWORD PTR [ecx+20]
	mov	eax, DWORD PTR [edx+8]
	push	eax
	mov	ecx, DWORD PTR _reader$[ebp]
	mov	edx, DWORD PTR [ecx+20]
	add	edx, 108				; 0000006cH
	push	edx
	call	_xmlValidatePopElement
	add	esp, 16					; 00000010H
	and	eax, DWORD PTR [esi+100]
	mov	ecx, DWORD PTR _reader$[ebp]
	mov	edx, DWORD PTR [ecx+20]
	mov	DWORD PTR [edx+100], eax

; 1056 : 				    reader->ctxt->myDoc, node, qname);
; 1057 : 	    if (qname != NULL)

	cmp	DWORD PTR _qname$2[ebp], 0
	je	SHORT $LN2@xmlTextRea

; 1058 : 		xmlFree(qname);

	mov	esi, esp
	mov	eax, DWORD PTR _qname$2[ebp]
	push	eax
	call	DWORD PTR _xmlFree
	add	esp, 4
	cmp	esi, esp
	call	__RTC_CheckEsp
$LN2@xmlTextRea:

; 1059 : 	}
; 1060 :     }
; 1061 : #endif /* LIBXML_VALID_ENABLED */
; 1062 : #ifdef LIBXML_SCHEMAS_ENABLED
; 1063 :     if ((reader->validate == XML_TEXTREADER_VALIDATE_RNG) &&

	mov	ecx, DWORD PTR _reader$[ebp]
	cmp	DWORD PTR [ecx+8], 2
	jne	SHORT $LN1@xmlTextRea
	mov	edx, DWORD PTR _reader$[ebp]
	cmp	DWORD PTR [edx+120], 0
	je	SHORT $LN1@xmlTextRea

; 1064 :                (reader->rngValidCtxt != NULL)) {
; 1065 : 	int ret;
; 1066 : 
; 1067 : 	if (reader->rngFullNode != NULL) {

	mov	eax, DWORD PTR _reader$[ebp]
	cmp	DWORD PTR [eax+132], 0
	je	SHORT $LN8@xmlTextRea

; 1068 : 	    if (node == reader->rngFullNode)

	mov	ecx, DWORD PTR _reader$[ebp]
	mov	edx, DWORD PTR _node$[ebp]
	cmp	edx, DWORD PTR [ecx+132]
	jne	SHORT $LN9@xmlTextRea

; 1069 : 	        reader->rngFullNode = NULL;

	mov	eax, DWORD PTR _reader$[ebp]
	mov	DWORD PTR [eax+132], 0
$LN9@xmlTextRea:

; 1070 : 	    return;

	jmp	SHORT $LN1@xmlTextRea
$LN8@xmlTextRea:

; 1071 : 	}
; 1072 : 	ret = xmlRelaxNGValidatePopElement(reader->rngValidCtxt,

	mov	ecx, DWORD PTR _node$[ebp]
	push	ecx
	mov	edx, DWORD PTR _reader$[ebp]
	mov	eax, DWORD PTR [edx+20]
	mov	ecx, DWORD PTR [eax+8]
	push	ecx
	mov	edx, DWORD PTR _reader$[ebp]
	mov	eax, DWORD PTR [edx+120]
	push	eax
	call	_xmlRelaxNGValidatePopElement
	add	esp, 12					; 0000000cH
	mov	DWORD PTR _ret$1[ebp], eax

; 1073 : 	                                   reader->ctxt->myDoc,
; 1074 : 					   node);
; 1075 : 	if (ret != 1)

	cmp	DWORD PTR _ret$1[ebp], 1
	je	SHORT $LN1@xmlTextRea

; 1076 : 	    reader->rngValidErrors++;

	mov	ecx, DWORD PTR _reader$[ebp]
	mov	edx, DWORD PTR [ecx+128]
	add	edx, 1
	mov	eax, DWORD PTR _reader$[ebp]
	mov	DWORD PTR [eax+128], edx
$LN1@xmlTextRea:

; 1077 :     }
; 1078 : #endif
; 1079 : }

	pop	esi
	add	esp, 12					; 0000000cH
	cmp	ebp, esp
	call	__RTC_CheckEsp
	mov	esp, ebp
	pop	ebp
	ret	0
_xmlTextReaderValidatePop ENDP
_TEXT	ENDS
; Function compile flags: /Odtp /RTCsu
; File c:\users\dag\documents\_clients\codeproject authors group\windows on arm\libxml2\libxml2-2.9.9\xmlreader.c
;	COMDAT _xmlTextReaderValidateCData
_TEXT	SEGMENT
_ret$1 = -4						; size = 4
_reader$ = 8						; size = 4
_data$ = 12						; size = 4
_len$ = 16						; size = 4
_xmlTextReaderValidateCData PROC			; COMDAT

; 1011 :                            const xmlChar *data, int len) {

	push	ebp
	mov	ebp, esp
	push	ecx
	push	esi
	mov	DWORD PTR [ebp-4], -858993460		; ccccccccH
	mov	ecx, OFFSET __BC13D883_xmlreader@c
	call	@__CheckForDebuggerJustMyCode@4

; 1012 : #ifdef LIBXML_VALID_ENABLED
; 1013 :     if ((reader->validate == XML_TEXTREADER_VALIDATE_DTD) &&
; 1014 :         (reader->ctxt != NULL) && (reader->ctxt->validate == 1)) {

	mov	eax, DWORD PTR _reader$[ebp]
	cmp	DWORD PTR [eax+8], 1
	jne	SHORT $LN2@xmlTextRea
	mov	ecx, DWORD PTR _reader$[ebp]
	cmp	DWORD PTR [ecx+20], 0
	je	SHORT $LN2@xmlTextRea
	mov	edx, DWORD PTR _reader$[ebp]
	mov	eax, DWORD PTR [edx+20]
	cmp	DWORD PTR [eax+104], 1
	jne	SHORT $LN2@xmlTextRea

; 1015 : 	reader->ctxt->valid &= xmlValidatePushCData(&reader->ctxt->vctxt,

	mov	ecx, DWORD PTR _reader$[ebp]
	mov	esi, DWORD PTR [ecx+20]
	mov	edx, DWORD PTR _len$[ebp]
	push	edx
	mov	eax, DWORD PTR _data$[ebp]
	push	eax
	mov	ecx, DWORD PTR _reader$[ebp]
	mov	edx, DWORD PTR [ecx+20]
	add	edx, 108				; 0000006cH
	push	edx
	call	_xmlValidatePushCData
	add	esp, 12					; 0000000cH
	and	eax, DWORD PTR [esi+100]
	mov	ecx, DWORD PTR _reader$[ebp]
	mov	edx, DWORD PTR [ecx+20]
	mov	DWORD PTR [edx+100], eax
$LN2@xmlTextRea:

; 1016 : 	                                            data, len);
; 1017 :     }
; 1018 : #endif /* LIBXML_VALID_ENABLED */
; 1019 : #ifdef LIBXML_SCHEMAS_ENABLED
; 1020 :     if ((reader->validate == XML_TEXTREADER_VALIDATE_RNG) &&

	mov	eax, DWORD PTR _reader$[ebp]
	cmp	DWORD PTR [eax+8], 2
	jne	SHORT $LN1@xmlTextRea
	mov	ecx, DWORD PTR _reader$[ebp]
	cmp	DWORD PTR [ecx+120], 0
	je	SHORT $LN1@xmlTextRea

; 1021 :                (reader->rngValidCtxt != NULL)) {
; 1022 : 	int ret;
; 1023 : 
; 1024 : 	if (reader->rngFullNode != NULL) return;

	mov	edx, DWORD PTR _reader$[ebp]
	cmp	DWORD PTR [edx+132], 0
	je	SHORT $LN4@xmlTextRea
	jmp	SHORT $LN1@xmlTextRea
$LN4@xmlTextRea:

; 1025 : 	ret = xmlRelaxNGValidatePushCData(reader->rngValidCtxt, data, len);

	mov	eax, DWORD PTR _len$[ebp]
	push	eax
	mov	ecx, DWORD PTR _data$[ebp]
	push	ecx
	mov	edx, DWORD PTR _reader$[ebp]
	mov	eax, DWORD PTR [edx+120]
	push	eax
	call	_xmlRelaxNGValidatePushCData
	add	esp, 12					; 0000000cH
	mov	DWORD PTR _ret$1[ebp], eax

; 1026 : 	if (ret != 1)

	cmp	DWORD PTR _ret$1[ebp], 1
	je	SHORT $LN1@xmlTextRea

; 1027 : 	    reader->rngValidErrors++;

	mov	ecx, DWORD PTR _reader$[ebp]
	mov	edx, DWORD PTR [ecx+128]
	add	edx, 1
	mov	eax, DWORD PTR _reader$[ebp]
	mov	DWORD PTR [eax+128], edx
$LN1@xmlTextRea:

; 1028 :     }
; 1029 : #endif
; 1030 : }

	pop	esi
	add	esp, 4
	cmp	ebp, esp
	call	__RTC_CheckEsp
	mov	esp, ebp
	pop	ebp
	ret	0
_xmlTextReaderValidateCData ENDP
_TEXT	ENDS
; Function compile flags: /Odtp /RTCsu
; File c:\users\dag\documents\_clients\codeproject authors group\windows on arm\libxml2\libxml2-2.9.9\xmlreader.c
;	COMDAT _xmlTextReaderValidatePush
_TEXT	SEGMENT
_ret$1 = -12						; size = 4
_qname$2 = -8						; size = 4
_node$ = -4						; size = 4
_reader$ = 8						; size = 4
_xmlTextReaderValidatePush PROC				; COMDAT

; 948  : xmlTextReaderValidatePush(xmlTextReaderPtr reader ATTRIBUTE_UNUSED) {

	push	ebp
	mov	ebp, esp
	sub	esp, 12					; 0000000cH
	push	esi
	mov	DWORD PTR [ebp-12], -858993460		; ccccccccH
	mov	DWORD PTR [ebp-8], -858993460		; ccccccccH
	mov	DWORD PTR [ebp-4], -858993460		; ccccccccH
	mov	ecx, OFFSET __BC13D883_xmlreader@c
	call	@__CheckForDebuggerJustMyCode@4

; 949  :     xmlNodePtr node = reader->node;

	mov	eax, DWORD PTR _reader$[ebp]
	mov	ecx, DWORD PTR [eax+64]
	mov	DWORD PTR _node$[ebp], ecx

; 950  : 
; 951  : #ifdef LIBXML_VALID_ENABLED
; 952  :     if ((reader->validate == XML_TEXTREADER_VALIDATE_DTD) &&
; 953  :         (reader->ctxt != NULL) && (reader->ctxt->validate == 1)) {

	mov	edx, DWORD PTR _reader$[ebp]
	cmp	DWORD PTR [edx+8], 1
	jne	$LN2@xmlTextRea
	mov	eax, DWORD PTR _reader$[ebp]
	cmp	DWORD PTR [eax+20], 0
	je	$LN2@xmlTextRea
	mov	ecx, DWORD PTR _reader$[ebp]
	mov	edx, DWORD PTR [ecx+20]
	cmp	DWORD PTR [edx+104], 1
	jne	$LN2@xmlTextRea

; 954  : 	if ((node->ns == NULL) || (node->ns->prefix == NULL)) {

	mov	eax, DWORD PTR _node$[ebp]
	cmp	DWORD PTR [eax+36], 0
	je	SHORT $LN5@xmlTextRea
	mov	ecx, DWORD PTR _node$[ebp]
	mov	edx, DWORD PTR [ecx+36]
	cmp	DWORD PTR [edx+12], 0
	jne	SHORT $LN3@xmlTextRea
$LN5@xmlTextRea:

; 955  : 	    reader->ctxt->valid &= xmlValidatePushElement(&reader->ctxt->vctxt,

	mov	eax, DWORD PTR _reader$[ebp]
	mov	esi, DWORD PTR [eax+20]
	mov	ecx, DWORD PTR _node$[ebp]
	mov	edx, DWORD PTR [ecx+8]
	push	edx
	mov	eax, DWORD PTR _node$[ebp]
	push	eax
	mov	ecx, DWORD PTR _reader$[ebp]
	mov	edx, DWORD PTR [ecx+20]
	mov	eax, DWORD PTR [edx+8]
	push	eax
	mov	ecx, DWORD PTR _reader$[ebp]
	mov	edx, DWORD PTR [ecx+20]
	add	edx, 108				; 0000006cH
	push	edx
	call	_xmlValidatePushElement
	add	esp, 16					; 00000010H
	and	eax, DWORD PTR [esi+100]
	mov	ecx, DWORD PTR _reader$[ebp]
	mov	edx, DWORD PTR [ecx+20]
	mov	DWORD PTR [edx+100], eax

; 956  : 				    reader->ctxt->myDoc, node, node->name);
; 957  : 	} else {

	jmp	$LN2@xmlTextRea
$LN3@xmlTextRea:

; 958  : 	    /* TODO use the BuildQName interface */
; 959  : 	    xmlChar *qname;
; 960  : 
; 961  : 	    qname = xmlStrdup(node->ns->prefix);

	mov	eax, DWORD PTR _node$[ebp]
	mov	ecx, DWORD PTR [eax+36]
	mov	edx, DWORD PTR [ecx+12]
	push	edx
	call	_xmlStrdup
	add	esp, 4
	mov	DWORD PTR _qname$2[ebp], eax

; 962  : 	    qname = xmlStrcat(qname, BAD_CAST ":");

	push	OFFSET ??_C@_01JLIPDDHJ@?3@
	mov	eax, DWORD PTR _qname$2[ebp]
	push	eax
	call	_xmlStrcat
	add	esp, 8
	mov	DWORD PTR _qname$2[ebp], eax

; 963  : 	    qname = xmlStrcat(qname, node->name);

	mov	ecx, DWORD PTR _node$[ebp]
	mov	edx, DWORD PTR [ecx+8]
	push	edx
	mov	eax, DWORD PTR _qname$2[ebp]
	push	eax
	call	_xmlStrcat
	add	esp, 8
	mov	DWORD PTR _qname$2[ebp], eax

; 964  : 	    reader->ctxt->valid &= xmlValidatePushElement(&reader->ctxt->vctxt,

	mov	ecx, DWORD PTR _reader$[ebp]
	mov	esi, DWORD PTR [ecx+20]
	mov	edx, DWORD PTR _qname$2[ebp]
	push	edx
	mov	eax, DWORD PTR _node$[ebp]
	push	eax
	mov	ecx, DWORD PTR _reader$[ebp]
	mov	edx, DWORD PTR [ecx+20]
	mov	eax, DWORD PTR [edx+8]
	push	eax
	mov	ecx, DWORD PTR _reader$[ebp]
	mov	edx, DWORD PTR [ecx+20]
	add	edx, 108				; 0000006cH
	push	edx
	call	_xmlValidatePushElement
	add	esp, 16					; 00000010H
	and	eax, DWORD PTR [esi+100]
	mov	ecx, DWORD PTR _reader$[ebp]
	mov	edx, DWORD PTR [ecx+20]
	mov	DWORD PTR [edx+100], eax

; 965  : 				    reader->ctxt->myDoc, node, qname);
; 966  : 	    if (qname != NULL)

	cmp	DWORD PTR _qname$2[ebp], 0
	je	SHORT $LN2@xmlTextRea

; 967  : 		xmlFree(qname);

	mov	esi, esp
	mov	eax, DWORD PTR _qname$2[ebp]
	push	eax
	call	DWORD PTR _xmlFree
	add	esp, 4
	cmp	esi, esp
	call	__RTC_CheckEsp
$LN2@xmlTextRea:

; 968  : 	}
; 969  :     }
; 970  : #endif /* LIBXML_VALID_ENABLED */
; 971  : #ifdef LIBXML_SCHEMAS_ENABLED
; 972  :     if ((reader->validate == XML_TEXTREADER_VALIDATE_RNG) &&

	mov	ecx, DWORD PTR _reader$[ebp]
	cmp	DWORD PTR [ecx+8], 2
	jne	$LN1@xmlTextRea
	mov	edx, DWORD PTR _reader$[ebp]
	cmp	DWORD PTR [edx+120], 0
	je	$LN1@xmlTextRea

; 973  :                (reader->rngValidCtxt != NULL)) {
; 974  : 	int ret;
; 975  : 
; 976  : 	if (reader->rngFullNode != NULL) return;

	mov	eax, DWORD PTR _reader$[ebp]
	cmp	DWORD PTR [eax+132], 0
	je	SHORT $LN8@xmlTextRea
	jmp	$LN1@xmlTextRea
$LN8@xmlTextRea:

; 977  : 	ret = xmlRelaxNGValidatePushElement(reader->rngValidCtxt,

	mov	ecx, DWORD PTR _node$[ebp]
	push	ecx
	mov	edx, DWORD PTR _reader$[ebp]
	mov	eax, DWORD PTR [edx+20]
	mov	ecx, DWORD PTR [eax+8]
	push	ecx
	mov	edx, DWORD PTR _reader$[ebp]
	mov	eax, DWORD PTR [edx+120]
	push	eax
	call	_xmlRelaxNGValidatePushElement
	add	esp, 12					; 0000000cH
	mov	DWORD PTR _ret$1[ebp], eax

; 978  : 	                                    reader->ctxt->myDoc,
; 979  : 					    node);
; 980  : 	if (ret == 0) {

	cmp	DWORD PTR _ret$1[ebp], 0
	jne	SHORT $LN9@xmlTextRea

; 981  : 	    /*
; 982  : 	     * this element requires a full tree
; 983  : 	     */
; 984  : 	    node = xmlTextReaderExpand(reader);

	mov	ecx, DWORD PTR _reader$[ebp]
	push	ecx
	call	_xmlTextReaderExpand
	add	esp, 4
	mov	DWORD PTR _node$[ebp], eax

; 985  : 	    if (node == NULL) {

	cmp	DWORD PTR _node$[ebp], 0
	jne	SHORT $LN10@xmlTextRea

; 986  : printf("Expand failed !\n");

	push	OFFSET ??_C@_0BB@DOFEEJAH@Expand?5failed?5?$CB?6@
	call	_printf
	add	esp, 4

; 987  : 	        ret = -1;

	mov	DWORD PTR _ret$1[ebp], -1

; 988  : 	    } else {

	jmp	SHORT $LN9@xmlTextRea
$LN10@xmlTextRea:

; 989  : 		ret = xmlRelaxNGValidateFullElement(reader->rngValidCtxt,

	mov	edx, DWORD PTR _node$[ebp]
	push	edx
	mov	eax, DWORD PTR _reader$[ebp]
	mov	ecx, DWORD PTR [eax+20]
	mov	edx, DWORD PTR [ecx+8]
	push	edx
	mov	eax, DWORD PTR _reader$[ebp]
	mov	ecx, DWORD PTR [eax+120]
	push	ecx
	call	_xmlRelaxNGValidateFullElement
	add	esp, 12					; 0000000cH
	mov	DWORD PTR _ret$1[ebp], eax

; 990  : 						    reader->ctxt->myDoc,
; 991  : 						    node);
; 992  : 		reader->rngFullNode = node;

	mov	edx, DWORD PTR _reader$[ebp]
	mov	eax, DWORD PTR _node$[ebp]
	mov	DWORD PTR [edx+132], eax
$LN9@xmlTextRea:

; 993  : 	    }
; 994  : 	}
; 995  : 	if (ret != 1)

	cmp	DWORD PTR _ret$1[ebp], 1
	je	SHORT $LN1@xmlTextRea

; 996  : 	    reader->rngValidErrors++;

	mov	ecx, DWORD PTR _reader$[ebp]
	mov	edx, DWORD PTR [ecx+128]
	add	edx, 1
	mov	eax, DWORD PTR _reader$[ebp]
	mov	DWORD PTR [eax+128], edx
$LN1@xmlTextRea:

; 997  :     }
; 998  : #endif
; 999  : }

	pop	esi
	add	esp, 12					; 0000000cH
	cmp	ebp, esp
	call	__RTC_CheckEsp
	mov	esp, ebp
	pop	ebp
	ret	0
_xmlTextReaderValidatePush ENDP
_TEXT	ENDS
; Function compile flags: /Odtp /RTCsu
; File c:\users\dag\documents\_clients\codeproject authors group\windows on arm\libxml2\libxml2-2.9.9\xmlreader.c
;	COMDAT _xmlTextReaderPushData
_TEXT	SEGMENT
_alloc$ = -20						; size = 4
_oldstate$ = -16					; size = 4
_s$ = -12						; size = 4
_val$ = -8						; size = 4
_inbuf$ = -4						; size = 4
_reader$ = 8						; size = 4
_xmlTextReaderPushData PROC				; COMDAT

; 829  : xmlTextReaderPushData(xmlTextReaderPtr reader) {

	push	ebp
	mov	ebp, esp
	sub	esp, 20					; 00000014H
	mov	eax, -858993460				; ccccccccH
	mov	DWORD PTR [ebp-20], eax
	mov	DWORD PTR [ebp-16], eax
	mov	DWORD PTR [ebp-12], eax
	mov	DWORD PTR [ebp-8], eax
	mov	DWORD PTR [ebp-4], eax
	mov	ecx, OFFSET __BC13D883_xmlreader@c
	call	@__CheckForDebuggerJustMyCode@4

; 830  :     xmlBufPtr inbuf;
; 831  :     int val, s;
; 832  :     xmlTextReaderState oldstate;
; 833  :     int alloc;
; 834  : 
; 835  :     if ((reader->input == NULL) || (reader->input->buffer == NULL))

	mov	eax, DWORD PTR _reader$[ebp]
	cmp	DWORD PTR [eax+28], 0
	je	SHORT $LN5@xmlTextRea
	mov	ecx, DWORD PTR _reader$[ebp]
	mov	edx, DWORD PTR [ecx+28]
	cmp	DWORD PTR [edx+16], 0
	jne	SHORT $LN4@xmlTextRea
$LN5@xmlTextRea:

; 836  : 	return(-1);

	or	eax, -1
	jmp	$LN1@xmlTextRea
$LN4@xmlTextRea:

; 837  : 
; 838  :     oldstate = reader->state;

	mov	eax, DWORD PTR _reader$[ebp]
	mov	ecx, DWORD PTR [eax+16]
	mov	DWORD PTR _oldstate$[ebp], ecx

; 839  :     reader->state = XML_TEXTREADER_NONE;

	mov	edx, DWORD PTR _reader$[ebp]
	mov	DWORD PTR [edx+16], -1

; 840  :     inbuf = reader->input->buffer;

	mov	eax, DWORD PTR _reader$[ebp]
	mov	ecx, DWORD PTR [eax+28]
	mov	edx, DWORD PTR [ecx+16]
	mov	DWORD PTR _inbuf$[ebp], edx

; 841  :     alloc = xmlBufGetAllocationScheme(inbuf);

	mov	eax, DWORD PTR _inbuf$[ebp]
	push	eax
	call	_xmlBufGetAllocationScheme
	add	esp, 4
	mov	DWORD PTR _alloc$[ebp], eax
$LN2@xmlTextRea:

; 842  : 
; 843  :     while (reader->state == XML_TEXTREADER_NONE) {

	mov	ecx, DWORD PTR _reader$[ebp]
	cmp	DWORD PTR [ecx+16], -1
	jne	$LN3@xmlTextRea

; 844  : 	if (xmlBufUse(inbuf) < reader->cur + CHUNK_SIZE) {

	mov	edx, DWORD PTR _inbuf$[ebp]
	push	edx
	call	_xmlBufUse
	add	esp, 4
	mov	ecx, DWORD PTR _reader$[ebp]
	mov	edx, DWORD PTR [ecx+60]
	add	edx, 512				; 00000200H
	cmp	eax, edx
	jae	$LN6@xmlTextRea

; 845  : 	    /*
; 846  : 	     * Refill the buffer unless we are at the end of the stream
; 847  : 	     */
; 848  : 	    if (reader->mode != XML_TEXTREADER_MODE_EOF) {

	mov	eax, DWORD PTR _reader$[ebp]
	cmp	DWORD PTR [eax], 3
	je	$LN7@xmlTextRea

; 849  : 		val = xmlParserInputBufferRead(reader->input, 4096);

	push	4096					; 00001000H
	mov	ecx, DWORD PTR _reader$[ebp]
	mov	edx, DWORD PTR [ecx+28]
	push	edx
	call	_xmlParserInputBufferRead
	add	esp, 8
	mov	DWORD PTR _val$[ebp], eax

; 850  : 		if ((val == 0) &&

	cmp	DWORD PTR _val$[ebp], 0
	jne	SHORT $LN9@xmlTextRea
	cmp	DWORD PTR _alloc$[ebp], 2
	jne	SHORT $LN9@xmlTextRea

; 851  : 		    (alloc == XML_BUFFER_ALLOC_IMMUTABLE)) {
; 852  : 		    if (xmlBufUse(inbuf) == reader->cur) {

	mov	eax, DWORD PTR _inbuf$[ebp]
	push	eax
	call	_xmlBufUse
	add	esp, 4
	mov	ecx, DWORD PTR _reader$[ebp]
	cmp	eax, DWORD PTR [ecx+60]
	jne	SHORT $LN11@xmlTextRea

; 853  : 			reader->mode = XML_TEXTREADER_MODE_EOF;

	mov	edx, DWORD PTR _reader$[ebp]
	mov	DWORD PTR [edx], 3

; 854  : 			reader->state = oldstate;

	mov	eax, DWORD PTR _reader$[ebp]
	mov	ecx, DWORD PTR _oldstate$[ebp]
	mov	DWORD PTR [eax+16], ecx
$LN11@xmlTextRea:

; 855  : 		    }

	jmp	SHORT $LN10@xmlTextRea
$LN9@xmlTextRea:

; 856  : 		} else if (val < 0) {

	cmp	DWORD PTR _val$[ebp], 0
	jge	SHORT $LN12@xmlTextRea

; 857  : 		    reader->mode = XML_TEXTREADER_MODE_EOF;

	mov	edx, DWORD PTR _reader$[ebp]
	mov	DWORD PTR [edx], 3

; 858  : 		    reader->state = oldstate;

	mov	eax, DWORD PTR _reader$[ebp]
	mov	ecx, DWORD PTR _oldstate$[ebp]
	mov	DWORD PTR [eax+16], ecx

; 859  : 		    if ((oldstate != XML_TEXTREADER_START) ||

	cmp	DWORD PTR _oldstate$[ebp], 0
	jne	SHORT $LN15@xmlTextRea
	mov	edx, DWORD PTR _reader$[ebp]
	mov	eax, DWORD PTR [edx+20]
	cmp	DWORD PTR [eax+8], 0
	je	SHORT $LN14@xmlTextRea
$LN15@xmlTextRea:

; 860  : 			(reader->ctxt->myDoc != NULL))
; 861  : 			return(val);

	mov	eax, DWORD PTR _val$[ebp]
	jmp	$LN1@xmlTextRea
$LN14@xmlTextRea:

; 862  : 		} else if (val == 0) {

	jmp	SHORT $LN10@xmlTextRea
$LN12@xmlTextRea:
	cmp	DWORD PTR _val$[ebp], 0
	jne	SHORT $LN10@xmlTextRea

; 863  : 		    /* mark the end of the stream and process the remains */
; 864  : 		    reader->mode = XML_TEXTREADER_MODE_EOF;

	mov	ecx, DWORD PTR _reader$[ebp]
	mov	DWORD PTR [ecx], 3

; 865  : 		    break;

	jmp	$LN3@xmlTextRea
$LN10@xmlTextRea:

; 866  : 		}
; 867  : 
; 868  : 	    } else

	jmp	SHORT $LN6@xmlTextRea
$LN7@xmlTextRea:

; 869  : 		break;

	jmp	$LN3@xmlTextRea
$LN6@xmlTextRea:

; 870  : 	}
; 871  : 	/*
; 872  : 	 * parse by block of CHUNK_SIZE bytes, various tests show that
; 873  : 	 * it's the best tradeoff at least on a 1.2GH Duron
; 874  : 	 */
; 875  : 	if (xmlBufUse(inbuf) >= reader->cur + CHUNK_SIZE) {

	mov	edx, DWORD PTR _inbuf$[ebp]
	push	edx
	call	_xmlBufUse
	add	esp, 4
	mov	ecx, DWORD PTR _reader$[ebp]
	mov	edx, DWORD PTR [ecx+60]
	add	edx, 512				; 00000200H
	cmp	eax, edx
	jb	SHORT $LN17@xmlTextRea

; 876  : 	    val = xmlParseChunk(reader->ctxt,

	push	0
	push	512					; 00000200H
	mov	eax, DWORD PTR _inbuf$[ebp]
	push	eax
	call	_xmlBufContent
	add	esp, 4
	mov	ecx, DWORD PTR _reader$[ebp]
	add	eax, DWORD PTR [ecx+60]
	push	eax
	mov	edx, DWORD PTR _reader$[ebp]
	mov	eax, DWORD PTR [edx+20]
	push	eax
	call	_xmlParseChunk
	add	esp, 16					; 00000010H
	mov	DWORD PTR _val$[ebp], eax

; 877  :                  (const char *) xmlBufContent(inbuf) + reader->cur,
; 878  :                                 CHUNK_SIZE, 0);
; 879  : 	    reader->cur += CHUNK_SIZE;

	mov	ecx, DWORD PTR _reader$[ebp]
	mov	edx, DWORD PTR [ecx+60]
	add	edx, 512				; 00000200H
	mov	eax, DWORD PTR _reader$[ebp]
	mov	DWORD PTR [eax+60], edx

; 880  : 	    if (val != 0)

	cmp	DWORD PTR _val$[ebp], 0
	je	SHORT $LN19@xmlTextRea

; 881  : 		reader->ctxt->wellFormed = 0;

	mov	ecx, DWORD PTR _reader$[ebp]
	mov	edx, DWORD PTR [ecx+20]
	mov	DWORD PTR [edx+12], 0
$LN19@xmlTextRea:

; 882  : 	    if (reader->ctxt->wellFormed == 0)

	mov	eax, DWORD PTR _reader$[ebp]
	mov	ecx, DWORD PTR [eax+20]
	cmp	DWORD PTR [ecx+12], 0
	jne	SHORT $LN20@xmlTextRea

; 883  : 		break;

	jmp	SHORT $LN3@xmlTextRea
$LN20@xmlTextRea:

; 884  : 	} else {

	jmp	SHORT $LN18@xmlTextRea
$LN17@xmlTextRea:

; 885  : 	    s = xmlBufUse(inbuf) - reader->cur;

	mov	edx, DWORD PTR _inbuf$[ebp]
	push	edx
	call	_xmlBufUse
	add	esp, 4
	mov	ecx, DWORD PTR _reader$[ebp]
	sub	eax, DWORD PTR [ecx+60]
	mov	DWORD PTR _s$[ebp], eax

; 886  : 	    val = xmlParseChunk(reader->ctxt,

	push	0
	mov	edx, DWORD PTR _s$[ebp]
	push	edx
	mov	eax, DWORD PTR _inbuf$[ebp]
	push	eax
	call	_xmlBufContent
	add	esp, 4
	mov	ecx, DWORD PTR _reader$[ebp]
	add	eax, DWORD PTR [ecx+60]
	push	eax
	mov	edx, DWORD PTR _reader$[ebp]
	mov	eax, DWORD PTR [edx+20]
	push	eax
	call	_xmlParseChunk
	add	esp, 16					; 00000010H
	mov	DWORD PTR _val$[ebp], eax

; 887  : 		 (const char *) xmlBufContent(inbuf) + reader->cur,
; 888  : 			        s, 0);
; 889  : 	    reader->cur += s;

	mov	ecx, DWORD PTR _reader$[ebp]
	mov	edx, DWORD PTR [ecx+60]
	add	edx, DWORD PTR _s$[ebp]
	mov	eax, DWORD PTR _reader$[ebp]
	mov	DWORD PTR [eax+60], edx

; 890  : 	    if (val != 0)

	cmp	DWORD PTR _val$[ebp], 0
	je	SHORT $LN21@xmlTextRea

; 891  : 		reader->ctxt->wellFormed = 0;

	mov	ecx, DWORD PTR _reader$[ebp]
	mov	edx, DWORD PTR [ecx+20]
	mov	DWORD PTR [edx+12], 0
$LN21@xmlTextRea:

; 892  : 	    break;

	jmp	SHORT $LN3@xmlTextRea
$LN18@xmlTextRea:

; 893  : 	}
; 894  :     }

	jmp	$LN2@xmlTextRea
$LN3@xmlTextRea:

; 895  : 
; 896  :     /*
; 897  :      * Discard the consumed input when needed and possible
; 898  :      */
; 899  :     if (reader->mode == XML_TEXTREADER_MODE_INTERACTIVE) {

	mov	eax, DWORD PTR _reader$[ebp]
	cmp	DWORD PTR [eax], 1
	jne	SHORT $LN22@xmlTextRea

; 900  :         if (alloc != XML_BUFFER_ALLOC_IMMUTABLE) {

	cmp	DWORD PTR _alloc$[ebp], 2
	je	SHORT $LN24@xmlTextRea

; 901  : 	    if ((reader->cur >= 4096) &&

	mov	ecx, DWORD PTR _reader$[ebp]
	cmp	DWORD PTR [ecx+60], 4096		; 00001000H
	jb	SHORT $LN24@xmlTextRea
	mov	edx, DWORD PTR _inbuf$[ebp]
	push	edx
	call	_xmlBufUse
	add	esp, 4
	mov	ecx, DWORD PTR _reader$[ebp]
	sub	eax, DWORD PTR [ecx+60]
	cmp	eax, 512				; 00000200H
	ja	SHORT $LN24@xmlTextRea

; 902  : 		(xmlBufUse(inbuf) - reader->cur <= CHUNK_SIZE)) {
; 903  : 		val = xmlBufShrink(inbuf, reader->cur);

	mov	edx, DWORD PTR _reader$[ebp]
	mov	eax, DWORD PTR [edx+60]
	push	eax
	mov	ecx, DWORD PTR _inbuf$[ebp]
	push	ecx
	call	_xmlBufShrink
	add	esp, 8
	mov	DWORD PTR _val$[ebp], eax

; 904  : 		if (val >= 0) {

	cmp	DWORD PTR _val$[ebp], 0
	jl	SHORT $LN24@xmlTextRea

; 905  : 		    reader->cur -= val;

	mov	edx, DWORD PTR _reader$[ebp]
	mov	eax, DWORD PTR [edx+60]
	sub	eax, DWORD PTR _val$[ebp]
	mov	ecx, DWORD PTR _reader$[ebp]
	mov	DWORD PTR [ecx+60], eax
$LN24@xmlTextRea:

; 906  : 		}
; 907  : 	    }
; 908  : 	}
; 909  :     }

	jmp	$LN23@xmlTextRea
$LN22@xmlTextRea:

; 910  : 
; 911  :     /*
; 912  :      * At the end of the stream signal that the work is done to the Push
; 913  :      * parser.
; 914  :      */
; 915  :     else if (reader->mode == XML_TEXTREADER_MODE_EOF) {

	mov	edx, DWORD PTR _reader$[ebp]
	cmp	DWORD PTR [edx], 3
	jne	$LN23@xmlTextRea

; 916  : 	if (reader->state != XML_TEXTREADER_DONE) {

	mov	eax, DWORD PTR _reader$[ebp]
	cmp	DWORD PTR [eax+16], 5
	je	$LN23@xmlTextRea

; 917  : 	    s = xmlBufUse(inbuf) - reader->cur;

	mov	ecx, DWORD PTR _inbuf$[ebp]
	push	ecx
	call	_xmlBufUse
	add	esp, 4
	mov	edx, DWORD PTR _reader$[ebp]
	sub	eax, DWORD PTR [edx+60]
	mov	DWORD PTR _s$[ebp], eax

; 918  : 	    val = xmlParseChunk(reader->ctxt,

	push	1
	mov	eax, DWORD PTR _s$[ebp]
	push	eax
	mov	ecx, DWORD PTR _inbuf$[ebp]
	push	ecx
	call	_xmlBufContent
	add	esp, 4
	mov	edx, DWORD PTR _reader$[ebp]
	add	eax, DWORD PTR [edx+60]
	push	eax
	mov	eax, DWORD PTR _reader$[ebp]
	mov	ecx, DWORD PTR [eax+20]
	push	ecx
	call	_xmlParseChunk
	add	esp, 16					; 00000010H
	mov	DWORD PTR _val$[ebp], eax

; 919  : 		 (const char *) xmlBufContent(inbuf) + reader->cur,
; 920  : 			        s, 1);
; 921  : 	    reader->cur = xmlBufUse(inbuf);

	mov	edx, DWORD PTR _inbuf$[ebp]
	push	edx
	call	_xmlBufUse
	add	esp, 4
	mov	ecx, DWORD PTR _reader$[ebp]
	mov	DWORD PTR [ecx+60], eax

; 922  : 	    reader->state  = XML_TEXTREADER_DONE;

	mov	edx, DWORD PTR _reader$[ebp]
	mov	DWORD PTR [edx+16], 5

; 923  : 	    if (val != 0) {

	cmp	DWORD PTR _val$[ebp], 0
	je	SHORT $LN23@xmlTextRea

; 924  : 	        if (reader->ctxt->wellFormed)

	mov	eax, DWORD PTR _reader$[ebp]
	mov	ecx, DWORD PTR [eax+20]
	cmp	DWORD PTR [ecx+12], 0
	je	SHORT $LN30@xmlTextRea

; 925  : 		    reader->ctxt->wellFormed = 0;

	mov	edx, DWORD PTR _reader$[ebp]
	mov	eax, DWORD PTR [edx+20]
	mov	DWORD PTR [eax+12], 0
	jmp	SHORT $LN23@xmlTextRea
$LN30@xmlTextRea:

; 926  : 		else
; 927  : 		    return(-1);

	or	eax, -1
	jmp	SHORT $LN1@xmlTextRea
$LN23@xmlTextRea:

; 928  : 	    }
; 929  : 	}
; 930  :     }
; 931  :     reader->state = oldstate;

	mov	ecx, DWORD PTR _reader$[ebp]
	mov	edx, DWORD PTR _oldstate$[ebp]
	mov	DWORD PTR [ecx+16], edx

; 932  :     if (reader->ctxt->wellFormed == 0) {

	mov	eax, DWORD PTR _reader$[ebp]
	mov	ecx, DWORD PTR [eax+20]
	cmp	DWORD PTR [ecx+12], 0
	jne	SHORT $LN32@xmlTextRea

; 933  : 	reader->mode = XML_TEXTREADER_MODE_EOF;

	mov	edx, DWORD PTR _reader$[ebp]
	mov	DWORD PTR [edx], 3

; 934  :         return(-1);

	or	eax, -1
	jmp	SHORT $LN1@xmlTextRea
$LN32@xmlTextRea:

; 935  :     }
; 936  : 
; 937  :     return(0);

	xor	eax, eax
$LN1@xmlTextRea:

; 938  : }

	add	esp, 20					; 00000014H
	cmp	ebp, esp
	call	__RTC_CheckEsp
	mov	esp, ebp
	pop	ebp
	ret	0
_xmlTextReaderPushData ENDP
_TEXT	ENDS
; Function compile flags: /Odtp /RTCsu
; File c:\users\dag\documents\_clients\codeproject authors group\windows on arm\libxml2\libxml2-2.9.9\xmlreader.c
;	COMDAT _xmlTextReaderCDataBlock
_TEXT	SEGMENT
_reader$ = -8						; size = 4
_ctxt$ = -4						; size = 4
_ctx$ = 8						; size = 4
_ch$ = 12						; size = 4
_len$ = 16						; size = 4
_xmlTextReaderCDataBlock PROC				; COMDAT

; 807  : {

	push	ebp
	mov	ebp, esp
	sub	esp, 8
	push	esi
	mov	DWORD PTR [ebp-8], -858993460		; ccccccccH
	mov	DWORD PTR [ebp-4], -858993460		; ccccccccH
	mov	ecx, OFFSET __BC13D883_xmlreader@c
	call	@__CheckForDebuggerJustMyCode@4

; 808  :     xmlParserCtxtPtr ctxt = (xmlParserCtxtPtr) ctx;

	mov	eax, DWORD PTR _ctx$[ebp]
	mov	DWORD PTR _ctxt$[ebp], eax

; 809  :     xmlTextReaderPtr reader = ctxt->_private;

	mov	ecx, DWORD PTR _ctxt$[ebp]
	mov	edx, DWORD PTR [ecx+272]
	mov	DWORD PTR _reader$[ebp], edx

; 810  : 
; 811  : #ifdef DEBUG_CALLBACKS
; 812  :     printf("xmlTextReaderCDataBlock()\n");
; 813  : #endif
; 814  :     if ((reader != NULL) && (reader->cdataBlock != NULL)) {

	cmp	DWORD PTR _reader$[ebp], 0
	je	SHORT $LN1@xmlTextRea
	mov	eax, DWORD PTR _reader$[ebp]
	cmp	DWORD PTR [eax+52], 0
	je	SHORT $LN1@xmlTextRea

; 815  : 	reader->cdataBlock(ctx, ch, len);

	mov	esi, esp
	mov	ecx, DWORD PTR _len$[ebp]
	push	ecx
	mov	edx, DWORD PTR _ch$[ebp]
	push	edx
	mov	eax, DWORD PTR _ctx$[ebp]
	push	eax
	mov	ecx, DWORD PTR _reader$[ebp]
	mov	edx, DWORD PTR [ecx+52]
	call	edx
	add	esp, 12					; 0000000cH
	cmp	esi, esp
	call	__RTC_CheckEsp
$LN1@xmlTextRea:

; 816  :     }
; 817  : }

	pop	esi
	add	esp, 8
	cmp	ebp, esp
	call	__RTC_CheckEsp
	mov	esp, ebp
	pop	ebp
	ret	0
_xmlTextReaderCDataBlock ENDP
_TEXT	ENDS
; Function compile flags: /Odtp /RTCsu
; File c:\users\dag\documents\_clients\codeproject authors group\windows on arm\libxml2\libxml2-2.9.9\xmlreader.c
;	COMDAT _xmlTextReaderCharacters
_TEXT	SEGMENT
_reader$ = -8						; size = 4
_ctxt$ = -4						; size = 4
_ctx$ = 8						; size = 4
_ch$ = 12						; size = 4
_len$ = 16						; size = 4
_xmlTextReaderCharacters PROC				; COMDAT

; 785  : {

	push	ebp
	mov	ebp, esp
	sub	esp, 8
	push	esi
	mov	DWORD PTR [ebp-8], -858993460		; ccccccccH
	mov	DWORD PTR [ebp-4], -858993460		; ccccccccH
	mov	ecx, OFFSET __BC13D883_xmlreader@c
	call	@__CheckForDebuggerJustMyCode@4

; 786  :     xmlParserCtxtPtr ctxt = (xmlParserCtxtPtr) ctx;

	mov	eax, DWORD PTR _ctx$[ebp]
	mov	DWORD PTR _ctxt$[ebp], eax

; 787  :     xmlTextReaderPtr reader = ctxt->_private;

	mov	ecx, DWORD PTR _ctxt$[ebp]
	mov	edx, DWORD PTR [ecx+272]
	mov	DWORD PTR _reader$[ebp], edx

; 788  : 
; 789  : #ifdef DEBUG_CALLBACKS
; 790  :     printf("xmlTextReaderCharacters()\n");
; 791  : #endif
; 792  :     if ((reader != NULL) && (reader->characters != NULL)) {

	cmp	DWORD PTR _reader$[ebp], 0
	je	SHORT $LN1@xmlTextRea
	mov	eax, DWORD PTR _reader$[ebp]
	cmp	DWORD PTR [eax+48], 0
	je	SHORT $LN1@xmlTextRea

; 793  : 	reader->characters(ctx, ch, len);

	mov	esi, esp
	mov	ecx, DWORD PTR _len$[ebp]
	push	ecx
	mov	edx, DWORD PTR _ch$[ebp]
	push	edx
	mov	eax, DWORD PTR _ctx$[ebp]
	push	eax
	mov	ecx, DWORD PTR _reader$[ebp]
	mov	edx, DWORD PTR [ecx+48]
	call	edx
	add	esp, 12					; 0000000cH
	cmp	esi, esp
	call	__RTC_CheckEsp
$LN1@xmlTextRea:

; 794  :     }
; 795  : }

	pop	esi
	add	esp, 8
	cmp	ebp, esp
	call	__RTC_CheckEsp
	mov	esp, ebp
	pop	ebp
	ret	0
_xmlTextReaderCharacters ENDP
_TEXT	ENDS
; Function compile flags: /Odtp /RTCsu
; File c:\users\dag\documents\_clients\codeproject authors group\windows on arm\libxml2\libxml2-2.9.9\xmlreader.c
;	COMDAT _xmlTextReaderEndElementNs
_TEXT	SEGMENT
_reader$ = -8						; size = 4
_ctxt$ = -4						; size = 4
_ctx$ = 8						; size = 4
_localname$ = 12					; size = 4
_prefix$ = 16						; size = 4
_URI$ = 20						; size = 4
_xmlTextReaderEndElementNs PROC				; COMDAT

; 762  : {

	push	ebp
	mov	ebp, esp
	sub	esp, 8
	push	esi
	mov	DWORD PTR [ebp-8], -858993460		; ccccccccH
	mov	DWORD PTR [ebp-4], -858993460		; ccccccccH
	mov	ecx, OFFSET __BC13D883_xmlreader@c
	call	@__CheckForDebuggerJustMyCode@4

; 763  :     xmlParserCtxtPtr ctxt = (xmlParserCtxtPtr) ctx;

	mov	eax, DWORD PTR _ctx$[ebp]
	mov	DWORD PTR _ctxt$[ebp], eax

; 764  :     xmlTextReaderPtr reader = ctxt->_private;

	mov	ecx, DWORD PTR _ctxt$[ebp]
	mov	edx, DWORD PTR [ecx+272]
	mov	DWORD PTR _reader$[ebp], edx

; 765  : 
; 766  : #ifdef DEBUG_CALLBACKS
; 767  :     printf("xmlTextReaderEndElementNs(%s)\n", localname);
; 768  : #endif
; 769  :     if ((reader != NULL) && (reader->endElementNs != NULL)) {

	cmp	DWORD PTR _reader$[ebp], 0
	je	SHORT $LN1@xmlTextRea
	mov	eax, DWORD PTR _reader$[ebp]
	cmp	DWORD PTR [eax+44], 0
	je	SHORT $LN1@xmlTextRea

; 770  : 	reader->endElementNs(ctx, localname, prefix, URI);

	mov	esi, esp
	mov	ecx, DWORD PTR _URI$[ebp]
	push	ecx
	mov	edx, DWORD PTR _prefix$[ebp]
	push	edx
	mov	eax, DWORD PTR _localname$[ebp]
	push	eax
	mov	ecx, DWORD PTR _ctx$[ebp]
	push	ecx
	mov	edx, DWORD PTR _reader$[ebp]
	mov	eax, DWORD PTR [edx+44]
	call	eax
	add	esp, 16					; 00000010H
	cmp	esi, esp
	call	__RTC_CheckEsp
$LN1@xmlTextRea:

; 771  :     }
; 772  : }

	pop	esi
	add	esp, 8
	cmp	ebp, esp
	call	__RTC_CheckEsp
	mov	esp, ebp
	pop	ebp
	ret	0
_xmlTextReaderEndElementNs ENDP
_TEXT	ENDS
; Function compile flags: /Odtp /RTCsu
; File c:\users\dag\documents\_clients\codeproject authors group\windows on arm\libxml2\libxml2-2.9.9\xmlreader.c
;	COMDAT _xmlTextReaderStartElementNs
_TEXT	SEGMENT
_reader$ = -8						; size = 4
_ctxt$ = -4						; size = 4
_ctx$ = 8						; size = 4
_localname$ = 12					; size = 4
_prefix$ = 16						; size = 4
_URI$ = 20						; size = 4
_nb_namespaces$ = 24					; size = 4
_namespaces$ = 28					; size = 4
_nb_attributes$ = 32					; size = 4
_nb_defaulted$ = 36					; size = 4
_attributes$ = 40					; size = 4
_xmlTextReaderStartElementNs PROC			; COMDAT

; 728  : {

	push	ebp
	mov	ebp, esp
	sub	esp, 8
	push	esi
	mov	DWORD PTR [ebp-8], -858993460		; ccccccccH
	mov	DWORD PTR [ebp-4], -858993460		; ccccccccH
	mov	ecx, OFFSET __BC13D883_xmlreader@c
	call	@__CheckForDebuggerJustMyCode@4

; 729  :     xmlParserCtxtPtr ctxt = (xmlParserCtxtPtr) ctx;

	mov	eax, DWORD PTR _ctx$[ebp]
	mov	DWORD PTR _ctxt$[ebp], eax

; 730  :     xmlTextReaderPtr reader = ctxt->_private;

	mov	ecx, DWORD PTR _ctxt$[ebp]
	mov	edx, DWORD PTR [ecx+272]
	mov	DWORD PTR _reader$[ebp], edx

; 731  : 
; 732  : #ifdef DEBUG_CALLBACKS
; 733  :     printf("xmlTextReaderStartElementNs(%s)\n", localname);
; 734  : #endif
; 735  :     if ((reader != NULL) && (reader->startElementNs != NULL)) {

	cmp	DWORD PTR _reader$[ebp], 0
	je	$LN2@xmlTextRea
	mov	eax, DWORD PTR _reader$[ebp]
	cmp	DWORD PTR [eax+40], 0
	je	$LN2@xmlTextRea

; 736  : 	reader->startElementNs(ctx, localname, prefix, URI, nb_namespaces,

	mov	esi, esp
	mov	ecx, DWORD PTR _attributes$[ebp]
	push	ecx
	mov	edx, DWORD PTR _nb_defaulted$[ebp]
	push	edx
	mov	eax, DWORD PTR _nb_attributes$[ebp]
	push	eax
	mov	ecx, DWORD PTR _namespaces$[ebp]
	push	ecx
	mov	edx, DWORD PTR _nb_namespaces$[ebp]
	push	edx
	mov	eax, DWORD PTR _URI$[ebp]
	push	eax
	mov	ecx, DWORD PTR _prefix$[ebp]
	push	ecx
	mov	edx, DWORD PTR _localname$[ebp]
	push	edx
	mov	eax, DWORD PTR _ctx$[ebp]
	push	eax
	mov	ecx, DWORD PTR _reader$[ebp]
	mov	edx, DWORD PTR [ecx+40]
	call	edx
	add	esp, 36					; 00000024H
	cmp	esi, esp
	call	__RTC_CheckEsp

; 737  : 	                       namespaces, nb_attributes, nb_defaulted,
; 738  : 			       attributes);
; 739  : 	if ((ctxt->node != NULL) && (ctxt->input != NULL) &&
; 740  : 	    (ctxt->input->cur != NULL) && (ctxt->input->cur[0] == '/') &&

	mov	eax, DWORD PTR _ctxt$[ebp]
	cmp	DWORD PTR [eax+52], 0
	je	SHORT $LN2@xmlTextRea
	mov	ecx, DWORD PTR _ctxt$[ebp]
	cmp	DWORD PTR [ecx+36], 0
	je	SHORT $LN2@xmlTextRea
	mov	edx, DWORD PTR _ctxt$[ebp]
	mov	eax, DWORD PTR [edx+36]
	cmp	DWORD PTR [eax+16], 0
	je	SHORT $LN2@xmlTextRea
	mov	ecx, DWORD PTR _ctxt$[ebp]
	mov	edx, DWORD PTR [ecx+36]
	mov	eax, 1
	imul	ecx, eax, 0
	mov	edx, DWORD PTR [edx+16]
	movzx	eax, BYTE PTR [edx+ecx]
	cmp	eax, 47					; 0000002fH
	jne	SHORT $LN2@xmlTextRea
	mov	ecx, DWORD PTR _ctxt$[ebp]
	mov	edx, DWORD PTR [ecx+36]
	mov	eax, 1
	shl	eax, 0
	mov	ecx, DWORD PTR [edx+16]
	movzx	edx, BYTE PTR [ecx+eax]
	cmp	edx, 62					; 0000003eH
	jne	SHORT $LN2@xmlTextRea

; 741  : 	    (ctxt->input->cur[1] == '>'))
; 742  : 	    ctxt->node->extra = NODE_IS_EMPTY;

	mov	eax, DWORD PTR _ctxt$[ebp]
	mov	ecx, DWORD PTR [eax+52]
	mov	edx, 1
	mov	WORD PTR [ecx+58], dx
$LN2@xmlTextRea:

; 743  :     }
; 744  :     if (reader != NULL)

	cmp	DWORD PTR _reader$[ebp], 0
	je	SHORT $LN1@xmlTextRea

; 745  : 	reader->state = XML_TEXTREADER_ELEMENT;

	mov	eax, DWORD PTR _reader$[ebp]
	mov	DWORD PTR [eax+16], 1
$LN1@xmlTextRea:

; 746  : }

	pop	esi
	add	esp, 8
	cmp	ebp, esp
	call	__RTC_CheckEsp
	mov	esp, ebp
	pop	ebp
	ret	0
_xmlTextReaderStartElementNs ENDP
_TEXT	ENDS
; Function compile flags: /Odtp /RTCsu
; File c:\users\dag\documents\_clients\codeproject authors group\windows on arm\libxml2\libxml2-2.9.9\xmlreader.c
;	COMDAT _xmlTextReaderEndElement
_TEXT	SEGMENT
_reader$ = -8						; size = 4
_ctxt$ = -4						; size = 4
_ctx$ = 8						; size = 4
_fullname$ = 12						; size = 4
_xmlTextReaderEndElement PROC				; COMDAT

; 691  : xmlTextReaderEndElement(void *ctx, const xmlChar *fullname) {

	push	ebp
	mov	ebp, esp
	sub	esp, 8
	push	esi
	mov	DWORD PTR [ebp-8], -858993460		; ccccccccH
	mov	DWORD PTR [ebp-4], -858993460		; ccccccccH
	mov	ecx, OFFSET __BC13D883_xmlreader@c
	call	@__CheckForDebuggerJustMyCode@4

; 692  :     xmlParserCtxtPtr ctxt = (xmlParserCtxtPtr) ctx;

	mov	eax, DWORD PTR _ctx$[ebp]
	mov	DWORD PTR _ctxt$[ebp], eax

; 693  :     xmlTextReaderPtr reader = ctxt->_private;

	mov	ecx, DWORD PTR _ctxt$[ebp]
	mov	edx, DWORD PTR [ecx+272]
	mov	DWORD PTR _reader$[ebp], edx

; 694  : 
; 695  : #ifdef DEBUG_CALLBACKS
; 696  :     printf("xmlTextReaderEndElement(%s)\n", fullname);
; 697  : #endif
; 698  :     if ((reader != NULL) && (reader->endElement != NULL)) {

	cmp	DWORD PTR _reader$[ebp], 0
	je	SHORT $LN1@xmlTextRea
	mov	eax, DWORD PTR _reader$[ebp]
	cmp	DWORD PTR [eax+36], 0
	je	SHORT $LN1@xmlTextRea

; 699  : 	reader->endElement(ctx, fullname);

	mov	esi, esp
	mov	ecx, DWORD PTR _fullname$[ebp]
	push	ecx
	mov	edx, DWORD PTR _ctx$[ebp]
	push	edx
	mov	eax, DWORD PTR _reader$[ebp]
	mov	ecx, DWORD PTR [eax+36]
	call	ecx
	add	esp, 8
	cmp	esi, esp
	call	__RTC_CheckEsp
$LN1@xmlTextRea:

; 700  :     }
; 701  : }

	pop	esi
	add	esp, 8
	cmp	ebp, esp
	call	__RTC_CheckEsp
	mov	esp, ebp
	pop	ebp
	ret	0
_xmlTextReaderEndElement ENDP
_TEXT	ENDS
; Function compile flags: /Odtp /RTCsu
; File c:\users\dag\documents\_clients\codeproject authors group\windows on arm\libxml2\libxml2-2.9.9\xmlreader.c
;	COMDAT _xmlTextReaderStartElement
_TEXT	SEGMENT
_reader$ = -8						; size = 4
_ctxt$ = -4						; size = 4
_ctx$ = 8						; size = 4
_fullname$ = 12						; size = 4
_atts$ = 16						; size = 4
_xmlTextReaderStartElement PROC				; COMDAT

; 665  : 	                  const xmlChar **atts) {

	push	ebp
	mov	ebp, esp
	sub	esp, 8
	push	esi
	mov	DWORD PTR [ebp-8], -858993460		; ccccccccH
	mov	DWORD PTR [ebp-4], -858993460		; ccccccccH
	mov	ecx, OFFSET __BC13D883_xmlreader@c
	call	@__CheckForDebuggerJustMyCode@4

; 666  :     xmlParserCtxtPtr ctxt = (xmlParserCtxtPtr) ctx;

	mov	eax, DWORD PTR _ctx$[ebp]
	mov	DWORD PTR _ctxt$[ebp], eax

; 667  :     xmlTextReaderPtr reader = ctxt->_private;

	mov	ecx, DWORD PTR _ctxt$[ebp]
	mov	edx, DWORD PTR [ecx+272]
	mov	DWORD PTR _reader$[ebp], edx

; 668  : 
; 669  : #ifdef DEBUG_CALLBACKS
; 670  :     printf("xmlTextReaderStartElement(%s)\n", fullname);
; 671  : #endif
; 672  :     if ((reader != NULL) && (reader->startElement != NULL)) {

	cmp	DWORD PTR _reader$[ebp], 0
	je	$LN2@xmlTextRea
	mov	eax, DWORD PTR _reader$[ebp]
	cmp	DWORD PTR [eax+32], 0
	je	$LN2@xmlTextRea

; 673  : 	reader->startElement(ctx, fullname, atts);

	mov	esi, esp
	mov	ecx, DWORD PTR _atts$[ebp]
	push	ecx
	mov	edx, DWORD PTR _fullname$[ebp]
	push	edx
	mov	eax, DWORD PTR _ctx$[ebp]
	push	eax
	mov	ecx, DWORD PTR _reader$[ebp]
	mov	edx, DWORD PTR [ecx+32]
	call	edx
	add	esp, 12					; 0000000cH
	cmp	esi, esp
	call	__RTC_CheckEsp

; 674  : 	if ((ctxt->node != NULL) && (ctxt->input != NULL) &&
; 675  : 	    (ctxt->input->cur != NULL) && (ctxt->input->cur[0] == '/') &&

	mov	eax, DWORD PTR _ctxt$[ebp]
	cmp	DWORD PTR [eax+52], 0
	je	SHORT $LN2@xmlTextRea
	mov	ecx, DWORD PTR _ctxt$[ebp]
	cmp	DWORD PTR [ecx+36], 0
	je	SHORT $LN2@xmlTextRea
	mov	edx, DWORD PTR _ctxt$[ebp]
	mov	eax, DWORD PTR [edx+36]
	cmp	DWORD PTR [eax+16], 0
	je	SHORT $LN2@xmlTextRea
	mov	ecx, DWORD PTR _ctxt$[ebp]
	mov	edx, DWORD PTR [ecx+36]
	mov	eax, 1
	imul	ecx, eax, 0
	mov	edx, DWORD PTR [edx+16]
	movzx	eax, BYTE PTR [edx+ecx]
	cmp	eax, 47					; 0000002fH
	jne	SHORT $LN2@xmlTextRea
	mov	ecx, DWORD PTR _ctxt$[ebp]
	mov	edx, DWORD PTR [ecx+36]
	mov	eax, 1
	shl	eax, 0
	mov	ecx, DWORD PTR [edx+16]
	movzx	edx, BYTE PTR [ecx+eax]
	cmp	edx, 62					; 0000003eH
	jne	SHORT $LN2@xmlTextRea

; 676  : 	    (ctxt->input->cur[1] == '>'))
; 677  : 	    ctxt->node->extra = NODE_IS_EMPTY;

	mov	eax, DWORD PTR _ctxt$[ebp]
	mov	ecx, DWORD PTR [eax+52]
	mov	edx, 1
	mov	WORD PTR [ecx+58], dx
$LN2@xmlTextRea:

; 678  :     }
; 679  :     if (reader != NULL)

	cmp	DWORD PTR _reader$[ebp], 0
	je	SHORT $LN1@xmlTextRea

; 680  : 	reader->state = XML_TEXTREADER_ELEMENT;

	mov	eax, DWORD PTR _reader$[ebp]
	mov	DWORD PTR [eax+16], 1
$LN1@xmlTextRea:

; 681  : }

	pop	esi
	add	esp, 8
	cmp	ebp, esp
	call	__RTC_CheckEsp
	mov	esp, ebp
	pop	ebp
	ret	0
_xmlTextReaderStartElement ENDP
_TEXT	ENDS
; Function compile flags: /Odtp /RTCsu
; File c:\users\dag\documents\_clients\codeproject authors group\windows on arm\libxml2\libxml2-2.9.9\xmlreader.c
;	COMDAT _xmlTextReaderEntPop
_TEXT	SEGMENT
_ret$ = -4						; size = 4
_reader$ = 8						; size = 4
_xmlTextReaderEntPop PROC				; COMDAT

; 640  : {

	push	ebp
	mov	ebp, esp
	push	ecx
	mov	DWORD PTR [ebp-4], -858993460		; ccccccccH
	mov	ecx, OFFSET __BC13D883_xmlreader@c
	call	@__CheckForDebuggerJustMyCode@4

; 641  :     xmlNodePtr ret;
; 642  : 
; 643  :     if (reader->entNr <= 0)

	mov	eax, DWORD PTR _reader$[ebp]
	cmp	DWORD PTR [eax+96], 0
	jg	SHORT $LN2@xmlTextRea

; 644  :         return (NULL);

	xor	eax, eax
	jmp	SHORT $LN1@xmlTextRea
$LN2@xmlTextRea:

; 645  :     reader->entNr--;

	mov	ecx, DWORD PTR _reader$[ebp]
	mov	edx, DWORD PTR [ecx+96]
	sub	edx, 1
	mov	eax, DWORD PTR _reader$[ebp]
	mov	DWORD PTR [eax+96], edx

; 646  :     if (reader->entNr > 0)

	mov	ecx, DWORD PTR _reader$[ebp]
	cmp	DWORD PTR [ecx+96], 0
	jle	SHORT $LN3@xmlTextRea

; 647  :         reader->ent = reader->entTab[reader->entNr - 1];

	mov	edx, DWORD PTR _reader$[ebp]
	mov	eax, DWORD PTR [edx+96]
	mov	ecx, DWORD PTR _reader$[ebp]
	mov	edx, DWORD PTR [ecx+104]
	mov	ecx, DWORD PTR _reader$[ebp]
	mov	edx, DWORD PTR [edx+eax*4-4]
	mov	DWORD PTR [ecx+92], edx
	jmp	SHORT $LN4@xmlTextRea
$LN3@xmlTextRea:

; 648  :     else
; 649  :         reader->ent = NULL;

	mov	eax, DWORD PTR _reader$[ebp]
	mov	DWORD PTR [eax+92], 0
$LN4@xmlTextRea:

; 650  :     ret = reader->entTab[reader->entNr];

	mov	ecx, DWORD PTR _reader$[ebp]
	mov	edx, DWORD PTR [ecx+96]
	mov	eax, DWORD PTR _reader$[ebp]
	mov	ecx, DWORD PTR [eax+104]
	mov	edx, DWORD PTR [ecx+edx*4]
	mov	DWORD PTR _ret$[ebp], edx

; 651  :     reader->entTab[reader->entNr] = NULL;

	mov	eax, DWORD PTR _reader$[ebp]
	mov	ecx, DWORD PTR [eax+96]
	mov	edx, DWORD PTR _reader$[ebp]
	mov	eax, DWORD PTR [edx+104]
	mov	DWORD PTR [eax+ecx*4], 0

; 652  :     return (ret);

	mov	eax, DWORD PTR _ret$[ebp]
$LN1@xmlTextRea:

; 653  : }

	add	esp, 4
	cmp	ebp, esp
	call	__RTC_CheckEsp
	mov	esp, ebp
	pop	ebp
	ret	0
_xmlTextReaderEntPop ENDP
_TEXT	ENDS
; Function compile flags: /Odtp /RTCsu
; File c:\users\dag\documents\_clients\codeproject authors group\windows on arm\libxml2\libxml2-2.9.9\xmlreader.c
;	COMDAT _xmlTextReaderEntPush
_TEXT	SEGMENT
tv138 = -4						; size = 4
_reader$ = 8						; size = 4
_value$ = 12						; size = 4
_xmlTextReaderEntPush PROC				; COMDAT

; 604  : {

	push	ebp
	mov	ebp, esp
	push	ecx
	push	esi
	mov	DWORD PTR [ebp-4], -858993460		; ccccccccH
	mov	ecx, OFFSET __BC13D883_xmlreader@c
	call	@__CheckForDebuggerJustMyCode@4

; 605  :     if (reader->entMax <= 0) {

	mov	eax, DWORD PTR _reader$[ebp]
	cmp	DWORD PTR [eax+100], 0
	jg	SHORT $LN2@xmlTextRea

; 606  : 	reader->entMax = 10;

	mov	ecx, DWORD PTR _reader$[ebp]
	mov	DWORD PTR [ecx+100], 10			; 0000000aH

; 607  : 	reader->entTab = (xmlNodePtr *) xmlMalloc(reader->entMax *

	mov	edx, DWORD PTR _reader$[ebp]
	mov	eax, DWORD PTR [edx+100]
	shl	eax, 2
	mov	esi, esp
	push	eax
	call	DWORD PTR _xmlMalloc
	add	esp, 4
	cmp	esi, esp
	call	__RTC_CheckEsp
	mov	ecx, DWORD PTR _reader$[ebp]
	mov	DWORD PTR [ecx+104], eax

; 608  : 		                                  sizeof(reader->entTab[0]));
; 609  :         if (reader->entTab == NULL) {

	mov	edx, DWORD PTR _reader$[ebp]
	cmp	DWORD PTR [edx+104], 0
	jne	SHORT $LN2@xmlTextRea

; 610  :             xmlGenericError(xmlGenericErrorContext, "xmlMalloc failed !\n");

	mov	esi, esp
	push	OFFSET ??_C@_0BE@MPMNBMMA@xmlMalloc?5failed?5?$CB?6@
	call	___xmlGenericErrorContext
	mov	eax, DWORD PTR [eax]
	push	eax
	call	___xmlGenericError
	mov	ecx, DWORD PTR [eax]
	call	ecx
	add	esp, 8
	cmp	esi, esp
	call	__RTC_CheckEsp

; 611  :             return (0);

	xor	eax, eax
	jmp	$LN1@xmlTextRea
$LN2@xmlTextRea:

; 612  :         }
; 613  :     }
; 614  :     if (reader->entNr >= reader->entMax) {

	mov	edx, DWORD PTR _reader$[ebp]
	mov	eax, DWORD PTR _reader$[ebp]
	mov	ecx, DWORD PTR [edx+96]
	cmp	ecx, DWORD PTR [eax+100]
	jl	SHORT $LN4@xmlTextRea

; 615  :         reader->entMax *= 2;

	mov	edx, DWORD PTR _reader$[ebp]
	mov	eax, DWORD PTR [edx+100]
	shl	eax, 1
	mov	ecx, DWORD PTR _reader$[ebp]
	mov	DWORD PTR [ecx+100], eax

; 616  :         reader->entTab =

	mov	edx, DWORD PTR _reader$[ebp]
	mov	eax, DWORD PTR [edx+100]
	shl	eax, 2
	mov	esi, esp
	push	eax
	mov	ecx, DWORD PTR _reader$[ebp]
	mov	edx, DWORD PTR [ecx+104]
	push	edx
	call	DWORD PTR _xmlRealloc
	add	esp, 8
	cmp	esi, esp
	call	__RTC_CheckEsp
	mov	ecx, DWORD PTR _reader$[ebp]
	mov	DWORD PTR [ecx+104], eax

; 617  :             (xmlNodePtr *) xmlRealloc(reader->entTab,
; 618  :                                       reader->entMax *
; 619  :                                       sizeof(reader->entTab[0]));
; 620  :         if (reader->entTab == NULL) {

	mov	edx, DWORD PTR _reader$[ebp]
	cmp	DWORD PTR [edx+104], 0
	jne	SHORT $LN4@xmlTextRea

; 621  :             xmlGenericError(xmlGenericErrorContext, "xmlRealloc failed !\n");

	mov	esi, esp
	push	OFFSET ??_C@_0BF@DCPGEBNC@xmlRealloc?5failed?5?$CB?6@
	call	___xmlGenericErrorContext
	mov	eax, DWORD PTR [eax]
	push	eax
	call	___xmlGenericError
	mov	ecx, DWORD PTR [eax]
	call	ecx
	add	esp, 8
	cmp	esi, esp
	call	__RTC_CheckEsp

; 622  :             return (0);

	xor	eax, eax
	jmp	SHORT $LN1@xmlTextRea
$LN4@xmlTextRea:

; 623  :         }
; 624  :     }
; 625  :     reader->entTab[reader->entNr] = value;

	mov	edx, DWORD PTR _reader$[ebp]
	mov	eax, DWORD PTR [edx+96]
	mov	ecx, DWORD PTR _reader$[ebp]
	mov	edx, DWORD PTR [ecx+104]
	mov	ecx, DWORD PTR _value$[ebp]
	mov	DWORD PTR [edx+eax*4], ecx

; 626  :     reader->ent = value;

	mov	edx, DWORD PTR _reader$[ebp]
	mov	eax, DWORD PTR _value$[ebp]
	mov	DWORD PTR [edx+92], eax

; 627  :     return (reader->entNr++);

	mov	ecx, DWORD PTR _reader$[ebp]
	mov	edx, DWORD PTR [ecx+96]
	mov	DWORD PTR tv138[ebp], edx
	mov	eax, DWORD PTR _reader$[ebp]
	mov	ecx, DWORD PTR [eax+96]
	add	ecx, 1
	mov	edx, DWORD PTR _reader$[ebp]
	mov	DWORD PTR [edx+96], ecx
	mov	eax, DWORD PTR tv138[ebp]
$LN1@xmlTextRea:

; 628  : }

	pop	esi
	add	esp, 4
	cmp	ebp, esp
	call	__RTC_CheckEsp
	mov	esp, ebp
	pop	ebp
	ret	0
_xmlTextReaderEntPush ENDP
_TEXT	ENDS
; Function compile flags: /Odtp /RTCsu
; File c:\users\dag\documents\_clients\codeproject authors group\windows on arm\libxml2\libxml2-2.9.9\xmlreader.c
;	COMDAT _xmlTextReaderFreeDoc
_TEXT	SEGMENT
_intSubset$ = -8					; size = 4
_extSubset$ = -4					; size = 4
_reader$ = 8						; size = 4
_cur$ = 12						; size = 4
_xmlTextReaderFreeDoc PROC				; COMDAT

; 518  : xmlTextReaderFreeDoc(xmlTextReaderPtr reader, xmlDocPtr cur) {

	push	ebp
	mov	ebp, esp
	sub	esp, 8
	push	esi
	mov	DWORD PTR [ebp-8], -858993460		; ccccccccH
	mov	DWORD PTR [ebp-4], -858993460		; ccccccccH
	mov	ecx, OFFSET __BC13D883_xmlreader@c
	call	@__CheckForDebuggerJustMyCode@4

; 519  :     xmlDtdPtr extSubset, intSubset;
; 520  : 
; 521  :     if (cur == NULL) return;

	cmp	DWORD PTR _cur$[ebp], 0
	jne	SHORT $LN2@xmlTextRea
	jmp	$LN1@xmlTextRea
$LN2@xmlTextRea:

; 522  : 
; 523  :     if ((__xmlRegisterCallbacks) && (xmlDeregisterNodeDefaultValue))

	cmp	DWORD PTR ___xmlRegisterCallbacks, 0
	je	SHORT $LN3@xmlTextRea
	call	___xmlDeregisterNodeDefaultValue
	cmp	DWORD PTR [eax], 0
	je	SHORT $LN3@xmlTextRea

; 524  : 	xmlDeregisterNodeDefaultValue((xmlNodePtr) cur);

	mov	esi, esp
	mov	eax, DWORD PTR _cur$[ebp]
	push	eax
	call	___xmlDeregisterNodeDefaultValue
	mov	ecx, DWORD PTR [eax]
	call	ecx
	add	esp, 4
	cmp	esi, esp
	call	__RTC_CheckEsp
$LN3@xmlTextRea:

; 525  : 
; 526  :     /*
; 527  :      * Do this before freeing the children list to avoid ID lookups
; 528  :      */
; 529  :     if (cur->ids != NULL) xmlTextReaderFreeIDTable((xmlIDTablePtr) cur->ids);

	mov	edx, DWORD PTR _cur$[ebp]
	cmp	DWORD PTR [edx+64], 0
	je	SHORT $LN4@xmlTextRea
	mov	eax, DWORD PTR _cur$[ebp]
	mov	ecx, DWORD PTR [eax+64]
	push	ecx
	call	_xmlTextReaderFreeIDTable
	add	esp, 4
$LN4@xmlTextRea:

; 530  :     cur->ids = NULL;

	mov	edx, DWORD PTR _cur$[ebp]
	mov	DWORD PTR [edx+64], 0

; 531  :     if (cur->refs != NULL) xmlFreeRefTable((xmlRefTablePtr) cur->refs);

	mov	eax, DWORD PTR _cur$[ebp]
	cmp	DWORD PTR [eax+68], 0
	je	SHORT $LN5@xmlTextRea
	mov	ecx, DWORD PTR _cur$[ebp]
	mov	edx, DWORD PTR [ecx+68]
	push	edx
	call	_xmlFreeRefTable
	add	esp, 4
$LN5@xmlTextRea:

; 532  :     cur->refs = NULL;

	mov	eax, DWORD PTR _cur$[ebp]
	mov	DWORD PTR [eax+68], 0

; 533  :     extSubset = cur->extSubset;

	mov	ecx, DWORD PTR _cur$[ebp]
	mov	edx, DWORD PTR [ecx+48]
	mov	DWORD PTR _extSubset$[ebp], edx

; 534  :     intSubset = cur->intSubset;

	mov	eax, DWORD PTR _cur$[ebp]
	mov	ecx, DWORD PTR [eax+44]
	mov	DWORD PTR _intSubset$[ebp], ecx

; 535  :     if (intSubset == extSubset)

	mov	edx, DWORD PTR _intSubset$[ebp]
	cmp	edx, DWORD PTR _extSubset$[ebp]
	jne	SHORT $LN6@xmlTextRea

; 536  : 	extSubset = NULL;

	mov	DWORD PTR _extSubset$[ebp], 0
$LN6@xmlTextRea:

; 537  :     if (extSubset != NULL) {

	cmp	DWORD PTR _extSubset$[ebp], 0
	je	SHORT $LN7@xmlTextRea

; 538  : 	xmlUnlinkNode((xmlNodePtr) cur->extSubset);

	mov	eax, DWORD PTR _cur$[ebp]
	mov	ecx, DWORD PTR [eax+48]
	push	ecx
	call	_xmlUnlinkNode
	add	esp, 4

; 539  : 	cur->extSubset = NULL;

	mov	edx, DWORD PTR _cur$[ebp]
	mov	DWORD PTR [edx+48], 0

; 540  : 	xmlFreeDtd(extSubset);

	mov	eax, DWORD PTR _extSubset$[ebp]
	push	eax
	call	_xmlFreeDtd
	add	esp, 4
$LN7@xmlTextRea:

; 541  :     }
; 542  :     if (intSubset != NULL) {

	cmp	DWORD PTR _intSubset$[ebp], 0
	je	SHORT $LN8@xmlTextRea

; 543  : 	xmlUnlinkNode((xmlNodePtr) cur->intSubset);

	mov	ecx, DWORD PTR _cur$[ebp]
	mov	edx, DWORD PTR [ecx+44]
	push	edx
	call	_xmlUnlinkNode
	add	esp, 4

; 544  : 	cur->intSubset = NULL;

	mov	eax, DWORD PTR _cur$[ebp]
	mov	DWORD PTR [eax+44], 0

; 545  : 	xmlFreeDtd(intSubset);

	mov	ecx, DWORD PTR _intSubset$[ebp]
	push	ecx
	call	_xmlFreeDtd
	add	esp, 4
$LN8@xmlTextRea:

; 546  :     }
; 547  : 
; 548  :     if (cur->children != NULL) xmlTextReaderFreeNodeList(reader, cur->children);

	mov	edx, DWORD PTR _cur$[ebp]
	cmp	DWORD PTR [edx+12], 0
	je	SHORT $LN9@xmlTextRea
	mov	eax, DWORD PTR _cur$[ebp]
	mov	ecx, DWORD PTR [eax+12]
	push	ecx
	mov	edx, DWORD PTR _reader$[ebp]
	push	edx
	call	_xmlTextReaderFreeNodeList
	add	esp, 8
$LN9@xmlTextRea:

; 549  : 
; 550  :     if (cur->version != NULL) xmlFree((char *) cur->version);

	mov	eax, DWORD PTR _cur$[ebp]
	cmp	DWORD PTR [eax+56], 0
	je	SHORT $LN10@xmlTextRea
	mov	esi, esp
	mov	ecx, DWORD PTR _cur$[ebp]
	mov	edx, DWORD PTR [ecx+56]
	push	edx
	call	DWORD PTR _xmlFree
	add	esp, 4
	cmp	esi, esp
	call	__RTC_CheckEsp
$LN10@xmlTextRea:

; 551  :     if (cur->name != NULL) xmlFree((char *) cur->name);

	mov	eax, DWORD PTR _cur$[ebp]
	cmp	DWORD PTR [eax+8], 0
	je	SHORT $LN11@xmlTextRea
	mov	esi, esp
	mov	ecx, DWORD PTR _cur$[ebp]
	mov	edx, DWORD PTR [ecx+8]
	push	edx
	call	DWORD PTR _xmlFree
	add	esp, 4
	cmp	esi, esp
	call	__RTC_CheckEsp
$LN11@xmlTextRea:

; 552  :     if (cur->encoding != NULL) xmlFree((char *) cur->encoding);

	mov	eax, DWORD PTR _cur$[ebp]
	cmp	DWORD PTR [eax+60], 0
	je	SHORT $LN12@xmlTextRea
	mov	esi, esp
	mov	ecx, DWORD PTR _cur$[ebp]
	mov	edx, DWORD PTR [ecx+60]
	push	edx
	call	DWORD PTR _xmlFree
	add	esp, 4
	cmp	esi, esp
	call	__RTC_CheckEsp
$LN12@xmlTextRea:

; 553  :     if (cur->oldNs != NULL) xmlFreeNsList(cur->oldNs);

	mov	eax, DWORD PTR _cur$[ebp]
	cmp	DWORD PTR [eax+52], 0
	je	SHORT $LN13@xmlTextRea
	mov	ecx, DWORD PTR _cur$[ebp]
	mov	edx, DWORD PTR [ecx+52]
	push	edx
	call	_xmlFreeNsList
	add	esp, 4
$LN13@xmlTextRea:

; 554  :     if (cur->URL != NULL) xmlFree((char *) cur->URL);

	mov	eax, DWORD PTR _cur$[ebp]
	cmp	DWORD PTR [eax+72], 0
	je	SHORT $LN14@xmlTextRea
	mov	esi, esp
	mov	ecx, DWORD PTR _cur$[ebp]
	mov	edx, DWORD PTR [ecx+72]
	push	edx
	call	DWORD PTR _xmlFree
	add	esp, 4
	cmp	esi, esp
	call	__RTC_CheckEsp
$LN14@xmlTextRea:

; 555  :     if (cur->dict != NULL) xmlDictFree(cur->dict);

	mov	eax, DWORD PTR _cur$[ebp]
	cmp	DWORD PTR [eax+80], 0
	je	SHORT $LN15@xmlTextRea
	mov	ecx, DWORD PTR _cur$[ebp]
	mov	edx, DWORD PTR [ecx+80]
	push	edx
	call	_xmlDictFree
	add	esp, 4
$LN15@xmlTextRea:

; 556  : 
; 557  :     xmlFree(cur);

	mov	esi, esp
	mov	eax, DWORD PTR _cur$[ebp]
	push	eax
	call	DWORD PTR _xmlFree
	add	esp, 4
	cmp	esi, esp
	call	__RTC_CheckEsp
$LN1@xmlTextRea:

; 558  : }

	pop	esi
	add	esp, 8
	cmp	ebp, esp
	call	__RTC_CheckEsp
	mov	esp, ebp
	pop	ebp
	ret	0
_xmlTextReaderFreeDoc ENDP
_TEXT	ENDS
; Function compile flags: /Odtp /RTCsu
; File c:\users\dag\documents\_clients\codeproject authors group\windows on arm\libxml2\libxml2-2.9.9\xmlreader.c
;	COMDAT _xmlTextReaderFreeIDTable
_TEXT	SEGMENT
_table$ = 8						; size = 4
_xmlTextReaderFreeIDTable PROC				; COMDAT

; 506  : xmlTextReaderFreeIDTable(xmlIDTablePtr table) {

	push	ebp
	mov	ebp, esp
	mov	ecx, OFFSET __BC13D883_xmlreader@c
	call	@__CheckForDebuggerJustMyCode@4

; 507  :     xmlHashFree(table, xmlTextReaderFreeIDTableEntry);

	push	OFFSET _xmlTextReaderFreeIDTableEntry
	mov	eax, DWORD PTR _table$[ebp]
	push	eax
	call	_xmlHashFree
	add	esp, 8

; 508  : }

	cmp	ebp, esp
	call	__RTC_CheckEsp
	pop	ebp
	ret	0
_xmlTextReaderFreeIDTable ENDP
_TEXT	ENDS
; Function compile flags: /Odtp /RTCsu
; File c:\users\dag\documents\_clients\codeproject authors group\windows on arm\libxml2\libxml2-2.9.9\xmlreader.c
;	COMDAT _xmlTextReaderFreeIDTableEntry
_TEXT	SEGMENT
_id$ = 8						; size = 4
_name$ = 12						; size = 4
_xmlTextReaderFreeIDTableEntry PROC			; COMDAT

; 495  : xmlTextReaderFreeIDTableEntry(void *id, const xmlChar *name ATTRIBUTE_UNUSED) {

	push	ebp
	mov	ebp, esp
	mov	ecx, OFFSET __BC13D883_xmlreader@c
	call	@__CheckForDebuggerJustMyCode@4

; 496  :     xmlFreeID((xmlIDPtr) id);

	mov	eax, DWORD PTR _id$[ebp]
	push	eax
	call	_xmlFreeID
	add	esp, 4

; 497  : }

	cmp	ebp, esp
	call	__RTC_CheckEsp
	pop	ebp
	ret	0
_xmlTextReaderFreeIDTableEntry ENDP
_TEXT	ENDS
; Function compile flags: /Odtp /RTCsu
; File c:\users\dag\documents\_clients\codeproject authors group\windows on arm\libxml2\libxml2-2.9.9\xmlreader.c
;	COMDAT _xmlTextReaderFreePropList
_TEXT	SEGMENT
_next$ = -4						; size = 4
_reader$ = 8						; size = 4
_cur$ = 12						; size = 4
_xmlTextReaderFreePropList PROC				; COMDAT

; 327  : xmlTextReaderFreePropList(xmlTextReaderPtr reader, xmlAttrPtr cur) {

	push	ebp
	mov	ebp, esp
	push	ecx
	mov	DWORD PTR [ebp-4], -858993460		; ccccccccH
	mov	ecx, OFFSET __BC13D883_xmlreader@c
	call	@__CheckForDebuggerJustMyCode@4
$LN2@xmlTextRea:

; 328  :     xmlAttrPtr next;
; 329  : 
; 330  :     while (cur != NULL) {

	cmp	DWORD PTR _cur$[ebp], 0
	je	SHORT $LN1@xmlTextRea

; 331  :         next = cur->next;

	mov	eax, DWORD PTR _cur$[ebp]
	mov	ecx, DWORD PTR [eax+24]
	mov	DWORD PTR _next$[ebp], ecx

; 332  :         xmlTextReaderFreeProp(reader, cur);

	mov	edx, DWORD PTR _cur$[ebp]
	push	edx
	mov	eax, DWORD PTR _reader$[ebp]
	push	eax
	call	_xmlTextReaderFreeProp
	add	esp, 8

; 333  : 	cur = next;

	mov	ecx, DWORD PTR _next$[ebp]
	mov	DWORD PTR _cur$[ebp], ecx

; 334  :     }

	jmp	SHORT $LN2@xmlTextRea
$LN1@xmlTextRea:

; 335  : }

	add	esp, 4
	cmp	ebp, esp
	call	__RTC_CheckEsp
	mov	esp, ebp
	pop	ebp
	ret	0
_xmlTextReaderFreePropList ENDP
_TEXT	ENDS
; Function compile flags: /Odtp /RTCsu
; File c:\users\dag\documents\_clients\codeproject authors group\windows on arm\libxml2\libxml2-2.9.9\xmlreader.c
;	COMDAT _xmlTextReaderFreeProp
_TEXT	SEGMENT
_dict$ = -4						; size = 4
_reader$ = 8						; size = 4
_cur$ = 12						; size = 4
_xmlTextReaderFreeProp PROC				; COMDAT

; 286  : xmlTextReaderFreeProp(xmlTextReaderPtr reader, xmlAttrPtr cur) {

	push	ebp
	mov	ebp, esp
	push	ecx
	push	esi
	mov	DWORD PTR [ebp-4], -858993460		; ccccccccH
	mov	ecx, OFFSET __BC13D883_xmlreader@c
	call	@__CheckForDebuggerJustMyCode@4

; 287  :     xmlDictPtr dict;
; 288  : 
; 289  :     if ((reader != NULL) && (reader->ctxt != NULL))

	cmp	DWORD PTR _reader$[ebp], 0
	je	SHORT $LN2@xmlTextRea
	mov	eax, DWORD PTR _reader$[ebp]
	cmp	DWORD PTR [eax+20], 0
	je	SHORT $LN2@xmlTextRea

; 290  : 	dict = reader->ctxt->dict;

	mov	ecx, DWORD PTR _reader$[ebp]
	mov	edx, DWORD PTR [ecx+20]
	mov	eax, DWORD PTR [edx+296]
	mov	DWORD PTR _dict$[ebp], eax
	jmp	SHORT $LN3@xmlTextRea
$LN2@xmlTextRea:

; 291  :     else
; 292  :         dict = NULL;

	mov	DWORD PTR _dict$[ebp], 0
$LN3@xmlTextRea:

; 293  :     if (cur == NULL) return;

	cmp	DWORD PTR _cur$[ebp], 0
	jne	SHORT $LN4@xmlTextRea
	jmp	$LN1@xmlTextRea
$LN4@xmlTextRea:

; 294  : 
; 295  :     if ((__xmlRegisterCallbacks) && (xmlDeregisterNodeDefaultValue))

	cmp	DWORD PTR ___xmlRegisterCallbacks, 0
	je	SHORT $LN5@xmlTextRea
	call	___xmlDeregisterNodeDefaultValue
	cmp	DWORD PTR [eax], 0
	je	SHORT $LN5@xmlTextRea

; 296  : 	xmlDeregisterNodeDefaultValue((xmlNodePtr) cur);

	mov	esi, esp
	mov	ecx, DWORD PTR _cur$[ebp]
	push	ecx
	call	___xmlDeregisterNodeDefaultValue
	mov	edx, DWORD PTR [eax]
	call	edx
	add	esp, 4
	cmp	esi, esp
	call	__RTC_CheckEsp
$LN5@xmlTextRea:

; 297  : 
; 298  :     /* Check for ID removal -> leading to invalid references ! */
; 299  :     if ((cur->parent != NULL) && (cur->parent->doc != NULL) &&

	mov	eax, DWORD PTR _cur$[ebp]
	cmp	DWORD PTR [eax+20], 0
	je	SHORT $LN6@xmlTextRea
	mov	ecx, DWORD PTR _cur$[ebp]
	mov	edx, DWORD PTR [ecx+20]
	cmp	DWORD PTR [edx+32], 0
	je	SHORT $LN6@xmlTextRea
	mov	eax, DWORD PTR _cur$[ebp]
	mov	ecx, DWORD PTR [eax+20]
	mov	edx, DWORD PTR [ecx+32]
	cmp	DWORD PTR [edx+44], 0
	jne	SHORT $LN7@xmlTextRea
	mov	eax, DWORD PTR _cur$[ebp]
	mov	ecx, DWORD PTR [eax+20]
	mov	edx, DWORD PTR [ecx+32]
	cmp	DWORD PTR [edx+48], 0
	je	SHORT $LN6@xmlTextRea
$LN7@xmlTextRea:

; 300  : 	((cur->parent->doc->intSubset != NULL) ||
; 301  : 	 (cur->parent->doc->extSubset != NULL))) {
; 302  :         if (xmlIsID(cur->parent->doc, cur->parent, cur))

	mov	eax, DWORD PTR _cur$[ebp]
	push	eax
	mov	ecx, DWORD PTR _cur$[ebp]
	mov	edx, DWORD PTR [ecx+20]
	push	edx
	mov	eax, DWORD PTR _cur$[ebp]
	mov	ecx, DWORD PTR [eax+20]
	mov	edx, DWORD PTR [ecx+32]
	push	edx
	call	_xmlIsID
	add	esp, 12					; 0000000cH
	test	eax, eax
	je	SHORT $LN6@xmlTextRea

; 303  : 	    xmlTextReaderRemoveID(cur->parent->doc, cur);

	mov	eax, DWORD PTR _cur$[ebp]
	push	eax
	mov	ecx, DWORD PTR _cur$[ebp]
	mov	edx, DWORD PTR [ecx+20]
	mov	eax, DWORD PTR [edx+32]
	push	eax
	call	_xmlTextReaderRemoveID
	add	esp, 8
$LN6@xmlTextRea:

; 304  :     }
; 305  :     if (cur->children != NULL)

	mov	ecx, DWORD PTR _cur$[ebp]
	cmp	DWORD PTR [ecx+12], 0
	je	SHORT $LN9@xmlTextRea

; 306  :         xmlTextReaderFreeNodeList(reader, cur->children);

	mov	edx, DWORD PTR _cur$[ebp]
	mov	eax, DWORD PTR [edx+12]
	push	eax
	mov	ecx, DWORD PTR _reader$[ebp]
	push	ecx
	call	_xmlTextReaderFreeNodeList
	add	esp, 8
$LN9@xmlTextRea:

; 307  : 
; 308  :     DICT_FREE(cur->name);

	mov	edx, DWORD PTR _cur$[ebp]
	cmp	DWORD PTR [edx+8], 0
	je	SHORT $LN10@xmlTextRea
	cmp	DWORD PTR _dict$[ebp], 0
	je	SHORT $LN11@xmlTextRea
	mov	eax, DWORD PTR _cur$[ebp]
	mov	ecx, DWORD PTR [eax+8]
	push	ecx
	mov	edx, DWORD PTR _dict$[ebp]
	push	edx
	call	_xmlDictOwns
	add	esp, 8
	test	eax, eax
	jne	SHORT $LN10@xmlTextRea
$LN11@xmlTextRea:
	mov	esi, esp
	mov	eax, DWORD PTR _cur$[ebp]
	mov	ecx, DWORD PTR [eax+8]
	push	ecx
	call	DWORD PTR _xmlFree
	add	esp, 4
	cmp	esi, esp
	call	__RTC_CheckEsp
$LN10@xmlTextRea:

; 309  :     if ((reader != NULL) && (reader->ctxt != NULL) &&

	cmp	DWORD PTR _reader$[ebp], 0
	je	SHORT $LN12@xmlTextRea
	mov	edx, DWORD PTR _reader$[ebp]
	cmp	DWORD PTR [edx+20], 0
	je	SHORT $LN12@xmlTextRea
	mov	eax, DWORD PTR _reader$[ebp]
	mov	ecx, DWORD PTR [eax+20]
	cmp	DWORD PTR [ecx+376], 100		; 00000064H
	jge	SHORT $LN12@xmlTextRea

; 310  :         (reader->ctxt->freeAttrsNr < 100)) {
; 311  :         cur->next = reader->ctxt->freeAttrs;

	mov	edx, DWORD PTR _reader$[ebp]
	mov	eax, DWORD PTR [edx+20]
	mov	ecx, DWORD PTR _cur$[ebp]
	mov	edx, DWORD PTR [eax+380]
	mov	DWORD PTR [ecx+24], edx

; 312  : 	reader->ctxt->freeAttrs = cur;

	mov	eax, DWORD PTR _reader$[ebp]
	mov	ecx, DWORD PTR [eax+20]
	mov	edx, DWORD PTR _cur$[ebp]
	mov	DWORD PTR [ecx+380], edx

; 313  : 	reader->ctxt->freeAttrsNr++;

	mov	eax, DWORD PTR _reader$[ebp]
	mov	ecx, DWORD PTR [eax+20]
	mov	edx, DWORD PTR [ecx+376]
	add	edx, 1
	mov	eax, DWORD PTR _reader$[ebp]
	mov	ecx, DWORD PTR [eax+20]
	mov	DWORD PTR [ecx+376], edx

; 314  :     } else {

	jmp	SHORT $LN1@xmlTextRea
$LN12@xmlTextRea:

; 315  : 	xmlFree(cur);

	mov	esi, esp
	mov	edx, DWORD PTR _cur$[ebp]
	push	edx
	call	DWORD PTR _xmlFree
	add	esp, 4
	cmp	esi, esp
	call	__RTC_CheckEsp
$LN1@xmlTextRea:

; 316  :     }
; 317  : }

	pop	esi
	add	esp, 4
	cmp	ebp, esp
	call	__RTC_CheckEsp
	mov	esp, ebp
	pop	ebp
	ret	0
_xmlTextReaderFreeProp ENDP
_TEXT	ENDS
; Function compile flags: /Odtp /RTCsu
; File c:\users\dag\documents\_clients\codeproject authors group\windows on arm\libxml2\libxml2-2.9.9\xmlreader.c
;	COMDAT _xmlTextReaderRemoveID
_TEXT	SEGMENT
_ID$ = -12						; size = 4
_id$ = -8						; size = 4
_table$ = -4						; size = 4
_doc$ = 8						; size = 4
_attr$ = 12						; size = 4
_xmlTextReaderRemoveID PROC				; COMDAT

; 254  : xmlTextReaderRemoveID(xmlDocPtr doc, xmlAttrPtr attr) {

	push	ebp
	mov	ebp, esp
	sub	esp, 12					; 0000000cH
	push	esi
	mov	DWORD PTR [ebp-12], -858993460		; ccccccccH
	mov	DWORD PTR [ebp-8], -858993460		; ccccccccH
	mov	DWORD PTR [ebp-4], -858993460		; ccccccccH
	mov	ecx, OFFSET __BC13D883_xmlreader@c
	call	@__CheckForDebuggerJustMyCode@4

; 255  :     xmlIDTablePtr table;
; 256  :     xmlIDPtr id;
; 257  :     xmlChar *ID;
; 258  : 
; 259  :     if (doc == NULL) return(-1);

	cmp	DWORD PTR _doc$[ebp], 0
	jne	SHORT $LN2@xmlTextRea
	or	eax, -1
	jmp	$LN1@xmlTextRea
$LN2@xmlTextRea:

; 260  :     if (attr == NULL) return(-1);

	cmp	DWORD PTR _attr$[ebp], 0
	jne	SHORT $LN3@xmlTextRea
	or	eax, -1
	jmp	$LN1@xmlTextRea
$LN3@xmlTextRea:

; 261  :     table = (xmlIDTablePtr) doc->ids;

	mov	eax, DWORD PTR _doc$[ebp]
	mov	ecx, DWORD PTR [eax+64]
	mov	DWORD PTR _table$[ebp], ecx

; 262  :     if (table == NULL)

	cmp	DWORD PTR _table$[ebp], 0
	jne	SHORT $LN4@xmlTextRea

; 263  :         return(-1);

	or	eax, -1
	jmp	SHORT $LN1@xmlTextRea
$LN4@xmlTextRea:

; 264  : 
; 265  :     ID = xmlNodeListGetString(doc, attr->children, 1);

	push	1
	mov	edx, DWORD PTR _attr$[ebp]
	mov	eax, DWORD PTR [edx+12]
	push	eax
	mov	ecx, DWORD PTR _doc$[ebp]
	push	ecx
	call	_xmlNodeListGetString
	add	esp, 12					; 0000000cH
	mov	DWORD PTR _ID$[ebp], eax

; 266  :     if (ID == NULL)

	cmp	DWORD PTR _ID$[ebp], 0
	jne	SHORT $LN5@xmlTextRea

; 267  : 	return(-1);

	or	eax, -1
	jmp	SHORT $LN1@xmlTextRea
$LN5@xmlTextRea:

; 268  :     id = xmlHashLookup(table, ID);

	mov	edx, DWORD PTR _ID$[ebp]
	push	edx
	mov	eax, DWORD PTR _table$[ebp]
	push	eax
	call	_xmlHashLookup
	add	esp, 8
	mov	DWORD PTR _id$[ebp], eax

; 269  :     xmlFree(ID);

	mov	esi, esp
	mov	ecx, DWORD PTR _ID$[ebp]
	push	ecx
	call	DWORD PTR _xmlFree
	add	esp, 4
	cmp	esi, esp
	call	__RTC_CheckEsp

; 270  :     if (id == NULL || id->attr != attr) {

	cmp	DWORD PTR _id$[ebp], 0
	je	SHORT $LN7@xmlTextRea
	mov	edx, DWORD PTR _id$[ebp]
	mov	eax, DWORD PTR [edx+8]
	cmp	eax, DWORD PTR _attr$[ebp]
	je	SHORT $LN6@xmlTextRea
$LN7@xmlTextRea:

; 271  : 	return(-1);

	or	eax, -1
	jmp	SHORT $LN1@xmlTextRea
$LN6@xmlTextRea:

; 272  :     }
; 273  :     id->name = attr->name;

	mov	ecx, DWORD PTR _id$[ebp]
	mov	edx, DWORD PTR _attr$[ebp]
	mov	eax, DWORD PTR [edx+8]
	mov	DWORD PTR [ecx+12], eax

; 274  :     id->attr = NULL;

	mov	ecx, DWORD PTR _id$[ebp]
	mov	DWORD PTR [ecx+8], 0

; 275  :     return(0);

	xor	eax, eax
$LN1@xmlTextRea:

; 276  : }

	pop	esi
	add	esp, 12					; 0000000cH
	cmp	ebp, esp
	call	__RTC_CheckEsp
	mov	esp, ebp
	pop	ebp
	ret	0
_xmlTextReaderRemoveID ENDP
_TEXT	ENDS
; Function compile flags: /Odtp /RTCsu
; File c:\users\dag\documents\_clients\codeproject authors group\windows on arm\libxml2\libxml2-2.9.9\xmlreader.c
;	COMDAT _xmlFreeID
_TEXT	SEGMENT
_dict$ = -4						; size = 4
_id$ = 8						; size = 4
_xmlFreeID PROC						; COMDAT

; 231  : xmlFreeID(xmlIDPtr id) {

	push	ebp
	mov	ebp, esp
	push	ecx
	push	esi
	mov	DWORD PTR [ebp-4], -858993460		; ccccccccH
	mov	ecx, OFFSET __BC13D883_xmlreader@c
	call	@__CheckForDebuggerJustMyCode@4

; 232  :     xmlDictPtr dict = NULL;

	mov	DWORD PTR _dict$[ebp], 0

; 233  : 
; 234  :     if (id == NULL) return;

	cmp	DWORD PTR _id$[ebp], 0
	jne	SHORT $LN2@xmlFreeID
	jmp	SHORT $LN1@xmlFreeID
$LN2@xmlFreeID:

; 235  : 
; 236  :     if (id->doc != NULL)

	mov	eax, DWORD PTR _id$[ebp]
	cmp	DWORD PTR [eax+20], 0
	je	SHORT $LN3@xmlFreeID

; 237  :         dict = id->doc->dict;

	mov	ecx, DWORD PTR _id$[ebp]
	mov	edx, DWORD PTR [ecx+20]
	mov	eax, DWORD PTR [edx+80]
	mov	DWORD PTR _dict$[ebp], eax
$LN3@xmlFreeID:

; 238  : 
; 239  :     if (id->value != NULL)

	mov	ecx, DWORD PTR _id$[ebp]
	cmp	DWORD PTR [ecx+4], 0
	je	SHORT $LN4@xmlFreeID

; 240  : 	DICT_FREE(id->value)

	mov	edx, DWORD PTR _id$[ebp]
	cmp	DWORD PTR [edx+4], 0
	je	SHORT $LN4@xmlFreeID
	cmp	DWORD PTR _dict$[ebp], 0
	je	SHORT $LN6@xmlFreeID
	mov	eax, DWORD PTR _id$[ebp]
	mov	ecx, DWORD PTR [eax+4]
	push	ecx
	mov	edx, DWORD PTR _dict$[ebp]
	push	edx
	call	_xmlDictOwns
	add	esp, 8
	test	eax, eax
	jne	SHORT $LN4@xmlFreeID
$LN6@xmlFreeID:
	mov	esi, esp
	mov	eax, DWORD PTR _id$[ebp]
	mov	ecx, DWORD PTR [eax+4]
	push	ecx
	call	DWORD PTR _xmlFree
	add	esp, 4
	cmp	esi, esp
	call	__RTC_CheckEsp
$LN4@xmlFreeID:

; 241  :     xmlFree(id);

	mov	esi, esp
	mov	edx, DWORD PTR _id$[ebp]
	push	edx
	call	DWORD PTR _xmlFree
	add	esp, 4
	cmp	esi, esp
	call	__RTC_CheckEsp
$LN1@xmlFreeID:

; 242  : }

	pop	esi
	add	esp, 4
	cmp	ebp, esp
	call	__RTC_CheckEsp
	mov	esp, ebp
	pop	ebp
	ret	0
_xmlFreeID ENDP
_TEXT	ENDS
; Function compile flags: /Odtp /RTCsu
; File c:\users\dag\documents\_clients\codeproject authors group\windows on arm\libxml2\libxml2-2.9.9\xmlreader.c
;	COMDAT _xmlTextReaderFreeNodeList
_TEXT	SEGMENT
_dict$ = -8						; size = 4
_next$ = -4						; size = 4
_reader$ = 8						; size = 4
_cur$ = 12						; size = 4
_xmlTextReaderFreeNodeList PROC				; COMDAT

; 346  : xmlTextReaderFreeNodeList(xmlTextReaderPtr reader, xmlNodePtr cur) {

	push	ebp
	mov	ebp, esp
	sub	esp, 8
	push	esi
	mov	DWORD PTR [ebp-8], -858993460		; ccccccccH
	mov	DWORD PTR [ebp-4], -858993460		; ccccccccH
	mov	ecx, OFFSET __BC13D883_xmlreader@c
	call	@__CheckForDebuggerJustMyCode@4

; 347  :     xmlNodePtr next;
; 348  :     xmlDictPtr dict;
; 349  : 
; 350  :     if ((reader != NULL) && (reader->ctxt != NULL))

	cmp	DWORD PTR _reader$[ebp], 0
	je	SHORT $LN4@xmlTextRea
	mov	eax, DWORD PTR _reader$[ebp]
	cmp	DWORD PTR [eax+20], 0
	je	SHORT $LN4@xmlTextRea

; 351  : 	dict = reader->ctxt->dict;

	mov	ecx, DWORD PTR _reader$[ebp]
	mov	edx, DWORD PTR [ecx+20]
	mov	eax, DWORD PTR [edx+296]
	mov	DWORD PTR _dict$[ebp], eax
	jmp	SHORT $LN5@xmlTextRea
$LN4@xmlTextRea:

; 352  :     else
; 353  :         dict = NULL;

	mov	DWORD PTR _dict$[ebp], 0
$LN5@xmlTextRea:

; 354  :     if (cur == NULL) return;

	cmp	DWORD PTR _cur$[ebp], 0
	jne	SHORT $LN6@xmlTextRea
	jmp	$LN1@xmlTextRea
$LN6@xmlTextRea:

; 355  :     if (cur->type == XML_NAMESPACE_DECL) {

	mov	ecx, DWORD PTR _cur$[ebp]
	cmp	DWORD PTR [ecx+4], 18			; 00000012H
	jne	SHORT $LN7@xmlTextRea

; 356  : 	xmlFreeNsList((xmlNsPtr) cur);

	mov	edx, DWORD PTR _cur$[ebp]
	push	edx
	call	_xmlFreeNsList
	add	esp, 4

; 357  : 	return;

	jmp	$LN1@xmlTextRea
$LN7@xmlTextRea:

; 358  :     }
; 359  :     if ((cur->type == XML_DOCUMENT_NODE) ||

	mov	eax, DWORD PTR _cur$[ebp]
	cmp	DWORD PTR [eax+4], 9
	je	SHORT $LN9@xmlTextRea
	mov	ecx, DWORD PTR _cur$[ebp]
	cmp	DWORD PTR [ecx+4], 13			; 0000000dH
	jne	SHORT $LN2@xmlTextRea
$LN9@xmlTextRea:

; 360  : 	(cur->type == XML_HTML_DOCUMENT_NODE)) {
; 361  : 	xmlFreeDoc((xmlDocPtr) cur);

	mov	edx, DWORD PTR _cur$[ebp]
	push	edx
	call	_xmlFreeDoc
	add	esp, 4

; 362  : 	return;

	jmp	$LN1@xmlTextRea
$LN2@xmlTextRea:

; 363  :     }
; 364  :     while (cur != NULL) {

	cmp	DWORD PTR _cur$[ebp], 0
	je	$LN1@xmlTextRea

; 365  :         next = cur->next;

	mov	eax, DWORD PTR _cur$[ebp]
	mov	ecx, DWORD PTR [eax+24]
	mov	DWORD PTR _next$[ebp], ecx

; 366  : 	/* unroll to speed up freeing the document */
; 367  : 	if (cur->type != XML_DTD_NODE) {

	mov	edx, DWORD PTR _cur$[ebp]
	cmp	DWORD PTR [edx+4], 14			; 0000000eH
	je	$LN10@xmlTextRea

; 368  : 
; 369  : 	    if ((cur->children != NULL) &&

	mov	eax, DWORD PTR _cur$[ebp]
	cmp	DWORD PTR [eax+12], 0
	je	SHORT $LN11@xmlTextRea
	mov	ecx, DWORD PTR _cur$[ebp]
	cmp	DWORD PTR [ecx+4], 5
	je	SHORT $LN11@xmlTextRea

; 370  : 		(cur->type != XML_ENTITY_REF_NODE)) {
; 371  : 		if (cur->children->parent == cur)

	mov	edx, DWORD PTR _cur$[ebp]
	mov	eax, DWORD PTR [edx+12]
	mov	ecx, DWORD PTR [eax+20]
	cmp	ecx, DWORD PTR _cur$[ebp]
	jne	SHORT $LN12@xmlTextRea

; 372  : 		    xmlTextReaderFreeNodeList(reader, cur->children);

	mov	edx, DWORD PTR _cur$[ebp]
	mov	eax, DWORD PTR [edx+12]
	push	eax
	mov	ecx, DWORD PTR _reader$[ebp]
	push	ecx
	call	_xmlTextReaderFreeNodeList
	add	esp, 8
$LN12@xmlTextRea:

; 373  : 		cur->children = NULL;

	mov	edx, DWORD PTR _cur$[ebp]
	mov	DWORD PTR [edx+12], 0
$LN11@xmlTextRea:

; 374  : 	    }
; 375  : 
; 376  : 	    if ((__xmlRegisterCallbacks) && (xmlDeregisterNodeDefaultValue))

	cmp	DWORD PTR ___xmlRegisterCallbacks, 0
	je	SHORT $LN13@xmlTextRea
	call	___xmlDeregisterNodeDefaultValue
	cmp	DWORD PTR [eax], 0
	je	SHORT $LN13@xmlTextRea

; 377  : 		xmlDeregisterNodeDefaultValue(cur);

	mov	esi, esp
	mov	eax, DWORD PTR _cur$[ebp]
	push	eax
	call	___xmlDeregisterNodeDefaultValue
	mov	ecx, DWORD PTR [eax]
	call	ecx
	add	esp, 4
	cmp	esi, esp
	call	__RTC_CheckEsp
$LN13@xmlTextRea:

; 378  : 
; 379  : 	    if (((cur->type == XML_ELEMENT_NODE) ||
; 380  : 		 (cur->type == XML_XINCLUDE_START) ||
; 381  : 		 (cur->type == XML_XINCLUDE_END)) &&

	mov	edx, DWORD PTR _cur$[ebp]
	cmp	DWORD PTR [edx+4], 1
	je	SHORT $LN15@xmlTextRea
	mov	eax, DWORD PTR _cur$[ebp]
	cmp	DWORD PTR [eax+4], 19			; 00000013H
	je	SHORT $LN15@xmlTextRea
	mov	ecx, DWORD PTR _cur$[ebp]
	cmp	DWORD PTR [ecx+4], 20			; 00000014H
	jne	SHORT $LN14@xmlTextRea
$LN15@xmlTextRea:
	mov	edx, DWORD PTR _cur$[ebp]
	cmp	DWORD PTR [edx+44], 0
	je	SHORT $LN14@xmlTextRea

; 382  : 		(cur->properties != NULL))
; 383  : 		xmlTextReaderFreePropList(reader, cur->properties);

	mov	eax, DWORD PTR _cur$[ebp]
	mov	ecx, DWORD PTR [eax+44]
	push	ecx
	mov	edx, DWORD PTR _reader$[ebp]
	push	edx
	call	_xmlTextReaderFreePropList
	add	esp, 8
$LN14@xmlTextRea:

; 384  : 	    if ((cur->content != (xmlChar *) &(cur->properties)) &&
; 385  : 	        (cur->type != XML_ELEMENT_NODE) &&
; 386  : 		(cur->type != XML_XINCLUDE_START) &&
; 387  : 		(cur->type != XML_XINCLUDE_END) &&

	mov	eax, DWORD PTR _cur$[ebp]
	add	eax, 44					; 0000002cH
	mov	ecx, DWORD PTR _cur$[ebp]
	cmp	DWORD PTR [ecx+40], eax
	je	SHORT $LN16@xmlTextRea
	mov	edx, DWORD PTR _cur$[ebp]
	cmp	DWORD PTR [edx+4], 1
	je	SHORT $LN16@xmlTextRea
	mov	eax, DWORD PTR _cur$[ebp]
	cmp	DWORD PTR [eax+4], 19			; 00000013H
	je	SHORT $LN16@xmlTextRea
	mov	ecx, DWORD PTR _cur$[ebp]
	cmp	DWORD PTR [ecx+4], 20			; 00000014H
	je	SHORT $LN16@xmlTextRea
	mov	edx, DWORD PTR _cur$[ebp]
	cmp	DWORD PTR [edx+4], 5
	je	SHORT $LN16@xmlTextRea

; 388  : 		(cur->type != XML_ENTITY_REF_NODE)) {
; 389  : 		DICT_FREE(cur->content);

	mov	eax, DWORD PTR _cur$[ebp]
	cmp	DWORD PTR [eax+40], 0
	je	SHORT $LN16@xmlTextRea
	cmp	DWORD PTR _dict$[ebp], 0
	je	SHORT $LN18@xmlTextRea
	mov	ecx, DWORD PTR _cur$[ebp]
	mov	edx, DWORD PTR [ecx+40]
	push	edx
	mov	eax, DWORD PTR _dict$[ebp]
	push	eax
	call	_xmlDictOwns
	add	esp, 8
	test	eax, eax
	jne	SHORT $LN16@xmlTextRea
$LN18@xmlTextRea:
	mov	esi, esp
	mov	ecx, DWORD PTR _cur$[ebp]
	mov	edx, DWORD PTR [ecx+40]
	push	edx
	call	DWORD PTR _xmlFree
	add	esp, 4
	cmp	esi, esp
	call	__RTC_CheckEsp
$LN16@xmlTextRea:

; 390  : 	    }
; 391  : 	    if (((cur->type == XML_ELEMENT_NODE) ||
; 392  : 	         (cur->type == XML_XINCLUDE_START) ||
; 393  : 		 (cur->type == XML_XINCLUDE_END)) &&

	mov	eax, DWORD PTR _cur$[ebp]
	cmp	DWORD PTR [eax+4], 1
	je	SHORT $LN20@xmlTextRea
	mov	ecx, DWORD PTR _cur$[ebp]
	cmp	DWORD PTR [ecx+4], 19			; 00000013H
	je	SHORT $LN20@xmlTextRea
	mov	edx, DWORD PTR _cur$[ebp]
	cmp	DWORD PTR [edx+4], 20			; 00000014H
	jne	SHORT $LN19@xmlTextRea
$LN20@xmlTextRea:
	mov	eax, DWORD PTR _cur$[ebp]
	cmp	DWORD PTR [eax+48], 0
	je	SHORT $LN19@xmlTextRea

; 394  : 		(cur->nsDef != NULL))
; 395  : 		xmlFreeNsList(cur->nsDef);

	mov	ecx, DWORD PTR _cur$[ebp]
	mov	edx, DWORD PTR [ecx+48]
	push	edx
	call	_xmlFreeNsList
	add	esp, 4
$LN19@xmlTextRea:

; 396  : 
; 397  : 	    /*
; 398  : 	     * we don't free element names here they are interned now
; 399  : 	     */
; 400  : 	    if ((cur->type != XML_TEXT_NODE) &&

	mov	eax, DWORD PTR _cur$[ebp]
	cmp	DWORD PTR [eax+4], 3
	je	SHORT $LN21@xmlTextRea
	mov	ecx, DWORD PTR _cur$[ebp]
	cmp	DWORD PTR [ecx+4], 8
	je	SHORT $LN21@xmlTextRea

; 401  : 		(cur->type != XML_COMMENT_NODE))
; 402  : 		DICT_FREE(cur->name);

	mov	edx, DWORD PTR _cur$[ebp]
	cmp	DWORD PTR [edx+8], 0
	je	SHORT $LN21@xmlTextRea
	cmp	DWORD PTR _dict$[ebp], 0
	je	SHORT $LN23@xmlTextRea
	mov	eax, DWORD PTR _cur$[ebp]
	mov	ecx, DWORD PTR [eax+8]
	push	ecx
	mov	edx, DWORD PTR _dict$[ebp]
	push	edx
	call	_xmlDictOwns
	add	esp, 8
	test	eax, eax
	jne	SHORT $LN21@xmlTextRea
$LN23@xmlTextRea:
	mov	esi, esp
	mov	eax, DWORD PTR _cur$[ebp]
	mov	ecx, DWORD PTR [eax+8]
	push	ecx
	call	DWORD PTR _xmlFree
	add	esp, 4
	cmp	esi, esp
	call	__RTC_CheckEsp
$LN21@xmlTextRea:

; 403  : 	    if (((cur->type == XML_ELEMENT_NODE) ||
; 404  : 		 (cur->type == XML_TEXT_NODE)) &&
; 405  : 	        (reader != NULL) && (reader->ctxt != NULL) &&

	mov	edx, DWORD PTR _cur$[ebp]
	cmp	DWORD PTR [edx+4], 1
	je	SHORT $LN26@xmlTextRea
	mov	eax, DWORD PTR _cur$[ebp]
	cmp	DWORD PTR [eax+4], 3
	jne	SHORT $LN24@xmlTextRea
$LN26@xmlTextRea:
	cmp	DWORD PTR _reader$[ebp], 0
	je	SHORT $LN24@xmlTextRea
	mov	ecx, DWORD PTR _reader$[ebp]
	cmp	DWORD PTR [ecx+20], 0
	je	SHORT $LN24@xmlTextRea
	mov	edx, DWORD PTR _reader$[ebp]
	mov	eax, DWORD PTR [edx+20]
	cmp	DWORD PTR [eax+368], 100		; 00000064H
	jge	SHORT $LN24@xmlTextRea

; 406  : 		(reader->ctxt->freeElemsNr < 100)) {
; 407  : 	        cur->next = reader->ctxt->freeElems;

	mov	ecx, DWORD PTR _reader$[ebp]
	mov	edx, DWORD PTR [ecx+20]
	mov	eax, DWORD PTR _cur$[ebp]
	mov	ecx, DWORD PTR [edx+372]
	mov	DWORD PTR [eax+24], ecx

; 408  : 		reader->ctxt->freeElems = cur;

	mov	edx, DWORD PTR _reader$[ebp]
	mov	eax, DWORD PTR [edx+20]
	mov	ecx, DWORD PTR _cur$[ebp]
	mov	DWORD PTR [eax+372], ecx

; 409  : 		reader->ctxt->freeElemsNr++;

	mov	edx, DWORD PTR _reader$[ebp]
	mov	eax, DWORD PTR [edx+20]
	mov	ecx, DWORD PTR [eax+368]
	add	ecx, 1
	mov	edx, DWORD PTR _reader$[ebp]
	mov	eax, DWORD PTR [edx+20]
	mov	DWORD PTR [eax+368], ecx

; 410  : 	    } else {

	jmp	SHORT $LN10@xmlTextRea
$LN24@xmlTextRea:

; 411  : 		xmlFree(cur);

	mov	esi, esp
	mov	ecx, DWORD PTR _cur$[ebp]
	push	ecx
	call	DWORD PTR _xmlFree
	add	esp, 4
	cmp	esi, esp
	call	__RTC_CheckEsp
$LN10@xmlTextRea:

; 412  : 	    }
; 413  : 	}
; 414  : 	cur = next;

	mov	edx, DWORD PTR _next$[ebp]
	mov	DWORD PTR _cur$[ebp], edx

; 415  :     }

	jmp	$LN2@xmlTextRea
$LN1@xmlTextRea:

; 416  : }

	pop	esi
	add	esp, 8
	cmp	ebp, esp
	call	__RTC_CheckEsp
	mov	esp, ebp
	pop	ebp
	ret	0
_xmlTextReaderFreeNodeList ENDP
_TEXT	ENDS
; Function compile flags: /Odtp /RTCsu
; File c:\users\dag\documents\_clients\codeproject authors group\windows on arm\libxml2\libxml2-2.9.9\xmlreader.c
;	COMDAT _xmlTextReaderFreeNode
_TEXT	SEGMENT
_dict$ = -4						; size = 4
_reader$ = 8						; size = 4
_cur$ = 12						; size = 4
_xmlTextReaderFreeNode PROC				; COMDAT

; 427  : xmlTextReaderFreeNode(xmlTextReaderPtr reader, xmlNodePtr cur) {

	push	ebp
	mov	ebp, esp
	push	ecx
	push	esi
	mov	DWORD PTR [ebp-4], -858993460		; ccccccccH
	mov	ecx, OFFSET __BC13D883_xmlreader@c
	call	@__CheckForDebuggerJustMyCode@4

; 428  :     xmlDictPtr dict;
; 429  : 
; 430  :     if ((reader != NULL) && (reader->ctxt != NULL))

	cmp	DWORD PTR _reader$[ebp], 0
	je	SHORT $LN2@xmlTextRea
	mov	eax, DWORD PTR _reader$[ebp]
	cmp	DWORD PTR [eax+20], 0
	je	SHORT $LN2@xmlTextRea

; 431  : 	dict = reader->ctxt->dict;

	mov	ecx, DWORD PTR _reader$[ebp]
	mov	edx, DWORD PTR [ecx+20]
	mov	eax, DWORD PTR [edx+296]
	mov	DWORD PTR _dict$[ebp], eax
	jmp	SHORT $LN3@xmlTextRea
$LN2@xmlTextRea:

; 432  :     else
; 433  :         dict = NULL;

	mov	DWORD PTR _dict$[ebp], 0
$LN3@xmlTextRea:

; 434  :     if (cur->type == XML_DTD_NODE) {

	mov	ecx, DWORD PTR _cur$[ebp]
	cmp	DWORD PTR [ecx+4], 14			; 0000000eH
	jne	SHORT $LN4@xmlTextRea

; 435  : 	xmlFreeDtd((xmlDtdPtr) cur);

	mov	edx, DWORD PTR _cur$[ebp]
	push	edx
	call	_xmlFreeDtd
	add	esp, 4

; 436  : 	return;

	jmp	$LN1@xmlTextRea
$LN4@xmlTextRea:

; 437  :     }
; 438  :     if (cur->type == XML_NAMESPACE_DECL) {

	mov	eax, DWORD PTR _cur$[ebp]
	cmp	DWORD PTR [eax+4], 18			; 00000012H
	jne	SHORT $LN5@xmlTextRea

; 439  : 	xmlFreeNs((xmlNsPtr) cur);

	mov	ecx, DWORD PTR _cur$[ebp]
	push	ecx
	call	_xmlFreeNs
	add	esp, 4

; 440  :         return;

	jmp	$LN1@xmlTextRea
$LN5@xmlTextRea:

; 441  :     }
; 442  :     if (cur->type == XML_ATTRIBUTE_NODE) {

	mov	edx, DWORD PTR _cur$[ebp]
	cmp	DWORD PTR [edx+4], 2
	jne	SHORT $LN6@xmlTextRea

; 443  : 	xmlTextReaderFreeProp(reader, (xmlAttrPtr) cur);

	mov	eax, DWORD PTR _cur$[ebp]
	push	eax
	mov	ecx, DWORD PTR _reader$[ebp]
	push	ecx
	call	_xmlTextReaderFreeProp
	add	esp, 8

; 444  : 	return;

	jmp	$LN1@xmlTextRea
$LN6@xmlTextRea:

; 445  :     }
; 446  : 
; 447  :     if ((cur->children != NULL) &&

	mov	edx, DWORD PTR _cur$[ebp]
	cmp	DWORD PTR [edx+12], 0
	je	SHORT $LN7@xmlTextRea
	mov	eax, DWORD PTR _cur$[ebp]
	cmp	DWORD PTR [eax+4], 5
	je	SHORT $LN7@xmlTextRea

; 448  : 	(cur->type != XML_ENTITY_REF_NODE)) {
; 449  : 	if (cur->children->parent == cur)

	mov	ecx, DWORD PTR _cur$[ebp]
	mov	edx, DWORD PTR [ecx+12]
	mov	eax, DWORD PTR [edx+20]
	cmp	eax, DWORD PTR _cur$[ebp]
	jne	SHORT $LN8@xmlTextRea

; 450  : 	    xmlTextReaderFreeNodeList(reader, cur->children);

	mov	ecx, DWORD PTR _cur$[ebp]
	mov	edx, DWORD PTR [ecx+12]
	push	edx
	mov	eax, DWORD PTR _reader$[ebp]
	push	eax
	call	_xmlTextReaderFreeNodeList
	add	esp, 8
$LN8@xmlTextRea:

; 451  : 	cur->children = NULL;

	mov	ecx, DWORD PTR _cur$[ebp]
	mov	DWORD PTR [ecx+12], 0
$LN7@xmlTextRea:

; 452  :     }
; 453  : 
; 454  :     if ((__xmlRegisterCallbacks) && (xmlDeregisterNodeDefaultValue))

	cmp	DWORD PTR ___xmlRegisterCallbacks, 0
	je	SHORT $LN9@xmlTextRea
	call	___xmlDeregisterNodeDefaultValue
	cmp	DWORD PTR [eax], 0
	je	SHORT $LN9@xmlTextRea

; 455  : 	xmlDeregisterNodeDefaultValue(cur);

	mov	esi, esp
	mov	edx, DWORD PTR _cur$[ebp]
	push	edx
	call	___xmlDeregisterNodeDefaultValue
	mov	eax, DWORD PTR [eax]
	call	eax
	add	esp, 4
	cmp	esi, esp
	call	__RTC_CheckEsp
$LN9@xmlTextRea:

; 456  : 
; 457  :     if (((cur->type == XML_ELEMENT_NODE) ||
; 458  : 	 (cur->type == XML_XINCLUDE_START) ||
; 459  : 	 (cur->type == XML_XINCLUDE_END)) &&

	mov	ecx, DWORD PTR _cur$[ebp]
	cmp	DWORD PTR [ecx+4], 1
	je	SHORT $LN11@xmlTextRea
	mov	edx, DWORD PTR _cur$[ebp]
	cmp	DWORD PTR [edx+4], 19			; 00000013H
	je	SHORT $LN11@xmlTextRea
	mov	eax, DWORD PTR _cur$[ebp]
	cmp	DWORD PTR [eax+4], 20			; 00000014H
	jne	SHORT $LN10@xmlTextRea
$LN11@xmlTextRea:
	mov	ecx, DWORD PTR _cur$[ebp]
	cmp	DWORD PTR [ecx+44], 0
	je	SHORT $LN10@xmlTextRea

; 460  : 	(cur->properties != NULL))
; 461  : 	xmlTextReaderFreePropList(reader, cur->properties);

	mov	edx, DWORD PTR _cur$[ebp]
	mov	eax, DWORD PTR [edx+44]
	push	eax
	mov	ecx, DWORD PTR _reader$[ebp]
	push	ecx
	call	_xmlTextReaderFreePropList
	add	esp, 8
$LN10@xmlTextRea:

; 462  :     if ((cur->content != (xmlChar *) &(cur->properties)) &&
; 463  :         (cur->type != XML_ELEMENT_NODE) &&
; 464  : 	(cur->type != XML_XINCLUDE_START) &&
; 465  : 	(cur->type != XML_XINCLUDE_END) &&

	mov	edx, DWORD PTR _cur$[ebp]
	add	edx, 44					; 0000002cH
	mov	eax, DWORD PTR _cur$[ebp]
	cmp	DWORD PTR [eax+40], edx
	je	SHORT $LN12@xmlTextRea
	mov	ecx, DWORD PTR _cur$[ebp]
	cmp	DWORD PTR [ecx+4], 1
	je	SHORT $LN12@xmlTextRea
	mov	edx, DWORD PTR _cur$[ebp]
	cmp	DWORD PTR [edx+4], 19			; 00000013H
	je	SHORT $LN12@xmlTextRea
	mov	eax, DWORD PTR _cur$[ebp]
	cmp	DWORD PTR [eax+4], 20			; 00000014H
	je	SHORT $LN12@xmlTextRea
	mov	ecx, DWORD PTR _cur$[ebp]
	cmp	DWORD PTR [ecx+4], 5
	je	SHORT $LN12@xmlTextRea

; 466  : 	(cur->type != XML_ENTITY_REF_NODE)) {
; 467  : 	DICT_FREE(cur->content);

	mov	edx, DWORD PTR _cur$[ebp]
	cmp	DWORD PTR [edx+40], 0
	je	SHORT $LN12@xmlTextRea
	cmp	DWORD PTR _dict$[ebp], 0
	je	SHORT $LN14@xmlTextRea
	mov	eax, DWORD PTR _cur$[ebp]
	mov	ecx, DWORD PTR [eax+40]
	push	ecx
	mov	edx, DWORD PTR _dict$[ebp]
	push	edx
	call	_xmlDictOwns
	add	esp, 8
	test	eax, eax
	jne	SHORT $LN12@xmlTextRea
$LN14@xmlTextRea:
	mov	esi, esp
	mov	eax, DWORD PTR _cur$[ebp]
	mov	ecx, DWORD PTR [eax+40]
	push	ecx
	call	DWORD PTR _xmlFree
	add	esp, 4
	cmp	esi, esp
	call	__RTC_CheckEsp
$LN12@xmlTextRea:

; 468  :     }
; 469  :     if (((cur->type == XML_ELEMENT_NODE) ||
; 470  : 	 (cur->type == XML_XINCLUDE_START) ||
; 471  : 	 (cur->type == XML_XINCLUDE_END)) &&

	mov	edx, DWORD PTR _cur$[ebp]
	cmp	DWORD PTR [edx+4], 1
	je	SHORT $LN16@xmlTextRea
	mov	eax, DWORD PTR _cur$[ebp]
	cmp	DWORD PTR [eax+4], 19			; 00000013H
	je	SHORT $LN16@xmlTextRea
	mov	ecx, DWORD PTR _cur$[ebp]
	cmp	DWORD PTR [ecx+4], 20			; 00000014H
	jne	SHORT $LN15@xmlTextRea
$LN16@xmlTextRea:
	mov	edx, DWORD PTR _cur$[ebp]
	cmp	DWORD PTR [edx+48], 0
	je	SHORT $LN15@xmlTextRea

; 472  : 	(cur->nsDef != NULL))
; 473  : 	xmlFreeNsList(cur->nsDef);

	mov	eax, DWORD PTR _cur$[ebp]
	mov	ecx, DWORD PTR [eax+48]
	push	ecx
	call	_xmlFreeNsList
	add	esp, 4
$LN15@xmlTextRea:

; 474  : 
; 475  :     /*
; 476  :      * we don't free names here they are interned now
; 477  :      */
; 478  :     if ((cur->type != XML_TEXT_NODE) &&

	mov	edx, DWORD PTR _cur$[ebp]
	cmp	DWORD PTR [edx+4], 3
	je	SHORT $LN17@xmlTextRea
	mov	eax, DWORD PTR _cur$[ebp]
	cmp	DWORD PTR [eax+4], 8
	je	SHORT $LN17@xmlTextRea

; 479  :         (cur->type != XML_COMMENT_NODE))
; 480  : 	DICT_FREE(cur->name);

	mov	ecx, DWORD PTR _cur$[ebp]
	cmp	DWORD PTR [ecx+8], 0
	je	SHORT $LN17@xmlTextRea
	cmp	DWORD PTR _dict$[ebp], 0
	je	SHORT $LN19@xmlTextRea
	mov	edx, DWORD PTR _cur$[ebp]
	mov	eax, DWORD PTR [edx+8]
	push	eax
	mov	ecx, DWORD PTR _dict$[ebp]
	push	ecx
	call	_xmlDictOwns
	add	esp, 8
	test	eax, eax
	jne	SHORT $LN17@xmlTextRea
$LN19@xmlTextRea:
	mov	esi, esp
	mov	edx, DWORD PTR _cur$[ebp]
	mov	eax, DWORD PTR [edx+8]
	push	eax
	call	DWORD PTR _xmlFree
	add	esp, 4
	cmp	esi, esp
	call	__RTC_CheckEsp
$LN17@xmlTextRea:

; 481  : 
; 482  :     if (((cur->type == XML_ELEMENT_NODE) ||
; 483  : 	 (cur->type == XML_TEXT_NODE)) &&
; 484  : 	(reader != NULL) && (reader->ctxt != NULL) &&

	mov	ecx, DWORD PTR _cur$[ebp]
	cmp	DWORD PTR [ecx+4], 1
	je	SHORT $LN22@xmlTextRea
	mov	edx, DWORD PTR _cur$[ebp]
	cmp	DWORD PTR [edx+4], 3
	jne	SHORT $LN20@xmlTextRea
$LN22@xmlTextRea:
	cmp	DWORD PTR _reader$[ebp], 0
	je	SHORT $LN20@xmlTextRea
	mov	eax, DWORD PTR _reader$[ebp]
	cmp	DWORD PTR [eax+20], 0
	je	SHORT $LN20@xmlTextRea
	mov	ecx, DWORD PTR _reader$[ebp]
	mov	edx, DWORD PTR [ecx+20]
	cmp	DWORD PTR [edx+368], 100		; 00000064H
	jge	SHORT $LN20@xmlTextRea

; 485  : 	(reader->ctxt->freeElemsNr < 100)) {
; 486  : 	cur->next = reader->ctxt->freeElems;

	mov	eax, DWORD PTR _reader$[ebp]
	mov	ecx, DWORD PTR [eax+20]
	mov	edx, DWORD PTR _cur$[ebp]
	mov	eax, DWORD PTR [ecx+372]
	mov	DWORD PTR [edx+24], eax

; 487  : 	reader->ctxt->freeElems = cur;

	mov	ecx, DWORD PTR _reader$[ebp]
	mov	edx, DWORD PTR [ecx+20]
	mov	eax, DWORD PTR _cur$[ebp]
	mov	DWORD PTR [edx+372], eax

; 488  : 	reader->ctxt->freeElemsNr++;

	mov	ecx, DWORD PTR _reader$[ebp]
	mov	edx, DWORD PTR [ecx+20]
	mov	eax, DWORD PTR [edx+368]
	add	eax, 1
	mov	ecx, DWORD PTR _reader$[ebp]
	mov	edx, DWORD PTR [ecx+20]
	mov	DWORD PTR [edx+368], eax

; 489  :     } else {

	jmp	SHORT $LN1@xmlTextRea
$LN20@xmlTextRea:

; 490  : 	xmlFree(cur);

	mov	esi, esp
	mov	eax, DWORD PTR _cur$[ebp]
	push	eax
	call	DWORD PTR _xmlFree
	add	esp, 4
	cmp	esi, esp
	call	__RTC_CheckEsp
$LN1@xmlTextRea:

; 491  :     }
; 492  : }

	pop	esi
	add	esp, 4
	cmp	ebp, esp
	call	__RTC_CheckEsp
	mov	esp, ebp
	pop	ebp
	ret	0
_xmlTextReaderFreeNode ENDP
_TEXT	ENDS
; Function compile flags: /Odtp /RTCsu
; File c:\users\dag\documents\_clients\codeproject authors group\windows on arm\libxml2\libxml2-2.9.9\xmlreader.c
;	COMDAT _xmlTextReaderNextTree
_TEXT	SEGMENT
_reader$ = 8						; size = 4
_xmlTextReaderNextTree PROC				; COMDAT

; 1892 : {

	push	ebp
	mov	ebp, esp
	mov	ecx, OFFSET __BC13D883_xmlreader@c
	call	@__CheckForDebuggerJustMyCode@4

; 1893 :     if (reader == NULL)

	cmp	DWORD PTR _reader$[ebp], 0
	jne	SHORT $LN2@xmlTextRea

; 1894 :         return(-1);

	or	eax, -1
	jmp	$LN1@xmlTextRea
$LN2@xmlTextRea:

; 1895 : 
; 1896 :     if (reader->state == XML_TEXTREADER_END)

	mov	eax, DWORD PTR _reader$[ebp]
	cmp	DWORD PTR [eax+16], 2
	jne	SHORT $LN3@xmlTextRea

; 1897 :         return(0);

	xor	eax, eax
	jmp	$LN1@xmlTextRea
$LN3@xmlTextRea:

; 1898 : 
; 1899 :     if (reader->node == NULL) {

	mov	ecx, DWORD PTR _reader$[ebp]
	cmp	DWORD PTR [ecx+64], 0
	jne	SHORT $LN4@xmlTextRea

; 1900 :         if (reader->doc->children == NULL) {

	mov	edx, DWORD PTR _reader$[ebp]
	mov	eax, DWORD PTR [edx+4]
	cmp	DWORD PTR [eax+12], 0
	jne	SHORT $LN5@xmlTextRea

; 1901 :             reader->state = XML_TEXTREADER_END;

	mov	ecx, DWORD PTR _reader$[ebp]
	mov	DWORD PTR [ecx+16], 2

; 1902 :             return(0);

	xor	eax, eax
	jmp	$LN1@xmlTextRea
$LN5@xmlTextRea:

; 1903 :         }
; 1904 : 
; 1905 :         reader->node = reader->doc->children;

	mov	edx, DWORD PTR _reader$[ebp]
	mov	eax, DWORD PTR [edx+4]
	mov	ecx, DWORD PTR _reader$[ebp]
	mov	edx, DWORD PTR [eax+12]
	mov	DWORD PTR [ecx+64], edx

; 1906 :         reader->state = XML_TEXTREADER_START;

	mov	eax, DWORD PTR _reader$[ebp]
	mov	DWORD PTR [eax+16], 0

; 1907 :         return(1);

	mov	eax, 1
	jmp	$LN1@xmlTextRea
$LN4@xmlTextRea:

; 1908 :     }
; 1909 : 
; 1910 :     if (reader->state != XML_TEXTREADER_BACKTRACK) {

	mov	ecx, DWORD PTR _reader$[ebp]
	cmp	DWORD PTR [ecx+16], 4
	je	SHORT $LN6@xmlTextRea

; 1911 : 	/* Here removed traversal to child, because we want to skip the subtree,
; 1912 : 	replace with traversal to sibling to skip subtree */
; 1913 :         if (reader->node->next != 0) {

	mov	edx, DWORD PTR _reader$[ebp]
	mov	eax, DWORD PTR [edx+64]
	cmp	DWORD PTR [eax+24], 0
	je	SHORT $LN7@xmlTextRea

; 1914 : 	    /* Move to sibling if present,skipping sub-tree */
; 1915 :             reader->node = reader->node->next;

	mov	ecx, DWORD PTR _reader$[ebp]
	mov	edx, DWORD PTR [ecx+64]
	mov	eax, DWORD PTR _reader$[ebp]
	mov	ecx, DWORD PTR [edx+24]
	mov	DWORD PTR [eax+64], ecx

; 1916 :             reader->state = XML_TEXTREADER_START;

	mov	edx, DWORD PTR _reader$[ebp]
	mov	DWORD PTR [edx+16], 0

; 1917 :             return(1);

	mov	eax, 1
	jmp	$LN1@xmlTextRea
$LN7@xmlTextRea:

; 1918 :         }
; 1919 : 
; 1920 : 	/* if reader->node->next is NULL mean no subtree for current node,
; 1921 : 	so need to move to sibling of parent node if present */
; 1922 : 	reader->state = XML_TEXTREADER_BACKTRACK;

	mov	eax, DWORD PTR _reader$[ebp]
	mov	DWORD PTR [eax+16], 4

; 1923 : 	/* This will move to parent if present */
; 1924 : 	xmlTextReaderRead(reader);

	mov	ecx, DWORD PTR _reader$[ebp]
	push	ecx
	call	_xmlTextReaderRead
	add	esp, 4
$LN6@xmlTextRea:

; 1925 :     }
; 1926 : 
; 1927 :     if (reader->node->next != 0) {

	mov	edx, DWORD PTR _reader$[ebp]
	mov	eax, DWORD PTR [edx+64]
	cmp	DWORD PTR [eax+24], 0
	je	SHORT $LN8@xmlTextRea

; 1928 :         reader->node = reader->node->next;

	mov	ecx, DWORD PTR _reader$[ebp]
	mov	edx, DWORD PTR [ecx+64]
	mov	eax, DWORD PTR _reader$[ebp]
	mov	ecx, DWORD PTR [edx+24]
	mov	DWORD PTR [eax+64], ecx

; 1929 :         reader->state = XML_TEXTREADER_START;

	mov	edx, DWORD PTR _reader$[ebp]
	mov	DWORD PTR [edx+16], 0

; 1930 :         return(1);

	mov	eax, 1
	jmp	SHORT $LN1@xmlTextRea
$LN8@xmlTextRea:

; 1931 :     }
; 1932 : 
; 1933 :     if (reader->node->parent != 0) {

	mov	eax, DWORD PTR _reader$[ebp]
	mov	ecx, DWORD PTR [eax+64]
	cmp	DWORD PTR [ecx+20], 0
	je	SHORT $LN9@xmlTextRea

; 1934 :         if (reader->node->parent->type == XML_DOCUMENT_NODE) {

	mov	edx, DWORD PTR _reader$[ebp]
	mov	eax, DWORD PTR [edx+64]
	mov	ecx, DWORD PTR [eax+20]
	cmp	DWORD PTR [ecx+4], 9
	jne	SHORT $LN10@xmlTextRea

; 1935 :             reader->state = XML_TEXTREADER_END;

	mov	edx, DWORD PTR _reader$[ebp]
	mov	DWORD PTR [edx+16], 2

; 1936 :             return(0);

	xor	eax, eax
	jmp	SHORT $LN1@xmlTextRea
$LN10@xmlTextRea:

; 1937 :         }
; 1938 : 
; 1939 :         reader->node = reader->node->parent;

	mov	eax, DWORD PTR _reader$[ebp]
	mov	ecx, DWORD PTR [eax+64]
	mov	edx, DWORD PTR _reader$[ebp]
	mov	eax, DWORD PTR [ecx+20]
	mov	DWORD PTR [edx+64], eax

; 1940 :         reader->depth--;

	mov	ecx, DWORD PTR _reader$[ebp]
	mov	edx, DWORD PTR [ecx+72]
	sub	edx, 1
	mov	eax, DWORD PTR _reader$[ebp]
	mov	DWORD PTR [eax+72], edx

; 1941 :         reader->state = XML_TEXTREADER_BACKTRACK;

	mov	ecx, DWORD PTR _reader$[ebp]
	mov	DWORD PTR [ecx+16], 4

; 1942 : 	/* Repeat process to move to sibling of parent node if present */
; 1943 :         xmlTextReaderNextTree(reader);

	mov	edx, DWORD PTR _reader$[ebp]
	push	edx
	call	_xmlTextReaderNextTree
	add	esp, 4
$LN9@xmlTextRea:

; 1944 :     }
; 1945 : 
; 1946 :     reader->state = XML_TEXTREADER_END;

	mov	eax, DWORD PTR _reader$[ebp]
	mov	DWORD PTR [eax+16], 2

; 1947 : 
; 1948 :     return(1);

	mov	eax, 1
$LN1@xmlTextRea:

; 1949 : }

	cmp	ebp, esp
	call	__RTC_CheckEsp
	pop	ebp
	ret	0
_xmlTextReaderNextTree ENDP
_TEXT	ENDS
; Function compile flags: /Odtp /RTCsu
; File c:\users\dag\documents\_clients\codeproject authors group\windows on arm\libxml2\libxml2-2.9.9\xmlreader.c
;	COMDAT _xmlTextReaderReadTree
_TEXT	SEGMENT
_reader$ = 8						; size = 4
_xmlTextReaderReadTree PROC				; COMDAT

; 1962 : xmlTextReaderReadTree(xmlTextReaderPtr reader) {

	push	ebp
	mov	ebp, esp
	mov	ecx, OFFSET __BC13D883_xmlreader@c
	call	@__CheckForDebuggerJustMyCode@4

; 1963 :     if (reader->state == XML_TEXTREADER_END)

	mov	eax, DWORD PTR _reader$[ebp]
	cmp	DWORD PTR [eax+16], 2
	jne	SHORT $next_node$15

; 1964 :         return(0);

	xor	eax, eax
	jmp	$LN1@xmlTextRea
$next_node$15:

; 1965 : 
; 1966 : next_node:
; 1967 :     if (reader->node == NULL) {

	mov	ecx, DWORD PTR _reader$[ebp]
	cmp	DWORD PTR [ecx+64], 0
	jne	SHORT $LN3@xmlTextRea

; 1968 :         if (reader->doc->children == NULL) {

	mov	edx, DWORD PTR _reader$[ebp]
	mov	eax, DWORD PTR [edx+4]
	cmp	DWORD PTR [eax+12], 0
	jne	SHORT $LN4@xmlTextRea

; 1969 :             reader->state = XML_TEXTREADER_END;

	mov	ecx, DWORD PTR _reader$[ebp]
	mov	DWORD PTR [ecx+16], 2

; 1970 :             return(0);

	xor	eax, eax
	jmp	$LN1@xmlTextRea
$LN4@xmlTextRea:

; 1971 :         }
; 1972 : 
; 1973 :         reader->node = reader->doc->children;

	mov	edx, DWORD PTR _reader$[ebp]
	mov	eax, DWORD PTR [edx+4]
	mov	ecx, DWORD PTR _reader$[ebp]
	mov	edx, DWORD PTR [eax+12]
	mov	DWORD PTR [ecx+64], edx

; 1974 :         reader->state = XML_TEXTREADER_START;

	mov	eax, DWORD PTR _reader$[ebp]
	mov	DWORD PTR [eax+16], 0

; 1975 :         goto found_node;

	jmp	$found_node$16
$LN3@xmlTextRea:

; 1976 :     }
; 1977 : 
; 1978 :     if ((reader->state != XML_TEXTREADER_BACKTRACK) &&
; 1979 :         (reader->node->type != XML_DTD_NODE) &&
; 1980 :         (reader->node->type != XML_XINCLUDE_START) &&

	mov	ecx, DWORD PTR _reader$[ebp]
	cmp	DWORD PTR [ecx+16], 4
	je	SHORT $LN5@xmlTextRea
	mov	edx, DWORD PTR _reader$[ebp]
	mov	eax, DWORD PTR [edx+64]
	cmp	DWORD PTR [eax+4], 14			; 0000000eH
	je	SHORT $LN5@xmlTextRea
	mov	ecx, DWORD PTR _reader$[ebp]
	mov	edx, DWORD PTR [ecx+64]
	cmp	DWORD PTR [edx+4], 19			; 00000013H
	je	SHORT $LN5@xmlTextRea
	mov	eax, DWORD PTR _reader$[ebp]
	mov	ecx, DWORD PTR [eax+64]
	cmp	DWORD PTR [ecx+4], 5
	je	SHORT $LN5@xmlTextRea

; 1981 : 	(reader->node->type != XML_ENTITY_REF_NODE)) {
; 1982 :         if (reader->node->children != NULL) {

	mov	edx, DWORD PTR _reader$[ebp]
	mov	eax, DWORD PTR [edx+64]
	cmp	DWORD PTR [eax+12], 0
	je	SHORT $LN6@xmlTextRea

; 1983 :             reader->node = reader->node->children;

	mov	ecx, DWORD PTR _reader$[ebp]
	mov	edx, DWORD PTR [ecx+64]
	mov	eax, DWORD PTR _reader$[ebp]
	mov	ecx, DWORD PTR [edx+12]
	mov	DWORD PTR [eax+64], ecx

; 1984 :             reader->depth++;

	mov	edx, DWORD PTR _reader$[ebp]
	mov	eax, DWORD PTR [edx+72]
	add	eax, 1
	mov	ecx, DWORD PTR _reader$[ebp]
	mov	DWORD PTR [ecx+72], eax

; 1985 :             reader->state = XML_TEXTREADER_START;

	mov	edx, DWORD PTR _reader$[ebp]
	mov	DWORD PTR [edx+16], 0

; 1986 :             goto found_node;

	jmp	$found_node$16
$LN6@xmlTextRea:

; 1987 :         }
; 1988 : 
; 1989 :         if (reader->node->type == XML_ATTRIBUTE_NODE) {

	mov	eax, DWORD PTR _reader$[ebp]
	mov	ecx, DWORD PTR [eax+64]
	cmp	DWORD PTR [ecx+4], 2
	jne	SHORT $LN5@xmlTextRea

; 1990 :             reader->state = XML_TEXTREADER_BACKTRACK;

	mov	edx, DWORD PTR _reader$[ebp]
	mov	DWORD PTR [edx+16], 4

; 1991 :             goto found_node;

	jmp	$found_node$16
$LN5@xmlTextRea:

; 1992 :         }
; 1993 :     }
; 1994 : 
; 1995 :     if (reader->node->next != NULL) {

	mov	eax, DWORD PTR _reader$[ebp]
	mov	ecx, DWORD PTR [eax+64]
	cmp	DWORD PTR [ecx+24], 0
	je	SHORT $LN8@xmlTextRea

; 1996 :         reader->node = reader->node->next;

	mov	edx, DWORD PTR _reader$[ebp]
	mov	eax, DWORD PTR [edx+64]
	mov	ecx, DWORD PTR _reader$[ebp]
	mov	edx, DWORD PTR [eax+24]
	mov	DWORD PTR [ecx+64], edx

; 1997 :         reader->state = XML_TEXTREADER_START;

	mov	eax, DWORD PTR _reader$[ebp]
	mov	DWORD PTR [eax+16], 0

; 1998 :         goto found_node;

	jmp	SHORT $found_node$16
$LN8@xmlTextRea:

; 1999 :     }
; 2000 : 
; 2001 :     if (reader->node->parent != NULL) {

	mov	ecx, DWORD PTR _reader$[ebp]
	mov	edx, DWORD PTR [ecx+64]
	cmp	DWORD PTR [edx+20], 0
	je	SHORT $LN9@xmlTextRea

; 2002 :         if ((reader->node->parent->type == XML_DOCUMENT_NODE) ||

	mov	eax, DWORD PTR _reader$[ebp]
	mov	ecx, DWORD PTR [eax+64]
	mov	edx, DWORD PTR [ecx+20]
	cmp	DWORD PTR [edx+4], 9
	je	SHORT $LN11@xmlTextRea
	mov	eax, DWORD PTR _reader$[ebp]
	mov	ecx, DWORD PTR [eax+64]
	mov	edx, DWORD PTR [ecx+20]
	cmp	DWORD PTR [edx+4], 13			; 0000000dH
	jne	SHORT $LN10@xmlTextRea
$LN11@xmlTextRea:

; 2003 : 	    (reader->node->parent->type == XML_HTML_DOCUMENT_NODE)) {
; 2004 :             reader->state = XML_TEXTREADER_END;

	mov	eax, DWORD PTR _reader$[ebp]
	mov	DWORD PTR [eax+16], 2

; 2005 :             return(0);

	xor	eax, eax
	jmp	SHORT $LN1@xmlTextRea
$LN10@xmlTextRea:

; 2006 :         }
; 2007 : 
; 2008 :         reader->node = reader->node->parent;

	mov	ecx, DWORD PTR _reader$[ebp]
	mov	edx, DWORD PTR [ecx+64]
	mov	eax, DWORD PTR _reader$[ebp]
	mov	ecx, DWORD PTR [edx+20]
	mov	DWORD PTR [eax+64], ecx

; 2009 :         reader->depth--;

	mov	edx, DWORD PTR _reader$[ebp]
	mov	eax, DWORD PTR [edx+72]
	sub	eax, 1
	mov	ecx, DWORD PTR _reader$[ebp]
	mov	DWORD PTR [ecx+72], eax

; 2010 :         reader->state = XML_TEXTREADER_BACKTRACK;

	mov	edx, DWORD PTR _reader$[ebp]
	mov	DWORD PTR [edx+16], 4

; 2011 :         goto found_node;

	jmp	SHORT $found_node$16
$LN9@xmlTextRea:

; 2012 :     }
; 2013 : 
; 2014 :     reader->state = XML_TEXTREADER_END;

	mov	eax, DWORD PTR _reader$[ebp]
	mov	DWORD PTR [eax+16], 2
$found_node$16:

; 2015 : 
; 2016 : found_node:
; 2017 :     if ((reader->node->type == XML_XINCLUDE_START) ||

	mov	ecx, DWORD PTR _reader$[ebp]
	mov	edx, DWORD PTR [ecx+64]
	cmp	DWORD PTR [edx+4], 19			; 00000013H
	je	SHORT $LN13@xmlTextRea
	mov	eax, DWORD PTR _reader$[ebp]
	mov	ecx, DWORD PTR [eax+64]
	cmp	DWORD PTR [ecx+4], 20			; 00000014H
	jne	SHORT $LN12@xmlTextRea
$LN13@xmlTextRea:

; 2018 :         (reader->node->type == XML_XINCLUDE_END))
; 2019 : 	goto next_node;

	jmp	$next_node$15
$LN12@xmlTextRea:

; 2020 : 
; 2021 :     return(1);

	mov	eax, 1
$LN1@xmlTextRea:

; 2022 : }

	cmp	ebp, esp
	call	__RTC_CheckEsp
	pop	ebp
	ret	0
_xmlTextReaderReadTree ENDP
_TEXT	ENDS
; Function compile flags: /Odtp /RTCsu
; File c:\users\dag\documents\_clients\codeproject authors group\windows on arm\libxml2\libxml2-2.9.9\xmlreader.c
;	COMDAT _xmlTextReaderGetErrorHandler
_TEXT	SEGMENT
_reader$ = 8						; size = 4
_f$ = 12						; size = 4
_arg$ = 16						; size = 4
_xmlTextReaderGetErrorHandler PROC			; COMDAT

; 5096 : {

	push	ebp
	mov	ebp, esp
	mov	ecx, OFFSET __BC13D883_xmlreader@c
	call	@__CheckForDebuggerJustMyCode@4

; 5097 :     if (f != NULL)

	cmp	DWORD PTR _f$[ebp], 0
	je	SHORT $LN2@xmlTextRea

; 5098 :         *f = reader->errorFunc;

	mov	eax, DWORD PTR _f$[ebp]
	mov	ecx, DWORD PTR _reader$[ebp]
	mov	edx, DWORD PTR [ecx+108]
	mov	DWORD PTR [eax], edx
$LN2@xmlTextRea:

; 5099 :     if (arg != NULL)

	cmp	DWORD PTR _arg$[ebp], 0
	je	SHORT $LN1@xmlTextRea

; 5100 :         *arg = reader->errorFuncArg;

	mov	eax, DWORD PTR _arg$[ebp]
	mov	ecx, DWORD PTR _reader$[ebp]
	mov	edx, DWORD PTR [ecx+112]
	mov	DWORD PTR [eax], edx
$LN1@xmlTextRea:

; 5101 : }

	cmp	ebp, esp
	call	__RTC_CheckEsp
	pop	ebp
	ret	0
_xmlTextReaderGetErrorHandler ENDP
_TEXT	ENDS
; Function compile flags: /Odtp /RTCsu
; File c:\users\dag\documents\_clients\codeproject authors group\windows on arm\libxml2\libxml2-2.9.9\xmlreader.c
;	COMDAT _xmlTextReaderSetStructuredErrorHandler
_TEXT	SEGMENT
_reader$ = 8						; size = 4
_f$ = 12						; size = 4
_arg$ = 16						; size = 4
_xmlTextReaderSetStructuredErrorHandler PROC		; COMDAT

; 5008 : {

	push	ebp
	mov	ebp, esp
	mov	ecx, OFFSET __BC13D883_xmlreader@c
	call	@__CheckForDebuggerJustMyCode@4

; 5009 :     if (f != NULL) {

	cmp	DWORD PTR _f$[ebp], 0
	je	$LN2@xmlTextRea

; 5010 :         reader->ctxt->sax->error = NULL;

	mov	eax, DWORD PTR _reader$[ebp]
	mov	ecx, DWORD PTR [eax+20]
	mov	edx, DWORD PTR [ecx]
	mov	DWORD PTR [edx+88], 0

; 5011 :         reader->ctxt->sax->serror = xmlTextReaderStructuredError;

	mov	eax, DWORD PTR _reader$[ebp]
	mov	ecx, DWORD PTR [eax+20]
	mov	edx, DWORD PTR [ecx]
	mov	DWORD PTR [edx+124], OFFSET _xmlTextReaderStructuredError

; 5012 :         reader->ctxt->vctxt.error = xmlTextReaderValidityError;

	mov	eax, DWORD PTR _reader$[ebp]
	mov	ecx, DWORD PTR [eax+20]
	mov	DWORD PTR [ecx+112], OFFSET _xmlTextReaderValidityError

; 5013 :         reader->ctxt->sax->warning = xmlTextReaderWarning;

	mov	edx, DWORD PTR _reader$[ebp]
	mov	eax, DWORD PTR [edx+20]
	mov	ecx, DWORD PTR [eax]
	mov	DWORD PTR [ecx+84], OFFSET _xmlTextReaderWarning

; 5014 :         reader->ctxt->vctxt.warning = xmlTextReaderValidityWarning;

	mov	edx, DWORD PTR _reader$[ebp]
	mov	eax, DWORD PTR [edx+20]
	mov	DWORD PTR [eax+116], OFFSET _xmlTextReaderValidityWarning

; 5015 :         reader->sErrorFunc = f;

	mov	ecx, DWORD PTR _reader$[ebp]
	mov	edx, DWORD PTR _f$[ebp]
	mov	DWORD PTR [ecx+192], edx

; 5016 :         reader->errorFunc = NULL;

	mov	eax, DWORD PTR _reader$[ebp]
	mov	DWORD PTR [eax+108], 0

; 5017 :         reader->errorFuncArg = arg;

	mov	ecx, DWORD PTR _reader$[ebp]
	mov	edx, DWORD PTR _arg$[ebp]
	mov	DWORD PTR [ecx+112], edx

; 5018 : #ifdef LIBXML_SCHEMAS_ENABLED
; 5019 :         if (reader->rngValidCtxt) {

	mov	eax, DWORD PTR _reader$[ebp]
	cmp	DWORD PTR [eax+120], 0
	je	SHORT $LN4@xmlTextRea

; 5020 :             xmlRelaxNGSetValidErrors(reader->rngValidCtxt, NULL, NULL,

	mov	ecx, DWORD PTR _reader$[ebp]
	push	ecx
	push	0
	push	0
	mov	edx, DWORD PTR _reader$[ebp]
	mov	eax, DWORD PTR [edx+120]
	push	eax
	call	_xmlRelaxNGSetValidErrors
	add	esp, 16					; 00000010H

; 5021 :                                      reader);
; 5022 :             xmlRelaxNGSetValidStructuredErrors(reader->rngValidCtxt,

	mov	ecx, DWORD PTR _reader$[ebp]
	push	ecx
	push	OFFSET _xmlTextReaderValidityStructuredRelay
	mov	edx, DWORD PTR _reader$[ebp]
	mov	eax, DWORD PTR [edx+120]
	push	eax
	call	_xmlRelaxNGSetValidStructuredErrors
	add	esp, 12					; 0000000cH
$LN4@xmlTextRea:

; 5023 :                                         xmlTextReaderValidityStructuredRelay,
; 5024 :                                                reader);
; 5025 :         }
; 5026 :         if (reader->xsdValidCtxt) {

	mov	ecx, DWORD PTR _reader$[ebp]
	cmp	DWORD PTR [ecx+140], 0
	je	SHORT $LN5@xmlTextRea

; 5027 :             xmlSchemaSetValidErrors(reader->xsdValidCtxt, NULL, NULL,

	mov	edx, DWORD PTR _reader$[ebp]
	push	edx
	push	0
	push	0
	mov	eax, DWORD PTR _reader$[ebp]
	mov	ecx, DWORD PTR [eax+140]
	push	ecx
	call	_xmlSchemaSetValidErrors
	add	esp, 16					; 00000010H

; 5028 :                                     reader);
; 5029 :             xmlSchemaSetValidStructuredErrors(reader->xsdValidCtxt,

	mov	edx, DWORD PTR _reader$[ebp]
	push	edx
	push	OFFSET _xmlTextReaderValidityStructuredRelay
	mov	eax, DWORD PTR _reader$[ebp]
	mov	ecx, DWORD PTR [eax+140]
	push	ecx
	call	_xmlSchemaSetValidStructuredErrors
	add	esp, 12					; 0000000cH
$LN5@xmlTextRea:

; 5030 :                                        xmlTextReaderValidityStructuredRelay,
; 5031 :                                               reader);
; 5032 :         }
; 5033 : #endif
; 5034 :     } else {

	jmp	$LN1@xmlTextRea
$LN2@xmlTextRea:

; 5035 :         /* restore defaults */
; 5036 :         reader->ctxt->sax->error = xmlParserError;

	mov	edx, DWORD PTR _reader$[ebp]
	mov	eax, DWORD PTR [edx+20]
	mov	ecx, DWORD PTR [eax]
	mov	DWORD PTR [ecx+88], OFFSET _xmlParserError

; 5037 :         reader->ctxt->sax->serror = NULL;

	mov	edx, DWORD PTR _reader$[ebp]
	mov	eax, DWORD PTR [edx+20]
	mov	ecx, DWORD PTR [eax]
	mov	DWORD PTR [ecx+124], 0

; 5038 :         reader->ctxt->vctxt.error = xmlParserValidityError;

	mov	edx, DWORD PTR _reader$[ebp]
	mov	eax, DWORD PTR [edx+20]
	mov	DWORD PTR [eax+112], OFFSET _xmlParserValidityError

; 5039 :         reader->ctxt->sax->warning = xmlParserWarning;

	mov	ecx, DWORD PTR _reader$[ebp]
	mov	edx, DWORD PTR [ecx+20]
	mov	eax, DWORD PTR [edx]
	mov	DWORD PTR [eax+84], OFFSET _xmlParserWarning

; 5040 :         reader->ctxt->vctxt.warning = xmlParserValidityWarning;

	mov	ecx, DWORD PTR _reader$[ebp]
	mov	edx, DWORD PTR [ecx+20]
	mov	DWORD PTR [edx+116], OFFSET _xmlParserValidityWarning

; 5041 :         reader->errorFunc = NULL;

	mov	eax, DWORD PTR _reader$[ebp]
	mov	DWORD PTR [eax+108], 0

; 5042 :         reader->sErrorFunc = NULL;

	mov	ecx, DWORD PTR _reader$[ebp]
	mov	DWORD PTR [ecx+192], 0

; 5043 :         reader->errorFuncArg = NULL;

	mov	edx, DWORD PTR _reader$[ebp]
	mov	DWORD PTR [edx+112], 0

; 5044 : #ifdef LIBXML_SCHEMAS_ENABLED
; 5045 :         if (reader->rngValidCtxt) {

	mov	eax, DWORD PTR _reader$[ebp]
	cmp	DWORD PTR [eax+120], 0
	je	SHORT $LN6@xmlTextRea

; 5046 :             xmlRelaxNGSetValidErrors(reader->rngValidCtxt, NULL, NULL,

	mov	ecx, DWORD PTR _reader$[ebp]
	push	ecx
	push	0
	push	0
	mov	edx, DWORD PTR _reader$[ebp]
	mov	eax, DWORD PTR [edx+120]
	push	eax
	call	_xmlRelaxNGSetValidErrors
	add	esp, 16					; 00000010H

; 5047 :                                      reader);
; 5048 :             xmlRelaxNGSetValidStructuredErrors(reader->rngValidCtxt, NULL,

	mov	ecx, DWORD PTR _reader$[ebp]
	push	ecx
	push	0
	mov	edx, DWORD PTR _reader$[ebp]
	mov	eax, DWORD PTR [edx+120]
	push	eax
	call	_xmlRelaxNGSetValidStructuredErrors
	add	esp, 12					; 0000000cH
$LN6@xmlTextRea:

; 5049 :                                                reader);
; 5050 :         }
; 5051 :         if (reader->xsdValidCtxt) {

	mov	ecx, DWORD PTR _reader$[ebp]
	cmp	DWORD PTR [ecx+140], 0
	je	SHORT $LN1@xmlTextRea

; 5052 :             xmlSchemaSetValidErrors(reader->xsdValidCtxt, NULL, NULL,

	mov	edx, DWORD PTR _reader$[ebp]
	push	edx
	push	0
	push	0
	mov	eax, DWORD PTR _reader$[ebp]
	mov	ecx, DWORD PTR [eax+140]
	push	ecx
	call	_xmlSchemaSetValidErrors
	add	esp, 16					; 00000010H

; 5053 :                                     reader);
; 5054 :             xmlSchemaSetValidStructuredErrors(reader->xsdValidCtxt, NULL,

	mov	edx, DWORD PTR _reader$[ebp]
	push	edx
	push	0
	mov	eax, DWORD PTR _reader$[ebp]
	mov	ecx, DWORD PTR [eax+140]
	push	ecx
	call	_xmlSchemaSetValidStructuredErrors
	add	esp, 12					; 0000000cH
$LN1@xmlTextRea:

; 5055 :                                               reader);
; 5056 :         }
; 5057 : #endif
; 5058 :     }
; 5059 : }

	cmp	ebp, esp
	call	__RTC_CheckEsp
	pop	ebp
	ret	0
_xmlTextReaderSetStructuredErrorHandler ENDP
_TEXT	ENDS
; Function compile flags: /Odtp /RTCsu
; File c:\users\dag\documents\_clients\codeproject authors group\windows on arm\libxml2\libxml2-2.9.9\xmlreader.c
;	COMDAT _xmlTextReaderSetErrorHandler
_TEXT	SEGMENT
_reader$ = 8						; size = 4
_f$ = 12						; size = 4
_arg$ = 16						; size = 4
_xmlTextReaderSetErrorHandler PROC			; COMDAT

; 4941 : {

	push	ebp
	mov	ebp, esp
	mov	ecx, OFFSET __BC13D883_xmlreader@c
	call	@__CheckForDebuggerJustMyCode@4

; 4942 :     if (f != NULL) {

	cmp	DWORD PTR _f$[ebp], 0
	je	$LN2@xmlTextRea

; 4943 :         reader->ctxt->sax->error = xmlTextReaderError;

	mov	eax, DWORD PTR _reader$[ebp]
	mov	ecx, DWORD PTR [eax+20]
	mov	edx, DWORD PTR [ecx]
	mov	DWORD PTR [edx+88], OFFSET _xmlTextReaderError

; 4944 :         reader->ctxt->sax->serror = NULL;

	mov	eax, DWORD PTR _reader$[ebp]
	mov	ecx, DWORD PTR [eax+20]
	mov	edx, DWORD PTR [ecx]
	mov	DWORD PTR [edx+124], 0

; 4945 :         reader->ctxt->vctxt.error = xmlTextReaderValidityError;

	mov	eax, DWORD PTR _reader$[ebp]
	mov	ecx, DWORD PTR [eax+20]
	mov	DWORD PTR [ecx+112], OFFSET _xmlTextReaderValidityError

; 4946 :         reader->ctxt->sax->warning = xmlTextReaderWarning;

	mov	edx, DWORD PTR _reader$[ebp]
	mov	eax, DWORD PTR [edx+20]
	mov	ecx, DWORD PTR [eax]
	mov	DWORD PTR [ecx+84], OFFSET _xmlTextReaderWarning

; 4947 :         reader->ctxt->vctxt.warning = xmlTextReaderValidityWarning;

	mov	edx, DWORD PTR _reader$[ebp]
	mov	eax, DWORD PTR [edx+20]
	mov	DWORD PTR [eax+116], OFFSET _xmlTextReaderValidityWarning

; 4948 :         reader->errorFunc = f;

	mov	ecx, DWORD PTR _reader$[ebp]
	mov	edx, DWORD PTR _f$[ebp]
	mov	DWORD PTR [ecx+108], edx

; 4949 :         reader->sErrorFunc = NULL;

	mov	eax, DWORD PTR _reader$[ebp]
	mov	DWORD PTR [eax+192], 0

; 4950 :         reader->errorFuncArg = arg;

	mov	ecx, DWORD PTR _reader$[ebp]
	mov	edx, DWORD PTR _arg$[ebp]
	mov	DWORD PTR [ecx+112], edx

; 4951 : #ifdef LIBXML_SCHEMAS_ENABLED
; 4952 :         if (reader->rngValidCtxt) {

	mov	eax, DWORD PTR _reader$[ebp]
	cmp	DWORD PTR [eax+120], 0
	je	SHORT $LN4@xmlTextRea

; 4953 :             xmlRelaxNGSetValidErrors(reader->rngValidCtxt,

	mov	ecx, DWORD PTR _reader$[ebp]
	push	ecx
	push	OFFSET _xmlTextReaderValidityWarningRelay
	push	OFFSET _xmlTextReaderValidityErrorRelay
	mov	edx, DWORD PTR _reader$[ebp]
	mov	eax, DWORD PTR [edx+120]
	push	eax
	call	_xmlRelaxNGSetValidErrors
	add	esp, 16					; 00000010H

; 4954 :                                      xmlTextReaderValidityErrorRelay,
; 4955 :                                      xmlTextReaderValidityWarningRelay,
; 4956 :                                      reader);
; 4957 :             xmlRelaxNGSetValidStructuredErrors(reader->rngValidCtxt, NULL,

	mov	ecx, DWORD PTR _reader$[ebp]
	push	ecx
	push	0
	mov	edx, DWORD PTR _reader$[ebp]
	mov	eax, DWORD PTR [edx+120]
	push	eax
	call	_xmlRelaxNGSetValidStructuredErrors
	add	esp, 12					; 0000000cH
$LN4@xmlTextRea:

; 4958 :                                                reader);
; 4959 :         }
; 4960 :         if (reader->xsdValidCtxt) {

	mov	ecx, DWORD PTR _reader$[ebp]
	cmp	DWORD PTR [ecx+140], 0
	je	SHORT $LN5@xmlTextRea

; 4961 :             xmlSchemaSetValidErrors(reader->xsdValidCtxt,

	mov	edx, DWORD PTR _reader$[ebp]
	push	edx
	push	OFFSET _xmlTextReaderValidityWarningRelay
	push	OFFSET _xmlTextReaderValidityErrorRelay
	mov	eax, DWORD PTR _reader$[ebp]
	mov	ecx, DWORD PTR [eax+140]
	push	ecx
	call	_xmlSchemaSetValidErrors
	add	esp, 16					; 00000010H

; 4962 :                                     xmlTextReaderValidityErrorRelay,
; 4963 :                                     xmlTextReaderValidityWarningRelay,
; 4964 :                                     reader);
; 4965 :             xmlSchemaSetValidStructuredErrors(reader->xsdValidCtxt, NULL,

	mov	edx, DWORD PTR _reader$[ebp]
	push	edx
	push	0
	mov	eax, DWORD PTR _reader$[ebp]
	mov	ecx, DWORD PTR [eax+140]
	push	ecx
	call	_xmlSchemaSetValidStructuredErrors
	add	esp, 12					; 0000000cH
$LN5@xmlTextRea:

; 4966 :                                               reader);
; 4967 :         }
; 4968 : #endif
; 4969 :     } else {

	jmp	$LN1@xmlTextRea
$LN2@xmlTextRea:

; 4970 :         /* restore defaults */
; 4971 :         reader->ctxt->sax->error = xmlParserError;

	mov	edx, DWORD PTR _reader$[ebp]
	mov	eax, DWORD PTR [edx+20]
	mov	ecx, DWORD PTR [eax]
	mov	DWORD PTR [ecx+88], OFFSET _xmlParserError

; 4972 :         reader->ctxt->vctxt.error = xmlParserValidityError;

	mov	edx, DWORD PTR _reader$[ebp]
	mov	eax, DWORD PTR [edx+20]
	mov	DWORD PTR [eax+112], OFFSET _xmlParserValidityError

; 4973 :         reader->ctxt->sax->warning = xmlParserWarning;

	mov	ecx, DWORD PTR _reader$[ebp]
	mov	edx, DWORD PTR [ecx+20]
	mov	eax, DWORD PTR [edx]
	mov	DWORD PTR [eax+84], OFFSET _xmlParserWarning

; 4974 :         reader->ctxt->vctxt.warning = xmlParserValidityWarning;

	mov	ecx, DWORD PTR _reader$[ebp]
	mov	edx, DWORD PTR [ecx+20]
	mov	DWORD PTR [edx+116], OFFSET _xmlParserValidityWarning

; 4975 :         reader->errorFunc = NULL;

	mov	eax, DWORD PTR _reader$[ebp]
	mov	DWORD PTR [eax+108], 0

; 4976 :         reader->sErrorFunc = NULL;

	mov	ecx, DWORD PTR _reader$[ebp]
	mov	DWORD PTR [ecx+192], 0

; 4977 :         reader->errorFuncArg = NULL;

	mov	edx, DWORD PTR _reader$[ebp]
	mov	DWORD PTR [edx+112], 0

; 4978 : #ifdef LIBXML_SCHEMAS_ENABLED
; 4979 :         if (reader->rngValidCtxt) {

	mov	eax, DWORD PTR _reader$[ebp]
	cmp	DWORD PTR [eax+120], 0
	je	SHORT $LN6@xmlTextRea

; 4980 :             xmlRelaxNGSetValidErrors(reader->rngValidCtxt, NULL, NULL,

	mov	ecx, DWORD PTR _reader$[ebp]
	push	ecx
	push	0
	push	0
	mov	edx, DWORD PTR _reader$[ebp]
	mov	eax, DWORD PTR [edx+120]
	push	eax
	call	_xmlRelaxNGSetValidErrors
	add	esp, 16					; 00000010H

; 4981 :                                      reader);
; 4982 :             xmlRelaxNGSetValidStructuredErrors(reader->rngValidCtxt, NULL,

	mov	ecx, DWORD PTR _reader$[ebp]
	push	ecx
	push	0
	mov	edx, DWORD PTR _reader$[ebp]
	mov	eax, DWORD PTR [edx+120]
	push	eax
	call	_xmlRelaxNGSetValidStructuredErrors
	add	esp, 12					; 0000000cH
$LN6@xmlTextRea:

; 4983 :                                                reader);
; 4984 :         }
; 4985 :         if (reader->xsdValidCtxt) {

	mov	ecx, DWORD PTR _reader$[ebp]
	cmp	DWORD PTR [ecx+140], 0
	je	SHORT $LN1@xmlTextRea

; 4986 :             xmlSchemaSetValidErrors(reader->xsdValidCtxt, NULL, NULL,

	mov	edx, DWORD PTR _reader$[ebp]
	push	edx
	push	0
	push	0
	mov	eax, DWORD PTR _reader$[ebp]
	mov	ecx, DWORD PTR [eax+140]
	push	ecx
	call	_xmlSchemaSetValidErrors
	add	esp, 16					; 00000010H

; 4987 :                                     reader);
; 4988 :             xmlSchemaSetValidStructuredErrors(reader->xsdValidCtxt, NULL,

	mov	edx, DWORD PTR _reader$[ebp]
	push	edx
	push	0
	mov	eax, DWORD PTR _reader$[ebp]
	mov	ecx, DWORD PTR [eax+140]
	push	ecx
	call	_xmlSchemaSetValidStructuredErrors
	add	esp, 12					; 0000000cH
$LN1@xmlTextRea:

; 4989 :                                               reader);
; 4990 :         }
; 4991 : #endif
; 4992 :     }
; 4993 : }

	cmp	ebp, esp
	call	__RTC_CheckEsp
	pop	ebp
	ret	0
_xmlTextReaderSetErrorHandler ENDP
_TEXT	ENDS
; Function compile flags: /Odtp /RTCsu
; File c:\users\dag\documents\_clients\codeproject authors group\windows on arm\libxml2\libxml2-2.9.9\xmlreader.c
;	COMDAT _xmlTextReaderLocatorBaseURI
_TEXT	SEGMENT
_input$1 = -12						; size = 4
_ret$ = -8						; size = 4
_ctx$ = -4						; size = 4
_locator$ = 8						; size = 4
_xmlTextReaderLocatorBaseURI PROC			; COMDAT

; 4808 : xmlTextReaderLocatorBaseURI(xmlTextReaderLocatorPtr locator) {

	push	ebp
	mov	ebp, esp
	sub	esp, 12					; 0000000cH
	mov	DWORD PTR [ebp-12], -858993460		; ccccccccH
	mov	DWORD PTR [ebp-8], -858993460		; ccccccccH
	mov	DWORD PTR [ebp-4], -858993460		; ccccccccH
	mov	ecx, OFFSET __BC13D883_xmlreader@c
	call	@__CheckForDebuggerJustMyCode@4

; 4809 :     /* we know that locator is a xmlParserCtxtPtr */
; 4810 :     xmlParserCtxtPtr ctx = (xmlParserCtxtPtr)locator;

	mov	eax, DWORD PTR _locator$[ebp]
	mov	DWORD PTR _ctx$[ebp], eax

; 4811 :     xmlChar *ret = NULL;

	mov	DWORD PTR _ret$[ebp], 0

; 4812 : 
; 4813 :     if (locator == NULL)

	cmp	DWORD PTR _locator$[ebp], 0
	jne	SHORT $LN2@xmlTextRea

; 4814 :         return(NULL);

	xor	eax, eax
	jmp	SHORT $LN1@xmlTextRea
$LN2@xmlTextRea:

; 4815 :     if (ctx->node != NULL) {

	mov	ecx, DWORD PTR _ctx$[ebp]
	cmp	DWORD PTR [ecx+52], 0
	je	SHORT $LN3@xmlTextRea

; 4816 : 	ret = xmlNodeGetBase(NULL,ctx->node);

	mov	edx, DWORD PTR _ctx$[ebp]
	mov	eax, DWORD PTR [edx+52]
	push	eax
	push	0
	call	_xmlNodeGetBase
	add	esp, 8
	mov	DWORD PTR _ret$[ebp], eax

; 4817 :     }

	jmp	SHORT $LN4@xmlTextRea
$LN3@xmlTextRea:

; 4818 :     else {
; 4819 : 	/* inspired from error.c */
; 4820 : 	xmlParserInputPtr input;
; 4821 : 	input = ctx->input;

	mov	ecx, DWORD PTR _ctx$[ebp]
	mov	edx, DWORD PTR [ecx+36]
	mov	DWORD PTR _input$1[ebp], edx

; 4822 : 	if ((input->filename == NULL) && (ctx->inputNr > 1))

	mov	eax, DWORD PTR _input$1[ebp]
	cmp	DWORD PTR [eax+4], 0
	jne	SHORT $LN5@xmlTextRea
	mov	ecx, DWORD PTR _ctx$[ebp]
	cmp	DWORD PTR [ecx+40], 1
	jle	SHORT $LN5@xmlTextRea

; 4823 : 	    input = ctx->inputTab[ctx->inputNr - 2];

	mov	edx, DWORD PTR _ctx$[ebp]
	mov	eax, DWORD PTR [edx+40]
	mov	ecx, DWORD PTR _ctx$[ebp]
	mov	edx, DWORD PTR [ecx+48]
	mov	eax, DWORD PTR [edx+eax*4-8]
	mov	DWORD PTR _input$1[ebp], eax
$LN5@xmlTextRea:

; 4824 : 	if (input != NULL) {

	cmp	DWORD PTR _input$1[ebp], 0
	je	SHORT $LN6@xmlTextRea

; 4825 : 	    ret = xmlStrdup(BAD_CAST input->filename);

	mov	ecx, DWORD PTR _input$1[ebp]
	mov	edx, DWORD PTR [ecx+4]
	push	edx
	call	_xmlStrdup
	add	esp, 4
	mov	DWORD PTR _ret$[ebp], eax

; 4826 : 	}

	jmp	SHORT $LN4@xmlTextRea
$LN6@xmlTextRea:

; 4827 : 	else {
; 4828 : 	    ret = NULL;

	mov	DWORD PTR _ret$[ebp], 0
$LN4@xmlTextRea:

; 4829 : 	}
; 4830 :     }
; 4831 : 
; 4832 :     return ret;

	mov	eax, DWORD PTR _ret$[ebp]
$LN1@xmlTextRea:

; 4833 : }

	add	esp, 12					; 0000000cH
	cmp	ebp, esp
	call	__RTC_CheckEsp
	mov	esp, ebp
	pop	ebp
	ret	0
_xmlTextReaderLocatorBaseURI ENDP
_TEXT	ENDS
; Function compile flags: /Odtp /RTCsu
; File c:\users\dag\documents\_clients\codeproject authors group\windows on arm\libxml2\libxml2-2.9.9\xmlreader.c
;	COMDAT _xmlTextReaderLocatorLineNumber
_TEXT	SEGMENT
_input$1 = -12						; size = 4
_ret$ = -8						; size = 4
_ctx$ = -4						; size = 4
_locator$ = 8						; size = 4
_xmlTextReaderLocatorLineNumber PROC			; COMDAT

; 4771 : xmlTextReaderLocatorLineNumber(xmlTextReaderLocatorPtr locator) {

	push	ebp
	mov	ebp, esp
	sub	esp, 12					; 0000000cH
	mov	DWORD PTR [ebp-12], -858993460		; ccccccccH
	mov	DWORD PTR [ebp-8], -858993460		; ccccccccH
	mov	DWORD PTR [ebp-4], -858993460		; ccccccccH
	mov	ecx, OFFSET __BC13D883_xmlreader@c
	call	@__CheckForDebuggerJustMyCode@4

; 4772 :     /* we know that locator is a xmlParserCtxtPtr */
; 4773 :     xmlParserCtxtPtr ctx = (xmlParserCtxtPtr)locator;

	mov	eax, DWORD PTR _locator$[ebp]
	mov	DWORD PTR _ctx$[ebp], eax

; 4774 :     int ret = -1;

	mov	DWORD PTR _ret$[ebp], -1

; 4775 : 
; 4776 :     if (locator == NULL)

	cmp	DWORD PTR _locator$[ebp], 0
	jne	SHORT $LN2@xmlTextRea

; 4777 :         return(-1);

	or	eax, -1
	jmp	SHORT $LN1@xmlTextRea
$LN2@xmlTextRea:

; 4778 :     if (ctx->node != NULL) {

	mov	ecx, DWORD PTR _ctx$[ebp]
	cmp	DWORD PTR [ecx+52], 0
	je	SHORT $LN3@xmlTextRea

; 4779 : 	ret = xmlGetLineNo(ctx->node);

	mov	edx, DWORD PTR _ctx$[ebp]
	mov	eax, DWORD PTR [edx+52]
	push	eax
	call	_xmlGetLineNo
	add	esp, 4
	mov	DWORD PTR _ret$[ebp], eax

; 4780 :     }

	jmp	SHORT $LN4@xmlTextRea
$LN3@xmlTextRea:

; 4781 :     else {
; 4782 : 	/* inspired from error.c */
; 4783 : 	xmlParserInputPtr input;
; 4784 : 	input = ctx->input;

	mov	ecx, DWORD PTR _ctx$[ebp]
	mov	edx, DWORD PTR [ecx+36]
	mov	DWORD PTR _input$1[ebp], edx

; 4785 : 	if ((input->filename == NULL) && (ctx->inputNr > 1))

	mov	eax, DWORD PTR _input$1[ebp]
	cmp	DWORD PTR [eax+4], 0
	jne	SHORT $LN5@xmlTextRea
	mov	ecx, DWORD PTR _ctx$[ebp]
	cmp	DWORD PTR [ecx+40], 1
	jle	SHORT $LN5@xmlTextRea

; 4786 : 	    input = ctx->inputTab[ctx->inputNr - 2];

	mov	edx, DWORD PTR _ctx$[ebp]
	mov	eax, DWORD PTR [edx+40]
	mov	ecx, DWORD PTR _ctx$[ebp]
	mov	edx, DWORD PTR [ecx+48]
	mov	eax, DWORD PTR [edx+eax*4-8]
	mov	DWORD PTR _input$1[ebp], eax
$LN5@xmlTextRea:

; 4787 : 	if (input != NULL) {

	cmp	DWORD PTR _input$1[ebp], 0
	je	SHORT $LN6@xmlTextRea

; 4788 : 	    ret = input->line;

	mov	ecx, DWORD PTR _input$1[ebp]
	mov	edx, DWORD PTR [ecx+28]
	mov	DWORD PTR _ret$[ebp], edx

; 4789 : 	}

	jmp	SHORT $LN4@xmlTextRea
$LN6@xmlTextRea:

; 4790 : 	else {
; 4791 : 	    ret = -1;

	mov	DWORD PTR _ret$[ebp], -1
$LN4@xmlTextRea:

; 4792 : 	}
; 4793 :     }
; 4794 : 
; 4795 :     return ret;

	mov	eax, DWORD PTR _ret$[ebp]
$LN1@xmlTextRea:

; 4796 : }

	add	esp, 12					; 0000000cH
	cmp	ebp, esp
	call	__RTC_CheckEsp
	mov	esp, ebp
	pop	ebp
	ret	0
_xmlTextReaderLocatorLineNumber ENDP
_TEXT	ENDS
; Function compile flags: /Odtp /RTCsu
; File c:\users\dag\documents\_clients\codeproject authors group\windows on arm\libxml2\libxml2-2.9.9\xmlreader.c
;	COMDAT _xmlReaderNewIO
_TEXT	SEGMENT
_input$ = -4						; size = 4
_reader$ = 8						; size = 4
_ioread$ = 12						; size = 4
_ioclose$ = 16						; size = 4
_ioctx$ = 20						; size = 4
_URL$ = 24						; size = 4
_encoding$ = 28						; size = 4
_options$ = 32						; size = 4
_xmlReaderNewIO PROC					; COMDAT

; 5732 : {

	push	ebp
	mov	ebp, esp
	push	ecx
	push	esi
	mov	DWORD PTR [ebp-4], -858993460		; ccccccccH
	mov	ecx, OFFSET __BC13D883_xmlreader@c
	call	@__CheckForDebuggerJustMyCode@4

; 5733 :     xmlParserInputBufferPtr input;
; 5734 : 
; 5735 :     if (ioread == NULL)

	cmp	DWORD PTR _ioread$[ebp], 0
	jne	SHORT $LN2@xmlReaderN

; 5736 :         return (-1);

	or	eax, -1
	jmp	SHORT $LN1@xmlReaderN
$LN2@xmlReaderN:

; 5737 :     if (reader == NULL)

	cmp	DWORD PTR _reader$[ebp], 0
	jne	SHORT $LN3@xmlReaderN

; 5738 :         return (-1);

	or	eax, -1
	jmp	SHORT $LN1@xmlReaderN
$LN3@xmlReaderN:

; 5739 : 
; 5740 :     input = xmlParserInputBufferCreateIO(ioread, ioclose, ioctx,

	push	0
	mov	eax, DWORD PTR _ioctx$[ebp]
	push	eax
	mov	ecx, DWORD PTR _ioclose$[ebp]
	push	ecx
	mov	edx, DWORD PTR _ioread$[ebp]
	push	edx
	call	_xmlParserInputBufferCreateIO
	add	esp, 16					; 00000010H
	mov	DWORD PTR _input$[ebp], eax

; 5741 :                                          XML_CHAR_ENCODING_NONE);
; 5742 :     if (input == NULL) {

	cmp	DWORD PTR _input$[ebp], 0
	jne	SHORT $LN4@xmlReaderN

; 5743 :         if (ioclose != NULL)

	cmp	DWORD PTR _ioclose$[ebp], 0
	je	SHORT $LN5@xmlReaderN

; 5744 :             ioclose(ioctx);

	mov	esi, esp
	mov	eax, DWORD PTR _ioctx$[ebp]
	push	eax
	call	DWORD PTR _ioclose$[ebp]
	add	esp, 4
	cmp	esi, esp
	call	__RTC_CheckEsp
$LN5@xmlReaderN:

; 5745 :         return (-1);

	or	eax, -1
	jmp	SHORT $LN1@xmlReaderN
$LN4@xmlReaderN:

; 5746 :     }
; 5747 :     return (xmlTextReaderSetup(reader, input, URL, encoding, options));

	mov	ecx, DWORD PTR _options$[ebp]
	push	ecx
	mov	edx, DWORD PTR _encoding$[ebp]
	push	edx
	mov	eax, DWORD PTR _URL$[ebp]
	push	eax
	mov	ecx, DWORD PTR _input$[ebp]
	push	ecx
	mov	edx, DWORD PTR _reader$[ebp]
	push	edx
	call	_xmlTextReaderSetup
	add	esp, 20					; 00000014H
$LN1@xmlReaderN:

; 5748 : }

	pop	esi
	add	esp, 4
	cmp	ebp, esp
	call	__RTC_CheckEsp
	mov	esp, ebp
	pop	ebp
	ret	0
_xmlReaderNewIO ENDP
_TEXT	ENDS
; Function compile flags: /Odtp /RTCsu
; File c:\users\dag\documents\_clients\codeproject authors group\windows on arm\libxml2\libxml2-2.9.9\xmlreader.c
;	COMDAT _xmlReaderNewFd
_TEXT	SEGMENT
_input$ = -4						; size = 4
_reader$ = 8						; size = 4
_fd$ = 12						; size = 4
_URL$ = 16						; size = 4
_encoding$ = 20						; size = 4
_options$ = 24						; size = 4
_xmlReaderNewFd PROC					; COMDAT

; 5696 : {

	push	ebp
	mov	ebp, esp
	push	ecx
	mov	DWORD PTR [ebp-4], -858993460		; ccccccccH
	mov	ecx, OFFSET __BC13D883_xmlreader@c
	call	@__CheckForDebuggerJustMyCode@4

; 5697 :     xmlParserInputBufferPtr input;
; 5698 : 
; 5699 :     if (fd < 0)

	cmp	DWORD PTR _fd$[ebp], 0
	jge	SHORT $LN2@xmlReaderN

; 5700 :         return (-1);

	or	eax, -1
	jmp	SHORT $LN1@xmlReaderN
$LN2@xmlReaderN:

; 5701 :     if (reader == NULL)

	cmp	DWORD PTR _reader$[ebp], 0
	jne	SHORT $LN3@xmlReaderN

; 5702 :         return (-1);

	or	eax, -1
	jmp	SHORT $LN1@xmlReaderN
$LN3@xmlReaderN:

; 5703 : 
; 5704 :     input = xmlParserInputBufferCreateFd(fd, XML_CHAR_ENCODING_NONE);

	push	0
	mov	eax, DWORD PTR _fd$[ebp]
	push	eax
	call	_xmlParserInputBufferCreateFd
	add	esp, 8
	mov	DWORD PTR _input$[ebp], eax

; 5705 :     if (input == NULL)

	cmp	DWORD PTR _input$[ebp], 0
	jne	SHORT $LN4@xmlReaderN

; 5706 :         return (-1);

	or	eax, -1
	jmp	SHORT $LN1@xmlReaderN
$LN4@xmlReaderN:

; 5707 :     input->closecallback = NULL;

	mov	ecx, DWORD PTR _input$[ebp]
	mov	DWORD PTR [ecx+8], 0

; 5708 :     return (xmlTextReaderSetup(reader, input, URL, encoding, options));

	mov	edx, DWORD PTR _options$[ebp]
	push	edx
	mov	eax, DWORD PTR _encoding$[ebp]
	push	eax
	mov	ecx, DWORD PTR _URL$[ebp]
	push	ecx
	mov	edx, DWORD PTR _input$[ebp]
	push	edx
	mov	eax, DWORD PTR _reader$[ebp]
	push	eax
	call	_xmlTextReaderSetup
	add	esp, 20					; 00000014H
$LN1@xmlReaderN:

; 5709 : }

	add	esp, 4
	cmp	ebp, esp
	call	__RTC_CheckEsp
	mov	esp, ebp
	pop	ebp
	ret	0
_xmlReaderNewFd ENDP
_TEXT	ENDS
; Function compile flags: /Odtp /RTCsu
; File c:\users\dag\documents\_clients\codeproject authors group\windows on arm\libxml2\libxml2-2.9.9\xmlreader.c
;	COMDAT _xmlReaderNewMemory
_TEXT	SEGMENT
_input$ = -4						; size = 4
_reader$ = 8						; size = 4
_buffer$ = 12						; size = 4
_size$ = 16						; size = 4
_URL$ = 20						; size = 4
_encoding$ = 24						; size = 4
_options$ = 28						; size = 4
_xmlReaderNewMemory PROC				; COMDAT

; 5661 : {

	push	ebp
	mov	ebp, esp
	push	ecx
	mov	DWORD PTR [ebp-4], -858993460		; ccccccccH
	mov	ecx, OFFSET __BC13D883_xmlreader@c
	call	@__CheckForDebuggerJustMyCode@4

; 5662 :     xmlParserInputBufferPtr input;
; 5663 : 
; 5664 :     if (reader == NULL)

	cmp	DWORD PTR _reader$[ebp], 0
	jne	SHORT $LN2@xmlReaderN

; 5665 :         return (-1);

	or	eax, -1
	jmp	SHORT $LN1@xmlReaderN
$LN2@xmlReaderN:

; 5666 :     if (buffer == NULL)

	cmp	DWORD PTR _buffer$[ebp], 0
	jne	SHORT $LN3@xmlReaderN

; 5667 :         return (-1);

	or	eax, -1
	jmp	SHORT $LN1@xmlReaderN
$LN3@xmlReaderN:

; 5668 : 
; 5669 :     input = xmlParserInputBufferCreateStatic(buffer, size,

	push	0
	mov	eax, DWORD PTR _size$[ebp]
	push	eax
	mov	ecx, DWORD PTR _buffer$[ebp]
	push	ecx
	call	_xmlParserInputBufferCreateStatic
	add	esp, 12					; 0000000cH
	mov	DWORD PTR _input$[ebp], eax

; 5670 :                                       XML_CHAR_ENCODING_NONE);
; 5671 :     if (input == NULL) {

	cmp	DWORD PTR _input$[ebp], 0
	jne	SHORT $LN4@xmlReaderN

; 5672 :         return (-1);

	or	eax, -1
	jmp	SHORT $LN1@xmlReaderN
$LN4@xmlReaderN:

; 5673 :     }
; 5674 :     return (xmlTextReaderSetup(reader, input, URL, encoding, options));

	mov	edx, DWORD PTR _options$[ebp]
	push	edx
	mov	eax, DWORD PTR _encoding$[ebp]
	push	eax
	mov	ecx, DWORD PTR _URL$[ebp]
	push	ecx
	mov	edx, DWORD PTR _input$[ebp]
	push	edx
	mov	eax, DWORD PTR _reader$[ebp]
	push	eax
	call	_xmlTextReaderSetup
	add	esp, 20					; 00000014H
$LN1@xmlReaderN:

; 5675 : }

	add	esp, 4
	cmp	ebp, esp
	call	__RTC_CheckEsp
	mov	esp, ebp
	pop	ebp
	ret	0
_xmlReaderNewMemory ENDP
_TEXT	ENDS
; Function compile flags: /Odtp /RTCsu
; File c:\users\dag\documents\_clients\codeproject authors group\windows on arm\libxml2\libxml2-2.9.9\xmlreader.c
;	COMDAT _xmlReaderNewFile
_TEXT	SEGMENT
_input$ = -4						; size = 4
_reader$ = 8						; size = 4
_filename$ = 12						; size = 4
_encoding$ = 16						; size = 4
_options$ = 20						; size = 4
_xmlReaderNewFile PROC					; COMDAT

; 5627 : {

	push	ebp
	mov	ebp, esp
	push	ecx
	mov	DWORD PTR [ebp-4], -858993460		; ccccccccH
	mov	ecx, OFFSET __BC13D883_xmlreader@c
	call	@__CheckForDebuggerJustMyCode@4

; 5628 :     xmlParserInputBufferPtr input;
; 5629 : 
; 5630 :     if (filename == NULL)

	cmp	DWORD PTR _filename$[ebp], 0
	jne	SHORT $LN2@xmlReaderN

; 5631 :         return (-1);

	or	eax, -1
	jmp	SHORT $LN1@xmlReaderN
$LN2@xmlReaderN:

; 5632 :     if (reader == NULL)

	cmp	DWORD PTR _reader$[ebp], 0
	jne	SHORT $LN3@xmlReaderN

; 5633 :         return (-1);

	or	eax, -1
	jmp	SHORT $LN1@xmlReaderN
$LN3@xmlReaderN:

; 5634 : 
; 5635 :     input =

	push	0
	mov	eax, DWORD PTR _filename$[ebp]
	push	eax
	call	_xmlParserInputBufferCreateFilename
	add	esp, 8
	mov	DWORD PTR _input$[ebp], eax

; 5636 :         xmlParserInputBufferCreateFilename(filename,
; 5637 :                                            XML_CHAR_ENCODING_NONE);
; 5638 :     if (input == NULL)

	cmp	DWORD PTR _input$[ebp], 0
	jne	SHORT $LN4@xmlReaderN

; 5639 :         return (-1);

	or	eax, -1
	jmp	SHORT $LN1@xmlReaderN
$LN4@xmlReaderN:

; 5640 :     return (xmlTextReaderSetup(reader, input, filename, encoding, options));

	mov	ecx, DWORD PTR _options$[ebp]
	push	ecx
	mov	edx, DWORD PTR _encoding$[ebp]
	push	edx
	mov	eax, DWORD PTR _filename$[ebp]
	push	eax
	mov	ecx, DWORD PTR _input$[ebp]
	push	ecx
	mov	edx, DWORD PTR _reader$[ebp]
	push	edx
	call	_xmlTextReaderSetup
	add	esp, 20					; 00000014H
$LN1@xmlReaderN:

; 5641 : }

	add	esp, 4
	cmp	ebp, esp
	call	__RTC_CheckEsp
	mov	esp, ebp
	pop	ebp
	ret	0
_xmlReaderNewFile ENDP
_TEXT	ENDS
; Function compile flags: /Odtp /RTCsu
; File c:\users\dag\documents\_clients\codeproject authors group\windows on arm\libxml2\libxml2-2.9.9\xmlreader.c
;	COMDAT _xmlReaderNewDoc
_TEXT	SEGMENT
_len$ = -4						; size = 4
_reader$ = 8						; size = 4
_cur$ = 12						; size = 4
_URL$ = 16						; size = 4
_encoding$ = 20						; size = 4
_options$ = 24						; size = 4
_xmlReaderNewDoc PROC					; COMDAT

; 5597 : {

	push	ebp
	mov	ebp, esp
	push	ecx
	mov	DWORD PTR [ebp-4], -858993460		; ccccccccH
	mov	ecx, OFFSET __BC13D883_xmlreader@c
	call	@__CheckForDebuggerJustMyCode@4

; 5598 : 
; 5599 :     int len;
; 5600 : 
; 5601 :     if (cur == NULL)

	cmp	DWORD PTR _cur$[ebp], 0
	jne	SHORT $LN2@xmlReaderN

; 5602 :         return (-1);

	or	eax, -1
	jmp	SHORT $LN1@xmlReaderN
$LN2@xmlReaderN:

; 5603 :     if (reader == NULL)

	cmp	DWORD PTR _reader$[ebp], 0
	jne	SHORT $LN3@xmlReaderN

; 5604 :         return (-1);

	or	eax, -1
	jmp	SHORT $LN1@xmlReaderN
$LN3@xmlReaderN:

; 5605 : 
; 5606 :     len = xmlStrlen(cur);

	mov	eax, DWORD PTR _cur$[ebp]
	push	eax
	call	_xmlStrlen
	add	esp, 4
	mov	DWORD PTR _len$[ebp], eax

; 5607 :     return (xmlReaderNewMemory(reader, (const char *)cur, len,

	mov	ecx, DWORD PTR _options$[ebp]
	push	ecx
	mov	edx, DWORD PTR _encoding$[ebp]
	push	edx
	mov	eax, DWORD PTR _URL$[ebp]
	push	eax
	mov	ecx, DWORD PTR _len$[ebp]
	push	ecx
	mov	edx, DWORD PTR _cur$[ebp]
	push	edx
	mov	eax, DWORD PTR _reader$[ebp]
	push	eax
	call	_xmlReaderNewMemory
	add	esp, 24					; 00000018H
$LN1@xmlReaderN:

; 5608 :                                URL, encoding, options));
; 5609 : }

	add	esp, 4
	cmp	ebp, esp
	call	__RTC_CheckEsp
	mov	esp, ebp
	pop	ebp
	ret	0
_xmlReaderNewDoc ENDP
_TEXT	ENDS
; Function compile flags: /Odtp /RTCsu
; File c:\users\dag\documents\_clients\codeproject authors group\windows on arm\libxml2\libxml2-2.9.9\xmlreader.c
;	COMDAT _xmlReaderNewWalker
_TEXT	SEGMENT
_reader$ = 8						; size = 4
_doc$ = 12						; size = 4
_xmlReaderNewWalker PROC				; COMDAT

; 5548 : {

	push	ebp
	mov	ebp, esp
	mov	ecx, OFFSET __BC13D883_xmlreader@c
	call	@__CheckForDebuggerJustMyCode@4

; 5549 :     if (doc == NULL)

	cmp	DWORD PTR _doc$[ebp], 0
	jne	SHORT $LN2@xmlReaderN

; 5550 :         return (-1);

	or	eax, -1
	jmp	$LN1@xmlReaderN
$LN2@xmlReaderN:

; 5551 :     if (reader == NULL)

	cmp	DWORD PTR _reader$[ebp], 0
	jne	SHORT $LN3@xmlReaderN

; 5552 :         return (-1);

	or	eax, -1
	jmp	$LN1@xmlReaderN
$LN3@xmlReaderN:

; 5553 : 
; 5554 :     if (reader->input != NULL) {

	mov	eax, DWORD PTR _reader$[ebp]
	cmp	DWORD PTR [eax+28], 0
	je	SHORT $LN4@xmlReaderN

; 5555 :         xmlFreeParserInputBuffer(reader->input);

	mov	ecx, DWORD PTR _reader$[ebp]
	mov	edx, DWORD PTR [ecx+28]
	push	edx
	call	_xmlFreeParserInputBuffer
	add	esp, 4
$LN4@xmlReaderN:

; 5556 :     }
; 5557 :     if (reader->ctxt != NULL) {

	mov	eax, DWORD PTR _reader$[ebp]
	cmp	DWORD PTR [eax+20], 0
	je	SHORT $LN5@xmlReaderN

; 5558 : 	xmlCtxtReset(reader->ctxt);

	mov	ecx, DWORD PTR _reader$[ebp]
	mov	edx, DWORD PTR [ecx+20]
	push	edx
	call	_xmlCtxtReset
	add	esp, 4
$LN5@xmlReaderN:

; 5559 :     }
; 5560 : 
; 5561 :     reader->entNr = 0;

	mov	eax, DWORD PTR _reader$[ebp]
	mov	DWORD PTR [eax+96], 0

; 5562 :     reader->input = NULL;

	mov	ecx, DWORD PTR _reader$[ebp]
	mov	DWORD PTR [ecx+28], 0

; 5563 :     reader->mode = XML_TEXTREADER_MODE_INITIAL;

	mov	edx, DWORD PTR _reader$[ebp]
	mov	DWORD PTR [edx], 0

; 5564 :     reader->node = NULL;

	mov	eax, DWORD PTR _reader$[ebp]
	mov	DWORD PTR [eax+64], 0

; 5565 :     reader->curnode = NULL;

	mov	ecx, DWORD PTR _reader$[ebp]
	mov	DWORD PTR [ecx+68], 0

; 5566 :     reader->base = 0;

	mov	edx, DWORD PTR _reader$[ebp]
	mov	DWORD PTR [edx+56], 0

; 5567 :     reader->cur = 0;

	mov	eax, DWORD PTR _reader$[ebp]
	mov	DWORD PTR [eax+60], 0

; 5568 :     reader->allocs = XML_TEXTREADER_CTXT;

	mov	ecx, DWORD PTR _reader$[ebp]
	mov	DWORD PTR [ecx+12], 2

; 5569 :     reader->doc = doc;

	mov	edx, DWORD PTR _reader$[ebp]
	mov	eax, DWORD PTR _doc$[ebp]
	mov	DWORD PTR [edx+4], eax

; 5570 :     reader->state = XML_TEXTREADER_START;

	mov	ecx, DWORD PTR _reader$[ebp]
	mov	DWORD PTR [ecx+16], 0

; 5571 :     if (reader->dict == NULL) {

	mov	edx, DWORD PTR _reader$[ebp]
	cmp	DWORD PTR [edx+88], 0
	jne	SHORT $LN6@xmlReaderN

; 5572 :         if ((reader->ctxt != NULL) && (reader->ctxt->dict != NULL))

	mov	eax, DWORD PTR _reader$[ebp]
	cmp	DWORD PTR [eax+20], 0
	je	SHORT $LN7@xmlReaderN
	mov	ecx, DWORD PTR _reader$[ebp]
	mov	edx, DWORD PTR [ecx+20]
	cmp	DWORD PTR [edx+296], 0
	je	SHORT $LN7@xmlReaderN

; 5573 : 	    reader->dict = reader->ctxt->dict;

	mov	eax, DWORD PTR _reader$[ebp]
	mov	ecx, DWORD PTR [eax+20]
	mov	edx, DWORD PTR _reader$[ebp]
	mov	eax, DWORD PTR [ecx+296]
	mov	DWORD PTR [edx+88], eax
	jmp	SHORT $LN6@xmlReaderN
$LN7@xmlReaderN:

; 5574 : 	else
; 5575 : 	    reader->dict = xmlDictCreate();

	call	_xmlDictCreate
	mov	ecx, DWORD PTR _reader$[ebp]
	mov	DWORD PTR [ecx+88], eax
$LN6@xmlReaderN:

; 5576 :     }
; 5577 :     return(0);

	xor	eax, eax
$LN1@xmlReaderN:

; 5578 : }

	cmp	ebp, esp
	call	__RTC_CheckEsp
	pop	ebp
	ret	0
_xmlReaderNewWalker ENDP
_TEXT	ENDS
; Function compile flags: /Odtp /RTCsu
; File c:\users\dag\documents\_clients\codeproject authors group\windows on arm\libxml2\libxml2-2.9.9\xmlreader.c
;	COMDAT _xmlReaderForIO
_TEXT	SEGMENT
_input$ = -8						; size = 4
_reader$ = -4						; size = 4
_ioread$ = 8						; size = 4
_ioclose$ = 12						; size = 4
_ioctx$ = 16						; size = 4
_URL$ = 20						; size = 4
_encoding$ = 24						; size = 4
_options$ = 28						; size = 4
_xmlReaderForIO PROC					; COMDAT

; 5512 : {

	push	ebp
	mov	ebp, esp
	sub	esp, 8
	push	esi
	mov	DWORD PTR [ebp-8], -858993460		; ccccccccH
	mov	DWORD PTR [ebp-4], -858993460		; ccccccccH
	mov	ecx, OFFSET __BC13D883_xmlreader@c
	call	@__CheckForDebuggerJustMyCode@4

; 5513 :     xmlTextReaderPtr reader;
; 5514 :     xmlParserInputBufferPtr input;
; 5515 : 
; 5516 :     if (ioread == NULL)

	cmp	DWORD PTR _ioread$[ebp], 0
	jne	SHORT $LN2@xmlReaderF

; 5517 :         return (NULL);

	xor	eax, eax
	jmp	$LN1@xmlReaderF
$LN2@xmlReaderF:

; 5518 : 
; 5519 :     input = xmlParserInputBufferCreateIO(ioread, ioclose, ioctx,

	push	0
	mov	eax, DWORD PTR _ioctx$[ebp]
	push	eax
	mov	ecx, DWORD PTR _ioclose$[ebp]
	push	ecx
	mov	edx, DWORD PTR _ioread$[ebp]
	push	edx
	call	_xmlParserInputBufferCreateIO
	add	esp, 16					; 00000010H
	mov	DWORD PTR _input$[ebp], eax

; 5520 :                                          XML_CHAR_ENCODING_NONE);
; 5521 :     if (input == NULL) {

	cmp	DWORD PTR _input$[ebp], 0
	jne	SHORT $LN3@xmlReaderF

; 5522 :         if (ioclose != NULL)

	cmp	DWORD PTR _ioclose$[ebp], 0
	je	SHORT $LN4@xmlReaderF

; 5523 :             ioclose(ioctx);

	mov	esi, esp
	mov	eax, DWORD PTR _ioctx$[ebp]
	push	eax
	call	DWORD PTR _ioclose$[ebp]
	add	esp, 4
	cmp	esi, esp
	call	__RTC_CheckEsp
$LN4@xmlReaderF:

; 5524 :         return (NULL);

	xor	eax, eax
	jmp	SHORT $LN1@xmlReaderF
$LN3@xmlReaderF:

; 5525 :     }
; 5526 :     reader = xmlNewTextReader(input, URL);

	mov	ecx, DWORD PTR _URL$[ebp]
	push	ecx
	mov	edx, DWORD PTR _input$[ebp]
	push	edx
	call	_xmlNewTextReader
	add	esp, 8
	mov	DWORD PTR _reader$[ebp], eax

; 5527 :     if (reader == NULL) {

	cmp	DWORD PTR _reader$[ebp], 0
	jne	SHORT $LN5@xmlReaderF

; 5528 :         xmlFreeParserInputBuffer(input);

	mov	eax, DWORD PTR _input$[ebp]
	push	eax
	call	_xmlFreeParserInputBuffer
	add	esp, 4

; 5529 :         return (NULL);

	xor	eax, eax
	jmp	SHORT $LN1@xmlReaderF
$LN5@xmlReaderF:

; 5530 :     }
; 5531 :     reader->allocs |= XML_TEXTREADER_INPUT;

	mov	ecx, DWORD PTR _reader$[ebp]
	mov	edx, DWORD PTR [ecx+12]
	or	edx, 1
	mov	eax, DWORD PTR _reader$[ebp]
	mov	DWORD PTR [eax+12], edx

; 5532 :     xmlTextReaderSetup(reader, NULL, URL, encoding, options);

	mov	ecx, DWORD PTR _options$[ebp]
	push	ecx
	mov	edx, DWORD PTR _encoding$[ebp]
	push	edx
	mov	eax, DWORD PTR _URL$[ebp]
	push	eax
	push	0
	mov	ecx, DWORD PTR _reader$[ebp]
	push	ecx
	call	_xmlTextReaderSetup
	add	esp, 20					; 00000014H

; 5533 :     return (reader);

	mov	eax, DWORD PTR _reader$[ebp]
$LN1@xmlReaderF:

; 5534 : }

	pop	esi
	add	esp, 8
	cmp	ebp, esp
	call	__RTC_CheckEsp
	mov	esp, ebp
	pop	ebp
	ret	0
_xmlReaderForIO ENDP
_TEXT	ENDS
; Function compile flags: /Odtp /RTCsu
; File c:\users\dag\documents\_clients\codeproject authors group\windows on arm\libxml2\libxml2-2.9.9\xmlreader.c
;	COMDAT _xmlReaderForFd
_TEXT	SEGMENT
_input$ = -8						; size = 4
_reader$ = -4						; size = 4
_fd$ = 8						; size = 4
_URL$ = 12						; size = 4
_encoding$ = 16						; size = 4
_options$ = 20						; size = 4
_xmlReaderForFd PROC					; COMDAT

; 5473 : {

	push	ebp
	mov	ebp, esp
	sub	esp, 8
	mov	DWORD PTR [ebp-8], -858993460		; ccccccccH
	mov	DWORD PTR [ebp-4], -858993460		; ccccccccH
	mov	ecx, OFFSET __BC13D883_xmlreader@c
	call	@__CheckForDebuggerJustMyCode@4

; 5474 :     xmlTextReaderPtr reader;
; 5475 :     xmlParserInputBufferPtr input;
; 5476 : 
; 5477 :     if (fd < 0)

	cmp	DWORD PTR _fd$[ebp], 0
	jge	SHORT $LN2@xmlReaderF

; 5478 :         return (NULL);

	xor	eax, eax
	jmp	SHORT $LN1@xmlReaderF
$LN2@xmlReaderF:

; 5479 : 
; 5480 :     input = xmlParserInputBufferCreateFd(fd, XML_CHAR_ENCODING_NONE);

	push	0
	mov	eax, DWORD PTR _fd$[ebp]
	push	eax
	call	_xmlParserInputBufferCreateFd
	add	esp, 8
	mov	DWORD PTR _input$[ebp], eax

; 5481 :     if (input == NULL)

	cmp	DWORD PTR _input$[ebp], 0
	jne	SHORT $LN3@xmlReaderF

; 5482 :         return (NULL);

	xor	eax, eax
	jmp	SHORT $LN1@xmlReaderF
$LN3@xmlReaderF:

; 5483 :     input->closecallback = NULL;

	mov	ecx, DWORD PTR _input$[ebp]
	mov	DWORD PTR [ecx+8], 0

; 5484 :     reader = xmlNewTextReader(input, URL);

	mov	edx, DWORD PTR _URL$[ebp]
	push	edx
	mov	eax, DWORD PTR _input$[ebp]
	push	eax
	call	_xmlNewTextReader
	add	esp, 8
	mov	DWORD PTR _reader$[ebp], eax

; 5485 :     if (reader == NULL) {

	cmp	DWORD PTR _reader$[ebp], 0
	jne	SHORT $LN4@xmlReaderF

; 5486 :         xmlFreeParserInputBuffer(input);

	mov	ecx, DWORD PTR _input$[ebp]
	push	ecx
	call	_xmlFreeParserInputBuffer
	add	esp, 4

; 5487 :         return (NULL);

	xor	eax, eax
	jmp	SHORT $LN1@xmlReaderF
$LN4@xmlReaderF:

; 5488 :     }
; 5489 :     reader->allocs |= XML_TEXTREADER_INPUT;

	mov	edx, DWORD PTR _reader$[ebp]
	mov	eax, DWORD PTR [edx+12]
	or	eax, 1
	mov	ecx, DWORD PTR _reader$[ebp]
	mov	DWORD PTR [ecx+12], eax

; 5490 :     xmlTextReaderSetup(reader, NULL, URL, encoding, options);

	mov	edx, DWORD PTR _options$[ebp]
	push	edx
	mov	eax, DWORD PTR _encoding$[ebp]
	push	eax
	mov	ecx, DWORD PTR _URL$[ebp]
	push	ecx
	push	0
	mov	edx, DWORD PTR _reader$[ebp]
	push	edx
	call	_xmlTextReaderSetup
	add	esp, 20					; 00000014H

; 5491 :     return (reader);

	mov	eax, DWORD PTR _reader$[ebp]
$LN1@xmlReaderF:

; 5492 : }

	add	esp, 8
	cmp	ebp, esp
	call	__RTC_CheckEsp
	mov	esp, ebp
	pop	ebp
	ret	0
_xmlReaderForFd ENDP
_TEXT	ENDS
; Function compile flags: /Odtp /RTCsu
; File c:\users\dag\documents\_clients\codeproject authors group\windows on arm\libxml2\libxml2-2.9.9\xmlreader.c
;	COMDAT _xmlReaderForMemory
_TEXT	SEGMENT
_buf$ = -8						; size = 4
_reader$ = -4						; size = 4
_buffer$ = 8						; size = 4
_size$ = 12						; size = 4
_URL$ = 16						; size = 4
_encoding$ = 20						; size = 4
_options$ = 24						; size = 4
_xmlReaderForMemory PROC				; COMDAT

; 5438 : {

	push	ebp
	mov	ebp, esp
	sub	esp, 8
	mov	DWORD PTR [ebp-8], -858993460		; ccccccccH
	mov	DWORD PTR [ebp-4], -858993460		; ccccccccH
	mov	ecx, OFFSET __BC13D883_xmlreader@c
	call	@__CheckForDebuggerJustMyCode@4

; 5439 :     xmlTextReaderPtr reader;
; 5440 :     xmlParserInputBufferPtr buf;
; 5441 : 
; 5442 :     buf = xmlParserInputBufferCreateStatic(buffer, size,

	push	0
	mov	eax, DWORD PTR _size$[ebp]
	push	eax
	mov	ecx, DWORD PTR _buffer$[ebp]
	push	ecx
	call	_xmlParserInputBufferCreateStatic
	add	esp, 12					; 0000000cH
	mov	DWORD PTR _buf$[ebp], eax

; 5443 :                                       XML_CHAR_ENCODING_NONE);
; 5444 :     if (buf == NULL) {

	cmp	DWORD PTR _buf$[ebp], 0
	jne	SHORT $LN2@xmlReaderF

; 5445 :         return (NULL);

	xor	eax, eax
	jmp	SHORT $LN1@xmlReaderF
$LN2@xmlReaderF:

; 5446 :     }
; 5447 :     reader = xmlNewTextReader(buf, URL);

	mov	edx, DWORD PTR _URL$[ebp]
	push	edx
	mov	eax, DWORD PTR _buf$[ebp]
	push	eax
	call	_xmlNewTextReader
	add	esp, 8
	mov	DWORD PTR _reader$[ebp], eax

; 5448 :     if (reader == NULL) {

	cmp	DWORD PTR _reader$[ebp], 0
	jne	SHORT $LN3@xmlReaderF

; 5449 :         xmlFreeParserInputBuffer(buf);

	mov	ecx, DWORD PTR _buf$[ebp]
	push	ecx
	call	_xmlFreeParserInputBuffer
	add	esp, 4

; 5450 :         return (NULL);

	xor	eax, eax
	jmp	SHORT $LN1@xmlReaderF
$LN3@xmlReaderF:

; 5451 :     }
; 5452 :     reader->allocs |= XML_TEXTREADER_INPUT;

	mov	edx, DWORD PTR _reader$[ebp]
	mov	eax, DWORD PTR [edx+12]
	or	eax, 1
	mov	ecx, DWORD PTR _reader$[ebp]
	mov	DWORD PTR [ecx+12], eax

; 5453 :     xmlTextReaderSetup(reader, NULL, URL, encoding, options);

	mov	edx, DWORD PTR _options$[ebp]
	push	edx
	mov	eax, DWORD PTR _encoding$[ebp]
	push	eax
	mov	ecx, DWORD PTR _URL$[ebp]
	push	ecx
	push	0
	mov	edx, DWORD PTR _reader$[ebp]
	push	edx
	call	_xmlTextReaderSetup
	add	esp, 20					; 00000014H

; 5454 :     return (reader);

	mov	eax, DWORD PTR _reader$[ebp]
$LN1@xmlReaderF:

; 5455 : }

	add	esp, 8
	cmp	ebp, esp
	call	__RTC_CheckEsp
	mov	esp, ebp
	pop	ebp
	ret	0
_xmlReaderForMemory ENDP
_TEXT	ENDS
; Function compile flags: /Odtp /RTCsu
; File c:\users\dag\documents\_clients\codeproject authors group\windows on arm\libxml2\libxml2-2.9.9\xmlreader.c
;	COMDAT _xmlReaderForFile
_TEXT	SEGMENT
_reader$ = -4						; size = 4
_filename$ = 8						; size = 4
_encoding$ = 12						; size = 4
_options$ = 16						; size = 4
_xmlReaderForFile PROC					; COMDAT

; 5412 : {

	push	ebp
	mov	ebp, esp
	push	ecx
	mov	DWORD PTR [ebp-4], -858993460		; ccccccccH
	mov	ecx, OFFSET __BC13D883_xmlreader@c
	call	@__CheckForDebuggerJustMyCode@4

; 5413 :     xmlTextReaderPtr reader;
; 5414 : 
; 5415 :     reader = xmlNewTextReaderFilename(filename);

	mov	eax, DWORD PTR _filename$[ebp]
	push	eax
	call	_xmlNewTextReaderFilename
	add	esp, 4
	mov	DWORD PTR _reader$[ebp], eax

; 5416 :     if (reader == NULL)

	cmp	DWORD PTR _reader$[ebp], 0
	jne	SHORT $LN2@xmlReaderF

; 5417 :         return (NULL);

	xor	eax, eax
	jmp	SHORT $LN1@xmlReaderF
$LN2@xmlReaderF:

; 5418 :     xmlTextReaderSetup(reader, NULL, NULL, encoding, options);

	mov	ecx, DWORD PTR _options$[ebp]
	push	ecx
	mov	edx, DWORD PTR _encoding$[ebp]
	push	edx
	push	0
	push	0
	mov	eax, DWORD PTR _reader$[ebp]
	push	eax
	call	_xmlTextReaderSetup
	add	esp, 20					; 00000014H

; 5419 :     return (reader);

	mov	eax, DWORD PTR _reader$[ebp]
$LN1@xmlReaderF:

; 5420 : }

	add	esp, 4
	cmp	ebp, esp
	call	__RTC_CheckEsp
	mov	esp, ebp
	pop	ebp
	ret	0
_xmlReaderForFile ENDP
_TEXT	ENDS
; Function compile flags: /Odtp /RTCsu
; File c:\users\dag\documents\_clients\codeproject authors group\windows on arm\libxml2\libxml2-2.9.9\xmlreader.c
;	COMDAT _xmlReaderForDoc
_TEXT	SEGMENT
_len$ = -4						; size = 4
_cur$ = 8						; size = 4
_URL$ = 12						; size = 4
_encoding$ = 16						; size = 4
_options$ = 20						; size = 4
_xmlReaderForDoc PROC					; COMDAT

; 5388 : {

	push	ebp
	mov	ebp, esp
	push	ecx
	mov	DWORD PTR [ebp-4], -858993460		; ccccccccH
	mov	ecx, OFFSET __BC13D883_xmlreader@c
	call	@__CheckForDebuggerJustMyCode@4

; 5389 :     int len;
; 5390 : 
; 5391 :     if (cur == NULL)

	cmp	DWORD PTR _cur$[ebp], 0
	jne	SHORT $LN2@xmlReaderF

; 5392 :         return (NULL);

	xor	eax, eax
	jmp	SHORT $LN1@xmlReaderF
$LN2@xmlReaderF:

; 5393 :     len = xmlStrlen(cur);

	mov	eax, DWORD PTR _cur$[ebp]
	push	eax
	call	_xmlStrlen
	add	esp, 4
	mov	DWORD PTR _len$[ebp], eax

; 5394 : 
; 5395 :     return (xmlReaderForMemory

	mov	ecx, DWORD PTR _options$[ebp]
	push	ecx
	mov	edx, DWORD PTR _encoding$[ebp]
	push	edx
	mov	eax, DWORD PTR _URL$[ebp]
	push	eax
	mov	ecx, DWORD PTR _len$[ebp]
	push	ecx
	mov	edx, DWORD PTR _cur$[ebp]
	push	edx
	call	_xmlReaderForMemory
	add	esp, 20					; 00000014H
$LN1@xmlReaderF:

; 5396 :             ((const char *) cur, len, URL, encoding, options));
; 5397 : }

	add	esp, 4
	cmp	ebp, esp
	call	__RTC_CheckEsp
	mov	esp, ebp
	pop	ebp
	ret	0
_xmlReaderForDoc ENDP
_TEXT	ENDS
; Function compile flags: /Odtp /RTCsu
; File c:\users\dag\documents\_clients\codeproject authors group\windows on arm\libxml2\libxml2-2.9.9\xmlreader.c
;	COMDAT _xmlReaderWalker
_TEXT	SEGMENT
_ret$ = -4						; size = 4
_doc$ = 8						; size = 4
_xmlReaderWalker PROC					; COMDAT

; 5346 : {

	push	ebp
	mov	ebp, esp
	push	ecx
	push	esi
	mov	DWORD PTR [ebp-4], -858993460		; ccccccccH
	mov	ecx, OFFSET __BC13D883_xmlreader@c
	call	@__CheckForDebuggerJustMyCode@4

; 5347 :     xmlTextReaderPtr ret;
; 5348 : 
; 5349 :     if (doc == NULL)

	cmp	DWORD PTR _doc$[ebp], 0
	jne	SHORT $LN2@xmlReaderW

; 5350 :         return(NULL);

	xor	eax, eax
	jmp	$LN1@xmlReaderW
$LN2@xmlReaderW:

; 5351 : 
; 5352 :     ret = xmlMalloc(sizeof(xmlTextReader));

	mov	esi, esp
	push	196					; 000000c4H
	call	DWORD PTR _xmlMalloc
	add	esp, 4
	cmp	esi, esp
	call	__RTC_CheckEsp
	mov	DWORD PTR _ret$[ebp], eax

; 5353 :     if (ret == NULL) {

	cmp	DWORD PTR _ret$[ebp], 0
	jne	SHORT $LN3@xmlReaderW

; 5354 :         xmlGenericError(xmlGenericErrorContext,

	mov	esi, esp
	push	OFFSET ??_C@_0CC@HCDAIILG@xmlNewTextReader?5?3?5malloc?5faile@
	call	___xmlGenericErrorContext
	mov	eax, DWORD PTR [eax]
	push	eax
	call	___xmlGenericError
	mov	ecx, DWORD PTR [eax]
	call	ecx
	add	esp, 8
	cmp	esi, esp
	call	__RTC_CheckEsp

; 5355 : 		"xmlNewTextReader : malloc failed\n");
; 5356 : 	return(NULL);

	xor	eax, eax
	jmp	$LN1@xmlReaderW
$LN3@xmlReaderW:

; 5357 :     }
; 5358 :     memset(ret, 0, sizeof(xmlTextReader));

	push	196					; 000000c4H
	push	0
	mov	edx, DWORD PTR _ret$[ebp]
	push	edx
	call	_memset
	add	esp, 12					; 0000000cH

; 5359 :     ret->entNr = 0;

	mov	eax, DWORD PTR _ret$[ebp]
	mov	DWORD PTR [eax+96], 0

; 5360 :     ret->input = NULL;

	mov	ecx, DWORD PTR _ret$[ebp]
	mov	DWORD PTR [ecx+28], 0

; 5361 :     ret->mode = XML_TEXTREADER_MODE_INITIAL;

	mov	edx, DWORD PTR _ret$[ebp]
	mov	DWORD PTR [edx], 0

; 5362 :     ret->node = NULL;

	mov	eax, DWORD PTR _ret$[ebp]
	mov	DWORD PTR [eax+64], 0

; 5363 :     ret->curnode = NULL;

	mov	ecx, DWORD PTR _ret$[ebp]
	mov	DWORD PTR [ecx+68], 0

; 5364 :     ret->base = 0;

	mov	edx, DWORD PTR _ret$[ebp]
	mov	DWORD PTR [edx+56], 0

; 5365 :     ret->cur = 0;

	mov	eax, DWORD PTR _ret$[ebp]
	mov	DWORD PTR [eax+60], 0

; 5366 :     ret->allocs = XML_TEXTREADER_CTXT;

	mov	ecx, DWORD PTR _ret$[ebp]
	mov	DWORD PTR [ecx+12], 2

; 5367 :     ret->doc = doc;

	mov	edx, DWORD PTR _ret$[ebp]
	mov	eax, DWORD PTR _doc$[ebp]
	mov	DWORD PTR [edx+4], eax

; 5368 :     ret->state = XML_TEXTREADER_START;

	mov	ecx, DWORD PTR _ret$[ebp]
	mov	DWORD PTR [ecx+16], 0

; 5369 :     ret->dict = xmlDictCreate();

	call	_xmlDictCreate
	mov	edx, DWORD PTR _ret$[ebp]
	mov	DWORD PTR [edx+88], eax

; 5370 :     return(ret);

	mov	eax, DWORD PTR _ret$[ebp]
$LN1@xmlReaderW:

; 5371 : }

	pop	esi
	add	esp, 4
	cmp	ebp, esp
	call	__RTC_CheckEsp
	mov	esp, ebp
	pop	ebp
	ret	0
_xmlReaderWalker ENDP
_TEXT	ENDS
; Function compile flags: /Odtp /RTCsu
; File c:\users\dag\documents\_clients\codeproject authors group\windows on arm\libxml2\libxml2-2.9.9\xmlreader.c
;	COMDAT _xmlTextReaderByteConsumed
_TEXT	SEGMENT
_reader$ = 8						; size = 4
_xmlTextReaderByteConsumed PROC				; COMDAT

; 5329 : xmlTextReaderByteConsumed(xmlTextReaderPtr reader) {

	push	ebp
	mov	ebp, esp
	mov	ecx, OFFSET __BC13D883_xmlreader@c
	call	@__CheckForDebuggerJustMyCode@4

; 5330 :     if ((reader == NULL) || (reader->ctxt == NULL))

	cmp	DWORD PTR _reader$[ebp], 0
	je	SHORT $LN3@xmlTextRea
	mov	eax, DWORD PTR _reader$[ebp]
	cmp	DWORD PTR [eax+20], 0
	jne	SHORT $LN2@xmlTextRea
$LN3@xmlTextRea:

; 5331 :         return(-1);

	or	eax, -1
	jmp	SHORT $LN1@xmlTextRea
$LN2@xmlTextRea:

; 5332 :     return(xmlByteConsumed(reader->ctxt));

	mov	ecx, DWORD PTR _reader$[ebp]
	mov	edx, DWORD PTR [ecx+20]
	push	edx
	call	_xmlByteConsumed
	add	esp, 4
$LN1@xmlTextRea:

; 5333 : }

	cmp	ebp, esp
	call	__RTC_CheckEsp
	pop	ebp
	ret	0
_xmlTextReaderByteConsumed ENDP
_TEXT	ENDS
; Function compile flags: /Odtp /RTCsu
; File c:\users\dag\documents\_clients\codeproject authors group\windows on arm\libxml2\libxml2-2.9.9\xmlreader.c
;	COMDAT _xmlTextReaderStandalone
_TEXT	SEGMENT
_doc$ = -4						; size = 4
_reader$ = 8						; size = 4
_xmlTextReaderStandalone PROC				; COMDAT

; 4705 : xmlTextReaderStandalone(xmlTextReaderPtr reader) {

	push	ebp
	mov	ebp, esp
	push	ecx
	mov	DWORD PTR [ebp-4], -858993460		; ccccccccH
	mov	ecx, OFFSET __BC13D883_xmlreader@c
	call	@__CheckForDebuggerJustMyCode@4

; 4706 :     xmlDocPtr doc = NULL;

	mov	DWORD PTR _doc$[ebp], 0

; 4707 :     if (reader == NULL)

	cmp	DWORD PTR _reader$[ebp], 0
	jne	SHORT $LN2@xmlTextRea

; 4708 : 	return(-1);

	or	eax, -1
	jmp	SHORT $LN1@xmlTextRea
$LN2@xmlTextRea:

; 4709 :     if (reader->doc != NULL)

	mov	eax, DWORD PTR _reader$[ebp]
	cmp	DWORD PTR [eax+4], 0
	je	SHORT $LN3@xmlTextRea

; 4710 :         doc = reader->doc;

	mov	ecx, DWORD PTR _reader$[ebp]
	mov	edx, DWORD PTR [ecx+4]
	mov	DWORD PTR _doc$[ebp], edx
	jmp	SHORT $LN4@xmlTextRea
$LN3@xmlTextRea:

; 4711 :     else if (reader->ctxt != NULL)

	mov	eax, DWORD PTR _reader$[ebp]
	cmp	DWORD PTR [eax+20], 0
	je	SHORT $LN4@xmlTextRea

; 4712 : 	doc = reader->ctxt->myDoc;

	mov	ecx, DWORD PTR _reader$[ebp]
	mov	edx, DWORD PTR [ecx+20]
	mov	eax, DWORD PTR [edx+8]
	mov	DWORD PTR _doc$[ebp], eax
$LN4@xmlTextRea:

; 4713 :     if (doc == NULL)

	cmp	DWORD PTR _doc$[ebp], 0
	jne	SHORT $LN6@xmlTextRea

; 4714 : 	return(-1);

	or	eax, -1
	jmp	SHORT $LN1@xmlTextRea
$LN6@xmlTextRea:

; 4715 : 
; 4716 :     return(doc->standalone);

	mov	ecx, DWORD PTR _doc$[ebp]
	mov	eax, DWORD PTR [ecx+40]
$LN1@xmlTextRea:

; 4717 : }

	add	esp, 4
	cmp	ebp, esp
	call	__RTC_CheckEsp
	mov	esp, ebp
	pop	ebp
	ret	0
_xmlTextReaderStandalone ENDP
_TEXT	ENDS
; Function compile flags: /Odtp /RTCsu
; File c:\users\dag\documents\_clients\codeproject authors group\windows on arm\libxml2\libxml2-2.9.9\xmlreader.c
;	COMDAT _xmlTextReaderConstXmlVersion
_TEXT	SEGMENT
_doc$ = -4						; size = 4
_reader$ = 8						; size = 4
_xmlTextReaderConstXmlVersion PROC			; COMDAT

; 4677 : xmlTextReaderConstXmlVersion(xmlTextReaderPtr reader) {

	push	ebp
	mov	ebp, esp
	push	ecx
	mov	DWORD PTR [ebp-4], -858993460		; ccccccccH
	mov	ecx, OFFSET __BC13D883_xmlreader@c
	call	@__CheckForDebuggerJustMyCode@4

; 4678 :     xmlDocPtr doc = NULL;

	mov	DWORD PTR _doc$[ebp], 0

; 4679 :     if (reader == NULL)

	cmp	DWORD PTR _reader$[ebp], 0
	jne	SHORT $LN2@xmlTextRea

; 4680 : 	return(NULL);

	xor	eax, eax
	jmp	SHORT $LN1@xmlTextRea
$LN2@xmlTextRea:

; 4681 :     if (reader->doc != NULL)

	mov	eax, DWORD PTR _reader$[ebp]
	cmp	DWORD PTR [eax+4], 0
	je	SHORT $LN3@xmlTextRea

; 4682 :         doc = reader->doc;

	mov	ecx, DWORD PTR _reader$[ebp]
	mov	edx, DWORD PTR [ecx+4]
	mov	DWORD PTR _doc$[ebp], edx
	jmp	SHORT $LN4@xmlTextRea
$LN3@xmlTextRea:

; 4683 :     else if (reader->ctxt != NULL)

	mov	eax, DWORD PTR _reader$[ebp]
	cmp	DWORD PTR [eax+20], 0
	je	SHORT $LN4@xmlTextRea

; 4684 : 	doc = reader->ctxt->myDoc;

	mov	ecx, DWORD PTR _reader$[ebp]
	mov	edx, DWORD PTR [ecx+20]
	mov	eax, DWORD PTR [edx+8]
	mov	DWORD PTR _doc$[ebp], eax
$LN4@xmlTextRea:

; 4685 :     if (doc == NULL)

	cmp	DWORD PTR _doc$[ebp], 0
	jne	SHORT $LN6@xmlTextRea

; 4686 : 	return(NULL);

	xor	eax, eax
	jmp	SHORT $LN1@xmlTextRea
$LN6@xmlTextRea:

; 4687 : 
; 4688 :     if (doc->version == NULL)

	mov	ecx, DWORD PTR _doc$[ebp]
	cmp	DWORD PTR [ecx+56], 0
	jne	SHORT $LN7@xmlTextRea

; 4689 : 	return(NULL);

	xor	eax, eax
	jmp	SHORT $LN1@xmlTextRea
	jmp	SHORT $LN1@xmlTextRea
$LN7@xmlTextRea:

; 4690 :     else
; 4691 :       return(CONSTSTR(doc->version));

	push	-1
	mov	edx, DWORD PTR _doc$[ebp]
	mov	eax, DWORD PTR [edx+56]
	push	eax
	mov	ecx, DWORD PTR _reader$[ebp]
	mov	edx, DWORD PTR [ecx+88]
	push	edx
	call	_xmlDictLookup
	add	esp, 12					; 0000000cH
$LN1@xmlTextRea:

; 4692 : }

	add	esp, 4
	cmp	ebp, esp
	call	__RTC_CheckEsp
	mov	esp, ebp
	pop	ebp
	ret	0
_xmlTextReaderConstXmlVersion ENDP
_TEXT	ENDS
; Function compile flags: /Odtp /RTCsu
; File c:\users\dag\documents\_clients\codeproject authors group\windows on arm\libxml2\libxml2-2.9.9\xmlreader.c
;	COMDAT _xmlTextReaderSetSchema
_TEXT	SEGMENT
_reader$ = 8						; size = 4
_schema$ = 12						; size = 4
_xmlTextReaderSetSchema PROC				; COMDAT

; 4263 : xmlTextReaderSetSchema(xmlTextReaderPtr reader, xmlSchemaPtr schema) {

	push	ebp
	mov	ebp, esp
	mov	ecx, OFFSET __BC13D883_xmlreader@c
	call	@__CheckForDebuggerJustMyCode@4

; 4264 :     if (reader == NULL)

	cmp	DWORD PTR _reader$[ebp], 0
	jne	SHORT $LN2@xmlTextRea

; 4265 :         return(-1);

	or	eax, -1
	jmp	$LN1@xmlTextRea
$LN2@xmlTextRea:

; 4266 :     if (schema == NULL) {

	cmp	DWORD PTR _schema$[ebp], 0
	jne	$LN3@xmlTextRea

; 4267 : 	if (reader->xsdPlug != NULL) {

	mov	eax, DWORD PTR _reader$[ebp]
	cmp	DWORD PTR [eax+152], 0
	je	SHORT $LN4@xmlTextRea

; 4268 : 	    xmlSchemaSAXUnplug(reader->xsdPlug);

	mov	ecx, DWORD PTR _reader$[ebp]
	mov	edx, DWORD PTR [ecx+152]
	push	edx
	call	_xmlSchemaSAXUnplug
	add	esp, 4

; 4269 : 	    reader->xsdPlug = NULL;

	mov	eax, DWORD PTR _reader$[ebp]
	mov	DWORD PTR [eax+152], 0
$LN4@xmlTextRea:

; 4270 : 	}
; 4271 :         if (reader->xsdValidCtxt != NULL) {

	mov	ecx, DWORD PTR _reader$[ebp]
	cmp	DWORD PTR [ecx+140], 0
	je	SHORT $LN5@xmlTextRea

; 4272 : 	    if (! reader->xsdPreserveCtxt)

	mov	edx, DWORD PTR _reader$[ebp]
	cmp	DWORD PTR [edx+144], 0
	jne	SHORT $LN6@xmlTextRea

; 4273 : 		xmlSchemaFreeValidCtxt(reader->xsdValidCtxt);

	mov	eax, DWORD PTR _reader$[ebp]
	mov	ecx, DWORD PTR [eax+140]
	push	ecx
	call	_xmlSchemaFreeValidCtxt
	add	esp, 4
$LN6@xmlTextRea:

; 4274 : 	    reader->xsdValidCtxt = NULL;

	mov	edx, DWORD PTR _reader$[ebp]
	mov	DWORD PTR [edx+140], 0
$LN5@xmlTextRea:

; 4275 :         }
; 4276 : 	reader->xsdPreserveCtxt = 0;

	mov	eax, DWORD PTR _reader$[ebp]
	mov	DWORD PTR [eax+144], 0

; 4277 :         if (reader->xsdSchemas != NULL) {

	mov	ecx, DWORD PTR _reader$[ebp]
	cmp	DWORD PTR [ecx+136], 0
	je	SHORT $LN7@xmlTextRea

; 4278 : 	    xmlSchemaFree(reader->xsdSchemas);

	mov	edx, DWORD PTR _reader$[ebp]
	mov	eax, DWORD PTR [edx+136]
	push	eax
	call	_xmlSchemaFree
	add	esp, 4

; 4279 : 	    reader->xsdSchemas = NULL;

	mov	ecx, DWORD PTR _reader$[ebp]
	mov	DWORD PTR [ecx+136], 0
$LN7@xmlTextRea:

; 4280 : 	}
; 4281 : 	return(0);

	xor	eax, eax
	jmp	$LN1@xmlTextRea
$LN3@xmlTextRea:

; 4282 :     }
; 4283 :     if (reader->mode != XML_TEXTREADER_MODE_INITIAL)

	mov	edx, DWORD PTR _reader$[ebp]
	cmp	DWORD PTR [edx], 0
	je	SHORT $LN8@xmlTextRea

; 4284 : 	return(-1);

	or	eax, -1
	jmp	$LN1@xmlTextRea
$LN8@xmlTextRea:

; 4285 :     if (reader->xsdPlug != NULL) {

	mov	eax, DWORD PTR _reader$[ebp]
	cmp	DWORD PTR [eax+152], 0
	je	SHORT $LN9@xmlTextRea

; 4286 : 	xmlSchemaSAXUnplug(reader->xsdPlug);

	mov	ecx, DWORD PTR _reader$[ebp]
	mov	edx, DWORD PTR [ecx+152]
	push	edx
	call	_xmlSchemaSAXUnplug
	add	esp, 4

; 4287 : 	reader->xsdPlug = NULL;

	mov	eax, DWORD PTR _reader$[ebp]
	mov	DWORD PTR [eax+152], 0
$LN9@xmlTextRea:

; 4288 :     }
; 4289 :     if (reader->xsdValidCtxt != NULL) {

	mov	ecx, DWORD PTR _reader$[ebp]
	cmp	DWORD PTR [ecx+140], 0
	je	SHORT $LN10@xmlTextRea

; 4290 : 	if (! reader->xsdPreserveCtxt)

	mov	edx, DWORD PTR _reader$[ebp]
	cmp	DWORD PTR [edx+144], 0
	jne	SHORT $LN11@xmlTextRea

; 4291 : 	    xmlSchemaFreeValidCtxt(reader->xsdValidCtxt);

	mov	eax, DWORD PTR _reader$[ebp]
	mov	ecx, DWORD PTR [eax+140]
	push	ecx
	call	_xmlSchemaFreeValidCtxt
	add	esp, 4
$LN11@xmlTextRea:

; 4292 : 	reader->xsdValidCtxt = NULL;

	mov	edx, DWORD PTR _reader$[ebp]
	mov	DWORD PTR [edx+140], 0
$LN10@xmlTextRea:

; 4293 :     }
; 4294 :     reader->xsdPreserveCtxt = 0;

	mov	eax, DWORD PTR _reader$[ebp]
	mov	DWORD PTR [eax+144], 0

; 4295 :     if (reader->xsdSchemas != NULL) {

	mov	ecx, DWORD PTR _reader$[ebp]
	cmp	DWORD PTR [ecx+136], 0
	je	SHORT $LN12@xmlTextRea

; 4296 : 	xmlSchemaFree(reader->xsdSchemas);

	mov	edx, DWORD PTR _reader$[ebp]
	mov	eax, DWORD PTR [edx+136]
	push	eax
	call	_xmlSchemaFree
	add	esp, 4

; 4297 : 	reader->xsdSchemas = NULL;

	mov	ecx, DWORD PTR _reader$[ebp]
	mov	DWORD PTR [ecx+136], 0
$LN12@xmlTextRea:

; 4298 :     }
; 4299 :     reader->xsdValidCtxt = xmlSchemaNewValidCtxt(schema);

	mov	edx, DWORD PTR _schema$[ebp]
	push	edx
	call	_xmlSchemaNewValidCtxt
	add	esp, 4
	mov	ecx, DWORD PTR _reader$[ebp]
	mov	DWORD PTR [ecx+140], eax

; 4300 :     if (reader->xsdValidCtxt == NULL) {

	mov	edx, DWORD PTR _reader$[ebp]
	cmp	DWORD PTR [edx+140], 0
	jne	SHORT $LN13@xmlTextRea

; 4301 : 	xmlSchemaFree(reader->xsdSchemas);

	mov	eax, DWORD PTR _reader$[ebp]
	mov	ecx, DWORD PTR [eax+136]
	push	ecx
	call	_xmlSchemaFree
	add	esp, 4

; 4302 : 	reader->xsdSchemas = NULL;

	mov	edx, DWORD PTR _reader$[ebp]
	mov	DWORD PTR [edx+136], 0

; 4303 :         return(-1);

	or	eax, -1
	jmp	$LN1@xmlTextRea
$LN13@xmlTextRea:

; 4304 :     }
; 4305 :     reader->xsdPlug = xmlSchemaSAXPlug(reader->xsdValidCtxt,

	mov	eax, DWORD PTR _reader$[ebp]
	mov	ecx, DWORD PTR [eax+20]
	add	ecx, 4
	push	ecx
	mov	edx, DWORD PTR _reader$[ebp]
	mov	eax, DWORD PTR [edx+20]
	push	eax
	mov	ecx, DWORD PTR _reader$[ebp]
	mov	edx, DWORD PTR [ecx+140]
	push	edx
	call	_xmlSchemaSAXPlug
	add	esp, 12					; 0000000cH
	mov	ecx, DWORD PTR _reader$[ebp]
	mov	DWORD PTR [ecx+152], eax

; 4306 :                                        &(reader->ctxt->sax),
; 4307 : 				       &(reader->ctxt->userData));
; 4308 :     if (reader->xsdPlug == NULL) {

	mov	edx, DWORD PTR _reader$[ebp]
	cmp	DWORD PTR [edx+152], 0
	jne	SHORT $LN14@xmlTextRea

; 4309 : 	xmlSchemaFree(reader->xsdSchemas);

	mov	eax, DWORD PTR _reader$[ebp]
	mov	ecx, DWORD PTR [eax+136]
	push	ecx
	call	_xmlSchemaFree
	add	esp, 4

; 4310 : 	reader->xsdSchemas = NULL;

	mov	edx, DWORD PTR _reader$[ebp]
	mov	DWORD PTR [edx+136], 0

; 4311 : 	xmlSchemaFreeValidCtxt(reader->xsdValidCtxt);

	mov	eax, DWORD PTR _reader$[ebp]
	mov	ecx, DWORD PTR [eax+140]
	push	ecx
	call	_xmlSchemaFreeValidCtxt
	add	esp, 4

; 4312 : 	reader->xsdValidCtxt = NULL;

	mov	edx, DWORD PTR _reader$[ebp]
	mov	DWORD PTR [edx+140], 0

; 4313 : 	return(-1);

	or	eax, -1
	jmp	$LN1@xmlTextRea
$LN14@xmlTextRea:

; 4314 :     }
; 4315 :     xmlSchemaValidateSetLocator(reader->xsdValidCtxt,

	mov	eax, DWORD PTR _reader$[ebp]
	push	eax
	push	OFFSET _xmlTextReaderLocator
	mov	ecx, DWORD PTR _reader$[ebp]
	mov	edx, DWORD PTR [ecx+140]
	push	edx
	call	_xmlSchemaValidateSetLocator
	add	esp, 12					; 0000000cH

; 4316 :                                 xmlTextReaderLocator,
; 4317 : 				(void *) reader);
; 4318 : 
; 4319 :     if (reader->errorFunc != NULL) {

	mov	eax, DWORD PTR _reader$[ebp]
	cmp	DWORD PTR [eax+108], 0
	je	SHORT $LN15@xmlTextRea

; 4320 : 	xmlSchemaSetValidErrors(reader->xsdValidCtxt,

	mov	ecx, DWORD PTR _reader$[ebp]
	push	ecx
	push	OFFSET _xmlTextReaderValidityWarningRelay
	push	OFFSET _xmlTextReaderValidityErrorRelay
	mov	edx, DWORD PTR _reader$[ebp]
	mov	eax, DWORD PTR [edx+140]
	push	eax
	call	_xmlSchemaSetValidErrors
	add	esp, 16					; 00000010H
$LN15@xmlTextRea:

; 4321 : 			xmlTextReaderValidityErrorRelay,
; 4322 : 			xmlTextReaderValidityWarningRelay,
; 4323 : 			reader);
; 4324 :     }
; 4325 : 	if (reader->sErrorFunc != NULL) {

	mov	ecx, DWORD PTR _reader$[ebp]
	cmp	DWORD PTR [ecx+192], 0
	je	SHORT $LN16@xmlTextRea

; 4326 : 		xmlSchemaSetValidStructuredErrors(reader->xsdValidCtxt,

	mov	edx, DWORD PTR _reader$[ebp]
	push	edx
	push	OFFSET _xmlTextReaderValidityStructuredRelay
	mov	eax, DWORD PTR _reader$[ebp]
	mov	ecx, DWORD PTR [eax+140]
	push	ecx
	call	_xmlSchemaSetValidStructuredErrors
	add	esp, 12					; 0000000cH
$LN16@xmlTextRea:

; 4327 : 			xmlTextReaderValidityStructuredRelay,
; 4328 : 			reader);
; 4329 :     }
; 4330 :     reader->xsdValidErrors = 0;

	mov	edx, DWORD PTR _reader$[ebp]
	mov	DWORD PTR [edx+148], 0

; 4331 :     reader->validate = XML_TEXTREADER_VALIDATE_XSD;

	mov	eax, DWORD PTR _reader$[ebp]
	mov	DWORD PTR [eax+8], 4

; 4332 :     return(0);

	xor	eax, eax
$LN1@xmlTextRea:

; 4333 : }

	cmp	ebp, esp
	call	__RTC_CheckEsp
	pop	ebp
	ret	0
_xmlTextReaderSetSchema ENDP
_TEXT	ENDS
; Function compile flags: /Odtp /RTCsu
; File c:\users\dag\documents\_clients\codeproject authors group\windows on arm\libxml2\libxml2-2.9.9\xmlreader.c
;	COMDAT _xmlTextReaderSchemaValidateCtxt
_TEXT	SEGMENT
_reader$ = 8						; size = 4
_ctxt$ = 12						; size = 4
_options$ = 16						; size = 4
_xmlTextReaderSchemaValidateCtxt PROC			; COMDAT

; 4575 : {

	push	ebp
	mov	ebp, esp
	mov	ecx, OFFSET __BC13D883_xmlreader@c
	call	@__CheckForDebuggerJustMyCode@4

; 4576 :     return(xmlTextReaderSchemaValidateInternal(reader, NULL, ctxt, options));

	mov	eax, DWORD PTR _options$[ebp]
	push	eax
	mov	ecx, DWORD PTR _ctxt$[ebp]
	push	ecx
	push	0
	mov	edx, DWORD PTR _reader$[ebp]
	push	edx
	call	_xmlTextReaderSchemaValidateInternal
	add	esp, 16					; 00000010H

; 4577 : }

	cmp	ebp, esp
	call	__RTC_CheckEsp
	pop	ebp
	ret	0
_xmlTextReaderSchemaValidateCtxt ENDP
_TEXT	ENDS
; Function compile flags: /Odtp /RTCsu
; File c:\users\dag\documents\_clients\codeproject authors group\windows on arm\libxml2\libxml2-2.9.9\xmlreader.c
;	COMDAT _xmlTextReaderSchemaValidate
_TEXT	SEGMENT
_reader$ = 8						; size = 4
_xsd$ = 12						; size = 4
_xmlTextReaderSchemaValidate PROC			; COMDAT

; 4593 : {

	push	ebp
	mov	ebp, esp
	mov	ecx, OFFSET __BC13D883_xmlreader@c
	call	@__CheckForDebuggerJustMyCode@4

; 4594 :     return(xmlTextReaderSchemaValidateInternal(reader, xsd, NULL, 0));

	push	0
	push	0
	mov	eax, DWORD PTR _xsd$[ebp]
	push	eax
	mov	ecx, DWORD PTR _reader$[ebp]
	push	ecx
	call	_xmlTextReaderSchemaValidateInternal
	add	esp, 16					; 00000010H

; 4595 : }

	cmp	ebp, esp
	call	__RTC_CheckEsp
	pop	ebp
	ret	0
_xmlTextReaderSchemaValidate ENDP
_TEXT	ENDS
; Function compile flags: /Odtp /RTCsu
; File c:\users\dag\documents\_clients\codeproject authors group\windows on arm\libxml2\libxml2-2.9.9\xmlreader.c
;	COMDAT _xmlTextReaderRelaxNGSetSchema
_TEXT	SEGMENT
_reader$ = 8						; size = 4
_schema$ = 12						; size = 4
_xmlTextReaderRelaxNGSetSchema PROC			; COMDAT

; 4146 : xmlTextReaderRelaxNGSetSchema(xmlTextReaderPtr reader, xmlRelaxNGPtr schema) {

	push	ebp
	mov	ebp, esp
	mov	ecx, OFFSET __BC13D883_xmlreader@c
	call	@__CheckForDebuggerJustMyCode@4

; 4147 :     if (reader == NULL)

	cmp	DWORD PTR _reader$[ebp], 0
	jne	SHORT $LN2@xmlTextRea

; 4148 :         return(-1);

	or	eax, -1
	jmp	$LN1@xmlTextRea
$LN2@xmlTextRea:

; 4149 :     if (schema == NULL) {

	cmp	DWORD PTR _schema$[ebp], 0
	jne	SHORT $LN3@xmlTextRea

; 4150 :         if (reader->rngSchemas != NULL) {

	mov	eax, DWORD PTR _reader$[ebp]
	cmp	DWORD PTR [eax+116], 0
	je	SHORT $LN4@xmlTextRea

; 4151 : 	    xmlRelaxNGFree(reader->rngSchemas);

	mov	ecx, DWORD PTR _reader$[ebp]
	mov	edx, DWORD PTR [ecx+116]
	push	edx
	call	_xmlRelaxNGFree
	add	esp, 4

; 4152 : 	    reader->rngSchemas = NULL;

	mov	eax, DWORD PTR _reader$[ebp]
	mov	DWORD PTR [eax+116], 0
$LN4@xmlTextRea:

; 4153 : 	}
; 4154 :         if (reader->rngValidCtxt != NULL) {

	mov	ecx, DWORD PTR _reader$[ebp]
	cmp	DWORD PTR [ecx+120], 0
	je	SHORT $LN5@xmlTextRea

; 4155 : 	    if (! reader->rngPreserveCtxt)

	mov	edx, DWORD PTR _reader$[ebp]
	cmp	DWORD PTR [edx+124], 0
	jne	SHORT $LN6@xmlTextRea

; 4156 : 		xmlRelaxNGFreeValidCtxt(reader->rngValidCtxt);

	mov	eax, DWORD PTR _reader$[ebp]
	mov	ecx, DWORD PTR [eax+120]
	push	ecx
	call	_xmlRelaxNGFreeValidCtxt
	add	esp, 4
$LN6@xmlTextRea:

; 4157 : 	    reader->rngValidCtxt = NULL;

	mov	edx, DWORD PTR _reader$[ebp]
	mov	DWORD PTR [edx+120], 0
$LN5@xmlTextRea:

; 4158 :         }
; 4159 : 	reader->rngPreserveCtxt = 0;

	mov	eax, DWORD PTR _reader$[ebp]
	mov	DWORD PTR [eax+124], 0

; 4160 : 	return(0);

	xor	eax, eax
	jmp	$LN1@xmlTextRea
$LN3@xmlTextRea:

; 4161 :     }
; 4162 :     if (reader->mode != XML_TEXTREADER_MODE_INITIAL)

	mov	ecx, DWORD PTR _reader$[ebp]
	cmp	DWORD PTR [ecx], 0
	je	SHORT $LN7@xmlTextRea

; 4163 : 	return(-1);

	or	eax, -1
	jmp	$LN1@xmlTextRea
$LN7@xmlTextRea:

; 4164 :     if (reader->rngSchemas != NULL) {

	mov	edx, DWORD PTR _reader$[ebp]
	cmp	DWORD PTR [edx+116], 0
	je	SHORT $LN8@xmlTextRea

; 4165 : 	xmlRelaxNGFree(reader->rngSchemas);

	mov	eax, DWORD PTR _reader$[ebp]
	mov	ecx, DWORD PTR [eax+116]
	push	ecx
	call	_xmlRelaxNGFree
	add	esp, 4

; 4166 : 	reader->rngSchemas = NULL;

	mov	edx, DWORD PTR _reader$[ebp]
	mov	DWORD PTR [edx+116], 0
$LN8@xmlTextRea:

; 4167 :     }
; 4168 :     if (reader->rngValidCtxt != NULL) {

	mov	eax, DWORD PTR _reader$[ebp]
	cmp	DWORD PTR [eax+120], 0
	je	SHORT $LN9@xmlTextRea

; 4169 : 	if (! reader->rngPreserveCtxt)

	mov	ecx, DWORD PTR _reader$[ebp]
	cmp	DWORD PTR [ecx+124], 0
	jne	SHORT $LN10@xmlTextRea

; 4170 : 	    xmlRelaxNGFreeValidCtxt(reader->rngValidCtxt);

	mov	edx, DWORD PTR _reader$[ebp]
	mov	eax, DWORD PTR [edx+120]
	push	eax
	call	_xmlRelaxNGFreeValidCtxt
	add	esp, 4
$LN10@xmlTextRea:

; 4171 : 	reader->rngValidCtxt = NULL;

	mov	ecx, DWORD PTR _reader$[ebp]
	mov	DWORD PTR [ecx+120], 0
$LN9@xmlTextRea:

; 4172 :     }
; 4173 :     reader->rngPreserveCtxt = 0;

	mov	edx, DWORD PTR _reader$[ebp]
	mov	DWORD PTR [edx+124], 0

; 4174 :     reader->rngValidCtxt = xmlRelaxNGNewValidCtxt(schema);

	mov	eax, DWORD PTR _schema$[ebp]
	push	eax
	call	_xmlRelaxNGNewValidCtxt
	add	esp, 4
	mov	ecx, DWORD PTR _reader$[ebp]
	mov	DWORD PTR [ecx+120], eax

; 4175 :     if (reader->rngValidCtxt == NULL)

	mov	edx, DWORD PTR _reader$[ebp]
	cmp	DWORD PTR [edx+120], 0
	jne	SHORT $LN11@xmlTextRea

; 4176 :         return(-1);

	or	eax, -1
	jmp	SHORT $LN1@xmlTextRea
$LN11@xmlTextRea:

; 4177 :     if (reader->errorFunc != NULL) {

	mov	eax, DWORD PTR _reader$[ebp]
	cmp	DWORD PTR [eax+108], 0
	je	SHORT $LN12@xmlTextRea

; 4178 : 	xmlRelaxNGSetValidErrors(reader->rngValidCtxt,

	mov	ecx, DWORD PTR _reader$[ebp]
	push	ecx
	push	OFFSET _xmlTextReaderValidityWarningRelay
	push	OFFSET _xmlTextReaderValidityErrorRelay
	mov	edx, DWORD PTR _reader$[ebp]
	mov	eax, DWORD PTR [edx+120]
	push	eax
	call	_xmlRelaxNGSetValidErrors
	add	esp, 16					; 00000010H
$LN12@xmlTextRea:

; 4179 : 			xmlTextReaderValidityErrorRelay,
; 4180 : 			xmlTextReaderValidityWarningRelay,
; 4181 : 			reader);
; 4182 :     }
; 4183 : 	if (reader->sErrorFunc != NULL) {

	mov	ecx, DWORD PTR _reader$[ebp]
	cmp	DWORD PTR [ecx+192], 0
	je	SHORT $LN13@xmlTextRea

; 4184 : 		xmlRelaxNGSetValidStructuredErrors(reader->rngValidCtxt,

	mov	edx, DWORD PTR _reader$[ebp]
	push	edx
	push	OFFSET _xmlTextReaderValidityStructuredRelay
	mov	eax, DWORD PTR _reader$[ebp]
	mov	ecx, DWORD PTR [eax+120]
	push	ecx
	call	_xmlRelaxNGSetValidStructuredErrors
	add	esp, 12					; 0000000cH
$LN13@xmlTextRea:

; 4185 : 			xmlTextReaderValidityStructuredRelay,
; 4186 : 			reader);
; 4187 :     }
; 4188 :     reader->rngValidErrors = 0;

	mov	edx, DWORD PTR _reader$[ebp]
	mov	DWORD PTR [edx+128], 0

; 4189 :     reader->rngFullNode = NULL;

	mov	eax, DWORD PTR _reader$[ebp]
	mov	DWORD PTR [eax+132], 0

; 4190 :     reader->validate = XML_TEXTREADER_VALIDATE_RNG;

	mov	ecx, DWORD PTR _reader$[ebp]
	mov	DWORD PTR [ecx+8], 2

; 4191 :     return(0);

	xor	eax, eax
$LN1@xmlTextRea:

; 4192 : }

	cmp	ebp, esp
	call	__RTC_CheckEsp
	pop	ebp
	ret	0
_xmlTextReaderRelaxNGSetSchema ENDP
_TEXT	ENDS
; Function compile flags: /Odtp /RTCsu
; File c:\users\dag\documents\_clients\codeproject authors group\windows on arm\libxml2\libxml2-2.9.9\xmlreader.c
;	COMDAT _xmlTextReaderRelaxNGValidateCtxt
_TEXT	SEGMENT
_reader$ = 8						; size = 4
_ctxt$ = 12						; size = 4
_options$ = 16						; size = 4
_xmlTextReaderRelaxNGValidateCtxt PROC			; COMDAT

; 4614 : {

	push	ebp
	mov	ebp, esp
	mov	ecx, OFFSET __BC13D883_xmlreader@c
	call	@__CheckForDebuggerJustMyCode@4

; 4615 :     return(xmlTextReaderRelaxNGValidateInternal(reader, NULL, ctxt, options));

	mov	eax, DWORD PTR _options$[ebp]
	push	eax
	mov	ecx, DWORD PTR _ctxt$[ebp]
	push	ecx
	push	0
	mov	edx, DWORD PTR _reader$[ebp]
	push	edx
	call	_xmlTextReaderRelaxNGValidateInternal
	add	esp, 16					; 00000010H

; 4616 : }

	cmp	ebp, esp
	call	__RTC_CheckEsp
	pop	ebp
	ret	0
_xmlTextReaderRelaxNGValidateCtxt ENDP
_TEXT	ENDS
; Function compile flags: /Odtp /RTCsu
; File c:\users\dag\documents\_clients\codeproject authors group\windows on arm\libxml2\libxml2-2.9.9\xmlreader.c
;	COMDAT _xmlTextReaderRelaxNGValidate
_TEXT	SEGMENT
_reader$ = 8						; size = 4
_rng$ = 12						; size = 4
_xmlTextReaderRelaxNGValidate PROC			; COMDAT

; 4632 : {

	push	ebp
	mov	ebp, esp
	mov	ecx, OFFSET __BC13D883_xmlreader@c
	call	@__CheckForDebuggerJustMyCode@4

; 4633 :     return(xmlTextReaderRelaxNGValidateInternal(reader, rng, NULL, 0));

	push	0
	push	0
	mov	eax, DWORD PTR _rng$[ebp]
	push	eax
	mov	ecx, DWORD PTR _reader$[ebp]
	push	ecx
	call	_xmlTextReaderRelaxNGValidateInternal
	add	esp, 16					; 00000010H

; 4634 : }

	cmp	ebp, esp
	call	__RTC_CheckEsp
	pop	ebp
	ret	0
_xmlTextReaderRelaxNGValidate ENDP
_TEXT	ENDS
; Function compile flags: /Odtp /RTCsu
; File c:\users\dag\documents\_clients\codeproject authors group\windows on arm\libxml2\libxml2-2.9.9\xmlreader.c
;	COMDAT _xmlTextReaderIsValid
_TEXT	SEGMENT
tv74 = -8						; size = 4
tv69 = -4						; size = 4
_reader$ = 8						; size = 4
_xmlTextReaderIsValid PROC				; COMDAT

; 5071 : {

	push	ebp
	mov	ebp, esp
	sub	esp, 8
	mov	DWORD PTR [ebp-8], -858993460		; ccccccccH
	mov	DWORD PTR [ebp-4], -858993460		; ccccccccH
	mov	ecx, OFFSET __BC13D883_xmlreader@c
	call	@__CheckForDebuggerJustMyCode@4

; 5072 :     if (reader == NULL)

	cmp	DWORD PTR _reader$[ebp], 0
	jne	SHORT $LN2@xmlTextRea

; 5073 :         return (-1);

	or	eax, -1
	jmp	SHORT $LN1@xmlTextRea
$LN2@xmlTextRea:

; 5074 : #ifdef LIBXML_SCHEMAS_ENABLED
; 5075 :     if (reader->validate == XML_TEXTREADER_VALIDATE_RNG)

	mov	eax, DWORD PTR _reader$[ebp]
	cmp	DWORD PTR [eax+8], 2
	jne	SHORT $LN3@xmlTextRea

; 5076 :         return (reader->rngValidErrors == 0);

	mov	ecx, DWORD PTR _reader$[ebp]
	cmp	DWORD PTR [ecx+128], 0
	jne	SHORT $LN7@xmlTextRea
	mov	DWORD PTR tv69[ebp], 1
	jmp	SHORT $LN8@xmlTextRea
$LN7@xmlTextRea:
	mov	DWORD PTR tv69[ebp], 0
$LN8@xmlTextRea:
	mov	eax, DWORD PTR tv69[ebp]
	jmp	SHORT $LN1@xmlTextRea
$LN3@xmlTextRea:

; 5077 :     if (reader->validate == XML_TEXTREADER_VALIDATE_XSD)

	mov	edx, DWORD PTR _reader$[ebp]
	cmp	DWORD PTR [edx+8], 4
	jne	SHORT $LN4@xmlTextRea

; 5078 :         return (reader->xsdValidErrors == 0);

	mov	eax, DWORD PTR _reader$[ebp]
	cmp	DWORD PTR [eax+148], 0
	jne	SHORT $LN9@xmlTextRea
	mov	DWORD PTR tv74[ebp], 1
	jmp	SHORT $LN10@xmlTextRea
$LN9@xmlTextRea:
	mov	DWORD PTR tv74[ebp], 0
$LN10@xmlTextRea:
	mov	eax, DWORD PTR tv74[ebp]
	jmp	SHORT $LN1@xmlTextRea
$LN4@xmlTextRea:

; 5079 : #endif
; 5080 :     if ((reader->ctxt != NULL) && (reader->ctxt->validate == 1))

	mov	ecx, DWORD PTR _reader$[ebp]
	cmp	DWORD PTR [ecx+20], 0
	je	SHORT $LN5@xmlTextRea
	mov	edx, DWORD PTR _reader$[ebp]
	mov	eax, DWORD PTR [edx+20]
	cmp	DWORD PTR [eax+104], 1
	jne	SHORT $LN5@xmlTextRea

; 5081 :         return (reader->ctxt->valid);

	mov	ecx, DWORD PTR _reader$[ebp]
	mov	edx, DWORD PTR [ecx+20]
	mov	eax, DWORD PTR [edx+100]
	jmp	SHORT $LN1@xmlTextRea
$LN5@xmlTextRea:

; 5082 :     return (0);

	xor	eax, eax
$LN1@xmlTextRea:

; 5083 : }

	add	esp, 8
	cmp	ebp, esp
	call	__RTC_CheckEsp
	mov	esp, ebp
	pop	ebp
	ret	0
_xmlTextReaderIsValid ENDP
_TEXT	ENDS
; Function compile flags: /Odtp /RTCsu
; File c:\users\dag\documents\_clients\codeproject authors group\windows on arm\libxml2\libxml2-2.9.9\xmlreader.c
;	COMDAT _xmlTextReaderNextSibling
_TEXT	SEGMENT
_reader$ = 8						; size = 4
_xmlTextReaderNextSibling PROC				; COMDAT

; 2036 : xmlTextReaderNextSibling(xmlTextReaderPtr reader) {

	push	ebp
	mov	ebp, esp
	mov	ecx, OFFSET __BC13D883_xmlreader@c
	call	@__CheckForDebuggerJustMyCode@4

; 2037 :     if (reader == NULL)

	cmp	DWORD PTR _reader$[ebp], 0
	jne	SHORT $LN2@xmlTextRea

; 2038 :         return(-1);

	or	eax, -1
	jmp	SHORT $LN1@xmlTextRea
$LN2@xmlTextRea:

; 2039 :     if (reader->doc == NULL) {

	mov	eax, DWORD PTR _reader$[ebp]
	cmp	DWORD PTR [eax+4], 0
	jne	SHORT $LN3@xmlTextRea

; 2040 :         /* TODO */
; 2041 : 	return(-1);

	or	eax, -1
	jmp	SHORT $LN1@xmlTextRea
$LN3@xmlTextRea:

; 2042 :     }
; 2043 : 
; 2044 :     if (reader->state == XML_TEXTREADER_END)

	mov	ecx, DWORD PTR _reader$[ebp]
	cmp	DWORD PTR [ecx+16], 2
