; Listing generated by Microsoft (R) Optimizing Compiler Version 19.16.27027.1 

	TITLE	C:\Users\DAG\Documents\_Clients\CodeProject Authors Group\Windows on ARM\libxml2\libxml2-2.9.9\xmlregexp.c
	.686P
	.XMM
	include listing.inc
	.model	flat

INCLUDELIB MSVCRTD
INCLUDELIB OLDNAMES

PUBLIC	_forbiddenExp
PUBLIC	_emptyExp
_DATA	SEGMENT
COMM	_xmlMalloc:DWORD
COMM	_xmlMallocAtomic:DWORD
COMM	_xmlRealloc:DWORD
COMM	_xmlFree:DWORD
COMM	_xmlMemStrdup:DWORD
COMM	_xmlIsBaseCharGroup:BYTE:010H
COMM	_xmlIsCharGroup:BYTE:010H
COMM	_xmlIsCombiningGroup:BYTE:010H
COMM	_xmlIsDigitGroup:BYTE:010H
COMM	_xmlIsExtenderGroup:BYTE:010H
COMM	_xmlIsIdeographicGroup:BYTE:010H
COMM	_xmlIsPubidChar_tab:BYTE:0100H
COMM	_xmlParserMaxDepth:DWORD
_DATA	ENDS
msvcjmc	SEGMENT
__188180DA_corecrt_math@h DB 01H
__2CC6E67D_corecrt_stdio_config@h DB 01H
__05476D76_corecrt_wstdio@h DB 01H
__A452D4A0_stdio@h DB 01H
__4384A2D9_corecrt_memcpy_s@h DB 01H
__4E51A221_corecrt_wstring@h DB 01H
__2140C079_string@h DB 01H
__F6DD4902_xmlregexp@c DB 01H
msvcjmc	ENDS
_DATA	SEGMENT
_forbiddenExp DD FLAT:_forbiddenExpNode
_emptyExp DD	FLAT:_emptyExpNode
_forbiddenExpNode DB 01H
	DB	00H
	DW	00H
	DD	00H
	DD	00H
	DD	00H
	DD	00H
	DD	00H
	DD	00H
_emptyExpNode DB 00H
	DB	01H
	DW	00H
	DD	00H
	DD	00H
	DD	00H
	DD	00H
	DD	00H
	DD	00H
_DATA	ENDS
PUBLIC	___local_stdio_printf_options
PUBLIC	_fprintf
PUBLIC	_printf
PUBLIC	_snprintf
PUBLIC	_xmlRegexpCompile
PUBLIC	_xmlRegFreeRegexp
PUBLIC	_xmlRegexpExec
PUBLIC	_xmlRegexpPrint
PUBLIC	_xmlRegexpIsDeterminist
PUBLIC	_xmlRegNewExecCtxt
PUBLIC	_xmlRegFreeExecCtxt
PUBLIC	_xmlRegExecPushString
PUBLIC	_xmlRegExecPushString2
PUBLIC	_xmlRegExecNextValues
PUBLIC	_xmlRegExecErrInfo
PUBLIC	_xmlExpFreeCtxt
PUBLIC	_xmlExpNewCtxt
PUBLIC	_xmlExpCtxtNbNodes
PUBLIC	_xmlExpCtxtNbCons
PUBLIC	_xmlExpFree
PUBLIC	_xmlExpRef
PUBLIC	_xmlExpParse
PUBLIC	_xmlExpNewAtom
PUBLIC	_xmlExpNewOr
PUBLIC	_xmlExpNewSeq
PUBLIC	_xmlExpNewRange
PUBLIC	_xmlExpIsNillable
PUBLIC	_xmlExpMaxToken
PUBLIC	_xmlExpGetLanguage
PUBLIC	_xmlExpGetStart
PUBLIC	_xmlExpStringDerive
PUBLIC	_xmlExpExpDerive
PUBLIC	_xmlExpSubsume
PUBLIC	_xmlExpDump
PUBLIC	_xmlNewAutomata
PUBLIC	_xmlFreeAutomata
PUBLIC	_xmlAutomataGetInitState
PUBLIC	_xmlAutomataSetFinalState
PUBLIC	_xmlAutomataNewState
PUBLIC	_xmlAutomataNewTransition
PUBLIC	_xmlAutomataNewTransition2
PUBLIC	_xmlAutomataNewNegTrans
PUBLIC	_xmlAutomataNewCountTrans
PUBLIC	_xmlAutomataNewCountTrans2
PUBLIC	_xmlAutomataNewOnceTrans
PUBLIC	_xmlAutomataNewOnceTrans2
PUBLIC	_xmlAutomataNewAllTrans
PUBLIC	_xmlAutomataNewEpsilon
PUBLIC	_xmlAutomataNewCountedTrans
PUBLIC	_xmlAutomataNewCounterTrans
PUBLIC	_xmlAutomataNewCounter
PUBLIC	_xmlAutomataCompile
PUBLIC	_xmlAutomataIsDeterminist
PUBLIC	_xmlAutomataSetFlags
PUBLIC	__JustMyCode_Default
PUBLIC	??_C@_0BP@DJFHNAOK@Memory?5allocation?5failed?5?3?5?$CFs?6@ ; `string'
PUBLIC	??_C@_0BH@CFFLONMP@failed?5to?5compile?3?5?$CFs?6@ ; `string'
PUBLIC	??_C@_0BB@FJPDMDM@compiling?5regexp@		; `string'
PUBLIC	??_C@_0BB@PBEHJOM@allocating?5range@		; `string'
PUBLIC	??_C@_0BA@JCPCIFNM@allocating?5atom@		; `string'
PUBLIC	??_C@_0N@ECMBACNP@copying?5atom@		; `string'
PUBLIC	??_C@_0BB@CKELLPME@allocating?5state@		; `string'
PUBLIC	??_C@_08LJGDJFJP@epsilon?5@			; `string'
PUBLIC	??_C@_08DFHMJFEK@charval?5@			; `string'
PUBLIC	??_C@_07IPEOMBMH@ranges?5@			; `string'
PUBLIC	??_C@_08BABENLJO@subexpr?5@			; `string'
PUBLIC	??_C@_07HBAIICBM@string?5@			; `string'
PUBLIC	??_C@_08IIDGBAEF@anychar?5@			; `string'
PUBLIC	??_C@_09IFBFMEEE@anyspace?5@			; `string'
PUBLIC	??_C@_09PIGAJOFL@notspace?5@			; `string'
PUBLIC	??_C@_09PGNNJPMN@initname?5@			; `string'
PUBLIC	??_C@_0N@PKALLFNP@notinitname?5@		; `string'
PUBLIC	??_C@_09GMGKKJAH@namechar?5@			; `string'
PUBLIC	??_C@_0N@GALMIDBF@notnamechar?5@		; `string'
PUBLIC	??_C@_08CDKGKILA@decimal?5@			; `string'
PUBLIC	??_C@_0M@EDJHICHL@notdecimal?5@			; `string'
PUBLIC	??_C@_09MOCDMJPB@realchar?5@			; `string'
PUBLIC	??_C@_0N@MCPFODOD@notrealchar?5@		; `string'
PUBLIC	??_C@_07POCGPIHD@LETTER?5@			; `string'
PUBLIC	??_C@_0BC@KMHMCLHI@LETTER_UPPERCASE?5@		; `string'
PUBLIC	??_C@_0BC@MLADGGJK@LETTER_LOWERCASE?5@		; `string'
PUBLIC	??_C@_0BC@FGJDLGPN@LETTER_TITLECASE?5@		; `string'
PUBLIC	??_C@_0BB@MHDADLFE@LETTER_MODIFIER?5@		; `string'
PUBLIC	??_C@_0P@ONCGNHEJ@LETTER_OTHERS?5@		; `string'
PUBLIC	??_C@_05BACHLHLN@MARK?5@			; `string'
PUBLIC	??_C@_0BB@FIDLEIEL@MARK_NONSPACING?5@		; `string'
PUBLIC	??_C@_0BF@GJKDPMF@MARK_SPACECOMBINING?5@	; `string'
PUBLIC	??_C@_0BA@NNNPPLBP@MARK_ENCLOSING?5@		; `string'
PUBLIC	??_C@_07BAKEFCLB@NUMBER?5@			; `string'
PUBLIC	??_C@_0BA@JLEBGNKM@NUMBER_DECIMAL?5@		; `string'
PUBLIC	??_C@_0P@FJBLFHMA@NUMBER_LETTER?5@		; `string'
PUBLIC	??_C@_0P@PDKFLOJK@NUMBER_OTHERS?5@		; `string'
PUBLIC	??_C@_06INFGODEH@PUNCT?5@			; `string'
PUBLIC	??_C@_0BB@DCHADIII@PUNCT_CONNECTOR?5@		; `string'
PUBLIC	??_C@_0M@BBMKBPFM@PUNCT_DASH?5@			; `string'
PUBLIC	??_C@_0M@FHHCCFFM@PUNCT_OPEN?5@			; `string'
PUBLIC	??_C@_0N@OCGFHNOE@PUNCT_CLOSE?5@		; `string'
PUBLIC	??_C@_0BB@HJFINBLL@PUNCT_INITQUOTE?5@		; `string'
PUBLIC	??_C@_0BA@EBCHGEDF@PUNCT_FINQUOTE?5@		; `string'
PUBLIC	??_C@_0O@FIEDELON@PUNCT_OTHERS?5@		; `string'
PUBLIC	??_C@_06MODMGGJL@SEPAR?5@			; `string'
PUBLIC	??_C@_0N@CEDLANHM@SEPAR_SPACE?5@		; `string'
PUBLIC	??_C@_0M@GPNEEMIA@SEPAR_LINE?5@			; `string'
PUBLIC	??_C@_0M@DGHGIFFK@SEPAR_PARA?5@			; `string'
PUBLIC	??_C@_07EJLPHCCB@SYMBOL?5@			; `string'
PUBLIC	??_C@_0N@LBDJILGE@SYMBOL_MATH?5@		; `string'
PUBLIC	??_C@_0BB@MBFAMNND@SYMBOL_CURRENCY?5@		; `string'
PUBLIC	??_C@_0BB@CEPANLJE@SYMBOL_MODIFIER?5@		; `string'
PUBLIC	??_C@_0P@LKPECLCL@SYMBOL_OTHERS?5@		; `string'
PUBLIC	??_C@_06HJDKAKAL@OTHER?5@			; `string'
PUBLIC	??_C@_0P@FGFCBEPI@OTHER_CONTROL?5@		; `string'
PUBLIC	??_C@_0O@BACNFCMB@OTHER_FORMAT?5@		; `string'
PUBLIC	??_C@_0P@DEHNHHA@OTHER_PRIVATE?5@		; `string'
PUBLIC	??_C@_09NECDEFOF@OTHER_NA?5@			; `string'
PUBLIC	??_C@_06HDNEPAAO@BLOCK?5@			; `string'
PUBLIC	??_C@_05GDJGFPHL@once?5@			; `string'
PUBLIC	??_C@_02LKANKAOC@?$DP?5@			; `string'
PUBLIC	??_C@_02KAOAMBHJ@?$CK?5@			; `string'
PUBLIC	??_C@_02KBCCKLEO@?$CL?5@			; `string'
PUBLIC	??_C@_06IBKHBGID@range?5@			; `string'
PUBLIC	??_C@_09EPCGBNDN@onceonly?5@			; `string'
PUBLIC	??_C@_04DIDGAIEC@all?5@				; `string'
PUBLIC	??_C@_09LLABEBOE@?5?5range?3?5@			; `string'
PUBLIC	??_C@_09KDBNABJA@negative?5@			; `string'
PUBLIC	??_C@_08BNCIEJGK@?$CFc?5?9?5?$CFc?6@		; `string'
PUBLIC	??_C@_07LAIPMBOA@?5atom?3?5@			; `string'
PUBLIC	??_C@_05NJDBAOFA@NULL?6@			; `string'
PUBLIC	??_C@_04LKOGMCLF@not?5@				; `string'
PUBLIC	??_C@_06BIJEIIBB@?$CFd?9?$CFd?5@		; `string'
PUBLIC	??_C@_05IMLJLABD@?8?$CFs?8?5@			; `string'
PUBLIC	??_C@_08PCGOOLFO@char?5?$CFc?6@			; `string'
PUBLIC	??_C@_0M@BCDCHBAM@?$CFd?5entries?6@		; `string'
PUBLIC	??_C@_0BB@GBMGKEL@start?5?$CFd?5end?5?$CFd?6@	; `string'
PUBLIC	??_C@_01EEMJAFIK@?6@				; `string'
PUBLIC	??_C@_09KCGMBGNH@?5?5trans?3?5@			; `string'
PUBLIC	??_C@_08IDDAKHFP@removed?6@			; `string'
PUBLIC	??_C@_0BH@PJNPIGKD@last?5not?5determinist?0?5@	; `string'
PUBLIC	??_C@_0BC@EKCPHBCA@not?5determinist?0?5@	; `string'
PUBLIC	??_C@_0N@NIIDMCG@counted?5?$CFd?0?5@		; `string'
PUBLIC	??_C@_0BB@CPMJDJHN@all?5transition?0?5@		; `string'
PUBLIC	??_C@_0BB@LHHOLMKP@count?5based?5?$CFd?0?5@	; `string'
PUBLIC	??_C@_0P@BEFDCDEN@epsilon?5to?5?$CFd?6@		; `string'
PUBLIC	??_C@_08JNAFCHHG@char?5?$CFc?5@			; `string'
PUBLIC	??_C@_0BA@DDAHGLMD@atom?5?$CFd?0?5to?5?$CFd?6@	; `string'
PUBLIC	??_C@_08NOIFNCJM@?5state?3?5@			; `string'
PUBLIC	??_C@_06BNBHINFE@START?5@			; `string'
PUBLIC	??_C@_06EFHALCBA@FINAL?5@			; `string'
PUBLIC	??_C@_0BF@NHMHHIIL@?$CFd?0?5?$CFd?5transitions?3?6@ ; `string'
PUBLIC	??_C@_0BI@MEBKNK@add?5range?3?5atom?5is?5NULL@	; `string'
PUBLIC	??_C@_0BO@PJJILLLG@add?5range?3?5atom?5is?5not?5ranges@ ; `string'
PUBLIC	??_C@_0O@INOJCFAI@adding?5ranges@		; `string'
PUBLIC	??_C@_0BD@OEINICOI@allocating?5counter@		; `string'
PUBLIC	??_C@_0BI@LIIKMBAE@atom?5push?3?5atom?5is?5NULL@ ; `string'
PUBLIC	??_C@_0N@PMKNEBIB@pushing?5atom@		; `string'
PUBLIC	??_C@_0BC@FHJHIDDF@adding?5transition@		; `string'
PUBLIC	??_C@_0BJ@KPILLGIF@add?5state?3?5state?5is?5NULL@ ; `string'
PUBLIC	??_C@_0BK@PPLNMJBI@add?5state?3?5target?5is?5NULL@ ; `string'
PUBLIC	??_C@_0N@NHLBLLB@adding?5state@			; `string'
PUBLIC	??_C@_0CB@LMLDANHN@genrate?5transition?3?5atom?5?$DN?$DN?5NUL@ ; `string'
PUBLIC	??_C@_0BJ@POCEJEIB@TODO?3?5XML_REGEXP_STRING?6@	; `string'
PUBLIC	??_C@_0O@PEGCJGLF@saving?5regexp@		; `string'
PUBLIC	??_C@_0BN@CPBANDJM@exec?5save?3?5allocation?5failed@ ; `string'
PUBLIC	??_C@_0P@IJHGICCJ@running?5regexp@		; `string'
PUBLIC	??_C@_0CE@CMNJHAKA@epsilon?5transition?5left?5at?5runt@ ; `string'
PUBLIC	??_C@_0BL@LMPHHOAL@creating?5execution?5context@ ; `string'
PUBLIC	??_C@_0BF@FEDDAGIG@pushing?5input?5string@	; `string'
PUBLIC	??_C@_0GL@GCGJPEPF@c?3?2users?2dag?2documents?2_clients@ ; `string'
PUBLIC	??_C@_0BO@MDEMDPPE@Unimplemented?5block?5at?5?$CFs?3?$CFd?6@ ; `string'
PUBLIC	??_C@_0BA@KPLOEDJN@IsXXXX?5expected@		; `string'
PUBLIC	??_C@_0BG@ECFAFFBF@Unknown?5char?5property@	; `string'
PUBLIC	??_C@_0BO@BOFONOMH@Escaped?5sequence?3?5expecting?5?2@ ; `string'
PUBLIC	??_C@_0O@OGGGBIPE@Expecting?5?8?$HL?8@		; `string'
PUBLIC	??_C@_0O@OCOLGEEG@Expecting?5?8?$HN?8@		; `string'
PUBLIC	??_C@_0CP@BDPLJNDH@Wrong?5escape?5sequence?0?5misuse?5o@ ; `string'
PUBLIC	??_C@_0O@NKKGCCKG@Expecting?5?8?$FN?8@		; `string'
PUBLIC	??_C@_0BF@HOMDEKLG@Invalid?5escape?5value@	; `string'
PUBLIC	??_C@_0BH@LOJMKNAD@Expecting?5a?5char?5range@	; `string'
PUBLIC	??_C@_0CC@JHFKDBIP@Expecting?5the?5end?5of?5a?5char?5ran@ ; `string'
PUBLIC	??_C@_0CG@BKADGONK@End?5of?5range?5is?5before?5start?5of@ ; `string'
PUBLIC	??_C@_0BM@FJAEMPFO@charClassExpr?3?5?8?$FN?8?5expected@ ; `string'
PUBLIC	??_C@_0CC@FKLKCEIP@xmlFAParseCharClass?3?5?8?$FN?8?5expect@ ; `string'
PUBLIC	??_C@_0BE@PGBJEMPN@Improper?5quantifier@	; `string'
PUBLIC	??_C@_0BI@HKPFPPFN@Unterminated?5quantifier@	; `string'
PUBLIC	??_C@_0BO@CCFFKIJF@xmlFAParseAtom?3?5expecting?5?8?$CJ?8@ ; `string'
PUBLIC	??_C@_0BM@PFFMPGPF@internal?3?5no?5atom?5generated@ ; `string'
PUBLIC	??_C@_0BL@KAIMKABF@expecting?5a?5branch?5after?5?$HM@ ; `string'
PUBLIC	??_C@_09BNLLHCCB@?5regexp?3?5@			; `string'
PUBLIC	??_C@_0L@PLBJGPP@?$CFd?5atoms?3?6@		; `string'
PUBLIC	??_C@_06NLBGECGK@?5?$CF02d?5@			; `string'
PUBLIC	??_C@_0L@LDKKLMNF@?$CFd?5states?3@		; `string'
PUBLIC	??_C@_0O@EOOCDOKK@?$CFd?5counters?3?6@		; `string'
PUBLIC	??_C@_0BE@LNLBBGGH@?5?$CFd?3?5min?5?$CFd?5max?5?$CFd?6@ ; `string'
PUBLIC	??_C@_0CD@GPPIOFAL@xmlFAParseRegExp?3?5extra?5charact@ ; `string'
PUBLIC	??_C@_06NGEMONLJ@not?5?$CFs@			; `string'
PUBLIC	??_C@_0BF@FNELPLND@unbalanced?5?8?$CI?8?5?3?5?$CFs?6@ ; `string'
PUBLIC	??_C@_01ODHLEDKK@?$CI@				; `string'
PUBLIC	??_C@_05LBJMNBOG@empty@				; `string'
PUBLIC	??_C@_09PDGFMGED@forbidden@			; `string'
PUBLIC	??_C@_03NKFKBEPL@?5?0?5@			; `string'
PUBLIC	??_C@_03LGOGDKEL@?5?$HM?5@			; `string'
PUBLIC	??_C@_04PFHMOCHH@?$HL?$CFd?$HN@			; `string'
PUBLIC	??_C@_08EMBBFCPF@?$HL?$CFd?0inf?$HN@		; `string'
PUBLIC	??_C@_07CDJFAPGJ@?$HL?$CFd?0?$CFd?$HN@		; `string'
PUBLIC	??_C@_0P@OCJKDKLA@Error?5in?5tree?6@		; `string'
PUBLIC	??_C@_01PKGAHCOL@?$CJ@				; `string'
EXTRN	_xmlStrdup:PROC
EXTRN	_xmlStrndup:PROC
EXTRN	_xmlStrEqual:PROC
EXTRN	__imp____acrt_iob_func:PROC
EXTRN	__imp____stdio_common_vfprintf:PROC
EXTRN	__imp____stdio_common_vsprintf:PROC
EXTRN	_xmlDictCreate:PROC
EXTRN	_xmlDictReference:PROC
EXTRN	_xmlDictFree:PROC
EXTRN	_xmlDictLookup:PROC
EXTRN	_xmlDictExists:PROC
EXTRN	_xmlBufferWriteCHAR:PROC
EXTRN	_xmlBufferWriteChar:PROC
EXTRN	___xmlRaiseError:PROC
EXTRN	___xmlGenericError:PROC
EXTRN	___xmlGenericErrorContext:PROC
EXTRN	_xmlCharInRange:PROC
EXTRN	_xmlStringCurrentChar:PROC
EXTRN	_xmlUCSIsBlock:PROC
EXTRN	_xmlUCSIsCatC:PROC
EXTRN	_xmlUCSIsCatCc:PROC
EXTRN	_xmlUCSIsCatCf:PROC
EXTRN	_xmlUCSIsCatCo:PROC
EXTRN	_xmlUCSIsCatL:PROC
EXTRN	_xmlUCSIsCatLl:PROC
EXTRN	_xmlUCSIsCatLm:PROC
EXTRN	_xmlUCSIsCatLo:PROC
EXTRN	_xmlUCSIsCatLt:PROC
EXTRN	_xmlUCSIsCatLu:PROC
EXTRN	_xmlUCSIsCatM:PROC
EXTRN	_xmlUCSIsCatMc:PROC
EXTRN	_xmlUCSIsCatMe:PROC
EXTRN	_xmlUCSIsCatMn:PROC
EXTRN	_xmlUCSIsCatN:PROC
EXTRN	_xmlUCSIsCatNd:PROC
EXTRN	_xmlUCSIsCatNl:PROC
EXTRN	_xmlUCSIsCatNo:PROC
EXTRN	_xmlUCSIsCatP:PROC
EXTRN	_xmlUCSIsCatPc:PROC
EXTRN	_xmlUCSIsCatPd:PROC
EXTRN	_xmlUCSIsCatPe:PROC
EXTRN	_xmlUCSIsCatPf:PROC
EXTRN	_xmlUCSIsCatPi:PROC
EXTRN	_xmlUCSIsCatPo:PROC
EXTRN	_xmlUCSIsCatPs:PROC
EXTRN	_xmlUCSIsCatS:PROC
EXTRN	_xmlUCSIsCatSc:PROC
EXTRN	_xmlUCSIsCatSk:PROC
EXTRN	_xmlUCSIsCatSm:PROC
EXTRN	_xmlUCSIsCatSo:PROC
EXTRN	_xmlUCSIsCatZ:PROC
EXTRN	_xmlUCSIsCatZl:PROC
EXTRN	_xmlUCSIsCatZp:PROC
EXTRN	_xmlUCSIsCatZs:PROC
EXTRN	@_RTC_CheckStackVars@8:PROC
EXTRN	@__CheckForDebuggerJustMyCode@4:PROC
EXTRN	__RTC_CheckEsp:PROC
EXTRN	__RTC_InitBase:PROC
EXTRN	__RTC_Shutdown:PROC
EXTRN	_memcpy:PROC
EXTRN	_memset:PROC
_DATA	SEGMENT
COMM	?_OptionsStorage@?1??__local_stdio_printf_options@@9@9:QWORD							; `__local_stdio_printf_options'::`2'::_OptionsStorage
_DATA	ENDS
;	COMDAT rtc$TMZ
rtc$TMZ	SEGMENT
__RTC_Shutdown.rtc$TMZ DD FLAT:__RTC_Shutdown
rtc$TMZ	ENDS
;	COMDAT rtc$IMZ
rtc$IMZ	SEGMENT
__RTC_InitBase.rtc$IMZ DD FLAT:__RTC_InitBase
rtc$IMZ	ENDS
;	COMDAT ??_C@_01PKGAHCOL@?$CJ@
CONST	SEGMENT
??_C@_01PKGAHCOL@?$CJ@ DB ')', 00H			; `string'
CONST	ENDS
;	COMDAT ??_C@_0P@OCJKDKLA@Error?5in?5tree?6@
CONST	SEGMENT
??_C@_0P@OCJKDKLA@Error?5in?5tree?6@ DB 'Error in tree', 0aH, 00H ; `string'
CONST	ENDS
;	COMDAT ??_C@_07CDJFAPGJ@?$HL?$CFd?0?$CFd?$HN@
CONST	SEGMENT
??_C@_07CDJFAPGJ@?$HL?$CFd?0?$CFd?$HN@ DB '{%d,%d}', 00H ; `string'
CONST	ENDS
;	COMDAT ??_C@_08EMBBFCPF@?$HL?$CFd?0inf?$HN@
CONST	SEGMENT
??_C@_08EMBBFCPF@?$HL?$CFd?0inf?$HN@ DB '{%d,inf}', 00H	; `string'
CONST	ENDS
;	COMDAT ??_C@_04PFHMOCHH@?$HL?$CFd?$HN@
CONST	SEGMENT
??_C@_04PFHMOCHH@?$HL?$CFd?$HN@ DB '{%d}', 00H		; `string'
CONST	ENDS
;	COMDAT ??_C@_03LGOGDKEL@?5?$HM?5@
CONST	SEGMENT
??_C@_03LGOGDKEL@?5?$HM?5@ DB ' | ', 00H		; `string'
CONST	ENDS
;	COMDAT ??_C@_03NKFKBEPL@?5?0?5@
CONST	SEGMENT
??_C@_03NKFKBEPL@?5?0?5@ DB ' , ', 00H			; `string'
CONST	ENDS
;	COMDAT ??_C@_09PDGFMGED@forbidden@
CONST	SEGMENT
??_C@_09PDGFMGED@forbidden@ DB 'forbidden', 00H		; `string'
CONST	ENDS
;	COMDAT ??_C@_05LBJMNBOG@empty@
CONST	SEGMENT
??_C@_05LBJMNBOG@empty@ DB 'empty', 00H			; `string'
CONST	ENDS
;	COMDAT ??_C@_01ODHLEDKK@?$CI@
CONST	SEGMENT
??_C@_01ODHLEDKK@?$CI@ DB '(', 00H			; `string'
CONST	ENDS
;	COMDAT ??_C@_0BF@FNELPLND@unbalanced?5?8?$CI?8?5?3?5?$CFs?6@
CONST	SEGMENT
??_C@_0BF@FNELPLND@unbalanced?5?8?$CI?8?5?3?5?$CFs?6@ DB 'unbalanced ''('''
	DB	' : %s', 0aH, 00H				; `string'
CONST	ENDS
;	COMDAT ??_C@_06NGEMONLJ@not?5?$CFs@
CONST	SEGMENT
??_C@_06NGEMONLJ@not?5?$CFs@ DB 'not %s', 00H		; `string'
CONST	ENDS
;	COMDAT ??_C@_0CD@GPPIOFAL@xmlFAParseRegExp?3?5extra?5charact@
CONST	SEGMENT
??_C@_0CD@GPPIOFAL@xmlFAParseRegExp?3?5extra?5charact@ DB 'xmlFAParseRegE'
	DB	'xp: extra characters', 00H			; `string'
CONST	ENDS
;	COMDAT ??_C@_0BE@LNLBBGGH@?5?$CFd?3?5min?5?$CFd?5max?5?$CFd?6@
CONST	SEGMENT
??_C@_0BE@LNLBBGGH@?5?$CFd?3?5min?5?$CFd?5max?5?$CFd?6@ DB ' %d: min %d m'
	DB	'ax %d', 0aH, 00H				; `string'
CONST	ENDS
;	COMDAT ??_C@_0O@EOOCDOKK@?$CFd?5counters?3?6@
CONST	SEGMENT
??_C@_0O@EOOCDOKK@?$CFd?5counters?3?6@ DB '%d counters:', 0aH, 00H ; `string'
CONST	ENDS
;	COMDAT ??_C@_0L@LDKKLMNF@?$CFd?5states?3@
CONST	SEGMENT
??_C@_0L@LDKKLMNF@?$CFd?5states?3@ DB '%d states:', 00H	; `string'
CONST	ENDS
;	COMDAT ??_C@_06NLBGECGK@?5?$CF02d?5@
CONST	SEGMENT
??_C@_06NLBGECGK@?5?$CF02d?5@ DB ' %02d ', 00H		; `string'
CONST	ENDS
;	COMDAT ??_C@_0L@PLBJGPP@?$CFd?5atoms?3?6@
CONST	SEGMENT
??_C@_0L@PLBJGPP@?$CFd?5atoms?3?6@ DB '%d atoms:', 0aH, 00H ; `string'
CONST	ENDS
;	COMDAT ??_C@_09BNLLHCCB@?5regexp?3?5@
CONST	SEGMENT
??_C@_09BNLLHCCB@?5regexp?3?5@ DB ' regexp: ', 00H	; `string'
CONST	ENDS
;	COMDAT ??_C@_0BL@KAIMKABF@expecting?5a?5branch?5after?5?$HM@
CONST	SEGMENT
??_C@_0BL@KAIMKABF@expecting?5a?5branch?5after?5?$HM@ DB 'expecting a bra'
	DB	'nch after |', 00H				; `string'
CONST	ENDS
;	COMDAT ??_C@_0BM@PFFMPGPF@internal?3?5no?5atom?5generated@
CONST	SEGMENT
??_C@_0BM@PFFMPGPF@internal?3?5no?5atom?5generated@ DB 'internal: no atom'
	DB	' generated', 00H				; `string'
CONST	ENDS
;	COMDAT ??_C@_0BO@CCFFKIJF@xmlFAParseAtom?3?5expecting?5?8?$CJ?8@
CONST	SEGMENT
??_C@_0BO@CCFFKIJF@xmlFAParseAtom?3?5expecting?5?8?$CJ?8@ DB 'xmlFAParseA'
	DB	'tom: expecting '')''', 00H			; `string'
CONST	ENDS
;	COMDAT ??_C@_0BI@HKPFPPFN@Unterminated?5quantifier@
CONST	SEGMENT
??_C@_0BI@HKPFPPFN@Unterminated?5quantifier@ DB 'Unterminated quantifier', 00H ; `string'
CONST	ENDS
;	COMDAT ??_C@_0BE@PGBJEMPN@Improper?5quantifier@
CONST	SEGMENT
??_C@_0BE@PGBJEMPN@Improper?5quantifier@ DB 'Improper quantifier', 00H ; `string'
CONST	ENDS
;	COMDAT ??_C@_0CC@FKLKCEIP@xmlFAParseCharClass?3?5?8?$FN?8?5expect@
CONST	SEGMENT
??_C@_0CC@FKLKCEIP@xmlFAParseCharClass?3?5?8?$FN?8?5expect@ DB 'xmlFAPars'
	DB	'eCharClass: '']'' expected', 00H		; `string'
CONST	ENDS
;	COMDAT ??_C@_0BM@FJAEMPFO@charClassExpr?3?5?8?$FN?8?5expected@
CONST	SEGMENT
??_C@_0BM@FJAEMPFO@charClassExpr?3?5?8?$FN?8?5expected@ DB 'charClassExpr'
	DB	': '']'' expected', 00H			; `string'
CONST	ENDS
;	COMDAT ??_C@_0CG@BKADGONK@End?5of?5range?5is?5before?5start?5of@
CONST	SEGMENT
??_C@_0CG@BKADGONK@End?5of?5range?5is?5before?5start?5of@ DB 'End of rang'
	DB	'e is before start of range', 00H		; `string'
CONST	ENDS
;	COMDAT ??_C@_0CC@JHFKDBIP@Expecting?5the?5end?5of?5a?5char?5ran@
CONST	SEGMENT
??_C@_0CC@JHFKDBIP@Expecting?5the?5end?5of?5a?5char?5ran@ DB 'Expecting t'
	DB	'he end of a char range', 00H		; `string'
CONST	ENDS
;	COMDAT ??_C@_0BH@LOJMKNAD@Expecting?5a?5char?5range@
CONST	SEGMENT
??_C@_0BH@LOJMKNAD@Expecting?5a?5char?5range@ DB 'Expecting a char range', 00H ; `string'
CONST	ENDS
;	COMDAT ??_C@_0BF@HOMDEKLG@Invalid?5escape?5value@
CONST	SEGMENT
??_C@_0BF@HOMDEKLG@Invalid?5escape?5value@ DB 'Invalid escape value', 00H ; `string'
CONST	ENDS
;	COMDAT ??_C@_0O@NKKGCCKG@Expecting?5?8?$FN?8@
CONST	SEGMENT
??_C@_0O@NKKGCCKG@Expecting?5?8?$FN?8@ DB 'Expecting '']''', 00H ; `string'
CONST	ENDS
;	COMDAT ??_C@_0CP@BDPLJNDH@Wrong?5escape?5sequence?0?5misuse?5o@
CONST	SEGMENT
??_C@_0CP@BDPLJNDH@Wrong?5escape?5sequence?0?5misuse?5o@ DB 'Wrong escape'
	DB	' sequence, misuse of character ''\''', 00H	; `string'
CONST	ENDS
;	COMDAT ??_C@_0O@OCOLGEEG@Expecting?5?8?$HN?8@
CONST	SEGMENT
??_C@_0O@OCOLGEEG@Expecting?5?8?$HN?8@ DB 'Expecting ''}''', 00H ; `string'
CONST	ENDS
;	COMDAT ??_C@_0O@OGGGBIPE@Expecting?5?8?$HL?8@
CONST	SEGMENT
??_C@_0O@OGGGBIPE@Expecting?5?8?$HL?8@ DB 'Expecting ''{''', 00H ; `string'
CONST	ENDS
;	COMDAT ??_C@_0BO@BOFONOMH@Escaped?5sequence?3?5expecting?5?2@
CONST	SEGMENT
??_C@_0BO@BOFONOMH@Escaped?5sequence?3?5expecting?5?2@ DB 'Escaped sequen'
	DB	'ce: expecting \', 00H			; `string'
CONST	ENDS
;	COMDAT ??_C@_0BG@ECFAFFBF@Unknown?5char?5property@
CONST	SEGMENT
??_C@_0BG@ECFAFFBF@Unknown?5char?5property@ DB 'Unknown char property', 00H ; `string'
CONST	ENDS
;	COMDAT ??_C@_0BA@KPLOEDJN@IsXXXX?5expected@
CONST	SEGMENT
??_C@_0BA@KPLOEDJN@IsXXXX?5expected@ DB 'IsXXXX expected', 00H ; `string'
CONST	ENDS
;	COMDAT ??_C@_0BO@MDEMDPPE@Unimplemented?5block?5at?5?$CFs?3?$CFd?6@
CONST	SEGMENT
??_C@_0BO@MDEMDPPE@Unimplemented?5block?5at?5?$CFs?3?$CFd?6@ DB 'Unimplem'
	DB	'ented block at %s:%d', 0aH, 00H		; `string'
CONST	ENDS
;	COMDAT ??_C@_0GL@GCGJPEPF@c?3?2users?2dag?2documents?2_clients@
CONST	SEGMENT
??_C@_0GL@GCGJPEPF@c?3?2users?2dag?2documents?2_clients@ DB 'c:\users\dag'
	DB	'\documents\_clients\codeproject authors group\windows on arm\'
	DB	'libxml2\libxml2-2.9.9\xmlregexp.c', 00H	; `string'
CONST	ENDS
;	COMDAT ??_C@_0BF@FEDDAGIG@pushing?5input?5string@
CONST	SEGMENT
??_C@_0BF@FEDDAGIG@pushing?5input?5string@ DB 'pushing input string', 00H ; `string'
CONST	ENDS
;	COMDAT ??_C@_0BL@LMPHHOAL@creating?5execution?5context@
CONST	SEGMENT
??_C@_0BL@LMPHHOAL@creating?5execution?5context@ DB 'creating execution c'
	DB	'ontext', 00H				; `string'
CONST	ENDS
;	COMDAT ??_C@_0CE@CMNJHAKA@epsilon?5transition?5left?5at?5runt@
CONST	SEGMENT
??_C@_0CE@CMNJHAKA@epsilon?5transition?5left?5at?5runt@ DB 'epsilon trans'
	DB	'ition left at runtime', 0aH, 00H		; `string'
CONST	ENDS
;	COMDAT ??_C@_0P@IJHGICCJ@running?5regexp@
CONST	SEGMENT
??_C@_0P@IJHGICCJ@running?5regexp@ DB 'running regexp', 00H ; `string'
CONST	ENDS
;	COMDAT ??_C@_0BN@CPBANDJM@exec?5save?3?5allocation?5failed@
CONST	SEGMENT
??_C@_0BN@CPBANDJM@exec?5save?3?5allocation?5failed@ DB 'exec save: alloc'
	DB	'ation failed', 00H				; `string'
CONST	ENDS
;	COMDAT ??_C@_0O@PEGCJGLF@saving?5regexp@
CONST	SEGMENT
??_C@_0O@PEGCJGLF@saving?5regexp@ DB 'saving regexp', 00H ; `string'
CONST	ENDS
;	COMDAT ??_C@_0BJ@POCEJEIB@TODO?3?5XML_REGEXP_STRING?6@
CONST	SEGMENT
??_C@_0BJ@POCEJEIB@TODO?3?5XML_REGEXP_STRING?6@ DB 'TODO: XML_REGEXP_STRI'
	DB	'NG', 0aH, 00H				; `string'
CONST	ENDS
;	COMDAT ??_C@_0CB@LMLDANHN@genrate?5transition?3?5atom?5?$DN?$DN?5NUL@
CONST	SEGMENT
??_C@_0CB@LMLDANHN@genrate?5transition?3?5atom?5?$DN?$DN?5NUL@ DB 'genrat'
	DB	'e transition: atom == NULL', 00H		; `string'
CONST	ENDS
;	COMDAT ??_C@_0N@NHLBLLB@adding?5state@
CONST	SEGMENT
??_C@_0N@NHLBLLB@adding?5state@ DB 'adding state', 00H	; `string'
CONST	ENDS
;	COMDAT ??_C@_0BK@PPLNMJBI@add?5state?3?5target?5is?5NULL@
CONST	SEGMENT
??_C@_0BK@PPLNMJBI@add?5state?3?5target?5is?5NULL@ DB 'add state: target '
	DB	'is NULL', 00H				; `string'
CONST	ENDS
;	COMDAT ??_C@_0BJ@KPILLGIF@add?5state?3?5state?5is?5NULL@
CONST	SEGMENT
??_C@_0BJ@KPILLGIF@add?5state?3?5state?5is?5NULL@ DB 'add state: state is'
	DB	' NULL', 00H					; `string'
CONST	ENDS
;	COMDAT ??_C@_0BC@FHJHIDDF@adding?5transition@
CONST	SEGMENT
??_C@_0BC@FHJHIDDF@adding?5transition@ DB 'adding transition', 00H ; `string'
CONST	ENDS
;	COMDAT ??_C@_0N@PMKNEBIB@pushing?5atom@
CONST	SEGMENT
??_C@_0N@PMKNEBIB@pushing?5atom@ DB 'pushing atom', 00H	; `string'
CONST	ENDS
;	COMDAT ??_C@_0BI@LIIKMBAE@atom?5push?3?5atom?5is?5NULL@
CONST	SEGMENT
??_C@_0BI@LIIKMBAE@atom?5push?3?5atom?5is?5NULL@ DB 'atom push: atom is N'
	DB	'ULL', 00H					; `string'
CONST	ENDS
;	COMDAT ??_C@_0BD@OEINICOI@allocating?5counter@
CONST	SEGMENT
??_C@_0BD@OEINICOI@allocating?5counter@ DB 'allocating counter', 00H ; `string'
CONST	ENDS
;	COMDAT ??_C@_0O@INOJCFAI@adding?5ranges@
CONST	SEGMENT
??_C@_0O@INOJCFAI@adding?5ranges@ DB 'adding ranges', 00H ; `string'
CONST	ENDS
;	COMDAT ??_C@_0BO@PJJILLLG@add?5range?3?5atom?5is?5not?5ranges@
CONST	SEGMENT
??_C@_0BO@PJJILLLG@add?5range?3?5atom?5is?5not?5ranges@ DB 'add range: at'
	DB	'om is not ranges', 00H			; `string'
CONST	ENDS
;	COMDAT ??_C@_0BI@MEBKNK@add?5range?3?5atom?5is?5NULL@
CONST	SEGMENT
??_C@_0BI@MEBKNK@add?5range?3?5atom?5is?5NULL@ DB 'add range: atom is NUL'
	DB	'L', 00H					; `string'
CONST	ENDS
;	COMDAT ??_C@_0BF@NHMHHIIL@?$CFd?0?5?$CFd?5transitions?3?6@
CONST	SEGMENT
??_C@_0BF@NHMHHIIL@?$CFd?0?5?$CFd?5transitions?3?6@ DB '%d, %d transition'
	DB	's:', 0aH, 00H				; `string'
CONST	ENDS
;	COMDAT ??_C@_06EFHALCBA@FINAL?5@
CONST	SEGMENT
??_C@_06EFHALCBA@FINAL?5@ DB 'FINAL ', 00H		; `string'
CONST	ENDS
;	COMDAT ??_C@_06BNBHINFE@START?5@
CONST	SEGMENT
??_C@_06BNBHINFE@START?5@ DB 'START ', 00H		; `string'
CONST	ENDS
;	COMDAT ??_C@_08NOIFNCJM@?5state?3?5@
CONST	SEGMENT
??_C@_08NOIFNCJM@?5state?3?5@ DB ' state: ', 00H	; `string'
CONST	ENDS
;	COMDAT ??_C@_0BA@DDAHGLMD@atom?5?$CFd?0?5to?5?$CFd?6@
CONST	SEGMENT
??_C@_0BA@DDAHGLMD@atom?5?$CFd?0?5to?5?$CFd?6@ DB 'atom %d, to %d', 0aH, 00H ; `string'
CONST	ENDS
;	COMDAT ??_C@_08JNAFCHHG@char?5?$CFc?5@
CONST	SEGMENT
??_C@_08JNAFCHHG@char?5?$CFc?5@ DB 'char %c ', 00H	; `string'
CONST	ENDS
;	COMDAT ??_C@_0P@BEFDCDEN@epsilon?5to?5?$CFd?6@
CONST	SEGMENT
??_C@_0P@BEFDCDEN@epsilon?5to?5?$CFd?6@ DB 'epsilon to %d', 0aH, 00H ; `string'
CONST	ENDS
;	COMDAT ??_C@_0BB@LHHOLMKP@count?5based?5?$CFd?0?5@
CONST	SEGMENT
??_C@_0BB@LHHOLMKP@count?5based?5?$CFd?0?5@ DB 'count based %d, ', 00H ; `string'
CONST	ENDS
;	COMDAT ??_C@_0BB@CPMJDJHN@all?5transition?0?5@
CONST	SEGMENT
??_C@_0BB@CPMJDJHN@all?5transition?0?5@ DB 'all transition, ', 00H ; `string'
CONST	ENDS
;	COMDAT ??_C@_0N@NIIDMCG@counted?5?$CFd?0?5@
CONST	SEGMENT
??_C@_0N@NIIDMCG@counted?5?$CFd?0?5@ DB 'counted %d, ', 00H ; `string'
CONST	ENDS
;	COMDAT ??_C@_0BC@EKCPHBCA@not?5determinist?0?5@
CONST	SEGMENT
??_C@_0BC@EKCPHBCA@not?5determinist?0?5@ DB 'not determinist, ', 00H ; `string'
CONST	ENDS
;	COMDAT ??_C@_0BH@PJNPIGKD@last?5not?5determinist?0?5@
CONST	SEGMENT
??_C@_0BH@PJNPIGKD@last?5not?5determinist?0?5@ DB 'last not determinist, '
	DB	00H						; `string'
CONST	ENDS
;	COMDAT ??_C@_08IDDAKHFP@removed?6@
CONST	SEGMENT
??_C@_08IDDAKHFP@removed?6@ DB 'removed', 0aH, 00H	; `string'
CONST	ENDS
;	COMDAT ??_C@_09KCGMBGNH@?5?5trans?3?5@
CONST	SEGMENT
??_C@_09KCGMBGNH@?5?5trans?3?5@ DB '  trans: ', 00H	; `string'
CONST	ENDS
;	COMDAT ??_C@_01EEMJAFIK@?6@
CONST	SEGMENT
??_C@_01EEMJAFIK@?6@ DB 0aH, 00H			; `string'
CONST	ENDS
;	COMDAT ??_C@_0BB@GBMGKEL@start?5?$CFd?5end?5?$CFd?6@
CONST	SEGMENT
??_C@_0BB@GBMGKEL@start?5?$CFd?5end?5?$CFd?6@ DB 'start %d end %d', 0aH, 00H ; `string'
CONST	ENDS
;	COMDAT ??_C@_0M@BCDCHBAM@?$CFd?5entries?6@
CONST	SEGMENT
??_C@_0M@BCDCHBAM@?$CFd?5entries?6@ DB '%d entries', 0aH, 00H ; `string'
CONST	ENDS
;	COMDAT ??_C@_08PCGOOLFO@char?5?$CFc?6@
CONST	SEGMENT
??_C@_08PCGOOLFO@char?5?$CFc?6@ DB 'char %c', 0aH, 00H	; `string'
CONST	ENDS
;	COMDAT ??_C@_05IMLJLABD@?8?$CFs?8?5@
CONST	SEGMENT
??_C@_05IMLJLABD@?8?$CFs?8?5@ DB '''%s'' ', 00H		; `string'
CONST	ENDS
;	COMDAT ??_C@_06BIJEIIBB@?$CFd?9?$CFd?5@
CONST	SEGMENT
??_C@_06BIJEIIBB@?$CFd?9?$CFd?5@ DB '%d-%d ', 00H	; `string'
CONST	ENDS
;	COMDAT ??_C@_04LKOGMCLF@not?5@
CONST	SEGMENT
??_C@_04LKOGMCLF@not?5@ DB 'not ', 00H			; `string'
CONST	ENDS
;	COMDAT ??_C@_05NJDBAOFA@NULL?6@
CONST	SEGMENT
??_C@_05NJDBAOFA@NULL?6@ DB 'NULL', 0aH, 00H		; `string'
CONST	ENDS
;	COMDAT ??_C@_07LAIPMBOA@?5atom?3?5@
CONST	SEGMENT
??_C@_07LAIPMBOA@?5atom?3?5@ DB ' atom: ', 00H		; `string'
CONST	ENDS
;	COMDAT ??_C@_08BNCIEJGK@?$CFc?5?9?5?$CFc?6@
CONST	SEGMENT
??_C@_08BNCIEJGK@?$CFc?5?9?5?$CFc?6@ DB '%c - %c', 0aH, 00H ; `string'
CONST	ENDS
;	COMDAT ??_C@_09KDBNABJA@negative?5@
CONST	SEGMENT
??_C@_09KDBNABJA@negative?5@ DB 'negative ', 00H	; `string'
CONST	ENDS
;	COMDAT ??_C@_09LLABEBOE@?5?5range?3?5@
CONST	SEGMENT
??_C@_09LLABEBOE@?5?5range?3?5@ DB '  range: ', 00H	; `string'
CONST	ENDS
;	COMDAT ??_C@_04DIDGAIEC@all?5@
CONST	SEGMENT
??_C@_04DIDGAIEC@all?5@ DB 'all ', 00H			; `string'
CONST	ENDS
;	COMDAT ??_C@_09EPCGBNDN@onceonly?5@
CONST	SEGMENT
??_C@_09EPCGBNDN@onceonly?5@ DB 'onceonly ', 00H	; `string'
CONST	ENDS
;	COMDAT ??_C@_06IBKHBGID@range?5@
CONST	SEGMENT
??_C@_06IBKHBGID@range?5@ DB 'range ', 00H		; `string'
CONST	ENDS
;	COMDAT ??_C@_02KBCCKLEO@?$CL?5@
CONST	SEGMENT
??_C@_02KBCCKLEO@?$CL?5@ DB '+ ', 00H			; `string'
CONST	ENDS
;	COMDAT ??_C@_02KAOAMBHJ@?$CK?5@
CONST	SEGMENT
??_C@_02KAOAMBHJ@?$CK?5@ DB '* ', 00H			; `string'
CONST	ENDS
;	COMDAT ??_C@_02LKANKAOC@?$DP?5@
CONST	SEGMENT
??_C@_02LKANKAOC@?$DP?5@ DB '? ', 00H			; `string'
CONST	ENDS
;	COMDAT ??_C@_05GDJGFPHL@once?5@
CONST	SEGMENT
??_C@_05GDJGFPHL@once?5@ DB 'once ', 00H		; `string'
CONST	ENDS
;	COMDAT ??_C@_06HDNEPAAO@BLOCK?5@
CONST	SEGMENT
??_C@_06HDNEPAAO@BLOCK?5@ DB 'BLOCK ', 00H		; `string'
CONST	ENDS
;	COMDAT ??_C@_09NECDEFOF@OTHER_NA?5@
CONST	SEGMENT
??_C@_09NECDEFOF@OTHER_NA?5@ DB 'OTHER_NA ', 00H	; `string'
CONST	ENDS
;	COMDAT ??_C@_0P@DEHNHHA@OTHER_PRIVATE?5@
CONST	SEGMENT
??_C@_0P@DEHNHHA@OTHER_PRIVATE?5@ DB 'OTHER_PRIVATE ', 00H ; `string'
CONST	ENDS
;	COMDAT ??_C@_0O@BACNFCMB@OTHER_FORMAT?5@
CONST	SEGMENT
??_C@_0O@BACNFCMB@OTHER_FORMAT?5@ DB 'OTHER_FORMAT ', 00H ; `string'
CONST	ENDS
;	COMDAT ??_C@_0P@FGFCBEPI@OTHER_CONTROL?5@
CONST	SEGMENT
??_C@_0P@FGFCBEPI@OTHER_CONTROL?5@ DB 'OTHER_CONTROL ', 00H ; `string'
CONST	ENDS
;	COMDAT ??_C@_06HJDKAKAL@OTHER?5@
CONST	SEGMENT
??_C@_06HJDKAKAL@OTHER?5@ DB 'OTHER ', 00H		; `string'
CONST	ENDS
;	COMDAT ??_C@_0P@LKPECLCL@SYMBOL_OTHERS?5@
CONST	SEGMENT
??_C@_0P@LKPECLCL@SYMBOL_OTHERS?5@ DB 'SYMBOL_OTHERS ', 00H ; `string'
CONST	ENDS
;	COMDAT ??_C@_0BB@CEPANLJE@SYMBOL_MODIFIER?5@
CONST	SEGMENT
??_C@_0BB@CEPANLJE@SYMBOL_MODIFIER?5@ DB 'SYMBOL_MODIFIER ', 00H ; `string'
CONST	ENDS
;	COMDAT ??_C@_0BB@MBFAMNND@SYMBOL_CURRENCY?5@
CONST	SEGMENT
??_C@_0BB@MBFAMNND@SYMBOL_CURRENCY?5@ DB 'SYMBOL_CURRENCY ', 00H ; `string'
CONST	ENDS
;	COMDAT ??_C@_0N@LBDJILGE@SYMBOL_MATH?5@
CONST	SEGMENT
??_C@_0N@LBDJILGE@SYMBOL_MATH?5@ DB 'SYMBOL_MATH ', 00H	; `string'
CONST	ENDS
;	COMDAT ??_C@_07EJLPHCCB@SYMBOL?5@
CONST	SEGMENT
??_C@_07EJLPHCCB@SYMBOL?5@ DB 'SYMBOL ', 00H		; `string'
CONST	ENDS
;	COMDAT ??_C@_0M@DGHGIFFK@SEPAR_PARA?5@
CONST	SEGMENT
??_C@_0M@DGHGIFFK@SEPAR_PARA?5@ DB 'SEPAR_PARA ', 00H	; `string'
CONST	ENDS
;	COMDAT ??_C@_0M@GPNEEMIA@SEPAR_LINE?5@
CONST	SEGMENT
??_C@_0M@GPNEEMIA@SEPAR_LINE?5@ DB 'SEPAR_LINE ', 00H	; `string'
CONST	ENDS
;	COMDAT ??_C@_0N@CEDLANHM@SEPAR_SPACE?5@
CONST	SEGMENT
??_C@_0N@CEDLANHM@SEPAR_SPACE?5@ DB 'SEPAR_SPACE ', 00H	; `string'
CONST	ENDS
;	COMDAT ??_C@_06MODMGGJL@SEPAR?5@
CONST	SEGMENT
??_C@_06MODMGGJL@SEPAR?5@ DB 'SEPAR ', 00H		; `string'
CONST	ENDS
;	COMDAT ??_C@_0O@FIEDELON@PUNCT_OTHERS?5@
CONST	SEGMENT
??_C@_0O@FIEDELON@PUNCT_OTHERS?5@ DB 'PUNCT_OTHERS ', 00H ; `string'
CONST	ENDS
;	COMDAT ??_C@_0BA@EBCHGEDF@PUNCT_FINQUOTE?5@
CONST	SEGMENT
??_C@_0BA@EBCHGEDF@PUNCT_FINQUOTE?5@ DB 'PUNCT_FINQUOTE ', 00H ; `string'
CONST	ENDS
;	COMDAT ??_C@_0BB@HJFINBLL@PUNCT_INITQUOTE?5@
CONST	SEGMENT
??_C@_0BB@HJFINBLL@PUNCT_INITQUOTE?5@ DB 'PUNCT_INITQUOTE ', 00H ; `string'
CONST	ENDS
;	COMDAT ??_C@_0N@OCGFHNOE@PUNCT_CLOSE?5@
CONST	SEGMENT
??_C@_0N@OCGFHNOE@PUNCT_CLOSE?5@ DB 'PUNCT_CLOSE ', 00H	; `string'
CONST	ENDS
;	COMDAT ??_C@_0M@FHHCCFFM@PUNCT_OPEN?5@
CONST	SEGMENT
??_C@_0M@FHHCCFFM@PUNCT_OPEN?5@ DB 'PUNCT_OPEN ', 00H	; `string'
CONST	ENDS
;	COMDAT ??_C@_0M@BBMKBPFM@PUNCT_DASH?5@
CONST	SEGMENT
??_C@_0M@BBMKBPFM@PUNCT_DASH?5@ DB 'PUNCT_DASH ', 00H	; `string'
CONST	ENDS
;	COMDAT ??_C@_0BB@DCHADIII@PUNCT_CONNECTOR?5@
CONST	SEGMENT
??_C@_0BB@DCHADIII@PUNCT_CONNECTOR?5@ DB 'PUNCT_CONNECTOR ', 00H ; `string'
CONST	ENDS
;	COMDAT ??_C@_06INFGODEH@PUNCT?5@
CONST	SEGMENT
??_C@_06INFGODEH@PUNCT?5@ DB 'PUNCT ', 00H		; `string'
CONST	ENDS
;	COMDAT ??_C@_0P@PDKFLOJK@NUMBER_OTHERS?5@
CONST	SEGMENT
??_C@_0P@PDKFLOJK@NUMBER_OTHERS?5@ DB 'NUMBER_OTHERS ', 00H ; `string'
CONST	ENDS
;	COMDAT ??_C@_0P@FJBLFHMA@NUMBER_LETTER?5@
CONST	SEGMENT
??_C@_0P@FJBLFHMA@NUMBER_LETTER?5@ DB 'NUMBER_LETTER ', 00H ; `string'
CONST	ENDS
;	COMDAT ??_C@_0BA@JLEBGNKM@NUMBER_DECIMAL?5@
CONST	SEGMENT
??_C@_0BA@JLEBGNKM@NUMBER_DECIMAL?5@ DB 'NUMBER_DECIMAL ', 00H ; `string'
CONST	ENDS
;	COMDAT ??_C@_07BAKEFCLB@NUMBER?5@
CONST	SEGMENT
??_C@_07BAKEFCLB@NUMBER?5@ DB 'NUMBER ', 00H		; `string'
CONST	ENDS
;	COMDAT ??_C@_0BA@NNNPPLBP@MARK_ENCLOSING?5@
CONST	SEGMENT
??_C@_0BA@NNNPPLBP@MARK_ENCLOSING?5@ DB 'MARK_ENCLOSING ', 00H ; `string'
CONST	ENDS
;	COMDAT ??_C@_0BF@GJKDPMF@MARK_SPACECOMBINING?5@
CONST	SEGMENT
??_C@_0BF@GJKDPMF@MARK_SPACECOMBINING?5@ DB 'MARK_SPACECOMBINING ', 00H ; `string'
CONST	ENDS
;	COMDAT ??_C@_0BB@FIDLEIEL@MARK_NONSPACING?5@
CONST	SEGMENT
??_C@_0BB@FIDLEIEL@MARK_NONSPACING?5@ DB 'MARK_NONSPACING ', 00H ; `string'
CONST	ENDS
;	COMDAT ??_C@_05BACHLHLN@MARK?5@
CONST	SEGMENT
??_C@_05BACHLHLN@MARK?5@ DB 'MARK ', 00H		; `string'
CONST	ENDS
;	COMDAT ??_C@_0P@ONCGNHEJ@LETTER_OTHERS?5@
CONST	SEGMENT
??_C@_0P@ONCGNHEJ@LETTER_OTHERS?5@ DB 'LETTER_OTHERS ', 00H ; `string'
CONST	ENDS
;	COMDAT ??_C@_0BB@MHDADLFE@LETTER_MODIFIER?5@
CONST	SEGMENT
??_C@_0BB@MHDADLFE@LETTER_MODIFIER?5@ DB 'LETTER_MODIFIER ', 00H ; `string'
CONST	ENDS
;	COMDAT ??_C@_0BC@FGJDLGPN@LETTER_TITLECASE?5@
CONST	SEGMENT
??_C@_0BC@FGJDLGPN@LETTER_TITLECASE?5@ DB 'LETTER_TITLECASE ', 00H ; `string'
CONST	ENDS
;	COMDAT ??_C@_0BC@MLADGGJK@LETTER_LOWERCASE?5@
CONST	SEGMENT
??_C@_0BC@MLADGGJK@LETTER_LOWERCASE?5@ DB 'LETTER_LOWERCASE ', 00H ; `string'
CONST	ENDS
;	COMDAT ??_C@_0BC@KMHMCLHI@LETTER_UPPERCASE?5@
CONST	SEGMENT
??_C@_0BC@KMHMCLHI@LETTER_UPPERCASE?5@ DB 'LETTER_UPPERCASE ', 00H ; `string'
CONST	ENDS
;	COMDAT ??_C@_07POCGPIHD@LETTER?5@
CONST	SEGMENT
??_C@_07POCGPIHD@LETTER?5@ DB 'LETTER ', 00H		; `string'
CONST	ENDS
;	COMDAT ??_C@_0N@MCPFODOD@notrealchar?5@
CONST	SEGMENT
??_C@_0N@MCPFODOD@notrealchar?5@ DB 'notrealchar ', 00H	; `string'
CONST	ENDS
;	COMDAT ??_C@_09MOCDMJPB@realchar?5@
CONST	SEGMENT
??_C@_09MOCDMJPB@realchar?5@ DB 'realchar ', 00H	; `string'
CONST	ENDS
;	COMDAT ??_C@_0M@EDJHICHL@notdecimal?5@
CONST	SEGMENT
??_C@_0M@EDJHICHL@notdecimal?5@ DB 'notdecimal ', 00H	; `string'
CONST	ENDS
;	COMDAT ??_C@_08CDKGKILA@decimal?5@
CONST	SEGMENT
??_C@_08CDKGKILA@decimal?5@ DB 'decimal ', 00H		; `string'
CONST	ENDS
;	COMDAT ??_C@_0N@GALMIDBF@notnamechar?5@
CONST	SEGMENT
??_C@_0N@GALMIDBF@notnamechar?5@ DB 'notnamechar ', 00H	; `string'
CONST	ENDS
;	COMDAT ??_C@_09GMGKKJAH@namechar?5@
CONST	SEGMENT
??_C@_09GMGKKJAH@namechar?5@ DB 'namechar ', 00H	; `string'
CONST	ENDS
;	COMDAT ??_C@_0N@PKALLFNP@notinitname?5@
CONST	SEGMENT
??_C@_0N@PKALLFNP@notinitname?5@ DB 'notinitname ', 00H	; `string'
CONST	ENDS
;	COMDAT ??_C@_09PGNNJPMN@initname?5@
CONST	SEGMENT
??_C@_09PGNNJPMN@initname?5@ DB 'initname ', 00H	; `string'
CONST	ENDS
;	COMDAT ??_C@_09PIGAJOFL@notspace?5@
CONST	SEGMENT
??_C@_09PIGAJOFL@notspace?5@ DB 'notspace ', 00H	; `string'
CONST	ENDS
;	COMDAT ??_C@_09IFBFMEEE@anyspace?5@
CONST	SEGMENT
??_C@_09IFBFMEEE@anyspace?5@ DB 'anyspace ', 00H	; `string'
CONST	ENDS
;	COMDAT ??_C@_08IIDGBAEF@anychar?5@
CONST	SEGMENT
??_C@_08IIDGBAEF@anychar?5@ DB 'anychar ', 00H		; `string'
CONST	ENDS
;	COMDAT ??_C@_07HBAIICBM@string?5@
CONST	SEGMENT
??_C@_07HBAIICBM@string?5@ DB 'string ', 00H		; `string'
CONST	ENDS
;	COMDAT ??_C@_08BABENLJO@subexpr?5@
CONST	SEGMENT
??_C@_08BABENLJO@subexpr?5@ DB 'subexpr ', 00H		; `string'
CONST	ENDS
;	COMDAT ??_C@_07IPEOMBMH@ranges?5@
CONST	SEGMENT
??_C@_07IPEOMBMH@ranges?5@ DB 'ranges ', 00H		; `string'
CONST	ENDS
;	COMDAT ??_C@_08DFHMJFEK@charval?5@
CONST	SEGMENT
??_C@_08DFHMJFEK@charval?5@ DB 'charval ', 00H		; `string'
CONST	ENDS
;	COMDAT ??_C@_08LJGDJFJP@epsilon?5@
CONST	SEGMENT
??_C@_08LJGDJFJP@epsilon?5@ DB 'epsilon ', 00H		; `string'
CONST	ENDS
;	COMDAT ??_C@_0BB@CKELLPME@allocating?5state@
CONST	SEGMENT
??_C@_0BB@CKELLPME@allocating?5state@ DB 'allocating state', 00H ; `string'
CONST	ENDS
;	COMDAT ??_C@_0N@ECMBACNP@copying?5atom@
CONST	SEGMENT
??_C@_0N@ECMBACNP@copying?5atom@ DB 'copying atom', 00H	; `string'
CONST	ENDS
;	COMDAT ??_C@_0BA@JCPCIFNM@allocating?5atom@
CONST	SEGMENT
??_C@_0BA@JCPCIFNM@allocating?5atom@ DB 'allocating atom', 00H ; `string'
CONST	ENDS
;	COMDAT ??_C@_0BB@PBEHJOM@allocating?5range@
CONST	SEGMENT
??_C@_0BB@PBEHJOM@allocating?5range@ DB 'allocating range', 00H ; `string'
CONST	ENDS
;	COMDAT ??_C@_0BB@FJPDMDM@compiling?5regexp@
CONST	SEGMENT
??_C@_0BB@FJPDMDM@compiling?5regexp@ DB 'compiling regexp', 00H ; `string'
CONST	ENDS
;	COMDAT ??_C@_0BH@CFFLONMP@failed?5to?5compile?3?5?$CFs?6@
CONST	SEGMENT
??_C@_0BH@CFFLONMP@failed?5to?5compile?3?5?$CFs?6@ DB 'failed to compile:'
	DB	' %s', 0aH, 00H				; `string'
CONST	ENDS
;	COMDAT ??_C@_0BP@DJFHNAOK@Memory?5allocation?5failed?5?3?5?$CFs?6@
CONST	SEGMENT
??_C@_0BP@DJFHNAOK@Memory?5allocation?5failed?5?3?5?$CFs?6@ DB 'Memory al'
	DB	'location failed : %s', 0aH, 00H		; `string'
CONST	ENDS
; Function compile flags: /Odt
;	COMDAT __JustMyCode_Default
_TEXT	SEGMENT
__JustMyCode_Default PROC				; COMDAT
	push	ebp
	mov	ebp, esp
	pop	ebp
	ret	0
__JustMyCode_Default ENDP
_TEXT	ENDS
; Function compile flags: /Odtp /RTCsu
; File c:\users\dag\documents\_clients\codeproject authors group\windows on arm\libxml2\libxml2-2.9.9\xmlregexp.c
;	COMDAT _xmlExpDumpInt
_TEXT	SEGMENT
tv70 = -56						; size = 4
_rep$1 = -48						; size = 40
_c$ = -4						; size = 4
_buf$ = 8						; size = 4
_expr$ = 12						; size = 4
_glob$ = 16						; size = 4
_xmlExpDumpInt PROC					; COMDAT

; 8043 : xmlExpDumpInt(xmlBufferPtr buf, xmlExpNodePtr expr, int glob) {

	push	ebp
	mov	ebp, esp
	sub	esp, 56					; 00000038H
	push	esi
	push	edi
	lea	edi, DWORD PTR [ebp-56]
	mov	ecx, 14					; 0000000eH
	mov	eax, -858993460				; ccccccccH
	rep stosd
	mov	ecx, OFFSET __F6DD4902_xmlregexp@c
	call	@__CheckForDebuggerJustMyCode@4

; 8044 :     xmlExpNodePtr c;
; 8045 : 
; 8046 :     if (expr == NULL) return;

	cmp	DWORD PTR _expr$[ebp], 0
	jne	SHORT $LN4@xmlExpDump
	jmp	$LN1@xmlExpDump
$LN4@xmlExpDump:

; 8047 :     if (glob) xmlBufferWriteChar(buf, "(");

	cmp	DWORD PTR _glob$[ebp], 0
	je	SHORT $LN5@xmlExpDump
	push	OFFSET ??_C@_01ODHLEDKK@?$CI@
	mov	eax, DWORD PTR _buf$[ebp]
	push	eax
	call	_xmlBufferWriteChar
	add	esp, 8
$LN5@xmlExpDump:

; 8048 :     switch (expr->type) {

	mov	ecx, DWORD PTR _expr$[ebp]
	movzx	edx, BYTE PTR [ecx]
	mov	DWORD PTR tv70[ebp], edx
	cmp	DWORD PTR tv70[ebp], 5
	ja	$LN37@xmlExpDump
	mov	eax, DWORD PTR tv70[ebp]
	jmp	DWORD PTR $LN43@xmlExpDump[eax*4]
$LN6@xmlExpDump:

; 8049 :         case XML_EXP_EMPTY:
; 8050 : 	    xmlBufferWriteChar(buf, "empty");

	push	OFFSET ??_C@_05LBJMNBOG@empty@
	mov	ecx, DWORD PTR _buf$[ebp]
	push	ecx
	call	_xmlBufferWriteChar
	add	esp, 8

; 8051 : 	    break;

	jmp	$LN2@xmlExpDump
$LN7@xmlExpDump:

; 8052 :         case XML_EXP_FORBID:
; 8053 : 	    xmlBufferWriteChar(buf, "forbidden");

	push	OFFSET ??_C@_09PDGFMGED@forbidden@
	mov	edx, DWORD PTR _buf$[ebp]
	push	edx
	call	_xmlBufferWriteChar
	add	esp, 8

; 8054 : 	    break;

	jmp	$LN2@xmlExpDump
$LN8@xmlExpDump:

; 8055 :         case XML_EXP_ATOM:
; 8056 : 	    xmlBufferWriteCHAR(buf, expr->exp_str);

	mov	eax, DWORD PTR _expr$[ebp]
	mov	ecx, DWORD PTR [eax+20]
	push	ecx
	mov	edx, DWORD PTR _buf$[ebp]
	push	edx
	call	_xmlBufferWriteCHAR
	add	esp, 8

; 8057 : 	    break;

	jmp	$LN2@xmlExpDump
$LN9@xmlExpDump:

; 8058 :         case XML_EXP_SEQ:
; 8059 : 	    c = expr->exp_left;

	mov	eax, DWORD PTR _expr$[ebp]
	mov	ecx, DWORD PTR [eax+12]
	mov	DWORD PTR _c$[ebp], ecx

; 8060 : 	    if ((c->type == XML_EXP_SEQ) || (c->type == XML_EXP_OR))

	mov	edx, DWORD PTR _c$[ebp]
	movzx	eax, BYTE PTR [edx]
	cmp	eax, 3
	je	SHORT $LN12@xmlExpDump
	mov	ecx, DWORD PTR _c$[ebp]
	movzx	edx, BYTE PTR [ecx]
	cmp	edx, 4
	jne	SHORT $LN10@xmlExpDump
$LN12@xmlExpDump:

; 8061 : 	        xmlExpDumpInt(buf, c, 1);

	push	1
	mov	eax, DWORD PTR _c$[ebp]
	push	eax
	mov	ecx, DWORD PTR _buf$[ebp]
	push	ecx
	call	_xmlExpDumpInt
	add	esp, 12					; 0000000cH
	jmp	SHORT $LN11@xmlExpDump
$LN10@xmlExpDump:

; 8062 : 	    else
; 8063 : 	        xmlExpDumpInt(buf, c, 0);

	push	0
	mov	edx, DWORD PTR _c$[ebp]
	push	edx
	mov	eax, DWORD PTR _buf$[ebp]
	push	eax
	call	_xmlExpDumpInt
	add	esp, 12					; 0000000cH
$LN11@xmlExpDump:

; 8064 : 	    xmlBufferWriteChar(buf, " , ");

	push	OFFSET ??_C@_03NKFKBEPL@?5?0?5@
	mov	ecx, DWORD PTR _buf$[ebp]
	push	ecx
	call	_xmlBufferWriteChar
	add	esp, 8

; 8065 : 	    c = expr->exp_right;

	mov	edx, DWORD PTR _expr$[ebp]
	mov	eax, DWORD PTR [edx+20]
	mov	DWORD PTR _c$[ebp], eax

; 8066 : 	    if ((c->type == XML_EXP_SEQ) || (c->type == XML_EXP_OR))

	mov	ecx, DWORD PTR _c$[ebp]
	movzx	edx, BYTE PTR [ecx]
	cmp	edx, 3
	je	SHORT $LN15@xmlExpDump
	mov	eax, DWORD PTR _c$[ebp]
	movzx	ecx, BYTE PTR [eax]
	cmp	ecx, 4
	jne	SHORT $LN13@xmlExpDump
$LN15@xmlExpDump:

; 8067 : 	        xmlExpDumpInt(buf, c, 1);

	push	1
	mov	edx, DWORD PTR _c$[ebp]
	push	edx
	mov	eax, DWORD PTR _buf$[ebp]
	push	eax
	call	_xmlExpDumpInt
	add	esp, 12					; 0000000cH
	jmp	SHORT $LN14@xmlExpDump
$LN13@xmlExpDump:

; 8068 : 	    else
; 8069 : 	        xmlExpDumpInt(buf, c, 0);

	push	0
	mov	ecx, DWORD PTR _c$[ebp]
	push	ecx
	mov	edx, DWORD PTR _buf$[ebp]
	push	edx
	call	_xmlExpDumpInt
	add	esp, 12					; 0000000cH
$LN14@xmlExpDump:

; 8070 :             break;

	jmp	$LN2@xmlExpDump
$LN16@xmlExpDump:

; 8071 :         case XML_EXP_OR:
; 8072 : 	    c = expr->exp_left;

	mov	eax, DWORD PTR _expr$[ebp]
	mov	ecx, DWORD PTR [eax+12]
	mov	DWORD PTR _c$[ebp], ecx

; 8073 : 	    if ((c->type == XML_EXP_SEQ) || (c->type == XML_EXP_OR))

	mov	edx, DWORD PTR _c$[ebp]
	movzx	eax, BYTE PTR [edx]
	cmp	eax, 3
	je	SHORT $LN19@xmlExpDump
	mov	ecx, DWORD PTR _c$[ebp]
	movzx	edx, BYTE PTR [ecx]
	cmp	edx, 4
	jne	SHORT $LN17@xmlExpDump
$LN19@xmlExpDump:

; 8074 : 	        xmlExpDumpInt(buf, c, 1);

	push	1
	mov	eax, DWORD PTR _c$[ebp]
	push	eax
	mov	ecx, DWORD PTR _buf$[ebp]
	push	ecx
	call	_xmlExpDumpInt
	add	esp, 12					; 0000000cH
	jmp	SHORT $LN18@xmlExpDump
$LN17@xmlExpDump:

; 8075 : 	    else
; 8076 : 	        xmlExpDumpInt(buf, c, 0);

	push	0
	mov	edx, DWORD PTR _c$[ebp]
	push	edx
	mov	eax, DWORD PTR _buf$[ebp]
	push	eax
	call	_xmlExpDumpInt
	add	esp, 12					; 0000000cH
$LN18@xmlExpDump:

; 8077 : 	    xmlBufferWriteChar(buf, " | ");

	push	OFFSET ??_C@_03LGOGDKEL@?5?$HM?5@
	mov	ecx, DWORD PTR _buf$[ebp]
	push	ecx
	call	_xmlBufferWriteChar
	add	esp, 8

; 8078 : 	    c = expr->exp_right;

	mov	edx, DWORD PTR _expr$[ebp]
	mov	eax, DWORD PTR [edx+20]
	mov	DWORD PTR _c$[ebp], eax

; 8079 : 	    if ((c->type == XML_EXP_SEQ) || (c->type == XML_EXP_OR))

	mov	ecx, DWORD PTR _c$[ebp]
	movzx	edx, BYTE PTR [ecx]
	cmp	edx, 3
	je	SHORT $LN22@xmlExpDump
	mov	eax, DWORD PTR _c$[ebp]
	movzx	ecx, BYTE PTR [eax]
	cmp	ecx, 4
	jne	SHORT $LN20@xmlExpDump
$LN22@xmlExpDump:

; 8080 : 	        xmlExpDumpInt(buf, c, 1);

	push	1
	mov	edx, DWORD PTR _c$[ebp]
	push	edx
	mov	eax, DWORD PTR _buf$[ebp]
	push	eax
	call	_xmlExpDumpInt
	add	esp, 12					; 0000000cH
	jmp	SHORT $LN21@xmlExpDump
$LN20@xmlExpDump:

; 8081 : 	    else
; 8082 : 	        xmlExpDumpInt(buf, c, 0);

	push	0
	mov	ecx, DWORD PTR _c$[ebp]
	push	ecx
	mov	edx, DWORD PTR _buf$[ebp]
	push	edx
	call	_xmlExpDumpInt
	add	esp, 12					; 0000000cH
$LN21@xmlExpDump:

; 8083 :             break;

	jmp	$LN2@xmlExpDump
$LN23@xmlExpDump:

; 8084 :         case XML_EXP_COUNT: {
; 8085 : 	    char rep[40];
; 8086 : 
; 8087 : 	    c = expr->exp_left;

	mov	eax, DWORD PTR _expr$[ebp]
	mov	ecx, DWORD PTR [eax+12]
	mov	DWORD PTR _c$[ebp], ecx

; 8088 : 	    if ((c->type == XML_EXP_SEQ) || (c->type == XML_EXP_OR))

	mov	edx, DWORD PTR _c$[ebp]
	movzx	eax, BYTE PTR [edx]
	cmp	eax, 3
	je	SHORT $LN26@xmlExpDump
	mov	ecx, DWORD PTR _c$[ebp]
	movzx	edx, BYTE PTR [ecx]
	cmp	edx, 4
	jne	SHORT $LN24@xmlExpDump
$LN26@xmlExpDump:

; 8089 : 	        xmlExpDumpInt(buf, c, 1);

	push	1
	mov	eax, DWORD PTR _c$[ebp]
	push	eax
	mov	ecx, DWORD PTR _buf$[ebp]
	push	ecx
	call	_xmlExpDumpInt
	add	esp, 12					; 0000000cH
	jmp	SHORT $LN25@xmlExpDump
$LN24@xmlExpDump:

; 8090 : 	    else
; 8091 : 	        xmlExpDumpInt(buf, c, 0);

	push	0
	mov	edx, DWORD PTR _c$[ebp]
	push	edx
	mov	eax, DWORD PTR _buf$[ebp]
	push	eax
	call	_xmlExpDumpInt
	add	esp, 12					; 0000000cH
$LN25@xmlExpDump:

; 8092 : 	    if ((expr->exp_min == 0) && (expr->exp_max == 1)) {

	mov	ecx, DWORD PTR _expr$[ebp]
	cmp	DWORD PTR [ecx+20], 0
	jne	SHORT $LN27@xmlExpDump
	mov	edx, DWORD PTR _expr$[ebp]
	cmp	DWORD PTR [edx+24], 1
	jne	SHORT $LN27@xmlExpDump

; 8093 : 		rep[0] = '?';

	mov	eax, 1
	imul	ecx, eax, 0
	mov	BYTE PTR _rep$1[ebp+ecx], 63		; 0000003fH

; 8094 : 		rep[1] = 0;

	mov	edx, 1
	shl	edx, 0
	mov	BYTE PTR _rep$1[ebp+edx], 0
	jmp	$LN28@xmlExpDump
$LN27@xmlExpDump:

; 8095 : 	    } else if ((expr->exp_min == 0) && (expr->exp_max == -1)) {

	mov	eax, DWORD PTR _expr$[ebp]
	cmp	DWORD PTR [eax+20], 0
	jne	SHORT $LN29@xmlExpDump
	mov	ecx, DWORD PTR _expr$[ebp]
	cmp	DWORD PTR [ecx+24], -1
	jne	SHORT $LN29@xmlExpDump

; 8096 : 		rep[0] = '*';

	mov	edx, 1
	imul	eax, edx, 0
	mov	BYTE PTR _rep$1[ebp+eax], 42		; 0000002aH

; 8097 : 		rep[1] = 0;

	mov	ecx, 1
	shl	ecx, 0
	mov	BYTE PTR _rep$1[ebp+ecx], 0
	jmp	$LN28@xmlExpDump
$LN29@xmlExpDump:

; 8098 : 	    } else if ((expr->exp_min == 1) && (expr->exp_max == -1)) {

	mov	edx, DWORD PTR _expr$[ebp]
	cmp	DWORD PTR [edx+20], 1
	jne	SHORT $LN31@xmlExpDump
	mov	eax, DWORD PTR _expr$[ebp]
	cmp	DWORD PTR [eax+24], -1
	jne	SHORT $LN31@xmlExpDump

; 8099 : 		rep[0] = '+';

	mov	ecx, 1
	imul	edx, ecx, 0
	mov	BYTE PTR _rep$1[ebp+edx], 43		; 0000002bH

; 8100 : 		rep[1] = 0;

	mov	eax, 1
	shl	eax, 0
	mov	BYTE PTR _rep$1[ebp+eax], 0
	jmp	SHORT $LN28@xmlExpDump
$LN31@xmlExpDump:

; 8101 : 	    } else if (expr->exp_max == expr->exp_min) {

	mov	ecx, DWORD PTR _expr$[ebp]
	mov	edx, DWORD PTR _expr$[ebp]
	mov	eax, DWORD PTR [ecx+24]
	cmp	eax, DWORD PTR [edx+20]
	jne	SHORT $LN33@xmlExpDump

; 8102 : 	        snprintf(rep, 39, "{%d}", expr->exp_min);

	mov	ecx, DWORD PTR _expr$[ebp]
	mov	edx, DWORD PTR [ecx+20]
	push	edx
	push	OFFSET ??_C@_04PFHMOCHH@?$HL?$CFd?$HN@
	push	39					; 00000027H
	lea	eax, DWORD PTR _rep$1[ebp]
	push	eax
	call	_snprintf
	add	esp, 16					; 00000010H
	jmp	SHORT $LN28@xmlExpDump
$LN33@xmlExpDump:

; 8103 : 	    } else if (expr->exp_max < 0) {

	mov	ecx, DWORD PTR _expr$[ebp]
	cmp	DWORD PTR [ecx+24], 0
	jge	SHORT $LN35@xmlExpDump

; 8104 : 	        snprintf(rep, 39, "{%d,inf}", expr->exp_min);

	mov	edx, DWORD PTR _expr$[ebp]
	mov	eax, DWORD PTR [edx+20]
	push	eax
	push	OFFSET ??_C@_08EMBBFCPF@?$HL?$CFd?0inf?$HN@
	push	39					; 00000027H
	lea	ecx, DWORD PTR _rep$1[ebp]
	push	ecx
	call	_snprintf
	add	esp, 16					; 00000010H

; 8105 : 	    } else {

	jmp	SHORT $LN28@xmlExpDump
$LN35@xmlExpDump:

; 8106 : 	        snprintf(rep, 39, "{%d,%d}", expr->exp_min, expr->exp_max);

	mov	edx, DWORD PTR _expr$[ebp]
	mov	eax, DWORD PTR [edx+24]
	push	eax
	mov	ecx, DWORD PTR _expr$[ebp]
	mov	edx, DWORD PTR [ecx+20]
	push	edx
	push	OFFSET ??_C@_07CDJFAPGJ@?$HL?$CFd?0?$CFd?$HN@
	push	39					; 00000027H
	lea	eax, DWORD PTR _rep$1[ebp]
	push	eax
	call	_snprintf
	add	esp, 20					; 00000014H
$LN28@xmlExpDump:

; 8107 : 	    }
; 8108 : 	    rep[39] = 0;

	mov	ecx, 1
	imul	edx, ecx, 39
	mov	BYTE PTR _rep$1[ebp+edx], 0

; 8109 : 	    xmlBufferWriteChar(buf, rep);

	lea	eax, DWORD PTR _rep$1[ebp]
	push	eax
	mov	ecx, DWORD PTR _buf$[ebp]
	push	ecx
	call	_xmlBufferWriteChar
	add	esp, 8

; 8110 : 	    break;

	jmp	SHORT $LN2@xmlExpDump
$LN37@xmlExpDump:

; 8111 : 	}
; 8112 : 	default:
; 8113 : 	    fprintf(stderr, "Error in tree\n");

	push	OFFSET ??_C@_0P@OCJKDKLA@Error?5in?5tree?6@
	mov	esi, esp
	push	2
	call	DWORD PTR __imp____acrt_iob_func
	add	esp, 4
	cmp	esi, esp
	call	__RTC_CheckEsp
	push	eax
	call	_fprintf
	add	esp, 8
$LN2@xmlExpDump:

; 8114 :     }
; 8115 :     if (glob)

	cmp	DWORD PTR _glob$[ebp], 0
	je	SHORT $LN1@xmlExpDump

; 8116 :         xmlBufferWriteChar(buf, ")");

	push	OFFSET ??_C@_01PKGAHCOL@?$CJ@
	mov	edx, DWORD PTR _buf$[ebp]
	push	edx
	call	_xmlBufferWriteChar
	add	esp, 8
$LN1@xmlExpDump:

; 8117 : }

	push	edx
	mov	ecx, ebp
	push	eax
	lea	edx, DWORD PTR $LN42@xmlExpDump
	call	@_RTC_CheckStackVars@8
	pop	eax
	pop	edx
	pop	edi
	pop	esi
	add	esp, 56					; 00000038H
	cmp	ebp, esp
	call	__RTC_CheckEsp
	mov	esp, ebp
	pop	ebp
	ret	0
	npad	2
$LN42@xmlExpDump:
	DD	1
	DD	$LN41@xmlExpDump
$LN41@xmlExpDump:
	DD	-48					; ffffffd0H
	DD	40					; 00000028H
	DD	$LN40@xmlExpDump
$LN40@xmlExpDump:
	DB	114					; 00000072H
	DB	101					; 00000065H
	DB	112					; 00000070H
	DB	0
$LN43@xmlExpDump:
	DD	$LN6@xmlExpDump
	DD	$LN7@xmlExpDump
	DD	$LN8@xmlExpDump
	DD	$LN9@xmlExpDump
	DD	$LN16@xmlExpDump
	DD	$LN23@xmlExpDump
_xmlExpDumpInt ENDP
_TEXT	ENDS
; Function compile flags: /Odtp /RTCsu
; File c:\users\dag\documents\_clients\codeproject authors group\windows on arm\libxml2\libxml2-2.9.9\xmlregexp.c
;	COMDAT _xmlExpParseSeq
_TEXT	SEGMENT
_right$ = -8						; size = 4
_ret$ = -4						; size = 4
_ctxt$ = 8						; size = 4
_xmlExpParseSeq PROC					; COMDAT

; 7970 : xmlExpParseSeq(xmlExpCtxtPtr ctxt) {

	push	ebp
	mov	ebp, esp
	sub	esp, 8
	mov	DWORD PTR [ebp-8], -858993460		; ccccccccH
	mov	DWORD PTR [ebp-4], -858993460		; ccccccccH
	mov	ecx, OFFSET __F6DD4902_xmlregexp@c
	call	@__CheckForDebuggerJustMyCode@4

; 7971 :     xmlExpNodePtr ret, right;
; 7972 : 
; 7973 :     ret = xmlExpParseOr(ctxt);

	mov	eax, DWORD PTR _ctxt$[ebp]
	push	eax
	call	_xmlExpParseOr
	add	esp, 4
	mov	DWORD PTR _ret$[ebp], eax
$LN2@xmlExpPars:

; 7974 :     SKIP_BLANKS

	mov	ecx, DWORD PTR _ctxt$[ebp]
	mov	edx, DWORD PTR [ecx+28]
	movsx	eax, BYTE PTR [edx]
	cmp	eax, 32					; 00000020H
	je	SHORT $LN6@xmlExpPars
	mov	ecx, DWORD PTR _ctxt$[ebp]
	mov	edx, DWORD PTR [ecx+28]
	movsx	eax, BYTE PTR [edx]
	cmp	eax, 10					; 0000000aH
	je	SHORT $LN6@xmlExpPars
	mov	ecx, DWORD PTR _ctxt$[ebp]
	mov	edx, DWORD PTR [ecx+28]
	movsx	eax, BYTE PTR [edx]
	cmp	eax, 13					; 0000000dH
	je	SHORT $LN6@xmlExpPars
	mov	ecx, DWORD PTR _ctxt$[ebp]
	mov	edx, DWORD PTR [ecx+28]
	movsx	eax, BYTE PTR [edx]
	cmp	eax, 9
	jne	SHORT $LN4@xmlExpPars
$LN6@xmlExpPars:
	mov	ecx, DWORD PTR _ctxt$[ebp]
	mov	edx, DWORD PTR [ecx+28]
	add	edx, 1
	mov	eax, DWORD PTR _ctxt$[ebp]
	mov	DWORD PTR [eax+28], edx
	jmp	SHORT $LN2@xmlExpPars
$LN4@xmlExpPars:

; 7975 :     while (CUR == '|') {

	mov	ecx, DWORD PTR _ctxt$[ebp]
	mov	edx, DWORD PTR [ecx+28]
	movsx	eax, BYTE PTR [edx]
	cmp	eax, 124				; 0000007cH
	jne	SHORT $LN5@xmlExpPars

; 7976 :         NEXT

	mov	ecx, DWORD PTR _ctxt$[ebp]
	mov	edx, DWORD PTR [ecx+28]
	add	edx, 1
	mov	eax, DWORD PTR _ctxt$[ebp]
	mov	DWORD PTR [eax+28], edx

; 7977 : 	right = xmlExpParseOr(ctxt);

	mov	ecx, DWORD PTR _ctxt$[ebp]
	push	ecx
	call	_xmlExpParseOr
	add	esp, 4
	mov	DWORD PTR _right$[ebp], eax

; 7978 : 	if (right == NULL) {

	cmp	DWORD PTR _right$[ebp], 0
	jne	SHORT $LN7@xmlExpPars

; 7979 : 	    xmlExpFree(ctxt, ret);

	mov	edx, DWORD PTR _ret$[ebp]
	push	edx
	mov	eax, DWORD PTR _ctxt$[ebp]
	push	eax
	call	_xmlExpFree
	add	esp, 8

; 7980 : 	    return(NULL);

	xor	eax, eax
	jmp	SHORT $LN1@xmlExpPars
$LN7@xmlExpPars:

; 7981 : 	}
; 7982 : 	ret = xmlExpHashGetEntry(ctxt, XML_EXP_OR, ret, right, NULL, 0, 0);

	push	0
	push	0
	push	0
	mov	ecx, DWORD PTR _right$[ebp]
	push	ecx
	mov	edx, DWORD PTR _ret$[ebp]
	push	edx
	push	4
	mov	eax, DWORD PTR _ctxt$[ebp]
	push	eax
	call	_xmlExpHashGetEntry
	add	esp, 28					; 0000001cH
	mov	DWORD PTR _ret$[ebp], eax

; 7983 : 	if (ret == NULL)

	cmp	DWORD PTR _ret$[ebp], 0
	jne	SHORT $LN8@xmlExpPars

; 7984 : 	    return(NULL);

	xor	eax, eax
	jmp	SHORT $LN1@xmlExpPars
$LN8@xmlExpPars:

; 7985 :     }

	jmp	SHORT $LN4@xmlExpPars
$LN5@xmlExpPars:

; 7986 :     return(ret);

	mov	eax, DWORD PTR _ret$[ebp]
$LN1@xmlExpPars:

; 7987 : }

	add	esp, 8
	cmp	ebp, esp
	call	__RTC_CheckEsp
	mov	esp, ebp
	pop	ebp
	ret	0
_xmlExpParseSeq ENDP
_TEXT	ENDS
; Function compile flags: /Odtp /RTCsu
; File c:\users\dag\documents\_clients\codeproject authors group\windows on arm\libxml2\libxml2-2.9.9\xmlregexp.c
;	COMDAT _xmlExpParseOr
_TEXT	SEGMENT
_max$1 = -20						; size = 4
_min$2 = -16						; size = 4
_val$ = -12						; size = 4
_ret$ = -8						; size = 4
_base$ = -4						; size = 4
_ctxt$ = 8						; size = 4
_xmlExpParseOr PROC					; COMDAT

; 7893 : xmlExpParseOr(xmlExpCtxtPtr ctxt) {

	push	ebp
	mov	ebp, esp
	sub	esp, 20					; 00000014H
	push	esi
	mov	eax, -858993460				; ccccccccH
	mov	DWORD PTR [ebp-20], eax
	mov	DWORD PTR [ebp-16], eax
	mov	DWORD PTR [ebp-12], eax
	mov	DWORD PTR [ebp-8], eax
	mov	DWORD PTR [ebp-4], eax
	mov	ecx, OFFSET __F6DD4902_xmlregexp@c
	call	@__CheckForDebuggerJustMyCode@4
$LN2@xmlExpPars:

; 7894 :     const char *base;
; 7895 :     xmlExpNodePtr ret;
; 7896 :     const xmlChar *val;
; 7897 : 
; 7898 :     SKIP_BLANKS

	mov	eax, DWORD PTR _ctxt$[ebp]
	mov	ecx, DWORD PTR [eax+28]
	movsx	edx, BYTE PTR [ecx]
	cmp	edx, 32					; 00000020H
	je	SHORT $LN24@xmlExpPars
	mov	eax, DWORD PTR _ctxt$[ebp]
	mov	ecx, DWORD PTR [eax+28]
	movsx	edx, BYTE PTR [ecx]
	cmp	edx, 10					; 0000000aH
	je	SHORT $LN24@xmlExpPars
	mov	eax, DWORD PTR _ctxt$[ebp]
	mov	ecx, DWORD PTR [eax+28]
	movsx	edx, BYTE PTR [ecx]
	cmp	edx, 13					; 0000000dH
	je	SHORT $LN24@xmlExpPars
	mov	eax, DWORD PTR _ctxt$[ebp]
	mov	ecx, DWORD PTR [eax+28]
	movsx	edx, BYTE PTR [ecx]
	cmp	edx, 9
	jne	SHORT $LN3@xmlExpPars
$LN24@xmlExpPars:
	mov	eax, DWORD PTR _ctxt$[ebp]
	mov	ecx, DWORD PTR [eax+28]
	add	ecx, 1
	mov	edx, DWORD PTR _ctxt$[ebp]
	mov	DWORD PTR [edx+28], ecx
	jmp	SHORT $LN2@xmlExpPars
$LN3@xmlExpPars:

; 7899 :     base = ctxt->cur;

	mov	eax, DWORD PTR _ctxt$[ebp]
	mov	ecx, DWORD PTR [eax+28]
	mov	DWORD PTR _base$[ebp], ecx

; 7900 :     if (*ctxt->cur == '(') {

	mov	edx, DWORD PTR _ctxt$[ebp]
	mov	eax, DWORD PTR [edx+28]
	movsx	ecx, BYTE PTR [eax]
	cmp	ecx, 40					; 00000028H
	jne	$LN8@xmlExpPars

; 7901 :         NEXT

	mov	edx, DWORD PTR _ctxt$[ebp]
	mov	eax, DWORD PTR [edx+28]
	add	eax, 1
	mov	ecx, DWORD PTR _ctxt$[ebp]
	mov	DWORD PTR [ecx+28], eax

; 7902 : 	ret = xmlExpParseExpr(ctxt);

	mov	edx, DWORD PTR _ctxt$[ebp]
	push	edx
	call	_xmlExpParseExpr
	add	esp, 4
	mov	DWORD PTR _ret$[ebp], eax
$LN4@xmlExpPars:

; 7903 : 	SKIP_BLANKS

	mov	eax, DWORD PTR _ctxt$[ebp]
	mov	ecx, DWORD PTR [eax+28]
	movsx	edx, BYTE PTR [ecx]
	cmp	edx, 32					; 00000020H
	je	SHORT $LN26@xmlExpPars
	mov	eax, DWORD PTR _ctxt$[ebp]
	mov	ecx, DWORD PTR [eax+28]
	movsx	edx, BYTE PTR [ecx]
	cmp	edx, 10					; 0000000aH
	je	SHORT $LN26@xmlExpPars
	mov	eax, DWORD PTR _ctxt$[ebp]
	mov	ecx, DWORD PTR [eax+28]
	movsx	edx, BYTE PTR [ecx]
	cmp	edx, 13					; 0000000dH
	je	SHORT $LN26@xmlExpPars
	mov	eax, DWORD PTR _ctxt$[ebp]
	mov	ecx, DWORD PTR [eax+28]
	movsx	edx, BYTE PTR [ecx]
	cmp	edx, 9
	jne	SHORT $LN5@xmlExpPars
$LN26@xmlExpPars:
	mov	eax, DWORD PTR _ctxt$[ebp]
	mov	ecx, DWORD PTR [eax+28]
	add	ecx, 1
	mov	edx, DWORD PTR _ctxt$[ebp]
	mov	DWORD PTR [edx+28], ecx
	jmp	SHORT $LN4@xmlExpPars
$LN5@xmlExpPars:

; 7904 : 	if (*ctxt->cur != ')') {

	mov	eax, DWORD PTR _ctxt$[ebp]
	mov	ecx, DWORD PTR [eax+28]
	movsx	edx, BYTE PTR [ecx]
	cmp	edx, 41					; 00000029H
	je	SHORT $LN27@xmlExpPars

; 7905 : 	    fprintf(stderr, "unbalanced '(' : %s\n", base);

	mov	eax, DWORD PTR _base$[ebp]
	push	eax
	push	OFFSET ??_C@_0BF@FNELPLND@unbalanced?5?8?$CI?8?5?3?5?$CFs?6@
	mov	esi, esp
	push	2
	call	DWORD PTR __imp____acrt_iob_func
	add	esp, 4
	cmp	esi, esp
	call	__RTC_CheckEsp
	push	eax
	call	_fprintf
	add	esp, 12					; 0000000cH

; 7906 : 	    xmlExpFree(ctxt, ret);

	mov	ecx, DWORD PTR _ret$[ebp]
	push	ecx
	mov	edx, DWORD PTR _ctxt$[ebp]
	push	edx
	call	_xmlExpFree
	add	esp, 8

; 7907 : 	    return(NULL);

	xor	eax, eax
	jmp	$LN1@xmlExpPars
$LN27@xmlExpPars:

; 7908 : 	}
; 7909 : 	NEXT;

	mov	eax, DWORD PTR _ctxt$[ebp]
	mov	ecx, DWORD PTR [eax+28]
	add	ecx, 1
	mov	edx, DWORD PTR _ctxt$[ebp]
	mov	DWORD PTR [edx+28], ecx
$LN6@xmlExpPars:

; 7910 : 	SKIP_BLANKS

	mov	eax, DWORD PTR _ctxt$[ebp]
	mov	ecx, DWORD PTR [eax+28]
	movsx	edx, BYTE PTR [ecx]
	cmp	edx, 32					; 00000020H
	je	SHORT $LN28@xmlExpPars
	mov	eax, DWORD PTR _ctxt$[ebp]
	mov	ecx, DWORD PTR [eax+28]
	movsx	edx, BYTE PTR [ecx]
	cmp	edx, 10					; 0000000aH
	je	SHORT $LN28@xmlExpPars
	mov	eax, DWORD PTR _ctxt$[ebp]
	mov	ecx, DWORD PTR [eax+28]
	movsx	edx, BYTE PTR [ecx]
	cmp	edx, 13					; 0000000dH
	je	SHORT $LN28@xmlExpPars
	mov	eax, DWORD PTR _ctxt$[ebp]
	mov	ecx, DWORD PTR [eax+28]
	movsx	edx, BYTE PTR [ecx]
	cmp	edx, 9
	jne	SHORT $LN7@xmlExpPars
$LN28@xmlExpPars:
	mov	eax, DWORD PTR _ctxt$[ebp]
	mov	ecx, DWORD PTR [eax+28]
	add	ecx, 1
	mov	edx, DWORD PTR _ctxt$[ebp]
	mov	DWORD PTR [edx+28], ecx
	jmp	SHORT $LN6@xmlExpPars
$LN7@xmlExpPars:

; 7911 : 	goto parse_quantifier;

	jmp	$parse_quantifier$50
$LN8@xmlExpPars:

; 7912 :     }
; 7913 :     while ((CUR != 0) && (!(IS_BLANK(CUR))) && (CUR != '(') &&
; 7914 :            (CUR != ')') && (CUR != '|') && (CUR != ',') && (CUR != '{') &&
; 7915 : 	   (CUR != '*') && (CUR != '+') && (CUR != '?') && (CUR != '}'))

	mov	eax, DWORD PTR _ctxt$[ebp]
	mov	ecx, DWORD PTR [eax+28]
	movsx	edx, BYTE PTR [ecx]
	test	edx, edx
	je	$LN9@xmlExpPars
	mov	eax, DWORD PTR _ctxt$[ebp]
	mov	ecx, DWORD PTR [eax+28]
	movsx	edx, BYTE PTR [ecx]
	cmp	edx, 32					; 00000020H
	je	$LN9@xmlExpPars
	mov	eax, DWORD PTR _ctxt$[ebp]
	mov	ecx, DWORD PTR [eax+28]
	movsx	edx, BYTE PTR [ecx]
	cmp	edx, 10					; 0000000aH
	je	$LN9@xmlExpPars
	mov	eax, DWORD PTR _ctxt$[ebp]
	mov	ecx, DWORD PTR [eax+28]
	movsx	edx, BYTE PTR [ecx]
	cmp	edx, 13					; 0000000dH
	je	$LN9@xmlExpPars
	mov	eax, DWORD PTR _ctxt$[ebp]
	mov	ecx, DWORD PTR [eax+28]
	movsx	edx, BYTE PTR [ecx]
	cmp	edx, 9
	je	$LN9@xmlExpPars
	mov	eax, DWORD PTR _ctxt$[ebp]
	mov	ecx, DWORD PTR [eax+28]
	movsx	edx, BYTE PTR [ecx]
	cmp	edx, 40					; 00000028H
	je	$LN9@xmlExpPars
	mov	eax, DWORD PTR _ctxt$[ebp]
	mov	ecx, DWORD PTR [eax+28]
	movsx	edx, BYTE PTR [ecx]
	cmp	edx, 41					; 00000029H
	je	SHORT $LN9@xmlExpPars
	mov	eax, DWORD PTR _ctxt$[ebp]
	mov	ecx, DWORD PTR [eax+28]
	movsx	edx, BYTE PTR [ecx]
	cmp	edx, 124				; 0000007cH
	je	SHORT $LN9@xmlExpPars
	mov	eax, DWORD PTR _ctxt$[ebp]
	mov	ecx, DWORD PTR [eax+28]
	movsx	edx, BYTE PTR [ecx]
	cmp	edx, 44					; 0000002cH
	je	SHORT $LN9@xmlExpPars
	mov	eax, DWORD PTR _ctxt$[ebp]
	mov	ecx, DWORD PTR [eax+28]
	movsx	edx, BYTE PTR [ecx]
	cmp	edx, 123				; 0000007bH
	je	SHORT $LN9@xmlExpPars
	mov	eax, DWORD PTR _ctxt$[ebp]
	mov	ecx, DWORD PTR [eax+28]
	movsx	edx, BYTE PTR [ecx]
	cmp	edx, 42					; 0000002aH
	je	SHORT $LN9@xmlExpPars
	mov	eax, DWORD PTR _ctxt$[ebp]
	mov	ecx, DWORD PTR [eax+28]
	movsx	edx, BYTE PTR [ecx]
	cmp	edx, 43					; 0000002bH
	je	SHORT $LN9@xmlExpPars
	mov	eax, DWORD PTR _ctxt$[ebp]
	mov	ecx, DWORD PTR [eax+28]
	movsx	edx, BYTE PTR [ecx]
	cmp	edx, 63					; 0000003fH
	je	SHORT $LN9@xmlExpPars
	mov	eax, DWORD PTR _ctxt$[ebp]
	mov	ecx, DWORD PTR [eax+28]
	movsx	edx, BYTE PTR [ecx]
	cmp	edx, 125				; 0000007dH
	je	SHORT $LN9@xmlExpPars

; 7916 : 	NEXT;

	mov	eax, DWORD PTR _ctxt$[ebp]
	mov	ecx, DWORD PTR [eax+28]
	add	ecx, 1
	mov	edx, DWORD PTR _ctxt$[ebp]
	mov	DWORD PTR [edx+28], ecx
	jmp	$LN8@xmlExpPars
$LN9@xmlExpPars:

; 7917 :     val = xmlDictLookup(ctxt->dict, BAD_CAST base, ctxt->cur - base);

	mov	eax, DWORD PTR _ctxt$[ebp]
	mov	ecx, DWORD PTR [eax+28]
	sub	ecx, DWORD PTR _base$[ebp]
	push	ecx
	mov	edx, DWORD PTR _base$[ebp]
	push	edx
	mov	eax, DWORD PTR _ctxt$[ebp]
	mov	ecx, DWORD PTR [eax]
	push	ecx
	call	_xmlDictLookup
	add	esp, 12					; 0000000cH
	mov	DWORD PTR _val$[ebp], eax

; 7918 :     if (val == NULL)

	cmp	DWORD PTR _val$[ebp], 0
	jne	SHORT $LN29@xmlExpPars

; 7919 :         return(NULL);

	xor	eax, eax
	jmp	$LN1@xmlExpPars
$LN29@xmlExpPars:

; 7920 :     ret = xmlExpHashGetEntry(ctxt, XML_EXP_ATOM, NULL, NULL, val, 0, 0);

	push	0
	push	0
	mov	edx, DWORD PTR _val$[ebp]
	push	edx
	push	0
	push	0
	push	2
	mov	eax, DWORD PTR _ctxt$[ebp]
	push	eax
	call	_xmlExpHashGetEntry
	add	esp, 28					; 0000001cH
	mov	DWORD PTR _ret$[ebp], eax

; 7921 :     if (ret == NULL)

	cmp	DWORD PTR _ret$[ebp], 0
	jne	SHORT $LN10@xmlExpPars

; 7922 :         return(NULL);

	xor	eax, eax
	jmp	$LN1@xmlExpPars
$LN10@xmlExpPars:

; 7923 :     SKIP_BLANKS

	mov	ecx, DWORD PTR _ctxt$[ebp]
	mov	edx, DWORD PTR [ecx+28]
	movsx	eax, BYTE PTR [edx]
	cmp	eax, 32					; 00000020H
	je	SHORT $LN31@xmlExpPars
	mov	ecx, DWORD PTR _ctxt$[ebp]
	mov	edx, DWORD PTR [ecx+28]
	movsx	eax, BYTE PTR [edx]
	cmp	eax, 10					; 0000000aH
	je	SHORT $LN31@xmlExpPars
	mov	ecx, DWORD PTR _ctxt$[ebp]
	mov	edx, DWORD PTR [ecx+28]
	movsx	eax, BYTE PTR [edx]
	cmp	eax, 13					; 0000000dH
	je	SHORT $LN31@xmlExpPars
	mov	ecx, DWORD PTR _ctxt$[ebp]
	mov	edx, DWORD PTR [ecx+28]
	movsx	eax, BYTE PTR [edx]
	cmp	eax, 9
	jne	SHORT $parse_quantifier$50
$LN31@xmlExpPars:
	mov	ecx, DWORD PTR _ctxt$[ebp]
	mov	edx, DWORD PTR [ecx+28]
	add	edx, 1
	mov	eax, DWORD PTR _ctxt$[ebp]
	mov	DWORD PTR [eax+28], edx
	jmp	SHORT $LN10@xmlExpPars
$parse_quantifier$50:

; 7924 : parse_quantifier:
; 7925 :     if (CUR == '{') {

	mov	ecx, DWORD PTR _ctxt$[ebp]
	mov	edx, DWORD PTR [ecx+28]
	movsx	eax, BYTE PTR [edx]
	cmp	eax, 123				; 0000007bH
	jne	$LN32@xmlExpPars

; 7926 :         int min, max;
; 7927 : 
; 7928 :         NEXT

	mov	ecx, DWORD PTR _ctxt$[ebp]
	mov	edx, DWORD PTR [ecx+28]
	add	edx, 1
	mov	eax, DWORD PTR _ctxt$[ebp]
	mov	DWORD PTR [eax+28], edx

; 7929 : 	min = xmlExpParseNumber(ctxt);

	mov	ecx, DWORD PTR _ctxt$[ebp]
	push	ecx
	call	_xmlExpParseNumber
	add	esp, 4
	mov	DWORD PTR _min$2[ebp], eax

; 7930 : 	if (min < 0) {

	cmp	DWORD PTR _min$2[ebp], 0
	jge	SHORT $LN12@xmlExpPars

; 7931 : 	    xmlExpFree(ctxt, ret);

	mov	edx, DWORD PTR _ret$[ebp]
	push	edx
	mov	eax, DWORD PTR _ctxt$[ebp]
	push	eax
	call	_xmlExpFree
	add	esp, 8

; 7932 : 	    return(NULL);

	xor	eax, eax
	jmp	$LN1@xmlExpPars
$LN12@xmlExpPars:

; 7933 : 	}
; 7934 : 	SKIP_BLANKS

	mov	ecx, DWORD PTR _ctxt$[ebp]
	mov	edx, DWORD PTR [ecx+28]
	movsx	eax, BYTE PTR [edx]
	cmp	eax, 32					; 00000020H
	je	SHORT $LN35@xmlExpPars
	mov	ecx, DWORD PTR _ctxt$[ebp]
	mov	edx, DWORD PTR [ecx+28]
	movsx	eax, BYTE PTR [edx]
	cmp	eax, 10					; 0000000aH
	je	SHORT $LN35@xmlExpPars
	mov	ecx, DWORD PTR _ctxt$[ebp]
	mov	edx, DWORD PTR [ecx+28]
	movsx	eax, BYTE PTR [edx]
	cmp	eax, 13					; 0000000dH
	je	SHORT $LN35@xmlExpPars
	mov	ecx, DWORD PTR _ctxt$[ebp]
	mov	edx, DWORD PTR [ecx+28]
	movsx	eax, BYTE PTR [edx]
	cmp	eax, 9
	jne	SHORT $LN13@xmlExpPars
$LN35@xmlExpPars:
	mov	ecx, DWORD PTR _ctxt$[ebp]
	mov	edx, DWORD PTR [ecx+28]
	add	edx, 1
	mov	eax, DWORD PTR _ctxt$[ebp]
	mov	DWORD PTR [eax+28], edx
	jmp	SHORT $LN12@xmlExpPars
$LN13@xmlExpPars:

; 7935 : 	if (CUR == ',') {

	mov	ecx, DWORD PTR _ctxt$[ebp]
	mov	edx, DWORD PTR [ecx+28]
	movsx	eax, BYTE PTR [edx]
	cmp	eax, 44					; 0000002cH
	jne	SHORT $LN36@xmlExpPars

; 7936 : 	    NEXT

	mov	ecx, DWORD PTR _ctxt$[ebp]
	mov	edx, DWORD PTR [ecx+28]
	add	edx, 1
	mov	eax, DWORD PTR _ctxt$[ebp]
	mov	DWORD PTR [eax+28], edx

; 7937 : 	    max = xmlExpParseNumber(ctxt);

	mov	ecx, DWORD PTR _ctxt$[ebp]
	push	ecx
	call	_xmlExpParseNumber
	add	esp, 4
	mov	DWORD PTR _max$1[ebp], eax
$LN14@xmlExpPars:

; 7938 : 	    SKIP_BLANKS

	mov	edx, DWORD PTR _ctxt$[ebp]
	mov	eax, DWORD PTR [edx+28]
	movsx	ecx, BYTE PTR [eax]
	cmp	ecx, 32					; 00000020H
	je	SHORT $LN38@xmlExpPars
	mov	edx, DWORD PTR _ctxt$[ebp]
	mov	eax, DWORD PTR [edx+28]
	movsx	ecx, BYTE PTR [eax]
	cmp	ecx, 10					; 0000000aH
	je	SHORT $LN38@xmlExpPars
	mov	edx, DWORD PTR _ctxt$[ebp]
	mov	eax, DWORD PTR [edx+28]
	movsx	ecx, BYTE PTR [eax]
	cmp	ecx, 13					; 0000000dH
	je	SHORT $LN38@xmlExpPars
	mov	edx, DWORD PTR _ctxt$[ebp]
	mov	eax, DWORD PTR [edx+28]
	movsx	ecx, BYTE PTR [eax]
	cmp	ecx, 9
	jne	SHORT $LN15@xmlExpPars
$LN38@xmlExpPars:
	mov	edx, DWORD PTR _ctxt$[ebp]
	mov	eax, DWORD PTR [edx+28]
	add	eax, 1
	mov	ecx, DWORD PTR _ctxt$[ebp]
	mov	DWORD PTR [ecx+28], eax
	jmp	SHORT $LN14@xmlExpPars
$LN15@xmlExpPars:

; 7939 : 	} else

	jmp	SHORT $LN37@xmlExpPars
$LN36@xmlExpPars:

; 7940 : 	    max = min;

	mov	edx, DWORD PTR _min$2[ebp]
	mov	DWORD PTR _max$1[ebp], edx
$LN37@xmlExpPars:

; 7941 : 	if (CUR != '}') {

	mov	eax, DWORD PTR _ctxt$[ebp]
	mov	ecx, DWORD PTR [eax+28]
	movsx	edx, BYTE PTR [ecx]
	cmp	edx, 125				; 0000007dH
	je	SHORT $LN39@xmlExpPars

; 7942 : 	    xmlExpFree(ctxt, ret);

	mov	eax, DWORD PTR _ret$[ebp]
	push	eax
	mov	ecx, DWORD PTR _ctxt$[ebp]
	push	ecx
	call	_xmlExpFree
	add	esp, 8

; 7943 : 	    return(NULL);

	xor	eax, eax
	jmp	$LN1@xmlExpPars
$LN39@xmlExpPars:

; 7944 : 	}
; 7945 :         NEXT

	mov	edx, DWORD PTR _ctxt$[ebp]
	mov	eax, DWORD PTR [edx+28]
	add	eax, 1
	mov	ecx, DWORD PTR _ctxt$[ebp]
	mov	DWORD PTR [ecx+28], eax

; 7946 : 	ret = xmlExpHashGetEntry(ctxt, XML_EXP_COUNT, ret, NULL, NULL,

	mov	edx, DWORD PTR _max$1[ebp]
	push	edx
	mov	eax, DWORD PTR _min$2[ebp]
	push	eax
	push	0
	push	0
	mov	ecx, DWORD PTR _ret$[ebp]
	push	ecx
	push	5
	mov	edx, DWORD PTR _ctxt$[ebp]
	push	edx
	call	_xmlExpHashGetEntry
	add	esp, 28					; 0000001cH
	mov	DWORD PTR _ret$[ebp], eax
$LN16@xmlExpPars:

; 7947 : 	                         min, max);
; 7948 : 	SKIP_BLANKS

	mov	eax, DWORD PTR _ctxt$[ebp]
	mov	ecx, DWORD PTR [eax+28]
	movsx	edx, BYTE PTR [ecx]
	cmp	edx, 32					; 00000020H
	je	SHORT $LN40@xmlExpPars
	mov	eax, DWORD PTR _ctxt$[ebp]
	mov	ecx, DWORD PTR [eax+28]
	movsx	edx, BYTE PTR [ecx]
	cmp	edx, 10					; 0000000aH
	je	SHORT $LN40@xmlExpPars
	mov	eax, DWORD PTR _ctxt$[ebp]
	mov	ecx, DWORD PTR [eax+28]
	movsx	edx, BYTE PTR [ecx]
	cmp	edx, 13					; 0000000dH
	je	SHORT $LN40@xmlExpPars
	mov	eax, DWORD PTR _ctxt$[ebp]
	mov	ecx, DWORD PTR [eax+28]
	movsx	edx, BYTE PTR [ecx]
	cmp	edx, 9
	jne	SHORT $LN17@xmlExpPars
$LN40@xmlExpPars:
	mov	eax, DWORD PTR _ctxt$[ebp]
	mov	ecx, DWORD PTR [eax+28]
	add	ecx, 1
	mov	edx, DWORD PTR _ctxt$[ebp]
	mov	DWORD PTR [edx+28], ecx
	jmp	SHORT $LN16@xmlExpPars
$LN17@xmlExpPars:

; 7949 :     } else if (CUR == '?') {

	jmp	$LN33@xmlExpPars
$LN32@xmlExpPars:
	mov	eax, DWORD PTR _ctxt$[ebp]
	mov	ecx, DWORD PTR [eax+28]
	movsx	edx, BYTE PTR [ecx]
	cmp	edx, 63					; 0000003fH
	jne	SHORT $LN41@xmlExpPars

; 7950 :         NEXT

	mov	eax, DWORD PTR _ctxt$[ebp]
	mov	ecx, DWORD PTR [eax+28]
	add	ecx, 1
	mov	edx, DWORD PTR _ctxt$[ebp]
	mov	DWORD PTR [edx+28], ecx

; 7951 : 	ret = xmlExpHashGetEntry(ctxt, XML_EXP_COUNT, ret, NULL, NULL,

	push	1
	push	0
	push	0
	push	0
	mov	eax, DWORD PTR _ret$[ebp]
	push	eax
	push	5
	mov	ecx, DWORD PTR _ctxt$[ebp]
	push	ecx
	call	_xmlExpHashGetEntry
	add	esp, 28					; 0000001cH
	mov	DWORD PTR _ret$[ebp], eax
$LN18@xmlExpPars:

; 7952 : 	                         0, 1);
; 7953 : 	SKIP_BLANKS

	mov	edx, DWORD PTR _ctxt$[ebp]
	mov	eax, DWORD PTR [edx+28]
	movsx	ecx, BYTE PTR [eax]
	cmp	ecx, 32					; 00000020H
	je	SHORT $LN43@xmlExpPars
	mov	edx, DWORD PTR _ctxt$[ebp]
	mov	eax, DWORD PTR [edx+28]
	movsx	ecx, BYTE PTR [eax]
	cmp	ecx, 10					; 0000000aH
	je	SHORT $LN43@xmlExpPars
	mov	edx, DWORD PTR _ctxt$[ebp]
	mov	eax, DWORD PTR [edx+28]
	movsx	ecx, BYTE PTR [eax]
	cmp	ecx, 13					; 0000000dH
	je	SHORT $LN43@xmlExpPars
	mov	edx, DWORD PTR _ctxt$[ebp]
	mov	eax, DWORD PTR [edx+28]
	movsx	ecx, BYTE PTR [eax]
	cmp	ecx, 9
	jne	SHORT $LN19@xmlExpPars
$LN43@xmlExpPars:
	mov	edx, DWORD PTR _ctxt$[ebp]
	mov	eax, DWORD PTR [edx+28]
	add	eax, 1
	mov	ecx, DWORD PTR _ctxt$[ebp]
	mov	DWORD PTR [ecx+28], eax
	jmp	SHORT $LN18@xmlExpPars
$LN19@xmlExpPars:

; 7954 :     } else if (CUR == '+') {

	jmp	$LN33@xmlExpPars
$LN41@xmlExpPars:
	mov	edx, DWORD PTR _ctxt$[ebp]
	mov	eax, DWORD PTR [edx+28]
	movsx	ecx, BYTE PTR [eax]
	cmp	ecx, 43					; 0000002bH
	jne	SHORT $LN44@xmlExpPars

; 7955 :         NEXT

	mov	edx, DWORD PTR _ctxt$[ebp]
	mov	eax, DWORD PTR [edx+28]
	add	eax, 1
	mov	ecx, DWORD PTR _ctxt$[ebp]
	mov	DWORD PTR [ecx+28], eax

; 7956 : 	ret = xmlExpHashGetEntry(ctxt, XML_EXP_COUNT, ret, NULL, NULL,

	push	-1
	push	1
	push	0
	push	0
	mov	edx, DWORD PTR _ret$[ebp]
	push	edx
	push	5
	mov	eax, DWORD PTR _ctxt$[ebp]
	push	eax
	call	_xmlExpHashGetEntry
	add	esp, 28					; 0000001cH
	mov	DWORD PTR _ret$[ebp], eax
$LN20@xmlExpPars:

; 7957 : 	                         1, -1);
; 7958 : 	SKIP_BLANKS

	mov	ecx, DWORD PTR _ctxt$[ebp]
	mov	edx, DWORD PTR [ecx+28]
	movsx	eax, BYTE PTR [edx]
	cmp	eax, 32					; 00000020H
	je	SHORT $LN46@xmlExpPars
	mov	ecx, DWORD PTR _ctxt$[ebp]
	mov	edx, DWORD PTR [ecx+28]
	movsx	eax, BYTE PTR [edx]
	cmp	eax, 10					; 0000000aH
	je	SHORT $LN46@xmlExpPars
	mov	ecx, DWORD PTR _ctxt$[ebp]
	mov	edx, DWORD PTR [ecx+28]
	movsx	eax, BYTE PTR [edx]
	cmp	eax, 13					; 0000000dH
	je	SHORT $LN46@xmlExpPars
	mov	ecx, DWORD PTR _ctxt$[ebp]
	mov	edx, DWORD PTR [ecx+28]
	movsx	eax, BYTE PTR [edx]
	cmp	eax, 9
	jne	SHORT $LN21@xmlExpPars
$LN46@xmlExpPars:
	mov	ecx, DWORD PTR _ctxt$[ebp]
	mov	edx, DWORD PTR [ecx+28]
	add	edx, 1
	mov	eax, DWORD PTR _ctxt$[ebp]
	mov	DWORD PTR [eax+28], edx
	jmp	SHORT $LN20@xmlExpPars
$LN21@xmlExpPars:

; 7959 :     } else if (CUR == '*') {

	jmp	$LN33@xmlExpPars
$LN44@xmlExpPars:
	mov	ecx, DWORD PTR _ctxt$[ebp]
	mov	edx, DWORD PTR [ecx+28]
	movsx	eax, BYTE PTR [edx]
	cmp	eax, 42					; 0000002aH
	jne	SHORT $LN33@xmlExpPars

; 7960 :         NEXT

	mov	ecx, DWORD PTR _ctxt$[ebp]
	mov	edx, DWORD PTR [ecx+28]
	add	edx, 1
	mov	eax, DWORD PTR _ctxt$[ebp]
	mov	DWORD PTR [eax+28], edx

; 7961 : 	ret = xmlExpHashGetEntry(ctxt, XML_EXP_COUNT, ret, NULL, NULL,

	push	-1
	push	0
	push	0
	push	0
	mov	ecx, DWORD PTR _ret$[ebp]
	push	ecx
	push	5
	mov	edx, DWORD PTR _ctxt$[ebp]
	push	edx
	call	_xmlExpHashGetEntry
	add	esp, 28					; 0000001cH
	mov	DWORD PTR _ret$[ebp], eax
$LN22@xmlExpPars:

; 7962 : 	                         0, -1);
; 7963 : 	SKIP_BLANKS

	mov	eax, DWORD PTR _ctxt$[ebp]
	mov	ecx, DWORD PTR [eax+28]
	movsx	edx, BYTE PTR [ecx]
	cmp	edx, 32					; 00000020H
	je	SHORT $LN48@xmlExpPars
	mov	eax, DWORD PTR _ctxt$[ebp]
	mov	ecx, DWORD PTR [eax+28]
	movsx	edx, BYTE PTR [ecx]
	cmp	edx, 10					; 0000000aH
	je	SHORT $LN48@xmlExpPars
	mov	eax, DWORD PTR _ctxt$[ebp]
	mov	ecx, DWORD PTR [eax+28]
	movsx	edx, BYTE PTR [ecx]
	cmp	edx, 13					; 0000000dH
	je	SHORT $LN48@xmlExpPars
	mov	eax, DWORD PTR _ctxt$[ebp]
	mov	ecx, DWORD PTR [eax+28]
	movsx	edx, BYTE PTR [ecx]
	cmp	edx, 9
	jne	SHORT $LN33@xmlExpPars
$LN48@xmlExpPars:
	mov	eax, DWORD PTR _ctxt$[ebp]
	mov	ecx, DWORD PTR [eax+28]
	add	ecx, 1
	mov	edx, DWORD PTR _ctxt$[ebp]
	mov	DWORD PTR [edx+28], ecx
	jmp	SHORT $LN22@xmlExpPars
$LN33@xmlExpPars:

; 7964 :     }
; 7965 :     return(ret);

	mov	eax, DWORD PTR _ret$[ebp]
$LN1@xmlExpPars:

; 7966 : }

	pop	esi
	add	esp, 20					; 00000014H
	cmp	ebp, esp
	call	__RTC_CheckEsp
	mov	esp, ebp
	pop	ebp
	ret	0
_xmlExpParseOr ENDP
_TEXT	ENDS
; Function compile flags: /Odtp /RTCsu
; File c:\users\dag\documents\_clients\codeproject authors group\windows on arm\libxml2\libxml2-2.9.9\xmlregexp.c
;	COMDAT _xmlExpParseNumber
_TEXT	SEGMENT
_ret$ = -4						; size = 4
_ctxt$ = 8						; size = 4
_xmlExpParseNumber PROC					; COMDAT

; 7875 : xmlExpParseNumber(xmlExpCtxtPtr ctxt) {

	push	ebp
	mov	ebp, esp
	push	ecx
	mov	DWORD PTR [ebp-4], -858993460		; ccccccccH
	mov	ecx, OFFSET __F6DD4902_xmlregexp@c
	call	@__CheckForDebuggerJustMyCode@4

; 7876 :     int ret = 0;

	mov	DWORD PTR _ret$[ebp], 0
$LN2@xmlExpPars:

; 7877 : 
; 7878 :     SKIP_BLANKS

	mov	eax, DWORD PTR _ctxt$[ebp]
	mov	ecx, DWORD PTR [eax+28]
	movsx	edx, BYTE PTR [ecx]
	cmp	edx, 32					; 00000020H
	je	SHORT $LN6@xmlExpPars
	mov	eax, DWORD PTR _ctxt$[ebp]
	mov	ecx, DWORD PTR [eax+28]
	movsx	edx, BYTE PTR [ecx]
	cmp	edx, 10					; 0000000aH
	je	SHORT $LN6@xmlExpPars
	mov	eax, DWORD PTR _ctxt$[ebp]
	mov	ecx, DWORD PTR [eax+28]
	movsx	edx, BYTE PTR [ecx]
	cmp	edx, 13					; 0000000dH
	je	SHORT $LN6@xmlExpPars
	mov	eax, DWORD PTR _ctxt$[ebp]
	mov	ecx, DWORD PTR [eax+28]
	movsx	edx, BYTE PTR [ecx]
	cmp	edx, 9
	jne	SHORT $LN3@xmlExpPars
$LN6@xmlExpPars:
	mov	eax, DWORD PTR _ctxt$[ebp]
	mov	ecx, DWORD PTR [eax+28]
	add	ecx, 1
	mov	edx, DWORD PTR _ctxt$[ebp]
	mov	DWORD PTR [edx+28], ecx
	jmp	SHORT $LN2@xmlExpPars
$LN3@xmlExpPars:

; 7879 :     if (CUR == '*') {

	mov	eax, DWORD PTR _ctxt$[ebp]
	mov	ecx, DWORD PTR [eax+28]
	movsx	edx, BYTE PTR [ecx]
	cmp	edx, 42					; 0000002aH
	jne	SHORT $LN7@xmlExpPars

; 7880 : 	NEXT

	mov	eax, DWORD PTR _ctxt$[ebp]
	mov	ecx, DWORD PTR [eax+28]
	add	ecx, 1
	mov	edx, DWORD PTR _ctxt$[ebp]
	mov	DWORD PTR [edx+28], ecx

; 7881 : 	return(-1);

	or	eax, -1
	jmp	SHORT $LN1@xmlExpPars
$LN7@xmlExpPars:

; 7882 :     }
; 7883 :     if ((CUR < '0') || (CUR > '9'))

	mov	eax, DWORD PTR _ctxt$[ebp]
	mov	ecx, DWORD PTR [eax+28]
	movsx	edx, BYTE PTR [ecx]
	cmp	edx, 48					; 00000030H
	jl	SHORT $LN9@xmlExpPars
	mov	eax, DWORD PTR _ctxt$[ebp]
	mov	ecx, DWORD PTR [eax+28]
	movsx	edx, BYTE PTR [ecx]
	cmp	edx, 57					; 00000039H
	jle	SHORT $LN4@xmlExpPars
$LN9@xmlExpPars:

; 7884 :         return(-1);

	or	eax, -1
	jmp	SHORT $LN1@xmlExpPars
$LN4@xmlExpPars:

; 7885 :     while ((CUR >= '0') && (CUR <= '9')) {

	mov	eax, DWORD PTR _ctxt$[ebp]
	mov	ecx, DWORD PTR [eax+28]
	movsx	edx, BYTE PTR [ecx]
	cmp	edx, 48					; 00000030H
	jl	SHORT $LN5@xmlExpPars
	mov	eax, DWORD PTR _ctxt$[ebp]
	mov	ecx, DWORD PTR [eax+28]
	movsx	edx, BYTE PTR [ecx]
	cmp	edx, 57					; 00000039H
	jg	SHORT $LN5@xmlExpPars

; 7886 :         ret = ret * 10 + (CUR - '0');

	imul	eax, DWORD PTR _ret$[ebp], 10
	mov	ecx, DWORD PTR _ctxt$[ebp]
	mov	edx, DWORD PTR [ecx+28]
	movsx	ecx, BYTE PTR [edx]
	lea	edx, DWORD PTR [eax+ecx-48]
	mov	DWORD PTR _ret$[ebp], edx

; 7887 : 	NEXT

	mov	eax, DWORD PTR _ctxt$[ebp]
	mov	ecx, DWORD PTR [eax+28]
	add	ecx, 1
	mov	edx, DWORD PTR _ctxt$[ebp]
	mov	DWORD PTR [edx+28], ecx

; 7888 :     }

	jmp	SHORT $LN4@xmlExpPars
$LN5@xmlExpPars:

; 7889 :     return(ret);

	mov	eax, DWORD PTR _ret$[ebp]
$LN1@xmlExpPars:

; 7890 : }

	add	esp, 4
	cmp	ebp, esp
	call	__RTC_CheckEsp
	mov	esp, ebp
	pop	ebp
	ret	0
_xmlExpParseNumber ENDP
_TEXT	ENDS
; Function compile flags: /Odtp /RTCsu
; File c:\users\dag\documents\_clients\codeproject authors group\windows on arm\libxml2\libxml2-2.9.9\xmlregexp.c
;	COMDAT _xmlExpParseExpr
_TEXT	SEGMENT
_right$ = -8						; size = 4
_ret$ = -4						; size = 4
_ctxt$ = 8						; size = 4
_xmlExpParseExpr PROC					; COMDAT

; 7990 : xmlExpParseExpr(xmlExpCtxtPtr ctxt) {

	push	ebp
	mov	ebp, esp
	sub	esp, 8
	mov	DWORD PTR [ebp-8], -858993460		; ccccccccH
	mov	DWORD PTR [ebp-4], -858993460		; ccccccccH
	mov	ecx, OFFSET __F6DD4902_xmlregexp@c
	call	@__CheckForDebuggerJustMyCode@4

; 7991 :     xmlExpNodePtr ret, right;
; 7992 : 
; 7993 :     ret = xmlExpParseSeq(ctxt);

	mov	eax, DWORD PTR _ctxt$[ebp]
	push	eax
	call	_xmlExpParseSeq
	add	esp, 4
	mov	DWORD PTR _ret$[ebp], eax
$LN2@xmlExpPars:

; 7994 :     SKIP_BLANKS

	mov	ecx, DWORD PTR _ctxt$[ebp]
	mov	edx, DWORD PTR [ecx+28]
	movsx	eax, BYTE PTR [edx]
	cmp	eax, 32					; 00000020H
	je	SHORT $LN6@xmlExpPars
	mov	ecx, DWORD PTR _ctxt$[ebp]
	mov	edx, DWORD PTR [ecx+28]
	movsx	eax, BYTE PTR [edx]
	cmp	eax, 10					; 0000000aH
	je	SHORT $LN6@xmlExpPars
	mov	ecx, DWORD PTR _ctxt$[ebp]
	mov	edx, DWORD PTR [ecx+28]
	movsx	eax, BYTE PTR [edx]
	cmp	eax, 13					; 0000000dH
	je	SHORT $LN6@xmlExpPars
	mov	ecx, DWORD PTR _ctxt$[ebp]
	mov	edx, DWORD PTR [ecx+28]
	movsx	eax, BYTE PTR [edx]
	cmp	eax, 9
	jne	SHORT $LN4@xmlExpPars
$LN6@xmlExpPars:
	mov	ecx, DWORD PTR _ctxt$[ebp]
	mov	edx, DWORD PTR [ecx+28]
	add	edx, 1
	mov	eax, DWORD PTR _ctxt$[ebp]
	mov	DWORD PTR [eax+28], edx
	jmp	SHORT $LN2@xmlExpPars
$LN4@xmlExpPars:

; 7995 :     while (CUR == ',') {

	mov	ecx, DWORD PTR _ctxt$[ebp]
	mov	edx, DWORD PTR [ecx+28]
	movsx	eax, BYTE PTR [edx]
	cmp	eax, 44					; 0000002cH
	jne	SHORT $LN5@xmlExpPars

; 7996 :         NEXT

	mov	ecx, DWORD PTR _ctxt$[ebp]
	mov	edx, DWORD PTR [ecx+28]
	add	edx, 1
	mov	eax, DWORD PTR _ctxt$[ebp]
	mov	DWORD PTR [eax+28], edx

; 7997 : 	right = xmlExpParseSeq(ctxt);

	mov	ecx, DWORD PTR _ctxt$[ebp]
	push	ecx
	call	_xmlExpParseSeq
	add	esp, 4
	mov	DWORD PTR _right$[ebp], eax

; 7998 : 	if (right == NULL) {

	cmp	DWORD PTR _right$[ebp], 0
	jne	SHORT $LN7@xmlExpPars

; 7999 : 	    xmlExpFree(ctxt, ret);

	mov	edx, DWORD PTR _ret$[ebp]
	push	edx
	mov	eax, DWORD PTR _ctxt$[ebp]
	push	eax
	call	_xmlExpFree
	add	esp, 8

; 8000 : 	    return(NULL);

	xor	eax, eax
	jmp	SHORT $LN1@xmlExpPars
$LN7@xmlExpPars:

; 8001 : 	}
; 8002 : 	ret = xmlExpHashGetEntry(ctxt, XML_EXP_SEQ, ret, right, NULL, 0, 0);

	push	0
	push	0
	push	0
	mov	ecx, DWORD PTR _right$[ebp]
	push	ecx
	mov	edx, DWORD PTR _ret$[ebp]
	push	edx
	push	3
	mov	eax, DWORD PTR _ctxt$[ebp]
	push	eax
	call	_xmlExpHashGetEntry
	add	esp, 28					; 0000001cH
	mov	DWORD PTR _ret$[ebp], eax

; 8003 : 	if (ret == NULL)

	cmp	DWORD PTR _ret$[ebp], 0
	jne	SHORT $LN8@xmlExpPars

; 8004 : 	    return(NULL);

	xor	eax, eax
	jmp	SHORT $LN1@xmlExpPars
$LN8@xmlExpPars:

; 8005 :     }

	jmp	SHORT $LN4@xmlExpPars
$LN5@xmlExpPars:

; 8006 :     return(ret);

	mov	eax, DWORD PTR _ret$[ebp]
$LN1@xmlExpPars:

; 8007 : }

	add	esp, 8
	cmp	ebp, esp
	call	__RTC_CheckEsp
	mov	esp, ebp
	pop	ebp
	ret	0
_xmlExpParseExpr ENDP
_TEXT	ENDS
; Function compile flags: /Odtp /RTCsu
; File c:\users\dag\documents\_clients\codeproject authors group\windows on arm\libxml2\libxml2-2.9.9\xmlregexp.c
;	COMDAT _xmlExpDivide
_TEXT	SEGMENT
_tmp2$ = -12						; size = 4
_tmp$ = -8						; size = 4
_i$ = -4						; size = 4
_ctxt$ = 8						; size = 4
_exp$ = 12						; size = 4
_sub$ = 16						; size = 4
_mult$ = 20						; size = 4
_remain$ = 24						; size = 4
_xmlExpDivide PROC					; COMDAT

; 7266 :              xmlExpNodePtr *mult, xmlExpNodePtr *remain) {

	push	ebp
	mov	ebp, esp
	sub	esp, 12					; 0000000cH
	mov	DWORD PTR [ebp-12], -858993460		; ccccccccH
	mov	DWORD PTR [ebp-8], -858993460		; ccccccccH
	mov	DWORD PTR [ebp-4], -858993460		; ccccccccH
	mov	ecx, OFFSET __F6DD4902_xmlregexp@c
	call	@__CheckForDebuggerJustMyCode@4

; 7267 :     int i;
; 7268 :     xmlExpNodePtr tmp, tmp2;
; 7269 : 
; 7270 :     if (mult != NULL) *mult = NULL;

	cmp	DWORD PTR _mult$[ebp], 0
	je	SHORT $LN5@xmlExpDivi
	mov	eax, DWORD PTR _mult$[ebp]
	mov	DWORD PTR [eax], 0
$LN5@xmlExpDivi:

; 7271 :     if (remain != NULL) *remain = NULL;

	cmp	DWORD PTR _remain$[ebp], 0
	je	SHORT $LN6@xmlExpDivi
	mov	ecx, DWORD PTR _remain$[ebp]
	mov	DWORD PTR [ecx], 0
$LN6@xmlExpDivi:

; 7272 :     if (exp->c_max == -1) return(0);

	mov	edx, DWORD PTR _exp$[ebp]
	cmp	DWORD PTR [edx+8], -1
	jne	SHORT $LN7@xmlExpDivi
	xor	eax, eax
	jmp	$LN1@xmlExpDivi
$LN7@xmlExpDivi:

; 7273 :     if (IS_NILLABLE(exp) && (!IS_NILLABLE(sub))) return(0);

	mov	eax, DWORD PTR _exp$[ebp]
	movzx	ecx, BYTE PTR [eax+1]
	and	ecx, 1
	je	SHORT $LN8@xmlExpDivi
	mov	edx, DWORD PTR _sub$[ebp]
	movzx	eax, BYTE PTR [edx+1]
	and	eax, 1
	jne	SHORT $LN8@xmlExpDivi
	xor	eax, eax
	jmp	$LN1@xmlExpDivi
$LN8@xmlExpDivi:

; 7274 : 
; 7275 :     for (i = 1;i <= exp->c_max;i++) {

	mov	DWORD PTR _i$[ebp], 1
	jmp	SHORT $LN4@xmlExpDivi
$LN2@xmlExpDivi:
	mov	ecx, DWORD PTR _i$[ebp]
	add	ecx, 1
	mov	DWORD PTR _i$[ebp], ecx
$LN4@xmlExpDivi:
	mov	edx, DWORD PTR _exp$[ebp]
	mov	eax, DWORD PTR _i$[ebp]
	cmp	eax, DWORD PTR [edx+8]
	jg	$LN3@xmlExpDivi

; 7276 :         sub->ref++;

	mov	ecx, DWORD PTR _sub$[ebp]
	mov	edx, DWORD PTR [ecx+4]
	add	edx, 1
	mov	eax, DWORD PTR _sub$[ebp]
	mov	DWORD PTR [eax+4], edx

; 7277 :         tmp = xmlExpHashGetEntry(ctxt, XML_EXP_COUNT,

	mov	ecx, DWORD PTR _i$[ebp]
	push	ecx
	mov	edx, DWORD PTR _i$[ebp]
	push	edx
	push	0
	push	0
	mov	eax, DWORD PTR _sub$[ebp]
	push	eax
	push	5
	mov	ecx, DWORD PTR _ctxt$[ebp]
	push	ecx
	call	_xmlExpHashGetEntry
	add	esp, 28					; 0000001cH
	mov	DWORD PTR _tmp$[ebp], eax

; 7278 : 				 sub, NULL, NULL, i, i);
; 7279 : 	if (tmp == NULL) {

	cmp	DWORD PTR _tmp$[ebp], 0
	jne	SHORT $LN9@xmlExpDivi

; 7280 : 	    return(-1);

	or	eax, -1
	jmp	$LN1@xmlExpDivi
$LN9@xmlExpDivi:

; 7281 : 	}
; 7282 : 	if (!xmlExpCheckCard(tmp, exp)) {

	mov	edx, DWORD PTR _exp$[ebp]
	push	edx
	mov	eax, DWORD PTR _tmp$[ebp]
	push	eax
	call	_xmlExpCheckCard
	add	esp, 8
	test	eax, eax
	jne	SHORT $LN10@xmlExpDivi

; 7283 : 	    xmlExpFree(ctxt, tmp);

	mov	ecx, DWORD PTR _tmp$[ebp]
	push	ecx
	mov	edx, DWORD PTR _ctxt$[ebp]
	push	edx
	call	_xmlExpFree
	add	esp, 8

; 7284 : 	    continue;

	jmp	SHORT $LN2@xmlExpDivi
$LN10@xmlExpDivi:

; 7285 : 	}
; 7286 : 	tmp2 = xmlExpExpDeriveInt(ctxt, tmp, exp);

	mov	eax, DWORD PTR _exp$[ebp]
	push	eax
	mov	ecx, DWORD PTR _tmp$[ebp]
	push	ecx
	mov	edx, DWORD PTR _ctxt$[ebp]
	push	edx
	call	_xmlExpExpDeriveInt
	add	esp, 12					; 0000000cH
	mov	DWORD PTR _tmp2$[ebp], eax

; 7287 : 	if (tmp2 == NULL) {

	cmp	DWORD PTR _tmp2$[ebp], 0
	jne	SHORT $LN11@xmlExpDivi

; 7288 : 	    xmlExpFree(ctxt, tmp);

	mov	eax, DWORD PTR _tmp$[ebp]
	push	eax
	mov	ecx, DWORD PTR _ctxt$[ebp]
	push	ecx
	call	_xmlExpFree
	add	esp, 8

; 7289 : 	    return(-1);

	or	eax, -1
	jmp	$LN1@xmlExpDivi
$LN11@xmlExpDivi:

; 7290 : 	}
; 7291 : 	if ((tmp2 != forbiddenExp) && (IS_NILLABLE(tmp2))) {

	mov	edx, DWORD PTR _tmp2$[ebp]
	cmp	edx, DWORD PTR _forbiddenExp
	je	SHORT $LN12@xmlExpDivi
	mov	eax, DWORD PTR _tmp2$[ebp]
	movzx	ecx, BYTE PTR [eax+1]
	and	ecx, 1
	je	SHORT $LN12@xmlExpDivi

; 7292 : 	    if (remain != NULL)

	cmp	DWORD PTR _remain$[ebp], 0
	je	SHORT $LN13@xmlExpDivi

; 7293 : 	        *remain = tmp2;

	mov	edx, DWORD PTR _remain$[ebp]
	mov	eax, DWORD PTR _tmp2$[ebp]
	mov	DWORD PTR [edx], eax
	jmp	SHORT $LN14@xmlExpDivi
$LN13@xmlExpDivi:

; 7294 : 	    else
; 7295 : 	        xmlExpFree(ctxt, tmp2);

	mov	ecx, DWORD PTR _tmp2$[ebp]
	push	ecx
	mov	edx, DWORD PTR _ctxt$[ebp]
	push	edx
	call	_xmlExpFree
	add	esp, 8
$LN14@xmlExpDivi:

; 7296 : 	    if (mult != NULL)

	cmp	DWORD PTR _mult$[ebp], 0
	je	SHORT $LN15@xmlExpDivi

; 7297 : 	        *mult = tmp;

	mov	eax, DWORD PTR _mult$[ebp]
	mov	ecx, DWORD PTR _tmp$[ebp]
	mov	DWORD PTR [eax], ecx
	jmp	SHORT $LN16@xmlExpDivi
$LN15@xmlExpDivi:

; 7298 : 	    else
; 7299 : 	        xmlExpFree(ctxt, tmp);

	mov	edx, DWORD PTR _tmp$[ebp]
	push	edx
	mov	eax, DWORD PTR _ctxt$[ebp]
	push	eax
	call	_xmlExpFree
	add	esp, 8
$LN16@xmlExpDivi:

; 7300 : #ifdef DEBUG_DERIV
; 7301 : 	    printf("Divide succeeded %d\n", i);
; 7302 : #endif
; 7303 : 	    return(i);

	mov	eax, DWORD PTR _i$[ebp]
	jmp	SHORT $LN1@xmlExpDivi
$LN12@xmlExpDivi:

; 7304 : 	}
; 7305 : 	xmlExpFree(ctxt, tmp);

	mov	ecx, DWORD PTR _tmp$[ebp]
	push	ecx
	mov	edx, DWORD PTR _ctxt$[ebp]
	push	edx
	call	_xmlExpFree
	add	esp, 8

; 7306 : 	xmlExpFree(ctxt, tmp2);

	mov	eax, DWORD PTR _tmp2$[ebp]
	push	eax
	mov	ecx, DWORD PTR _ctxt$[ebp]
	push	ecx
	call	_xmlExpFree
	add	esp, 8

; 7307 :     }

	jmp	$LN2@xmlExpDivi
$LN3@xmlExpDivi:

; 7308 : #ifdef DEBUG_DERIV
; 7309 :     printf("Divide failed\n");
; 7310 : #endif
; 7311 :     return(0);

	xor	eax, eax
$LN1@xmlExpDivi:

; 7312 : }

	add	esp, 12					; 0000000cH
	cmp	ebp, esp
	call	__RTC_CheckEsp
	mov	esp, ebp
	pop	ebp
	ret	0
_xmlExpDivide ENDP
_TEXT	ENDS
; Function compile flags: /Odtp /RTCsu
; File c:\users\dag\documents\_clients\codeproject authors group\windows on arm\libxml2\libxml2-2.9.9\xmlregexp.c
;	COMDAT _xmlExpExpDeriveInt
_TEXT	SEGMENT
tv156 = -64						; size = 4
_temp$1 = -60						; size = 4
_mult$2 = -56						; size = 4
_max$3 = -52						; size = 4
_min$4 = -48						; size = 4
_max$5 = -44						; size = 4
_min$6 = -40						; size = 4
_i$ = -36						; size = 4
_len$ = -32						; size = 4
_tab$ = -28						; size = 4
_tmp3$ = -24						; size = 4
_tmp2$ = -20						; size = 4
_tmp$ = -12						; size = 4
_ret$ = -4						; size = 4
_ctxt$ = 8						; size = 4
_exp$ = 12						; size = 4
_sub$ = 16						; size = 4
_xmlExpExpDeriveInt PROC				; COMDAT

; 7326 : xmlExpExpDeriveInt(xmlExpCtxtPtr ctxt, xmlExpNodePtr exp, xmlExpNodePtr sub) {

	push	ebp
	mov	ebp, esp
	sub	esp, 64					; 00000040H
	push	esi
	push	edi
	lea	edi, DWORD PTR [ebp-64]
	mov	ecx, 16					; 00000010H
	mov	eax, -858993460				; ccccccccH
	rep stosd
	mov	ecx, OFFSET __F6DD4902_xmlregexp@c
	call	@__CheckForDebuggerJustMyCode@4

; 7327 :     xmlExpNodePtr ret, tmp, tmp2, tmp3;
; 7328 :     const xmlChar **tab;
; 7329 :     int len, i;
; 7330 : 
; 7331 :     /*
; 7332 :      * In case of equality and if the expression can only consume a finite
; 7333 :      * amount, then the derivation is empty
; 7334 :      */
; 7335 :     if ((exp == sub) && (exp->c_max >= 0)) {

	mov	eax, DWORD PTR _exp$[ebp]
	cmp	eax, DWORD PTR _sub$[ebp]
	jne	SHORT $LN9@xmlExpExpD
	mov	ecx, DWORD PTR _exp$[ebp]
	cmp	DWORD PTR [ecx+8], 0
	jl	SHORT $LN9@xmlExpExpD

; 7336 : #ifdef DEBUG_DERIV
; 7337 :         printf("Equal(exp, sub) and finite -> Empty\n");
; 7338 : #endif
; 7339 :         return(emptyExp);

	mov	eax, DWORD PTR _emptyExp
	jmp	$LN1@xmlExpExpD
$LN9@xmlExpExpD:

; 7340 :     }
; 7341 :     /*
; 7342 :      * decompose sub sequence first
; 7343 :      */
; 7344 :     if (sub->type == XML_EXP_EMPTY) {

	mov	edx, DWORD PTR _sub$[ebp]
	movzx	eax, BYTE PTR [edx]
	test	eax, eax
	jne	SHORT $LN10@xmlExpExpD

; 7345 : #ifdef DEBUG_DERIV
; 7346 :         printf("Empty(sub) -> Empty\n");
; 7347 : #endif
; 7348 : 	exp->ref++;

	mov	ecx, DWORD PTR _exp$[ebp]
	mov	edx, DWORD PTR [ecx+4]
	add	edx, 1
	mov	eax, DWORD PTR _exp$[ebp]
	mov	DWORD PTR [eax+4], edx

; 7349 :         return(exp);

	mov	eax, DWORD PTR _exp$[ebp]
	jmp	$LN1@xmlExpExpD
$LN10@xmlExpExpD:

; 7350 :     }
; 7351 :     if (sub->type == XML_EXP_SEQ) {

	mov	ecx, DWORD PTR _sub$[ebp]
	movzx	edx, BYTE PTR [ecx]
	cmp	edx, 3
	jne	SHORT $LN11@xmlExpExpD

; 7352 : #ifdef DEBUG_DERIV
; 7353 :         printf("Seq(sub) -> decompose\n");
; 7354 : #endif
; 7355 :         tmp = xmlExpExpDeriveInt(ctxt, exp, sub->exp_left);

	mov	eax, DWORD PTR _sub$[ebp]
	mov	ecx, DWORD PTR [eax+12]
	push	ecx
	mov	edx, DWORD PTR _exp$[ebp]
	push	edx
	mov	eax, DWORD PTR _ctxt$[ebp]
	push	eax
	call	_xmlExpExpDeriveInt
	add	esp, 12					; 0000000cH
	mov	DWORD PTR _tmp$[ebp], eax

; 7356 : 	if (tmp == NULL)

	cmp	DWORD PTR _tmp$[ebp], 0
	jne	SHORT $LN12@xmlExpExpD

; 7357 : 	    return(NULL);

	xor	eax, eax
	jmp	$LN1@xmlExpExpD
$LN12@xmlExpExpD:

; 7358 : 	if (tmp == forbiddenExp)

	mov	ecx, DWORD PTR _tmp$[ebp]
	cmp	ecx, DWORD PTR _forbiddenExp
	jne	SHORT $LN13@xmlExpExpD

; 7359 : 	    return(tmp);

	mov	eax, DWORD PTR _tmp$[ebp]
	jmp	$LN1@xmlExpExpD
$LN13@xmlExpExpD:

; 7360 : 	ret = xmlExpExpDeriveInt(ctxt, tmp, sub->exp_right);

	mov	edx, DWORD PTR _sub$[ebp]
	mov	eax, DWORD PTR [edx+20]
	push	eax
	mov	ecx, DWORD PTR _tmp$[ebp]
	push	ecx
	mov	edx, DWORD PTR _ctxt$[ebp]
	push	edx
	call	_xmlExpExpDeriveInt
	add	esp, 12					; 0000000cH
	mov	DWORD PTR _ret$[ebp], eax

; 7361 : 	xmlExpFree(ctxt, tmp);

	mov	eax, DWORD PTR _tmp$[ebp]
	push	eax
	mov	ecx, DWORD PTR _ctxt$[ebp]
	push	ecx
	call	_xmlExpFree
	add	esp, 8

; 7362 : 	return(ret);

	mov	eax, DWORD PTR _ret$[ebp]
	jmp	$LN1@xmlExpExpD
$LN11@xmlExpExpD:

; 7363 :     }
; 7364 :     if (sub->type == XML_EXP_OR) {

	mov	edx, DWORD PTR _sub$[ebp]
	movzx	eax, BYTE PTR [edx]
	cmp	eax, 4
	jne	$LN14@xmlExpExpD

; 7365 : #ifdef DEBUG_DERIV
; 7366 :         printf("Or(sub) -> decompose\n");
; 7367 : #endif
; 7368 :         tmp = xmlExpExpDeriveInt(ctxt, exp, sub->exp_left);

	mov	ecx, DWORD PTR _sub$[ebp]
	mov	edx, DWORD PTR [ecx+12]
	push	edx
	mov	eax, DWORD PTR _exp$[ebp]
	push	eax
	mov	ecx, DWORD PTR _ctxt$[ebp]
	push	ecx
	call	_xmlExpExpDeriveInt
	add	esp, 12					; 0000000cH
	mov	DWORD PTR _tmp$[ebp], eax

; 7369 : 	if (tmp == forbiddenExp)

	mov	edx, DWORD PTR _tmp$[ebp]
	cmp	edx, DWORD PTR _forbiddenExp
	jne	SHORT $LN15@xmlExpExpD

; 7370 : 	    return(tmp);

	mov	eax, DWORD PTR _tmp$[ebp]
	jmp	$LN1@xmlExpExpD
$LN15@xmlExpExpD:

; 7371 : 	if (tmp == NULL)

	cmp	DWORD PTR _tmp$[ebp], 0
	jne	SHORT $LN16@xmlExpExpD

; 7372 : 	    return(NULL);

	xor	eax, eax
	jmp	$LN1@xmlExpExpD
$LN16@xmlExpExpD:

; 7373 : 	ret = xmlExpExpDeriveInt(ctxt, exp, sub->exp_right);

	mov	eax, DWORD PTR _sub$[ebp]
	mov	ecx, DWORD PTR [eax+20]
	push	ecx
	mov	edx, DWORD PTR _exp$[ebp]
	push	edx
	mov	eax, DWORD PTR _ctxt$[ebp]
	push	eax
	call	_xmlExpExpDeriveInt
	add	esp, 12					; 0000000cH
	mov	DWORD PTR _ret$[ebp], eax

; 7374 : 	if ((ret == NULL) || (ret == forbiddenExp)) {

	cmp	DWORD PTR _ret$[ebp], 0
	je	SHORT $LN18@xmlExpExpD
	mov	ecx, DWORD PTR _ret$[ebp]
	cmp	ecx, DWORD PTR _forbiddenExp
	jne	SHORT $LN17@xmlExpExpD
$LN18@xmlExpExpD:

; 7375 : 	    xmlExpFree(ctxt, tmp);

	mov	edx, DWORD PTR _tmp$[ebp]
	push	edx
	mov	eax, DWORD PTR _ctxt$[ebp]
	push	eax
	call	_xmlExpFree
	add	esp, 8

; 7376 : 	    return(ret);

	mov	eax, DWORD PTR _ret$[ebp]
	jmp	$LN1@xmlExpExpD
$LN17@xmlExpExpD:

; 7377 : 	}
; 7378 : 	return(xmlExpHashGetEntry(ctxt, XML_EXP_OR, tmp, ret, NULL, 0, 0));

	push	0
	push	0
	push	0
	mov	ecx, DWORD PTR _ret$[ebp]
	push	ecx
	mov	edx, DWORD PTR _tmp$[ebp]
	push	edx
	push	4
	mov	eax, DWORD PTR _ctxt$[ebp]
	push	eax
	call	_xmlExpHashGetEntry
	add	esp, 28					; 0000001cH
	jmp	$LN1@xmlExpExpD
$LN14@xmlExpExpD:

; 7379 :     }
; 7380 :     if (!xmlExpCheckCard(exp, sub)) {

	mov	ecx, DWORD PTR _sub$[ebp]
	push	ecx
	mov	edx, DWORD PTR _exp$[ebp]
	push	edx
	call	_xmlExpCheckCard
	add	esp, 8
	test	eax, eax
	jne	SHORT $LN19@xmlExpExpD

; 7381 : #ifdef DEBUG_DERIV
; 7382 :         printf("CheckCard(exp, sub) failed -> Forbid\n");
; 7383 : #endif
; 7384 :         return(forbiddenExp);

	mov	eax, DWORD PTR _forbiddenExp
	jmp	$LN1@xmlExpExpD
$LN19@xmlExpExpD:

; 7385 :     }
; 7386 :     switch (exp->type) {

	mov	eax, DWORD PTR _exp$[ebp]
	movzx	ecx, BYTE PTR [eax]
	mov	DWORD PTR tv156[ebp], ecx
	cmp	DWORD PTR tv156[ebp], 5
	ja	$LN2@xmlExpExpD
	mov	edx, DWORD PTR tv156[ebp]
	jmp	DWORD PTR $LN107@xmlExpExpD[edx*4]
$LN20@xmlExpExpD:

; 7387 :         case XML_EXP_EMPTY:
; 7388 : 	    if (sub == emptyExp)

	mov	eax, DWORD PTR _sub$[ebp]
	cmp	eax, DWORD PTR _emptyExp
	jne	SHORT $LN21@xmlExpExpD

; 7389 : 	        return(emptyExp);

	mov	eax, DWORD PTR _emptyExp
	jmp	$LN1@xmlExpExpD
$LN21@xmlExpExpD:

; 7390 : #ifdef DEBUG_DERIV
; 7391 : 	    printf("Empty(exp) -> Forbid\n");
; 7392 : #endif
; 7393 : 	    return(forbiddenExp);

	mov	eax, DWORD PTR _forbiddenExp
	jmp	$LN1@xmlExpExpD
$LN22@xmlExpExpD:

; 7394 :         case XML_EXP_FORBID:
; 7395 : #ifdef DEBUG_DERIV
; 7396 : 	    printf("Forbid(exp) -> Forbid\n");
; 7397 : #endif
; 7398 : 	    return(forbiddenExp);

	mov	eax, DWORD PTR _forbiddenExp
	jmp	$LN1@xmlExpExpD
$LN23@xmlExpExpD:

; 7399 :         case XML_EXP_ATOM:
; 7400 : 	    if (sub->type == XML_EXP_ATOM) {

	mov	ecx, DWORD PTR _sub$[ebp]
	movzx	edx, BYTE PTR [ecx]
	cmp	edx, 2
	jne	SHORT $LN24@xmlExpExpD

; 7401 : 	        /* TODO: handle wildcards */
; 7402 : 	        if (exp->exp_str == sub->exp_str) {

	mov	eax, DWORD PTR _exp$[ebp]
	mov	ecx, DWORD PTR _sub$[ebp]
	mov	edx, DWORD PTR [eax+20]
	cmp	edx, DWORD PTR [ecx+20]
	jne	SHORT $LN25@xmlExpExpD

; 7403 : #ifdef DEBUG_DERIV
; 7404 : 		    printf("Atom match -> Empty\n");
; 7405 : #endif
; 7406 : 		    return(emptyExp);

	mov	eax, DWORD PTR _emptyExp
	jmp	$LN1@xmlExpExpD
$LN25@xmlExpExpD:

; 7407 :                 }
; 7408 : #ifdef DEBUG_DERIV
; 7409 : 		printf("Atom mismatch -> Forbid\n");
; 7410 : #endif
; 7411 : 	        return(forbiddenExp);

	mov	eax, DWORD PTR _forbiddenExp
	jmp	$LN1@xmlExpExpD
$LN24@xmlExpExpD:

; 7412 : 	    }
; 7413 : 	    if ((sub->type == XML_EXP_COUNT) &&
; 7414 : 	        (sub->exp_max == 1) &&

	mov	eax, DWORD PTR _sub$[ebp]
	movzx	ecx, BYTE PTR [eax]
	cmp	ecx, 5
	jne	SHORT $LN26@xmlExpExpD
	mov	edx, DWORD PTR _sub$[ebp]
	cmp	DWORD PTR [edx+24], 1
	jne	SHORT $LN26@xmlExpExpD
	mov	eax, DWORD PTR _sub$[ebp]
	mov	ecx, DWORD PTR [eax+12]
	movzx	edx, BYTE PTR [ecx]
	cmp	edx, 2
	jne	SHORT $LN26@xmlExpExpD

; 7415 : 	        (sub->exp_left->type == XML_EXP_ATOM)) {
; 7416 : 	        /* TODO: handle wildcards */
; 7417 : 	        if (exp->exp_str == sub->exp_left->exp_str) {

	mov	eax, DWORD PTR _sub$[ebp]
	mov	ecx, DWORD PTR [eax+12]
	mov	edx, DWORD PTR _exp$[ebp]
	mov	eax, DWORD PTR [edx+20]
	cmp	eax, DWORD PTR [ecx+20]
	jne	SHORT $LN27@xmlExpExpD

; 7418 : #ifdef DEBUG_DERIV
; 7419 : 		    printf("Atom match -> Empty\n");
; 7420 : #endif
; 7421 : 		    return(emptyExp);

	mov	eax, DWORD PTR _emptyExp
	jmp	$LN1@xmlExpExpD
$LN27@xmlExpExpD:

; 7422 : 		}
; 7423 : #ifdef DEBUG_DERIV
; 7424 : 		printf("Atom mismatch -> Forbid\n");
; 7425 : #endif
; 7426 : 	        return(forbiddenExp);

	mov	eax, DWORD PTR _forbiddenExp
	jmp	$LN1@xmlExpExpD
$LN26@xmlExpExpD:

; 7427 : 	    }
; 7428 : #ifdef DEBUG_DERIV
; 7429 : 	    printf("Compex exp vs Atom -> Forbid\n");
; 7430 : #endif
; 7431 : 	    return(forbiddenExp);

	mov	eax, DWORD PTR _forbiddenExp
	jmp	$LN1@xmlExpExpD
$LN28@xmlExpExpD:

; 7432 :         case XML_EXP_SEQ:
; 7433 : 	    /* try to get the sequence consumed only if possible */
; 7434 : 	    if (xmlExpCheckCard(exp->exp_left, sub)) {

	mov	ecx, DWORD PTR _sub$[ebp]
	push	ecx
	mov	edx, DWORD PTR _exp$[ebp]
	mov	eax, DWORD PTR [edx+12]
	push	eax
	call	_xmlExpCheckCard
	add	esp, 8
	test	eax, eax
	je	SHORT $LN29@xmlExpExpD

; 7435 : 		/* See if the sequence can be consumed directly */
; 7436 : #ifdef DEBUG_DERIV
; 7437 : 		printf("Seq trying left only\n");
; 7438 : #endif
; 7439 : 		ret = xmlExpExpDeriveInt(ctxt, exp->exp_left, sub);

	mov	ecx, DWORD PTR _sub$[ebp]
	push	ecx
	mov	edx, DWORD PTR _exp$[ebp]
	mov	eax, DWORD PTR [edx+12]
	push	eax
	mov	ecx, DWORD PTR _ctxt$[ebp]
	push	ecx
	call	_xmlExpExpDeriveInt
	add	esp, 12					; 0000000cH
	mov	DWORD PTR _ret$[ebp], eax

; 7440 : 		if ((ret != forbiddenExp) && (ret != NULL)) {

	mov	edx, DWORD PTR _ret$[ebp]
	cmp	edx, DWORD PTR _forbiddenExp
	je	SHORT $LN29@xmlExpExpD
	cmp	DWORD PTR _ret$[ebp], 0
	je	SHORT $LN29@xmlExpExpD

; 7441 : #ifdef DEBUG_DERIV
; 7442 : 		    printf("Seq trying left only worked\n");
; 7443 : #endif
; 7444 : 		    /*
; 7445 : 		     * TODO: assumption here that we are determinist
; 7446 : 		     *       i.e. we won't get to a nillable exp left
; 7447 : 		     *       subset which could be matched by the right
; 7448 : 		     *       part too.
; 7449 : 		     * e.g.: (a | b)+,(a | c) and 'a+,a'
; 7450 : 		     */
; 7451 : 		    exp->exp_right->ref++;

	mov	eax, DWORD PTR _exp$[ebp]
	mov	ecx, DWORD PTR [eax+20]
	mov	edx, DWORD PTR [ecx+4]
	add	edx, 1
	mov	eax, DWORD PTR _exp$[ebp]
	mov	ecx, DWORD PTR [eax+20]
	mov	DWORD PTR [ecx+4], edx

; 7452 : 		    return(xmlExpHashGetEntry(ctxt, XML_EXP_SEQ, ret,

	push	0
	push	0
	push	0
	mov	edx, DWORD PTR _exp$[ebp]
	mov	eax, DWORD PTR [edx+20]
	push	eax
	mov	ecx, DWORD PTR _ret$[ebp]
	push	ecx
	push	3
	mov	edx, DWORD PTR _ctxt$[ebp]
	push	edx
	call	_xmlExpHashGetEntry
	add	esp, 28					; 0000001cH
	jmp	$LN1@xmlExpExpD
$LN29@xmlExpExpD:

; 7453 : 					      exp->exp_right, NULL, 0, 0));
; 7454 : 		}
; 7455 : #ifdef DEBUG_DERIV
; 7456 : 	    } else {
; 7457 : 		printf("Seq: left too short\n");
; 7458 : #endif
; 7459 : 	    }
; 7460 : 	    /* Try instead to decompose */
; 7461 : 	    if (sub->type == XML_EXP_COUNT) {

	mov	eax, DWORD PTR _sub$[ebp]
	movzx	ecx, BYTE PTR [eax]
	cmp	ecx, 5
	jne	$LN31@xmlExpExpD

; 7462 : 		int min, max;
; 7463 : 
; 7464 : #ifdef DEBUG_DERIV
; 7465 : 		printf("Seq: sub is a count\n");
; 7466 : #endif
; 7467 : 	        ret = xmlExpExpDeriveInt(ctxt, exp->exp_left, sub->exp_left);

	mov	edx, DWORD PTR _sub$[ebp]
	mov	eax, DWORD PTR [edx+12]
	push	eax
	mov	ecx, DWORD PTR _exp$[ebp]
	mov	edx, DWORD PTR [ecx+12]
	push	edx
	mov	eax, DWORD PTR _ctxt$[ebp]
	push	eax
	call	_xmlExpExpDeriveInt
	add	esp, 12					; 0000000cH
	mov	DWORD PTR _ret$[ebp], eax

; 7468 : 		if (ret == NULL)

	cmp	DWORD PTR _ret$[ebp], 0
	jne	SHORT $LN32@xmlExpExpD

; 7469 : 		    return(NULL);

	xor	eax, eax
	jmp	$LN1@xmlExpExpD
$LN32@xmlExpExpD:

; 7470 : 		if (ret != forbiddenExp) {

	mov	ecx, DWORD PTR _ret$[ebp]
	cmp	ecx, DWORD PTR _forbiddenExp
	je	$LN31@xmlExpExpD

; 7471 : #ifdef DEBUG_DERIV
; 7472 : 		    printf("Seq , Count match on left\n");
; 7473 : #endif
; 7474 : 		    if (sub->exp_max < 0)

	mov	edx, DWORD PTR _sub$[ebp]
	cmp	DWORD PTR [edx+24], 0
	jge	SHORT $LN34@xmlExpExpD

; 7475 : 		        max = -1;

	mov	DWORD PTR _max$5[ebp], -1
	jmp	SHORT $LN35@xmlExpExpD
$LN34@xmlExpExpD:

; 7476 : 	            else
; 7477 : 		        max = sub->exp_max -1;

	mov	eax, DWORD PTR _sub$[ebp]
	mov	ecx, DWORD PTR [eax+24]
	sub	ecx, 1
	mov	DWORD PTR _max$5[ebp], ecx
$LN35@xmlExpExpD:

; 7478 : 		    if (sub->exp_min > 0)

	mov	edx, DWORD PTR _sub$[ebp]
	cmp	DWORD PTR [edx+20], 0
	jle	SHORT $LN36@xmlExpExpD

; 7479 : 		        min = sub->exp_min -1;

	mov	eax, DWORD PTR _sub$[ebp]
	mov	ecx, DWORD PTR [eax+20]
	sub	ecx, 1
	mov	DWORD PTR _min$6[ebp], ecx
	jmp	SHORT $LN37@xmlExpExpD
$LN36@xmlExpExpD:

; 7480 : 		    else
; 7481 : 		        min = 0;

	mov	DWORD PTR _min$6[ebp], 0
$LN37@xmlExpExpD:

; 7482 : 		    exp->exp_right->ref++;

	mov	edx, DWORD PTR _exp$[ebp]
	mov	eax, DWORD PTR [edx+20]
	mov	ecx, DWORD PTR [eax+4]
	add	ecx, 1
	mov	edx, DWORD PTR _exp$[ebp]
	mov	eax, DWORD PTR [edx+20]
	mov	DWORD PTR [eax+4], ecx

; 7483 : 		    tmp = xmlExpHashGetEntry(ctxt, XML_EXP_SEQ, ret,

	push	0
	push	0
	push	0
	mov	ecx, DWORD PTR _exp$[ebp]
	mov	edx, DWORD PTR [ecx+20]
	push	edx
	mov	eax, DWORD PTR _ret$[ebp]
	push	eax
	push	3
	mov	ecx, DWORD PTR _ctxt$[ebp]
	push	ecx
	call	_xmlExpHashGetEntry
	add	esp, 28					; 0000001cH
	mov	DWORD PTR _tmp$[ebp], eax

; 7484 : 		                             exp->exp_right, NULL, 0, 0);
; 7485 : 		    if (tmp == NULL)

	cmp	DWORD PTR _tmp$[ebp], 0
	jne	SHORT $LN38@xmlExpExpD

; 7486 : 		        return(NULL);

	xor	eax, eax
	jmp	$LN1@xmlExpExpD
$LN38@xmlExpExpD:

; 7487 : 
; 7488 : 		    sub->exp_left->ref++;

	mov	edx, DWORD PTR _sub$[ebp]
	mov	eax, DWORD PTR [edx+12]
	mov	ecx, DWORD PTR [eax+4]
	add	ecx, 1
	mov	edx, DWORD PTR _sub$[ebp]
	mov	eax, DWORD PTR [edx+12]
	mov	DWORD PTR [eax+4], ecx

; 7489 : 		    tmp2 = xmlExpHashGetEntry(ctxt, XML_EXP_COUNT,

	mov	ecx, DWORD PTR _max$5[ebp]
	push	ecx
	mov	edx, DWORD PTR _min$6[ebp]
	push	edx
	push	0
	push	0
	mov	eax, DWORD PTR _sub$[ebp]
	mov	ecx, DWORD PTR [eax+12]
	push	ecx
	push	5
	mov	edx, DWORD PTR _ctxt$[ebp]
	push	edx
	call	_xmlExpHashGetEntry
	add	esp, 28					; 0000001cH
	mov	DWORD PTR _tmp2$[ebp], eax

; 7490 : 				      sub->exp_left, NULL, NULL, min, max);
; 7491 : 		    if (tmp2 == NULL) {

	cmp	DWORD PTR _tmp2$[ebp], 0
	jne	SHORT $LN39@xmlExpExpD

; 7492 : 		        xmlExpFree(ctxt, tmp);

	mov	eax, DWORD PTR _tmp$[ebp]
	push	eax
	mov	ecx, DWORD PTR _ctxt$[ebp]
	push	ecx
	call	_xmlExpFree
	add	esp, 8

; 7493 : 			return(NULL);

	xor	eax, eax
	jmp	$LN1@xmlExpExpD
$LN39@xmlExpExpD:

; 7494 : 		    }
; 7495 : 		    ret = xmlExpExpDeriveInt(ctxt, tmp, tmp2);

	mov	edx, DWORD PTR _tmp2$[ebp]
	push	edx
	mov	eax, DWORD PTR _tmp$[ebp]
	push	eax
	mov	ecx, DWORD PTR _ctxt$[ebp]
	push	ecx
	call	_xmlExpExpDeriveInt
	add	esp, 12					; 0000000cH
	mov	DWORD PTR _ret$[ebp], eax

; 7496 : 		    xmlExpFree(ctxt, tmp);

	mov	edx, DWORD PTR _tmp$[ebp]
	push	edx
	mov	eax, DWORD PTR _ctxt$[ebp]
	push	eax
	call	_xmlExpFree
	add	esp, 8

; 7497 : 		    xmlExpFree(ctxt, tmp2);

	mov	ecx, DWORD PTR _tmp2$[ebp]
	push	ecx
	mov	edx, DWORD PTR _ctxt$[ebp]
	push	edx
	call	_xmlExpFree
	add	esp, 8

; 7498 : 		    return(ret);

	mov	eax, DWORD PTR _ret$[ebp]
	jmp	$LN1@xmlExpExpD
$LN31@xmlExpExpD:

; 7499 : 		}
; 7500 : 	    }
; 7501 : 	    /* we made no progress on structured operations */
; 7502 : 	    break;

	jmp	$LN2@xmlExpExpD
$LN40@xmlExpExpD:

; 7503 :         case XML_EXP_OR:
; 7504 : #ifdef DEBUG_DERIV
; 7505 : 	    printf("Or , trying both side\n");
; 7506 : #endif
; 7507 : 	    ret = xmlExpExpDeriveInt(ctxt, exp->exp_left, sub);

	mov	eax, DWORD PTR _sub$[ebp]
	push	eax
	mov	ecx, DWORD PTR _exp$[ebp]
	mov	edx, DWORD PTR [ecx+12]
	push	edx
	mov	eax, DWORD PTR _ctxt$[ebp]
	push	eax
	call	_xmlExpExpDeriveInt
	add	esp, 12					; 0000000cH
	mov	DWORD PTR _ret$[ebp], eax

; 7508 : 	    if (ret == NULL)

	cmp	DWORD PTR _ret$[ebp], 0
	jne	SHORT $LN41@xmlExpExpD

; 7509 : 	        return(NULL);

	xor	eax, eax
	jmp	$LN1@xmlExpExpD
$LN41@xmlExpExpD:

; 7510 : 	    tmp = xmlExpExpDeriveInt(ctxt, exp->exp_right, sub);

	mov	ecx, DWORD PTR _sub$[ebp]
	push	ecx
	mov	edx, DWORD PTR _exp$[ebp]
	mov	eax, DWORD PTR [edx+20]
	push	eax
	mov	ecx, DWORD PTR _ctxt$[ebp]
	push	ecx
	call	_xmlExpExpDeriveInt
	add	esp, 12					; 0000000cH
	mov	DWORD PTR _tmp$[ebp], eax

; 7511 : 	    if (tmp == NULL) {

	cmp	DWORD PTR _tmp$[ebp], 0
	jne	SHORT $LN42@xmlExpExpD

; 7512 : 		xmlExpFree(ctxt, ret);

	mov	edx, DWORD PTR _ret$[ebp]
	push	edx
	mov	eax, DWORD PTR _ctxt$[ebp]
	push	eax
	call	_xmlExpFree
	add	esp, 8

; 7513 : 	        return(NULL);

	xor	eax, eax
	jmp	$LN1@xmlExpExpD
$LN42@xmlExpExpD:

; 7514 : 	    }
; 7515 : 	    return(xmlExpHashGetEntry(ctxt, XML_EXP_OR, ret, tmp, NULL, 0, 0));

	push	0
	push	0
	push	0
	mov	ecx, DWORD PTR _tmp$[ebp]
	push	ecx
	mov	edx, DWORD PTR _ret$[ebp]
	push	edx
	push	4
	mov	eax, DWORD PTR _ctxt$[ebp]
	push	eax
	call	_xmlExpHashGetEntry
	add	esp, 28					; 0000001cH
	jmp	$LN1@xmlExpExpD
$LN43@xmlExpExpD:

; 7516 :         case XML_EXP_COUNT: {
; 7517 : 	    int min, max;
; 7518 : 
; 7519 : 	    if (sub->type == XML_EXP_COUNT) {

	mov	ecx, DWORD PTR _sub$[ebp]
	movzx	edx, BYTE PTR [ecx]
	cmp	edx, 5
	jne	$LN44@xmlExpExpD

; 7520 : 	        /*
; 7521 : 		 * Try to see if the loop is completely subsumed
; 7522 : 		 */
; 7523 : 	        tmp = xmlExpExpDeriveInt(ctxt, exp->exp_left, sub->exp_left);

	mov	eax, DWORD PTR _sub$[ebp]
	mov	ecx, DWORD PTR [eax+12]
	push	ecx
	mov	edx, DWORD PTR _exp$[ebp]
	mov	eax, DWORD PTR [edx+12]
	push	eax
	mov	ecx, DWORD PTR _ctxt$[ebp]
	push	ecx
	call	_xmlExpExpDeriveInt
	add	esp, 12					; 0000000cH
	mov	DWORD PTR _tmp$[ebp], eax

; 7524 : 		if (tmp == NULL)

	cmp	DWORD PTR _tmp$[ebp], 0
	jne	SHORT $LN45@xmlExpExpD

; 7525 : 		    return(NULL);

	xor	eax, eax
	jmp	$LN1@xmlExpExpD
$LN45@xmlExpExpD:

; 7526 : 		if (tmp == forbiddenExp) {

	mov	edx, DWORD PTR _tmp$[ebp]
	cmp	edx, DWORD PTR _forbiddenExp
	jne	$LN46@xmlExpExpD

; 7527 : 		    int mult;
; 7528 : 
; 7529 : #ifdef DEBUG_DERIV
; 7530 : 		    printf("Count, Count inner don't subsume\n");
; 7531 : #endif
; 7532 : 		    mult = xmlExpDivide(ctxt, sub->exp_left, exp->exp_left,

	lea	eax, DWORD PTR _tmp$[ebp]
	push	eax
	push	0
	mov	ecx, DWORD PTR _exp$[ebp]
	mov	edx, DWORD PTR [ecx+12]
	push	edx
	mov	eax, DWORD PTR _sub$[ebp]
	mov	ecx, DWORD PTR [eax+12]
	push	ecx
	mov	edx, DWORD PTR _ctxt$[ebp]
	push	edx
	call	_xmlExpDivide
	add	esp, 20					; 00000014H
	mov	DWORD PTR _mult$2[ebp], eax

; 7533 : 		                        NULL, &tmp);
; 7534 : 		    if (mult <= 0) {

	cmp	DWORD PTR _mult$2[ebp], 0
	jg	SHORT $LN48@xmlExpExpD

; 7535 : #ifdef DEBUG_DERIV
; 7536 : 			printf("Count, Count not multiple => forbidden\n");
; 7537 : #endif
; 7538 :                         return(forbiddenExp);

	mov	eax, DWORD PTR _forbiddenExp
	jmp	$LN1@xmlExpExpD
$LN48@xmlExpExpD:

; 7539 : 		    }
; 7540 : 		    if (sub->exp_max == -1) {

	mov	eax, DWORD PTR _sub$[ebp]
	cmp	DWORD PTR [eax+24], -1
	jne	SHORT $LN49@xmlExpExpD

; 7541 : 		        max = -1;

	mov	DWORD PTR _max$3[ebp], -1

; 7542 : 			if (exp->exp_max == -1) {

	mov	ecx, DWORD PTR _exp$[ebp]
	cmp	DWORD PTR [ecx+24], -1
	jne	SHORT $LN51@xmlExpExpD

; 7543 : 			    if (exp->exp_min <= sub->exp_min * mult)

	mov	edx, DWORD PTR _sub$[ebp]
	mov	eax, DWORD PTR [edx+20]
	imul	eax, DWORD PTR _mult$2[ebp]
	mov	ecx, DWORD PTR _exp$[ebp]
	cmp	DWORD PTR [ecx+20], eax
	jg	SHORT $LN53@xmlExpExpD

; 7544 : 			        min = 0;

	mov	DWORD PTR _min$4[ebp], 0
	jmp	SHORT $LN54@xmlExpExpD
$LN53@xmlExpExpD:

; 7545 : 			    else
; 7546 : 			        min = exp->exp_min - sub->exp_min * mult;

	mov	edx, DWORD PTR _sub$[ebp]
	mov	eax, DWORD PTR [edx+20]
	imul	eax, DWORD PTR _mult$2[ebp]
	mov	ecx, DWORD PTR _exp$[ebp]
	mov	edx, DWORD PTR [ecx+20]
	sub	edx, eax
	mov	DWORD PTR _min$4[ebp], edx
$LN54@xmlExpExpD:

; 7547 : 			} else {

	jmp	SHORT $LN52@xmlExpExpD
$LN51@xmlExpExpD:

; 7548 : #ifdef DEBUG_DERIV
; 7549 : 			    printf("Count, Count finite can't subsume infinite\n");
; 7550 : #endif
; 7551 :                             xmlExpFree(ctxt, tmp);

	mov	eax, DWORD PTR _tmp$[ebp]
	push	eax
	mov	ecx, DWORD PTR _ctxt$[ebp]
	push	ecx
	call	_xmlExpFree
	add	esp, 8

; 7552 : 			    return(forbiddenExp);

	mov	eax, DWORD PTR _forbiddenExp
	jmp	$LN1@xmlExpExpD
$LN52@xmlExpExpD:

; 7553 : 			}
; 7554 : 		    } else {

	jmp	$LN50@xmlExpExpD
$LN49@xmlExpExpD:

; 7555 : 			if (exp->exp_max == -1) {

	mov	edx, DWORD PTR _exp$[ebp]
	cmp	DWORD PTR [edx+24], -1
	jne	SHORT $LN55@xmlExpExpD

; 7556 : #ifdef DEBUG_DERIV
; 7557 : 			    printf("Infinite loop consume mult finite loop\n");
; 7558 : #endif
; 7559 : 			    if (exp->exp_min > sub->exp_min * mult) {

	mov	eax, DWORD PTR _sub$[ebp]
	mov	ecx, DWORD PTR [eax+20]
	imul	ecx, DWORD PTR _mult$2[ebp]
	mov	edx, DWORD PTR _exp$[ebp]
	cmp	DWORD PTR [edx+20], ecx
	jle	SHORT $LN57@xmlExpExpD

; 7560 : 				max = -1;

	mov	DWORD PTR _max$3[ebp], -1

; 7561 : 				min = exp->exp_min - sub->exp_min * mult;

	mov	eax, DWORD PTR _sub$[ebp]
	mov	ecx, DWORD PTR [eax+20]
	imul	ecx, DWORD PTR _mult$2[ebp]
	mov	edx, DWORD PTR _exp$[ebp]
	mov	eax, DWORD PTR [edx+20]
	sub	eax, ecx
	mov	DWORD PTR _min$4[ebp], eax

; 7562 : 			    } else {

	jmp	SHORT $LN58@xmlExpExpD
$LN57@xmlExpExpD:

; 7563 : 				max = -1;

	mov	DWORD PTR _max$3[ebp], -1

; 7564 : 				min = 0;

	mov	DWORD PTR _min$4[ebp], 0
$LN58@xmlExpExpD:

; 7565 : 			    }
; 7566 : 			} else {

	jmp	SHORT $LN50@xmlExpExpD
$LN55@xmlExpExpD:

; 7567 : 			    if (exp->exp_max < sub->exp_max * mult) {

	mov	ecx, DWORD PTR _sub$[ebp]
	mov	edx, DWORD PTR [ecx+24]
	imul	edx, DWORD PTR _mult$2[ebp]
	mov	eax, DWORD PTR _exp$[ebp]
	cmp	DWORD PTR [eax+24], edx
	jge	SHORT $LN59@xmlExpExpD

; 7568 : #ifdef DEBUG_DERIV
; 7569 : 				printf("loops max mult mismatch => forbidden\n");
; 7570 : #endif
; 7571 : 				xmlExpFree(ctxt, tmp);

	mov	ecx, DWORD PTR _tmp$[ebp]
	push	ecx
	mov	edx, DWORD PTR _ctxt$[ebp]
	push	edx
	call	_xmlExpFree
	add	esp, 8

; 7572 : 				return(forbiddenExp);

	mov	eax, DWORD PTR _forbiddenExp
	jmp	$LN1@xmlExpExpD
$LN59@xmlExpExpD:

; 7573 : 			    }
; 7574 : 			    if (sub->exp_max * mult > exp->exp_min)

	mov	eax, DWORD PTR _sub$[ebp]
	mov	ecx, DWORD PTR [eax+24]
	imul	ecx, DWORD PTR _mult$2[ebp]
	mov	edx, DWORD PTR _exp$[ebp]
	cmp	ecx, DWORD PTR [edx+20]
	jle	SHORT $LN60@xmlExpExpD

; 7575 : 				min = 0;

	mov	DWORD PTR _min$4[ebp], 0
	jmp	SHORT $LN61@xmlExpExpD
$LN60@xmlExpExpD:

; 7576 : 			    else
; 7577 : 				min = exp->exp_min - sub->exp_max * mult;

	mov	eax, DWORD PTR _sub$[ebp]
	mov	ecx, DWORD PTR [eax+24]
	imul	ecx, DWORD PTR _mult$2[ebp]
	mov	edx, DWORD PTR _exp$[ebp]
	mov	eax, DWORD PTR [edx+20]
	sub	eax, ecx
	mov	DWORD PTR _min$4[ebp], eax
$LN61@xmlExpExpD:

; 7578 : 			    max = exp->exp_max - sub->exp_max * mult;

	mov	ecx, DWORD PTR _sub$[ebp]
	mov	edx, DWORD PTR [ecx+24]
	imul	edx, DWORD PTR _mult$2[ebp]
	mov	eax, DWORD PTR _exp$[ebp]
	mov	ecx, DWORD PTR [eax+24]
	sub	ecx, edx
	mov	DWORD PTR _max$3[ebp], ecx
$LN50@xmlExpExpD:

; 7579 : 			}
; 7580 : 		    }

	jmp	$LN47@xmlExpExpD
$LN46@xmlExpExpD:

; 7581 : 		} else if (!IS_NILLABLE(tmp)) {

	mov	edx, DWORD PTR _tmp$[ebp]
	movzx	eax, BYTE PTR [edx+1]
	and	eax, 1
	jne	SHORT $LN62@xmlExpExpD

; 7582 : 		    /*
; 7583 : 		     * TODO: loop here to try to grow if working on finite
; 7584 : 		     *       blocks.
; 7585 : 		     */
; 7586 : #ifdef DEBUG_DERIV
; 7587 : 		    printf("Count, Count remain not nillable => forbidden\n");
; 7588 : #endif
; 7589 : 		    xmlExpFree(ctxt, tmp);

	mov	ecx, DWORD PTR _tmp$[ebp]
	push	ecx
	mov	edx, DWORD PTR _ctxt$[ebp]
	push	edx
	call	_xmlExpFree
	add	esp, 8

; 7590 : 		    return(forbiddenExp);

	mov	eax, DWORD PTR _forbiddenExp
	jmp	$LN1@xmlExpExpD
	jmp	$LN47@xmlExpExpD
$LN62@xmlExpExpD:

; 7591 : 		} else if (sub->exp_max == -1) {

	mov	eax, DWORD PTR _sub$[ebp]
	cmp	DWORD PTR [eax+24], -1
	jne	SHORT $LN64@xmlExpExpD

; 7592 : 		    if (exp->exp_max == -1) {

	mov	ecx, DWORD PTR _exp$[ebp]
	cmp	DWORD PTR [ecx+24], -1
	jne	SHORT $LN66@xmlExpExpD

; 7593 : 		        if (exp->exp_min <= sub->exp_min) {

	mov	edx, DWORD PTR _exp$[ebp]
	mov	eax, DWORD PTR _sub$[ebp]
	mov	ecx, DWORD PTR [edx+20]
	cmp	ecx, DWORD PTR [eax+20]
	jg	SHORT $LN68@xmlExpExpD

; 7594 : #ifdef DEBUG_DERIV
; 7595 : 			    printf("Infinite loops Okay => COUNT(0,Inf)\n");
; 7596 : #endif
; 7597 :                             max = -1;

	mov	DWORD PTR _max$3[ebp], -1

; 7598 : 			    min = 0;

	mov	DWORD PTR _min$4[ebp], 0

; 7599 : 			} else {

	jmp	SHORT $LN69@xmlExpExpD
$LN68@xmlExpExpD:

; 7600 : #ifdef DEBUG_DERIV
; 7601 : 			    printf("Infinite loops min => Count(X,Inf)\n");
; 7602 : #endif
; 7603 :                             max = -1;

	mov	DWORD PTR _max$3[ebp], -1

; 7604 : 			    min = exp->exp_min - sub->exp_min;

	mov	edx, DWORD PTR _exp$[ebp]
	mov	eax, DWORD PTR _sub$[ebp]
	mov	ecx, DWORD PTR [edx+20]
	sub	ecx, DWORD PTR [eax+20]
	mov	DWORD PTR _min$4[ebp], ecx
$LN69@xmlExpExpD:

; 7605 : 			}

	jmp	SHORT $LN67@xmlExpExpD
$LN66@xmlExpExpD:

; 7606 : 		    } else if (exp->exp_min > sub->exp_min) {

	mov	edx, DWORD PTR _exp$[ebp]
	mov	eax, DWORD PTR _sub$[ebp]
	mov	ecx, DWORD PTR [edx+20]
	cmp	ecx, DWORD PTR [eax+20]
	jle	SHORT $LN70@xmlExpExpD

; 7607 : #ifdef DEBUG_DERIV
; 7608 : 			printf("loops min mismatch 1 => forbidden ???\n");
; 7609 : #endif
; 7610 : 		        xmlExpFree(ctxt, tmp);

	mov	edx, DWORD PTR _tmp$[ebp]
	push	edx
	mov	eax, DWORD PTR _ctxt$[ebp]
	push	eax
	call	_xmlExpFree
	add	esp, 8

; 7611 : 		        return(forbiddenExp);

	mov	eax, DWORD PTR _forbiddenExp
	jmp	$LN1@xmlExpExpD

; 7612 : 		    } else {

	jmp	SHORT $LN67@xmlExpExpD
$LN70@xmlExpExpD:

; 7613 : 			max = -1;

	mov	DWORD PTR _max$3[ebp], -1

; 7614 : 			min = 0;

	mov	DWORD PTR _min$4[ebp], 0
$LN67@xmlExpExpD:

; 7615 : 		    }
; 7616 : 		} else {

	jmp	$LN47@xmlExpExpD
$LN64@xmlExpExpD:

; 7617 : 		    if (exp->exp_max == -1) {

	mov	ecx, DWORD PTR _exp$[ebp]
	cmp	DWORD PTR [ecx+24], -1
	jne	SHORT $LN72@xmlExpExpD

; 7618 : #ifdef DEBUG_DERIV
; 7619 : 			printf("Infinite loop consume finite loop\n");
; 7620 : #endif
; 7621 : 		        if (exp->exp_min > sub->exp_min) {

	mov	edx, DWORD PTR _exp$[ebp]
	mov	eax, DWORD PTR _sub$[ebp]
	mov	ecx, DWORD PTR [edx+20]
	cmp	ecx, DWORD PTR [eax+20]
	jle	SHORT $LN74@xmlExpExpD

; 7622 : 			    max = -1;

	mov	DWORD PTR _max$3[ebp], -1

; 7623 : 			    min = exp->exp_min - sub->exp_min;

	mov	edx, DWORD PTR _exp$[ebp]
	mov	eax, DWORD PTR _sub$[ebp]
	mov	ecx, DWORD PTR [edx+20]
	sub	ecx, DWORD PTR [eax+20]
	mov	DWORD PTR _min$4[ebp], ecx

; 7624 : 			} else {

	jmp	SHORT $LN75@xmlExpExpD
$LN74@xmlExpExpD:

; 7625 : 			    max = -1;

	mov	DWORD PTR _max$3[ebp], -1

; 7626 : 			    min = 0;

	mov	DWORD PTR _min$4[ebp], 0
$LN75@xmlExpExpD:

; 7627 : 			}
; 7628 : 		    } else {

	jmp	SHORT $LN47@xmlExpExpD
$LN72@xmlExpExpD:

; 7629 : 		        if (exp->exp_max < sub->exp_max) {

	mov	edx, DWORD PTR _exp$[ebp]
	mov	eax, DWORD PTR _sub$[ebp]
	mov	ecx, DWORD PTR [edx+24]
	cmp	ecx, DWORD PTR [eax+24]
	jge	SHORT $LN76@xmlExpExpD

; 7630 : #ifdef DEBUG_DERIV
; 7631 : 			    printf("loops max mismatch => forbidden\n");
; 7632 : #endif
; 7633 : 			    xmlExpFree(ctxt, tmp);

	mov	edx, DWORD PTR _tmp$[ebp]
	push	edx
	mov	eax, DWORD PTR _ctxt$[ebp]
	push	eax
	call	_xmlExpFree
	add	esp, 8

; 7634 : 			    return(forbiddenExp);

	mov	eax, DWORD PTR _forbiddenExp
	jmp	$LN1@xmlExpExpD
$LN76@xmlExpExpD:

; 7635 : 			}
; 7636 : 			if (sub->exp_max > exp->exp_min)

	mov	ecx, DWORD PTR _sub$[ebp]
	mov	edx, DWORD PTR _exp$[ebp]
	mov	eax, DWORD PTR [ecx+24]
	cmp	eax, DWORD PTR [edx+20]
	jle	SHORT $LN77@xmlExpExpD

; 7637 : 			    min = 0;

	mov	DWORD PTR _min$4[ebp], 0
	jmp	SHORT $LN78@xmlExpExpD
$LN77@xmlExpExpD:

; 7638 : 			else
; 7639 : 			    min = exp->exp_min - sub->exp_max;

	mov	ecx, DWORD PTR _exp$[ebp]
	mov	edx, DWORD PTR _sub$[ebp]
	mov	eax, DWORD PTR [ecx+20]
	sub	eax, DWORD PTR [edx+24]
	mov	DWORD PTR _min$4[ebp], eax
$LN78@xmlExpExpD:

; 7640 : 			max = exp->exp_max - sub->exp_max;

	mov	ecx, DWORD PTR _exp$[ebp]
	mov	edx, DWORD PTR _sub$[ebp]
	mov	eax, DWORD PTR [ecx+24]
	sub	eax, DWORD PTR [edx+24]
	mov	DWORD PTR _max$3[ebp], eax
$LN47@xmlExpExpD:

; 7641 : 		    }
; 7642 : 		}
; 7643 : #ifdef DEBUG_DERIV
; 7644 : 		printf("loops match => SEQ(COUNT())\n");
; 7645 : #endif
; 7646 : 		exp->exp_left->ref++;

	mov	ecx, DWORD PTR _exp$[ebp]
	mov	edx, DWORD PTR [ecx+12]
	mov	eax, DWORD PTR [edx+4]
	add	eax, 1
	mov	ecx, DWORD PTR _exp$[ebp]
	mov	edx, DWORD PTR [ecx+12]
	mov	DWORD PTR [edx+4], eax

; 7647 : 		tmp2 = xmlExpHashGetEntry(ctxt, XML_EXP_COUNT, exp->exp_left,

	mov	eax, DWORD PTR _max$3[ebp]
	push	eax
	mov	ecx, DWORD PTR _min$4[ebp]
	push	ecx
	push	0
	push	0
	mov	edx, DWORD PTR _exp$[ebp]
	mov	eax, DWORD PTR [edx+12]
	push	eax
	push	5
	mov	ecx, DWORD PTR _ctxt$[ebp]
	push	ecx
	call	_xmlExpHashGetEntry
	add	esp, 28					; 0000001cH
	mov	DWORD PTR _tmp2$[ebp], eax

; 7648 : 		                          NULL, NULL, min, max);
; 7649 : 		if (tmp2 == NULL) {

	cmp	DWORD PTR _tmp2$[ebp], 0
	jne	SHORT $LN79@xmlExpExpD

; 7650 : 		    return(NULL);

	xor	eax, eax
	jmp	$LN1@xmlExpExpD
$LN79@xmlExpExpD:

; 7651 : 		}
; 7652 :                 ret = xmlExpHashGetEntry(ctxt, XML_EXP_SEQ, tmp, tmp2,

	push	0
	push	0
	push	0
	mov	edx, DWORD PTR _tmp2$[ebp]
	push	edx
	mov	eax, DWORD PTR _tmp$[ebp]
	push	eax
	push	3
	mov	ecx, DWORD PTR _ctxt$[ebp]
	push	ecx
	call	_xmlExpHashGetEntry
	add	esp, 28					; 0000001cH
	mov	DWORD PTR _ret$[ebp], eax

; 7653 : 		                         NULL, 0, 0);
; 7654 : 		return(ret);

	mov	eax, DWORD PTR _ret$[ebp]
	jmp	$LN1@xmlExpExpD
$LN44@xmlExpExpD:

; 7655 : 	    }
; 7656 : 	    tmp = xmlExpExpDeriveInt(ctxt, exp->exp_left, sub);

	mov	edx, DWORD PTR _sub$[ebp]
	push	edx
	mov	eax, DWORD PTR _exp$[ebp]
	mov	ecx, DWORD PTR [eax+12]
	push	ecx
	mov	edx, DWORD PTR _ctxt$[ebp]
	push	edx
	call	_xmlExpExpDeriveInt
	add	esp, 12					; 0000000cH
	mov	DWORD PTR _tmp$[ebp], eax

; 7657 : 	    if (tmp == NULL)

	cmp	DWORD PTR _tmp$[ebp], 0
	jne	SHORT $LN80@xmlExpExpD

; 7658 : 		return(NULL);

	xor	eax, eax
	jmp	$LN1@xmlExpExpD
$LN80@xmlExpExpD:

; 7659 : 	    if (tmp == forbiddenExp) {

	mov	eax, DWORD PTR _tmp$[ebp]
	cmp	eax, DWORD PTR _forbiddenExp
	jne	SHORT $LN81@xmlExpExpD

; 7660 : #ifdef DEBUG_DERIV
; 7661 : 		printf("loop mismatch => forbidden\n");
; 7662 : #endif
; 7663 : 		return(forbiddenExp);

	mov	eax, DWORD PTR _forbiddenExp
	jmp	$LN1@xmlExpExpD
$LN81@xmlExpExpD:

; 7664 : 	    }
; 7665 : 	    if (exp->exp_min > 0)

	mov	ecx, DWORD PTR _exp$[ebp]
	cmp	DWORD PTR [ecx+20], 0
	jle	SHORT $LN82@xmlExpExpD

; 7666 : 		min = exp->exp_min - 1;

	mov	edx, DWORD PTR _exp$[ebp]
	mov	eax, DWORD PTR [edx+20]
	sub	eax, 1
	mov	DWORD PTR _min$4[ebp], eax
	jmp	SHORT $LN83@xmlExpExpD
$LN82@xmlExpExpD:

; 7667 : 	    else
; 7668 : 		min = 0;

	mov	DWORD PTR _min$4[ebp], 0
$LN83@xmlExpExpD:

; 7669 : 	    if (exp->exp_max < 0)

	mov	ecx, DWORD PTR _exp$[ebp]
	cmp	DWORD PTR [ecx+24], 0
	jge	SHORT $LN84@xmlExpExpD

; 7670 : 		max = -1;

	mov	DWORD PTR _max$3[ebp], -1
	jmp	SHORT $LN85@xmlExpExpD
$LN84@xmlExpExpD:

; 7671 : 	    else
; 7672 : 		max = exp->exp_max - 1;

	mov	edx, DWORD PTR _exp$[ebp]
	mov	eax, DWORD PTR [edx+24]
	sub	eax, 1
	mov	DWORD PTR _max$3[ebp], eax
$LN85@xmlExpExpD:

; 7673 : 
; 7674 : #ifdef DEBUG_DERIV
; 7675 : 	    printf("loop match => SEQ(COUNT())\n");
; 7676 : #endif
; 7677 : 	    exp->exp_left->ref++;

	mov	ecx, DWORD PTR _exp$[ebp]
	mov	edx, DWORD PTR [ecx+12]
	mov	eax, DWORD PTR [edx+4]
	add	eax, 1
	mov	ecx, DWORD PTR _exp$[ebp]
	mov	edx, DWORD PTR [ecx+12]
	mov	DWORD PTR [edx+4], eax

; 7678 : 	    tmp2 = xmlExpHashGetEntry(ctxt, XML_EXP_COUNT, exp->exp_left,

	mov	eax, DWORD PTR _max$3[ebp]
	push	eax
	mov	ecx, DWORD PTR _min$4[ebp]
	push	ecx
	push	0
	push	0
	mov	edx, DWORD PTR _exp$[ebp]
	mov	eax, DWORD PTR [edx+12]
	push	eax
	push	5
	mov	ecx, DWORD PTR _ctxt$[ebp]
	push	ecx
	call	_xmlExpHashGetEntry
	add	esp, 28					; 0000001cH
	mov	DWORD PTR _tmp2$[ebp], eax

; 7679 : 				      NULL, NULL, min, max);
; 7680 : 	    if (tmp2 == NULL)

	cmp	DWORD PTR _tmp2$[ebp], 0
	jne	SHORT $LN86@xmlExpExpD

; 7681 : 		return(NULL);

	xor	eax, eax
	jmp	$LN1@xmlExpExpD
$LN86@xmlExpExpD:

; 7682 : 	    ret = xmlExpHashGetEntry(ctxt, XML_EXP_SEQ, tmp, tmp2,

	push	0
	push	0
	push	0
	mov	edx, DWORD PTR _tmp2$[ebp]
	push	edx
	mov	eax, DWORD PTR _tmp$[ebp]
	push	eax
	push	3
	mov	ecx, DWORD PTR _ctxt$[ebp]
	push	ecx
	call	_xmlExpHashGetEntry
	add	esp, 28					; 0000001cH
	mov	DWORD PTR _ret$[ebp], eax

; 7683 : 				     NULL, 0, 0);
; 7684 : 	    return(ret);

	mov	eax, DWORD PTR _ret$[ebp]
	jmp	$LN1@xmlExpExpD
$LN2@xmlExpExpD:

; 7685 : 	}
; 7686 :     }
; 7687 : 
; 7688 : #ifdef DEBUG_DERIV
; 7689 :     printf("Fallback to derivative\n");
; 7690 : #endif
; 7691 :     if (IS_NILLABLE(sub)) {

	mov	edx, DWORD PTR _sub$[ebp]
	movzx	eax, BYTE PTR [edx+1]
	and	eax, 1
	je	SHORT $LN87@xmlExpExpD

; 7692 :         if (!(IS_NILLABLE(exp)))

	mov	ecx, DWORD PTR _exp$[ebp]
	movzx	edx, BYTE PTR [ecx+1]
	and	edx, 1
	jne	SHORT $LN89@xmlExpExpD

; 7693 : 	    return(forbiddenExp);

	mov	eax, DWORD PTR _forbiddenExp
	jmp	$LN1@xmlExpExpD
	jmp	SHORT $LN90@xmlExpExpD
$LN89@xmlExpExpD:

; 7694 : 	else
; 7695 : 	    ret = emptyExp;

	mov	eax, DWORD PTR _emptyExp
	mov	DWORD PTR _ret$[ebp], eax
$LN90@xmlExpExpD:

; 7696 :     } else

	jmp	SHORT $LN88@xmlExpExpD
$LN87@xmlExpExpD:

; 7697 : 	ret = NULL;

	mov	DWORD PTR _ret$[ebp], 0
$LN88@xmlExpExpD:

; 7698 :     /*
; 7699 :      * here the structured derivation made no progress so
; 7700 :      * we use the default token based derivation to force one more step
; 7701 :      */
; 7702 :     if (ctxt->tabSize == 0)

	mov	ecx, DWORD PTR _ctxt$[ebp]
	cmp	DWORD PTR [ecx+36], 0
	jne	SHORT $LN91@xmlExpExpD

; 7703 :         ctxt->tabSize = 40;

	mov	edx, DWORD PTR _ctxt$[ebp]
	mov	DWORD PTR [edx+36], 40			; 00000028H
$LN91@xmlExpExpD:

; 7704 : 
; 7705 :     tab = (const xmlChar **) xmlMalloc(ctxt->tabSize *

	mov	eax, DWORD PTR _ctxt$[ebp]
	mov	ecx, DWORD PTR [eax+36]
	shl	ecx, 2
	mov	esi, esp
	push	ecx
	call	DWORD PTR _xmlMalloc
	add	esp, 4
	cmp	esi, esp
	call	__RTC_CheckEsp
	mov	DWORD PTR _tab$[ebp], eax

; 7706 : 	                               sizeof(const xmlChar *));
; 7707 :     if (tab == NULL) {

	cmp	DWORD PTR _tab$[ebp], 0
	jne	SHORT $LN92@xmlExpExpD

; 7708 : 	return(NULL);

	xor	eax, eax
	jmp	$LN1@xmlExpExpD
$LN92@xmlExpExpD:

; 7709 :     }
; 7710 : 
; 7711 :     /*
; 7712 :      * collect all the strings accepted by the subexpression on input
; 7713 :      */
; 7714 :     len = xmlExpGetStartInt(ctxt, sub, tab, ctxt->tabSize, 0);

	push	0
	mov	edx, DWORD PTR _ctxt$[ebp]
	mov	eax, DWORD PTR [edx+36]
	push	eax
	mov	ecx, DWORD PTR _tab$[ebp]
	push	ecx
	mov	edx, DWORD PTR _sub$[ebp]
	push	edx
	mov	eax, DWORD PTR _ctxt$[ebp]
	push	eax
	call	_xmlExpGetStartInt
	add	esp, 20					; 00000014H
	mov	DWORD PTR _len$[ebp], eax
$LN4@xmlExpExpD:

; 7715 :     while (len < 0) {

	cmp	DWORD PTR _len$[ebp], 0
	jge	$LN5@xmlExpExpD

; 7716 :         const xmlChar **temp;
; 7717 : 	temp = (const xmlChar **) xmlRealloc((xmlChar **) tab, ctxt->tabSize * 2 *

	mov	ecx, DWORD PTR _ctxt$[ebp]
	mov	edx, DWORD PTR [ecx+36]
	shl	edx, 1
	shl	edx, 2
	mov	esi, esp
	push	edx
	mov	eax, DWORD PTR _tab$[ebp]
	push	eax
	call	DWORD PTR _xmlRealloc
	add	esp, 8
	cmp	esi, esp
	call	__RTC_CheckEsp
	mov	DWORD PTR _temp$1[ebp], eax

; 7718 : 	                                     sizeof(const xmlChar *));
; 7719 : 	if (temp == NULL) {

	cmp	DWORD PTR _temp$1[ebp], 0
	jne	SHORT $LN93@xmlExpExpD

; 7720 : 	    xmlFree((xmlChar **) tab);

	mov	esi, esp
	mov	ecx, DWORD PTR _tab$[ebp]
	push	ecx
	call	DWORD PTR _xmlFree
	add	esp, 4
	cmp	esi, esp
	call	__RTC_CheckEsp

; 7721 : 	    return(NULL);

	xor	eax, eax
	jmp	$LN1@xmlExpExpD
$LN93@xmlExpExpD:

; 7722 : 	}
; 7723 : 	tab = temp;

	mov	edx, DWORD PTR _temp$1[ebp]
	mov	DWORD PTR _tab$[ebp], edx

; 7724 : 	ctxt->tabSize *= 2;

	mov	eax, DWORD PTR _ctxt$[ebp]
	mov	ecx, DWORD PTR [eax+36]
	shl	ecx, 1
	mov	edx, DWORD PTR _ctxt$[ebp]
	mov	DWORD PTR [edx+36], ecx

; 7725 : 	len = xmlExpGetStartInt(ctxt, sub, tab, ctxt->tabSize, 0);

	push	0
	mov	eax, DWORD PTR _ctxt$[ebp]
	mov	ecx, DWORD PTR [eax+36]
	push	ecx
	mov	edx, DWORD PTR _tab$[ebp]
	push	edx
	mov	eax, DWORD PTR _sub$[ebp]
	push	eax
	mov	ecx, DWORD PTR _ctxt$[ebp]
	push	ecx
	call	_xmlExpGetStartInt
	add	esp, 20					; 00000014H
	mov	DWORD PTR _len$[ebp], eax

; 7726 :     }

	jmp	$LN4@xmlExpExpD
$LN5@xmlExpExpD:

; 7727 :     for (i = 0;i < len;i++) {

	mov	DWORD PTR _i$[ebp], 0
	jmp	SHORT $LN8@xmlExpExpD
$LN6@xmlExpExpD:
	mov	edx, DWORD PTR _i$[ebp]
	add	edx, 1
	mov	DWORD PTR _i$[ebp], edx
$LN8@xmlExpExpD:
	mov	eax, DWORD PTR _i$[ebp]
	cmp	eax, DWORD PTR _len$[ebp]
	jge	$LN7@xmlExpExpD

; 7728 :         tmp = xmlExpStringDeriveInt(ctxt, exp, tab[i]);

	mov	ecx, DWORD PTR _i$[ebp]
	mov	edx, DWORD PTR _tab$[ebp]
	mov	eax, DWORD PTR [edx+ecx*4]
	push	eax
	mov	ecx, DWORD PTR _exp$[ebp]
	push	ecx
	mov	edx, DWORD PTR _ctxt$[ebp]
	push	edx
	call	_xmlExpStringDeriveInt
	add	esp, 12					; 0000000cH
	mov	DWORD PTR _tmp$[ebp], eax

; 7729 : 	if ((tmp == NULL) || (tmp == forbiddenExp)) {

	cmp	DWORD PTR _tmp$[ebp], 0
	je	SHORT $LN95@xmlExpExpD
	mov	eax, DWORD PTR _tmp$[ebp]
	cmp	eax, DWORD PTR _forbiddenExp
	jne	SHORT $LN94@xmlExpExpD
$LN95@xmlExpExpD:

; 7730 : 	    xmlExpFree(ctxt, ret);

	mov	ecx, DWORD PTR _ret$[ebp]
	push	ecx
	mov	edx, DWORD PTR _ctxt$[ebp]
	push	edx
	call	_xmlExpFree
	add	esp, 8

; 7731 : 	    xmlFree((xmlChar **) tab);

	mov	esi, esp
	mov	eax, DWORD PTR _tab$[ebp]
	push	eax
	call	DWORD PTR _xmlFree
	add	esp, 4
	cmp	esi, esp
	call	__RTC_CheckEsp

; 7732 : 	    return(tmp);

	mov	eax, DWORD PTR _tmp$[ebp]
	jmp	$LN1@xmlExpExpD
$LN94@xmlExpExpD:

; 7733 : 	}
; 7734 : 	tmp2 = xmlExpStringDeriveInt(ctxt, sub, tab[i]);

	mov	ecx, DWORD PTR _i$[ebp]
	mov	edx, DWORD PTR _tab$[ebp]
	mov	eax, DWORD PTR [edx+ecx*4]
	push	eax
	mov	ecx, DWORD PTR _sub$[ebp]
	push	ecx
	mov	edx, DWORD PTR _ctxt$[ebp]
	push	edx
	call	_xmlExpStringDeriveInt
	add	esp, 12					; 0000000cH
	mov	DWORD PTR _tmp2$[ebp], eax

; 7735 : 	if ((tmp2 == NULL) || (tmp2 == forbiddenExp)) {

	cmp	DWORD PTR _tmp2$[ebp], 0
	je	SHORT $LN97@xmlExpExpD
	mov	eax, DWORD PTR _tmp2$[ebp]
	cmp	eax, DWORD PTR _forbiddenExp
	jne	SHORT $LN96@xmlExpExpD
$LN97@xmlExpExpD:

; 7736 : 	    xmlExpFree(ctxt, tmp);

	mov	ecx, DWORD PTR _tmp$[ebp]
	push	ecx
	mov	edx, DWORD PTR _ctxt$[ebp]
	push	edx
	call	_xmlExpFree
	add	esp, 8

; 7737 : 	    xmlExpFree(ctxt, ret);

	mov	eax, DWORD PTR _ret$[ebp]
	push	eax
	mov	ecx, DWORD PTR _ctxt$[ebp]
	push	ecx
	call	_xmlExpFree
	add	esp, 8

; 7738 : 	    xmlFree((xmlChar **) tab);

	mov	esi, esp
	mov	edx, DWORD PTR _tab$[ebp]
	push	edx
	call	DWORD PTR _xmlFree
	add	esp, 4
	cmp	esi, esp
	call	__RTC_CheckEsp

; 7739 : 	    return(tmp);

	mov	eax, DWORD PTR _tmp$[ebp]
	jmp	$LN1@xmlExpExpD
$LN96@xmlExpExpD:

; 7740 : 	}
; 7741 : 	tmp3 = xmlExpExpDeriveInt(ctxt, tmp, tmp2);

	mov	eax, DWORD PTR _tmp2$[ebp]
	push	eax
	mov	ecx, DWORD PTR _tmp$[ebp]
	push	ecx
	mov	edx, DWORD PTR _ctxt$[ebp]
	push	edx
	call	_xmlExpExpDeriveInt
	add	esp, 12					; 0000000cH
	mov	DWORD PTR _tmp3$[ebp], eax

; 7742 : 	xmlExpFree(ctxt, tmp);

	mov	eax, DWORD PTR _tmp$[ebp]
	push	eax
	mov	ecx, DWORD PTR _ctxt$[ebp]
	push	ecx
	call	_xmlExpFree
	add	esp, 8

; 7743 : 	xmlExpFree(ctxt, tmp2);

	mov	edx, DWORD PTR _tmp2$[ebp]
	push	edx
	mov	eax, DWORD PTR _ctxt$[ebp]
	push	eax
	call	_xmlExpFree
	add	esp, 8

; 7744 : 
; 7745 : 	if ((tmp3 == NULL) || (tmp3 == forbiddenExp)) {

	cmp	DWORD PTR _tmp3$[ebp], 0
	je	SHORT $LN99@xmlExpExpD
	mov	ecx, DWORD PTR _tmp3$[ebp]
	cmp	ecx, DWORD PTR _forbiddenExp
	jne	SHORT $LN98@xmlExpExpD
$LN99@xmlExpExpD:

; 7746 : 	    xmlExpFree(ctxt, ret);

	mov	edx, DWORD PTR _ret$[ebp]
	push	edx
	mov	eax, DWORD PTR _ctxt$[ebp]
	push	eax
	call	_xmlExpFree
	add	esp, 8

; 7747 : 	    xmlFree((xmlChar **) tab);

	mov	esi, esp
	mov	ecx, DWORD PTR _tab$[ebp]
	push	ecx
	call	DWORD PTR _xmlFree
	add	esp, 4
	cmp	esi, esp
	call	__RTC_CheckEsp

; 7748 : 	    return(tmp3);

	mov	eax, DWORD PTR _tmp3$[ebp]
	jmp	SHORT $LN1@xmlExpExpD
$LN98@xmlExpExpD:

; 7749 : 	}
; 7750 : 
; 7751 : 	if (ret == NULL)

	cmp	DWORD PTR _ret$[ebp], 0
	jne	SHORT $LN100@xmlExpExpD

; 7752 : 	    ret = tmp3;

	mov	edx, DWORD PTR _tmp3$[ebp]
	mov	DWORD PTR _ret$[ebp], edx
	jmp	SHORT $LN101@xmlExpExpD
$LN100@xmlExpExpD:

; 7753 : 	else {
; 7754 : 	    ret = xmlExpHashGetEntry(ctxt, XML_EXP_OR, ret, tmp3, NULL, 0, 0);

	push	0
	push	0
	push	0
	mov	eax, DWORD PTR _tmp3$[ebp]
	push	eax
	mov	ecx, DWORD PTR _ret$[ebp]
	push	ecx
	push	4
	mov	edx, DWORD PTR _ctxt$[ebp]
	push	edx
	call	_xmlExpHashGetEntry
	add	esp, 28					; 0000001cH
	mov	DWORD PTR _ret$[ebp], eax

; 7755 : 	    if (ret == NULL) {

	cmp	DWORD PTR _ret$[ebp], 0
	jne	SHORT $LN101@xmlExpExpD

; 7756 : 		xmlFree((xmlChar **) tab);

	mov	esi, esp
	mov	eax, DWORD PTR _tab$[ebp]
	push	eax
	call	DWORD PTR _xmlFree
	add	esp, 4
	cmp	esi, esp
	call	__RTC_CheckEsp

; 7757 : 	        return(NULL);

	xor	eax, eax
	jmp	SHORT $LN1@xmlExpExpD
$LN101@xmlExpExpD:

; 7758 : 	    }
; 7759 : 	}
; 7760 :     }

	jmp	$LN6@xmlExpExpD
$LN7@xmlExpExpD:

; 7761 :     xmlFree((xmlChar **) tab);

	mov	esi, esp
	mov	ecx, DWORD PTR _tab$[ebp]
	push	ecx
	call	DWORD PTR _xmlFree
	add	esp, 4
	cmp	esi, esp
	call	__RTC_CheckEsp

; 7762 :     return(ret);

	mov	eax, DWORD PTR _ret$[ebp]
$LN1@xmlExpExpD:

; 7763 : }

	push	edx
	mov	ecx, ebp
	push	eax
	lea	edx, DWORD PTR $LN106@xmlExpExpD
	call	@_RTC_CheckStackVars@8
	pop	eax
	pop	edx
	pop	edi
	pop	esi
	add	esp, 64					; 00000040H
	cmp	ebp, esp
	call	__RTC_CheckEsp
	mov	esp, ebp
	pop	ebp
	ret	0
	npad	3
$LN106@xmlExpExpD:
	DD	1
	DD	$LN105@xmlExpExpD
$LN105@xmlExpExpD:
	DD	-12					; fffffff4H
	DD	4
	DD	$LN104@xmlExpExpD
$LN104@xmlExpExpD:
	DB	116					; 00000074H
	DB	109					; 0000006dH
	DB	112					; 00000070H
	DB	0
$LN107@xmlExpExpD:
	DD	$LN20@xmlExpExpD
	DD	$LN22@xmlExpExpD
	DD	$LN23@xmlExpExpD
	DD	$LN28@xmlExpExpD
	DD	$LN40@xmlExpExpD
	DD	$LN43@xmlExpExpD
_xmlExpExpDeriveInt ENDP
_TEXT	ENDS
; Function compile flags: /Odtp /RTCsu
; File c:\users\dag\documents\_clients\codeproject authors group\windows on arm\libxml2\libxml2-2.9.9\xmlregexp.c
;	COMDAT _xmlExpCheckCard
_TEXT	SEGMENT
_ret$ = -4						; size = 4
_exp$ = 8						; size = 4
_sub$ = 12						; size = 4
_xmlExpCheckCard PROC					; COMDAT

; 7231 : xmlExpCheckCard(xmlExpNodePtr exp, xmlExpNodePtr sub) {

	push	ebp
	mov	ebp, esp
	push	ecx
	mov	DWORD PTR [ebp-4], -858993460		; ccccccccH
	mov	ecx, OFFSET __F6DD4902_xmlregexp@c
	call	@__CheckForDebuggerJustMyCode@4

; 7232 :     int ret = 1;

	mov	DWORD PTR _ret$[ebp], 1

; 7233 : 
; 7234 :     if (sub->c_max == -1) {

	mov	eax, DWORD PTR _sub$[ebp]
	cmp	DWORD PTR [eax+8], -1
	jne	SHORT $LN2@xmlExpChec

; 7235 :         if (exp->c_max != -1)

	mov	ecx, DWORD PTR _exp$[ebp]
	cmp	DWORD PTR [ecx+8], -1
	je	SHORT $LN4@xmlExpChec

; 7236 : 	    ret = 0;

	mov	DWORD PTR _ret$[ebp], 0
$LN4@xmlExpChec:

; 7237 :     } else if ((exp->c_max >= 0) && (exp->c_max < sub->c_max)) {

	jmp	SHORT $LN3@xmlExpChec
$LN2@xmlExpChec:
	mov	edx, DWORD PTR _exp$[ebp]
	cmp	DWORD PTR [edx+8], 0
	jl	SHORT $LN3@xmlExpChec
	mov	eax, DWORD PTR _exp$[ebp]
	mov	ecx, DWORD PTR _sub$[ebp]
	mov	edx, DWORD PTR [eax+8]
	cmp	edx, DWORD PTR [ecx+8]
	jge	SHORT $LN3@xmlExpChec

; 7238 :         ret = 0;

	mov	DWORD PTR _ret$[ebp], 0
$LN3@xmlExpChec:

; 7239 :     }
; 7240 : #if 0
; 7241 :     if ((IS_NILLABLE(sub)) && (!IS_NILLABLE(exp)))
; 7242 :         ret = 0;
; 7243 : #endif
; 7244 :     return(ret);

	mov	eax, DWORD PTR _ret$[ebp]

; 7245 : }

	add	esp, 4
	cmp	ebp, esp
	call	__RTC_CheckEsp
	mov	esp, ebp
	pop	ebp
	ret	0
_xmlExpCheckCard ENDP
_TEXT	ENDS
; Function compile flags: /Odtp /RTCsu
; File c:\users\dag\documents\_clients\codeproject authors group\windows on arm\libxml2\libxml2-2.9.9\xmlregexp.c
;	COMDAT _xmlExpStringDeriveInt
_TEXT	SEGMENT
tv66 = -24						; size = 4
_tmp$1 = -20						; size = 4
_max$2 = -16						; size = 4
_min$3 = -12						; size = 4
_tmp$4 = -8						; size = 4
_ret$ = -4						; size = 4
_ctxt$ = 8						; size = 4
_exp$ = 12						; size = 4
_str$ = 16						; size = 4
_xmlExpStringDeriveInt PROC				; COMDAT

; 7091 : {

	push	ebp
	mov	ebp, esp
	sub	esp, 24					; 00000018H
	mov	eax, -858993460				; ccccccccH
	mov	DWORD PTR [ebp-24], eax
	mov	DWORD PTR [ebp-20], eax
	mov	DWORD PTR [ebp-16], eax
	mov	DWORD PTR [ebp-12], eax
	mov	DWORD PTR [ebp-8], eax
	mov	DWORD PTR [ebp-4], eax
	mov	ecx, OFFSET __F6DD4902_xmlregexp@c
	call	@__CheckForDebuggerJustMyCode@4

; 7092 :     xmlExpNodePtr ret;
; 7093 : 
; 7094 :     switch (exp->type) {

	mov	eax, DWORD PTR _exp$[ebp]
	movzx	ecx, BYTE PTR [eax]
	mov	DWORD PTR tv66[ebp], ecx
	cmp	DWORD PTR tv66[ebp], 5
	ja	$LN2@xmlExpStri
	mov	edx, DWORD PTR tv66[ebp]
	jmp	DWORD PTR $LN29@xmlExpStri[edx*4]
$LN4@xmlExpStri:

; 7095 : 	case XML_EXP_EMPTY:
; 7096 : 	    return(forbiddenExp);

	mov	eax, DWORD PTR _forbiddenExp
	jmp	$LN1@xmlExpStri
$LN5@xmlExpStri:

; 7097 : 	case XML_EXP_FORBID:
; 7098 : 	    return(forbiddenExp);

	mov	eax, DWORD PTR _forbiddenExp
	jmp	$LN1@xmlExpStri
$LN6@xmlExpStri:

; 7099 : 	case XML_EXP_ATOM:
; 7100 : 	    if (exp->exp_str == str) {

	mov	eax, DWORD PTR _exp$[ebp]
	mov	ecx, DWORD PTR [eax+20]
	cmp	ecx, DWORD PTR _str$[ebp]
	jne	SHORT $LN7@xmlExpStri

; 7101 : #ifdef DEBUG_DERIV
; 7102 : 		printf("deriv atom: equal => Empty\n");
; 7103 : #endif
; 7104 : 	        ret = emptyExp;

	mov	edx, DWORD PTR _emptyExp
	mov	DWORD PTR _ret$[ebp], edx

; 7105 : 	    } else {

	jmp	SHORT $LN8@xmlExpStri
$LN7@xmlExpStri:

; 7106 : #ifdef DEBUG_DERIV
; 7107 : 		printf("deriv atom: mismatch => forbid\n");
; 7108 : #endif
; 7109 : 	        /* TODO wildcards here */
; 7110 : 		ret = forbiddenExp;

	mov	eax, DWORD PTR _forbiddenExp
	mov	DWORD PTR _ret$[ebp], eax
$LN8@xmlExpStri:

; 7111 : 	    }
; 7112 : 	    return(ret);

	mov	eax, DWORD PTR _ret$[ebp]
	jmp	$LN1@xmlExpStri
$LN9@xmlExpStri:

; 7113 : 	case XML_EXP_OR: {
; 7114 : 	    xmlExpNodePtr tmp;
; 7115 : 
; 7116 : #ifdef DEBUG_DERIV
; 7117 : 	    printf("deriv or: => or(derivs)\n");
; 7118 : #endif
; 7119 : 	    tmp = xmlExpStringDeriveInt(ctxt, exp->exp_left, str);

	mov	ecx, DWORD PTR _str$[ebp]
	push	ecx
	mov	edx, DWORD PTR _exp$[ebp]
	mov	eax, DWORD PTR [edx+12]
	push	eax
	mov	ecx, DWORD PTR _ctxt$[ebp]
	push	ecx
	call	_xmlExpStringDeriveInt
	add	esp, 12					; 0000000cH
	mov	DWORD PTR _tmp$4[ebp], eax

; 7120 : 	    if (tmp == NULL) {

	cmp	DWORD PTR _tmp$4[ebp], 0
	jne	SHORT $LN10@xmlExpStri

; 7121 : 		return(NULL);

	xor	eax, eax
	jmp	$LN1@xmlExpStri
$LN10@xmlExpStri:

; 7122 : 	    }
; 7123 : 	    ret = xmlExpStringDeriveInt(ctxt, exp->exp_right, str);

	mov	edx, DWORD PTR _str$[ebp]
	push	edx
	mov	eax, DWORD PTR _exp$[ebp]
	mov	ecx, DWORD PTR [eax+20]
	push	ecx
	mov	edx, DWORD PTR _ctxt$[ebp]
	push	edx
	call	_xmlExpStringDeriveInt
	add	esp, 12					; 0000000cH
	mov	DWORD PTR _ret$[ebp], eax

; 7124 : 	    if (ret == NULL) {

	cmp	DWORD PTR _ret$[ebp], 0
	jne	SHORT $LN11@xmlExpStri

; 7125 : 	        xmlExpFree(ctxt, tmp);

	mov	eax, DWORD PTR _tmp$4[ebp]
	push	eax
	mov	ecx, DWORD PTR _ctxt$[ebp]
	push	ecx
	call	_xmlExpFree
	add	esp, 8

; 7126 : 		return(NULL);

	xor	eax, eax
	jmp	$LN1@xmlExpStri
$LN11@xmlExpStri:

; 7127 : 	    }
; 7128 :             ret = xmlExpHashGetEntry(ctxt, XML_EXP_OR, tmp, ret,

	push	0
	push	0
	push	0
	mov	edx, DWORD PTR _ret$[ebp]
	push	edx
	mov	eax, DWORD PTR _tmp$4[ebp]
	push	eax
	push	4
	mov	ecx, DWORD PTR _ctxt$[ebp]
	push	ecx
	call	_xmlExpHashGetEntry
	add	esp, 28					; 0000001cH
	mov	DWORD PTR _ret$[ebp], eax

; 7129 : 			     NULL, 0, 0);
; 7130 : 	    return(ret);

	mov	eax, DWORD PTR _ret$[ebp]
	jmp	$LN1@xmlExpStri
$LN12@xmlExpStri:

; 7131 : 	}
; 7132 : 	case XML_EXP_SEQ:
; 7133 : #ifdef DEBUG_DERIV
; 7134 : 	    printf("deriv seq: starting with left\n");
; 7135 : #endif
; 7136 : 	    ret = xmlExpStringDeriveInt(ctxt, exp->exp_left, str);

	mov	edx, DWORD PTR _str$[ebp]
	push	edx
	mov	eax, DWORD PTR _exp$[ebp]
	mov	ecx, DWORD PTR [eax+12]
	push	ecx
	mov	edx, DWORD PTR _ctxt$[ebp]
	push	edx
	call	_xmlExpStringDeriveInt
	add	esp, 12					; 0000000cH
	mov	DWORD PTR _ret$[ebp], eax

; 7137 : 	    if (ret == NULL) {

	cmp	DWORD PTR _ret$[ebp], 0
	jne	SHORT $LN13@xmlExpStri

; 7138 : 	        return(NULL);

	xor	eax, eax
	jmp	$LN1@xmlExpStri
	jmp	SHORT $LN14@xmlExpStri
$LN13@xmlExpStri:

; 7139 : 	    } else if (ret == forbiddenExp) {

	mov	eax, DWORD PTR _ret$[ebp]
	cmp	eax, DWORD PTR _forbiddenExp
	jne	SHORT $LN15@xmlExpStri

; 7140 : 	        if (IS_NILLABLE(exp->exp_left)) {

	mov	ecx, DWORD PTR _exp$[ebp]
	mov	edx, DWORD PTR [ecx+12]
	movzx	eax, BYTE PTR [edx+1]
	and	eax, 1
	je	SHORT $LN17@xmlExpStri

; 7141 : #ifdef DEBUG_DERIV
; 7142 : 		    printf("deriv seq: left failed but nillable\n");
; 7143 : #endif
; 7144 : 		    ret = xmlExpStringDeriveInt(ctxt, exp->exp_right, str);

	mov	ecx, DWORD PTR _str$[ebp]
	push	ecx
	mov	edx, DWORD PTR _exp$[ebp]
	mov	eax, DWORD PTR [edx+20]
	push	eax
	mov	ecx, DWORD PTR _ctxt$[ebp]
	push	ecx
	call	_xmlExpStringDeriveInt
	add	esp, 12					; 0000000cH
	mov	DWORD PTR _ret$[ebp], eax
$LN17@xmlExpStri:

; 7145 : 		}
; 7146 : 	    } else {

	jmp	SHORT $LN14@xmlExpStri
$LN15@xmlExpStri:

; 7147 : #ifdef DEBUG_DERIV
; 7148 : 		printf("deriv seq: left match => sequence\n");
; 7149 : #endif
; 7150 : 	        exp->exp_right->ref++;

	mov	edx, DWORD PTR _exp$[ebp]
	mov	eax, DWORD PTR [edx+20]
	mov	ecx, DWORD PTR [eax+4]
	add	ecx, 1
	mov	edx, DWORD PTR _exp$[ebp]
	mov	eax, DWORD PTR [edx+20]
	mov	DWORD PTR [eax+4], ecx

; 7151 : 	        ret = xmlExpHashGetEntry(ctxt, XML_EXP_SEQ, ret, exp->exp_right,

	push	0
	push	0
	push	0
	mov	ecx, DWORD PTR _exp$[ebp]
	mov	edx, DWORD PTR [ecx+20]
	push	edx
	mov	eax, DWORD PTR _ret$[ebp]
	push	eax
	push	3
	mov	ecx, DWORD PTR _ctxt$[ebp]
	push	ecx
	call	_xmlExpHashGetEntry
	add	esp, 28					; 0000001cH
	mov	DWORD PTR _ret$[ebp], eax
$LN14@xmlExpStri:

; 7152 : 		                         NULL, 0, 0);
; 7153 : 	    }
; 7154 : 	    return(ret);

	mov	eax, DWORD PTR _ret$[ebp]
	jmp	$LN1@xmlExpStri
$LN18@xmlExpStri:

; 7155 : 	case XML_EXP_COUNT: {
; 7156 : 	    int min, max;
; 7157 : 	    xmlExpNodePtr tmp;
; 7158 : 
; 7159 : 	    if (exp->exp_max == 0)

	mov	edx, DWORD PTR _exp$[ebp]
	cmp	DWORD PTR [edx+24], 0
	jne	SHORT $LN19@xmlExpStri

; 7160 : 		return(forbiddenExp);

	mov	eax, DWORD PTR _forbiddenExp
	jmp	$LN1@xmlExpStri
$LN19@xmlExpStri:

; 7161 : 	    ret = xmlExpStringDeriveInt(ctxt, exp->exp_left, str);

	mov	eax, DWORD PTR _str$[ebp]
	push	eax
	mov	ecx, DWORD PTR _exp$[ebp]
	mov	edx, DWORD PTR [ecx+12]
	push	edx
	mov	eax, DWORD PTR _ctxt$[ebp]
	push	eax
	call	_xmlExpStringDeriveInt
	add	esp, 12					; 0000000cH
	mov	DWORD PTR _ret$[ebp], eax

; 7162 : 	    if (ret == NULL)

	cmp	DWORD PTR _ret$[ebp], 0
	jne	SHORT $LN20@xmlExpStri

; 7163 : 	        return(NULL);

	xor	eax, eax
	jmp	$LN1@xmlExpStri
$LN20@xmlExpStri:

; 7164 : 	    if (ret == forbiddenExp) {

	mov	ecx, DWORD PTR _ret$[ebp]
	cmp	ecx, DWORD PTR _forbiddenExp
	jne	SHORT $LN21@xmlExpStri

; 7165 : #ifdef DEBUG_DERIV
; 7166 : 		printf("deriv count: pattern mismatch => forbid\n");
; 7167 : #endif
; 7168 : 	        return(ret);

	mov	eax, DWORD PTR _ret$[ebp]
	jmp	$LN1@xmlExpStri
$LN21@xmlExpStri:

; 7169 : 	    }
; 7170 : 	    if (exp->exp_max == 1)

	mov	edx, DWORD PTR _exp$[ebp]
	cmp	DWORD PTR [edx+24], 1
	jne	SHORT $LN22@xmlExpStri

; 7171 : 		return(ret);

	mov	eax, DWORD PTR _ret$[ebp]
	jmp	$LN1@xmlExpStri
$LN22@xmlExpStri:

; 7172 : 	    if (exp->exp_max < 0) /* unbounded */

	mov	eax, DWORD PTR _exp$[ebp]
	cmp	DWORD PTR [eax+24], 0
	jge	SHORT $LN23@xmlExpStri

; 7173 : 		max = -1;

	mov	DWORD PTR _max$2[ebp], -1
	jmp	SHORT $LN24@xmlExpStri
$LN23@xmlExpStri:

; 7174 : 	    else
; 7175 : 		max = exp->exp_max - 1;

	mov	ecx, DWORD PTR _exp$[ebp]
	mov	edx, DWORD PTR [ecx+24]
	sub	edx, 1
	mov	DWORD PTR _max$2[ebp], edx
$LN24@xmlExpStri:

; 7176 : 	    if (exp->exp_min > 0)

	mov	eax, DWORD PTR _exp$[ebp]
	cmp	DWORD PTR [eax+20], 0
	jle	SHORT $LN25@xmlExpStri

; 7177 : 		min = exp->exp_min - 1;

	mov	ecx, DWORD PTR _exp$[ebp]
	mov	edx, DWORD PTR [ecx+20]
	sub	edx, 1
	mov	DWORD PTR _min$3[ebp], edx
	jmp	SHORT $LN26@xmlExpStri
$LN25@xmlExpStri:

; 7178 : 	    else
; 7179 : 		min = 0;

	mov	DWORD PTR _min$3[ebp], 0
$LN26@xmlExpStri:

; 7180 : 	    exp->exp_left->ref++;

	mov	eax, DWORD PTR _exp$[ebp]
	mov	ecx, DWORD PTR [eax+12]
	mov	edx, DWORD PTR [ecx+4]
	add	edx, 1
	mov	eax, DWORD PTR _exp$[ebp]
	mov	ecx, DWORD PTR [eax+12]
	mov	DWORD PTR [ecx+4], edx

; 7181 : 	    tmp = xmlExpHashGetEntry(ctxt, XML_EXP_COUNT, exp->exp_left, NULL,

	mov	edx, DWORD PTR _max$2[ebp]
	push	edx
	mov	eax, DWORD PTR _min$3[ebp]
	push	eax
	push	0
	push	0
	mov	ecx, DWORD PTR _exp$[ebp]
	mov	edx, DWORD PTR [ecx+12]
	push	edx
	push	5
	mov	eax, DWORD PTR _ctxt$[ebp]
	push	eax
	call	_xmlExpHashGetEntry
	add	esp, 28					; 0000001cH
	mov	DWORD PTR _tmp$1[ebp], eax

; 7182 : 				     NULL, min, max);
; 7183 : 	    if (ret == emptyExp) {

	mov	ecx, DWORD PTR _ret$[ebp]
	cmp	ecx, DWORD PTR _emptyExp
	jne	SHORT $LN27@xmlExpStri

; 7184 : #ifdef DEBUG_DERIV
; 7185 : 		printf("deriv count: match to empty => new count\n");
; 7186 : #endif
; 7187 : 	        return(tmp);

	mov	eax, DWORD PTR _tmp$1[ebp]
	jmp	SHORT $LN1@xmlExpStri
$LN27@xmlExpStri:

; 7188 : 	    }
; 7189 : #ifdef DEBUG_DERIV
; 7190 : 	    printf("deriv count: match => sequence with new count\n");
; 7191 : #endif
; 7192 : 	    return(xmlExpHashGetEntry(ctxt, XML_EXP_SEQ, ret, tmp,

	push	0
	push	0
	push	0
	mov	edx, DWORD PTR _tmp$1[ebp]
	push	edx
	mov	eax, DWORD PTR _ret$[ebp]
	push	eax
	push	3
	mov	ecx, DWORD PTR _ctxt$[ebp]
	push	ecx
	call	_xmlExpHashGetEntry
	add	esp, 28					; 0000001cH
	jmp	SHORT $LN1@xmlExpStri
$LN2@xmlExpStri:

; 7193 : 	                              NULL, 0, 0));
; 7194 : 	}
; 7195 :     }
; 7196 :     return(NULL);

	xor	eax, eax
$LN1@xmlExpStri:

; 7197 : }

	add	esp, 24					; 00000018H
	cmp	ebp, esp
	call	__RTC_CheckEsp
	mov	esp, ebp
	pop	ebp
	ret	0
	npad	2
$LN29@xmlExpStri:
	DD	$LN4@xmlExpStri
	DD	$LN5@xmlExpStri
	DD	$LN6@xmlExpStri
	DD	$LN12@xmlExpStri
	DD	$LN9@xmlExpStri
	DD	$LN18@xmlExpStri
_xmlExpStringDeriveInt ENDP
_TEXT	ENDS
; Function compile flags: /Odtp /RTCsu
; File c:\users\dag\documents\_clients\codeproject authors group\windows on arm\libxml2\libxml2-2.9.9\xmlregexp.c
;	COMDAT _xmlExpGetStartInt
_TEXT	SEGMENT
tv66 = -12						; size = 4
_tmp2$ = -8						; size = 4
_tmp$ = -4						; size = 4
_ctxt$ = 8						; size = 4
_exp$ = 12						; size = 4
_list$ = 16						; size = 4
_len$ = 20						; size = 4
_nb$ = 24						; size = 4
_xmlExpGetStartInt PROC					; COMDAT

; 7008 :                   const xmlChar**list, int len, int nb) {

	push	ebp
	mov	ebp, esp
	sub	esp, 12					; 0000000cH
	mov	DWORD PTR [ebp-12], -858993460		; ccccccccH
	mov	DWORD PTR [ebp-8], -858993460		; ccccccccH
	mov	DWORD PTR [ebp-4], -858993460		; ccccccccH
	mov	ecx, OFFSET __F6DD4902_xmlregexp@c
	call	@__CheckForDebuggerJustMyCode@4
$tail$22:

; 7009 :     int tmp, tmp2;
; 7010 : tail:
; 7011 :     switch (exp->type) {

	mov	eax, DWORD PTR _exp$[ebp]
	movzx	ecx, BYTE PTR [eax]
	mov	DWORD PTR tv66[ebp], ecx
	cmp	DWORD PTR tv66[ebp], 5
	ja	$LN2@xmlExpGetS
	mov	edx, DWORD PTR tv66[ebp]
	jmp	DWORD PTR $LN21@xmlExpGetS[edx*4]
$LN7@xmlExpGetS:

; 7012 :         case XML_EXP_FORBID:
; 7013 : 	    return(0);

	xor	eax, eax
	jmp	$LN1@xmlExpGetS
$LN8@xmlExpGetS:

; 7014 :         case XML_EXP_EMPTY:
; 7015 : 	    return(0);

	xor	eax, eax
	jmp	$LN1@xmlExpGetS
$LN9@xmlExpGetS:

; 7016 :         case XML_EXP_ATOM:
; 7017 : 	    for (tmp = 0;tmp < nb;tmp++)

	mov	DWORD PTR _tmp$[ebp], 0
	jmp	SHORT $LN6@xmlExpGetS
$LN4@xmlExpGetS:
	mov	eax, DWORD PTR _tmp$[ebp]
	add	eax, 1
	mov	DWORD PTR _tmp$[ebp], eax
$LN6@xmlExpGetS:
	mov	ecx, DWORD PTR _tmp$[ebp]
	cmp	ecx, DWORD PTR _nb$[ebp]
	jge	SHORT $LN5@xmlExpGetS

; 7018 : 	        if (list[tmp] == exp->exp_str)

	mov	edx, DWORD PTR _tmp$[ebp]
	mov	eax, DWORD PTR _list$[ebp]
	mov	ecx, DWORD PTR _exp$[ebp]
	mov	edx, DWORD PTR [eax+edx*4]
	cmp	edx, DWORD PTR [ecx+20]
	jne	SHORT $LN10@xmlExpGetS

; 7019 : 		    return(0);

	xor	eax, eax
	jmp	$LN1@xmlExpGetS
$LN10@xmlExpGetS:
	jmp	SHORT $LN4@xmlExpGetS
$LN5@xmlExpGetS:

; 7020 :             if (nb >= len)

	mov	eax, DWORD PTR _nb$[ebp]
	cmp	eax, DWORD PTR _len$[ebp]
	jl	SHORT $LN11@xmlExpGetS

; 7021 : 	        return(-2);

	mov	eax, -2					; fffffffeH
	jmp	$LN1@xmlExpGetS
$LN11@xmlExpGetS:

; 7022 : 	    list[nb] = exp->exp_str;

	mov	ecx, DWORD PTR _nb$[ebp]
	mov	edx, DWORD PTR _list$[ebp]
	mov	eax, DWORD PTR _exp$[ebp]
	mov	eax, DWORD PTR [eax+20]
	mov	DWORD PTR [edx+ecx*4], eax

; 7023 : 	    return(1);

	mov	eax, 1
	jmp	$LN1@xmlExpGetS
$LN12@xmlExpGetS:

; 7024 :         case XML_EXP_COUNT:
; 7025 : 	    exp = exp->exp_left;

	mov	ecx, DWORD PTR _exp$[ebp]
	mov	edx, DWORD PTR [ecx+12]
	mov	DWORD PTR _exp$[ebp], edx

; 7026 : 	    goto tail;

	jmp	$tail$22
$LN13@xmlExpGetS:

; 7027 :         case XML_EXP_SEQ:
; 7028 : 	    tmp = xmlExpGetStartInt(ctxt, exp->exp_left, list, len, nb);

	mov	eax, DWORD PTR _nb$[ebp]
	push	eax
	mov	ecx, DWORD PTR _len$[ebp]
	push	ecx
	mov	edx, DWORD PTR _list$[ebp]
	push	edx
	mov	eax, DWORD PTR _exp$[ebp]
	mov	ecx, DWORD PTR [eax+12]
	push	ecx
	mov	edx, DWORD PTR _ctxt$[ebp]
	push	edx
	call	_xmlExpGetStartInt
	add	esp, 20					; 00000014H
	mov	DWORD PTR _tmp$[ebp], eax

; 7029 : 	    if (tmp < 0)

	cmp	DWORD PTR _tmp$[ebp], 0
	jge	SHORT $LN14@xmlExpGetS

; 7030 : 	        return(tmp);

	mov	eax, DWORD PTR _tmp$[ebp]
	jmp	$LN1@xmlExpGetS
$LN14@xmlExpGetS:

; 7031 : 	    if (IS_NILLABLE(exp->exp_left)) {

	mov	eax, DWORD PTR _exp$[ebp]
	mov	ecx, DWORD PTR [eax+12]
	movzx	edx, BYTE PTR [ecx+1]
	and	edx, 1
	je	SHORT $LN15@xmlExpGetS

; 7032 : 		tmp2 = xmlExpGetStartInt(ctxt, exp->exp_right, list, len,

	mov	eax, DWORD PTR _nb$[ebp]
	add	eax, DWORD PTR _tmp$[ebp]
	push	eax
	mov	ecx, DWORD PTR _len$[ebp]
	push	ecx
	mov	edx, DWORD PTR _list$[ebp]
	push	edx
	mov	eax, DWORD PTR _exp$[ebp]
	mov	ecx, DWORD PTR [eax+20]
	push	ecx
	mov	edx, DWORD PTR _ctxt$[ebp]
	push	edx
	call	_xmlExpGetStartInt
	add	esp, 20					; 00000014H
	mov	DWORD PTR _tmp2$[ebp], eax

; 7033 : 					    nb + tmp);
; 7034 : 		if (tmp2 < 0)

	cmp	DWORD PTR _tmp2$[ebp], 0
	jge	SHORT $LN16@xmlExpGetS

; 7035 : 		    return(tmp2);

	mov	eax, DWORD PTR _tmp2$[ebp]
	jmp	SHORT $LN1@xmlExpGetS
$LN16@xmlExpGetS:

; 7036 : 		tmp += tmp2;

	mov	eax, DWORD PTR _tmp$[ebp]
	add	eax, DWORD PTR _tmp2$[ebp]
	mov	DWORD PTR _tmp$[ebp], eax
$LN15@xmlExpGetS:

; 7037 : 	    }
; 7038 :             return(tmp);

	mov	eax, DWORD PTR _tmp$[ebp]
	jmp	SHORT $LN1@xmlExpGetS
$LN17@xmlExpGetS:

; 7039 :         case XML_EXP_OR:
; 7040 : 	    tmp = xmlExpGetStartInt(ctxt, exp->exp_left, list, len, nb);

	mov	ecx, DWORD PTR _nb$[ebp]
	push	ecx
	mov	edx, DWORD PTR _len$[ebp]
	push	edx
	mov	eax, DWORD PTR _list$[ebp]
	push	eax
	mov	ecx, DWORD PTR _exp$[ebp]
	mov	edx, DWORD PTR [ecx+12]
	push	edx
	mov	eax, DWORD PTR _ctxt$[ebp]
	push	eax
	call	_xmlExpGetStartInt
	add	esp, 20					; 00000014H
	mov	DWORD PTR _tmp$[ebp], eax

; 7041 : 	    if (tmp < 0)

	cmp	DWORD PTR _tmp$[ebp], 0
	jge	SHORT $LN18@xmlExpGetS

; 7042 : 	        return(tmp);

	mov	eax, DWORD PTR _tmp$[ebp]
	jmp	SHORT $LN1@xmlExpGetS
$LN18@xmlExpGetS:

; 7043 : 	    tmp2 = xmlExpGetStartInt(ctxt, exp->exp_right, list, len,

	mov	ecx, DWORD PTR _nb$[ebp]
	add	ecx, DWORD PTR _tmp$[ebp]
	push	ecx
	mov	edx, DWORD PTR _len$[ebp]
	push	edx
	mov	eax, DWORD PTR _list$[ebp]
	push	eax
	mov	ecx, DWORD PTR _exp$[ebp]
	mov	edx, DWORD PTR [ecx+20]
	push	edx
	mov	eax, DWORD PTR _ctxt$[ebp]
	push	eax
	call	_xmlExpGetStartInt
	add	esp, 20					; 00000014H
	mov	DWORD PTR _tmp2$[ebp], eax

; 7044 : 	                                nb + tmp);
; 7045 : 	    if (tmp2 < 0)

	cmp	DWORD PTR _tmp2$[ebp], 0
	jge	SHORT $LN19@xmlExpGetS

; 7046 : 	        return(tmp2);

	mov	eax, DWORD PTR _tmp2$[ebp]
	jmp	SHORT $LN1@xmlExpGetS
$LN19@xmlExpGetS:

; 7047 :             return(tmp + tmp2);

	mov	eax, DWORD PTR _tmp$[ebp]
	add	eax, DWORD PTR _tmp2$[ebp]
	jmp	SHORT $LN1@xmlExpGetS
$LN2@xmlExpGetS:

; 7048 :     }
; 7049 :     return(-1);

	or	eax, -1
$LN1@xmlExpGetS:

; 7050 : }

	add	esp, 12					; 0000000cH
	cmp	ebp, esp
	call	__RTC_CheckEsp
	mov	esp, ebp
	pop	ebp
	ret	0
$LN21@xmlExpGetS:
	DD	$LN8@xmlExpGetS
	DD	$LN7@xmlExpGetS
	DD	$LN9@xmlExpGetS
	DD	$LN13@xmlExpGetS
	DD	$LN17@xmlExpGetS
	DD	$LN12@xmlExpGetS
_xmlExpGetStartInt ENDP
_TEXT	ENDS
; Function compile flags: /Odtp /RTCsu
; File c:\users\dag\documents\_clients\codeproject authors group\windows on arm\libxml2\libxml2-2.9.9\xmlregexp.c
;	COMDAT _xmlExpGetLanguageInt
_TEXT	SEGMENT
tv66 = -12						; size = 4
_tmp2$ = -8						; size = 4
_tmp$ = -4						; size = 4
_ctxt$ = 8						; size = 4
_exp$ = 12						; size = 4
_list$ = 16						; size = 4
_len$ = 20						; size = 4
_nb$ = 24						; size = 4
_xmlExpGetLanguageInt PROC				; COMDAT

; 6955 :                      const xmlChar**list, int len, int nb) {

	push	ebp
	mov	ebp, esp
	sub	esp, 12					; 0000000cH
	mov	DWORD PTR [ebp-12], -858993460		; ccccccccH
	mov	DWORD PTR [ebp-8], -858993460		; ccccccccH
	mov	DWORD PTR [ebp-4], -858993460		; ccccccccH
	mov	ecx, OFFSET __F6DD4902_xmlregexp@c
	call	@__CheckForDebuggerJustMyCode@4
$tail$17:

; 6956 :     int tmp, tmp2;
; 6957 : tail:
; 6958 :     switch (exp->type) {

	mov	eax, DWORD PTR _exp$[ebp]
	movzx	ecx, BYTE PTR [eax]
	mov	DWORD PTR tv66[ebp], ecx
	cmp	DWORD PTR tv66[ebp], 5
	ja	$LN2@xmlExpGetL
	mov	edx, DWORD PTR tv66[ebp]
	jmp	DWORD PTR $LN16@xmlExpGetL[edx*4]
$LN7@xmlExpGetL:

; 6959 :         case XML_EXP_EMPTY:
; 6960 : 	    return(0);

	xor	eax, eax
	jmp	$LN1@xmlExpGetL
$LN8@xmlExpGetL:

; 6961 :         case XML_EXP_ATOM:
; 6962 : 	    for (tmp = 0;tmp < nb;tmp++)

	mov	DWORD PTR _tmp$[ebp], 0
	jmp	SHORT $LN6@xmlExpGetL
$LN4@xmlExpGetL:
	mov	eax, DWORD PTR _tmp$[ebp]
	add	eax, 1
	mov	DWORD PTR _tmp$[ebp], eax
$LN6@xmlExpGetL:
	mov	ecx, DWORD PTR _tmp$[ebp]
	cmp	ecx, DWORD PTR _nb$[ebp]
	jge	SHORT $LN5@xmlExpGetL

; 6963 : 	        if (list[tmp] == exp->exp_str)

	mov	edx, DWORD PTR _tmp$[ebp]
	mov	eax, DWORD PTR _list$[ebp]
	mov	ecx, DWORD PTR _exp$[ebp]
	mov	edx, DWORD PTR [eax+edx*4]
	cmp	edx, DWORD PTR [ecx+20]
	jne	SHORT $LN9@xmlExpGetL

; 6964 : 		    return(0);

	xor	eax, eax
	jmp	$LN1@xmlExpGetL
$LN9@xmlExpGetL:
	jmp	SHORT $LN4@xmlExpGetL
$LN5@xmlExpGetL:

; 6965 :             if (nb >= len)

	mov	eax, DWORD PTR _nb$[ebp]
	cmp	eax, DWORD PTR _len$[ebp]
	jl	SHORT $LN10@xmlExpGetL

; 6966 : 	        return(-2);

	mov	eax, -2					; fffffffeH
	jmp	$LN1@xmlExpGetL
$LN10@xmlExpGetL:

; 6967 : 	    list[nb] = exp->exp_str;

	mov	ecx, DWORD PTR _nb$[ebp]
	mov	edx, DWORD PTR _list$[ebp]
	mov	eax, DWORD PTR _exp$[ebp]
	mov	eax, DWORD PTR [eax+20]
	mov	DWORD PTR [edx+ecx*4], eax

; 6968 : 	    return(1);

	mov	eax, 1
	jmp	SHORT $LN1@xmlExpGetL
$LN11@xmlExpGetL:

; 6969 :         case XML_EXP_COUNT:
; 6970 : 	    exp = exp->exp_left;

	mov	ecx, DWORD PTR _exp$[ebp]
	mov	edx, DWORD PTR [ecx+12]
	mov	DWORD PTR _exp$[ebp], edx

; 6971 : 	    goto tail;

	jmp	$tail$17
$LN12@xmlExpGetL:

; 6972 :         case XML_EXP_SEQ:
; 6973 :         case XML_EXP_OR:
; 6974 : 	    tmp = xmlExpGetLanguageInt(ctxt, exp->exp_left, list, len, nb);

	mov	eax, DWORD PTR _nb$[ebp]
	push	eax
	mov	ecx, DWORD PTR _len$[ebp]
	push	ecx
	mov	edx, DWORD PTR _list$[ebp]
	push	edx
	mov	eax, DWORD PTR _exp$[ebp]
	mov	ecx, DWORD PTR [eax+12]
	push	ecx
	mov	edx, DWORD PTR _ctxt$[ebp]
	push	edx
	call	_xmlExpGetLanguageInt
	add	esp, 20					; 00000014H
	mov	DWORD PTR _tmp$[ebp], eax

; 6975 : 	    if (tmp < 0)

	cmp	DWORD PTR _tmp$[ebp], 0
	jge	SHORT $LN13@xmlExpGetL

; 6976 : 	        return(tmp);

	mov	eax, DWORD PTR _tmp$[ebp]
	jmp	SHORT $LN1@xmlExpGetL
$LN13@xmlExpGetL:

; 6977 : 	    tmp2 = xmlExpGetLanguageInt(ctxt, exp->exp_right, list, len,

	mov	eax, DWORD PTR _nb$[ebp]
	add	eax, DWORD PTR _tmp$[ebp]
	push	eax
	mov	ecx, DWORD PTR _len$[ebp]
	push	ecx
	mov	edx, DWORD PTR _list$[ebp]
	push	edx
	mov	eax, DWORD PTR _exp$[ebp]
	mov	ecx, DWORD PTR [eax+20]
	push	ecx
	mov	edx, DWORD PTR _ctxt$[ebp]
	push	edx
	call	_xmlExpGetLanguageInt
	add	esp, 20					; 00000014H
	mov	DWORD PTR _tmp2$[ebp], eax

; 6978 : 	                                nb + tmp);
; 6979 : 	    if (tmp2 < 0)

	cmp	DWORD PTR _tmp2$[ebp], 0
	jge	SHORT $LN14@xmlExpGetL

; 6980 : 	        return(tmp2);

	mov	eax, DWORD PTR _tmp2$[ebp]
	jmp	SHORT $LN1@xmlExpGetL
$LN14@xmlExpGetL:

; 6981 :             return(tmp + tmp2);

	mov	eax, DWORD PTR _tmp$[ebp]
	add	eax, DWORD PTR _tmp2$[ebp]
	jmp	SHORT $LN1@xmlExpGetL
$LN2@xmlExpGetL:

; 6982 :     }
; 6983 :     return(-1);

	or	eax, -1
$LN1@xmlExpGetL:

; 6984 : }

	add	esp, 12					; 0000000cH
	cmp	ebp, esp
	call	__RTC_CheckEsp
	mov	esp, ebp
	pop	ebp
	ret	0
	npad	3
$LN16@xmlExpGetL:
	DD	$LN7@xmlExpGetL
	DD	$LN2@xmlExpGetL
	DD	$LN8@xmlExpGetL
	DD	$LN12@xmlExpGetL
	DD	$LN12@xmlExpGetL
	DD	$LN11@xmlExpGetL
_xmlExpGetLanguageInt ENDP
_TEXT	ENDS
; Function compile flags: /Odtp /RTCsu
; File c:\users\dag\documents\_clients\codeproject authors group\windows on arm\libxml2\libxml2-2.9.9\xmlregexp.c
;	COMDAT _xmlExpHashGetEntry
_TEXT	SEGMENT
_tmp$1 = -36						; size = 4
_tmp$2 = -32						; size = 4
_tmp$3 = -28						; size = 4
_tmp$4 = -24						; size = 4
_tmp$5 = -20						; size = 4
_insert$ = -16						; size = 4
_entry$ = -12						; size = 4
_key$ = -8						; size = 2
_kbase$ = -4						; size = 2
_ctxt$ = 8						; size = 4
_type$ = 12						; size = 4
_left$ = 16						; size = 4
_right$ = 20						; size = 4
_name$ = 24						; size = 4
_min$ = 28						; size = 4
_max$ = 32						; size = 4
_xmlExpHashGetEntry PROC				; COMDAT

; 6571 : 		   const xmlChar *name, int min, int max) {

	push	ebp
	mov	ebp, esp
	sub	esp, 36					; 00000024H
	mov	eax, -858993460				; ccccccccH
	mov	DWORD PTR [ebp-36], eax
	mov	DWORD PTR [ebp-32], eax
	mov	DWORD PTR [ebp-28], eax
	mov	DWORD PTR [ebp-24], eax
	mov	DWORD PTR [ebp-20], eax
	mov	DWORD PTR [ebp-16], eax
	mov	DWORD PTR [ebp-12], eax
	mov	DWORD PTR [ebp-8], eax
	mov	DWORD PTR [ebp-4], eax
	mov	ecx, OFFSET __F6DD4902_xmlregexp@c
	call	@__CheckForDebuggerJustMyCode@4

; 6572 :     unsigned short kbase, key;
; 6573 :     xmlExpNodePtr entry;
; 6574 :     xmlExpNodePtr insert;
; 6575 : 
; 6576 :     if (ctxt == NULL)

	cmp	DWORD PTR _ctxt$[ebp], 0
	jne	SHORT $LN5@xmlExpHash

; 6577 : 	return(NULL);

	xor	eax, eax
	jmp	$LN1@xmlExpHash
$LN5@xmlExpHash:

; 6578 : 
; 6579 :     /*
; 6580 :      * Check for duplicate and insertion location.
; 6581 :      */
; 6582 :     if (type == XML_EXP_ATOM) {

	cmp	DWORD PTR _type$[ebp], 2
	jne	SHORT $LN6@xmlExpHash

; 6583 : 	kbase = xmlExpHashNameComputeKey(name);

	mov	eax, DWORD PTR _name$[ebp]
	push	eax
	call	_xmlExpHashNameComputeKey
	add	esp, 4
	mov	WORD PTR _kbase$[ebp], ax
	jmp	$LN7@xmlExpHash
$LN6@xmlExpHash:

; 6584 :     } else if (type == XML_EXP_COUNT) {

	cmp	DWORD PTR _type$[ebp], 5
	jne	$LN8@xmlExpHash

; 6585 :         /* COUNT reduction rule 1 */
; 6586 : 	/* a{1} -> a */
; 6587 : 	if (min == max) {

	mov	ecx, DWORD PTR _min$[ebp]
	cmp	ecx, DWORD PTR _max$[ebp]
	jne	SHORT $LN10@xmlExpHash

; 6588 : 	    if (min == 1) {

	cmp	DWORD PTR _min$[ebp], 1
	jne	SHORT $LN11@xmlExpHash

; 6589 : 		return(left);

	mov	eax, DWORD PTR _left$[ebp]
	jmp	$LN1@xmlExpHash
$LN11@xmlExpHash:

; 6590 : 	    }
; 6591 : 	    if (min == 0) {

	cmp	DWORD PTR _min$[ebp], 0
	jne	SHORT $LN10@xmlExpHash

; 6592 : 		xmlExpFree(ctxt, left);

	mov	edx, DWORD PTR _left$[ebp]
	push	edx
	mov	eax, DWORD PTR _ctxt$[ebp]
	push	eax
	call	_xmlExpFree
	add	esp, 8

; 6593 : 	        return(emptyExp);

	mov	eax, DWORD PTR _emptyExp
	jmp	$LN1@xmlExpHash
$LN10@xmlExpHash:

; 6594 : 	    }
; 6595 : 	}
; 6596 : 	if (min < 0) {

	cmp	DWORD PTR _min$[ebp], 0
	jge	SHORT $LN13@xmlExpHash

; 6597 : 	    xmlExpFree(ctxt, left);

	mov	ecx, DWORD PTR _left$[ebp]
	push	ecx
	mov	edx, DWORD PTR _ctxt$[ebp]
	push	edx
	call	_xmlExpFree
	add	esp, 8

; 6598 : 	    return(forbiddenExp);

	mov	eax, DWORD PTR _forbiddenExp
	jmp	$LN1@xmlExpHash
$LN13@xmlExpHash:

; 6599 : 	}
; 6600 :         if (max == -1)

	cmp	DWORD PTR _max$[ebp], -1
	jne	SHORT $LN14@xmlExpHash

; 6601 : 	    kbase = min + 79;

	mov	eax, DWORD PTR _min$[ebp]
	add	eax, 79					; 0000004fH
	mov	WORD PTR _kbase$[ebp], ax
	jmp	SHORT $LN15@xmlExpHash
$LN14@xmlExpHash:

; 6602 : 	else
; 6603 : 	    kbase = max - min;

	mov	ecx, DWORD PTR _max$[ebp]
	sub	ecx, DWORD PTR _min$[ebp]
	mov	WORD PTR _kbase$[ebp], cx
$LN15@xmlExpHash:

; 6604 : 	kbase += left->key;

	mov	edx, DWORD PTR _left$[ebp]
	movzx	eax, WORD PTR [edx+2]
	movzx	ecx, WORD PTR _kbase$[ebp]
	add	ecx, eax
	mov	WORD PTR _kbase$[ebp], cx
	jmp	$LN7@xmlExpHash
$LN8@xmlExpHash:

; 6605 :     } else if (type == XML_EXP_OR) {

	cmp	DWORD PTR _type$[ebp], 4
	jne	$LN16@xmlExpHash

; 6606 :         /* Forbid reduction rules */
; 6607 :         if (left->type == XML_EXP_FORBID) {

	mov	edx, DWORD PTR _left$[ebp]
	movzx	eax, BYTE PTR [edx]
	cmp	eax, 1
	jne	SHORT $LN18@xmlExpHash

; 6608 : 	    xmlExpFree(ctxt, left);

	mov	ecx, DWORD PTR _left$[ebp]
	push	ecx
	mov	edx, DWORD PTR _ctxt$[ebp]
	push	edx
	call	_xmlExpFree
	add	esp, 8

; 6609 : 	    return(right);

	mov	eax, DWORD PTR _right$[ebp]
	jmp	$LN1@xmlExpHash
$LN18@xmlExpHash:

; 6610 : 	}
; 6611 :         if (right->type == XML_EXP_FORBID) {

	mov	eax, DWORD PTR _right$[ebp]
	movzx	ecx, BYTE PTR [eax]
	cmp	ecx, 1
	jne	SHORT $LN19@xmlExpHash

; 6612 : 	    xmlExpFree(ctxt, right);

	mov	edx, DWORD PTR _right$[ebp]
	push	edx
	mov	eax, DWORD PTR _ctxt$[ebp]
	push	eax
	call	_xmlExpFree
	add	esp, 8

; 6613 : 	    return(left);

	mov	eax, DWORD PTR _left$[ebp]
	jmp	$LN1@xmlExpHash
$LN19@xmlExpHash:

; 6614 : 	}
; 6615 : 
; 6616 :         /* OR reduction rule 1 */
; 6617 : 	/* a | a reduced to a */
; 6618 :         if (left == right) {

	mov	ecx, DWORD PTR _left$[ebp]
	cmp	ecx, DWORD PTR _right$[ebp]
	jne	SHORT $LN20@xmlExpHash

; 6619 : 	    left->ref--;

	mov	edx, DWORD PTR _left$[ebp]
	mov	eax, DWORD PTR [edx+4]
	sub	eax, 1
	mov	ecx, DWORD PTR _left$[ebp]
	mov	DWORD PTR [ecx+4], eax

; 6620 : 	    return(left);

	mov	eax, DWORD PTR _left$[ebp]
	jmp	$LN1@xmlExpHash
$LN20@xmlExpHash:

; 6621 : 	}
; 6622 :         /* OR canonicalization rule 1 */
; 6623 : 	/* linearize (a | b) | c into a | (b | c) */
; 6624 :         if ((left->type == XML_EXP_OR) && (right->type != XML_EXP_OR)) {

	mov	edx, DWORD PTR _left$[ebp]
	movzx	eax, BYTE PTR [edx]
	cmp	eax, 4
	jne	SHORT $LN21@xmlExpHash
	mov	ecx, DWORD PTR _right$[ebp]
	movzx	edx, BYTE PTR [ecx]
	cmp	edx, 4
	je	SHORT $LN21@xmlExpHash

; 6625 : 	    xmlExpNodePtr tmp = left;

	mov	eax, DWORD PTR _left$[ebp]
	mov	DWORD PTR _tmp$5[ebp], eax

; 6626 :             left = right;

	mov	ecx, DWORD PTR _right$[ebp]
	mov	DWORD PTR _left$[ebp], ecx

; 6627 : 	    right = tmp;

	mov	edx, DWORD PTR _tmp$5[ebp]
	mov	DWORD PTR _right$[ebp], edx
$LN21@xmlExpHash:

; 6628 : 	}
; 6629 :         /* OR reduction rule 2 */
; 6630 : 	/* a | (a | b) and b | (a | b) are reduced to a | b */
; 6631 :         if (right->type == XML_EXP_OR) {

	mov	eax, DWORD PTR _right$[ebp]
	movzx	ecx, BYTE PTR [eax]
	cmp	ecx, 4
	jne	SHORT $LN22@xmlExpHash

; 6632 : 	    if ((left == right->exp_left) ||

	mov	edx, DWORD PTR _right$[ebp]
	mov	eax, DWORD PTR _left$[ebp]
	cmp	eax, DWORD PTR [edx+12]
	je	SHORT $LN24@xmlExpHash
	mov	ecx, DWORD PTR _right$[ebp]
	mov	edx, DWORD PTR _left$[ebp]
	cmp	edx, DWORD PTR [ecx+20]
	jne	SHORT $LN22@xmlExpHash
$LN24@xmlExpHash:

; 6633 : 	        (left == right->exp_right)) {
; 6634 : 		xmlExpFree(ctxt, left);

	mov	eax, DWORD PTR _left$[ebp]
	push	eax
	mov	ecx, DWORD PTR _ctxt$[ebp]
	push	ecx
	call	_xmlExpFree
	add	esp, 8

; 6635 : 		return(right);

	mov	eax, DWORD PTR _right$[ebp]
	jmp	$LN1@xmlExpHash
$LN22@xmlExpHash:

; 6636 : 	    }
; 6637 : 	}
; 6638 :         /* OR canonicalization rule 2 */
; 6639 : 	/* linearize (a | b) | c into a | (b | c) */
; 6640 :         if (left->type == XML_EXP_OR) {

	mov	edx, DWORD PTR _left$[ebp]
	movzx	eax, BYTE PTR [edx]
	cmp	eax, 4
	jne	$LN25@xmlExpHash

; 6641 : 	    xmlExpNodePtr tmp;
; 6642 : 
; 6643 : 	    /* OR canonicalization rule 2 */
; 6644 : 	    if ((left->exp_right->type != XML_EXP_OR) &&

	mov	ecx, DWORD PTR _left$[ebp]
	mov	edx, DWORD PTR [ecx+20]
	movzx	eax, BYTE PTR [edx]
	cmp	eax, 4
	je	SHORT $LN26@xmlExpHash
	mov	ecx, DWORD PTR _left$[ebp]
	mov	edx, DWORD PTR [ecx+20]
	movzx	eax, WORD PTR [edx+2]
	mov	ecx, DWORD PTR _left$[ebp]
	mov	edx, DWORD PTR [ecx+12]
	movzx	ecx, WORD PTR [edx+2]
	cmp	eax, ecx
	jge	SHORT $LN26@xmlExpHash

; 6645 : 	        (left->exp_right->key < left->exp_left->key)) {
; 6646 : 	        tmp = left->exp_right;

	mov	edx, DWORD PTR _left$[ebp]
	mov	eax, DWORD PTR [edx+20]
	mov	DWORD PTR _tmp$4[ebp], eax

; 6647 : 		left->exp_right = left->exp_left;

	mov	ecx, DWORD PTR _left$[ebp]
	mov	edx, DWORD PTR _left$[ebp]
	mov	eax, DWORD PTR [edx+12]
	mov	DWORD PTR [ecx+20], eax

; 6648 : 		left->exp_left = tmp;

	mov	ecx, DWORD PTR _left$[ebp]
	mov	edx, DWORD PTR _tmp$4[ebp]
	mov	DWORD PTR [ecx+12], edx
$LN26@xmlExpHash:

; 6649 : 	    }
; 6650 : 	    left->exp_right->ref++;

	mov	eax, DWORD PTR _left$[ebp]
	mov	ecx, DWORD PTR [eax+20]
	mov	edx, DWORD PTR [ecx+4]
	add	edx, 1
	mov	eax, DWORD PTR _left$[ebp]
	mov	ecx, DWORD PTR [eax+20]
	mov	DWORD PTR [ecx+4], edx

; 6651 : 	    tmp = xmlExpHashGetEntry(ctxt, XML_EXP_OR, left->exp_right, right,

	push	0
	push	0
	push	0
	mov	edx, DWORD PTR _right$[ebp]
	push	edx
	mov	eax, DWORD PTR _left$[ebp]
	mov	ecx, DWORD PTR [eax+20]
	push	ecx
	push	4
	mov	edx, DWORD PTR _ctxt$[ebp]
	push	edx
	call	_xmlExpHashGetEntry
	add	esp, 28					; 0000001cH
	mov	DWORD PTR _tmp$4[ebp], eax

; 6652 : 	                             NULL, 0, 0);
; 6653 : 	    left->exp_left->ref++;

	mov	eax, DWORD PTR _left$[ebp]
	mov	ecx, DWORD PTR [eax+12]
	mov	edx, DWORD PTR [ecx+4]
	add	edx, 1
	mov	eax, DWORD PTR _left$[ebp]
	mov	ecx, DWORD PTR [eax+12]
	mov	DWORD PTR [ecx+4], edx

; 6654 : 	    tmp = xmlExpHashGetEntry(ctxt, XML_EXP_OR, left->exp_left, tmp,

	push	0
	push	0
	push	0
	mov	edx, DWORD PTR _tmp$4[ebp]
	push	edx
	mov	eax, DWORD PTR _left$[ebp]
	mov	ecx, DWORD PTR [eax+12]
	push	ecx
	push	4
	mov	edx, DWORD PTR _ctxt$[ebp]
	push	edx
	call	_xmlExpHashGetEntry
	add	esp, 28					; 0000001cH
	mov	DWORD PTR _tmp$4[ebp], eax

; 6655 : 	                             NULL, 0, 0);
; 6656 : 
; 6657 : 	    xmlExpFree(ctxt, left);

	mov	eax, DWORD PTR _left$[ebp]
	push	eax
	mov	ecx, DWORD PTR _ctxt$[ebp]
	push	ecx
	call	_xmlExpFree
	add	esp, 8

; 6658 : 	    return(tmp);

	mov	eax, DWORD PTR _tmp$4[ebp]
	jmp	$LN1@xmlExpHash
$LN25@xmlExpHash:

; 6659 : 	}
; 6660 : 	if (right->type == XML_EXP_OR) {

	mov	edx, DWORD PTR _right$[ebp]
	movzx	eax, BYTE PTR [edx]
	cmp	eax, 4
	jne	$LN27@xmlExpHash

; 6661 : 	    /* Ordering in the tree */
; 6662 : 	    /* C | (A | B) -> A | (B | C) */
; 6663 : 	    if (left->key > right->exp_right->key) {

	mov	ecx, DWORD PTR _left$[ebp]
	movzx	edx, WORD PTR [ecx+2]
	mov	eax, DWORD PTR _right$[ebp]
	mov	ecx, DWORD PTR [eax+20]
	movzx	eax, WORD PTR [ecx+2]
	cmp	edx, eax
	jle	$LN29@xmlExpHash

; 6664 : 		xmlExpNodePtr tmp;
; 6665 : 		right->exp_right->ref++;

	mov	ecx, DWORD PTR _right$[ebp]
	mov	edx, DWORD PTR [ecx+20]
	mov	eax, DWORD PTR [edx+4]
	add	eax, 1
	mov	ecx, DWORD PTR _right$[ebp]
	mov	edx, DWORD PTR [ecx+20]
	mov	DWORD PTR [edx+4], eax

; 6666 : 		tmp = xmlExpHashGetEntry(ctxt, XML_EXP_OR, right->exp_right,

	push	0
	push	0
	push	0
	mov	eax, DWORD PTR _left$[ebp]
	push	eax
	mov	ecx, DWORD PTR _right$[ebp]
	mov	edx, DWORD PTR [ecx+20]
	push	edx
	push	4
	mov	eax, DWORD PTR _ctxt$[ebp]
	push	eax
	call	_xmlExpHashGetEntry
	add	esp, 28					; 0000001cH
	mov	DWORD PTR _tmp$3[ebp], eax

; 6667 : 		                         left, NULL, 0, 0);
; 6668 : 		right->exp_left->ref++;

	mov	ecx, DWORD PTR _right$[ebp]
	mov	edx, DWORD PTR [ecx+12]
	mov	eax, DWORD PTR [edx+4]
	add	eax, 1
	mov	ecx, DWORD PTR _right$[ebp]
	mov	edx, DWORD PTR [ecx+12]
	mov	DWORD PTR [edx+4], eax

; 6669 : 		tmp = xmlExpHashGetEntry(ctxt, XML_EXP_OR, right->exp_left,

	push	0
	push	0
	push	0
	mov	eax, DWORD PTR _tmp$3[ebp]
	push	eax
	mov	ecx, DWORD PTR _right$[ebp]
	mov	edx, DWORD PTR [ecx+12]
	push	edx
	push	4
	mov	eax, DWORD PTR _ctxt$[ebp]
	push	eax
	call	_xmlExpHashGetEntry
	add	esp, 28					; 0000001cH
	mov	DWORD PTR _tmp$3[ebp], eax

; 6670 : 		                         tmp, NULL, 0, 0);
; 6671 : 		xmlExpFree(ctxt, right);

	mov	ecx, DWORD PTR _right$[ebp]
	push	ecx
	mov	edx, DWORD PTR _ctxt$[ebp]
	push	edx
	call	_xmlExpFree
	add	esp, 8

; 6672 : 		return(tmp);

	mov	eax, DWORD PTR _tmp$3[ebp]
	jmp	$LN1@xmlExpHash
$LN29@xmlExpHash:

; 6673 : 	    }
; 6674 : 	    /* Ordering in the tree */
; 6675 : 	    /* B | (A | C) -> A | (B | C) */
; 6676 : 	    if (left->key > right->exp_left->key) {

	mov	eax, DWORD PTR _left$[ebp]
	movzx	ecx, WORD PTR [eax+2]
	mov	edx, DWORD PTR _right$[ebp]
	mov	eax, DWORD PTR [edx+12]
	movzx	edx, WORD PTR [eax+2]
	cmp	ecx, edx
	jle	$LN30@xmlExpHash

; 6677 : 		xmlExpNodePtr tmp;
; 6678 : 		right->exp_right->ref++;

	mov	eax, DWORD PTR _right$[ebp]
	mov	ecx, DWORD PTR [eax+20]
	mov	edx, DWORD PTR [ecx+4]
	add	edx, 1
	mov	eax, DWORD PTR _right$[ebp]
	mov	ecx, DWORD PTR [eax+20]
	mov	DWORD PTR [ecx+4], edx

; 6679 : 		tmp = xmlExpHashGetEntry(ctxt, XML_EXP_OR, left,

	push	0
	push	0
	push	0
	mov	edx, DWORD PTR _right$[ebp]
	mov	eax, DWORD PTR [edx+20]
	push	eax
	mov	ecx, DWORD PTR _left$[ebp]
	push	ecx
	push	4
	mov	edx, DWORD PTR _ctxt$[ebp]
	push	edx
	call	_xmlExpHashGetEntry
	add	esp, 28					; 0000001cH
	mov	DWORD PTR _tmp$2[ebp], eax

; 6680 : 		                         right->exp_right, NULL, 0, 0);
; 6681 : 		right->exp_left->ref++;

	mov	eax, DWORD PTR _right$[ebp]
	mov	ecx, DWORD PTR [eax+12]
	mov	edx, DWORD PTR [ecx+4]
	add	edx, 1
	mov	eax, DWORD PTR _right$[ebp]
	mov	ecx, DWORD PTR [eax+12]
	mov	DWORD PTR [ecx+4], edx

; 6682 : 		tmp = xmlExpHashGetEntry(ctxt, XML_EXP_OR, right->exp_left,

	push	0
	push	0
	push	0
	mov	edx, DWORD PTR _tmp$2[ebp]
	push	edx
	mov	eax, DWORD PTR _right$[ebp]
	mov	ecx, DWORD PTR [eax+12]
	push	ecx
	push	4
	mov	edx, DWORD PTR _ctxt$[ebp]
	push	edx
	call	_xmlExpHashGetEntry
	add	esp, 28					; 0000001cH
	mov	DWORD PTR _tmp$2[ebp], eax

; 6683 : 		                         tmp, NULL, 0, 0);
; 6684 : 		xmlExpFree(ctxt, right);

	mov	eax, DWORD PTR _right$[ebp]
	push	eax
	mov	ecx, DWORD PTR _ctxt$[ebp]
	push	ecx
	call	_xmlExpFree
	add	esp, 8

; 6685 : 		return(tmp);

	mov	eax, DWORD PTR _tmp$2[ebp]
	jmp	$LN1@xmlExpHash
$LN30@xmlExpHash:

; 6686 : 	    }
; 6687 : 	}

	jmp	SHORT $LN28@xmlExpHash
$LN27@xmlExpHash:

; 6688 : 	/* we know both types are != XML_EXP_OR here */
; 6689 :         else if (left->key > right->key) {

	mov	edx, DWORD PTR _left$[ebp]
	movzx	eax, WORD PTR [edx+2]
	mov	ecx, DWORD PTR _right$[ebp]
	movzx	edx, WORD PTR [ecx+2]
	cmp	eax, edx
	jle	SHORT $LN28@xmlExpHash

; 6690 : 	    xmlExpNodePtr tmp = left;

	mov	eax, DWORD PTR _left$[ebp]
	mov	DWORD PTR _tmp$1[ebp], eax

; 6691 :             left = right;

	mov	ecx, DWORD PTR _right$[ebp]
	mov	DWORD PTR _left$[ebp], ecx

; 6692 : 	    right = tmp;

	mov	edx, DWORD PTR _tmp$1[ebp]
	mov	DWORD PTR _right$[ebp], edx
$LN28@xmlExpHash:

; 6693 : 	}
; 6694 : 	kbase = xmlExpHashComputeKey(type, left, right);

	mov	eax, DWORD PTR _right$[ebp]
	push	eax
	mov	ecx, DWORD PTR _left$[ebp]
	push	ecx
	mov	edx, DWORD PTR _type$[ebp]
	push	edx
	call	_xmlExpHashComputeKey
	add	esp, 12					; 0000000cH
	mov	WORD PTR _kbase$[ebp], ax
	jmp	$LN7@xmlExpHash
$LN16@xmlExpHash:

; 6695 :     } else if (type == XML_EXP_SEQ) {

	cmp	DWORD PTR _type$[ebp], 3
	jne	$LN32@xmlExpHash

; 6696 :         /* Forbid reduction rules */
; 6697 :         if (left->type == XML_EXP_FORBID) {

	mov	eax, DWORD PTR _left$[ebp]
	movzx	ecx, BYTE PTR [eax]
	cmp	ecx, 1
	jne	SHORT $LN34@xmlExpHash

; 6698 : 	    xmlExpFree(ctxt, right);

	mov	edx, DWORD PTR _right$[ebp]
	push	edx
	mov	eax, DWORD PTR _ctxt$[ebp]
	push	eax
	call	_xmlExpFree
	add	esp, 8

; 6699 : 	    return(left);

	mov	eax, DWORD PTR _left$[ebp]
	jmp	$LN1@xmlExpHash
$LN34@xmlExpHash:

; 6700 : 	}
; 6701 :         if (right->type == XML_EXP_FORBID) {

	mov	ecx, DWORD PTR _right$[ebp]
	movzx	edx, BYTE PTR [ecx]
	cmp	edx, 1
	jne	SHORT $LN35@xmlExpHash

; 6702 : 	    xmlExpFree(ctxt, left);

	mov	eax, DWORD PTR _left$[ebp]
	push	eax
	mov	ecx, DWORD PTR _ctxt$[ebp]
	push	ecx
	call	_xmlExpFree
	add	esp, 8

; 6703 : 	    return(right);

	mov	eax, DWORD PTR _right$[ebp]
	jmp	$LN1@xmlExpHash
$LN35@xmlExpHash:

; 6704 : 	}
; 6705 :         /* Empty reduction rules */
; 6706 :         if (right->type == XML_EXP_EMPTY) {

	mov	edx, DWORD PTR _right$[ebp]
	movzx	eax, BYTE PTR [edx]
	test	eax, eax
	jne	SHORT $LN36@xmlExpHash

; 6707 : 	    return(left);

	mov	eax, DWORD PTR _left$[ebp]
	jmp	$LN1@xmlExpHash
$LN36@xmlExpHash:

; 6708 : 	}
; 6709 :         if (left->type == XML_EXP_EMPTY) {

	mov	ecx, DWORD PTR _left$[ebp]
	movzx	edx, BYTE PTR [ecx]
	test	edx, edx
	jne	SHORT $LN37@xmlExpHash

; 6710 : 	    return(right);

	mov	eax, DWORD PTR _right$[ebp]
	jmp	$LN1@xmlExpHash
$LN37@xmlExpHash:

; 6711 : 	}
; 6712 : 	kbase = xmlExpHashComputeKey(type, left, right);

	mov	eax, DWORD PTR _right$[ebp]
	push	eax
	mov	ecx, DWORD PTR _left$[ebp]
	push	ecx
	mov	edx, DWORD PTR _type$[ebp]
	push	edx
	call	_xmlExpHashComputeKey
	add	esp, 12					; 0000000cH
	mov	WORD PTR _kbase$[ebp], ax

; 6713 :     } else

	jmp	SHORT $LN7@xmlExpHash
$LN32@xmlExpHash:

; 6714 :         return(NULL);

	xor	eax, eax
	jmp	$LN1@xmlExpHash
$LN7@xmlExpHash:

; 6715 : 
; 6716 :     key = kbase % ctxt->size;

	movzx	eax, WORD PTR _kbase$[ebp]
	mov	ecx, DWORD PTR _ctxt$[ebp]
	cdq
	idiv	DWORD PTR [ecx+8]
	mov	WORD PTR _key$[ebp], dx

; 6717 :     if (ctxt->table[key] != NULL) {

	movzx	edx, WORD PTR _key$[ebp]
	mov	eax, DWORD PTR _ctxt$[ebp]
	mov	ecx, DWORD PTR [eax+4]
	cmp	DWORD PTR [ecx+edx*4], 0
	je	$LN38@xmlExpHash

; 6718 : 	for (insert = ctxt->table[key]; insert != NULL;

	movzx	edx, WORD PTR _key$[ebp]
	mov	eax, DWORD PTR _ctxt$[ebp]
	mov	ecx, DWORD PTR [eax+4]
	mov	edx, DWORD PTR [ecx+edx*4]
	mov	DWORD PTR _insert$[ebp], edx
	jmp	SHORT $LN4@xmlExpHash
$LN2@xmlExpHash:

; 6719 : 	     insert = insert->next) {

	mov	eax, DWORD PTR _insert$[ebp]
	mov	ecx, DWORD PTR [eax+16]
	mov	DWORD PTR _insert$[ebp], ecx
$LN4@xmlExpHash:

; 6718 : 	for (insert = ctxt->table[key]; insert != NULL;

	cmp	DWORD PTR _insert$[ebp], 0
	je	$LN38@xmlExpHash

; 6720 : 	    if ((insert->key == kbase) &&

	mov	edx, DWORD PTR _insert$[ebp]
	movzx	eax, WORD PTR [edx+2]
	movzx	ecx, WORD PTR _kbase$[ebp]
	cmp	eax, ecx
	jne	$LN39@xmlExpHash
	mov	edx, DWORD PTR _insert$[ebp]
	movzx	eax, BYTE PTR [edx]
	cmp	eax, DWORD PTR _type$[ebp]
	jne	$LN39@xmlExpHash

; 6721 : 	        (insert->type == type)) {
; 6722 : 		if (type == XML_EXP_ATOM) {

	cmp	DWORD PTR _type$[ebp], 2
	jne	SHORT $LN40@xmlExpHash

; 6723 : 		    if (name == insert->exp_str) {

	mov	ecx, DWORD PTR _insert$[ebp]
	mov	edx, DWORD PTR _name$[ebp]
	cmp	edx, DWORD PTR [ecx+20]
	jne	SHORT $LN42@xmlExpHash

; 6724 : 			insert->ref++;

	mov	eax, DWORD PTR _insert$[ebp]
	mov	ecx, DWORD PTR [eax+4]
	add	ecx, 1
	mov	edx, DWORD PTR _insert$[ebp]
	mov	DWORD PTR [edx+4], ecx

; 6725 : 			return(insert);

	mov	eax, DWORD PTR _insert$[ebp]
	jmp	$LN1@xmlExpHash
$LN42@xmlExpHash:

; 6726 : 		    }

	jmp	$LN39@xmlExpHash
$LN40@xmlExpHash:

; 6727 : 		} else if (type == XML_EXP_COUNT) {

	cmp	DWORD PTR _type$[ebp], 5
	jne	SHORT $LN43@xmlExpHash

; 6728 : 		    if ((insert->exp_min == min) && (insert->exp_max == max) &&

	mov	eax, DWORD PTR _insert$[ebp]
	mov	ecx, DWORD PTR [eax+20]
	cmp	ecx, DWORD PTR _min$[ebp]
	jne	SHORT $LN45@xmlExpHash
	mov	edx, DWORD PTR _insert$[ebp]
	mov	eax, DWORD PTR [edx+24]
	cmp	eax, DWORD PTR _max$[ebp]
	jne	SHORT $LN45@xmlExpHash
	mov	ecx, DWORD PTR _insert$[ebp]
	mov	edx, DWORD PTR [ecx+12]
	cmp	edx, DWORD PTR _left$[ebp]
	jne	SHORT $LN45@xmlExpHash

; 6729 : 		        (insert->exp_left == left)) {
; 6730 : 			insert->ref++;

	mov	eax, DWORD PTR _insert$[ebp]
	mov	ecx, DWORD PTR [eax+4]
	add	ecx, 1
	mov	edx, DWORD PTR _insert$[ebp]
	mov	DWORD PTR [edx+4], ecx

; 6731 : 			left->ref--;

	mov	eax, DWORD PTR _left$[ebp]
	mov	ecx, DWORD PTR [eax+4]
	sub	ecx, 1
	mov	edx, DWORD PTR _left$[ebp]
	mov	DWORD PTR [edx+4], ecx

; 6732 : 			return(insert);

	mov	eax, DWORD PTR _insert$[ebp]
	jmp	$LN1@xmlExpHash
$LN45@xmlExpHash:

; 6733 : 		    }

	jmp	SHORT $LN39@xmlExpHash
$LN43@xmlExpHash:

; 6734 : 		} else if ((insert->exp_left == left) &&

	mov	eax, DWORD PTR _insert$[ebp]
	mov	ecx, DWORD PTR [eax+12]
	cmp	ecx, DWORD PTR _left$[ebp]
	jne	SHORT $LN39@xmlExpHash
	mov	edx, DWORD PTR _insert$[ebp]
	mov	eax, DWORD PTR [edx+20]
	cmp	eax, DWORD PTR _right$[ebp]
	jne	SHORT $LN39@xmlExpHash

; 6735 : 			   (insert->exp_right == right)) {
; 6736 : 		    insert->ref++;

	mov	ecx, DWORD PTR _insert$[ebp]
	mov	edx, DWORD PTR [ecx+4]
	add	edx, 1
	mov	eax, DWORD PTR _insert$[ebp]
	mov	DWORD PTR [eax+4], edx

; 6737 : 		    left->ref--;

	mov	ecx, DWORD PTR _left$[ebp]
	mov	edx, DWORD PTR [ecx+4]
	sub	edx, 1
	mov	eax, DWORD PTR _left$[ebp]
	mov	DWORD PTR [eax+4], edx

; 6738 : 		    right->ref--;

	mov	ecx, DWORD PTR _right$[ebp]
	mov	edx, DWORD PTR [ecx+4]
	sub	edx, 1
	mov	eax, DWORD PTR _right$[ebp]
	mov	DWORD PTR [eax+4], edx

; 6739 : 		    return(insert);

	mov	eax, DWORD PTR _insert$[ebp]
	jmp	$LN1@xmlExpHash
$LN39@xmlExpHash:

; 6740 : 		}
; 6741 : 	    }
; 6742 : 	}

	jmp	$LN2@xmlExpHash
$LN38@xmlExpHash:

; 6743 :     }
; 6744 : 
; 6745 :     entry = xmlExpNewNode(ctxt, type);

	mov	ecx, DWORD PTR _type$[ebp]
	push	ecx
	mov	edx, DWORD PTR _ctxt$[ebp]
	push	edx
	call	_xmlExpNewNode
	add	esp, 8
	mov	DWORD PTR _entry$[ebp], eax

; 6746 :     if (entry == NULL)

	cmp	DWORD PTR _entry$[ebp], 0
	jne	SHORT $LN47@xmlExpHash

; 6747 :         return(NULL);

	xor	eax, eax
	jmp	$LN1@xmlExpHash
$LN47@xmlExpHash:

; 6748 :     entry->key = kbase;

	mov	eax, DWORD PTR _entry$[ebp]
	mov	cx, WORD PTR _kbase$[ebp]
	mov	WORD PTR [eax+2], cx

; 6749 :     if (type == XML_EXP_ATOM) {

	cmp	DWORD PTR _type$[ebp], 2
	jne	SHORT $LN48@xmlExpHash

; 6750 : 	entry->exp_str = name;

	mov	edx, DWORD PTR _entry$[ebp]
	mov	eax, DWORD PTR _name$[ebp]
	mov	DWORD PTR [edx+20], eax

; 6751 : 	entry->c_max = 1;

	mov	ecx, DWORD PTR _entry$[ebp]
	mov	DWORD PTR [ecx+8], 1
	jmp	$LN49@xmlExpHash
$LN48@xmlExpHash:

; 6752 :     } else if (type == XML_EXP_COUNT) {

	cmp	DWORD PTR _type$[ebp], 5
	jne	SHORT $LN50@xmlExpHash

; 6753 :         entry->exp_min = min;

	mov	edx, DWORD PTR _entry$[ebp]
	mov	eax, DWORD PTR _min$[ebp]
	mov	DWORD PTR [edx+20], eax

; 6754 :         entry->exp_max = max;

	mov	ecx, DWORD PTR _entry$[ebp]
	mov	edx, DWORD PTR _max$[ebp]
	mov	DWORD PTR [ecx+24], edx

; 6755 : 	entry->exp_left = left;

	mov	eax, DWORD PTR _entry$[ebp]
	mov	ecx, DWORD PTR _left$[ebp]
	mov	DWORD PTR [eax+12], ecx

; 6756 : 	if ((min == 0) || (IS_NILLABLE(left)))

	cmp	DWORD PTR _min$[ebp], 0
	je	SHORT $LN53@xmlExpHash
	mov	edx, DWORD PTR _left$[ebp]
	movzx	eax, BYTE PTR [edx+1]
	and	eax, 1
	je	SHORT $LN52@xmlExpHash
$LN53@xmlExpHash:

; 6757 : 	    entry->info |= XML_EXP_NILABLE;

	mov	ecx, DWORD PTR _entry$[ebp]
	movzx	edx, BYTE PTR [ecx+1]
	or	edx, 1
	mov	eax, DWORD PTR _entry$[ebp]
	mov	BYTE PTR [eax+1], dl
$LN52@xmlExpHash:

; 6758 : 	if (max < 0)

	cmp	DWORD PTR _max$[ebp], 0
	jge	SHORT $LN54@xmlExpHash

; 6759 : 	    entry->c_max = -1;

	mov	ecx, DWORD PTR _entry$[ebp]
	mov	DWORD PTR [ecx+8], -1
	jmp	SHORT $LN55@xmlExpHash
$LN54@xmlExpHash:

; 6760 : 	else
; 6761 : 	    entry->c_max = max * entry->exp_left->c_max;

	mov	edx, DWORD PTR _entry$[ebp]
	mov	eax, DWORD PTR [edx+12]
	mov	ecx, DWORD PTR _max$[ebp]
	imul	ecx, DWORD PTR [eax+8]
	mov	edx, DWORD PTR _entry$[ebp]
	mov	DWORD PTR [edx+8], ecx
$LN55@xmlExpHash:

; 6762 :     } else {

	jmp	$LN49@xmlExpHash
$LN50@xmlExpHash:

; 6763 : 	entry->exp_left = left;

	mov	eax, DWORD PTR _entry$[ebp]
	mov	ecx, DWORD PTR _left$[ebp]
	mov	DWORD PTR [eax+12], ecx

; 6764 : 	entry->exp_right = right;

	mov	edx, DWORD PTR _entry$[ebp]
	mov	eax, DWORD PTR _right$[ebp]
	mov	DWORD PTR [edx+20], eax

; 6765 : 	if (type == XML_EXP_OR) {

	cmp	DWORD PTR _type$[ebp], 4
	jne	$LN56@xmlExpHash

; 6766 : 	    if ((IS_NILLABLE(left)) || (IS_NILLABLE(right)))

	mov	ecx, DWORD PTR _left$[ebp]
	movzx	edx, BYTE PTR [ecx+1]
	and	edx, 1
	jne	SHORT $LN59@xmlExpHash
	mov	eax, DWORD PTR _right$[ebp]
	movzx	ecx, BYTE PTR [eax+1]
	and	ecx, 1
	je	SHORT $LN58@xmlExpHash
$LN59@xmlExpHash:

; 6767 : 		entry->info |= XML_EXP_NILABLE;

	mov	edx, DWORD PTR _entry$[ebp]
	movzx	eax, BYTE PTR [edx+1]
	or	eax, 1
	mov	ecx, DWORD PTR _entry$[ebp]
	mov	BYTE PTR [ecx+1], al
$LN58@xmlExpHash:

; 6768 : 	    if ((entry->exp_left->c_max == -1) ||

	mov	edx, DWORD PTR _entry$[ebp]
	mov	eax, DWORD PTR [edx+12]
	cmp	DWORD PTR [eax+8], -1
	je	SHORT $LN62@xmlExpHash
	mov	ecx, DWORD PTR _entry$[ebp]
	mov	edx, DWORD PTR [ecx+20]
	cmp	DWORD PTR [edx+8], -1
	jne	SHORT $LN60@xmlExpHash
$LN62@xmlExpHash:

; 6769 : 	        (entry->exp_right->c_max == -1))
; 6770 : 		entry->c_max = -1;

	mov	eax, DWORD PTR _entry$[ebp]
	mov	DWORD PTR [eax+8], -1
	jmp	SHORT $LN61@xmlExpHash
$LN60@xmlExpHash:

; 6771 : 	    else if (entry->exp_left->c_max > entry->exp_right->c_max)

	mov	ecx, DWORD PTR _entry$[ebp]
	mov	edx, DWORD PTR [ecx+12]
	mov	eax, DWORD PTR _entry$[ebp]
	mov	ecx, DWORD PTR [eax+20]
	mov	edx, DWORD PTR [edx+8]
	cmp	edx, DWORD PTR [ecx+8]
	jle	SHORT $LN63@xmlExpHash

; 6772 : 	        entry->c_max = entry->exp_left->c_max;

	mov	eax, DWORD PTR _entry$[ebp]
	mov	ecx, DWORD PTR [eax+12]
	mov	edx, DWORD PTR _entry$[ebp]
	mov	eax, DWORD PTR [ecx+8]
	mov	DWORD PTR [edx+8], eax
	jmp	SHORT $LN61@xmlExpHash
$LN63@xmlExpHash:

; 6773 : 	    else
; 6774 : 	        entry->c_max = entry->exp_right->c_max;

	mov	ecx, DWORD PTR _entry$[ebp]
	mov	edx, DWORD PTR [ecx+20]
	mov	eax, DWORD PTR _entry$[ebp]
	mov	ecx, DWORD PTR [edx+8]
	mov	DWORD PTR [eax+8], ecx
$LN61@xmlExpHash:

; 6775 : 	} else {

	jmp	SHORT $LN49@xmlExpHash
$LN56@xmlExpHash:

; 6776 : 	    if ((IS_NILLABLE(left)) && (IS_NILLABLE(right)))

	mov	edx, DWORD PTR _left$[ebp]
	movzx	eax, BYTE PTR [edx+1]
	and	eax, 1
	je	SHORT $LN65@xmlExpHash
	mov	ecx, DWORD PTR _right$[ebp]
	movzx	edx, BYTE PTR [ecx+1]
	and	edx, 1
	je	SHORT $LN65@xmlExpHash

; 6777 : 		entry->info |= XML_EXP_NILABLE;

	mov	eax, DWORD PTR _entry$[ebp]
	movzx	ecx, BYTE PTR [eax+1]
	or	ecx, 1
	mov	edx, DWORD PTR _entry$[ebp]
	mov	BYTE PTR [edx+1], cl
$LN65@xmlExpHash:

; 6778 : 	    if ((entry->exp_left->c_max == -1) ||

	mov	eax, DWORD PTR _entry$[ebp]
	mov	ecx, DWORD PTR [eax+12]
	cmp	DWORD PTR [ecx+8], -1
	je	SHORT $LN68@xmlExpHash
	mov	edx, DWORD PTR _entry$[ebp]
	mov	eax, DWORD PTR [edx+20]
	cmp	DWORD PTR [eax+8], -1
	jne	SHORT $LN66@xmlExpHash
$LN68@xmlExpHash:

; 6779 : 	        (entry->exp_right->c_max == -1))
; 6780 : 		entry->c_max = -1;

	mov	ecx, DWORD PTR _entry$[ebp]
	mov	DWORD PTR [ecx+8], -1
	jmp	SHORT $LN49@xmlExpHash
$LN66@xmlExpHash:

; 6781 : 	    else
; 6782 : 	        entry->c_max = entry->exp_left->c_max + entry->exp_right->c_max;

	mov	edx, DWORD PTR _entry$[ebp]
	mov	eax, DWORD PTR [edx+12]
	mov	ecx, DWORD PTR _entry$[ebp]
	mov	edx, DWORD PTR [ecx+20]
	mov	eax, DWORD PTR [eax+8]
	add	eax, DWORD PTR [edx+8]
	mov	ecx, DWORD PTR _entry$[ebp]
	mov	DWORD PTR [ecx+8], eax
$LN49@xmlExpHash:

; 6783 : 	}
; 6784 :     }
; 6785 :     entry->ref = 1;

	mov	edx, DWORD PTR _entry$[ebp]
	mov	DWORD PTR [edx+4], 1

; 6786 :     if (ctxt->table[key] != NULL)

	movzx	eax, WORD PTR _key$[ebp]
	mov	ecx, DWORD PTR _ctxt$[ebp]
	mov	edx, DWORD PTR [ecx+4]
	cmp	DWORD PTR [edx+eax*4], 0
	je	SHORT $LN69@xmlExpHash

; 6787 :         entry->next = ctxt->table[key];

	movzx	eax, WORD PTR _key$[ebp]
	mov	ecx, DWORD PTR _ctxt$[ebp]
	mov	edx, DWORD PTR [ecx+4]
	mov	ecx, DWORD PTR _entry$[ebp]
	mov	edx, DWORD PTR [edx+eax*4]
	mov	DWORD PTR [ecx+16], edx
$LN69@xmlExpHash:

; 6788 : 
; 6789 :     ctxt->table[key] = entry;

	movzx	eax, WORD PTR _key$[ebp]
	mov	ecx, DWORD PTR _ctxt$[ebp]
	mov	edx, DWORD PTR [ecx+4]
	mov	ecx, DWORD PTR _entry$[ebp]
	mov	DWORD PTR [edx+eax*4], ecx

; 6790 :     ctxt->nbElems++;

	mov	edx, DWORD PTR _ctxt$[ebp]
	mov	eax, DWORD PTR [edx+12]
	add	eax, 1
	mov	ecx, DWORD PTR _ctxt$[ebp]
	mov	DWORD PTR [ecx+12], eax

; 6791 : 
; 6792 :     return(entry);

	mov	eax, DWORD PTR _entry$[ebp]
$LN1@xmlExpHash:

; 6793 : }

	add	esp, 36					; 00000024H
	cmp	ebp, esp
	call	__RTC_CheckEsp
	mov	esp, ebp
	pop	ebp
	ret	0
_xmlExpHashGetEntry ENDP
_TEXT	ENDS
; Function compile flags: /Odtp /RTCsu
; File c:\users\dag\documents\_clients\codeproject authors group\windows on arm\libxml2\libxml2-2.9.9\xmlregexp.c
;	COMDAT _xmlExpHashComputeKey
_TEXT	SEGMENT
tv64 = -12						; size = 4
_ret$ = -8						; size = 2
_value$ = -4						; size = 4
_type$ = 8						; size = 4
_left$ = 12						; size = 4
_right$ = 16						; size = 4
_xmlExpHashComputeKey PROC				; COMDAT

; 6512 :                      xmlExpNodePtr right) {

	push	ebp
	mov	ebp, esp
	sub	esp, 12					; 0000000cH
	mov	DWORD PTR [ebp-12], -858993460		; ccccccccH
	mov	DWORD PTR [ebp-8], -858993460		; ccccccccH
	mov	DWORD PTR [ebp-4], -858993460		; ccccccccH
	mov	ecx, OFFSET __F6DD4902_xmlregexp@c
	call	@__CheckForDebuggerJustMyCode@4

; 6513 :     unsigned long value;
; 6514 :     unsigned short ret;
; 6515 : 
; 6516 :     switch (type) {

	mov	eax, DWORD PTR _type$[ebp]
	mov	DWORD PTR tv64[ebp], eax
	cmp	DWORD PTR tv64[ebp], 3
	je	SHORT $LN4@xmlExpHash
	cmp	DWORD PTR tv64[ebp], 4
	je	SHORT $LN5@xmlExpHash
	cmp	DWORD PTR tv64[ebp], 5
	je	SHORT $LN6@xmlExpHash
	jmp	SHORT $LN7@xmlExpHash
$LN4@xmlExpHash:

; 6517 :         case XML_EXP_SEQ:
; 6518 : 	    value = left->key;

	mov	ecx, DWORD PTR _left$[ebp]
	movzx	edx, WORD PTR [ecx+2]
	mov	DWORD PTR _value$[ebp], edx

; 6519 : 	    value += right->key;

	mov	eax, DWORD PTR _right$[ebp]
	movzx	ecx, WORD PTR [eax+2]
	add	ecx, DWORD PTR _value$[ebp]
	mov	DWORD PTR _value$[ebp], ecx

; 6520 : 	    value *= 3;

	imul	edx, DWORD PTR _value$[ebp], 3
	mov	DWORD PTR _value$[ebp], edx

; 6521 : 	    ret = (unsigned short) value;

	mov	ax, WORD PTR _value$[ebp]
	mov	WORD PTR _ret$[ebp], ax

; 6522 : 	    break;

	jmp	SHORT $LN2@xmlExpHash
$LN5@xmlExpHash:

; 6523 :         case XML_EXP_OR:
; 6524 : 	    value = left->key;

	mov	ecx, DWORD PTR _left$[ebp]
	movzx	edx, WORD PTR [ecx+2]
	mov	DWORD PTR _value$[ebp], edx

; 6525 : 	    value += right->key;

	mov	eax, DWORD PTR _right$[ebp]
	movzx	ecx, WORD PTR [eax+2]
	add	ecx, DWORD PTR _value$[ebp]
	mov	DWORD PTR _value$[ebp], ecx

; 6526 : 	    value *= 7;

	imul	edx, DWORD PTR _value$[ebp], 7
	mov	DWORD PTR _value$[ebp], edx

; 6527 : 	    ret = (unsigned short) value;

	mov	ax, WORD PTR _value$[ebp]
	mov	WORD PTR _ret$[ebp], ax

; 6528 : 	    break;

	jmp	SHORT $LN2@xmlExpHash
$LN6@xmlExpHash:

; 6529 :         case XML_EXP_COUNT:
; 6530 : 	    value = left->key;

	mov	ecx, DWORD PTR _left$[ebp]
	movzx	edx, WORD PTR [ecx+2]
	mov	DWORD PTR _value$[ebp], edx

; 6531 : 	    value += right->key;

	mov	eax, DWORD PTR _right$[ebp]
	movzx	ecx, WORD PTR [eax+2]
	add	ecx, DWORD PTR _value$[ebp]
	mov	DWORD PTR _value$[ebp], ecx

; 6532 : 	    ret = (unsigned short) value;

	mov	dx, WORD PTR _value$[ebp]
	mov	WORD PTR _ret$[ebp], dx

; 6533 : 	    break;

	jmp	SHORT $LN2@xmlExpHash
$LN7@xmlExpHash:

; 6534 : 	default:
; 6535 : 	    ret = 0;

	xor	eax, eax
	mov	WORD PTR _ret$[ebp], ax
$LN2@xmlExpHash:

; 6536 :     }
; 6537 :     return(ret);

	mov	ax, WORD PTR _ret$[ebp]

; 6538 : }

	add	esp, 12					; 0000000cH
	cmp	ebp, esp
	call	__RTC_CheckEsp
	mov	esp, ebp
	pop	ebp
	ret	0
_xmlExpHashComputeKey ENDP
_TEXT	ENDS
; Function compile flags: /Odtp /RTCsu
; File c:\users\dag\documents\_clients\codeproject authors group\windows on arm\libxml2\libxml2-2.9.9\xmlregexp.c
;	COMDAT _xmlExpHashNameComputeKey
_TEXT	SEGMENT
tv74 = -16						; size = 4
tv73 = -12						; size = 4
_ch$ = -5						; size = 1
_value$ = -4						; size = 2
_name$ = 8						; size = 4
_xmlExpHashNameComputeKey PROC				; COMDAT

; 6493 : xmlExpHashNameComputeKey(const xmlChar *name) {

	push	ebp
	mov	ebp, esp
	sub	esp, 16					; 00000010H
	mov	eax, -858993460				; ccccccccH
	mov	DWORD PTR [ebp-16], eax
	mov	DWORD PTR [ebp-12], eax
	mov	DWORD PTR [ebp-8], eax
	mov	DWORD PTR [ebp-4], eax
	mov	ecx, OFFSET __F6DD4902_xmlregexp@c
	call	@__CheckForDebuggerJustMyCode@4

; 6494 :     unsigned short value = 0L;

	xor	eax, eax
	mov	WORD PTR _value$[ebp], ax

; 6495 :     char ch;
; 6496 : 
; 6497 :     if (name != NULL) {

	cmp	DWORD PTR _name$[ebp], 0
	je	SHORT $LN4@xmlExpHash

; 6498 : 	value += 30 * (*name);

	mov	ecx, DWORD PTR _name$[ebp]
	movzx	edx, BYTE PTR [ecx]
	imul	eax, edx, 30
	movzx	ecx, WORD PTR _value$[ebp]
	add	ecx, eax
	mov	WORD PTR _value$[ebp], cx
$LN2@xmlExpHash:

; 6499 : 	while ((ch = *name++) != 0) {

	mov	edx, DWORD PTR _name$[ebp]
	mov	al, BYTE PTR [edx]
	mov	BYTE PTR _ch$[ebp], al
	movsx	ecx, BYTE PTR _ch$[ebp]
	mov	DWORD PTR tv73[ebp], ecx
	mov	edx, DWORD PTR _name$[ebp]
	add	edx, 1
	mov	DWORD PTR _name$[ebp], edx
	cmp	DWORD PTR tv73[ebp], 0
	je	SHORT $LN6@xmlExpHash
	mov	DWORD PTR tv74[ebp], 1
	jmp	SHORT $LN7@xmlExpHash
$LN6@xmlExpHash:
	mov	DWORD PTR tv74[ebp], 0
$LN7@xmlExpHash:
	cmp	DWORD PTR tv74[ebp], 0
	je	SHORT $LN4@xmlExpHash

; 6500 : 	    value = value ^ ((value << 5) + (value >> 3) + (unsigned long)ch);

	movzx	eax, WORD PTR _value$[ebp]
	movzx	ecx, WORD PTR _value$[ebp]
	shl	ecx, 5
	movzx	edx, WORD PTR _value$[ebp]
	sar	edx, 3
	add	ecx, edx
	movsx	edx, BYTE PTR _ch$[ebp]
	add	ecx, edx
	xor	eax, ecx
	mov	WORD PTR _value$[ebp], ax

; 6501 : 	}

	jmp	SHORT $LN2@xmlExpHash
$LN4@xmlExpHash:

; 6502 :     }
; 6503 :     return (value);

	mov	ax, WORD PTR _value$[ebp]

; 6504 : }

	add	esp, 16					; 00000010H
	cmp	ebp, esp
	call	__RTC_CheckEsp
	mov	esp, ebp
	pop	ebp
	ret	0
_xmlExpHashNameComputeKey ENDP
_TEXT	ENDS
; Function compile flags: /Odtp /RTCsu
; File c:\users\dag\documents\_clients\codeproject authors group\windows on arm\libxml2\libxml2-2.9.9\xmlregexp.c
;	COMDAT _xmlExpNewNode
_TEXT	SEGMENT
_ret$ = -4						; size = 4
_ctxt$ = 8						; size = 4
_type$ = 12						; size = 4
_xmlExpNewNode PROC					; COMDAT

; 6542 : xmlExpNewNode(xmlExpCtxtPtr ctxt, xmlExpNodeType type) {

	push	ebp
	mov	ebp, esp
	push	ecx
	push	esi
	mov	DWORD PTR [ebp-4], -858993460		; ccccccccH
	mov	ecx, OFFSET __F6DD4902_xmlregexp@c
	call	@__CheckForDebuggerJustMyCode@4

; 6543 :     xmlExpNodePtr ret;
; 6544 : 
; 6545 :     if (ctxt->nb_nodes >= MAX_NODES)

	mov	eax, DWORD PTR _ctxt$[ebp]
	cmp	DWORD PTR [eax+16], 10000		; 00002710H
	jl	SHORT $LN2@xmlExpNewN

; 6546 :         return(NULL);

	xor	eax, eax
	jmp	SHORT $LN1@xmlExpNewN
$LN2@xmlExpNewN:

; 6547 :     ret = (xmlExpNodePtr) xmlMalloc(sizeof(xmlExpNode));

	mov	esi, esp
	push	28					; 0000001cH
	call	DWORD PTR _xmlMalloc
	add	esp, 4
	cmp	esi, esp
	call	__RTC_CheckEsp
	mov	DWORD PTR _ret$[ebp], eax

; 6548 :     if (ret == NULL)

	cmp	DWORD PTR _ret$[ebp], 0
	jne	SHORT $LN3@xmlExpNewN

; 6549 :         return(NULL);

	xor	eax, eax
	jmp	SHORT $LN1@xmlExpNewN
$LN3@xmlExpNewN:

; 6550 :     memset(ret, 0, sizeof(xmlExpNode));

	xor	ecx, ecx
	mov	edx, DWORD PTR _ret$[ebp]
	mov	DWORD PTR [edx], ecx
	mov	DWORD PTR [edx+4], ecx
	mov	DWORD PTR [edx+8], ecx
	mov	DWORD PTR [edx+12], ecx
	mov	DWORD PTR [edx+16], ecx
	mov	DWORD PTR [edx+20], ecx
	mov	DWORD PTR [edx+24], ecx

; 6551 :     ret->type = type;

	mov	eax, DWORD PTR _ret$[ebp]
	mov	cl, BYTE PTR _type$[ebp]
	mov	BYTE PTR [eax], cl

; 6552 :     ret->next = NULL;

	mov	edx, DWORD PTR _ret$[ebp]
	mov	DWORD PTR [edx+16], 0

; 6553 :     ctxt->nb_nodes++;

	mov	eax, DWORD PTR _ctxt$[ebp]
	mov	ecx, DWORD PTR [eax+16]
	add	ecx, 1
	mov	edx, DWORD PTR _ctxt$[ebp]
	mov	DWORD PTR [edx+16], ecx

; 6554 :     ctxt->nb_cons++;

	mov	eax, DWORD PTR _ctxt$[ebp]
	mov	ecx, DWORD PTR [eax+32]
	add	ecx, 1
	mov	edx, DWORD PTR _ctxt$[ebp]
	mov	DWORD PTR [edx+32], ecx

; 6555 :     return(ret);

	mov	eax, DWORD PTR _ret$[ebp]
$LN1@xmlExpNewN:

; 6556 : }

	pop	esi
	add	esp, 4
	cmp	ebp, esp
	call	__RTC_CheckEsp
	mov	esp, ebp
	pop	ebp
	ret	0
_xmlExpNewNode ENDP
_TEXT	ENDS
; Function compile flags: /Odtp /RTCsu
; File c:\users\dag\documents\_clients\codeproject authors group\windows on arm\libxml2\libxml2-2.9.9\xmlregexp.c
;	COMDAT _xmlFAParseBranch
_TEXT	SEGMENT
tv135 = -16						; size = 4
tv79 = -12						; size = 4
_ret$ = -8						; size = 4
_previous$ = -4						; size = 4
_ctxt$ = 8						; size = 4
_to$ = 12						; size = 4
_xmlFAParseBranch PROC					; COMDAT

; 5344 : xmlFAParseBranch(xmlRegParserCtxtPtr ctxt, xmlRegStatePtr to) {

	push	ebp
	mov	ebp, esp
	sub	esp, 16					; 00000010H
	mov	eax, -858993460				; ccccccccH
	mov	DWORD PTR [ebp-16], eax
	mov	DWORD PTR [ebp-12], eax
	mov	DWORD PTR [ebp-8], eax
	mov	DWORD PTR [ebp-4], eax
	mov	ecx, OFFSET __F6DD4902_xmlregexp@c
	call	@__CheckForDebuggerJustMyCode@4

; 5345 :     xmlRegStatePtr previous;
; 5346 :     int ret;
; 5347 : 
; 5348 :     previous = ctxt->state;

	mov	eax, DWORD PTR _ctxt$[ebp]
	mov	ecx, DWORD PTR [eax+24]
	mov	DWORD PTR _previous$[ebp], ecx

; 5349 :     ret = xmlFAParsePiece(ctxt);

	mov	edx, DWORD PTR _ctxt$[ebp]
	push	edx
	call	_xmlFAParsePiece
	add	esp, 4
	mov	DWORD PTR _ret$[ebp], eax

; 5350 :     if (ret != 0) {

	cmp	DWORD PTR _ret$[ebp], 0
	je	SHORT $LN2@xmlFAParse

; 5351 : 	if (xmlFAGenerateTransitions(ctxt, previous,
; 5352 : 	        (CUR=='|' || CUR==')') ? to : NULL, ctxt->atom) < 0)

	mov	eax, DWORD PTR _ctxt$[ebp]
	mov	ecx, DWORD PTR [eax+4]
	movzx	edx, BYTE PTR [ecx]
	cmp	edx, 124				; 0000007cH
	je	SHORT $LN9@xmlFAParse
	mov	eax, DWORD PTR _ctxt$[ebp]
	mov	ecx, DWORD PTR [eax+4]
	movzx	edx, BYTE PTR [ecx]
	cmp	edx, 41					; 00000029H
	je	SHORT $LN9@xmlFAParse
	mov	DWORD PTR tv79[ebp], 0
	jmp	SHORT $LN10@xmlFAParse
$LN9@xmlFAParse:
	mov	eax, DWORD PTR _to$[ebp]
	mov	DWORD PTR tv79[ebp], eax
$LN10@xmlFAParse:
	mov	ecx, DWORD PTR _ctxt$[ebp]
	mov	edx, DWORD PTR [ecx+28]
	push	edx
	mov	eax, DWORD PTR tv79[ebp]
	push	eax
	mov	ecx, DWORD PTR _previous$[ebp]
	push	ecx
	mov	edx, DWORD PTR _ctxt$[ebp]
	push	edx
	call	_xmlFAGenerateTransitions
	add	esp, 16					; 00000010H
	test	eax, eax
	jge	SHORT $LN5@xmlFAParse

; 5353 : 	    return(-1);

	or	eax, -1
	jmp	$LN1@xmlFAParse
$LN5@xmlFAParse:

; 5354 : 	previous = ctxt->state;

	mov	eax, DWORD PTR _ctxt$[ebp]
	mov	ecx, DWORD PTR [eax+24]
	mov	DWORD PTR _previous$[ebp], ecx

; 5355 : 	ctxt->atom = NULL;

	mov	edx, DWORD PTR _ctxt$[ebp]
	mov	DWORD PTR [edx+28], 0
$LN2@xmlFAParse:

; 5356 :     }
; 5357 :     while ((ret != 0) && (ctxt->error == 0)) {

	cmp	DWORD PTR _ret$[ebp], 0
	je	$LN3@xmlFAParse
	mov	eax, DWORD PTR _ctxt$[ebp]
	cmp	DWORD PTR [eax+8], 0
	jne	SHORT $LN3@xmlFAParse

; 5358 : 	ret = xmlFAParsePiece(ctxt);

	mov	ecx, DWORD PTR _ctxt$[ebp]
	push	ecx
	call	_xmlFAParsePiece
	add	esp, 4
	mov	DWORD PTR _ret$[ebp], eax

; 5359 : 	if (ret != 0) {

	cmp	DWORD PTR _ret$[ebp], 0
	je	SHORT $LN6@xmlFAParse

; 5360 : 	    if (xmlFAGenerateTransitions(ctxt, previous,
; 5361 : 	            (CUR=='|' || CUR==')') ? to : NULL, ctxt->atom) < 0)

	mov	edx, DWORD PTR _ctxt$[ebp]
	mov	eax, DWORD PTR [edx+4]
	movzx	ecx, BYTE PTR [eax]
	cmp	ecx, 124				; 0000007cH
	je	SHORT $LN11@xmlFAParse
	mov	edx, DWORD PTR _ctxt$[ebp]
	mov	eax, DWORD PTR [edx+4]
	movzx	ecx, BYTE PTR [eax]
	cmp	ecx, 41					; 00000029H
	je	SHORT $LN11@xmlFAParse
	mov	DWORD PTR tv135[ebp], 0
	jmp	SHORT $LN12@xmlFAParse
$LN11@xmlFAParse:
	mov	edx, DWORD PTR _to$[ebp]
	mov	DWORD PTR tv135[ebp], edx
$LN12@xmlFAParse:
	mov	eax, DWORD PTR _ctxt$[ebp]
	mov	ecx, DWORD PTR [eax+28]
	push	ecx
	mov	edx, DWORD PTR tv135[ebp]
	push	edx
	mov	eax, DWORD PTR _previous$[ebp]
	push	eax
	mov	ecx, DWORD PTR _ctxt$[ebp]
	push	ecx
	call	_xmlFAGenerateTransitions
	add	esp, 16					; 00000010H
	test	eax, eax
	jge	SHORT $LN7@xmlFAParse

; 5362 : 		    return(-1);

	or	eax, -1
	jmp	SHORT $LN1@xmlFAParse
$LN7@xmlFAParse:

; 5363 : 	    previous = ctxt->state;

	mov	edx, DWORD PTR _ctxt$[ebp]
	mov	eax, DWORD PTR [edx+24]
	mov	DWORD PTR _previous$[ebp], eax

; 5364 : 	    ctxt->atom = NULL;

	mov	ecx, DWORD PTR _ctxt$[ebp]
	mov	DWORD PTR [ecx+28], 0
$LN6@xmlFAParse:

; 5365 : 	}
; 5366 :     }

	jmp	$LN2@xmlFAParse
$LN3@xmlFAParse:

; 5367 :     return(0);

	xor	eax, eax
$LN1@xmlFAParse:

; 5368 : }

	add	esp, 16					; 00000010H
	cmp	ebp, esp
	call	__RTC_CheckEsp
	mov	esp, ebp
	pop	ebp
	ret	0
_xmlFAParseBranch ENDP
_TEXT	ENDS
; Function compile flags: /Odtp /RTCsu
; File c:\users\dag\documents\_clients\codeproject authors group\windows on arm\libxml2\libxml2-2.9.9\xmlregexp.c
;	COMDAT _xmlFAParsePiece
_TEXT	SEGMENT
_ret$ = -4						; size = 4
_ctxt$ = 8						; size = 4
_xmlFAParsePiece PROC					; COMDAT

; 5319 : xmlFAParsePiece(xmlRegParserCtxtPtr ctxt) {

	push	ebp
	mov	ebp, esp
	push	ecx
	mov	DWORD PTR [ebp-4], -858993460		; ccccccccH
	mov	ecx, OFFSET __F6DD4902_xmlregexp@c
	call	@__CheckForDebuggerJustMyCode@4

; 5320 :     int ret;
; 5321 : 
; 5322 :     ctxt->atom = NULL;

	mov	eax, DWORD PTR _ctxt$[ebp]
	mov	DWORD PTR [eax+28], 0

; 5323 :     ret = xmlFAParseAtom(ctxt);

	mov	ecx, DWORD PTR _ctxt$[ebp]
	push	ecx
	call	_xmlFAParseAtom
	add	esp, 4
	mov	DWORD PTR _ret$[ebp], eax

; 5324 :     if (ret == 0)

	cmp	DWORD PTR _ret$[ebp], 0
	jne	SHORT $LN2@xmlFAParse

; 5325 : 	return(0);

	xor	eax, eax
	jmp	SHORT $LN1@xmlFAParse
$LN2@xmlFAParse:

; 5326 :     if (ctxt->atom == NULL) {

	mov	edx, DWORD PTR _ctxt$[ebp]
	cmp	DWORD PTR [edx+28], 0
	jne	SHORT $LN3@xmlFAParse

; 5327 : 	ERROR("internal: no atom generated");

	mov	eax, DWORD PTR _ctxt$[ebp]
	mov	DWORD PTR [eax+8], 1450			; 000005aaH
	push	OFFSET ??_C@_0BM@PFFMPGPF@internal?3?5no?5atom?5generated@
	mov	ecx, DWORD PTR _ctxt$[ebp]
	push	ecx
	call	_xmlRegexpErrCompile
	add	esp, 8
$LN3@xmlFAParse:

; 5328 :     }
; 5329 :     xmlFAParseQuantifier(ctxt);

	mov	edx, DWORD PTR _ctxt$[ebp]
	push	edx
	call	_xmlFAParseQuantifier
	add	esp, 4

; 5330 :     return(1);

	mov	eax, 1
$LN1@xmlFAParse:

; 5331 : }

	add	esp, 4
	cmp	ebp, esp
	call	__RTC_CheckEsp
	mov	esp, ebp
	pop	ebp
	ret	0
_xmlFAParsePiece ENDP
_TEXT	ENDS
; Function compile flags: /Odtp /RTCsu
; File c:\users\dag\documents\_clients\codeproject authors group\windows on arm\libxml2\libxml2-2.9.9\xmlregexp.c
;	COMDAT _xmlFAParseAtom
_TEXT	SEGMENT
_start0$1 = -28						; size = 4
_oldend$2 = -24						; size = 4
_start$3 = -20						; size = 4
_len$ = -12						; size = 4
_codepoint$ = -4					; size = 4
_ctxt$ = 8						; size = 4
_xmlFAParseAtom PROC					; COMDAT

; 5258 : xmlFAParseAtom(xmlRegParserCtxtPtr ctxt) {

	push	ebp
	mov	ebp, esp
	sub	esp, 28					; 0000001cH
	mov	eax, -858993460				; ccccccccH
	mov	DWORD PTR [ebp-28], eax
	mov	DWORD PTR [ebp-24], eax
	mov	DWORD PTR [ebp-20], eax
	mov	DWORD PTR [ebp-16], eax
	mov	DWORD PTR [ebp-12], eax
	mov	DWORD PTR [ebp-8], eax
	mov	DWORD PTR [ebp-4], eax
	mov	ecx, OFFSET __F6DD4902_xmlregexp@c
	call	@__CheckForDebuggerJustMyCode@4

; 5259 :     int codepoint, len;
; 5260 : 
; 5261 :     codepoint = xmlFAIsChar(ctxt);

	mov	eax, DWORD PTR _ctxt$[ebp]
	push	eax
	call	_xmlFAIsChar
	add	esp, 4
	mov	DWORD PTR _codepoint$[ebp], eax

; 5262 :     if (codepoint > 0) {

	cmp	DWORD PTR _codepoint$[ebp], 0
	jle	SHORT $LN2@xmlFAParse

; 5263 : 	ctxt->atom = xmlRegNewAtom(ctxt, XML_REGEXP_CHARVAL);

	push	2
	mov	ecx, DWORD PTR _ctxt$[ebp]
	push	ecx
	call	_xmlRegNewAtom
	add	esp, 8
	mov	edx, DWORD PTR _ctxt$[ebp]
	mov	DWORD PTR [edx+28], eax

; 5264 : 	if (ctxt->atom == NULL)

	mov	eax, DWORD PTR _ctxt$[ebp]
	cmp	DWORD PTR [eax+28], 0
	jne	SHORT $LN4@xmlFAParse

; 5265 : 	    return(-1);

	or	eax, -1
	jmp	$LN1@xmlFAParse
$LN4@xmlFAParse:

; 5266 : 	codepoint = CUR_SCHAR(ctxt->cur, len);

	lea	ecx, DWORD PTR _len$[ebp]
	push	ecx
	mov	edx, DWORD PTR _ctxt$[ebp]
	mov	eax, DWORD PTR [edx+4]
	push	eax
	push	0
	call	_xmlStringCurrentChar
	add	esp, 12					; 0000000cH
	mov	DWORD PTR _codepoint$[ebp], eax

; 5267 : 	ctxt->atom->codepoint = codepoint;

	mov	ecx, DWORD PTR _ctxt$[ebp]
	mov	edx, DWORD PTR [ecx+28]
	mov	eax, DWORD PTR _codepoint$[ebp]
	mov	DWORD PTR [edx+32], eax

; 5268 : 	NEXTL(len);

	mov	ecx, DWORD PTR _ctxt$[ebp]
	mov	edx, DWORD PTR [ecx+4]
	add	edx, DWORD PTR _len$[ebp]
	mov	eax, DWORD PTR _ctxt$[ebp]
	mov	DWORD PTR [eax+4], edx

; 5269 : 	return(1);

	mov	eax, 1
	jmp	$LN1@xmlFAParse
	jmp	$LN3@xmlFAParse
$LN2@xmlFAParse:

; 5270 :     } else if (CUR == '|') {

	mov	ecx, DWORD PTR _ctxt$[ebp]
	mov	edx, DWORD PTR [ecx+4]
	movzx	eax, BYTE PTR [edx]
	cmp	eax, 124				; 0000007cH
	jne	SHORT $LN5@xmlFAParse

; 5271 : 	return(0);

	xor	eax, eax
	jmp	$LN1@xmlFAParse
	jmp	$LN3@xmlFAParse
$LN5@xmlFAParse:

; 5272 :     } else if (CUR == 0) {

	mov	ecx, DWORD PTR _ctxt$[ebp]
	mov	edx, DWORD PTR [ecx+4]
	movzx	eax, BYTE PTR [edx]
	test	eax, eax
	jne	SHORT $LN7@xmlFAParse

; 5273 : 	return(0);

	xor	eax, eax
	jmp	$LN1@xmlFAParse
	jmp	$LN3@xmlFAParse
$LN7@xmlFAParse:

; 5274 :     } else if (CUR == ')') {

	mov	ecx, DWORD PTR _ctxt$[ebp]
	mov	edx, DWORD PTR [ecx+4]
	movzx	eax, BYTE PTR [edx]
	cmp	eax, 41					; 00000029H
	jne	SHORT $LN9@xmlFAParse

; 5275 : 	return(0);

	xor	eax, eax
	jmp	$LN1@xmlFAParse
	jmp	$LN3@xmlFAParse
$LN9@xmlFAParse:

; 5276 :     } else if (CUR == '(') {

	mov	ecx, DWORD PTR _ctxt$[ebp]
	mov	edx, DWORD PTR [ecx+4]
	movzx	eax, BYTE PTR [edx]
	cmp	eax, 40					; 00000028H
	jne	$LN11@xmlFAParse

; 5277 : 	xmlRegStatePtr start, oldend, start0;
; 5278 : 
; 5279 : 	NEXT;

	mov	ecx, DWORD PTR _ctxt$[ebp]
	mov	edx, DWORD PTR [ecx+4]
	add	edx, 1
	mov	eax, DWORD PTR _ctxt$[ebp]
	mov	DWORD PTR [eax+4], edx

; 5280 : 	/*
; 5281 : 	 * this extra Epsilon transition is needed if we count with 0 allowed
; 5282 : 	 * unfortunately this can't be known at that point
; 5283 : 	 */
; 5284 : 	xmlFAGenerateEpsilonTransition(ctxt, ctxt->state, NULL);

	push	0
	mov	ecx, DWORD PTR _ctxt$[ebp]
	mov	edx, DWORD PTR [ecx+24]
	push	edx
	mov	eax, DWORD PTR _ctxt$[ebp]
	push	eax
	call	_xmlFAGenerateEpsilonTransition
	add	esp, 12					; 0000000cH

; 5285 : 	start0 = ctxt->state;

	mov	ecx, DWORD PTR _ctxt$[ebp]
	mov	edx, DWORD PTR [ecx+24]
	mov	DWORD PTR _start0$1[ebp], edx

; 5286 : 	xmlFAGenerateEpsilonTransition(ctxt, ctxt->state, NULL);

	push	0
	mov	eax, DWORD PTR _ctxt$[ebp]
	mov	ecx, DWORD PTR [eax+24]
	push	ecx
	mov	edx, DWORD PTR _ctxt$[ebp]
	push	edx
	call	_xmlFAGenerateEpsilonTransition
	add	esp, 12					; 0000000cH

; 5287 : 	start = ctxt->state;

	mov	eax, DWORD PTR _ctxt$[ebp]
	mov	ecx, DWORD PTR [eax+24]
	mov	DWORD PTR _start$3[ebp], ecx

; 5288 : 	oldend = ctxt->end;

	mov	edx, DWORD PTR _ctxt$[ebp]
	mov	eax, DWORD PTR [edx+20]
	mov	DWORD PTR _oldend$2[ebp], eax

; 5289 : 	ctxt->end = NULL;

	mov	ecx, DWORD PTR _ctxt$[ebp]
	mov	DWORD PTR [ecx+20], 0

; 5290 : 	ctxt->atom = NULL;

	mov	edx, DWORD PTR _ctxt$[ebp]
	mov	DWORD PTR [edx+28], 0

; 5291 : 	xmlFAParseRegExp(ctxt, 0);

	push	0
	mov	eax, DWORD PTR _ctxt$[ebp]
	push	eax
	call	_xmlFAParseRegExp
	add	esp, 8

; 5292 : 	if (CUR == ')') {

	mov	ecx, DWORD PTR _ctxt$[ebp]
	mov	edx, DWORD PTR [ecx+4]
	movzx	eax, BYTE PTR [edx]
	cmp	eax, 41					; 00000029H
	jne	SHORT $LN13@xmlFAParse

; 5293 : 	    NEXT;

	mov	ecx, DWORD PTR _ctxt$[ebp]
	mov	edx, DWORD PTR [ecx+4]
	add	edx, 1
	mov	eax, DWORD PTR _ctxt$[ebp]
	mov	DWORD PTR [eax+4], edx

; 5294 : 	} else {

	jmp	SHORT $LN14@xmlFAParse
$LN13@xmlFAParse:

; 5295 : 	    ERROR("xmlFAParseAtom: expecting ')'");

	mov	ecx, DWORD PTR _ctxt$[ebp]
	mov	DWORD PTR [ecx+8], 1450			; 000005aaH
	push	OFFSET ??_C@_0BO@CCFFKIJF@xmlFAParseAtom?3?5expecting?5?8?$CJ?8@
	mov	edx, DWORD PTR _ctxt$[ebp]
	push	edx
	call	_xmlRegexpErrCompile
	add	esp, 8
$LN14@xmlFAParse:

; 5296 : 	}
; 5297 : 	ctxt->atom = xmlRegNewAtom(ctxt, XML_REGEXP_SUBREG);

	push	4
	mov	eax, DWORD PTR _ctxt$[ebp]
	push	eax
	call	_xmlRegNewAtom
	add	esp, 8
	mov	ecx, DWORD PTR _ctxt$[ebp]
	mov	DWORD PTR [ecx+28], eax

; 5298 : 	if (ctxt->atom == NULL)

	mov	edx, DWORD PTR _ctxt$[ebp]
	cmp	DWORD PTR [edx+28], 0
	jne	SHORT $LN15@xmlFAParse

; 5299 : 	    return(-1);

	or	eax, -1
	jmp	SHORT $LN1@xmlFAParse
$LN15@xmlFAParse:

; 5300 : 	ctxt->atom->start = start;

	mov	eax, DWORD PTR _ctxt$[ebp]
	mov	ecx, DWORD PTR [eax+28]
	mov	edx, DWORD PTR _start$3[ebp]
	mov	DWORD PTR [ecx+36], edx

; 5301 : 	ctxt->atom->start0 = start0;

	mov	eax, DWORD PTR _ctxt$[ebp]
	mov	ecx, DWORD PTR [eax+28]
	mov	edx, DWORD PTR _start0$1[ebp]
	mov	DWORD PTR [ecx+40], edx

; 5302 : 	ctxt->atom->stop = ctxt->state;

	mov	eax, DWORD PTR _ctxt$[ebp]
	mov	ecx, DWORD PTR [eax+28]
	mov	edx, DWORD PTR _ctxt$[ebp]
	mov	eax, DWORD PTR [edx+24]
	mov	DWORD PTR [ecx+44], eax

; 5303 : 	ctxt->end = oldend;

	mov	ecx, DWORD PTR _ctxt$[ebp]
	mov	edx, DWORD PTR _oldend$2[ebp]
	mov	DWORD PTR [ecx+20], edx

; 5304 : 	return(1);

	mov	eax, 1
	jmp	SHORT $LN1@xmlFAParse
	jmp	SHORT $LN3@xmlFAParse
$LN11@xmlFAParse:

; 5305 :     } else if ((CUR == '[') || (CUR == '\\') || (CUR == '.')) {

	mov	eax, DWORD PTR _ctxt$[ebp]
	mov	ecx, DWORD PTR [eax+4]
	movzx	edx, BYTE PTR [ecx]
	cmp	edx, 91					; 0000005bH
	je	SHORT $LN17@xmlFAParse
	mov	eax, DWORD PTR _ctxt$[ebp]
	mov	ecx, DWORD PTR [eax+4]
	movzx	edx, BYTE PTR [ecx]
	cmp	edx, 92					; 0000005cH
	je	SHORT $LN17@xmlFAParse
	mov	eax, DWORD PTR _ctxt$[ebp]
	mov	ecx, DWORD PTR [eax+4]
	movzx	edx, BYTE PTR [ecx]
	cmp	edx, 46					; 0000002eH
	jne	SHORT $LN3@xmlFAParse
$LN17@xmlFAParse:

; 5306 : 	xmlFAParseCharClass(ctxt);

	mov	eax, DWORD PTR _ctxt$[ebp]
	push	eax
	call	_xmlFAParseCharClass
	add	esp, 4

; 5307 : 	return(1);

	mov	eax, 1
	jmp	SHORT $LN1@xmlFAParse
$LN3@xmlFAParse:

; 5308 :     }
; 5309 :     return(0);

	xor	eax, eax
$LN1@xmlFAParse:

; 5310 : }

	push	edx
	mov	ecx, ebp
	push	eax
	lea	edx, DWORD PTR $LN21@xmlFAParse
	call	@_RTC_CheckStackVars@8
	pop	eax
	pop	edx
	add	esp, 28					; 0000001cH
	cmp	ebp, esp
	call	__RTC_CheckEsp
	mov	esp, ebp
	pop	ebp
	ret	0
	npad	2
$LN21@xmlFAParse:
	DD	1
	DD	$LN20@xmlFAParse
$LN20@xmlFAParse:
	DD	-12					; fffffff4H
	DD	4
	DD	$LN19@xmlFAParse
$LN19@xmlFAParse:
	DB	108					; 0000006cH
	DB	101					; 00000065H
	DB	110					; 0000006eH
	DB	0
_xmlFAParseAtom ENDP
_TEXT	ENDS
; Function compile flags: /Odtp /RTCsu
; File c:\users\dag\documents\_clients\codeproject authors group\windows on arm\libxml2\libxml2-2.9.9\xmlregexp.c
;	COMDAT _xmlFAParseQuantifier
_TEXT	SEGMENT
_max$1 = -12						; size = 4
_min$2 = -8						; size = 4
_cur$ = -4						; size = 4
_ctxt$ = 8						; size = 4
_xmlFAParseQuantifier PROC				; COMDAT

; 5198 : xmlFAParseQuantifier(xmlRegParserCtxtPtr ctxt) {

	push	ebp
	mov	ebp, esp
	sub	esp, 12					; 0000000cH
	mov	DWORD PTR [ebp-12], -858993460		; ccccccccH
	mov	DWORD PTR [ebp-8], -858993460		; ccccccccH
	mov	DWORD PTR [ebp-4], -858993460		; ccccccccH
	mov	ecx, OFFSET __F6DD4902_xmlregexp@c
	call	@__CheckForDebuggerJustMyCode@4

; 5199 :     int cur;
; 5200 : 
; 5201 :     cur = CUR;

	mov	eax, DWORD PTR _ctxt$[ebp]
	mov	ecx, DWORD PTR [eax+4]
	movzx	edx, BYTE PTR [ecx]
	mov	DWORD PTR _cur$[ebp], edx

; 5202 :     if ((cur == '?') || (cur == '*') || (cur == '+')) {

	cmp	DWORD PTR _cur$[ebp], 63		; 0000003fH
	je	SHORT $LN3@xmlFAParse
	cmp	DWORD PTR _cur$[ebp], 42		; 0000002aH
	je	SHORT $LN3@xmlFAParse
	cmp	DWORD PTR _cur$[ebp], 43		; 0000002bH
	jne	SHORT $LN2@xmlFAParse
$LN3@xmlFAParse:

; 5203 : 	if (ctxt->atom != NULL) {

	mov	eax, DWORD PTR _ctxt$[ebp]
	cmp	DWORD PTR [eax+28], 0
	je	SHORT $LN4@xmlFAParse

; 5204 : 	    if (cur == '?')

	cmp	DWORD PTR _cur$[ebp], 63		; 0000003fH
	jne	SHORT $LN5@xmlFAParse

; 5205 : 		ctxt->atom->quant = XML_REGEXP_QUANT_OPT;

	mov	ecx, DWORD PTR _ctxt$[ebp]
	mov	edx, DWORD PTR [ecx+28]
	mov	DWORD PTR [edx+8], 3
	jmp	SHORT $LN4@xmlFAParse
$LN5@xmlFAParse:

; 5206 : 	    else if (cur == '*')

	cmp	DWORD PTR _cur$[ebp], 42		; 0000002aH
	jne	SHORT $LN7@xmlFAParse

; 5207 : 		ctxt->atom->quant = XML_REGEXP_QUANT_MULT;

	mov	eax, DWORD PTR _ctxt$[ebp]
	mov	ecx, DWORD PTR [eax+28]
	mov	DWORD PTR [ecx+8], 4
	jmp	SHORT $LN4@xmlFAParse
$LN7@xmlFAParse:

; 5208 : 	    else if (cur == '+')

	cmp	DWORD PTR _cur$[ebp], 43		; 0000002bH
	jne	SHORT $LN4@xmlFAParse

; 5209 : 		ctxt->atom->quant = XML_REGEXP_QUANT_PLUS;

	mov	edx, DWORD PTR _ctxt$[ebp]
	mov	eax, DWORD PTR [edx+28]
	mov	DWORD PTR [eax+8], 5
$LN4@xmlFAParse:

; 5210 : 	}
; 5211 : 	NEXT;

	mov	ecx, DWORD PTR _ctxt$[ebp]
	mov	edx, DWORD PTR [ecx+4]
	add	edx, 1
	mov	eax, DWORD PTR _ctxt$[ebp]
	mov	DWORD PTR [eax+4], edx

; 5212 : 	return(1);

	mov	eax, 1
	jmp	$LN1@xmlFAParse
$LN2@xmlFAParse:

; 5213 :     }
; 5214 :     if (cur == '{') {

	cmp	DWORD PTR _cur$[ebp], 123		; 0000007bH
	jne	$LN10@xmlFAParse

; 5215 : 	int min = 0, max = 0;

	mov	DWORD PTR _min$2[ebp], 0
	mov	DWORD PTR _max$1[ebp], 0

; 5216 : 
; 5217 : 	NEXT;

	mov	ecx, DWORD PTR _ctxt$[ebp]
	mov	edx, DWORD PTR [ecx+4]
	add	edx, 1
	mov	eax, DWORD PTR _ctxt$[ebp]
	mov	DWORD PTR [eax+4], edx

; 5218 : 	cur = xmlFAParseQuantExact(ctxt);

	mov	ecx, DWORD PTR _ctxt$[ebp]
	push	ecx
	call	_xmlFAParseQuantExact
	add	esp, 4
	mov	DWORD PTR _cur$[ebp], eax

; 5219 : 	if (cur >= 0)

	cmp	DWORD PTR _cur$[ebp], 0
	jl	SHORT $LN11@xmlFAParse

; 5220 : 	    min = cur;

	mov	edx, DWORD PTR _cur$[ebp]
	mov	DWORD PTR _min$2[ebp], edx
$LN11@xmlFAParse:

; 5221 : 	if (CUR == ',') {

	mov	eax, DWORD PTR _ctxt$[ebp]
	mov	ecx, DWORD PTR [eax+4]
	movzx	edx, BYTE PTR [ecx]
	cmp	edx, 44					; 0000002cH
	jne	SHORT $LN12@xmlFAParse

; 5222 : 	    NEXT;

	mov	eax, DWORD PTR _ctxt$[ebp]
	mov	ecx, DWORD PTR [eax+4]
	add	ecx, 1
	mov	edx, DWORD PTR _ctxt$[ebp]
	mov	DWORD PTR [edx+4], ecx

; 5223 : 	    if (CUR == '}')

	mov	eax, DWORD PTR _ctxt$[ebp]
	mov	ecx, DWORD PTR [eax+4]
	movzx	edx, BYTE PTR [ecx]
	cmp	edx, 125				; 0000007dH
	jne	SHORT $LN13@xmlFAParse

; 5224 : 	        max = INT_MAX;

	mov	DWORD PTR _max$1[ebp], 2147483647	; 7fffffffH
	jmp	SHORT $LN12@xmlFAParse
$LN13@xmlFAParse:

; 5225 : 	    else {
; 5226 : 	        cur = xmlFAParseQuantExact(ctxt);

	mov	eax, DWORD PTR _ctxt$[ebp]
	push	eax
	call	_xmlFAParseQuantExact
	add	esp, 4
	mov	DWORD PTR _cur$[ebp], eax

; 5227 : 	        if (cur >= 0)

	cmp	DWORD PTR _cur$[ebp], 0
	jl	SHORT $LN15@xmlFAParse

; 5228 : 		    max = cur;

	mov	ecx, DWORD PTR _cur$[ebp]
	mov	DWORD PTR _max$1[ebp], ecx
	jmp	SHORT $LN12@xmlFAParse
$LN15@xmlFAParse:

; 5229 : 		else {
; 5230 : 		    ERROR("Improper quantifier");

	mov	edx, DWORD PTR _ctxt$[ebp]
	mov	DWORD PTR [edx+8], 1450			; 000005aaH
	push	OFFSET ??_C@_0BE@PGBJEMPN@Improper?5quantifier@
	mov	eax, DWORD PTR _ctxt$[ebp]
	push	eax
	call	_xmlRegexpErrCompile
	add	esp, 8
$LN12@xmlFAParse:

; 5231 : 		}
; 5232 : 	    }
; 5233 : 	}
; 5234 : 	if (CUR == '}') {

	mov	ecx, DWORD PTR _ctxt$[ebp]
	mov	edx, DWORD PTR [ecx+4]
	movzx	eax, BYTE PTR [edx]
	cmp	eax, 125				; 0000007dH
	jne	SHORT $LN17@xmlFAParse

; 5235 : 	    NEXT;

	mov	ecx, DWORD PTR _ctxt$[ebp]
	mov	edx, DWORD PTR [ecx+4]
	add	edx, 1
	mov	eax, DWORD PTR _ctxt$[ebp]
	mov	DWORD PTR [eax+4], edx

; 5236 : 	} else {

	jmp	SHORT $LN18@xmlFAParse
$LN17@xmlFAParse:

; 5237 : 	    ERROR("Unterminated quantifier");

	mov	ecx, DWORD PTR _ctxt$[ebp]
	mov	DWORD PTR [ecx+8], 1450			; 000005aaH
	push	OFFSET ??_C@_0BI@HKPFPPFN@Unterminated?5quantifier@
	mov	edx, DWORD PTR _ctxt$[ebp]
	push	edx
	call	_xmlRegexpErrCompile
	add	esp, 8
$LN18@xmlFAParse:

; 5238 : 	}
; 5239 : 	if (max == 0)

	cmp	DWORD PTR _max$1[ebp], 0
	jne	SHORT $LN19@xmlFAParse

; 5240 : 	    max = min;

	mov	eax, DWORD PTR _min$2[ebp]
	mov	DWORD PTR _max$1[ebp], eax
$LN19@xmlFAParse:

; 5241 : 	if (ctxt->atom != NULL) {

	mov	ecx, DWORD PTR _ctxt$[ebp]
	cmp	DWORD PTR [ecx+28], 0
	je	SHORT $LN20@xmlFAParse

; 5242 : 	    ctxt->atom->quant = XML_REGEXP_QUANT_RANGE;

	mov	edx, DWORD PTR _ctxt$[ebp]
	mov	eax, DWORD PTR [edx+28]
	mov	DWORD PTR [eax+8], 8

; 5243 : 	    ctxt->atom->min = min;

	mov	ecx, DWORD PTR _ctxt$[ebp]
	mov	edx, DWORD PTR [ecx+28]
	mov	eax, DWORD PTR _min$2[ebp]
	mov	DWORD PTR [edx+12], eax

; 5244 : 	    ctxt->atom->max = max;

	mov	ecx, DWORD PTR _ctxt$[ebp]
	mov	edx, DWORD PTR [ecx+28]
	mov	eax, DWORD PTR _max$1[ebp]
	mov	DWORD PTR [edx+16], eax
$LN20@xmlFAParse:

; 5245 : 	}
; 5246 : 	return(1);

	mov	eax, 1
	jmp	SHORT $LN1@xmlFAParse
$LN10@xmlFAParse:

; 5247 :     }
; 5248 :     return(0);

	xor	eax, eax
$LN1@xmlFAParse:

; 5249 : }

	add	esp, 12					; 0000000cH
	cmp	ebp, esp
	call	__RTC_CheckEsp
	mov	esp, ebp
	pop	ebp
	ret	0
_xmlFAParseQuantifier ENDP
_TEXT	ENDS
; Function compile flags: /Odtp /RTCsu
; File c:\users\dag\documents\_clients\codeproject authors group\windows on arm\libxml2\libxml2-2.9.9\xmlregexp.c
;	COMDAT _xmlFAParseQuantExact
_TEXT	SEGMENT
_ok$ = -8						; size = 4
_ret$ = -4						; size = 4
_ctxt$ = 8						; size = 4
_xmlFAParseQuantExact PROC				; COMDAT

; 5172 : xmlFAParseQuantExact(xmlRegParserCtxtPtr ctxt) {

	push	ebp
	mov	ebp, esp
	sub	esp, 8
	mov	DWORD PTR [ebp-8], -858993460		; ccccccccH
	mov	DWORD PTR [ebp-4], -858993460		; ccccccccH
	mov	ecx, OFFSET __F6DD4902_xmlregexp@c
	call	@__CheckForDebuggerJustMyCode@4

; 5173 :     int ret = 0;

	mov	DWORD PTR _ret$[ebp], 0

; 5174 :     int ok = 0;

	mov	DWORD PTR _ok$[ebp], 0
$LN2@xmlFAParse:

; 5175 : 
; 5176 :     while ((CUR >= '0') && (CUR <= '9')) {

	mov	eax, DWORD PTR _ctxt$[ebp]
	mov	ecx, DWORD PTR [eax+4]
	movzx	edx, BYTE PTR [ecx]
	cmp	edx, 48					; 00000030H
	jl	SHORT $LN3@xmlFAParse
	mov	eax, DWORD PTR _ctxt$[ebp]
	mov	ecx, DWORD PTR [eax+4]
	movzx	edx, BYTE PTR [ecx]
	cmp	edx, 57					; 00000039H
	jg	SHORT $LN3@xmlFAParse

; 5177 : 	ret = ret * 10 + (CUR - '0');

	imul	eax, DWORD PTR _ret$[ebp], 10
	mov	ecx, DWORD PTR _ctxt$[ebp]
	mov	edx, DWORD PTR [ecx+4]
	movzx	ecx, BYTE PTR [edx]
	lea	edx, DWORD PTR [eax+ecx-48]
	mov	DWORD PTR _ret$[ebp], edx

; 5178 : 	ok = 1;

	mov	DWORD PTR _ok$[ebp], 1

; 5179 : 	NEXT;

	mov	eax, DWORD PTR _ctxt$[ebp]
	mov	ecx, DWORD PTR [eax+4]
	add	ecx, 1
	mov	edx, DWORD PTR _ctxt$[ebp]
	mov	DWORD PTR [edx+4], ecx

; 5180 :     }

	jmp	SHORT $LN2@xmlFAParse
$LN3@xmlFAParse:

; 5181 :     if (ok != 1) {

	cmp	DWORD PTR _ok$[ebp], 1
	je	SHORT $LN4@xmlFAParse

; 5182 : 	return(-1);

	or	eax, -1
	jmp	SHORT $LN1@xmlFAParse
$LN4@xmlFAParse:

; 5183 :     }
; 5184 :     return(ret);

	mov	eax, DWORD PTR _ret$[ebp]
$LN1@xmlFAParse:

; 5185 : }

	add	esp, 8
	cmp	ebp, esp
	call	__RTC_CheckEsp
	mov	esp, ebp
	pop	ebp
	ret	0
_xmlFAParseQuantExact ENDP
_TEXT	ENDS
; Function compile flags: /Odtp /RTCsu
; File c:\users\dag\documents\_clients\codeproject authors group\windows on arm\libxml2\libxml2-2.9.9\xmlregexp.c
;	COMDAT _xmlFAParseCharClass
_TEXT	SEGMENT
_ctxt$ = 8						; size = 4
_xmlFAParseCharClass PROC				; COMDAT

; 5146 : xmlFAParseCharClass(xmlRegParserCtxtPtr ctxt) {

	push	ebp
	mov	ebp, esp
	mov	ecx, OFFSET __F6DD4902_xmlregexp@c
	call	@__CheckForDebuggerJustMyCode@4

; 5147 :     if (CUR == '[') {

	mov	eax, DWORD PTR _ctxt$[ebp]
	mov	ecx, DWORD PTR [eax+4]
	movzx	edx, BYTE PTR [ecx]
	cmp	edx, 91					; 0000005bH
	jne	SHORT $LN2@xmlFAParse

; 5148 : 	NEXT;

	mov	eax, DWORD PTR _ctxt$[ebp]
	mov	ecx, DWORD PTR [eax+4]
	add	ecx, 1
	mov	edx, DWORD PTR _ctxt$[ebp]
	mov	DWORD PTR [edx+4], ecx

; 5149 : 	ctxt->atom = xmlRegNewAtom(ctxt, XML_REGEXP_RANGES);

	push	3
	mov	eax, DWORD PTR _ctxt$[ebp]
	push	eax
	call	_xmlRegNewAtom
	add	esp, 8
	mov	ecx, DWORD PTR _ctxt$[ebp]
	mov	DWORD PTR [ecx+28], eax

; 5150 : 	if (ctxt->atom == NULL)

	mov	edx, DWORD PTR _ctxt$[ebp]
	cmp	DWORD PTR [edx+28], 0
	jne	SHORT $LN4@xmlFAParse

; 5151 : 	    return;

	jmp	SHORT $LN1@xmlFAParse
$LN4@xmlFAParse:

; 5152 : 	xmlFAParseCharGroup(ctxt);

	mov	eax, DWORD PTR _ctxt$[ebp]
	push	eax
	call	_xmlFAParseCharGroup
	add	esp, 4

; 5153 : 	if (CUR == ']') {

	mov	ecx, DWORD PTR _ctxt$[ebp]
	mov	edx, DWORD PTR [ecx+4]
	movzx	eax, BYTE PTR [edx]
	cmp	eax, 93					; 0000005dH
	jne	SHORT $LN5@xmlFAParse

; 5154 : 	    NEXT;

	mov	ecx, DWORD PTR _ctxt$[ebp]
	mov	edx, DWORD PTR [ecx+4]
	add	edx, 1
	mov	eax, DWORD PTR _ctxt$[ebp]
	mov	DWORD PTR [eax+4], edx

; 5155 : 	} else {

	jmp	SHORT $LN6@xmlFAParse
$LN5@xmlFAParse:

; 5156 : 	    ERROR("xmlFAParseCharClass: ']' expected");

	mov	ecx, DWORD PTR _ctxt$[ebp]
	mov	DWORD PTR [ecx+8], 1450			; 000005aaH
	push	OFFSET ??_C@_0CC@FKLKCEIP@xmlFAParseCharClass?3?5?8?$FN?8?5expect@
	mov	edx, DWORD PTR _ctxt$[ebp]
	push	edx
	call	_xmlRegexpErrCompile
	add	esp, 8
$LN6@xmlFAParse:

; 5157 : 	}
; 5158 :     } else {

	jmp	SHORT $LN1@xmlFAParse
$LN2@xmlFAParse:

; 5159 : 	xmlFAParseCharClassEsc(ctxt);

	mov	eax, DWORD PTR _ctxt$[ebp]
	push	eax
	call	_xmlFAParseCharClassEsc
	add	esp, 4
$LN1@xmlFAParse:

; 5160 :     }
; 5161 : }

	cmp	ebp, esp
	call	__RTC_CheckEsp
	pop	ebp
	ret	0
_xmlFAParseCharClass ENDP
_TEXT	ENDS
; Function compile flags: /Odtp /RTCsu
; File c:\users\dag\documents\_clients\codeproject authors group\windows on arm\libxml2\libxml2-2.9.9\xmlregexp.c
;	COMDAT _xmlFAParseCharGroup
_TEXT	SEGMENT
tv83 = -16						; size = 4
_neg$1 = -12						; size = 4
_neg$2 = -8						; size = 4
_n$ = -4						; size = 4
_ctxt$ = 8						; size = 4
_xmlFAParseCharGroup PROC				; COMDAT

; 5107 : xmlFAParseCharGroup(xmlRegParserCtxtPtr ctxt) {

	push	ebp
	mov	ebp, esp
	sub	esp, 16					; 00000010H
	mov	eax, -858993460				; ccccccccH
	mov	DWORD PTR [ebp-16], eax
	mov	DWORD PTR [ebp-12], eax
	mov	DWORD PTR [ebp-8], eax
	mov	DWORD PTR [ebp-4], eax
	mov	ecx, OFFSET __F6DD4902_xmlregexp@c
	call	@__CheckForDebuggerJustMyCode@4

; 5108 :     int n = ctxt->neg;

	mov	eax, DWORD PTR _ctxt$[ebp]
	mov	ecx, DWORD PTR [eax+12]
	mov	DWORD PTR _n$[ebp], ecx
$LN2@xmlFAParse:

; 5109 :     while ((CUR != ']') && (ctxt->error == 0)) {

	mov	edx, DWORD PTR _ctxt$[ebp]
	mov	eax, DWORD PTR [edx+4]
	movzx	ecx, BYTE PTR [eax]
	cmp	ecx, 93					; 0000005dH
	je	$LN3@xmlFAParse
	mov	edx, DWORD PTR _ctxt$[ebp]
	cmp	DWORD PTR [edx+8], 0
	jne	$LN3@xmlFAParse

; 5110 : 	if (CUR == '^') {

	mov	eax, DWORD PTR _ctxt$[ebp]
	mov	ecx, DWORD PTR [eax+4]
	movzx	edx, BYTE PTR [ecx]
	cmp	edx, 94					; 0000005eH
	jne	SHORT $LN4@xmlFAParse

; 5111 : 	    int neg = ctxt->neg;

	mov	eax, DWORD PTR _ctxt$[ebp]
	mov	ecx, DWORD PTR [eax+12]
	mov	DWORD PTR _neg$2[ebp], ecx

; 5112 : 
; 5113 : 	    NEXT;

	mov	edx, DWORD PTR _ctxt$[ebp]
	mov	eax, DWORD PTR [edx+4]
	add	eax, 1
	mov	ecx, DWORD PTR _ctxt$[ebp]
	mov	DWORD PTR [ecx+4], eax

; 5114 : 	    ctxt->neg = !ctxt->neg;

	mov	edx, DWORD PTR _ctxt$[ebp]
	cmp	DWORD PTR [edx+12], 0
	jne	SHORT $LN12@xmlFAParse
	mov	DWORD PTR tv83[ebp], 1
	jmp	SHORT $LN13@xmlFAParse
$LN12@xmlFAParse:
	mov	DWORD PTR tv83[ebp], 0
$LN13@xmlFAParse:
	mov	eax, DWORD PTR _ctxt$[ebp]
	mov	ecx, DWORD PTR tv83[ebp]
	mov	DWORD PTR [eax+12], ecx

; 5115 : 	    xmlFAParsePosCharGroup(ctxt);

	mov	edx, DWORD PTR _ctxt$[ebp]
	push	edx
	call	_xmlFAParsePosCharGroup
	add	esp, 4

; 5116 : 	    ctxt->neg = neg;

	mov	eax, DWORD PTR _ctxt$[ebp]
	mov	ecx, DWORD PTR _neg$2[ebp]
	mov	DWORD PTR [eax+12], ecx
	jmp	$LN5@xmlFAParse
$LN4@xmlFAParse:

; 5117 : 	} else if ((CUR == '-') && (NXT(1) == '[')) {

	mov	edx, DWORD PTR _ctxt$[ebp]
	mov	eax, DWORD PTR [edx+4]
	movzx	ecx, BYTE PTR [eax]
	cmp	ecx, 45					; 0000002dH
	jne	$LN6@xmlFAParse
	mov	edx, 1
	shl	edx, 0
	mov	eax, DWORD PTR _ctxt$[ebp]
	mov	ecx, DWORD PTR [eax+4]
	movzx	edx, BYTE PTR [ecx+edx]
	cmp	edx, 91					; 0000005bH
	jne	$LN6@xmlFAParse

; 5118 : 	    int neg = ctxt->neg;

	mov	eax, DWORD PTR _ctxt$[ebp]
	mov	ecx, DWORD PTR [eax+12]
	mov	DWORD PTR _neg$1[ebp], ecx

; 5119 : 	    ctxt->neg = 2;

	mov	edx, DWORD PTR _ctxt$[ebp]
	mov	DWORD PTR [edx+12], 2

; 5120 : 	    NEXT;	/* eat the '-' */

	mov	eax, DWORD PTR _ctxt$[ebp]
	mov	ecx, DWORD PTR [eax+4]
	add	ecx, 1
	mov	edx, DWORD PTR _ctxt$[ebp]
	mov	DWORD PTR [edx+4], ecx

; 5121 : 	    NEXT;	/* eat the '[' */

	mov	eax, DWORD PTR _ctxt$[ebp]
	mov	ecx, DWORD PTR [eax+4]
	add	ecx, 1
	mov	edx, DWORD PTR _ctxt$[ebp]
	mov	DWORD PTR [edx+4], ecx

; 5122 : 	    xmlFAParseCharGroup(ctxt);

	mov	eax, DWORD PTR _ctxt$[ebp]
	push	eax
	call	_xmlFAParseCharGroup
	add	esp, 4

; 5123 : 	    if (CUR == ']') {

	mov	ecx, DWORD PTR _ctxt$[ebp]
	mov	edx, DWORD PTR [ecx+4]
	movzx	eax, BYTE PTR [edx]
	cmp	eax, 93					; 0000005dH
	jne	SHORT $LN8@xmlFAParse

; 5124 : 		NEXT;

	mov	ecx, DWORD PTR _ctxt$[ebp]
	mov	edx, DWORD PTR [ecx+4]
	add	edx, 1
	mov	eax, DWORD PTR _ctxt$[ebp]
	mov	DWORD PTR [eax+4], edx

; 5125 : 	    } else {

	jmp	SHORT $LN9@xmlFAParse
$LN8@xmlFAParse:

; 5126 : 		ERROR("charClassExpr: ']' expected");

	mov	ecx, DWORD PTR _ctxt$[ebp]
	mov	DWORD PTR [ecx+8], 1450			; 000005aaH
	push	OFFSET ??_C@_0BM@FJAEMPFO@charClassExpr?3?5?8?$FN?8?5expected@
	mov	edx, DWORD PTR _ctxt$[ebp]
	push	edx
	call	_xmlRegexpErrCompile
	add	esp, 8

; 5127 : 		break;

	jmp	SHORT $LN3@xmlFAParse
$LN9@xmlFAParse:

; 5128 : 	    }
; 5129 : 	    ctxt->neg = neg;

	mov	eax, DWORD PTR _ctxt$[ebp]
	mov	ecx, DWORD PTR _neg$1[ebp]
	mov	DWORD PTR [eax+12], ecx

; 5130 : 	    break;

	jmp	SHORT $LN3@xmlFAParse
	jmp	SHORT $LN5@xmlFAParse
$LN6@xmlFAParse:

; 5131 : 	} else if (CUR != ']') {

	mov	edx, DWORD PTR _ctxt$[ebp]
	mov	eax, DWORD PTR [edx+4]
	movzx	ecx, BYTE PTR [eax]
	cmp	ecx, 93					; 0000005dH
	je	SHORT $LN5@xmlFAParse

; 5132 : 	    xmlFAParsePosCharGroup(ctxt);

	mov	edx, DWORD PTR _ctxt$[ebp]
	push	edx
	call	_xmlFAParsePosCharGroup
	add	esp, 4
$LN5@xmlFAParse:

; 5133 : 	}
; 5134 :     }

	jmp	$LN2@xmlFAParse
$LN3@xmlFAParse:

; 5135 :     ctxt->neg = n;

	mov	eax, DWORD PTR _ctxt$[ebp]
	mov	ecx, DWORD PTR _n$[ebp]
	mov	DWORD PTR [eax+12], ecx

; 5136 : }

	add	esp, 16					; 00000010H
	cmp	ebp, esp
	call	__RTC_CheckEsp
	mov	esp, ebp
	pop	ebp
	ret	0
_xmlFAParseCharGroup ENDP
_TEXT	ENDS
; Function compile flags: /Odtp /RTCsu
; File c:\users\dag\documents\_clients\codeproject authors group\windows on arm\libxml2\libxml2-2.9.9\xmlregexp.c
;	COMDAT _xmlFAParsePosCharGroup
_TEXT	SEGMENT
_ctxt$ = 8						; size = 4
_xmlFAParsePosCharGroup PROC				; COMDAT

; 5086 : xmlFAParsePosCharGroup(xmlRegParserCtxtPtr ctxt) {

	push	ebp
	mov	ebp, esp
	mov	ecx, OFFSET __F6DD4902_xmlregexp@c
	call	@__CheckForDebuggerJustMyCode@4
$LN4@xmlFAParse:

; 5087 :     do {
; 5088 : 	if (CUR == '\\') {

	mov	eax, DWORD PTR _ctxt$[ebp]
	mov	ecx, DWORD PTR [eax+4]
	movzx	edx, BYTE PTR [ecx]
	cmp	edx, 92					; 0000005cH
	jne	SHORT $LN5@xmlFAParse

; 5089 : 	    xmlFAParseCharClassEsc(ctxt);

	mov	eax, DWORD PTR _ctxt$[ebp]
	push	eax
	call	_xmlFAParseCharClassEsc
	add	esp, 4

; 5090 : 	} else {

	jmp	SHORT $LN2@xmlFAParse
$LN5@xmlFAParse:

; 5091 : 	    xmlFAParseCharRange(ctxt);

	mov	ecx, DWORD PTR _ctxt$[ebp]
	push	ecx
	call	_xmlFAParseCharRange
	add	esp, 4
$LN2@xmlFAParse:

; 5092 : 	}
; 5093 :     } while ((CUR != ']') && (CUR != '^') && (CUR != '-') &&
; 5094 :              (CUR != 0) && (ctxt->error == 0));

	mov	edx, DWORD PTR _ctxt$[ebp]
	mov	eax, DWORD PTR [edx+4]
	movzx	ecx, BYTE PTR [eax]
	cmp	ecx, 93					; 0000005dH
	je	SHORT $LN1@xmlFAParse
	mov	edx, DWORD PTR _ctxt$[ebp]
	mov	eax, DWORD PTR [edx+4]
	movzx	ecx, BYTE PTR [eax]
	cmp	ecx, 94					; 0000005eH
	je	SHORT $LN1@xmlFAParse
	mov	edx, DWORD PTR _ctxt$[ebp]
	mov	eax, DWORD PTR [edx+4]
	movzx	ecx, BYTE PTR [eax]
	cmp	ecx, 45					; 0000002dH
	je	SHORT $LN1@xmlFAParse
	mov	edx, DWORD PTR _ctxt$[ebp]
	mov	eax, DWORD PTR [edx+4]
	movzx	ecx, BYTE PTR [eax]
	test	ecx, ecx
	je	SHORT $LN1@xmlFAParse
	mov	edx, DWORD PTR _ctxt$[ebp]
	cmp	DWORD PTR [edx+8], 0
	je	SHORT $LN4@xmlFAParse
$LN1@xmlFAParse:

; 5095 : }

	cmp	ebp, esp
	call	__RTC_CheckEsp
	pop	ebp
	ret	0
_xmlFAParsePosCharGroup ENDP
_TEXT	ENDS
; Function compile flags: /Odtp /RTCsu
; File c:\users\dag\documents\_clients\codeproject authors group\windows on arm\libxml2\libxml2-2.9.9\xmlregexp.c
;	COMDAT _xmlFAParseCharRange
_TEXT	SEGMENT
tv185 = -32						; size = 4
tv82 = -28						; size = 4
_end$ = -24						; size = 4
_start$ = -20						; size = 4
_len$ = -12						; size = 4
_cur$ = -4						; size = 4
_ctxt$ = 8						; size = 4
_xmlFAParseCharRange PROC				; COMDAT

; 4994 : xmlFAParseCharRange(xmlRegParserCtxtPtr ctxt) {

	push	ebp
	mov	ebp, esp
	sub	esp, 32					; 00000020H
	mov	eax, -858993460				; ccccccccH
	mov	DWORD PTR [ebp-32], eax
	mov	DWORD PTR [ebp-28], eax
	mov	DWORD PTR [ebp-24], eax
	mov	DWORD PTR [ebp-20], eax
	mov	DWORD PTR [ebp-16], eax
	mov	DWORD PTR [ebp-12], eax
	mov	DWORD PTR [ebp-8], eax
	mov	DWORD PTR [ebp-4], eax
	mov	ecx, OFFSET __F6DD4902_xmlregexp@c
	call	@__CheckForDebuggerJustMyCode@4

; 4995 :     int cur, len;
; 4996 :     int start = -1;

	mov	DWORD PTR _start$[ebp], -1

; 4997 :     int end = -1;

	mov	DWORD PTR _end$[ebp], -1

; 4998 : 
; 4999 :     if (CUR == '\0') {

	mov	eax, DWORD PTR _ctxt$[ebp]
	mov	ecx, DWORD PTR [eax+4]
	movzx	edx, BYTE PTR [ecx]
	test	edx, edx
	jne	SHORT $LN6@xmlFAParse

; 5000 :         ERROR("Expecting ']'");

	mov	eax, DWORD PTR _ctxt$[ebp]
	mov	DWORD PTR [eax+8], 1450			; 000005aaH
	push	OFFSET ??_C@_0O@NKKGCCKG@Expecting?5?8?$FN?8@
	mov	ecx, DWORD PTR _ctxt$[ebp]
	push	ecx
	call	_xmlRegexpErrCompile
	add	esp, 8

; 5001 : 	return;

	jmp	$LN1@xmlFAParse
$LN6@xmlFAParse:

; 5002 :     }
; 5003 : 
; 5004 :     cur = CUR;

	mov	edx, DWORD PTR _ctxt$[ebp]
	mov	eax, DWORD PTR [edx+4]
	movzx	ecx, BYTE PTR [eax]
	mov	DWORD PTR _cur$[ebp], ecx

; 5005 :     if (cur == '\\') {

	cmp	DWORD PTR _cur$[ebp], 92		; 0000005cH
	jne	$LN7@xmlFAParse

; 5006 : 	NEXT;

	mov	edx, DWORD PTR _ctxt$[ebp]
	mov	eax, DWORD PTR [edx+4]
	add	eax, 1
	mov	ecx, DWORD PTR _ctxt$[ebp]
	mov	DWORD PTR [ecx+4], eax

; 5007 : 	cur = CUR;

	mov	edx, DWORD PTR _ctxt$[ebp]
	mov	eax, DWORD PTR [edx+4]
	movzx	ecx, BYTE PTR [eax]
	mov	DWORD PTR _cur$[ebp], ecx

; 5008 : 	switch (cur) {

	mov	edx, DWORD PTR _cur$[ebp]
	mov	DWORD PTR tv82[ebp], edx
	mov	eax, DWORD PTR tv82[ebp]
	sub	eax, 40					; 00000028H
	mov	DWORD PTR tv82[ebp], eax
	cmp	DWORD PTR tv82[ebp], 85			; 00000055H
	ja	SHORT $LN13@xmlFAParse
	mov	ecx, DWORD PTR tv82[ebp]
	movzx	edx, BYTE PTR $LN31@xmlFAParse[ecx]
	jmp	DWORD PTR $LN36@xmlFAParse[edx*4]
$LN9@xmlFAParse:

; 5009 : 	    case 'n': start = 0xA; break;

	mov	DWORD PTR _start$[ebp], 10		; 0000000aH
	jmp	SHORT $LN2@xmlFAParse
$LN10@xmlFAParse:

; 5010 : 	    case 'r': start = 0xD; break;

	mov	DWORD PTR _start$[ebp], 13		; 0000000dH
	jmp	SHORT $LN2@xmlFAParse
$LN11@xmlFAParse:

; 5011 : 	    case 't': start = 0x9; break;

	mov	DWORD PTR _start$[ebp], 9
	jmp	SHORT $LN2@xmlFAParse
$LN12@xmlFAParse:

; 5012 : 	    case '\\': case '|': case '.': case '-': case '^': case '?':
; 5013 : 	    case '*': case '+': case '{': case '}': case '(': case ')':
; 5014 : 	    case '[': case ']':
; 5015 : 		start = cur; break;

	mov	eax, DWORD PTR _cur$[ebp]
	mov	DWORD PTR _start$[ebp], eax
	jmp	SHORT $LN2@xmlFAParse
$LN13@xmlFAParse:

; 5016 : 	    default:
; 5017 : 		ERROR("Invalid escape value");

	mov	ecx, DWORD PTR _ctxt$[ebp]
	mov	DWORD PTR [ecx+8], 1450			; 000005aaH
	push	OFFSET ??_C@_0BF@HOMDEKLG@Invalid?5escape?5value@
	mov	edx, DWORD PTR _ctxt$[ebp]
	push	edx
	call	_xmlRegexpErrCompile
	add	esp, 8

; 5018 : 		return;

	jmp	$LN1@xmlFAParse
$LN2@xmlFAParse:

; 5019 : 	}
; 5020 : 	end = start;

	mov	eax, DWORD PTR _start$[ebp]
	mov	DWORD PTR _end$[ebp], eax

; 5021 :         len = 1;

	mov	DWORD PTR _len$[ebp], 1
	jmp	SHORT $LN8@xmlFAParse
$LN7@xmlFAParse:

; 5022 :     } else if ((cur != 0x5B) && (cur != 0x5D)) {

	cmp	DWORD PTR _cur$[ebp], 91		; 0000005bH
	je	SHORT $LN14@xmlFAParse
	cmp	DWORD PTR _cur$[ebp], 93		; 0000005dH
	je	SHORT $LN14@xmlFAParse

; 5023 :         end = start = CUR_SCHAR(ctxt->cur, len);

	lea	ecx, DWORD PTR _len$[ebp]
	push	ecx
	mov	edx, DWORD PTR _ctxt$[ebp]
	mov	eax, DWORD PTR [edx+4]
	push	eax
	push	0
	call	_xmlStringCurrentChar
	add	esp, 12					; 0000000cH
	mov	DWORD PTR _start$[ebp], eax
	mov	ecx, DWORD PTR _start$[ebp]
	mov	DWORD PTR _end$[ebp], ecx

; 5024 :     } else {

	jmp	SHORT $LN8@xmlFAParse
$LN14@xmlFAParse:

; 5025 : 	ERROR("Expecting a char range");

	mov	edx, DWORD PTR _ctxt$[ebp]
	mov	DWORD PTR [edx+8], 1450			; 000005aaH
	push	OFFSET ??_C@_0BH@LOJMKNAD@Expecting?5a?5char?5range@
	mov	eax, DWORD PTR _ctxt$[ebp]
	push	eax
	call	_xmlRegexpErrCompile
	add	esp, 8

; 5026 : 	return;

	jmp	$LN1@xmlFAParse
$LN8@xmlFAParse:

; 5027 :     }
; 5028 :     /*
; 5029 :      * Since we are "inside" a range, we can assume ctxt->cur is past
; 5030 :      * the start of ctxt->string, and PREV should be safe
; 5031 :      */
; 5032 :     if ((start == '-') && (NXT(1) != ']') && (PREV != '[') && (PREV != '^')) {

	cmp	DWORD PTR _start$[ebp], 45		; 0000002dH
	jne	SHORT $LN16@xmlFAParse
	mov	ecx, 1
	shl	ecx, 0
	mov	edx, DWORD PTR _ctxt$[ebp]
	mov	eax, DWORD PTR [edx+4]
	movzx	ecx, BYTE PTR [eax+ecx]
	cmp	ecx, 93					; 0000005dH
	je	SHORT $LN16@xmlFAParse
	mov	edx, 1
	imul	eax, edx, -1
	mov	ecx, DWORD PTR _ctxt$[ebp]
	mov	edx, DWORD PTR [ecx+4]
	movzx	eax, BYTE PTR [edx+eax]
	cmp	eax, 91					; 0000005bH
	je	SHORT $LN16@xmlFAParse
	mov	ecx, 1
	imul	edx, ecx, -1
	mov	eax, DWORD PTR _ctxt$[ebp]
	mov	ecx, DWORD PTR [eax+4]
	movzx	edx, BYTE PTR [ecx+edx]
	cmp	edx, 94					; 0000005eH
	je	SHORT $LN16@xmlFAParse

; 5033 : 	NEXTL(len);

	mov	eax, DWORD PTR _ctxt$[ebp]
	mov	ecx, DWORD PTR [eax+4]
	add	ecx, DWORD PTR _len$[ebp]
	mov	edx, DWORD PTR _ctxt$[ebp]
	mov	DWORD PTR [edx+4], ecx

; 5034 : 	return;

	jmp	$LN1@xmlFAParse
$LN16@xmlFAParse:

; 5035 :     }
; 5036 :     NEXTL(len);

	mov	eax, DWORD PTR _ctxt$[ebp]
	mov	ecx, DWORD PTR [eax+4]
	add	ecx, DWORD PTR _len$[ebp]
	mov	edx, DWORD PTR _ctxt$[ebp]
	mov	DWORD PTR [edx+4], ecx

; 5037 :     cur = CUR;

	mov	eax, DWORD PTR _ctxt$[ebp]
	mov	ecx, DWORD PTR [eax+4]
	movzx	edx, BYTE PTR [ecx]
	mov	DWORD PTR _cur$[ebp], edx

; 5038 :     if ((cur != '-') || (NXT(1) == ']')) {

	cmp	DWORD PTR _cur$[ebp], 45		; 0000002dH
	jne	SHORT $LN18@xmlFAParse
	mov	eax, 1
	shl	eax, 0
	mov	ecx, DWORD PTR _ctxt$[ebp]
	mov	edx, DWORD PTR [ecx+4]
	movzx	eax, BYTE PTR [edx+eax]
	cmp	eax, 93					; 0000005dH
	jne	SHORT $LN17@xmlFAParse
$LN18@xmlFAParse:

; 5039 :         xmlRegAtomAddRange(ctxt, ctxt->atom, ctxt->neg,

	push	0
	mov	ecx, DWORD PTR _end$[ebp]
	push	ecx
	mov	edx, DWORD PTR _start$[ebp]
	push	edx
	push	2
	mov	eax, DWORD PTR _ctxt$[ebp]
	mov	ecx, DWORD PTR [eax+12]
	push	ecx
	mov	edx, DWORD PTR _ctxt$[ebp]
	mov	eax, DWORD PTR [edx+28]
	push	eax
	mov	ecx, DWORD PTR _ctxt$[ebp]
	push	ecx
	call	_xmlRegAtomAddRange
	add	esp, 28					; 0000001cH

; 5040 : 		              XML_REGEXP_CHARVAL, start, end, NULL);
; 5041 : 	return;

	jmp	$LN1@xmlFAParse
$LN17@xmlFAParse:

; 5042 :     }
; 5043 :     NEXT;

	mov	edx, DWORD PTR _ctxt$[ebp]
	mov	eax, DWORD PTR [edx+4]
	add	eax, 1
	mov	ecx, DWORD PTR _ctxt$[ebp]
	mov	DWORD PTR [ecx+4], eax

; 5044 :     cur = CUR;

	mov	edx, DWORD PTR _ctxt$[ebp]
	mov	eax, DWORD PTR [edx+4]
	movzx	ecx, BYTE PTR [eax]
	mov	DWORD PTR _cur$[ebp], ecx

; 5045 :     if (cur == '\\') {

	cmp	DWORD PTR _cur$[ebp], 92		; 0000005cH
	jne	$LN19@xmlFAParse

; 5046 : 	NEXT;

	mov	edx, DWORD PTR _ctxt$[ebp]
	mov	eax, DWORD PTR [edx+4]
	add	eax, 1
	mov	ecx, DWORD PTR _ctxt$[ebp]
	mov	DWORD PTR [ecx+4], eax

; 5047 : 	cur = CUR;

	mov	edx, DWORD PTR _ctxt$[ebp]
	mov	eax, DWORD PTR [edx+4]
	movzx	ecx, BYTE PTR [eax]
	mov	DWORD PTR _cur$[ebp], ecx

; 5048 : 	switch (cur) {

	mov	edx, DWORD PTR _cur$[ebp]
	mov	DWORD PTR tv185[ebp], edx
	mov	eax, DWORD PTR tv185[ebp]
	sub	eax, 40					; 00000028H
	mov	DWORD PTR tv185[ebp], eax
	cmp	DWORD PTR tv185[ebp], 85		; 00000055H
	ja	SHORT $LN25@xmlFAParse
	mov	ecx, DWORD PTR tv185[ebp]
	movzx	edx, BYTE PTR $LN32@xmlFAParse[ecx]
	jmp	DWORD PTR $LN37@xmlFAParse[edx*4]
$LN21@xmlFAParse:

; 5049 : 	    case 'n': end = 0xA; break;

	mov	DWORD PTR _end$[ebp], 10		; 0000000aH
	jmp	SHORT $LN4@xmlFAParse
$LN22@xmlFAParse:

; 5050 : 	    case 'r': end = 0xD; break;

	mov	DWORD PTR _end$[ebp], 13		; 0000000dH
	jmp	SHORT $LN4@xmlFAParse
$LN23@xmlFAParse:

; 5051 : 	    case 't': end = 0x9; break;

	mov	DWORD PTR _end$[ebp], 9
	jmp	SHORT $LN4@xmlFAParse
$LN24@xmlFAParse:

; 5052 : 	    case '\\': case '|': case '.': case '-': case '^': case '?':
; 5053 : 	    case '*': case '+': case '{': case '}': case '(': case ')':
; 5054 : 	    case '[': case ']':
; 5055 : 		end = cur; break;

	mov	eax, DWORD PTR _cur$[ebp]
	mov	DWORD PTR _end$[ebp], eax
	jmp	SHORT $LN4@xmlFAParse
$LN25@xmlFAParse:

; 5056 : 	    default:
; 5057 : 		ERROR("Invalid escape value");

	mov	ecx, DWORD PTR _ctxt$[ebp]
	mov	DWORD PTR [ecx+8], 1450			; 000005aaH
	push	OFFSET ??_C@_0BF@HOMDEKLG@Invalid?5escape?5value@
	mov	edx, DWORD PTR _ctxt$[ebp]
	push	edx
	call	_xmlRegexpErrCompile
	add	esp, 8

; 5058 : 		return;

	jmp	$LN1@xmlFAParse
$LN4@xmlFAParse:

; 5059 : 	}
; 5060 :         len = 1;

	mov	DWORD PTR _len$[ebp], 1
	jmp	SHORT $LN20@xmlFAParse
$LN19@xmlFAParse:

; 5061 :     } else if ((cur != '\0') && (cur != 0x5B) && (cur != 0x5D)) {

	cmp	DWORD PTR _cur$[ebp], 0
	je	SHORT $LN26@xmlFAParse
	cmp	DWORD PTR _cur$[ebp], 91		; 0000005bH
	je	SHORT $LN26@xmlFAParse
	cmp	DWORD PTR _cur$[ebp], 93		; 0000005dH
	je	SHORT $LN26@xmlFAParse

; 5062 :         end = CUR_SCHAR(ctxt->cur, len);

	lea	eax, DWORD PTR _len$[ebp]
	push	eax
	mov	ecx, DWORD PTR _ctxt$[ebp]
	mov	edx, DWORD PTR [ecx+4]
	push	edx
	push	0
	call	_xmlStringCurrentChar
	add	esp, 12					; 0000000cH
	mov	DWORD PTR _end$[ebp], eax

; 5063 :     } else {

	jmp	SHORT $LN20@xmlFAParse
$LN26@xmlFAParse:

; 5064 : 	ERROR("Expecting the end of a char range");

	mov	eax, DWORD PTR _ctxt$[ebp]
	mov	DWORD PTR [eax+8], 1450			; 000005aaH
	push	OFFSET ??_C@_0CC@JHFKDBIP@Expecting?5the?5end?5of?5a?5char?5ran@
	mov	ecx, DWORD PTR _ctxt$[ebp]
	push	ecx
	call	_xmlRegexpErrCompile
	add	esp, 8

; 5065 : 	return;

	jmp	SHORT $LN1@xmlFAParse
$LN20@xmlFAParse:

; 5066 :     }
; 5067 : 
; 5068 :     /* TODO check that the values are acceptable character ranges for XML */
; 5069 :     if (end < start) {

	mov	edx, DWORD PTR _end$[ebp]
	cmp	edx, DWORD PTR _start$[ebp]
	jge	SHORT $LN28@xmlFAParse

; 5070 : 	ERROR("End of range is before start of range");

	mov	eax, DWORD PTR _ctxt$[ebp]
	mov	DWORD PTR [eax+8], 1450			; 000005aaH
	push	OFFSET ??_C@_0CG@BKADGONK@End?5of?5range?5is?5before?5start?5of@
	mov	ecx, DWORD PTR _ctxt$[ebp]
	push	ecx
	call	_xmlRegexpErrCompile
	add	esp, 8

; 5071 :     } else {

	jmp	SHORT $LN1@xmlFAParse
$LN28@xmlFAParse:

; 5072 :         NEXTL(len);

	mov	edx, DWORD PTR _ctxt$[ebp]
	mov	eax, DWORD PTR [edx+4]
	add	eax, DWORD PTR _len$[ebp]
	mov	ecx, DWORD PTR _ctxt$[ebp]
	mov	DWORD PTR [ecx+4], eax

; 5073 :         xmlRegAtomAddRange(ctxt, ctxt->atom, ctxt->neg,

	push	0
	mov	edx, DWORD PTR _end$[ebp]
	push	edx
	mov	eax, DWORD PTR _start$[ebp]
	push	eax
	push	2
	mov	ecx, DWORD PTR _ctxt$[ebp]
	mov	edx, DWORD PTR [ecx+12]
	push	edx
	mov	eax, DWORD PTR _ctxt$[ebp]
	mov	ecx, DWORD PTR [eax+28]
	push	ecx
	mov	edx, DWORD PTR _ctxt$[ebp]
	push	edx
	call	_xmlRegAtomAddRange
	add	esp, 28					; 0000001cH
$LN1@xmlFAParse:

; 5074 : 		           XML_REGEXP_CHARVAL, start, end, NULL);
; 5075 :     }
; 5076 :     return;
; 5077 : }

	push	edx
	mov	ecx, ebp
	push	eax
	lea	edx, DWORD PTR $LN35@xmlFAParse
	call	@_RTC_CheckStackVars@8
	pop	eax
	pop	edx
	add	esp, 32					; 00000020H
	cmp	ebp, esp
	call	__RTC_CheckEsp
	mov	esp, ebp
	pop	ebp
	ret	0
	npad	1
$LN35@xmlFAParse:
	DD	1
	DD	$LN34@xmlFAParse
$LN34@xmlFAParse:
	DD	-12					; fffffff4H
	DD	4
	DD	$LN33@xmlFAParse
$LN33@xmlFAParse:
	DB	108					; 0000006cH
	DB	101					; 00000065H
	DB	110					; 0000006eH
	DB	0
$LN36@xmlFAParse:
	DD	$LN12@xmlFAParse
	DD	$LN9@xmlFAParse
	DD	$LN10@xmlFAParse
	DD	$LN11@xmlFAParse
	DD	$LN13@xmlFAParse
$LN31@xmlFAParse:
	DB	0
	DB	0
	DB	0
	DB	0
	DB	4
	DB	0
	DB	0
	DB	4
	DB	4
	DB	4
	DB	4
	DB	4
	DB	4
	DB	4
	DB	4
	DB	4
	DB	4
	DB	4
	DB	4
	DB	4
	DB	4
	DB	4
	DB	4
	DB	0
	DB	4
	DB	4
	DB	4
	DB	4
	DB	4
	DB	4
	DB	4
	DB	4
	DB	4
	DB	4
	DB	4
	DB	4
	DB	4
	DB	4
	DB	4
	DB	4
	DB	4
	DB	4
	DB	4
	DB	4
	DB	4
	DB	4
	DB	4
	DB	4
	DB	4
	DB	4
	DB	4
	DB	0
	DB	0
	DB	0
	DB	0
	DB	4
	DB	4
	DB	4
	DB	4
	DB	4
	DB	4
	DB	4
	DB	4
	DB	4
	DB	4
	DB	4
	DB	4
	DB	4
	DB	4
	DB	4
	DB	1
	DB	4
	DB	4
	DB	4
	DB	2
	DB	4
	DB	3
	DB	4
	DB	4
	DB	4
	DB	4
	DB	4
	DB	4
	DB	0
	DB	0
	DB	0
	npad	2
$LN37@xmlFAParse:
	DD	$LN24@xmlFAParse
	DD	$LN21@xmlFAParse
	DD	$LN22@xmlFAParse
	DD	$LN23@xmlFAParse
	DD	$LN25@xmlFAParse
$LN32@xmlFAParse:
	DB	0
	DB	0
	DB	0
	DB	0
	DB	4
	DB	0
	DB	0
	DB	4
	DB	4
	DB	4
	DB	4
	DB	4
	DB	4
	DB	4
	DB	4
	DB	4
	DB	4
	DB	4
	DB	4
	DB	4
	DB	4
	DB	4
	DB	4
	DB	0
	DB	4
	DB	4
	DB	4
	DB	4
	DB	4
	DB	4
	DB	4
	DB	4
	DB	4
	DB	4
	DB	4
	DB	4
	DB	4
	DB	4
	DB	4
	DB	4
	DB	4
	DB	4
	DB	4
	DB	4
	DB	4
	DB	4
	DB	4
	DB	4
	DB	4
	DB	4
	DB	4
	DB	0
	DB	0
	DB	0
	DB	0
	DB	4
	DB	4
	DB	4
	DB	4
	DB	4
	DB	4
	DB	4
	DB	4
	DB	4
	DB	4
	DB	4
	DB	4
	DB	4
	DB	4
	DB	4
	DB	1
	DB	4
	DB	4
	DB	4
	DB	2
	DB	4
	DB	3
	DB	4
	DB	4
	DB	4
	DB	4
	DB	4
	DB	4
	DB	0
	DB	0
	DB	0
_xmlFAParseCharRange ENDP
_TEXT	ENDS
; Function compile flags: /Odtp /RTCsu
; File c:\users\dag\documents\_clients\codeproject authors group\windows on arm\libxml2\libxml2-2.9.9\xmlregexp.c
;	COMDAT _xmlFAParseCharClassEsc
_TEXT	SEGMENT
tv263 = -20						; size = 4
tv236 = -16						; size = 4
tv221 = -12						; size = 4
_type$1 = -8						; size = 4
_cur$ = -4						; size = 4
_ctxt$ = 8						; size = 4
_xmlFAParseCharClassEsc PROC				; COMDAT

; 4849 : xmlFAParseCharClassEsc(xmlRegParserCtxtPtr ctxt) {

	push	ebp
	mov	ebp, esp
	sub	esp, 20					; 00000014H
	mov	eax, -858993460				; ccccccccH
	mov	DWORD PTR [ebp-20], eax
	mov	DWORD PTR [ebp-16], eax
	mov	DWORD PTR [ebp-12], eax
	mov	DWORD PTR [ebp-8], eax
	mov	DWORD PTR [ebp-4], eax
	mov	ecx, OFFSET __F6DD4902_xmlregexp@c
	call	@__CheckForDebuggerJustMyCode@4

; 4850 :     int cur;
; 4851 : 
; 4852 :     if (CUR == '.') {

	mov	eax, DWORD PTR _ctxt$[ebp]
	mov	ecx, DWORD PTR [eax+4]
	movzx	edx, BYTE PTR [ecx]
	cmp	edx, 46					; 0000002eH
	jne	SHORT $LN8@xmlFAParse

; 4853 : 	if (ctxt->atom == NULL) {

	mov	eax, DWORD PTR _ctxt$[ebp]
	cmp	DWORD PTR [eax+28], 0
	jne	SHORT $LN9@xmlFAParse

; 4854 : 	    ctxt->atom = xmlRegNewAtom(ctxt, XML_REGEXP_ANYCHAR);

	push	6
	mov	ecx, DWORD PTR _ctxt$[ebp]
	push	ecx
	call	_xmlRegNewAtom
	add	esp, 8
	mov	edx, DWORD PTR _ctxt$[ebp]
	mov	DWORD PTR [edx+28], eax
	jmp	SHORT $LN10@xmlFAParse
$LN9@xmlFAParse:

; 4855 : 	} else if (ctxt->atom->type == XML_REGEXP_RANGES) {

	mov	eax, DWORD PTR _ctxt$[ebp]
	mov	ecx, DWORD PTR [eax+28]
	cmp	DWORD PTR [ecx+4], 3
	jne	SHORT $LN10@xmlFAParse

; 4856 : 	    xmlRegAtomAddRange(ctxt, ctxt->atom, ctxt->neg,

	push	0
	push	0
	push	0
	push	6
	mov	edx, DWORD PTR _ctxt$[ebp]
	mov	eax, DWORD PTR [edx+12]
	push	eax
	mov	ecx, DWORD PTR _ctxt$[ebp]
	mov	edx, DWORD PTR [ecx+28]
	push	edx
	mov	eax, DWORD PTR _ctxt$[ebp]
	push	eax
	call	_xmlRegAtomAddRange
	add	esp, 28					; 0000001cH
$LN10@xmlFAParse:

; 4857 : 			       XML_REGEXP_ANYCHAR, 0, 0, NULL);
; 4858 : 	}
; 4859 : 	NEXT;

	mov	ecx, DWORD PTR _ctxt$[ebp]
	mov	edx, DWORD PTR [ecx+4]
	add	edx, 1
	mov	eax, DWORD PTR _ctxt$[ebp]
	mov	DWORD PTR [eax+4], edx

; 4860 : 	return;

	jmp	$LN1@xmlFAParse
$LN8@xmlFAParse:

; 4861 :     }
; 4862 :     if (CUR != '\\') {

	mov	ecx, DWORD PTR _ctxt$[ebp]
	mov	edx, DWORD PTR [ecx+4]
	movzx	eax, BYTE PTR [edx]
	cmp	eax, 92					; 0000005cH
	je	SHORT $LN12@xmlFAParse

; 4863 : 	ERROR("Escaped sequence: expecting \\");

	mov	ecx, DWORD PTR _ctxt$[ebp]
	mov	DWORD PTR [ecx+8], 1450			; 000005aaH
	push	OFFSET ??_C@_0BO@BOFONOMH@Escaped?5sequence?3?5expecting?5?2@
	mov	edx, DWORD PTR _ctxt$[ebp]
	push	edx
	call	_xmlRegexpErrCompile
	add	esp, 8

; 4864 : 	return;

	jmp	$LN1@xmlFAParse
$LN12@xmlFAParse:

; 4865 :     }
; 4866 :     NEXT;

	mov	eax, DWORD PTR _ctxt$[ebp]
	mov	ecx, DWORD PTR [eax+4]
	add	ecx, 1
	mov	edx, DWORD PTR _ctxt$[ebp]
	mov	DWORD PTR [edx+4], ecx

; 4867 :     cur = CUR;

	mov	eax, DWORD PTR _ctxt$[ebp]
	mov	ecx, DWORD PTR [eax+4]
	movzx	edx, BYTE PTR [ecx]
	mov	DWORD PTR _cur$[ebp], edx

; 4868 :     if (cur == 'p') {

	cmp	DWORD PTR _cur$[ebp], 112		; 00000070H
	jne	$LN13@xmlFAParse

; 4869 : 	NEXT;

	mov	eax, DWORD PTR _ctxt$[ebp]
	mov	ecx, DWORD PTR [eax+4]
	add	ecx, 1
	mov	edx, DWORD PTR _ctxt$[ebp]
	mov	DWORD PTR [edx+4], ecx

; 4870 : 	if (CUR != '{') {

	mov	eax, DWORD PTR _ctxt$[ebp]
	mov	ecx, DWORD PTR [eax+4]
	movzx	edx, BYTE PTR [ecx]
	cmp	edx, 123				; 0000007bH
	je	SHORT $LN15@xmlFAParse

; 4871 : 	    ERROR("Expecting '{'");

	mov	eax, DWORD PTR _ctxt$[ebp]
	mov	DWORD PTR [eax+8], 1450			; 000005aaH
	push	OFFSET ??_C@_0O@OGGGBIPE@Expecting?5?8?$HL?8@
	mov	ecx, DWORD PTR _ctxt$[ebp]
	push	ecx
	call	_xmlRegexpErrCompile
	add	esp, 8

; 4872 : 	    return;

	jmp	$LN1@xmlFAParse
$LN15@xmlFAParse:

; 4873 : 	}
; 4874 : 	NEXT;

	mov	edx, DWORD PTR _ctxt$[ebp]
	mov	eax, DWORD PTR [edx+4]
	add	eax, 1
	mov	ecx, DWORD PTR _ctxt$[ebp]
	mov	DWORD PTR [ecx+4], eax

; 4875 : 	xmlFAParseCharProp(ctxt);

	mov	edx, DWORD PTR _ctxt$[ebp]
	push	edx
	call	_xmlFAParseCharProp
	add	esp, 4

; 4876 : 	if (CUR != '}') {

	mov	eax, DWORD PTR _ctxt$[ebp]
	mov	ecx, DWORD PTR [eax+4]
	movzx	edx, BYTE PTR [ecx]
	cmp	edx, 125				; 0000007dH
	je	SHORT $LN16@xmlFAParse

; 4877 : 	    ERROR("Expecting '}'");

	mov	eax, DWORD PTR _ctxt$[ebp]
	mov	DWORD PTR [eax+8], 1450			; 000005aaH
	push	OFFSET ??_C@_0O@OCOLGEEG@Expecting?5?8?$HN?8@
	mov	ecx, DWORD PTR _ctxt$[ebp]
	push	ecx
	call	_xmlRegexpErrCompile
	add	esp, 8

; 4878 : 	    return;

	jmp	$LN1@xmlFAParse
$LN16@xmlFAParse:

; 4879 : 	}
; 4880 : 	NEXT;

	mov	edx, DWORD PTR _ctxt$[ebp]
	mov	eax, DWORD PTR [edx+4]
	add	eax, 1
	mov	ecx, DWORD PTR _ctxt$[ebp]
	mov	DWORD PTR [ecx+4], eax
	jmp	$LN1@xmlFAParse
$LN13@xmlFAParse:

; 4881 :     } else if (cur == 'P') {

	cmp	DWORD PTR _cur$[ebp], 80		; 00000050H
	jne	$LN17@xmlFAParse

; 4882 : 	NEXT;

	mov	edx, DWORD PTR _ctxt$[ebp]
	mov	eax, DWORD PTR [edx+4]
	add	eax, 1
	mov	ecx, DWORD PTR _ctxt$[ebp]
	mov	DWORD PTR [ecx+4], eax

; 4883 : 	if (CUR != '{') {

	mov	edx, DWORD PTR _ctxt$[ebp]
	mov	eax, DWORD PTR [edx+4]
	movzx	ecx, BYTE PTR [eax]
	cmp	ecx, 123				; 0000007bH
	je	SHORT $LN19@xmlFAParse

; 4884 : 	    ERROR("Expecting '{'");

	mov	edx, DWORD PTR _ctxt$[ebp]
	mov	DWORD PTR [edx+8], 1450			; 000005aaH
	push	OFFSET ??_C@_0O@OGGGBIPE@Expecting?5?8?$HL?8@
	mov	eax, DWORD PTR _ctxt$[ebp]
	push	eax
	call	_xmlRegexpErrCompile
	add	esp, 8

; 4885 : 	    return;

	jmp	$LN1@xmlFAParse
$LN19@xmlFAParse:

; 4886 : 	}
; 4887 : 	NEXT;

	mov	ecx, DWORD PTR _ctxt$[ebp]
	mov	edx, DWORD PTR [ecx+4]
	add	edx, 1
	mov	eax, DWORD PTR _ctxt$[ebp]
	mov	DWORD PTR [eax+4], edx

; 4888 : 	xmlFAParseCharProp(ctxt);

	mov	ecx, DWORD PTR _ctxt$[ebp]
	push	ecx
	call	_xmlFAParseCharProp
	add	esp, 4

; 4889 :         if (ctxt->atom != NULL)

	mov	edx, DWORD PTR _ctxt$[ebp]
	cmp	DWORD PTR [edx+28], 0
	je	SHORT $LN20@xmlFAParse

; 4890 : 	    ctxt->atom->neg = 1;

	mov	eax, DWORD PTR _ctxt$[ebp]
	mov	ecx, DWORD PTR [eax+28]
	mov	DWORD PTR [ecx+28], 1
$LN20@xmlFAParse:

; 4891 : 	if (CUR != '}') {

	mov	edx, DWORD PTR _ctxt$[ebp]
	mov	eax, DWORD PTR [edx+4]
	movzx	ecx, BYTE PTR [eax]
	cmp	ecx, 125				; 0000007dH
	je	SHORT $LN21@xmlFAParse

; 4892 : 	    ERROR("Expecting '}'");

	mov	edx, DWORD PTR _ctxt$[ebp]
	mov	DWORD PTR [edx+8], 1450			; 000005aaH
	push	OFFSET ??_C@_0O@OCOLGEEG@Expecting?5?8?$HN?8@
	mov	eax, DWORD PTR _ctxt$[ebp]
	push	eax
	call	_xmlRegexpErrCompile
	add	esp, 8

; 4893 : 	    return;

	jmp	$LN1@xmlFAParse
$LN21@xmlFAParse:

; 4894 : 	}
; 4895 : 	NEXT;

	mov	ecx, DWORD PTR _ctxt$[ebp]
	mov	edx, DWORD PTR [ecx+4]
	add	edx, 1
	mov	eax, DWORD PTR _ctxt$[ebp]
	mov	DWORD PTR [eax+4], edx

; 4896 :     } else if ((cur == 'n') || (cur == 'r') || (cur == 't') || (cur == '\\') ||

	jmp	$LN1@xmlFAParse
$LN17@xmlFAParse:

; 4897 : 	(cur == '|') || (cur == '.') || (cur == '?') || (cur == '*') ||
; 4898 : 	(cur == '+') || (cur == '(') || (cur == ')') || (cur == '{') ||
; 4899 : 	(cur == '}') || (cur == 0x2D) || (cur == 0x5B) || (cur == 0x5D) ||

	cmp	DWORD PTR _cur$[ebp], 110		; 0000006eH
	je	SHORT $LN24@xmlFAParse
	cmp	DWORD PTR _cur$[ebp], 114		; 00000072H
	je	SHORT $LN24@xmlFAParse
	cmp	DWORD PTR _cur$[ebp], 116		; 00000074H
	je	SHORT $LN24@xmlFAParse
	cmp	DWORD PTR _cur$[ebp], 92		; 0000005cH
	je	SHORT $LN24@xmlFAParse
	cmp	DWORD PTR _cur$[ebp], 124		; 0000007cH
	je	SHORT $LN24@xmlFAParse
	cmp	DWORD PTR _cur$[ebp], 46		; 0000002eH
	je	SHORT $LN24@xmlFAParse
	cmp	DWORD PTR _cur$[ebp], 63		; 0000003fH
	je	SHORT $LN24@xmlFAParse
	cmp	DWORD PTR _cur$[ebp], 42		; 0000002aH
	je	SHORT $LN24@xmlFAParse
	cmp	DWORD PTR _cur$[ebp], 43		; 0000002bH
	je	SHORT $LN24@xmlFAParse
	cmp	DWORD PTR _cur$[ebp], 40		; 00000028H
	je	SHORT $LN24@xmlFAParse
	cmp	DWORD PTR _cur$[ebp], 41		; 00000029H
	je	SHORT $LN24@xmlFAParse
	cmp	DWORD PTR _cur$[ebp], 123		; 0000007bH
	je	SHORT $LN24@xmlFAParse
	cmp	DWORD PTR _cur$[ebp], 125		; 0000007dH
	je	SHORT $LN24@xmlFAParse
	cmp	DWORD PTR _cur$[ebp], 45		; 0000002dH
	je	SHORT $LN24@xmlFAParse
	cmp	DWORD PTR _cur$[ebp], 91		; 0000005bH
	je	SHORT $LN24@xmlFAParse
	cmp	DWORD PTR _cur$[ebp], 93		; 0000005dH
	je	SHORT $LN24@xmlFAParse
	cmp	DWORD PTR _cur$[ebp], 94		; 0000005eH
	jne	$LN22@xmlFAParse
$LN24@xmlFAParse:

; 4900 : 	(cur == 0x5E)) {
; 4901 : 	if (ctxt->atom == NULL) {

	mov	ecx, DWORD PTR _ctxt$[ebp]
	cmp	DWORD PTR [ecx+28], 0
	jne	SHORT $LN25@xmlFAParse

; 4902 : 	    ctxt->atom = xmlRegNewAtom(ctxt, XML_REGEXP_CHARVAL);

	push	2
	mov	edx, DWORD PTR _ctxt$[ebp]
	push	edx
	call	_xmlRegNewAtom
	add	esp, 8
	mov	ecx, DWORD PTR _ctxt$[ebp]
	mov	DWORD PTR [ecx+28], eax

; 4903 : 	    if (ctxt->atom != NULL) {

	mov	edx, DWORD PTR _ctxt$[ebp]
	cmp	DWORD PTR [edx+28], 0
	je	SHORT $LN27@xmlFAParse

; 4904 : 	        switch (cur) {

	mov	eax, DWORD PTR _cur$[ebp]
	mov	DWORD PTR tv221[ebp], eax
	cmp	DWORD PTR tv221[ebp], 110		; 0000006eH
	je	SHORT $LN28@xmlFAParse
	cmp	DWORD PTR tv221[ebp], 114		; 00000072H
	je	SHORT $LN29@xmlFAParse
	cmp	DWORD PTR tv221[ebp], 116		; 00000074H
	je	SHORT $LN30@xmlFAParse
	jmp	SHORT $LN31@xmlFAParse
$LN28@xmlFAParse:

; 4905 : 		    case 'n':
; 4906 : 		        ctxt->atom->codepoint = '\n';

	mov	ecx, DWORD PTR _ctxt$[ebp]
	mov	edx, DWORD PTR [ecx+28]
	mov	DWORD PTR [edx+32], 10			; 0000000aH

; 4907 : 			break;

	jmp	SHORT $LN27@xmlFAParse
$LN29@xmlFAParse:

; 4908 : 		    case 'r':
; 4909 : 		        ctxt->atom->codepoint = '\r';

	mov	eax, DWORD PTR _ctxt$[ebp]
	mov	ecx, DWORD PTR [eax+28]
	mov	DWORD PTR [ecx+32], 13			; 0000000dH

; 4910 : 			break;

	jmp	SHORT $LN27@xmlFAParse
$LN30@xmlFAParse:

; 4911 : 		    case 't':
; 4912 : 		        ctxt->atom->codepoint = '\t';

	mov	edx, DWORD PTR _ctxt$[ebp]
	mov	eax, DWORD PTR [edx+28]
	mov	DWORD PTR [eax+32], 9

; 4913 : 			break;

	jmp	SHORT $LN27@xmlFAParse
$LN31@xmlFAParse:

; 4914 : 		    default:
; 4915 : 			ctxt->atom->codepoint = cur;

	mov	ecx, DWORD PTR _ctxt$[ebp]
	mov	edx, DWORD PTR [ecx+28]
	mov	eax, DWORD PTR _cur$[ebp]
	mov	DWORD PTR [edx+32], eax
$LN27@xmlFAParse:

; 4916 : 		}
; 4917 : 	    }

	jmp	SHORT $LN26@xmlFAParse
$LN25@xmlFAParse:

; 4918 : 	} else if (ctxt->atom->type == XML_REGEXP_RANGES) {

	mov	ecx, DWORD PTR _ctxt$[ebp]
	mov	edx, DWORD PTR [ecx+28]
	cmp	DWORD PTR [edx+4], 3
	jne	SHORT $LN26@xmlFAParse

; 4919 :             switch (cur) {

	mov	eax, DWORD PTR _cur$[ebp]
	mov	DWORD PTR tv236[ebp], eax
	cmp	DWORD PTR tv236[ebp], 110		; 0000006eH
	je	SHORT $LN33@xmlFAParse
	cmp	DWORD PTR tv236[ebp], 114		; 00000072H
	je	SHORT $LN34@xmlFAParse
	cmp	DWORD PTR tv236[ebp], 116		; 00000074H
	je	SHORT $LN35@xmlFAParse
	jmp	SHORT $LN4@xmlFAParse
$LN33@xmlFAParse:

; 4920 :                 case 'n':
; 4921 :                     cur = '\n';

	mov	DWORD PTR _cur$[ebp], 10		; 0000000aH

; 4922 :                     break;

	jmp	SHORT $LN4@xmlFAParse
$LN34@xmlFAParse:

; 4923 :                 case 'r':
; 4924 :                     cur = '\r';

	mov	DWORD PTR _cur$[ebp], 13		; 0000000dH

; 4925 :                     break;

	jmp	SHORT $LN4@xmlFAParse
$LN35@xmlFAParse:

; 4926 :                 case 't':
; 4927 :                     cur = '\t';

	mov	DWORD PTR _cur$[ebp], 9
$LN4@xmlFAParse:

; 4928 :                     break;
; 4929 :             }
; 4930 : 	    xmlRegAtomAddRange(ctxt, ctxt->atom, ctxt->neg,

	push	0
	mov	ecx, DWORD PTR _cur$[ebp]
	push	ecx
	mov	edx, DWORD PTR _cur$[ebp]
	push	edx
	push	2
	mov	eax, DWORD PTR _ctxt$[ebp]
	mov	ecx, DWORD PTR [eax+12]
	push	ecx
	mov	edx, DWORD PTR _ctxt$[ebp]
	mov	eax, DWORD PTR [edx+28]
	push	eax
	mov	ecx, DWORD PTR _ctxt$[ebp]
	push	ecx
	call	_xmlRegAtomAddRange
	add	esp, 28					; 0000001cH
$LN26@xmlFAParse:

; 4931 : 			       XML_REGEXP_CHARVAL, cur, cur, NULL);
; 4932 : 	}
; 4933 : 	NEXT;

	mov	edx, DWORD PTR _ctxt$[ebp]
	mov	eax, DWORD PTR [edx+4]
	add	eax, 1
	mov	ecx, DWORD PTR _ctxt$[ebp]
	mov	DWORD PTR [ecx+4], eax

; 4934 :     } else if ((cur == 's') || (cur == 'S') || (cur == 'i') || (cur == 'I') ||

	jmp	$LN1@xmlFAParse
$LN22@xmlFAParse:

; 4935 : 	(cur == 'c') || (cur == 'C') || (cur == 'd') || (cur == 'D') ||
; 4936 : 	(cur == 'w') || (cur == 'W')) {

	cmp	DWORD PTR _cur$[ebp], 115		; 00000073H
	je	SHORT $LN38@xmlFAParse
	cmp	DWORD PTR _cur$[ebp], 83		; 00000053H
	je	SHORT $LN38@xmlFAParse
	cmp	DWORD PTR _cur$[ebp], 105		; 00000069H
	je	SHORT $LN38@xmlFAParse
	cmp	DWORD PTR _cur$[ebp], 73		; 00000049H
	je	SHORT $LN38@xmlFAParse
	cmp	DWORD PTR _cur$[ebp], 99		; 00000063H
	je	SHORT $LN38@xmlFAParse
	cmp	DWORD PTR _cur$[ebp], 67		; 00000043H
	je	SHORT $LN38@xmlFAParse
	cmp	DWORD PTR _cur$[ebp], 100		; 00000064H
	je	SHORT $LN38@xmlFAParse
	cmp	DWORD PTR _cur$[ebp], 68		; 00000044H
	je	SHORT $LN38@xmlFAParse
	cmp	DWORD PTR _cur$[ebp], 119		; 00000077H
	je	SHORT $LN38@xmlFAParse
	cmp	DWORD PTR _cur$[ebp], 87		; 00000057H
	jne	$LN36@xmlFAParse
$LN38@xmlFAParse:

; 4937 : 	xmlRegAtomType type = XML_REGEXP_ANYSPACE;

	mov	DWORD PTR _type$1[ebp], 7

; 4938 : 
; 4939 : 	switch (cur) {

	mov	edx, DWORD PTR _cur$[ebp]
	mov	DWORD PTR tv263[ebp], edx
	mov	eax, DWORD PTR tv263[ebp]
	sub	eax, 67					; 00000043H
	mov	DWORD PTR tv263[ebp], eax
	cmp	DWORD PTR tv263[ebp], 52		; 00000034H
	ja	SHORT $LN6@xmlFAParse
	mov	ecx, DWORD PTR tv263[ebp]
	movzx	edx, BYTE PTR $LN53@xmlFAParse[ecx]
	jmp	DWORD PTR $LN54@xmlFAParse[edx*4]
$LN39@xmlFAParse:

; 4940 : 	    case 's':
; 4941 : 		type = XML_REGEXP_ANYSPACE;

	mov	DWORD PTR _type$1[ebp], 7

; 4942 : 		break;

	jmp	SHORT $LN6@xmlFAParse
$LN40@xmlFAParse:

; 4943 : 	    case 'S':
; 4944 : 		type = XML_REGEXP_NOTSPACE;

	mov	DWORD PTR _type$1[ebp], 8

; 4945 : 		break;

	jmp	SHORT $LN6@xmlFAParse
$LN41@xmlFAParse:

; 4946 : 	    case 'i':
; 4947 : 		type = XML_REGEXP_INITNAME;

	mov	DWORD PTR _type$1[ebp], 9

; 4948 : 		break;

	jmp	SHORT $LN6@xmlFAParse
$LN42@xmlFAParse:

; 4949 : 	    case 'I':
; 4950 : 		type = XML_REGEXP_NOTINITNAME;

	mov	DWORD PTR _type$1[ebp], 10		; 0000000aH

; 4951 : 		break;

	jmp	SHORT $LN6@xmlFAParse
$LN43@xmlFAParse:

; 4952 : 	    case 'c':
; 4953 : 		type = XML_REGEXP_NAMECHAR;

	mov	DWORD PTR _type$1[ebp], 11		; 0000000bH

; 4954 : 		break;

	jmp	SHORT $LN6@xmlFAParse
$LN44@xmlFAParse:

; 4955 : 	    case 'C':
; 4956 : 		type = XML_REGEXP_NOTNAMECHAR;

	mov	DWORD PTR _type$1[ebp], 12		; 0000000cH

; 4957 : 		break;

	jmp	SHORT $LN6@xmlFAParse
$LN45@xmlFAParse:

; 4958 : 	    case 'd':
; 4959 : 		type = XML_REGEXP_DECIMAL;

	mov	DWORD PTR _type$1[ebp], 13		; 0000000dH

; 4960 : 		break;

	jmp	SHORT $LN6@xmlFAParse
$LN46@xmlFAParse:

; 4961 : 	    case 'D':
; 4962 : 		type = XML_REGEXP_NOTDECIMAL;

	mov	DWORD PTR _type$1[ebp], 14		; 0000000eH

; 4963 : 		break;

	jmp	SHORT $LN6@xmlFAParse
$LN47@xmlFAParse:

; 4964 : 	    case 'w':
; 4965 : 		type = XML_REGEXP_REALCHAR;

	mov	DWORD PTR _type$1[ebp], 15		; 0000000fH

; 4966 : 		break;

	jmp	SHORT $LN6@xmlFAParse
$LN48@xmlFAParse:

; 4967 : 	    case 'W':
; 4968 : 		type = XML_REGEXP_NOTREALCHAR;

	mov	DWORD PTR _type$1[ebp], 16		; 00000010H
$LN6@xmlFAParse:

; 4969 : 		break;
; 4970 : 	}
; 4971 : 	NEXT;

	mov	eax, DWORD PTR _ctxt$[ebp]
	mov	ecx, DWORD PTR [eax+4]
	add	ecx, 1
	mov	edx, DWORD PTR _ctxt$[ebp]
	mov	DWORD PTR [edx+4], ecx

; 4972 : 	if (ctxt->atom == NULL) {

	mov	eax, DWORD PTR _ctxt$[ebp]
	cmp	DWORD PTR [eax+28], 0
	jne	SHORT $LN49@xmlFAParse

; 4973 : 	    ctxt->atom = xmlRegNewAtom(ctxt, type);

	mov	ecx, DWORD PTR _type$1[ebp]
	push	ecx
	mov	edx, DWORD PTR _ctxt$[ebp]
	push	edx
	call	_xmlRegNewAtom
	add	esp, 8
	mov	ecx, DWORD PTR _ctxt$[ebp]
	mov	DWORD PTR [ecx+28], eax
	jmp	SHORT $LN50@xmlFAParse
$LN49@xmlFAParse:

; 4974 : 	} else if (ctxt->atom->type == XML_REGEXP_RANGES) {

	mov	edx, DWORD PTR _ctxt$[ebp]
	mov	eax, DWORD PTR [edx+28]
	cmp	DWORD PTR [eax+4], 3
	jne	SHORT $LN50@xmlFAParse

; 4975 : 	    xmlRegAtomAddRange(ctxt, ctxt->atom, ctxt->neg,

	push	0
	push	0
	push	0
	mov	ecx, DWORD PTR _type$1[ebp]
	push	ecx
	mov	edx, DWORD PTR _ctxt$[ebp]
	mov	eax, DWORD PTR [edx+12]
	push	eax
	mov	ecx, DWORD PTR _ctxt$[ebp]
	mov	edx, DWORD PTR [ecx+28]
	push	edx
	mov	eax, DWORD PTR _ctxt$[ebp]
	push	eax
	call	_xmlRegAtomAddRange
	add	esp, 28					; 0000001cH
$LN50@xmlFAParse:

; 4976 : 			       type, 0, 0, NULL);
; 4977 : 	}
; 4978 :     } else {

	jmp	SHORT $LN1@xmlFAParse
$LN36@xmlFAParse:

; 4979 : 	ERROR("Wrong escape sequence, misuse of character '\\'");

	mov	ecx, DWORD PTR _ctxt$[ebp]
	mov	DWORD PTR [ecx+8], 1450			; 000005aaH
	push	OFFSET ??_C@_0CP@BDPLJNDH@Wrong?5escape?5sequence?0?5misuse?5o@
	mov	edx, DWORD PTR _ctxt$[ebp]
	push	edx
	call	_xmlRegexpErrCompile
	add	esp, 8
$LN1@xmlFAParse:

; 4980 :     }
; 4981 : }

	add	esp, 20					; 00000014H
	cmp	ebp, esp
	call	__RTC_CheckEsp
	mov	esp, ebp
	pop	ebp
	ret	0
$LN54@xmlFAParse:
	DD	$LN44@xmlFAParse
	DD	$LN46@xmlFAParse
	DD	$LN42@xmlFAParse
	DD	$LN40@xmlFAParse
	DD	$LN48@xmlFAParse
	DD	$LN43@xmlFAParse
	DD	$LN45@xmlFAParse
	DD	$LN41@xmlFAParse
	DD	$LN39@xmlFAParse
	DD	$LN47@xmlFAParse
	DD	$LN6@xmlFAParse
$LN53@xmlFAParse:
	DB	0
	DB	1
	DB	10					; 0000000aH
	DB	10					; 0000000aH
	DB	10					; 0000000aH
	DB	10					; 0000000aH
	DB	2
	DB	10					; 0000000aH
	DB	10					; 0000000aH
	DB	10					; 0000000aH
	DB	10					; 0000000aH
	DB	10					; 0000000aH
	DB	10					; 0000000aH
	DB	10					; 0000000aH
	DB	10					; 0000000aH
	DB	10					; 0000000aH
	DB	3
	DB	10					; 0000000aH
	DB	10					; 0000000aH
	DB	10					; 0000000aH
	DB	4
	DB	10					; 0000000aH
	DB	10					; 0000000aH
	DB	10					; 0000000aH
	DB	10					; 0000000aH
	DB	10					; 0000000aH
	DB	10					; 0000000aH
	DB	10					; 0000000aH
	DB	10					; 0000000aH
	DB	10					; 0000000aH
	DB	10					; 0000000aH
	DB	10					; 0000000aH
	DB	5
	DB	6
	DB	10					; 0000000aH
	DB	10					; 0000000aH
	DB	10					; 0000000aH
	DB	10					; 0000000aH
	DB	7
	DB	10					; 0000000aH
	DB	10					; 0000000aH
	DB	10					; 0000000aH
	DB	10					; 0000000aH
	DB	10					; 0000000aH
	DB	10					; 0000000aH
	DB	10					; 0000000aH
	DB	10					; 0000000aH
	DB	10					; 0000000aH
	DB	8
	DB	10					; 0000000aH
	DB	10					; 0000000aH
	DB	10					; 0000000aH
	DB	9
_xmlFAParseCharClassEsc ENDP
_TEXT	ENDS
; Function compile flags: /Odtp /RTCsu
; File c:\users\dag\documents\_clients\codeproject authors group\windows on arm\libxml2\libxml2-2.9.9\xmlregexp.c
;	COMDAT _xmlFAParseCharProp
_TEXT	SEGMENT
_start$1 = -16						; size = 4
_blockName$ = -12					; size = 4
_type$ = -8						; size = 4
_cur$ = -4						; size = 4
_ctxt$ = 8						; size = 4
_xmlFAParseCharProp PROC				; COMDAT

; 4632 : xmlFAParseCharProp(xmlRegParserCtxtPtr ctxt) {

	push	ebp
	mov	ebp, esp
	sub	esp, 16					; 00000010H
	mov	eax, -858993460				; ccccccccH
	mov	DWORD PTR [ebp-16], eax
	mov	DWORD PTR [ebp-12], eax
	mov	DWORD PTR [ebp-8], eax
	mov	DWORD PTR [ebp-4], eax
	mov	ecx, OFFSET __F6DD4902_xmlregexp@c
	call	@__CheckForDebuggerJustMyCode@4

; 4633 :     int cur;
; 4634 :     xmlRegAtomType type = (xmlRegAtomType) 0;

	mov	DWORD PTR _type$[ebp], 0

; 4635 :     xmlChar *blockName = NULL;

	mov	DWORD PTR _blockName$[ebp], 0

; 4636 : 
; 4637 :     cur = CUR;

	mov	eax, DWORD PTR _ctxt$[ebp]
	mov	ecx, DWORD PTR [eax+4]
	movzx	edx, BYTE PTR [ecx]
	mov	DWORD PTR _cur$[ebp], edx

; 4638 :     if (cur == 'L') {

	cmp	DWORD PTR _cur$[ebp], 76		; 0000004cH
	jne	$LN4@xmlFAParse

; 4639 : 	NEXT;

	mov	eax, DWORD PTR _ctxt$[ebp]
	mov	ecx, DWORD PTR [eax+4]
	add	ecx, 1
	mov	edx, DWORD PTR _ctxt$[ebp]
	mov	DWORD PTR [edx+4], ecx

; 4640 : 	cur = CUR;

	mov	eax, DWORD PTR _ctxt$[ebp]
	mov	ecx, DWORD PTR [eax+4]
	movzx	edx, BYTE PTR [ecx]
	mov	DWORD PTR _cur$[ebp], edx

; 4641 : 	if (cur == 'u') {

	cmp	DWORD PTR _cur$[ebp], 117		; 00000075H
	jne	SHORT $LN6@xmlFAParse

; 4642 : 	    NEXT;

	mov	eax, DWORD PTR _ctxt$[ebp]
	mov	ecx, DWORD PTR [eax+4]
	add	ecx, 1
	mov	edx, DWORD PTR _ctxt$[ebp]
	mov	DWORD PTR [edx+4], ecx

; 4643 : 	    type = XML_REGEXP_LETTER_UPPERCASE;

	mov	DWORD PTR _type$[ebp], 101		; 00000065H
	jmp	SHORT $LN7@xmlFAParse
$LN6@xmlFAParse:

; 4644 : 	} else if (cur == 'l') {

	cmp	DWORD PTR _cur$[ebp], 108		; 0000006cH
	jne	SHORT $LN8@xmlFAParse

; 4645 : 	    NEXT;

	mov	eax, DWORD PTR _ctxt$[ebp]
	mov	ecx, DWORD PTR [eax+4]
	add	ecx, 1
	mov	edx, DWORD PTR _ctxt$[ebp]
	mov	DWORD PTR [edx+4], ecx

; 4646 : 	    type = XML_REGEXP_LETTER_LOWERCASE;

	mov	DWORD PTR _type$[ebp], 102		; 00000066H
	jmp	SHORT $LN7@xmlFAParse
$LN8@xmlFAParse:

; 4647 : 	} else if (cur == 't') {

	cmp	DWORD PTR _cur$[ebp], 116		; 00000074H
	jne	SHORT $LN10@xmlFAParse

; 4648 : 	    NEXT;

	mov	eax, DWORD PTR _ctxt$[ebp]
	mov	ecx, DWORD PTR [eax+4]
	add	ecx, 1
	mov	edx, DWORD PTR _ctxt$[ebp]
	mov	DWORD PTR [edx+4], ecx

; 4649 : 	    type = XML_REGEXP_LETTER_TITLECASE;

	mov	DWORD PTR _type$[ebp], 103		; 00000067H
	jmp	SHORT $LN7@xmlFAParse
$LN10@xmlFAParse:

; 4650 : 	} else if (cur == 'm') {

	cmp	DWORD PTR _cur$[ebp], 109		; 0000006dH
	jne	SHORT $LN12@xmlFAParse

; 4651 : 	    NEXT;

	mov	eax, DWORD PTR _ctxt$[ebp]
	mov	ecx, DWORD PTR [eax+4]
	add	ecx, 1
	mov	edx, DWORD PTR _ctxt$[ebp]
	mov	DWORD PTR [edx+4], ecx

; 4652 : 	    type = XML_REGEXP_LETTER_MODIFIER;

	mov	DWORD PTR _type$[ebp], 104		; 00000068H
	jmp	SHORT $LN7@xmlFAParse
$LN12@xmlFAParse:

; 4653 : 	} else if (cur == 'o') {

	cmp	DWORD PTR _cur$[ebp], 111		; 0000006fH
	jne	SHORT $LN14@xmlFAParse

; 4654 : 	    NEXT;

	mov	eax, DWORD PTR _ctxt$[ebp]
	mov	ecx, DWORD PTR [eax+4]
	add	ecx, 1
	mov	edx, DWORD PTR _ctxt$[ebp]
	mov	DWORD PTR [edx+4], ecx

; 4655 : 	    type = XML_REGEXP_LETTER_OTHERS;

	mov	DWORD PTR _type$[ebp], 105		; 00000069H

; 4656 : 	} else {

	jmp	SHORT $LN7@xmlFAParse
$LN14@xmlFAParse:

; 4657 : 	    type = XML_REGEXP_LETTER;

	mov	DWORD PTR _type$[ebp], 100		; 00000064H
$LN7@xmlFAParse:

; 4658 : 	}

	jmp	$LN5@xmlFAParse
$LN4@xmlFAParse:

; 4659 :     } else if (cur == 'M') {

	cmp	DWORD PTR _cur$[ebp], 77		; 0000004dH
	jne	$LN16@xmlFAParse

; 4660 : 	NEXT;

	mov	eax, DWORD PTR _ctxt$[ebp]
	mov	ecx, DWORD PTR [eax+4]
	add	ecx, 1
	mov	edx, DWORD PTR _ctxt$[ebp]
	mov	DWORD PTR [edx+4], ecx

; 4661 : 	cur = CUR;

	mov	eax, DWORD PTR _ctxt$[ebp]
	mov	ecx, DWORD PTR [eax+4]
	movzx	edx, BYTE PTR [ecx]
	mov	DWORD PTR _cur$[ebp], edx

; 4662 : 	if (cur == 'n') {

	cmp	DWORD PTR _cur$[ebp], 110		; 0000006eH
	jne	SHORT $LN18@xmlFAParse

; 4663 : 	    NEXT;

	mov	eax, DWORD PTR _ctxt$[ebp]
	mov	ecx, DWORD PTR [eax+4]
	add	ecx, 1
	mov	edx, DWORD PTR _ctxt$[ebp]
	mov	DWORD PTR [edx+4], ecx

; 4664 : 	    /* nonspacing */
; 4665 : 	    type = XML_REGEXP_MARK_NONSPACING;

	mov	DWORD PTR _type$[ebp], 107		; 0000006bH
	jmp	SHORT $LN19@xmlFAParse
$LN18@xmlFAParse:

; 4666 : 	} else if (cur == 'c') {

	cmp	DWORD PTR _cur$[ebp], 99		; 00000063H
	jne	SHORT $LN20@xmlFAParse

; 4667 : 	    NEXT;

	mov	eax, DWORD PTR _ctxt$[ebp]
	mov	ecx, DWORD PTR [eax+4]
	add	ecx, 1
	mov	edx, DWORD PTR _ctxt$[ebp]
	mov	DWORD PTR [edx+4], ecx

; 4668 : 	    /* spacing combining */
; 4669 : 	    type = XML_REGEXP_MARK_SPACECOMBINING;

	mov	DWORD PTR _type$[ebp], 108		; 0000006cH
	jmp	SHORT $LN19@xmlFAParse
$LN20@xmlFAParse:

; 4670 : 	} else if (cur == 'e') {

	cmp	DWORD PTR _cur$[ebp], 101		; 00000065H
	jne	SHORT $LN22@xmlFAParse

; 4671 : 	    NEXT;

	mov	eax, DWORD PTR _ctxt$[ebp]
