; Listing generated by Microsoft (R) Optimizing Compiler Version 19.16.27027.1 

	TITLE	C:\Users\DAG\Documents\_Clients\CodeProject Authors Group\Windows on ARM\libxml2\libxml2-2.9.9\xmlschemastypes.c
	.686P
	.XMM
	include listing.inc
	.model	flat

INCLUDELIB MSVCRTD
INCLUDELIB OLDNAMES

_DATA	SEGMENT
COMM	_xmlMalloc:DWORD
COMM	_xmlMallocAtomic:DWORD
COMM	_xmlRealloc:DWORD
COMM	_xmlFree:DWORD
COMM	_xmlMemStrdup:DWORD
COMM	_xmlIsBaseCharGroup:BYTE:010H
COMM	_xmlIsCharGroup:BYTE:010H
COMM	_xmlIsCombiningGroup:BYTE:010H
COMM	_xmlIsDigitGroup:BYTE:010H
COMM	_xmlIsExtenderGroup:BYTE:010H
COMM	_xmlIsIdeographicGroup:BYTE:010H
COMM	_xmlIsPubidChar_tab:BYTE:0100H
COMM	_xmlParserMaxDepth:DWORD
COMM	_xmlXPathNAN:QWORD
COMM	_xmlXPathPINF:QWORD
COMM	_xmlXPathNINF:QWORD
COMM	_forbiddenExp:DWORD
COMM	_emptyExp:DWORD
_DATA	ENDS
msvcjmc	SEGMENT
__188180DA_corecrt_math@h DB 01H
__2CC6E67D_corecrt_stdio_config@h DB 01H
__05476D76_corecrt_wstdio@h DB 01H
__A452D4A0_stdio@h DB 01H
__4384A2D9_corecrt_memcpy_s@h DB 01H
__4E51A221_corecrt_wstring@h DB 01H
__2140C079_string@h DB 01H
__74485836_xmlschemastypes@c DB 01H
msvcjmc	ENDS
CONST	SEGMENT
_daysInMonth DD	01fH
	DD	01cH
	DD	01fH
	DD	01eH
	DD	01fH
	DD	01eH
	DD	01fH
	DD	01fH
	DD	01eH
	DD	01fH
	DD	01eH
	DD	01fH
_daysInMonthLeap DD 01fH
	DD	01dH
	DD	01fH
	DD	01eH
	DD	01fH
	DD	01eH
	DD	01fH
	DD	01fH
	DD	01eH
	DD	01fH
	DD	01eH
	DD	01fH
_dayInYearByMonth DD 00H
	DD	01fH
	DD	03bH
	DD	05aH
	DD	078H
	DD	097H
	DD	0b5H
	DD	0d4H
	DD	0f3H
	DD	0111H
	DD	0130H
	DD	014eH
_dayInLeapYearByMonth DD 00H
	DD	01fH
	DD	03cH
	DD	05bH
	DD	079H
	DD	098H
	DD	0b6H
	DD	0d5H
	DD	0f4H
	DD	0112H
	DD	0131H
	DD	014fH
?dayRange@?1??xmlSchemaCompareDurations@@9@9 DD 00H	; `xmlSchemaCompareDurations'::`2'::dayRange
	DD	01cH
	DD	03bH
	DD	059H
	DD	078H
	DD	096H
	DD	0b5H
	DD	0d4H
	DD	0f2H
	DD	0111H
	DD	012fH
	DD	014eH
	DD	00H
	DD	01fH
	DD	03eH
	DD	05cH
	DD	07bH
	DD	099H
	DD	0b8H
	DD	0d7H
	DD	0f5H
	DD	0114H
	DD	0132H
	DD	0151H
CONST	ENDS
PUBLIC	___local_stdio_printf_options
PUBLIC	___local_stdio_scanf_options
PUBLIC	_snprintf
PUBLIC	_sscanf
PUBLIC	_xmlSchemaInitTypes
PUBLIC	_xmlSchemaCleanupTypes
PUBLIC	_xmlSchemaGetPredefinedType
PUBLIC	_xmlSchemaValidatePredefinedType
PUBLIC	_xmlSchemaValPredefTypeNode
PUBLIC	_xmlSchemaValidateFacet
PUBLIC	_xmlSchemaValidateFacetWhtsp
PUBLIC	_xmlSchemaFreeValue
PUBLIC	_xmlSchemaCompareValues
PUBLIC	_xmlSchemaGetBuiltInListSimpleTypeItemType
PUBLIC	_xmlSchemaValidateListSimpleTypeFacet
PUBLIC	_xmlSchemaGetBuiltInType
PUBLIC	_xmlSchemaIsBuiltInTypeFacet
PUBLIC	_xmlSchemaCollapseString
PUBLIC	_xmlSchemaWhiteSpaceReplace
PUBLIC	_xmlSchemaGetFacetValueAsULong
PUBLIC	_xmlSchemaValidateLengthFacet
PUBLIC	_xmlSchemaValidateLengthFacetWhtsp
PUBLIC	_xmlSchemaValPredefTypeNodeNoNorm
PUBLIC	_xmlSchemaGetCanonValue
PUBLIC	_xmlSchemaGetCanonValueWhtsp
PUBLIC	_xmlSchemaValueAppend
PUBLIC	_xmlSchemaValueGetNext
PUBLIC	_xmlSchemaValueGetAsString
PUBLIC	_xmlSchemaValueGetAsBoolean
PUBLIC	_xmlSchemaNewStringValue
PUBLIC	_xmlSchemaNewNOTATIONValue
PUBLIC	_xmlSchemaNewQNameValue
PUBLIC	_xmlSchemaCompareValuesWhtsp
PUBLIC	_xmlSchemaCopyValue
PUBLIC	_xmlSchemaGetValType
PUBLIC	__JustMyCode_Default
PUBLIC	??_C@_0CB@OFGABCMP@could?5not?5initialize?5basic?5type@ ; `string'
PUBLIC	??_C@_0CB@PJCCKICC@http?3?1?1www?4w3?4org?12001?1XMLSchem@ ; `string'
PUBLIC	??_C@_0BO@IIFFCFND@allocating?5particle?5component@ ; `string'
PUBLIC	??_C@_07OGOHJKKN@anyType@			; `string'
PUBLIC	??_C@_0CB@MIJFJDPK@allocating?5model?5group?5componen@ ; `string'
PUBLIC	??_C@_0BO@DGENAAFP@allocating?5wildcard?5component@ ; `string'
PUBLIC	??_C@_0DC@HFHHKPAL@could?5not?5create?5an?5attribute?5w@ ; `string'
PUBLIC	??_C@_0O@DMECCPMH@anySimpleType@		; `string'
PUBLIC	??_C@_06ICGJLFIM@string@			; `string'
PUBLIC	??_C@_07EEKBCPDP@decimal@			; `string'
PUBLIC	??_C@_04JNIHBGGH@date@				; `string'
PUBLIC	??_C@_08JHBOOHBO@dateTime@			; `string'
PUBLIC	??_C@_04CLCEDBPF@time@				; `string'
PUBLIC	??_C@_05DGCLHBFG@gYear@				; `string'
PUBLIC	??_C@_0L@FEFFJNNL@gYearMonth@			; `string'
PUBLIC	??_C@_06KBADAKNH@gMonth@			; `string'
PUBLIC	??_C@_09EILODGOG@gMonthDay@			; `string'
PUBLIC	??_C@_04LBFBAPHN@gDay@				; `string'
PUBLIC	??_C@_08LGBPINEC@duration@			; `string'
PUBLIC	??_C@_05KNFBNCOH@float@				; `string'
PUBLIC	??_C@_06BNJCAIGJ@double@			; `string'
PUBLIC	??_C@_07GOBOHMJA@boolean@			; `string'
PUBLIC	??_C@_06DLDOHKEG@anyURI@			; `string'
PUBLIC	??_C@_09EHHLIAMK@hexBinary@			; `string'
PUBLIC	??_C@_0N@NBAOPEBP@base64Binary@			; `string'
PUBLIC	??_C@_08NCDGCBCC@NOTATION@			; `string'
PUBLIC	??_C@_05LFDDDENB@QName@				; `string'
PUBLIC	??_C@_07LKHFMGFB@integer@			; `string'
PUBLIC	??_C@_0BD@FMNGDL@nonPositiveInteger@		; `string'
PUBLIC	??_C@_0BA@HJODLFEP@negativeInteger@		; `string'
PUBLIC	??_C@_04GOKPGOLB@long@				; `string'
PUBLIC	??_C@_03JBIPMCLC@int@				; `string'
PUBLIC	??_C@_05BFKKPKCG@short@				; `string'
PUBLIC	??_C@_04IHGKJMLH@byte@				; `string'
PUBLIC	??_C@_0BD@IEOLADAC@nonNegativeInteger@		; `string'
PUBLIC	??_C@_0N@PNDKOLAJ@unsignedLong@			; `string'
PUBLIC	??_C@_0M@NPFOHDP@unsignedInt@			; `string'
PUBLIC	??_C@_0O@NAIDFEBN@unsignedShort@		; `string'
PUBLIC	??_C@_0N@BEPPBJAP@unsignedByte@			; `string'
PUBLIC	??_C@_0BA@PNFEGAHG@positiveInteger@		; `string'
PUBLIC	??_C@_0BB@HPFKIGKN@normalizedString@		; `string'
PUBLIC	??_C@_05JMKJMOPH@token@				; `string'
PUBLIC	??_C@_08JGCCIMAA@language@			; `string'
PUBLIC	??_C@_04FABLJDN@Name@				; `string'
PUBLIC	??_C@_07JKBEJDBF@NMTOKEN@			; `string'
PUBLIC	??_C@_06MDLHOHLI@NCName@			; `string'
PUBLIC	??_C@_02OLOABKKD@ID@				; `string'
PUBLIC	??_C@_05HKGPJLPA@IDREF@				; `string'
PUBLIC	??_C@_06GKLBAPIO@ENTITY@			; `string'
PUBLIC	??_C@_08ICGBNEMG@ENTITIES@			; `string'
PUBLIC	??_C@_06CMFBJDBA@IDREFS@			; `string'
PUBLIC	??_C@_08PMNBPOOP@NMTOKENS@			; `string'
PUBLIC	??_C@_00CNPNBAHC@@				; `string'
PUBLIC	??_C@_02NJPGOMH@?$CFf@				; `string'
PUBLIC	??_C@_03DLDNIBIK@?$CFlf@			; `string'
PUBLIC	??_C@_0HB@FHPILMCP@c?3?2users?2dag?2documents?2_clients@ ; `string'
PUBLIC	??_C@_0BO@MDEMDPPE@Unimplemented?5block?5at?5?$CFs?3?$CFd?6@ ; `string'
PUBLIC	??_C@_0BH@DMAOOAAN@allocating?5hexbin?5data@	; `string'
PUBLIC	??_C@_0BH@PBMCLKED@allocating?5base64?5data@	; `string'
PUBLIC	??_C@_01HCONENDN@?$HL@				; `string'
PUBLIC	??_C@_01CELHOKLL@?$HN@				; `string'
PUBLIC	??_C@_03MDAFIFFL@0?40@				; `string'
PUBLIC	??_C@_09LMAOOEAH@?$CFlu?$CFlu?$CFlu@		; `string'
PUBLIC	??_C@_06DFHLHGNP@?$CFlu?$CFlu@			; `string'
PUBLIC	??_C@_03FKNCMABI@?$CFlu@			; `string'
PUBLIC	??_C@_01GBGANLPD@0@				; `string'
PUBLIC	??_C@_0L@HJALPPEN@?9?$CFlu?$CFlu?$CFlu@		; `string'
PUBLIC	??_C@_07KPEGABEP@?9?$CFlu?$CFlu@		; `string'
PUBLIC	??_C@_04IEOFADKM@?9?$CFlu@			; `string'
PUBLIC	??_C@_04LOAJBDKD@true@				; `string'
PUBLIC	??_C@_05LAPONLG@false@				; `string'
PUBLIC	??_C@_0BN@KBIIDNPF@P?$CFluY?$CFluM?$CFluDT?$CFluH?$CFluM?$CF?414gS@ ; `string'
PUBLIC	??_C@_0BO@LOJFMPEL@?9P?$CFluY?$CFluM?$CFluDT?$CFluH?$CFluM?$CF?414gS@ ; `string'
PUBLIC	??_C@_05IHGIIBEO@?$CF04ld@			; `string'
PUBLIC	??_C@_06PLGGIKKN@?9?9?$CF02u@			; `string'
PUBLIC	??_C@_07GBFLPNDN@?9?9?9?$CF02u@			; `string'
PUBLIC	??_C@_0M@IGNOHAOM@?9?9?$CF02u?9?$CF02u@		; `string'
PUBLIC	??_C@_0M@CBHDPMIH@?9?$CF04ld?9?$CF02u@		; `string'
PUBLIC	??_C@_0L@LHLPFBBC@?$CF04ld?9?$CF02u@		; `string'
PUBLIC	??_C@_0BD@EKHIMNMI@?$CF02u?3?$CF02u?3?$CF02?414gZ@ ; `string'
PUBLIC	??_C@_0BC@CMNGDBIO@?$CF02u?3?$CF02u?3?$CF02?414g@ ; `string'
PUBLIC	??_C@_0BB@EPCAOJB@?$CF04ld?3?$CF02u?3?$CF02uZ@	; `string'
PUBLIC	??_C@_0BA@KCJGDMGM@?$CF04ld?3?$CF02u?3?$CF02u@	; `string'
PUBLIC	??_C@_0CD@NGIOFKDM@?$CF04ld?3?$CF02u?3?$CF02uT?$CF02u?3?$CF02u?3?$CF02?41@ ; `string'
PUBLIC	??_C@_0CC@NDEHGMEK@?$CF04ld?3?$CF02u?3?$CF02uT?$CF02u?3?$CF02u?3?$CF02?41@ ; `string'
PUBLIC	??_C@_07EBIAOBPB@?$CF01?414e@			; `string'
PUBLIC	??_C@_03BBKEAIF@?$DP?$DP?$DP@			; `string'
PUBLIC	__real@0000000000000000
PUBLIC	__real@3ff0000000000000
PUBLIC	__real@4024000000000000
PUBLIC	__real@4028000000000000
PUBLIC	__real@4038000000000000
PUBLIC	__real@404e000000000000
PUBLIC	__real@40ac200000000000
PUBLIC	__real@40e89c0000000000
PUBLIC	__real@40f5180000000000
PUBLIC	__real@c0e89c0000000000
PUBLIC	__xmm@41f00000000000000000000000000000
PUBLIC	__xmm@7fffffffffffffff7fffffffffffffff
PUBLIC	__xmm@80000000000000008000000000000000
EXTRN	_xmlStrdup:PROC
EXTRN	_xmlStrndup:PROC
EXTRN	_xmlStrcmp:PROC
EXTRN	_xmlStrEqual:PROC
EXTRN	_xmlStrcat:PROC
EXTRN	_xmlUTF8Strlen:PROC
EXTRN	__imp____stdio_common_vsprintf:PROC
EXTRN	__imp____stdio_common_vsscanf:PROC
EXTRN	_xmlRegexpExec:PROC
EXTRN	_xmlValidateNCName:PROC
EXTRN	_xmlValidateQName:PROC
EXTRN	_xmlValidateName:PROC
EXTRN	_xmlValidateNMToken:PROC
EXTRN	_xmlSplitQName2:PROC
EXTRN	_xmlSearchNs:PROC
EXTRN	_xmlHashCreate:PROC
EXTRN	_xmlHashFree:PROC
EXTRN	_xmlHashAddEntry2:PROC
EXTRN	_xmlHashLookup2:PROC
EXTRN	___xmlSimpleError:PROC
EXTRN	_xmlAddID:PROC
EXTRN	_xmlAddRef:PROC
EXTRN	_xmlValidateNotationUse:PROC
EXTRN	_xmlGetDocEntity:PROC
EXTRN	___xmlGenericError:PROC
EXTRN	___xmlGenericErrorContext:PROC
EXTRN	_xmlCheckLanguageID:PROC
EXTRN	_xmlXPathIsNaN:PROC
EXTRN	_xmlParseURI:PROC
EXTRN	_xmlFreeURI:PROC
EXTRN	_xmlSchemaFreeType:PROC
EXTRN	_xmlSchemaFreeWildcard:PROC
EXTRN	_xmlSchemaNewFacet:PROC
EXTRN	@_RTC_CheckStackVars@8:PROC
EXTRN	@__CheckForDebuggerJustMyCode@4:PROC
EXTRN	__RTC_CheckEsp:PROC
EXTRN	__RTC_InitBase:PROC
EXTRN	__RTC_Shutdown:PROC
EXTRN	__dtoui3:PROC
EXTRN	__ftol2_sse_excpt:PROC
EXTRN	_floor:PROC
EXTRN	_memmove:PROC
EXTRN	_memset:PROC
EXTRN	__fltused:DWORD
_DATA	SEGMENT
COMM	?_OptionsStorage@?1??__local_stdio_printf_options@@9@9:QWORD							; `__local_stdio_printf_options'::`2'::_OptionsStorage
COMM	?_OptionsStorage@?1??__local_stdio_scanf_options@@9@9:QWORD							; `__local_stdio_scanf_options'::`2'::_OptionsStorage
_DATA	ENDS
_BSS	SEGMENT
_xmlSchemaTypesInitialized DD 01H DUP (?)
_xmlSchemaTypesBank DD 01H DUP (?)
_xmlSchemaTypeStringDef DD 01H DUP (?)
_xmlSchemaTypeAnyTypeDef DD 01H DUP (?)
_xmlSchemaTypeAnySimpleTypeDef DD 01H DUP (?)
_xmlSchemaTypeDecimalDef DD 01H DUP (?)
_xmlSchemaTypeDatetimeDef DD 01H DUP (?)
_xmlSchemaTypeDateDef DD 01H DUP (?)
_xmlSchemaTypeTimeDef DD 01H DUP (?)
_xmlSchemaTypeGYearDef DD 01H DUP (?)
_xmlSchemaTypeGYearMonthDef DD 01H DUP (?)
_xmlSchemaTypeGDayDef DD 01H DUP (?)
_xmlSchemaTypeGMonthDayDef DD 01H DUP (?)
_xmlSchemaTypeGMonthDef DD 01H DUP (?)
_xmlSchemaTypeDurationDef DD 01H DUP (?)
_xmlSchemaTypeFloatDef DD 01H DUP (?)
_xmlSchemaTypeBooleanDef DD 01H DUP (?)
_xmlSchemaTypeDoubleDef DD 01H DUP (?)
_xmlSchemaTypeHexBinaryDef DD 01H DUP (?)
_xmlSchemaTypeBase64BinaryDef DD 01H DUP (?)
_xmlSchemaTypeAnyURIDef DD 01H DUP (?)
_xmlSchemaTypePositiveIntegerDef DD 01H DUP (?)
_xmlSchemaTypeNonPositiveIntegerDef DD 01H DUP (?)
_xmlSchemaTypeNegativeIntegerDef DD 01H DUP (?)
_xmlSchemaTypeNonNegativeIntegerDef DD 01H DUP (?)
_xmlSchemaTypeIntegerDef DD 01H DUP (?)
_xmlSchemaTypeLongDef DD 01H DUP (?)
_xmlSchemaTypeIntDef DD 01H DUP (?)
_xmlSchemaTypeShortDef DD 01H DUP (?)
_xmlSchemaTypeByteDef DD 01H DUP (?)
_xmlSchemaTypeUnsignedLongDef DD 01H DUP (?)
_xmlSchemaTypeUnsignedIntDef DD 01H DUP (?)
_xmlSchemaTypeUnsignedShortDef DD 01H DUP (?)
_xmlSchemaTypeUnsignedByteDef DD 01H DUP (?)
_xmlSchemaTypeNormStringDef DD 01H DUP (?)
_xmlSchemaTypeTokenDef DD 01H DUP (?)
_xmlSchemaTypeLanguageDef DD 01H DUP (?)
_xmlSchemaTypeNameDef DD 01H DUP (?)
_xmlSchemaTypeQNameDef DD 01H DUP (?)
_xmlSchemaTypeNCNameDef DD 01H DUP (?)
_xmlSchemaTypeIdDef DD 01H DUP (?)
_xmlSchemaTypeIdrefDef DD 01H DUP (?)
_xmlSchemaTypeIdrefsDef DD 01H DUP (?)
_xmlSchemaTypeEntityDef DD 01H DUP (?)
_xmlSchemaTypeEntitiesDef DD 01H DUP (?)
_xmlSchemaTypeNotationDef DD 01H DUP (?)
_xmlSchemaTypeNmtokenDef DD 01H DUP (?)
_xmlSchemaTypeNmtokensDef DD 01H DUP (?)
_BSS	ENDS
;	COMDAT __xmm@80000000000000008000000000000000
CONST	SEGMENT
__xmm@80000000000000008000000000000000 DB 00H, 00H, 00H, 00H, 00H, 00H, 00H
	DB	080H, 00H, 00H, 00H, 00H, 00H, 00H, 00H, 080H
CONST	ENDS
;	COMDAT __xmm@7fffffffffffffff7fffffffffffffff
CONST	SEGMENT
__xmm@7fffffffffffffff7fffffffffffffff DB 0ffH, 0ffH, 0ffH, 0ffH, 0ffH, 0ffH
	DB	0ffH, 07fH, 0ffH, 0ffH, 0ffH, 0ffH, 0ffH, 0ffH, 0ffH, 07fH
CONST	ENDS
;	COMDAT __xmm@41f00000000000000000000000000000
CONST	SEGMENT
__xmm@41f00000000000000000000000000000 DB 00H, 00H, 00H, 00H, 00H, 00H, 00H
	DB	00H, 00H, 00H, 00H, 00H, 00H, 00H, 0f0H, 'A'
CONST	ENDS
;	COMDAT __real@c0e89c0000000000
CONST	SEGMENT
__real@c0e89c0000000000 DQ 0c0e89c0000000000r	; -50400
CONST	ENDS
;	COMDAT __real@40f5180000000000
CONST	SEGMENT
__real@40f5180000000000 DQ 040f5180000000000r	; 86400
CONST	ENDS
;	COMDAT __real@40e89c0000000000
CONST	SEGMENT
__real@40e89c0000000000 DQ 040e89c0000000000r	; 50400
CONST	ENDS
;	COMDAT __real@40ac200000000000
CONST	SEGMENT
__real@40ac200000000000 DQ 040ac200000000000r	; 3600
CONST	ENDS
;	COMDAT __real@404e000000000000
CONST	SEGMENT
__real@404e000000000000 DQ 0404e000000000000r	; 60
CONST	ENDS
;	COMDAT __real@4038000000000000
CONST	SEGMENT
__real@4038000000000000 DQ 04038000000000000r	; 24
CONST	ENDS
;	COMDAT __real@4028000000000000
CONST	SEGMENT
__real@4028000000000000 DQ 04028000000000000r	; 12
CONST	ENDS
;	COMDAT __real@4024000000000000
CONST	SEGMENT
__real@4024000000000000 DQ 04024000000000000r	; 10
CONST	ENDS
;	COMDAT __real@3ff0000000000000
CONST	SEGMENT
__real@3ff0000000000000 DQ 03ff0000000000000r	; 1
CONST	ENDS
;	COMDAT __real@0000000000000000
CONST	SEGMENT
__real@0000000000000000 DQ 00000000000000000r	; 0
CONST	ENDS
;	COMDAT rtc$TMZ
rtc$TMZ	SEGMENT
__RTC_Shutdown.rtc$TMZ DD FLAT:__RTC_Shutdown
rtc$TMZ	ENDS
;	COMDAT rtc$IMZ
rtc$IMZ	SEGMENT
__RTC_InitBase.rtc$IMZ DD FLAT:__RTC_InitBase
rtc$IMZ	ENDS
;	COMDAT ??_C@_03BBKEAIF@?$DP?$DP?$DP@
CONST	SEGMENT
??_C@_03BBKEAIF@?$DP?$DP?$DP@ DB '???', 00H		; `string'
CONST	ENDS
;	COMDAT ??_C@_07EBIAOBPB@?$CF01?414e@
CONST	SEGMENT
??_C@_07EBIAOBPB@?$CF01?414e@ DB '%01.14e', 00H		; `string'
CONST	ENDS
;	COMDAT ??_C@_0CC@NDEHGMEK@?$CF04ld?3?$CF02u?3?$CF02uT?$CF02u?3?$CF02u?3?$CF02?41@
CONST	SEGMENT
??_C@_0CC@NDEHGMEK@?$CF04ld?3?$CF02u?3?$CF02uT?$CF02u?3?$CF02u?3?$CF02?41@ DB '%'
	DB	'04ld:%02u:%02uT%02u:%02u:%02.14g', 00H	; `string'
CONST	ENDS
;	COMDAT ??_C@_0CD@NGIOFKDM@?$CF04ld?3?$CF02u?3?$CF02uT?$CF02u?3?$CF02u?3?$CF02?41@
CONST	SEGMENT
??_C@_0CD@NGIOFKDM@?$CF04ld?3?$CF02u?3?$CF02uT?$CF02u?3?$CF02u?3?$CF02?41@ DB '%'
	DB	'04ld:%02u:%02uT%02u:%02u:%02.14gZ', 00H	; `string'
CONST	ENDS
;	COMDAT ??_C@_0BA@KCJGDMGM@?$CF04ld?3?$CF02u?3?$CF02u@
CONST	SEGMENT
??_C@_0BA@KCJGDMGM@?$CF04ld?3?$CF02u?3?$CF02u@ DB '%04ld:%02u:%02u', 00H ; `string'
CONST	ENDS
;	COMDAT ??_C@_0BB@EPCAOJB@?$CF04ld?3?$CF02u?3?$CF02uZ@
CONST	SEGMENT
??_C@_0BB@EPCAOJB@?$CF04ld?3?$CF02u?3?$CF02uZ@ DB '%04ld:%02u:%02uZ', 00H ; `string'
CONST	ENDS
;	COMDAT ??_C@_0BC@CMNGDBIO@?$CF02u?3?$CF02u?3?$CF02?414g@
CONST	SEGMENT
??_C@_0BC@CMNGDBIO@?$CF02u?3?$CF02u?3?$CF02?414g@ DB '%02u:%02u:%02.14g', 00H ; `string'
CONST	ENDS
;	COMDAT ??_C@_0BD@EKHIMNMI@?$CF02u?3?$CF02u?3?$CF02?414gZ@
CONST	SEGMENT
??_C@_0BD@EKHIMNMI@?$CF02u?3?$CF02u?3?$CF02?414gZ@ DB '%02u:%02u:%02.14gZ'
	DB	00H						; `string'
CONST	ENDS
;	COMDAT ??_C@_0L@LHLPFBBC@?$CF04ld?9?$CF02u@
CONST	SEGMENT
??_C@_0L@LHLPFBBC@?$CF04ld?9?$CF02u@ DB '%04ld-%02u', 00H ; `string'
CONST	ENDS
;	COMDAT ??_C@_0M@CBHDPMIH@?9?$CF04ld?9?$CF02u@
CONST	SEGMENT
??_C@_0M@CBHDPMIH@?9?$CF04ld?9?$CF02u@ DB '-%04ld-%02u', 00H ; `string'
CONST	ENDS
;	COMDAT ??_C@_0M@IGNOHAOM@?9?9?$CF02u?9?$CF02u@
CONST	SEGMENT
??_C@_0M@IGNOHAOM@?9?9?$CF02u?9?$CF02u@ DB '--%02u-%02u', 00H ; `string'
CONST	ENDS
;	COMDAT ??_C@_07GBFLPNDN@?9?9?9?$CF02u@
CONST	SEGMENT
??_C@_07GBFLPNDN@?9?9?9?$CF02u@ DB '---%02u', 00H	; `string'
CONST	ENDS
;	COMDAT ??_C@_06PLGGIKKN@?9?9?$CF02u@
CONST	SEGMENT
??_C@_06PLGGIKKN@?9?9?$CF02u@ DB '--%02u', 00H		; `string'
CONST	ENDS
;	COMDAT ??_C@_05IHGIIBEO@?$CF04ld@
CONST	SEGMENT
??_C@_05IHGIIBEO@?$CF04ld@ DB '%04ld', 00H		; `string'
CONST	ENDS
;	COMDAT ??_C@_0BO@LOJFMPEL@?9P?$CFluY?$CFluM?$CFluDT?$CFluH?$CFluM?$CF?414gS@
CONST	SEGMENT
??_C@_0BO@LOJFMPEL@?9P?$CFluY?$CFluM?$CFluDT?$CFluH?$CFluM?$CF?414gS@ DB '-'
	DB	'P%luY%luM%luDT%luH%luM%.14gS', 00H		; `string'
CONST	ENDS
;	COMDAT ??_C@_0BN@KBIIDNPF@P?$CFluY?$CFluM?$CFluDT?$CFluH?$CFluM?$CF?414gS@
CONST	SEGMENT
??_C@_0BN@KBIIDNPF@P?$CFluY?$CFluM?$CFluDT?$CFluH?$CFluM?$CF?414gS@ DB 'P'
	DB	'%luY%luM%luDT%luH%luM%.14gS', 00H		; `string'
CONST	ENDS
;	COMDAT ??_C@_05LAPONLG@false@
CONST	SEGMENT
??_C@_05LAPONLG@false@ DB 'false', 00H			; `string'
CONST	ENDS
;	COMDAT ??_C@_04LOAJBDKD@true@
CONST	SEGMENT
??_C@_04LOAJBDKD@true@ DB 'true', 00H			; `string'
CONST	ENDS
;	COMDAT ??_C@_04IEOFADKM@?9?$CFlu@
CONST	SEGMENT
??_C@_04IEOFADKM@?9?$CFlu@ DB '-%lu', 00H		; `string'
CONST	ENDS
;	COMDAT ??_C@_07KPEGABEP@?9?$CFlu?$CFlu@
CONST	SEGMENT
??_C@_07KPEGABEP@?9?$CFlu?$CFlu@ DB '-%lu%lu', 00H	; `string'
CONST	ENDS
;	COMDAT ??_C@_0L@HJALPPEN@?9?$CFlu?$CFlu?$CFlu@
CONST	SEGMENT
??_C@_0L@HJALPPEN@?9?$CFlu?$CFlu?$CFlu@ DB '-%lu%lu%lu', 00H ; `string'
CONST	ENDS
;	COMDAT ??_C@_01GBGANLPD@0@
CONST	SEGMENT
??_C@_01GBGANLPD@0@ DB '0', 00H				; `string'
CONST	ENDS
;	COMDAT ??_C@_03FKNCMABI@?$CFlu@
CONST	SEGMENT
??_C@_03FKNCMABI@?$CFlu@ DB '%lu', 00H			; `string'
CONST	ENDS
;	COMDAT ??_C@_06DFHLHGNP@?$CFlu?$CFlu@
CONST	SEGMENT
??_C@_06DFHLHGNP@?$CFlu?$CFlu@ DB '%lu%lu', 00H		; `string'
CONST	ENDS
;	COMDAT ??_C@_09LMAOOEAH@?$CFlu?$CFlu?$CFlu@
CONST	SEGMENT
??_C@_09LMAOOEAH@?$CFlu?$CFlu?$CFlu@ DB '%lu%lu%lu', 00H ; `string'
CONST	ENDS
;	COMDAT ??_C@_03MDAFIFFL@0?40@
CONST	SEGMENT
??_C@_03MDAFIFFL@0?40@ DB '0.0', 00H			; `string'
CONST	ENDS
;	COMDAT ??_C@_01CELHOKLL@?$HN@
CONST	SEGMENT
??_C@_01CELHOKLL@?$HN@ DB '}', 00H			; `string'
CONST	ENDS
;	COMDAT ??_C@_01HCONENDN@?$HL@
CONST	SEGMENT
??_C@_01HCONENDN@?$HL@ DB '{', 00H			; `string'
CONST	ENDS
;	COMDAT ??_C@_0BH@PBMCLKED@allocating?5base64?5data@
CONST	SEGMENT
??_C@_0BH@PBMCLKED@allocating?5base64?5data@ DB 'allocating base64 data', 00H ; `string'
CONST	ENDS
;	COMDAT ??_C@_0BH@DMAOOAAN@allocating?5hexbin?5data@
CONST	SEGMENT
??_C@_0BH@DMAOOAAN@allocating?5hexbin?5data@ DB 'allocating hexbin data', 00H ; `string'
CONST	ENDS
;	COMDAT ??_C@_0BO@MDEMDPPE@Unimplemented?5block?5at?5?$CFs?3?$CFd?6@
CONST	SEGMENT
??_C@_0BO@MDEMDPPE@Unimplemented?5block?5at?5?$CFs?3?$CFd?6@ DB 'Unimplem'
	DB	'ented block at %s:%d', 0aH, 00H		; `string'
CONST	ENDS
;	COMDAT ??_C@_0HB@FHPILMCP@c?3?2users?2dag?2documents?2_clients@
CONST	SEGMENT
??_C@_0HB@FHPILMCP@c?3?2users?2dag?2documents?2_clients@ DB 'c:\users\dag'
	DB	'\documents\_clients\codeproject authors group\windows on arm\'
	DB	'libxml2\libxml2-2.9.9\xmlschemastypes.c', 00H ; `string'
CONST	ENDS
;	COMDAT ??_C@_03DLDNIBIK@?$CFlf@
CONST	SEGMENT
??_C@_03DLDNIBIK@?$CFlf@ DB '%lf', 00H			; `string'
CONST	ENDS
;	COMDAT ??_C@_02NJPGOMH@?$CFf@
CONST	SEGMENT
??_C@_02NJPGOMH@?$CFf@ DB '%f', 00H			; `string'
CONST	ENDS
;	COMDAT ??_C@_00CNPNBAHC@@
CONST	SEGMENT
??_C@_00CNPNBAHC@@ DB 00H				; `string'
CONST	ENDS
;	COMDAT ??_C@_08PMNBPOOP@NMTOKENS@
CONST	SEGMENT
??_C@_08PMNBPOOP@NMTOKENS@ DB 'NMTOKENS', 00H		; `string'
CONST	ENDS
;	COMDAT ??_C@_06CMFBJDBA@IDREFS@
CONST	SEGMENT
??_C@_06CMFBJDBA@IDREFS@ DB 'IDREFS', 00H		; `string'
CONST	ENDS
;	COMDAT ??_C@_08ICGBNEMG@ENTITIES@
CONST	SEGMENT
??_C@_08ICGBNEMG@ENTITIES@ DB 'ENTITIES', 00H		; `string'
CONST	ENDS
;	COMDAT ??_C@_06GKLBAPIO@ENTITY@
CONST	SEGMENT
??_C@_06GKLBAPIO@ENTITY@ DB 'ENTITY', 00H		; `string'
CONST	ENDS
;	COMDAT ??_C@_05HKGPJLPA@IDREF@
CONST	SEGMENT
??_C@_05HKGPJLPA@IDREF@ DB 'IDREF', 00H			; `string'
CONST	ENDS
;	COMDAT ??_C@_02OLOABKKD@ID@
CONST	SEGMENT
??_C@_02OLOABKKD@ID@ DB 'ID', 00H			; `string'
CONST	ENDS
;	COMDAT ??_C@_06MDLHOHLI@NCName@
CONST	SEGMENT
??_C@_06MDLHOHLI@NCName@ DB 'NCName', 00H		; `string'
CONST	ENDS
;	COMDAT ??_C@_07JKBEJDBF@NMTOKEN@
CONST	SEGMENT
??_C@_07JKBEJDBF@NMTOKEN@ DB 'NMTOKEN', 00H		; `string'
CONST	ENDS
;	COMDAT ??_C@_04FABLJDN@Name@
CONST	SEGMENT
??_C@_04FABLJDN@Name@ DB 'Name', 00H			; `string'
CONST	ENDS
;	COMDAT ??_C@_08JGCCIMAA@language@
CONST	SEGMENT
??_C@_08JGCCIMAA@language@ DB 'language', 00H		; `string'
CONST	ENDS
;	COMDAT ??_C@_05JMKJMOPH@token@
CONST	SEGMENT
??_C@_05JMKJMOPH@token@ DB 'token', 00H			; `string'
CONST	ENDS
;	COMDAT ??_C@_0BB@HPFKIGKN@normalizedString@
CONST	SEGMENT
??_C@_0BB@HPFKIGKN@normalizedString@ DB 'normalizedString', 00H ; `string'
CONST	ENDS
;	COMDAT ??_C@_0BA@PNFEGAHG@positiveInteger@
CONST	SEGMENT
??_C@_0BA@PNFEGAHG@positiveInteger@ DB 'positiveInteger', 00H ; `string'
CONST	ENDS
;	COMDAT ??_C@_0N@BEPPBJAP@unsignedByte@
CONST	SEGMENT
??_C@_0N@BEPPBJAP@unsignedByte@ DB 'unsignedByte', 00H	; `string'
CONST	ENDS
;	COMDAT ??_C@_0O@NAIDFEBN@unsignedShort@
CONST	SEGMENT
??_C@_0O@NAIDFEBN@unsignedShort@ DB 'unsignedShort', 00H ; `string'
CONST	ENDS
;	COMDAT ??_C@_0M@NPFOHDP@unsignedInt@
CONST	SEGMENT
??_C@_0M@NPFOHDP@unsignedInt@ DB 'unsignedInt', 00H	; `string'
CONST	ENDS
;	COMDAT ??_C@_0N@PNDKOLAJ@unsignedLong@
CONST	SEGMENT
??_C@_0N@PNDKOLAJ@unsignedLong@ DB 'unsignedLong', 00H	; `string'
CONST	ENDS
;	COMDAT ??_C@_0BD@IEOLADAC@nonNegativeInteger@
CONST	SEGMENT
??_C@_0BD@IEOLADAC@nonNegativeInteger@ DB 'nonNegativeInteger', 00H ; `string'
CONST	ENDS
;	COMDAT ??_C@_04IHGKJMLH@byte@
CONST	SEGMENT
??_C@_04IHGKJMLH@byte@ DB 'byte', 00H			; `string'
CONST	ENDS
;	COMDAT ??_C@_05BFKKPKCG@short@
CONST	SEGMENT
??_C@_05BFKKPKCG@short@ DB 'short', 00H			; `string'
CONST	ENDS
;	COMDAT ??_C@_03JBIPMCLC@int@
CONST	SEGMENT
??_C@_03JBIPMCLC@int@ DB 'int', 00H			; `string'
CONST	ENDS
;	COMDAT ??_C@_04GOKPGOLB@long@
CONST	SEGMENT
??_C@_04GOKPGOLB@long@ DB 'long', 00H			; `string'
CONST	ENDS
;	COMDAT ??_C@_0BA@HJODLFEP@negativeInteger@
CONST	SEGMENT
??_C@_0BA@HJODLFEP@negativeInteger@ DB 'negativeInteger', 00H ; `string'
CONST	ENDS
;	COMDAT ??_C@_0BD@FMNGDL@nonPositiveInteger@
CONST	SEGMENT
??_C@_0BD@FMNGDL@nonPositiveInteger@ DB 'nonPositiveInteger', 00H ; `string'
CONST	ENDS
;	COMDAT ??_C@_07LKHFMGFB@integer@
CONST	SEGMENT
??_C@_07LKHFMGFB@integer@ DB 'integer', 00H		; `string'
CONST	ENDS
;	COMDAT ??_C@_05LFDDDENB@QName@
CONST	SEGMENT
??_C@_05LFDDDENB@QName@ DB 'QName', 00H			; `string'
CONST	ENDS
;	COMDAT ??_C@_08NCDGCBCC@NOTATION@
CONST	SEGMENT
??_C@_08NCDGCBCC@NOTATION@ DB 'NOTATION', 00H		; `string'
CONST	ENDS
;	COMDAT ??_C@_0N@NBAOPEBP@base64Binary@
CONST	SEGMENT
??_C@_0N@NBAOPEBP@base64Binary@ DB 'base64Binary', 00H	; `string'
CONST	ENDS
;	COMDAT ??_C@_09EHHLIAMK@hexBinary@
CONST	SEGMENT
??_C@_09EHHLIAMK@hexBinary@ DB 'hexBinary', 00H		; `string'
CONST	ENDS
;	COMDAT ??_C@_06DLDOHKEG@anyURI@
CONST	SEGMENT
??_C@_06DLDOHKEG@anyURI@ DB 'anyURI', 00H		; `string'
CONST	ENDS
;	COMDAT ??_C@_07GOBOHMJA@boolean@
CONST	SEGMENT
??_C@_07GOBOHMJA@boolean@ DB 'boolean', 00H		; `string'
CONST	ENDS
;	COMDAT ??_C@_06BNJCAIGJ@double@
CONST	SEGMENT
??_C@_06BNJCAIGJ@double@ DB 'double', 00H		; `string'
CONST	ENDS
;	COMDAT ??_C@_05KNFBNCOH@float@
CONST	SEGMENT
??_C@_05KNFBNCOH@float@ DB 'float', 00H			; `string'
CONST	ENDS
;	COMDAT ??_C@_08LGBPINEC@duration@
CONST	SEGMENT
??_C@_08LGBPINEC@duration@ DB 'duration', 00H		; `string'
CONST	ENDS
;	COMDAT ??_C@_04LBFBAPHN@gDay@
CONST	SEGMENT
??_C@_04LBFBAPHN@gDay@ DB 'gDay', 00H			; `string'
CONST	ENDS
;	COMDAT ??_C@_09EILODGOG@gMonthDay@
CONST	SEGMENT
??_C@_09EILODGOG@gMonthDay@ DB 'gMonthDay', 00H		; `string'
CONST	ENDS
;	COMDAT ??_C@_06KBADAKNH@gMonth@
CONST	SEGMENT
??_C@_06KBADAKNH@gMonth@ DB 'gMonth', 00H		; `string'
CONST	ENDS
;	COMDAT ??_C@_0L@FEFFJNNL@gYearMonth@
CONST	SEGMENT
??_C@_0L@FEFFJNNL@gYearMonth@ DB 'gYearMonth', 00H	; `string'
CONST	ENDS
;	COMDAT ??_C@_05DGCLHBFG@gYear@
CONST	SEGMENT
??_C@_05DGCLHBFG@gYear@ DB 'gYear', 00H			; `string'
CONST	ENDS
;	COMDAT ??_C@_04CLCEDBPF@time@
CONST	SEGMENT
??_C@_04CLCEDBPF@time@ DB 'time', 00H			; `string'
CONST	ENDS
;	COMDAT ??_C@_08JHBOOHBO@dateTime@
CONST	SEGMENT
??_C@_08JHBOOHBO@dateTime@ DB 'dateTime', 00H		; `string'
CONST	ENDS
;	COMDAT ??_C@_04JNIHBGGH@date@
CONST	SEGMENT
??_C@_04JNIHBGGH@date@ DB 'date', 00H			; `string'
CONST	ENDS
;	COMDAT ??_C@_07EEKBCPDP@decimal@
CONST	SEGMENT
??_C@_07EEKBCPDP@decimal@ DB 'decimal', 00H		; `string'
CONST	ENDS
;	COMDAT ??_C@_06ICGJLFIM@string@
CONST	SEGMENT
??_C@_06ICGJLFIM@string@ DB 'string', 00H		; `string'
CONST	ENDS
;	COMDAT ??_C@_0O@DMECCPMH@anySimpleType@
CONST	SEGMENT
??_C@_0O@DMECCPMH@anySimpleType@ DB 'anySimpleType', 00H ; `string'
CONST	ENDS
;	COMDAT ??_C@_0DC@HFHHKPAL@could?5not?5create?5an?5attribute?5w@
CONST	SEGMENT
??_C@_0DC@HFHHKPAL@could?5not?5create?5an?5attribute?5w@ DB 'could not cr'
	DB	'eate an attribute wildcard on anyType', 00H	; `string'
CONST	ENDS
;	COMDAT ??_C@_0BO@DGENAAFP@allocating?5wildcard?5component@
CONST	SEGMENT
??_C@_0BO@DGENAAFP@allocating?5wildcard?5component@ DB 'allocating wildca'
	DB	'rd component', 00H				; `string'
CONST	ENDS
;	COMDAT ??_C@_0CB@MIJFJDPK@allocating?5model?5group?5componen@
CONST	SEGMENT
??_C@_0CB@MIJFJDPK@allocating?5model?5group?5componen@ DB 'allocating mod'
	DB	'el group component', 00H			; `string'
CONST	ENDS
;	COMDAT ??_C@_07OGOHJKKN@anyType@
CONST	SEGMENT
??_C@_07OGOHJKKN@anyType@ DB 'anyType', 00H		; `string'
CONST	ENDS
;	COMDAT ??_C@_0BO@IIFFCFND@allocating?5particle?5component@
CONST	SEGMENT
??_C@_0BO@IIFFCFND@allocating?5particle?5component@ DB 'allocating partic'
	DB	'le component', 00H				; `string'
CONST	ENDS
;	COMDAT ??_C@_0CB@PJCCKICC@http?3?1?1www?4w3?4org?12001?1XMLSchem@
CONST	SEGMENT
??_C@_0CB@PJCCKICC@http?3?1?1www?4w3?4org?12001?1XMLSchem@ DB 'http://www'
	DB	'.w3.org/2001/XMLSchema', 00H		; `string'
CONST	ENDS
;	COMDAT ??_C@_0CB@OFGABCMP@could?5not?5initialize?5basic?5type@
CONST	SEGMENT
??_C@_0CB@OFGABCMP@could?5not?5initialize?5basic?5type@ DB 'could not ini'
	DB	'tialize basic types', 00H			; `string'
CONST	ENDS
; Function compile flags: /Odt
;	COMDAT __JustMyCode_Default
_TEXT	SEGMENT
__JustMyCode_Default PROC				; COMDAT
	push	ebp
	mov	ebp, esp
	pop	ebp
	ret	0
__JustMyCode_Default ENDP
_TEXT	ENDS
; Function compile flags: /Odtp /RTCsu
; File c:\users\dag\documents\_clients\codeproject authors group\windows on arm\libxml2\libxml2-2.9.9\xmlschemastypes.c
;	COMDAT _xmlSchemaValidateFacetInternal
_TEXT	SEGMENT
tv195 = -28						; size = 4
tv83 = -24						; size = 4
tv77 = -20						; size = 4
tv66 = -16						; size = 4
_len$1 = -12						; size = 4
_stringType$ = -8					; size = 4
_ret$ = -4						; size = 4
_facet$ = 8						; size = 4
_fws$ = 12						; size = 4
_valType$ = 16						; size = 4
_value$ = 20						; size = 4
_val$ = 24						; size = 4
_ws$ = 28						; size = 4
_xmlSchemaValidateFacetInternal PROC			; COMDAT

; 5318 : {

	push	ebp
	mov	ebp, esp
	sub	esp, 28					; 0000001cH
	push	esi
	mov	eax, -858993460				; ccccccccH
	mov	DWORD PTR [ebp-28], eax
	mov	DWORD PTR [ebp-24], eax
	mov	DWORD PTR [ebp-20], eax
	mov	DWORD PTR [ebp-16], eax
	mov	DWORD PTR [ebp-12], eax
	mov	DWORD PTR [ebp-8], eax
	mov	DWORD PTR [ebp-4], eax
	mov	ecx, OFFSET __74485836_xmlschemastypes@c
	call	@__CheckForDebuggerJustMyCode@4

; 5319 :     int ret;
; 5320 :     int stringType;
; 5321 : 
; 5322 :     if (facet == NULL)

	cmp	DWORD PTR _facet$[ebp], 0
	jne	SHORT $LN6@xmlSchemaV

; 5323 : 	return(-1);

	or	eax, -1
	jmp	$LN1@xmlSchemaV
$LN6@xmlSchemaV:

; 5324 : 
; 5325 :     switch (facet->type) {

	mov	eax, DWORD PTR _facet$[ebp]
	mov	ecx, DWORD PTR [eax]
	mov	DWORD PTR tv66[ebp], ecx
	mov	edx, DWORD PTR tv66[ebp]
	sub	edx, 1000				; 000003e8H
	mov	DWORD PTR tv66[ebp], edx
	cmp	DWORD PTR tv66[ebp], 11			; 0000000bH
	ja	$LN74@xmlSchemaV
	mov	eax, DWORD PTR tv66[ebp]
	jmp	DWORD PTR $LN84@xmlSchemaV[eax*4]
$LN7@xmlSchemaV:

; 5326 : 	case XML_SCHEMA_FACET_PATTERN:
; 5327 : 	    /*
; 5328 : 	    * NOTE that for patterns, the @value needs to be the normalized
; 5329 : 	    * value, *not* the lexical initial value or the canonical value.
; 5330 : 	    */
; 5331 : 	    if (value == NULL)

	cmp	DWORD PTR _value$[ebp], 0
	jne	SHORT $LN8@xmlSchemaV

; 5332 : 		return(-1);

	or	eax, -1
	jmp	$LN1@xmlSchemaV
$LN8@xmlSchemaV:

; 5333 : 	    /*
; 5334 : 	    * If string-derived type, regexp must be tested on the value space of
; 5335 : 	    * the datatype.
; 5336 : 	    * See https://www.w3.org/TR/xmlschema-2/#rf-pattern
; 5337 : 	    */
; 5338 : 	    stringType = val && ((val->type >= XML_SCHEMAS_STRING && val->type <= XML_SCHEMAS_NORMSTRING)

	cmp	DWORD PTR _val$[ebp], 0
	je	SHORT $LN77@xmlSchemaV
	mov	ecx, DWORD PTR _val$[ebp]
	cmp	DWORD PTR [ecx], 1
	jl	SHORT $LN76@xmlSchemaV
	mov	edx, DWORD PTR _val$[ebp]
	cmp	DWORD PTR [edx], 2
	jle	SHORT $LN78@xmlSchemaV
$LN76@xmlSchemaV:
	mov	eax, DWORD PTR _val$[ebp]
	cmp	DWORD PTR [eax], 16			; 00000010H
	jl	SHORT $LN77@xmlSchemaV
	mov	ecx, DWORD PTR _val$[ebp]
	cmp	DWORD PTR [ecx], 22			; 00000016H
	jg	SHORT $LN77@xmlSchemaV
$LN78@xmlSchemaV:
	mov	DWORD PTR tv77[ebp], 1
	jmp	SHORT $LN80@xmlSchemaV
$LN77@xmlSchemaV:
	mov	DWORD PTR tv77[ebp], 0
$LN80@xmlSchemaV:
	mov	edx, DWORD PTR tv77[ebp]
	mov	DWORD PTR _stringType$[ebp], edx

; 5339 : 			      || (val->type >= XML_SCHEMAS_TOKEN && val->type <= XML_SCHEMAS_NCNAME));
; 5340 : 	    ret = xmlRegexpExec(facet->regexp,

	cmp	DWORD PTR _stringType$[ebp], 0
	je	SHORT $LN81@xmlSchemaV
	mov	eax, DWORD PTR _val$[ebp]
	cmp	DWORD PTR [eax+8], 0
	je	SHORT $LN81@xmlSchemaV
	mov	ecx, DWORD PTR _val$[ebp]
	mov	edx, DWORD PTR [ecx+8]
	mov	DWORD PTR tv83[ebp], edx
	jmp	SHORT $LN82@xmlSchemaV
$LN81@xmlSchemaV:
	mov	eax, DWORD PTR _value$[ebp]
	mov	DWORD PTR tv83[ebp], eax
$LN82@xmlSchemaV:
	mov	ecx, DWORD PTR tv83[ebp]
	push	ecx
	mov	edx, DWORD PTR _facet$[ebp]
	mov	eax, DWORD PTR [edx+36]
	push	eax
	call	_xmlRegexpExec
	add	esp, 8
	mov	DWORD PTR _ret$[ebp], eax

; 5341 : 	                        (stringType && val->value.str) ? val->value.str : value);
; 5342 : 	    if (ret == 1)

	cmp	DWORD PTR _ret$[ebp], 1
	jne	SHORT $LN9@xmlSchemaV

; 5343 : 		return(0);

	xor	eax, eax
	jmp	$LN1@xmlSchemaV
$LN9@xmlSchemaV:

; 5344 : 	    if (ret == 0)

	cmp	DWORD PTR _ret$[ebp], 0
	jne	SHORT $LN10@xmlSchemaV

; 5345 : 		return(XML_SCHEMAV_CVC_PATTERN_VALID);

	mov	eax, 1839				; 0000072fH
	jmp	$LN1@xmlSchemaV
$LN10@xmlSchemaV:

; 5346 : 	    return(ret);

	mov	eax, DWORD PTR _ret$[ebp]
	jmp	$LN1@xmlSchemaV
$LN11@xmlSchemaV:

; 5347 : 	case XML_SCHEMA_FACET_MAXEXCLUSIVE:
; 5348 : 	    ret = xmlSchemaCompareValues(val, facet->val);

	mov	ecx, DWORD PTR _facet$[ebp]
	mov	edx, DWORD PTR [ecx+32]
	push	edx
	mov	eax, DWORD PTR _val$[ebp]
	push	eax
	call	_xmlSchemaCompareValues
	add	esp, 8
	mov	DWORD PTR _ret$[ebp], eax

; 5349 : 	    if (ret == -2)

	cmp	DWORD PTR _ret$[ebp], -2		; fffffffeH
	jne	SHORT $LN12@xmlSchemaV

; 5350 : 		return(-1);

	or	eax, -1
	jmp	$LN1@xmlSchemaV
$LN12@xmlSchemaV:

; 5351 : 	    if (ret == -1)

	cmp	DWORD PTR _ret$[ebp], -1
	jne	SHORT $LN13@xmlSchemaV

; 5352 : 		return(0);

	xor	eax, eax
	jmp	$LN1@xmlSchemaV
$LN13@xmlSchemaV:

; 5353 : 	    return(XML_SCHEMAV_CVC_MAXEXCLUSIVE_VALID);

	mov	eax, 1836				; 0000072cH
	jmp	$LN1@xmlSchemaV
$LN14@xmlSchemaV:

; 5354 : 	case XML_SCHEMA_FACET_MAXINCLUSIVE:
; 5355 : 	    ret = xmlSchemaCompareValues(val, facet->val);

	mov	ecx, DWORD PTR _facet$[ebp]
	mov	edx, DWORD PTR [ecx+32]
	push	edx
	mov	eax, DWORD PTR _val$[ebp]
	push	eax
	call	_xmlSchemaCompareValues
	add	esp, 8
	mov	DWORD PTR _ret$[ebp], eax

; 5356 : 	    if (ret == -2)

	cmp	DWORD PTR _ret$[ebp], -2		; fffffffeH
	jne	SHORT $LN15@xmlSchemaV

; 5357 : 		return(-1);

	or	eax, -1
	jmp	$LN1@xmlSchemaV
$LN15@xmlSchemaV:

; 5358 : 	    if ((ret == -1) || (ret == 0))

	cmp	DWORD PTR _ret$[ebp], -1
	je	SHORT $LN17@xmlSchemaV
	cmp	DWORD PTR _ret$[ebp], 0
	jne	SHORT $LN16@xmlSchemaV
$LN17@xmlSchemaV:

; 5359 : 		return(0);

	xor	eax, eax
	jmp	$LN1@xmlSchemaV
$LN16@xmlSchemaV:

; 5360 : 	    return(XML_SCHEMAV_CVC_MAXINCLUSIVE_VALID);

	mov	eax, 1834				; 0000072aH
	jmp	$LN1@xmlSchemaV
$LN18@xmlSchemaV:

; 5361 : 	case XML_SCHEMA_FACET_MINEXCLUSIVE:
; 5362 : 	    ret = xmlSchemaCompareValues(val, facet->val);

	mov	ecx, DWORD PTR _facet$[ebp]
	mov	edx, DWORD PTR [ecx+32]
	push	edx
	mov	eax, DWORD PTR _val$[ebp]
	push	eax
	call	_xmlSchemaCompareValues
	add	esp, 8
	mov	DWORD PTR _ret$[ebp], eax

; 5363 : 	    if (ret == -2)

	cmp	DWORD PTR _ret$[ebp], -2		; fffffffeH
	jne	SHORT $LN19@xmlSchemaV

; 5364 : 		return(-1);

	or	eax, -1
	jmp	$LN1@xmlSchemaV
$LN19@xmlSchemaV:

; 5365 : 	    if (ret == 1)

	cmp	DWORD PTR _ret$[ebp], 1
	jne	SHORT $LN20@xmlSchemaV

; 5366 : 		return(0);

	xor	eax, eax
	jmp	$LN1@xmlSchemaV
$LN20@xmlSchemaV:

; 5367 : 	    return(XML_SCHEMAV_CVC_MINEXCLUSIVE_VALID);

	mov	eax, 1835				; 0000072bH
	jmp	$LN1@xmlSchemaV
$LN21@xmlSchemaV:

; 5368 : 	case XML_SCHEMA_FACET_MININCLUSIVE:
; 5369 : 	    ret = xmlSchemaCompareValues(val, facet->val);

	mov	ecx, DWORD PTR _facet$[ebp]
	mov	edx, DWORD PTR [ecx+32]
	push	edx
	mov	eax, DWORD PTR _val$[ebp]
	push	eax
	call	_xmlSchemaCompareValues
	add	esp, 8
	mov	DWORD PTR _ret$[ebp], eax

; 5370 : 	    if (ret == -2)

	cmp	DWORD PTR _ret$[ebp], -2		; fffffffeH
	jne	SHORT $LN22@xmlSchemaV

; 5371 : 		return(-1);

	or	eax, -1
	jmp	$LN1@xmlSchemaV
$LN22@xmlSchemaV:

; 5372 : 	    if ((ret == 1) || (ret == 0))

	cmp	DWORD PTR _ret$[ebp], 1
	je	SHORT $LN24@xmlSchemaV
	cmp	DWORD PTR _ret$[ebp], 0
	jne	SHORT $LN23@xmlSchemaV
$LN24@xmlSchemaV:

; 5373 : 		return(0);

	xor	eax, eax
	jmp	$LN1@xmlSchemaV
$LN23@xmlSchemaV:

; 5374 : 	    return(XML_SCHEMAV_CVC_MININCLUSIVE_VALID);

	mov	eax, 1833				; 00000729H
	jmp	$LN1@xmlSchemaV
$LN25@xmlSchemaV:

; 5375 : 	case XML_SCHEMA_FACET_WHITESPACE:
; 5376 : 	    /* TODO whitespaces */
; 5377 : 	    /*
; 5378 : 	    * NOTE: Whitespace should be handled to normalize
; 5379 : 	    * the value to be validated against a the facets;
; 5380 : 	    * not to normalize the value in-between.
; 5381 : 	    */
; 5382 : 	    return(0);

	xor	eax, eax
	jmp	$LN1@xmlSchemaV
$LN26@xmlSchemaV:

; 5383 : 	case  XML_SCHEMA_FACET_ENUMERATION:
; 5384 : 	    if (ws == XML_SCHEMA_WHITESPACE_UNKNOWN) {

	cmp	DWORD PTR _ws$[ebp], 0
	jne	SHORT $LN27@xmlSchemaV

; 5385 : 		/*
; 5386 : 		* This is to ensure API compatibility with the old
; 5387 : 		* xmlSchemaValidateFacet().
; 5388 : 		* TODO: Get rid of this case.
; 5389 : 		*/
; 5390 : 		if ((facet->value != NULL) &&

	mov	ecx, DWORD PTR _facet$[ebp]
	cmp	DWORD PTR [ecx+8], 0
	je	SHORT $LN29@xmlSchemaV
	mov	edx, DWORD PTR _value$[ebp]
	push	edx
	mov	eax, DWORD PTR _facet$[ebp]
	mov	ecx, DWORD PTR [eax+8]
	push	ecx
	call	_xmlStrEqual
	add	esp, 8
	test	eax, eax
	je	SHORT $LN29@xmlSchemaV

; 5391 : 		    (xmlStrEqual(facet->value, value)))
; 5392 : 		    return(0);

	xor	eax, eax
	jmp	$LN1@xmlSchemaV
$LN29@xmlSchemaV:

; 5393 : 	    } else {

	jmp	SHORT $LN28@xmlSchemaV
$LN27@xmlSchemaV:

; 5394 : 		ret = xmlSchemaCompareValuesWhtspExt(facet->val->type,

	mov	edx, DWORD PTR _ws$[ebp]
	push	edx
	mov	eax, DWORD PTR _value$[ebp]
	push	eax
	mov	ecx, DWORD PTR _val$[ebp]
	push	ecx
	mov	edx, DWORD PTR _valType$[ebp]
	push	edx
	mov	eax, DWORD PTR _fws$[ebp]
	push	eax
	mov	ecx, DWORD PTR _facet$[ebp]
	mov	edx, DWORD PTR [ecx+8]
	push	edx
	mov	eax, DWORD PTR _facet$[ebp]
	mov	ecx, DWORD PTR [eax+32]
	push	ecx
	mov	edx, DWORD PTR _facet$[ebp]
	mov	eax, DWORD PTR [edx+32]
	mov	ecx, DWORD PTR [eax]
	push	ecx
	call	_xmlSchemaCompareValuesWhtspExt
	add	esp, 32					; 00000020H
	mov	DWORD PTR _ret$[ebp], eax

; 5395 : 		    facet->val, facet->value, fws, valType, val,
; 5396 : 		    value, ws);
; 5397 : 		if (ret == -2)

	cmp	DWORD PTR _ret$[ebp], -2		; fffffffeH
	jne	SHORT $LN30@xmlSchemaV

; 5398 : 		    return(-1);

	or	eax, -1
	jmp	$LN1@xmlSchemaV
$LN30@xmlSchemaV:

; 5399 : 		if (ret == 0)

	cmp	DWORD PTR _ret$[ebp], 0
	jne	SHORT $LN28@xmlSchemaV

; 5400 : 		    return(0);

	xor	eax, eax
	jmp	$LN1@xmlSchemaV
$LN28@xmlSchemaV:

; 5401 : 	    }
; 5402 : 	    return(XML_SCHEMAV_CVC_ENUMERATION_VALID);

	mov	eax, 1840				; 00000730H
	jmp	$LN1@xmlSchemaV
$LN32@xmlSchemaV:

; 5403 : 	case XML_SCHEMA_FACET_LENGTH:
; 5404 : 	    /*
; 5405 : 	    * SPEC (1.3) "if {primitive type definition} is QName or NOTATION,
; 5406 : 	    * then any {value} is facet-valid."
; 5407 : 	    */
; 5408 : 	    if ((valType == XML_SCHEMAS_QNAME) ||

	cmp	DWORD PTR _valType$[ebp], 21		; 00000015H
	je	SHORT $LN34@xmlSchemaV
	cmp	DWORD PTR _valType$[ebp], 28		; 0000001cH
	jne	SHORT $LN35@xmlSchemaV
$LN34@xmlSchemaV:

; 5409 : 		(valType == XML_SCHEMAS_NOTATION))
; 5410 : 		return (0);

	xor	eax, eax
	jmp	$LN1@xmlSchemaV
$LN35@xmlSchemaV:

; 5411 :             /* Falls through. */
; 5412 : 	case XML_SCHEMA_FACET_MAXLENGTH:
; 5413 : 	case XML_SCHEMA_FACET_MINLENGTH: {
; 5414 : 	    unsigned int len = 0;

	mov	DWORD PTR _len$1[ebp], 0

; 5415 : 
; 5416 : 	    if ((valType == XML_SCHEMAS_QNAME) ||

	cmp	DWORD PTR _valType$[ebp], 21		; 00000015H
	je	SHORT $LN37@xmlSchemaV
	cmp	DWORD PTR _valType$[ebp], 28		; 0000001cH
	jne	SHORT $LN36@xmlSchemaV
$LN37@xmlSchemaV:

; 5417 : 		(valType == XML_SCHEMAS_NOTATION))
; 5418 : 		return (0);

	xor	eax, eax
	jmp	$LN1@xmlSchemaV
$LN36@xmlSchemaV:

; 5419 : 	    /*
; 5420 : 	    * TODO: length, maxLength and minLength must be of type
; 5421 : 	    * nonNegativeInteger only. Check if decimal is used somehow.
; 5422 : 	    */
; 5423 : 	    if ((facet->val == NULL) ||
; 5424 : 		((facet->val->type != XML_SCHEMAS_DECIMAL) &&
; 5425 : 		 (facet->val->type != XML_SCHEMAS_NNINTEGER)) ||

	mov	edx, DWORD PTR _facet$[ebp]
	cmp	DWORD PTR [edx+32], 0
	je	SHORT $LN39@xmlSchemaV
	mov	eax, DWORD PTR _facet$[ebp]
	mov	ecx, DWORD PTR [eax+32]
	cmp	DWORD PTR [ecx], 3
	je	SHORT $LN40@xmlSchemaV
	mov	edx, DWORD PTR _facet$[ebp]
	mov	eax, DWORD PTR [edx+32]
	cmp	DWORD PTR [eax], 33			; 00000021H
	jne	SHORT $LN39@xmlSchemaV
$LN40@xmlSchemaV:
	mov	ecx, DWORD PTR _facet$[ebp]
	mov	edx, DWORD PTR [ecx+32]
	mov	eax, DWORD PTR [edx+24]
	shr	eax, 1
	and	eax, 127				; 0000007fH
	je	SHORT $LN38@xmlSchemaV
$LN39@xmlSchemaV:

; 5426 : 		(facet->val->value.decimal.frac != 0)) {
; 5427 : 		return(-1);

	or	eax, -1
	jmp	$LN1@xmlSchemaV
$LN38@xmlSchemaV:

; 5428 : 	    }
; 5429 : 	    if ((val != NULL) && (val->type == XML_SCHEMAS_HEXBINARY))

	cmp	DWORD PTR _val$[ebp], 0
	je	SHORT $LN41@xmlSchemaV
	mov	ecx, DWORD PTR _val$[ebp]
	cmp	DWORD PTR [ecx], 43			; 0000002bH
	jne	SHORT $LN41@xmlSchemaV

; 5430 : 		len = val->value.hex.total;

	mov	edx, DWORD PTR _val$[ebp]
	mov	eax, DWORD PTR [edx+12]
	mov	DWORD PTR _len$1[ebp], eax
	jmp	$LN42@xmlSchemaV
$LN41@xmlSchemaV:

; 5431 : 	    else if ((val != NULL) && (val->type == XML_SCHEMAS_BASE64BINARY))

	cmp	DWORD PTR _val$[ebp], 0
	je	SHORT $LN43@xmlSchemaV
	mov	ecx, DWORD PTR _val$[ebp]
	cmp	DWORD PTR [ecx], 44			; 0000002cH
	jne	SHORT $LN43@xmlSchemaV

; 5432 : 		len = val->value.base64.total;

	mov	edx, DWORD PTR _val$[ebp]
	mov	eax, DWORD PTR [edx+12]
	mov	DWORD PTR _len$1[ebp], eax
	jmp	$LN42@xmlSchemaV
$LN43@xmlSchemaV:

; 5433 : 	    else {
; 5434 : 		switch (valType) {

	mov	ecx, DWORD PTR _valType$[ebp]
	mov	DWORD PTR tv195[ebp], ecx
	mov	edx, DWORD PTR tv195[ebp]
	sub	edx, 1
	mov	DWORD PTR tv195[ebp], edx
	cmp	DWORD PTR tv195[ebp], 28		; 0000001cH
	ja	$LN55@xmlSchemaV
	mov	eax, DWORD PTR tv195[ebp]
	movzx	ecx, BYTE PTR $LN83@xmlSchemaV[eax]
	jmp	DWORD PTR $LN85@xmlSchemaV[ecx*4]
$LN45@xmlSchemaV:

; 5435 : 		    case XML_SCHEMAS_STRING:
; 5436 : 		    case XML_SCHEMAS_NORMSTRING:
; 5437 : 			if (ws == XML_SCHEMA_WHITESPACE_UNKNOWN) {

	cmp	DWORD PTR _ws$[ebp], 0
	jne	SHORT $LN46@xmlSchemaV

; 5438 : 			    /*
; 5439 : 			    * This is to ensure API compatibility with the old
; 5440 : 			    * xmlSchemaValidateFacet(). Anyway, this was and
; 5441 : 			    * is not the correct handling.
; 5442 : 			    * TODO: Get rid of this case somehow.
; 5443 : 			    */
; 5444 : 			    if (valType == XML_SCHEMAS_STRING)

	cmp	DWORD PTR _valType$[ebp], 1
	jne	SHORT $LN48@xmlSchemaV

; 5445 : 				len = xmlUTF8Strlen(value);

	mov	edx, DWORD PTR _value$[ebp]
	push	edx
	call	_xmlUTF8Strlen
	add	esp, 4
	mov	DWORD PTR _len$1[ebp], eax
	jmp	SHORT $LN49@xmlSchemaV
$LN48@xmlSchemaV:

; 5446 : 			    else
; 5447 : 				len = xmlSchemaNormLen(value);

	mov	eax, DWORD PTR _value$[ebp]
	push	eax
	call	_xmlSchemaNormLen
	add	esp, 4
	mov	DWORD PTR _len$1[ebp], eax
$LN49@xmlSchemaV:

; 5448 : 			} else if (value != NULL) {

	jmp	SHORT $LN47@xmlSchemaV
$LN46@xmlSchemaV:
	cmp	DWORD PTR _value$[ebp], 0
	je	SHORT $LN47@xmlSchemaV

; 5449 : 			    if (ws == XML_SCHEMA_WHITESPACE_COLLAPSE)

	cmp	DWORD PTR _ws$[ebp], 3
	jne	SHORT $LN51@xmlSchemaV

; 5450 : 				len = xmlSchemaNormLen(value);

	mov	ecx, DWORD PTR _value$[ebp]
	push	ecx
	call	_xmlSchemaNormLen
	add	esp, 4
	mov	DWORD PTR _len$1[ebp], eax
	jmp	SHORT $LN47@xmlSchemaV
$LN51@xmlSchemaV:

; 5451 : 			    else
; 5452 : 				/*
; 5453 : 				* Should be OK for "preserve" as well.
; 5454 : 				*/
; 5455 : 				len = xmlUTF8Strlen(value);

	mov	edx, DWORD PTR _value$[ebp]
	push	edx
	call	_xmlUTF8Strlen
	add	esp, 4
	mov	DWORD PTR _len$1[ebp], eax
$LN47@xmlSchemaV:

; 5456 : 			}
; 5457 : 			break;

	jmp	SHORT $LN42@xmlSchemaV
$LN53@xmlSchemaV:

; 5458 : 		    case XML_SCHEMAS_IDREF:
; 5459 : 		    case XML_SCHEMAS_TOKEN:
; 5460 : 		    case XML_SCHEMAS_LANGUAGE:
; 5461 : 		    case XML_SCHEMAS_NMTOKEN:
; 5462 : 		    case XML_SCHEMAS_NAME:
; 5463 : 		    case XML_SCHEMAS_NCNAME:
; 5464 : 		    case XML_SCHEMAS_ID:
; 5465 : 		    case XML_SCHEMAS_ANYURI:
; 5466 : 			if (value != NULL)

	cmp	DWORD PTR _value$[ebp], 0
	je	SHORT $LN54@xmlSchemaV

; 5467 : 			    len = xmlSchemaNormLen(value);

	mov	eax, DWORD PTR _value$[ebp]
	push	eax
	call	_xmlSchemaNormLen
	add	esp, 4
	mov	DWORD PTR _len$1[ebp], eax
$LN54@xmlSchemaV:

; 5468 : 			break;

	jmp	SHORT $LN42@xmlSchemaV
$LN55@xmlSchemaV:

; 5469 : 		    default:
; 5470 : 		        TODO

	mov	esi, esp
	push	5470					; 0000155eH
	push	OFFSET ??_C@_0HB@FHPILMCP@c?3?2users?2dag?2documents?2_clients@
	push	OFFSET ??_C@_0BO@MDEMDPPE@Unimplemented?5block?5at?5?$CFs?3?$CFd?6@
	call	___xmlGenericErrorContext
	mov	ecx, DWORD PTR [eax]
	push	ecx
	call	___xmlGenericError
	mov	edx, DWORD PTR [eax]
	call	edx
	add	esp, 16					; 00000010H
	cmp	esi, esp
	call	__RTC_CheckEsp
$LN42@xmlSchemaV:

; 5471 : 		}
; 5472 : 	    }
; 5473 : 	    if (facet->type == XML_SCHEMA_FACET_LENGTH) {

	mov	eax, DWORD PTR _facet$[ebp]
	cmp	DWORD PTR [eax], 1009			; 000003f1H
	jne	SHORT $LN56@xmlSchemaV

; 5474 : 		if (len != facet->val->value.decimal.lo)

	mov	ecx, DWORD PTR _facet$[ebp]
	mov	edx, DWORD PTR [ecx+32]
	mov	eax, DWORD PTR _len$1[ebp]
	cmp	eax, DWORD PTR [edx+8]
	je	SHORT $LN58@xmlSchemaV

; 5475 : 		    return(XML_SCHEMAV_CVC_LENGTH_VALID);

	mov	eax, 1830				; 00000726H
	jmp	$LN1@xmlSchemaV
$LN58@xmlSchemaV:

; 5476 : 	    } else if (facet->type == XML_SCHEMA_FACET_MINLENGTH) {

	jmp	SHORT $LN57@xmlSchemaV
$LN56@xmlSchemaV:
	mov	ecx, DWORD PTR _facet$[ebp]
	cmp	DWORD PTR [ecx], 1011			; 000003f3H
	jne	SHORT $LN59@xmlSchemaV

; 5477 : 		if (len < facet->val->value.decimal.lo)

	mov	edx, DWORD PTR _facet$[ebp]
	mov	eax, DWORD PTR [edx+32]
	mov	ecx, DWORD PTR _len$1[ebp]
	cmp	ecx, DWORD PTR [eax+8]
	jae	SHORT $LN61@xmlSchemaV

; 5478 : 		    return(XML_SCHEMAV_CVC_MINLENGTH_VALID);

	mov	eax, 1831				; 00000727H
	jmp	$LN1@xmlSchemaV
$LN61@xmlSchemaV:

; 5479 : 	    } else {

	jmp	SHORT $LN57@xmlSchemaV
$LN59@xmlSchemaV:

; 5480 : 		if (len > facet->val->value.decimal.lo)

	mov	edx, DWORD PTR _facet$[ebp]
	mov	eax, DWORD PTR [edx+32]
	mov	ecx, DWORD PTR _len$1[ebp]
	cmp	ecx, DWORD PTR [eax+8]
	jbe	SHORT $LN57@xmlSchemaV

; 5481 : 		    return(XML_SCHEMAV_CVC_MAXLENGTH_VALID);

	mov	eax, 1832				; 00000728H
	jmp	$LN1@xmlSchemaV
$LN57@xmlSchemaV:

; 5482 : 	    }
; 5483 : 	    break;

	jmp	$LN2@xmlSchemaV
$LN63@xmlSchemaV:

; 5484 : 	}
; 5485 : 	case XML_SCHEMA_FACET_TOTALDIGITS:
; 5486 : 	case XML_SCHEMA_FACET_FRACTIONDIGITS:
; 5487 : 
; 5488 : 	    if ((facet->val == NULL) ||
; 5489 : 		((facet->val->type != XML_SCHEMAS_PINTEGER) &&
; 5490 : 		 (facet->val->type != XML_SCHEMAS_NNINTEGER)) ||

	mov	edx, DWORD PTR _facet$[ebp]
	cmp	DWORD PTR [edx+32], 0
	je	SHORT $LN65@xmlSchemaV
	mov	eax, DWORD PTR _facet$[ebp]
	mov	ecx, DWORD PTR [eax+32]
	cmp	DWORD PTR [ecx], 34			; 00000022H
	je	SHORT $LN66@xmlSchemaV
	mov	edx, DWORD PTR _facet$[ebp]
	mov	eax, DWORD PTR [edx+32]
	cmp	DWORD PTR [eax], 33			; 00000021H
	jne	SHORT $LN65@xmlSchemaV
$LN66@xmlSchemaV:
	mov	ecx, DWORD PTR _facet$[ebp]
	mov	edx, DWORD PTR [ecx+32]
	mov	eax, DWORD PTR [edx+24]
	shr	eax, 1
	and	eax, 127				; 0000007fH
	je	SHORT $LN64@xmlSchemaV
$LN65@xmlSchemaV:

; 5491 : 		(facet->val->value.decimal.frac != 0)) {
; 5492 : 		return(-1);

	or	eax, -1
	jmp	$LN1@xmlSchemaV
$LN64@xmlSchemaV:

; 5493 : 	    }
; 5494 : 	    if ((val == NULL) ||

	cmp	DWORD PTR _val$[ebp], 0
	je	SHORT $LN68@xmlSchemaV
	mov	ecx, DWORD PTR _val$[ebp]
	cmp	DWORD PTR [ecx], 3
	je	SHORT $LN67@xmlSchemaV
	mov	edx, DWORD PTR _val$[ebp]
	cmp	DWORD PTR [edx], 30			; 0000001eH
	je	SHORT $LN67@xmlSchemaV
	mov	eax, DWORD PTR _val$[ebp]
	cmp	DWORD PTR [eax], 31			; 0000001fH
	je	SHORT $LN67@xmlSchemaV
	mov	ecx, DWORD PTR _val$[ebp]
	cmp	DWORD PTR [ecx], 32			; 00000020H
	je	SHORT $LN67@xmlSchemaV
	mov	edx, DWORD PTR _val$[ebp]
	cmp	DWORD PTR [edx], 33			; 00000021H
	je	SHORT $LN67@xmlSchemaV
	mov	eax, DWORD PTR _val$[ebp]
	cmp	DWORD PTR [eax], 34			; 00000022H
	je	SHORT $LN67@xmlSchemaV
	mov	ecx, DWORD PTR _val$[ebp]
	cmp	DWORD PTR [ecx], 35			; 00000023H
	je	SHORT $LN67@xmlSchemaV
	mov	edx, DWORD PTR _val$[ebp]
	cmp	DWORD PTR [edx], 36			; 00000024H
	je	SHORT $LN67@xmlSchemaV
	mov	eax, DWORD PTR _val$[ebp]
	cmp	DWORD PTR [eax], 37			; 00000025H
	je	SHORT $LN67@xmlSchemaV
	mov	ecx, DWORD PTR _val$[ebp]
	cmp	DWORD PTR [ecx], 38			; 00000026H
	je	SHORT $LN67@xmlSchemaV
	mov	edx, DWORD PTR _val$[ebp]
	cmp	DWORD PTR [edx], 39			; 00000027H
	je	SHORT $LN67@xmlSchemaV
	mov	eax, DWORD PTR _val$[ebp]
	cmp	DWORD PTR [eax], 40			; 00000028H
	je	SHORT $LN67@xmlSchemaV
	mov	ecx, DWORD PTR _val$[ebp]
	cmp	DWORD PTR [ecx], 41			; 00000029H
	je	SHORT $LN67@xmlSchemaV
	mov	edx, DWORD PTR _val$[ebp]
	cmp	DWORD PTR [edx], 42			; 0000002aH
	je	SHORT $LN67@xmlSchemaV
$LN68@xmlSchemaV:

; 5495 : 		((val->type != XML_SCHEMAS_DECIMAL) &&
; 5496 : 		 (val->type != XML_SCHEMAS_INTEGER) &&
; 5497 : 		 (val->type != XML_SCHEMAS_NPINTEGER) &&
; 5498 : 		 (val->type != XML_SCHEMAS_NINTEGER) &&
; 5499 : 		 (val->type != XML_SCHEMAS_NNINTEGER) &&
; 5500 : 		 (val->type != XML_SCHEMAS_PINTEGER) &&
; 5501 : 		 (val->type != XML_SCHEMAS_INT) &&
; 5502 : 		 (val->type != XML_SCHEMAS_UINT) &&
; 5503 : 		 (val->type != XML_SCHEMAS_LONG) &&
; 5504 : 		 (val->type != XML_SCHEMAS_ULONG) &&
; 5505 : 		 (val->type != XML_SCHEMAS_SHORT) &&
; 5506 : 		 (val->type != XML_SCHEMAS_USHORT) &&
; 5507 : 		 (val->type != XML_SCHEMAS_BYTE) &&
; 5508 : 		 (val->type != XML_SCHEMAS_UBYTE))) {
; 5509 : 		return(-1);

	or	eax, -1
	jmp	$LN1@xmlSchemaV
$LN67@xmlSchemaV:

; 5510 : 	    }
; 5511 : 	    if (facet->type == XML_SCHEMA_FACET_TOTALDIGITS) {

	mov	eax, DWORD PTR _facet$[ebp]
	cmp	DWORD PTR [eax], 1004			; 000003ecH
	jne	SHORT $LN69@xmlSchemaV

; 5512 : 	        if (val->value.decimal.total > facet->val->value.decimal.lo)

	mov	ecx, DWORD PTR _val$[ebp]
	mov	edx, DWORD PTR [ecx+24]
	shr	edx, 8
	and	edx, 255				; 000000ffH
	mov	eax, DWORD PTR _facet$[ebp]
	mov	ecx, DWORD PTR [eax+32]
	cmp	edx, DWORD PTR [ecx+8]
	jbe	SHORT $LN71@xmlSchemaV

; 5513 : 	            return(XML_SCHEMAV_CVC_TOTALDIGITS_VALID);

	mov	eax, 1837				; 0000072dH
	jmp	SHORT $LN1@xmlSchemaV
$LN71@xmlSchemaV:

; 5514 : 
; 5515 : 	    } else if (facet->type == XML_SCHEMA_FACET_FRACTIONDIGITS) {

	jmp	SHORT $LN70@xmlSchemaV
$LN69@xmlSchemaV:
	mov	edx, DWORD PTR _facet$[ebp]
	cmp	DWORD PTR [edx], 1005			; 000003edH
	jne	SHORT $LN70@xmlSchemaV

; 5516 : 	        if (val->value.decimal.frac > facet->val->value.decimal.lo)

	mov	eax, DWORD PTR _val$[ebp]
	mov	ecx, DWORD PTR [eax+24]
	shr	ecx, 1
	and	ecx, 127				; 0000007fH
	mov	edx, DWORD PTR _facet$[ebp]
	mov	eax, DWORD PTR [edx+32]
	cmp	ecx, DWORD PTR [eax+8]
	jbe	SHORT $LN70@xmlSchemaV

; 5517 : 		    return(XML_SCHEMAV_CVC_FRACTIONDIGITS_VALID);

	mov	eax, 1838				; 0000072eH
	jmp	SHORT $LN1@xmlSchemaV
$LN70@xmlSchemaV:

; 5518 : 	    }
; 5519 : 	    break;

	jmp	SHORT $LN2@xmlSchemaV
$LN74@xmlSchemaV:

; 5520 : 	default:
; 5521 : 	    TODO

	mov	esi, esp
	push	5521					; 00001591H
	push	OFFSET ??_C@_0HB@FHPILMCP@c?3?2users?2dag?2documents?2_clients@
	push	OFFSET ??_C@_0BO@MDEMDPPE@Unimplemented?5block?5at?5?$CFs?3?$CFd?6@
	call	___xmlGenericErrorContext
	mov	ecx, DWORD PTR [eax]
	push	ecx
	call	___xmlGenericError
	mov	edx, DWORD PTR [eax]
	call	edx
	add	esp, 16					; 00000010H
	cmp	esi, esp
	call	__RTC_CheckEsp
$LN2@xmlSchemaV:

; 5522 :     }
; 5523 :     return(0);

	xor	eax, eax
$LN1@xmlSchemaV:

; 5524 : 
; 5525 : }

	pop	esi
	add	esp, 28					; 0000001cH
	cmp	ebp, esp
	call	__RTC_CheckEsp
	mov	esp, ebp
	pop	ebp
	ret	0
	npad	3
$LN84@xmlSchemaV:
	DD	$LN21@xmlSchemaV
	DD	$LN18@xmlSchemaV
	DD	$LN14@xmlSchemaV
	DD	$LN11@xmlSchemaV
	DD	$LN63@xmlSchemaV
	DD	$LN63@xmlSchemaV
	DD	$LN7@xmlSchemaV
	DD	$LN26@xmlSchemaV
	DD	$LN25@xmlSchemaV
	DD	$LN32@xmlSchemaV
	DD	$LN35@xmlSchemaV
	DD	$LN35@xmlSchemaV
$LN85@xmlSchemaV:
	DD	$LN45@xmlSchemaV
	DD	$LN53@xmlSchemaV
	DD	$LN55@xmlSchemaV
$LN83@xmlSchemaV:
	DB	0
	DB	0
	DB	2
	DB	2
	DB	2
	DB	2
	DB	2
	DB	2
	DB	2
	DB	2
	DB	2
	DB	2
	DB	2
	DB	2
	DB	2
	DB	1
	DB	1
	DB	1
	DB	2
	DB	1
	DB	2
	DB	1
	DB	1
	DB	1
	DB	2
	DB	2
	DB	2
	DB	2
	DB	1
_xmlSchemaValidateFacetInternal ENDP
_TEXT	ENDS
; Function compile flags: /Odtp /RTCsu
; File c:\users\dag\documents\_clients\codeproject authors group\windows on arm\libxml2\libxml2-2.9.9\xmlschemastypes.c
;	COMDAT _xmlSchemaValidateLengthFacetInternal
_TEXT	SEGMENT
tv93 = -8						; size = 4
_len$ = -4						; size = 4
_facet$ = 8						; size = 4
_valType$ = 12						; size = 4
_value$ = 16						; size = 4
_val$ = 20						; size = 4
_length$ = 24						; size = 4
_ws$ = 28						; size = 4
_xmlSchemaValidateLengthFacetInternal PROC		; COMDAT

; 5149 : {

	push	ebp
	mov	ebp, esp
	sub	esp, 8
	push	esi
	mov	DWORD PTR [ebp-8], -858993460		; ccccccccH
	mov	DWORD PTR [ebp-4], -858993460		; ccccccccH
	mov	ecx, OFFSET __74485836_xmlschemastypes@c
	call	@__CheckForDebuggerJustMyCode@4

; 5150 :     unsigned int len = 0;

	mov	DWORD PTR _len$[ebp], 0

; 5151 : 
; 5152 :     if ((length == NULL) || (facet == NULL))

	cmp	DWORD PTR _length$[ebp], 0
	je	SHORT $LN5@xmlSchemaV
	cmp	DWORD PTR _facet$[ebp], 0
	jne	SHORT $LN4@xmlSchemaV
$LN5@xmlSchemaV:

; 5153 :         return (-1);

	or	eax, -1
	jmp	$LN1@xmlSchemaV
$LN4@xmlSchemaV:

; 5154 :     *length = 0;

	mov	eax, DWORD PTR _length$[ebp]
	mov	DWORD PTR [eax], 0

; 5155 :     if ((facet->type != XML_SCHEMA_FACET_LENGTH) &&
; 5156 : 	(facet->type != XML_SCHEMA_FACET_MAXLENGTH) &&

	mov	ecx, DWORD PTR _facet$[ebp]
	cmp	DWORD PTR [ecx], 1009			; 000003f1H
	je	SHORT $LN6@xmlSchemaV
	mov	edx, DWORD PTR _facet$[ebp]
	cmp	DWORD PTR [edx], 1010			; 000003f2H
	je	SHORT $LN6@xmlSchemaV
	mov	eax, DWORD PTR _facet$[ebp]
	cmp	DWORD PTR [eax], 1011			; 000003f3H
	je	SHORT $LN6@xmlSchemaV

; 5157 : 	(facet->type != XML_SCHEMA_FACET_MINLENGTH))
; 5158 : 	return (-1);

	or	eax, -1
	jmp	$LN1@xmlSchemaV
$LN6@xmlSchemaV:

; 5159 : 
; 5160 :     /*
; 5161 :     * TODO: length, maxLength and minLength must be of type
; 5162 :     * nonNegativeInteger only. Check if decimal is used somehow.
; 5163 :     */
; 5164 :     if ((facet->val == NULL) ||
; 5165 : 	((facet->val->type != XML_SCHEMAS_DECIMAL) &&
; 5166 : 	 (facet->val->type != XML_SCHEMAS_NNINTEGER)) ||

	mov	ecx, DWORD PTR _facet$[ebp]
	cmp	DWORD PTR [ecx+32], 0
	je	SHORT $LN8@xmlSchemaV
	mov	edx, DWORD PTR _facet$[ebp]
	mov	eax, DWORD PTR [edx+32]
	cmp	DWORD PTR [eax], 3
	je	SHORT $LN9@xmlSchemaV
	mov	ecx, DWORD PTR _facet$[ebp]
	mov	edx, DWORD PTR [ecx+32]
	cmp	DWORD PTR [edx], 33			; 00000021H
	jne	SHORT $LN8@xmlSchemaV
$LN9@xmlSchemaV:
	mov	eax, DWORD PTR _facet$[ebp]
	mov	ecx, DWORD PTR [eax+32]
	mov	edx, DWORD PTR [ecx+24]
	shr	edx, 1
	and	edx, 127				; 0000007fH
	je	SHORT $LN7@xmlSchemaV
$LN8@xmlSchemaV:

; 5167 : 	(facet->val->value.decimal.frac != 0)) {
; 5168 : 	return(-1);

	or	eax, -1
	jmp	$LN1@xmlSchemaV
$LN7@xmlSchemaV:

; 5169 :     }
; 5170 :     if ((val != NULL) && (val->type == XML_SCHEMAS_HEXBINARY))

	cmp	DWORD PTR _val$[ebp], 0
	je	SHORT $LN10@xmlSchemaV
	mov	eax, DWORD PTR _val$[ebp]
	cmp	DWORD PTR [eax], 43			; 0000002bH
	jne	SHORT $LN10@xmlSchemaV

; 5171 : 	len = val->value.hex.total;

	mov	ecx, DWORD PTR _val$[ebp]
	mov	edx, DWORD PTR [ecx+12]
	mov	DWORD PTR _len$[ebp], edx
	jmp	$LN11@xmlSchemaV
$LN10@xmlSchemaV:

; 5172 :     else if ((val != NULL) && (val->type == XML_SCHEMAS_BASE64BINARY))

	cmp	DWORD PTR _val$[ebp], 0
	je	SHORT $LN12@xmlSchemaV
	mov	eax, DWORD PTR _val$[ebp]
	cmp	DWORD PTR [eax], 44			; 0000002cH
	jne	SHORT $LN12@xmlSchemaV

; 5173 : 	len = val->value.base64.total;

	mov	ecx, DWORD PTR _val$[ebp]
	mov	edx, DWORD PTR [ecx+12]
	mov	DWORD PTR _len$[ebp], edx
	jmp	$LN11@xmlSchemaV
$LN12@xmlSchemaV:

; 5174 :     else {
; 5175 : 	switch (valType) {

	mov	eax, DWORD PTR _valType$[ebp]
	mov	DWORD PTR tv93[ebp], eax
	mov	ecx, DWORD PTR tv93[ebp]
	sub	ecx, 1
	mov	DWORD PTR tv93[ebp], ecx
	cmp	DWORD PTR tv93[ebp], 28			; 0000001cH
	ja	$LN25@xmlSchemaV
	mov	edx, DWORD PTR tv93[ebp]
	movzx	eax, BYTE PTR $LN34@xmlSchemaV[edx]
	jmp	DWORD PTR $LN35@xmlSchemaV[eax*4]
$LN14@xmlSchemaV:

; 5176 : 	    case XML_SCHEMAS_STRING:
; 5177 : 	    case XML_SCHEMAS_NORMSTRING:
; 5178 : 		if (ws == XML_SCHEMA_WHITESPACE_UNKNOWN) {

	cmp	DWORD PTR _ws$[ebp], 0
	jne	SHORT $LN15@xmlSchemaV

; 5179 : 		    /*
; 5180 : 		    * This is to ensure API compatibility with the old
; 5181 : 		    * xmlSchemaValidateLengthFacet(). Anyway, this was and
; 5182 : 		    * is not the correct handling.
; 5183 : 		    * TODO: Get rid of this case somehow.
; 5184 : 		    */
; 5185 : 		    if (valType == XML_SCHEMAS_STRING)

	cmp	DWORD PTR _valType$[ebp], 1
	jne	SHORT $LN17@xmlSchemaV

; 5186 : 			len = xmlUTF8Strlen(value);

	mov	ecx, DWORD PTR _value$[ebp]
	push	ecx
	call	_xmlUTF8Strlen
	add	esp, 4
	mov	DWORD PTR _len$[ebp], eax
	jmp	SHORT $LN18@xmlSchemaV
$LN17@xmlSchemaV:

; 5187 : 		    else
; 5188 : 			len = xmlSchemaNormLen(value);

	mov	edx, DWORD PTR _value$[ebp]
	push	edx
	call	_xmlSchemaNormLen
	add	esp, 4
	mov	DWORD PTR _len$[ebp], eax
$LN18@xmlSchemaV:

; 5189 : 		} else if (value != NULL) {

	jmp	SHORT $LN16@xmlSchemaV
$LN15@xmlSchemaV:
	cmp	DWORD PTR _value$[ebp], 0
	je	SHORT $LN16@xmlSchemaV

; 5190 : 		    if (ws == XML_SCHEMA_WHITESPACE_COLLAPSE)

	cmp	DWORD PTR _ws$[ebp], 3
	jne	SHORT $LN20@xmlSchemaV

; 5191 : 			len = xmlSchemaNormLen(value);

	mov	eax, DWORD PTR _value$[ebp]
	push	eax
	call	_xmlSchemaNormLen
	add	esp, 4
	mov	DWORD PTR _len$[ebp], eax
	jmp	SHORT $LN16@xmlSchemaV
$LN20@xmlSchemaV:

; 5192 : 		    else
; 5193 : 		    /*
; 5194 : 		    * Should be OK for "preserve" as well.
; 5195 : 		    */
; 5196 : 		    len = xmlUTF8Strlen(value);

	mov	ecx, DWORD PTR _value$[ebp]
	push	ecx
	call	_xmlUTF8Strlen
	add	esp, 4
	mov	DWORD PTR _len$[ebp], eax
$LN16@xmlSchemaV:

; 5197 : 		}
; 5198 : 		break;

	jmp	SHORT $LN11@xmlSchemaV
$LN22@xmlSchemaV:

; 5199 : 	    case XML_SCHEMAS_IDREF:
; 5200 : 	    case XML_SCHEMAS_TOKEN:
; 5201 : 	    case XML_SCHEMAS_LANGUAGE:
; 5202 : 	    case XML_SCHEMAS_NMTOKEN:
; 5203 : 	    case XML_SCHEMAS_NAME:
; 5204 : 	    case XML_SCHEMAS_NCNAME:
; 5205 : 	    case XML_SCHEMAS_ID:
; 5206 : 		/*
; 5207 : 		* FIXME: What exactly to do with anyURI?
; 5208 : 		*/
; 5209 : 	    case XML_SCHEMAS_ANYURI:
; 5210 : 		if (value != NULL)

	cmp	DWORD PTR _value$[ebp], 0
	je	SHORT $LN23@xmlSchemaV

; 5211 : 		    len = xmlSchemaNormLen(value);

	mov	edx, DWORD PTR _value$[ebp]
	push	edx
	call	_xmlSchemaNormLen
	add	esp, 4
	mov	DWORD PTR _len$[ebp], eax
$LN23@xmlSchemaV:

; 5212 : 		break;

	jmp	SHORT $LN11@xmlSchemaV
$LN24@xmlSchemaV:

; 5213 : 	    case XML_SCHEMAS_QNAME:
; 5214 : 	    case XML_SCHEMAS_NOTATION:
; 5215 : 		/*
; 5216 : 		* For QName and NOTATION, those facets are
; 5217 : 		* deprecated and should be ignored.
; 5218 : 		*/
; 5219 : 		return (0);

	xor	eax, eax
	jmp	$LN1@xmlSchemaV
$LN25@xmlSchemaV:

; 5220 : 	    default:
; 5221 : 		TODO

	mov	esi, esp
	push	5221					; 00001465H
	push	OFFSET ??_C@_0HB@FHPILMCP@c?3?2users?2dag?2documents?2_clients@
	push	OFFSET ??_C@_0BO@MDEMDPPE@Unimplemented?5block?5at?5?$CFs?3?$CFd?6@
	call	___xmlGenericErrorContext
	mov	eax, DWORD PTR [eax]
	push	eax
	call	___xmlGenericError
	mov	ecx, DWORD PTR [eax]
	call	ecx
	add	esp, 16					; 00000010H
	cmp	esi, esp
	call	__RTC_CheckEsp
$LN11@xmlSchemaV:

; 5222 : 	}
; 5223 :     }
; 5224 :     *length = (unsigned long) len;

	mov	edx, DWORD PTR _length$[ebp]
	mov	eax, DWORD PTR _len$[ebp]
	mov	DWORD PTR [edx], eax

; 5225 :     /*
; 5226 :     * TODO: Return the whole expected value, i.e. "lo", "mi" and "hi".
; 5227 :     */
; 5228 :     if (facet->type == XML_SCHEMA_FACET_LENGTH) {

	mov	ecx, DWORD PTR _facet$[ebp]
	cmp	DWORD PTR [ecx], 1009			; 000003f1H
	jne	SHORT $LN26@xmlSchemaV

; 5229 : 	if (len != facet->val->value.decimal.lo)

	mov	edx, DWORD PTR _facet$[ebp]
	mov	eax, DWORD PTR [edx+32]
	mov	ecx, DWORD PTR _len$[ebp]
	cmp	ecx, DWORD PTR [eax+8]
	je	SHORT $LN28@xmlSchemaV

; 5230 : 	    return(XML_SCHEMAV_CVC_LENGTH_VALID);

	mov	eax, 1830				; 00000726H
	jmp	SHORT $LN1@xmlSchemaV
$LN28@xmlSchemaV:

; 5231 :     } else if (facet->type == XML_SCHEMA_FACET_MINLENGTH) {

	jmp	SHORT $LN27@xmlSchemaV
$LN26@xmlSchemaV:
	mov	edx, DWORD PTR _facet$[ebp]
	cmp	DWORD PTR [edx], 1011			; 000003f3H
	jne	SHORT $LN29@xmlSchemaV

; 5232 : 	if (len < facet->val->value.decimal.lo)

	mov	eax, DWORD PTR _facet$[ebp]
	mov	ecx, DWORD PTR [eax+32]
	mov	edx, DWORD PTR _len$[ebp]
	cmp	edx, DWORD PTR [ecx+8]
	jae	SHORT $LN31@xmlSchemaV

; 5233 : 	    return(XML_SCHEMAV_CVC_MINLENGTH_VALID);

	mov	eax, 1831				; 00000727H
	jmp	SHORT $LN1@xmlSchemaV
$LN31@xmlSchemaV:

; 5234 :     } else {

	jmp	SHORT $LN27@xmlSchemaV
$LN29@xmlSchemaV:

; 5235 : 	if (len > facet->val->value.decimal.lo)

	mov	eax, DWORD PTR _facet$[ebp]
	mov	ecx, DWORD PTR [eax+32]
	mov	edx, DWORD PTR _len$[ebp]
	cmp	edx, DWORD PTR [ecx+8]
	jbe	SHORT $LN27@xmlSchemaV

; 5236 : 	    return(XML_SCHEMAV_CVC_MAXLENGTH_VALID);

	mov	eax, 1832				; 00000728H
	jmp	SHORT $LN1@xmlSchemaV
$LN27@xmlSchemaV:

; 5237 :     }
; 5238 : 
; 5239 :     return (0);

	xor	eax, eax
$LN1@xmlSchemaV:

; 5240 : }

	pop	esi
	add	esp, 8
	cmp	ebp, esp
	call	__RTC_CheckEsp
	mov	esp, ebp
	pop	ebp
	ret	0
	npad	3
$LN35@xmlSchemaV:
	DD	$LN14@xmlSchemaV
	DD	$LN22@xmlSchemaV
	DD	$LN24@xmlSchemaV
	DD	$LN25@xmlSchemaV
$LN34@xmlSchemaV:
	DB	0
	DB	0
	DB	3
	DB	3
	DB	3
	DB	3
	DB	3
	DB	3
	DB	3
	DB	3
	DB	3
	DB	3
	DB	3
	DB	3
	DB	3
	DB	1
	DB	1
	DB	1
	DB	3
	DB	1
	DB	2
	DB	1
	DB	1
	DB	1
	DB	3
	DB	3
	DB	3
	DB	2
	DB	1
_xmlSchemaValidateLengthFacetInternal ENDP
_TEXT	ENDS
; Function compile flags: /Odtp /RTCsu
; File c:\users\dag\documents\_clients\codeproject authors group\windows on arm\libxml2\libxml2-2.9.9\xmlschemastypes.c
;	COMDAT _xmlSchemaNormLen
_TEXT	SEGMENT
_ret$ = -8						; size = 4
_utf$ = -4						; size = 4
_value$ = 8						; size = 4
_xmlSchemaNormLen PROC					; COMDAT

; 5019 : xmlSchemaNormLen(const xmlChar *value) {

	push	ebp
	mov	ebp, esp
	sub	esp, 8
	mov	DWORD PTR [ebp-8], -858993460		; ccccccccH
	mov	DWORD PTR [ebp-4], -858993460		; ccccccccH
	mov	ecx, OFFSET __74485836_xmlschemastypes@c
	call	@__CheckForDebuggerJustMyCode@4

; 5020 :     const xmlChar *utf;
; 5021 :     int ret = 0;

	mov	DWORD PTR _ret$[ebp], 0

; 5022 : 
; 5023 :     if (value == NULL)

	cmp	DWORD PTR _value$[ebp], 0
	jne	SHORT $LN8@xmlSchemaN

; 5024 : 	return(-1);

	or	eax, -1
	jmp	$LN1@xmlSchemaN
$LN8@xmlSchemaN:

; 5025 :     utf = value;

	mov	eax, DWORD PTR _value$[ebp]
	mov	DWORD PTR _utf$[ebp], eax
$LN2@xmlSchemaN:

; 5026 :     while (IS_BLANK_CH(*utf)) utf++;

	mov	ecx, DWORD PTR _utf$[ebp]
	movzx	edx, BYTE PTR [ecx]
	cmp	edx, 32					; 00000020H
	je	SHORT $LN9@xmlSchemaN
	mov	eax, DWORD PTR _utf$[ebp]
	movzx	ecx, BYTE PTR [eax]
	cmp	ecx, 9
	jl	SHORT $LN10@xmlSchemaN
	mov	edx, DWORD PTR _utf$[ebp]
	movzx	eax, BYTE PTR [edx]
	cmp	eax, 10					; 0000000aH
	jle	SHORT $LN9@xmlSchemaN
$LN10@xmlSchemaN:
	mov	ecx, DWORD PTR _utf$[ebp]
	movzx	edx, BYTE PTR [ecx]
	cmp	edx, 13					; 0000000dH
	jne	SHORT $LN4@xmlSchemaN
$LN9@xmlSchemaN:
	mov	eax, DWORD PTR _utf$[ebp]
	add	eax, 1
	mov	DWORD PTR _utf$[ebp], eax
	jmp	SHORT $LN2@xmlSchemaN
$LN4@xmlSchemaN:

; 5027 :     while (*utf != 0) {

	mov	ecx, DWORD PTR _utf$[ebp]
	movzx	edx, BYTE PTR [ecx]
	test	edx, edx
	je	$LN5@xmlSchemaN

; 5028 : 	if (utf[0] & 0x80) {

	mov	eax, 1
	imul	ecx, eax, 0
	mov	edx, DWORD PTR _utf$[ebp]
	movzx	eax, BYTE PTR [edx+ecx]
	and	eax, 128				; 00000080H
	je	$LN11@xmlSchemaN

; 5029 : 	    if ((utf[1] & 0xc0) != 0x80)

	mov	ecx, 1
	shl	ecx, 0
	mov	edx, DWORD PTR _utf$[ebp]
	movzx	eax, BYTE PTR [edx+ecx]
	and	eax, 192				; 000000c0H
	cmp	eax, 128				; 00000080H
	je	SHORT $LN13@xmlSchemaN

; 5030 : 		return(-1);

	or	eax, -1
	jmp	$LN1@xmlSchemaN
$LN13@xmlSchemaN:

; 5031 : 	    if ((utf[0] & 0xe0) == 0xe0) {

	mov	ecx, 1
	imul	edx, ecx, 0
	mov	eax, DWORD PTR _utf$[ebp]
	movzx	ecx, BYTE PTR [eax+edx]
	and	ecx, 224				; 000000e0H
	cmp	ecx, 224				; 000000e0H
	jne	$LN14@xmlSchemaN

; 5032 : 		if ((utf[2] & 0xc0) != 0x80)

	mov	edx, 1
	shl	edx, 1
	mov	eax, DWORD PTR _utf$[ebp]
	movzx	ecx, BYTE PTR [eax+edx]
	and	ecx, 192				; 000000c0H
	cmp	ecx, 128				; 00000080H
	je	SHORT $LN16@xmlSchemaN

; 5033 : 		    return(-1);

	or	eax, -1
	jmp	$LN1@xmlSchemaN
$LN16@xmlSchemaN:

; 5034 : 		if ((utf[0] & 0xf0) == 0xf0) {

	mov	edx, 1
	imul	eax, edx, 0
	mov	ecx, DWORD PTR _utf$[ebp]
	movzx	edx, BYTE PTR [ecx+eax]
	and	edx, 240				; 000000f0H
	cmp	edx, 240				; 000000f0H
	jne	SHORT $LN17@xmlSchemaN

; 5035 : 		    if ((utf[0] & 0xf8) != 0xf0 || (utf[3] & 0xc0) != 0x80)

	mov	eax, 1
	imul	ecx, eax, 0
	mov	edx, DWORD PTR _utf$[ebp]
	movzx	eax, BYTE PTR [edx+ecx]
	and	eax, 248				; 000000f8H
	cmp	eax, 240				; 000000f0H
	jne	SHORT $LN20@xmlSchemaN
	mov	ecx, 1
	imul	edx, ecx, 3
	mov	eax, DWORD PTR _utf$[ebp]
	movzx	ecx, BYTE PTR [eax+edx]
	and	ecx, 192				; 000000c0H
	cmp	ecx, 128				; 00000080H
	je	SHORT $LN19@xmlSchemaN
$LN20@xmlSchemaN:

; 5036 : 			return(-1);

	or	eax, -1
	jmp	$LN1@xmlSchemaN
$LN19@xmlSchemaN:

; 5037 : 		    utf += 4;

	mov	edx, DWORD PTR _utf$[ebp]
	add	edx, 4
	mov	DWORD PTR _utf$[ebp], edx

; 5038 : 		} else {

	jmp	SHORT $LN18@xmlSchemaN
$LN17@xmlSchemaN:

; 5039 : 		    utf += 3;

	mov	eax, DWORD PTR _utf$[ebp]
	add	eax, 3
	mov	DWORD PTR _utf$[ebp], eax
$LN18@xmlSchemaN:

; 5040 : 		}
; 5041 : 	    } else {

	jmp	SHORT $LN15@xmlSchemaN
$LN14@xmlSchemaN:

; 5042 : 		utf += 2;

	mov	ecx, DWORD PTR _utf$[ebp]
	add	ecx, 2
	mov	DWORD PTR _utf$[ebp], ecx
$LN15@xmlSchemaN:

; 5043 : 	    }

	jmp	SHORT $LN12@xmlSchemaN
$LN11@xmlSchemaN:

; 5044 : 	} else if (IS_BLANK_CH(*utf)) {

	mov	edx, DWORD PTR _utf$[ebp]
	movzx	eax, BYTE PTR [edx]
	cmp	eax, 32					; 00000020H
	je	SHORT $LN6@xmlSchemaN
	mov	ecx, DWORD PTR _utf$[ebp]
	movzx	edx, BYTE PTR [ecx]
	cmp	edx, 9
	jl	SHORT $LN24@xmlSchemaN
	mov	eax, DWORD PTR _utf$[ebp]
	movzx	ecx, BYTE PTR [eax]
	cmp	ecx, 10					; 0000000aH
	jle	SHORT $LN6@xmlSchemaN
$LN24@xmlSchemaN:
	mov	edx, DWORD PTR _utf$[ebp]
	movzx	eax, BYTE PTR [edx]
	cmp	eax, 13					; 0000000dH
	jne	SHORT $LN21@xmlSchemaN
$LN6@xmlSchemaN:

; 5045 : 	    while (IS_BLANK_CH(*utf)) utf++;

	mov	ecx, DWORD PTR _utf$[ebp]
	movzx	edx, BYTE PTR [ecx]
	cmp	edx, 32					; 00000020H
	je	SHORT $LN25@xmlSchemaN
	mov	eax, DWORD PTR _utf$[ebp]
	movzx	ecx, BYTE PTR [eax]
	cmp	ecx, 9
	jl	SHORT $LN26@xmlSchemaN
	mov	edx, DWORD PTR _utf$[ebp]
	movzx	eax, BYTE PTR [edx]
	cmp	eax, 10					; 0000000aH
	jle	SHORT $LN25@xmlSchemaN
$LN26@xmlSchemaN:
	mov	ecx, DWORD PTR _utf$[ebp]
	movzx	edx, BYTE PTR [ecx]
	cmp	edx, 13					; 0000000dH
	jne	SHORT $LN7@xmlSchemaN
$LN25@xmlSchemaN:
	mov	eax, DWORD PTR _utf$[ebp]
	add	eax, 1
	mov	DWORD PTR _utf$[ebp], eax
	jmp	SHORT $LN6@xmlSchemaN
$LN7@xmlSchemaN:

; 5046 : 	    if (*utf == 0)

	mov	ecx, DWORD PTR _utf$[ebp]
	movzx	edx, BYTE PTR [ecx]
	test	edx, edx
	jne	SHORT $LN27@xmlSchemaN

; 5047 : 		break;

	jmp	SHORT $LN5@xmlSchemaN
$LN27@xmlSchemaN:

; 5048 : 	} else {

	jmp	SHORT $LN12@xmlSchemaN
$LN21@xmlSchemaN:

; 5049 : 	    utf++;

	mov	eax, DWORD PTR _utf$[ebp]
	add	eax, 1
	mov	DWORD PTR _utf$[ebp], eax
$LN12@xmlSchemaN:

; 5050 : 	}
; 5051 : 	ret++;

	mov	ecx, DWORD PTR _ret$[ebp]
	add	ecx, 1
	mov	DWORD PTR _ret$[ebp], ecx

; 5052 :     }

	jmp	$LN4@xmlSchemaN
$LN5@xmlSchemaN:

; 5053 :     return(ret);

	mov	eax, DWORD PTR _ret$[ebp]
$LN1@xmlSchemaN:

; 5054 : }

	add	esp, 8
	cmp	ebp, esp
	call	__RTC_CheckEsp
	mov	esp, ebp
	pop	ebp
	ret	0
_xmlSchemaNormLen ENDP
_TEXT	ENDS
; Function compile flags: /Odtp /RTCsu
; File c:\users\dag\documents\_clients\codeproject authors group\windows on arm\libxml2\libxml2-2.9.9\xmlschemastypes.c
;	COMDAT _xmlSchemaCompareValuesWhtspExt
_TEXT	SEGMENT
_xtype$ = 8						; size = 4
_x$ = 12						; size = 4
_xvalue$ = 16						; size = 4
_xws$ = 20						; size = 4
_ytype$ = 24						; size = 4
_y$ = 28						; size = 4
_yvalue$ = 32						; size = 4
_yws$ = 36						; size = 4
_xmlSchemaCompareValuesWhtspExt PROC			; COMDAT

; 5005 : {

	push	ebp
	mov	ebp, esp
	mov	ecx, OFFSET __74485836_xmlschemastypes@c
	call	@__CheckForDebuggerJustMyCode@4

; 5006 :     return(xmlSchemaCompareValuesInternal(xtype, x, xvalue, xws, ytype, y,

	mov	eax, DWORD PTR _yws$[ebp]
	push	eax
	mov	ecx, DWORD PTR _yvalue$[ebp]
	push	ecx
	mov	edx, DWORD PTR _y$[ebp]
	push	edx
	mov	eax, DWORD PTR _ytype$[ebp]
	push	eax
	mov	ecx, DWORD PTR _xws$[ebp]
	push	ecx
	mov	edx, DWORD PTR _xvalue$[ebp]
	push	edx
	mov	eax, DWORD PTR _x$[ebp]
	push	eax
	mov	ecx, DWORD PTR _xtype$[ebp]
	push	ecx
	call	_xmlSchemaCompareValuesInternal
	add	esp, 32					; 00000020H

; 5007 : 	yvalue, yws));
; 5008 : }

	cmp	ebp, esp
	call	__RTC_CheckEsp
	pop	ebp
	ret	0
_xmlSchemaCompareValuesWhtspExt ENDP
_TEXT	ENDS
; Function compile flags: /Odtp /RTCsu
; File c:\users\dag\documents\_clients\codeproject authors group\windows on arm\libxml2\libxml2-2.9.9\xmlschemastypes.c
;	COMDAT _xmlSchemaCompareValuesInternal
_TEXT	SEGMENT
tv64 = -20						; size = 4
_ret$1 = -16						; size = 4
_ret$2 = -12						; size = 4
_yv$3 = -8						; size = 4
_xv$4 = -4						; size = 4
_xtype$ = 8						; size = 4
_x$ = 12						; size = 4
_xvalue$ = 16						; size = 4
_xws$ = 20						; size = 4
_ytype$ = 24						; size = 4
_y$ = 28						; size = 4
_yvalue$ = 32						; size = 4
_yws$ = 36						; size = 4
_xmlSchemaCompareValuesInternal PROC			; COMDAT

; 4699 : {

	push	ebp
	mov	ebp, esp
	sub	esp, 20					; 00000014H
	push	esi
	mov	eax, -858993460				; ccccccccH
	mov	DWORD PTR [ebp-20], eax
	mov	DWORD PTR [ebp-16], eax
	mov	DWORD PTR [ebp-12], eax
	mov	DWORD PTR [ebp-8], eax
	mov	DWORD PTR [ebp-4], eax
	mov	ecx, OFFSET __74485836_xmlschemastypes@c
	call	@__CheckForDebuggerJustMyCode@4

; 4700 :     switch (xtype) {

	mov	eax, DWORD PTR _xtype$[ebp]
	mov	DWORD PTR tv64[ebp], eax
	cmp	DWORD PTR tv64[ebp], 46			; 0000002eH
	ja	$LN2@xmlSchemaC
	mov	ecx, DWORD PTR tv64[ebp]
	movzx	edx, BYTE PTR $LN89@xmlSchemaC[ecx]
	jmp	DWORD PTR $LN90@xmlSchemaC[edx*4]
$LN4@xmlSchemaC:

; 4701 : 	case XML_SCHEMAS_UNKNOWN:
; 4702 : 	case XML_SCHEMAS_ANYTYPE:
; 4703 : 	    return(-2);

	mov	eax, -2					; fffffffeH
	jmp	$LN1@xmlSchemaC
$LN5@xmlSchemaC:

; 4704 :         case XML_SCHEMAS_INTEGER:
; 4705 :         case XML_SCHEMAS_NPINTEGER:
; 4706 :         case XML_SCHEMAS_NINTEGER:
; 4707 :         case XML_SCHEMAS_NNINTEGER:
; 4708 :         case XML_SCHEMAS_PINTEGER:
; 4709 :         case XML_SCHEMAS_INT:
; 4710 :         case XML_SCHEMAS_UINT:
; 4711 :         case XML_SCHEMAS_LONG:
; 4712 :         case XML_SCHEMAS_ULONG:
; 4713 :         case XML_SCHEMAS_SHORT:
; 4714 :         case XML_SCHEMAS_USHORT:
; 4715 :         case XML_SCHEMAS_BYTE:
; 4716 :         case XML_SCHEMAS_UBYTE:
; 4717 : 	case XML_SCHEMAS_DECIMAL:
; 4718 : 	    if ((x == NULL) || (y == NULL))

	cmp	DWORD PTR _x$[ebp], 0
	je	SHORT $LN7@xmlSchemaC
	cmp	DWORD PTR _y$[ebp], 0
	jne	SHORT $LN6@xmlSchemaC
$LN7@xmlSchemaC:

; 4719 : 		return(-2);

	mov	eax, -2					; fffffffeH
	jmp	$LN1@xmlSchemaC
$LN6@xmlSchemaC:

; 4720 : 	    if (ytype == xtype)

	mov	eax, DWORD PTR _ytype$[ebp]
	cmp	eax, DWORD PTR _xtype$[ebp]
	jne	SHORT $LN8@xmlSchemaC

; 4721 : 		return(xmlSchemaCompareDecimals(x, y));

	mov	ecx, DWORD PTR _y$[ebp]
	push	ecx
	mov	edx, DWORD PTR _x$[ebp]
	push	edx
	call	_xmlSchemaCompareDecimals
	add	esp, 8
	jmp	$LN1@xmlSchemaC
$LN8@xmlSchemaC:

; 4722 : 	    if ((ytype == XML_SCHEMAS_DECIMAL) ||
; 4723 : 		(ytype == XML_SCHEMAS_INTEGER) ||
; 4724 : 		(ytype == XML_SCHEMAS_NPINTEGER) ||
; 4725 : 		(ytype == XML_SCHEMAS_NINTEGER) ||
; 4726 : 		(ytype == XML_SCHEMAS_NNINTEGER) ||
; 4727 : 		(ytype == XML_SCHEMAS_PINTEGER) ||
; 4728 : 		(ytype == XML_SCHEMAS_INT) ||
; 4729 : 		(ytype == XML_SCHEMAS_UINT) ||
; 4730 : 		(ytype == XML_SCHEMAS_LONG) ||
; 4731 : 		(ytype == XML_SCHEMAS_ULONG) ||
; 4732 : 		(ytype == XML_SCHEMAS_SHORT) ||
; 4733 : 		(ytype == XML_SCHEMAS_USHORT) ||
; 4734 : 		(ytype == XML_SCHEMAS_BYTE) ||

	cmp	DWORD PTR _ytype$[ebp], 3
	je	SHORT $LN10@xmlSchemaC
	cmp	DWORD PTR _ytype$[ebp], 30		; 0000001eH
	je	SHORT $LN10@xmlSchemaC
	cmp	DWORD PTR _ytype$[ebp], 31		; 0000001fH
	je	SHORT $LN10@xmlSchemaC
	cmp	DWORD PTR _ytype$[ebp], 32		; 00000020H
	je	SHORT $LN10@xmlSchemaC
	cmp	DWORD PTR _ytype$[ebp], 33		; 00000021H
	je	SHORT $LN10@xmlSchemaC
	cmp	DWORD PTR _ytype$[ebp], 34		; 00000022H
	je	SHORT $LN10@xmlSchemaC
	cmp	DWORD PTR _ytype$[ebp], 35		; 00000023H
	je	SHORT $LN10@xmlSchemaC
	cmp	DWORD PTR _ytype$[ebp], 36		; 00000024H
	je	SHORT $LN10@xmlSchemaC
	cmp	DWORD PTR _ytype$[ebp], 37		; 00000025H
	je	SHORT $LN10@xmlSchemaC
	cmp	DWORD PTR _ytype$[ebp], 38		; 00000026H
	je	SHORT $LN10@xmlSchemaC
	cmp	DWORD PTR _ytype$[ebp], 39		; 00000027H
	je	SHORT $LN10@xmlSchemaC
	cmp	DWORD PTR _ytype$[ebp], 40		; 00000028H
	je	SHORT $LN10@xmlSchemaC
	cmp	DWORD PTR _ytype$[ebp], 41		; 00000029H
	je	SHORT $LN10@xmlSchemaC
	cmp	DWORD PTR _ytype$[ebp], 42		; 0000002aH
	jne	SHORT $LN9@xmlSchemaC
$LN10@xmlSchemaC:

; 4735 : 		(ytype == XML_SCHEMAS_UBYTE))
; 4736 : 		return(xmlSchemaCompareDecimals(x, y));

	mov	eax, DWORD PTR _y$[ebp]
	push	eax
	mov	ecx, DWORD PTR _x$[ebp]
	push	ecx
	call	_xmlSchemaCompareDecimals
	add	esp, 8
	jmp	$LN1@xmlSchemaC
$LN9@xmlSchemaC:

; 4737 : 	    return(-2);

	mov	eax, -2					; fffffffeH
	jmp	$LN1@xmlSchemaC
$LN11@xmlSchemaC:

; 4738 :         case XML_SCHEMAS_DURATION:
; 4739 : 	    if ((x == NULL) || (y == NULL))

	cmp	DWORD PTR _x$[ebp], 0
	je	SHORT $LN13@xmlSchemaC
	cmp	DWORD PTR _y$[ebp], 0
	jne	SHORT $LN12@xmlSchemaC
$LN13@xmlSchemaC:

; 4740 : 		return(-2);

	mov	eax, -2					; fffffffeH
	jmp	$LN1@xmlSchemaC
$LN12@xmlSchemaC:

; 4741 : 	    if (ytype == XML_SCHEMAS_DURATION)

	cmp	DWORD PTR _ytype$[ebp], 12		; 0000000cH
	jne	SHORT $LN14@xmlSchemaC

; 4742 :                 return(xmlSchemaCompareDurations(x, y));

	mov	edx, DWORD PTR _y$[ebp]
	push	edx
	mov	eax, DWORD PTR _x$[ebp]
	push	eax
	call	_xmlSchemaCompareDurations
	add	esp, 8
	jmp	$LN1@xmlSchemaC
$LN14@xmlSchemaC:

; 4743 :             return(-2);

	mov	eax, -2					; fffffffeH
	jmp	$LN1@xmlSchemaC
$LN15@xmlSchemaC:

; 4744 :         case XML_SCHEMAS_TIME:
; 4745 :         case XML_SCHEMAS_GDAY:
; 4746 :         case XML_SCHEMAS_GMONTH:
; 4747 :         case XML_SCHEMAS_GMONTHDAY:
; 4748 :         case XML_SCHEMAS_GYEAR:
; 4749 :         case XML_SCHEMAS_GYEARMONTH:
; 4750 :         case XML_SCHEMAS_DATE:
; 4751 :         case XML_SCHEMAS_DATETIME:
; 4752 : 	    if ((x == NULL) || (y == NULL))

	cmp	DWORD PTR _x$[ebp], 0
	je	SHORT $LN17@xmlSchemaC
	cmp	DWORD PTR _y$[ebp], 0
	jne	SHORT $LN16@xmlSchemaC
$LN17@xmlSchemaC:

; 4753 : 		return(-2);

	mov	eax, -2					; fffffffeH
	jmp	$LN1@xmlSchemaC
$LN16@xmlSchemaC:

; 4754 :             if ((ytype == XML_SCHEMAS_DATETIME)  ||
; 4755 :                 (ytype == XML_SCHEMAS_TIME)      ||
; 4756 :                 (ytype == XML_SCHEMAS_GDAY)      ||
; 4757 :                 (ytype == XML_SCHEMAS_GMONTH)    ||
; 4758 :                 (ytype == XML_SCHEMAS_GMONTHDAY) ||
; 4759 :                 (ytype == XML_SCHEMAS_GYEAR)     ||
; 4760 :                 (ytype == XML_SCHEMAS_DATE)      ||

	cmp	DWORD PTR _ytype$[ebp], 11		; 0000000bH
	je	SHORT $LN19@xmlSchemaC
	cmp	DWORD PTR _ytype$[ebp], 4
	je	SHORT $LN19@xmlSchemaC
	cmp	DWORD PTR _ytype$[ebp], 5
	je	SHORT $LN19@xmlSchemaC
	cmp	DWORD PTR _ytype$[ebp], 6
	je	SHORT $LN19@xmlSchemaC
	cmp	DWORD PTR _ytype$[ebp], 7
	je	SHORT $LN19@xmlSchemaC
	cmp	DWORD PTR _ytype$[ebp], 8
	je	SHORT $LN19@xmlSchemaC
	cmp	DWORD PTR _ytype$[ebp], 10		; 0000000aH
	je	SHORT $LN19@xmlSchemaC
	cmp	DWORD PTR _ytype$[ebp], 9
	jne	SHORT $LN18@xmlSchemaC
$LN19@xmlSchemaC:

; 4761 :                 (ytype == XML_SCHEMAS_GYEARMONTH))
; 4762 :                 return (xmlSchemaCompareDates(x, y));

	mov	ecx, DWORD PTR _y$[ebp]
	push	ecx
	mov	edx, DWORD PTR _x$[ebp]
	push	edx
	call	_xmlSchemaCompareDates
	add	esp, 8
	jmp	$LN1@xmlSchemaC
$LN18@xmlSchemaC:

; 4763 :             return (-2);

	mov	eax, -2					; fffffffeH
	jmp	$LN1@xmlSchemaC
$LN20@xmlSchemaC:

; 4764 : 	/*
; 4765 : 	* Note that we will support comparison of string types against
; 4766 : 	* anySimpleType as well.
; 4767 : 	*/
; 4768 : 	case XML_SCHEMAS_ANYSIMPLETYPE:
; 4769 : 	case XML_SCHEMAS_STRING:
; 4770 :         case XML_SCHEMAS_NORMSTRING:
; 4771 :         case XML_SCHEMAS_TOKEN:
; 4772 :         case XML_SCHEMAS_LANGUAGE:
; 4773 :         case XML_SCHEMAS_NMTOKEN:
; 4774 :         case XML_SCHEMAS_NAME:
; 4775 :         case XML_SCHEMAS_NCNAME:
; 4776 :         case XML_SCHEMAS_ID:
; 4777 :         case XML_SCHEMAS_IDREF:
; 4778 :         case XML_SCHEMAS_ENTITY:
; 4779 :         case XML_SCHEMAS_ANYURI:
; 4780 : 	{
; 4781 : 	    const xmlChar *xv, *yv;
; 4782 : 
; 4783 : 	    if (x == NULL)

	cmp	DWORD PTR _x$[ebp], 0
	jne	SHORT $LN21@xmlSchemaC

; 4784 : 		xv = xvalue;

	mov	eax, DWORD PTR _xvalue$[ebp]
	mov	DWORD PTR _xv$4[ebp], eax
	jmp	SHORT $LN22@xmlSchemaC
$LN21@xmlSchemaC:

; 4785 : 	    else
; 4786 : 		xv = x->value.str;

	mov	ecx, DWORD PTR _x$[ebp]
	mov	edx, DWORD PTR [ecx+8]
	mov	DWORD PTR _xv$4[ebp], edx
$LN22@xmlSchemaC:

; 4787 : 	    if (y == NULL)

	cmp	DWORD PTR _y$[ebp], 0
	jne	SHORT $LN23@xmlSchemaC

; 4788 : 		yv = yvalue;

	mov	eax, DWORD PTR _yvalue$[ebp]
	mov	DWORD PTR _yv$3[ebp], eax
	jmp	SHORT $LN24@xmlSchemaC
$LN23@xmlSchemaC:

; 4789 : 	    else
; 4790 : 		yv = y->value.str;

	mov	ecx, DWORD PTR _y$[ebp]
	mov	edx, DWORD PTR [ecx+8]
	mov	DWORD PTR _yv$3[ebp], edx
$LN24@xmlSchemaC:

; 4791 : 	    /*
; 4792 : 	    * TODO: Compare those against QName.
; 4793 : 	    */
; 4794 : 	    if (ytype == XML_SCHEMAS_QNAME) {

	cmp	DWORD PTR _ytype$[ebp], 21		; 00000015H
	jne	SHORT $LN25@xmlSchemaC

; 4795 : 		TODO

	mov	esi, esp
	push	4795					; 000012bbH
	push	OFFSET ??_C@_0HB@FHPILMCP@c?3?2users?2dag?2documents?2_clients@
	push	OFFSET ??_C@_0BO@MDEMDPPE@Unimplemented?5block?5at?5?$CFs?3?$CFd?6@
	call	___xmlGenericErrorContext
	mov	eax, DWORD PTR [eax]
	push	eax
	call	___xmlGenericError
	mov	ecx, DWORD PTR [eax]
	call	ecx
	add	esp, 16					; 00000010H
	cmp	esi, esp
	call	__RTC_CheckEsp

; 4796 : 		if (y == NULL)

	cmp	DWORD PTR _y$[ebp], 0
	jne	SHORT $LN26@xmlSchemaC

; 4797 : 		    return(-2);

	mov	eax, -2					; fffffffeH
	jmp	$LN1@xmlSchemaC
$LN26@xmlSchemaC:

; 4798 : 		return (-2);

	mov	eax, -2					; fffffffeH
	jmp	$LN1@xmlSchemaC
$LN25@xmlSchemaC:

; 4799 : 	    }
; 4800 :             if ((ytype == XML_SCHEMAS_ANYSIMPLETYPE) ||
; 4801 : 		(ytype == XML_SCHEMAS_STRING) ||
; 4802 : 		(ytype == XML_SCHEMAS_NORMSTRING) ||
; 4803 :                 (ytype == XML_SCHEMAS_TOKEN) ||
; 4804 :                 (ytype == XML_SCHEMAS_LANGUAGE) ||
; 4805 :                 (ytype == XML_SCHEMAS_NMTOKEN) ||
; 4806 :                 (ytype == XML_SCHEMAS_NAME) ||
; 4807 :                 (ytype == XML_SCHEMAS_NCNAME) ||
; 4808 :                 (ytype == XML_SCHEMAS_ID) ||
; 4809 :                 (ytype == XML_SCHEMAS_IDREF) ||
; 4810 :                 (ytype == XML_SCHEMAS_ENTITY) ||

	cmp	DWORD PTR _ytype$[ebp], 46		; 0000002eH
	je	SHORT $LN28@xmlSchemaC
	cmp	DWORD PTR _ytype$[ebp], 1
	je	SHORT $LN28@xmlSchemaC
	cmp	DWORD PTR _ytype$[ebp], 2
	je	SHORT $LN28@xmlSchemaC
	cmp	DWORD PTR _ytype$[ebp], 16		; 00000010H
	je	SHORT $LN28@xmlSchemaC
	cmp	DWORD PTR _ytype$[ebp], 17		; 00000011H
	je	SHORT $LN28@xmlSchemaC
	cmp	DWORD PTR _ytype$[ebp], 18		; 00000012H
	je	SHORT $LN28@xmlSchemaC
	cmp	DWORD PTR _ytype$[ebp], 20		; 00000014H
	je	SHORT $LN28@xmlSchemaC
	cmp	DWORD PTR _ytype$[ebp], 22		; 00000016H
	je	SHORT $LN28@xmlSchemaC
	cmp	DWORD PTR _ytype$[ebp], 23		; 00000017H
	je	SHORT $LN28@xmlSchemaC
	cmp	DWORD PTR _ytype$[ebp], 24		; 00000018H
	je	SHORT $LN28@xmlSchemaC
	cmp	DWORD PTR _ytype$[ebp], 26		; 0000001aH
	je	SHORT $LN28@xmlSchemaC
	cmp	DWORD PTR _ytype$[ebp], 29		; 0000001dH
	jne	$LN27@xmlSchemaC
$LN28@xmlSchemaC:

; 4811 :                 (ytype == XML_SCHEMAS_ANYURI)) {
; 4812 : 
; 4813 : 		if (xws == XML_SCHEMA_WHITESPACE_PRESERVE) {

	cmp	DWORD PTR _xws$[ebp], 1
	jne	SHORT $LN29@xmlSchemaC

; 4814 : 
; 4815 : 		    if (yws == XML_SCHEMA_WHITESPACE_PRESERVE) {

	cmp	DWORD PTR _yws$[ebp], 1
	jne	SHORT $LN31@xmlSchemaC

; 4816 : 			/* TODO: What about x < y or x > y. */
; 4817 : 			if (xmlStrEqual(xv, yv))

	mov	edx, DWORD PTR _yv$3[ebp]
	push	edx
	mov	eax, DWORD PTR _xv$4[ebp]
	push	eax
	call	_xmlStrEqual
	add	esp, 8
	test	eax, eax
	je	SHORT $LN33@xmlSchemaC

; 4818 : 			    return (0);

	xor	eax, eax
	jmp	$LN1@xmlSchemaC
	jmp	SHORT $LN34@xmlSchemaC
$LN33@xmlSchemaC:

; 4819 : 			else
; 4820 : 			    return (2);

	mov	eax, 2
	jmp	$LN1@xmlSchemaC
$LN34@xmlSchemaC:

; 4821 : 		    } else if (yws == XML_SCHEMA_WHITESPACE_REPLACE)

	jmp	SHORT $LN32@xmlSchemaC
$LN31@xmlSchemaC:
	cmp	DWORD PTR _yws$[ebp], 2
	jne	SHORT $LN35@xmlSchemaC

; 4822 : 			return (xmlSchemaComparePreserveReplaceStrings(xv, yv, 0));

	push	0
	mov	ecx, DWORD PTR _yv$3[ebp]
	push	ecx
	mov	edx, DWORD PTR _xv$4[ebp]
	push	edx
	call	_xmlSchemaComparePreserveReplaceStrings
	add	esp, 12					; 0000000cH
	jmp	$LN1@xmlSchemaC
	jmp	SHORT $LN32@xmlSchemaC
$LN35@xmlSchemaC:

; 4823 : 		    else if (yws == XML_SCHEMA_WHITESPACE_COLLAPSE)

	cmp	DWORD PTR _yws$[ebp], 3
	jne	SHORT $LN32@xmlSchemaC

; 4824 : 			return (xmlSchemaComparePreserveCollapseStrings(xv, yv, 0));

	push	0
	mov	eax, DWORD PTR _yv$3[ebp]
	push	eax
	mov	ecx, DWORD PTR _xv$4[ebp]
	push	ecx
	call	_xmlSchemaComparePreserveCollapseStrings
	add	esp, 12					; 0000000cH
	jmp	$LN1@xmlSchemaC
$LN32@xmlSchemaC:

; 4825 : 
; 4826 : 		} else if (xws == XML_SCHEMA_WHITESPACE_REPLACE) {

	jmp	$LN27@xmlSchemaC
$LN29@xmlSchemaC:
	cmp	DWORD PTR _xws$[ebp], 2
	jne	SHORT $LN38@xmlSchemaC

; 4827 : 
; 4828 : 		    if (yws == XML_SCHEMA_WHITESPACE_PRESERVE)

	cmp	DWORD PTR _yws$[ebp], 1
	jne	SHORT $LN40@xmlSchemaC

; 4829 : 			return (xmlSchemaComparePreserveReplaceStrings(yv, xv, 1));

	push	1
	mov	edx, DWORD PTR _xv$4[ebp]
	push	edx
	mov	eax, DWORD PTR _yv$3[ebp]
	push	eax
	call	_xmlSchemaComparePreserveReplaceStrings
	add	esp, 12					; 0000000cH
	jmp	$LN1@xmlSchemaC
$LN40@xmlSchemaC:

; 4830 : 		    if (yws == XML_SCHEMA_WHITESPACE_REPLACE)

	cmp	DWORD PTR _yws$[ebp], 2
	jne	SHORT $LN41@xmlSchemaC

; 4831 : 			return (xmlSchemaCompareReplacedStrings(xv, yv));

	mov	ecx, DWORD PTR _yv$3[ebp]
	push	ecx
	mov	edx, DWORD PTR _xv$4[ebp]
	push	edx
	call	_xmlSchemaCompareReplacedStrings
	add	esp, 8
	jmp	$LN1@xmlSchemaC
$LN41@xmlSchemaC:

; 4832 : 		    if (yws == XML_SCHEMA_WHITESPACE_COLLAPSE)

	cmp	DWORD PTR _yws$[ebp], 3
	jne	SHORT $LN42@xmlSchemaC

; 4833 : 			return (xmlSchemaCompareReplaceCollapseStrings(xv, yv, 0));

	push	0
	mov	eax, DWORD PTR _yv$3[ebp]
	push	eax
	mov	ecx, DWORD PTR _xv$4[ebp]
	push	ecx
	call	_xmlSchemaCompareReplaceCollapseStrings
	add	esp, 12					; 0000000cH
	jmp	$LN1@xmlSchemaC
$LN42@xmlSchemaC:

; 4834 : 
; 4835 : 		} else if (xws == XML_SCHEMA_WHITESPACE_COLLAPSE) {

	jmp	SHORT $LN27@xmlSchemaC
$LN38@xmlSchemaC:
	cmp	DWORD PTR _xws$[ebp], 3
	jne	SHORT $LN43@xmlSchemaC

; 4836 : 
; 4837 : 		    if (yws == XML_SCHEMA_WHITESPACE_PRESERVE)

	cmp	DWORD PTR _yws$[ebp], 1
	jne	SHORT $LN45@xmlSchemaC

; 4838 : 			return (xmlSchemaComparePreserveCollapseStrings(yv, xv, 1));

	push	1
	mov	edx, DWORD PTR _xv$4[ebp]
	push	edx
	mov	eax, DWORD PTR _yv$3[ebp]
	push	eax
	call	_xmlSchemaComparePreserveCollapseStrings
	add	esp, 12					; 0000000cH
	jmp	$LN1@xmlSchemaC
$LN45@xmlSchemaC:

; 4839 : 		    if (yws == XML_SCHEMA_WHITESPACE_REPLACE)

	cmp	DWORD PTR _yws$[ebp], 2
	jne	SHORT $LN46@xmlSchemaC

; 4840 : 			return (xmlSchemaCompareReplaceCollapseStrings(yv, xv, 1));

	push	1
	mov	ecx, DWORD PTR _xv$4[ebp]
	push	ecx
	mov	edx, DWORD PTR _yv$3[ebp]
	push	edx
	call	_xmlSchemaCompareReplaceCollapseStrings
	add	esp, 12					; 0000000cH
	jmp	$LN1@xmlSchemaC
$LN46@xmlSchemaC:

; 4841 : 		    if (yws == XML_SCHEMA_WHITESPACE_COLLAPSE)

	cmp	DWORD PTR _yws$[ebp], 3
	jne	SHORT $LN47@xmlSchemaC

; 4842 : 			return (xmlSchemaCompareNormStrings(xv, yv));

	mov	eax, DWORD PTR _yv$3[ebp]
	push	eax
	mov	ecx, DWORD PTR _xv$4[ebp]
	push	ecx
	call	_xmlSchemaCompareNormStrings
	add	esp, 8
	jmp	$LN1@xmlSchemaC
$LN47@xmlSchemaC:

; 4843 : 		} else

	jmp	SHORT $LN27@xmlSchemaC
$LN43@xmlSchemaC:

; 4844 : 		    return (-2);

	mov	eax, -2					; fffffffeH
	jmp	$LN1@xmlSchemaC
$LN27@xmlSchemaC:

; 4845 : 
; 4846 : 	    }
; 4847 :             return (-2);

	mov	eax, -2					; fffffffeH
	jmp	$LN1@xmlSchemaC
$LN48@xmlSchemaC:

; 4848 : 	}
; 4849 :         case XML_SCHEMAS_QNAME:
; 4850 : 	case XML_SCHEMAS_NOTATION:
; 4851 : 	    if ((x == NULL) || (y == NULL))

	cmp	DWORD PTR _x$[ebp], 0
	je	SHORT $LN50@xmlSchemaC
	cmp	DWORD PTR _y$[ebp], 0
	jne	SHORT $LN49@xmlSchemaC
$LN50@xmlSchemaC:

; 4852 : 		return(-2);

	mov	eax, -2					; fffffffeH
	jmp	$LN1@xmlSchemaC
$LN49@xmlSchemaC:

; 4853 :             if ((ytype == XML_SCHEMAS_QNAME) ||

	cmp	DWORD PTR _ytype$[ebp], 21		; 00000015H
	je	SHORT $LN52@xmlSchemaC
	cmp	DWORD PTR _ytype$[ebp], 28		; 0000001cH
	jne	SHORT $LN51@xmlSchemaC
$LN52@xmlSchemaC:

; 4854 : 		(ytype == XML_SCHEMAS_NOTATION)) {
; 4855 : 		if ((xmlStrEqual(x->value.qname.name, y->value.qname.name)) &&

	mov	edx, DWORD PTR _y$[ebp]
	mov	eax, DWORD PTR [edx+8]
	push	eax
	mov	ecx, DWORD PTR _x$[ebp]
	mov	edx, DWORD PTR [ecx+8]
	push	edx
	call	_xmlStrEqual
	add	esp, 8
	test	eax, eax
	je	SHORT $LN53@xmlSchemaC
	mov	eax, DWORD PTR _y$[ebp]
	mov	ecx, DWORD PTR [eax+12]
	push	ecx
	mov	edx, DWORD PTR _x$[ebp]
	mov	eax, DWORD PTR [edx+12]
	push	eax
	call	_xmlStrEqual
	add	esp, 8
	test	eax, eax
	je	SHORT $LN53@xmlSchemaC

; 4856 : 		    (xmlStrEqual(x->value.qname.uri, y->value.qname.uri)))
; 4857 : 		    return(0);

	xor	eax, eax
	jmp	$LN1@xmlSchemaC
$LN53@xmlSchemaC:

; 4858 : 		return(2);

	mov	eax, 2
	jmp	$LN1@xmlSchemaC
$LN51@xmlSchemaC:

; 4859 : 	    }
; 4860 : 	    return (-2);

	mov	eax, -2					; fffffffeH
	jmp	$LN1@xmlSchemaC
$LN54@xmlSchemaC:

; 4861 :         case XML_SCHEMAS_FLOAT:
; 4862 :         case XML_SCHEMAS_DOUBLE:
; 4863 : 	    if ((x == NULL) || (y == NULL))

	cmp	DWORD PTR _x$[ebp], 0
	je	SHORT $LN56@xmlSchemaC
	cmp	DWORD PTR _y$[ebp], 0
	jne	SHORT $LN55@xmlSchemaC
$LN56@xmlSchemaC:

; 4864 : 		return(-2);

	mov	eax, -2					; fffffffeH
	jmp	$LN1@xmlSchemaC
$LN55@xmlSchemaC:

; 4865 :             if ((ytype == XML_SCHEMAS_FLOAT) ||

	cmp	DWORD PTR _ytype$[ebp], 13		; 0000000dH
	je	SHORT $LN58@xmlSchemaC
	cmp	DWORD PTR _ytype$[ebp], 14		; 0000000eH
	jne	SHORT $LN57@xmlSchemaC
$LN58@xmlSchemaC:

; 4866 :                 (ytype == XML_SCHEMAS_DOUBLE))
; 4867 :                 return (xmlSchemaCompareFloats(x, y));

	mov	ecx, DWORD PTR _y$[ebp]
	push	ecx
	mov	edx, DWORD PTR _x$[ebp]
	push	edx
	call	_xmlSchemaCompareFloats
	add	esp, 8
	jmp	$LN1@xmlSchemaC
$LN57@xmlSchemaC:

; 4868 :             return (-2);

	mov	eax, -2					; fffffffeH
	jmp	$LN1@xmlSchemaC
$LN59@xmlSchemaC:

; 4869 :         case XML_SCHEMAS_BOOLEAN:
; 4870 : 	    if ((x == NULL) || (y == NULL))

	cmp	DWORD PTR _x$[ebp], 0
	je	SHORT $LN61@xmlSchemaC
	cmp	DWORD PTR _y$[ebp], 0
	jne	SHORT $LN60@xmlSchemaC
$LN61@xmlSchemaC:

; 4871 : 		return(-2);

	mov	eax, -2					; fffffffeH
	jmp	$LN1@xmlSchemaC
$LN60@xmlSchemaC:

; 4872 :             if (ytype == XML_SCHEMAS_BOOLEAN) {

	cmp	DWORD PTR _ytype$[ebp], 15		; 0000000fH
	jne	SHORT $LN62@xmlSchemaC

; 4873 : 		if (x->value.b == y->value.b)

	mov	eax, DWORD PTR _x$[ebp]
	mov	ecx, DWORD PTR _y$[ebp]
	mov	edx, DWORD PTR [eax+8]
	cmp	edx, DWORD PTR [ecx+8]
	jne	SHORT $LN63@xmlSchemaC

; 4874 : 		    return(0);

	xor	eax, eax
	jmp	$LN1@xmlSchemaC
$LN63@xmlSchemaC:

; 4875 : 		if (x->value.b == 0)

	mov	eax, DWORD PTR _x$[ebp]
	cmp	DWORD PTR [eax+8], 0
	jne	SHORT $LN64@xmlSchemaC

; 4876 : 		    return(-1);

	or	eax, -1
	jmp	$LN1@xmlSchemaC
$LN64@xmlSchemaC:

; 4877 : 		return(1);

	mov	eax, 1
	jmp	$LN1@xmlSchemaC
$LN62@xmlSchemaC:

; 4878 : 	    }
; 4879 : 	    return (-2);

	mov	eax, -2					; fffffffeH
	jmp	$LN1@xmlSchemaC
$LN65@xmlSchemaC:

; 4880 :         case XML_SCHEMAS_HEXBINARY:
; 4881 : 	    if ((x == NULL) || (y == NULL))

	cmp	DWORD PTR _x$[ebp], 0
	je	SHORT $LN67@xmlSchemaC
	cmp	DWORD PTR _y$[ebp], 0
	jne	SHORT $LN66@xmlSchemaC
$LN67@xmlSchemaC:

; 4882 : 		return(-2);

	mov	eax, -2					; fffffffeH
	jmp	$LN1@xmlSchemaC
$LN66@xmlSchemaC:

; 4883 :             if (ytype == XML_SCHEMAS_HEXBINARY) {

	cmp	DWORD PTR _ytype$[ebp], 43		; 0000002bH
	jne	SHORT $LN68@xmlSchemaC

; 4884 : 	        if (x->value.hex.total == y->value.hex.total) {

	mov	ecx, DWORD PTR _x$[ebp]
	mov	edx, DWORD PTR _y$[ebp]
	mov	eax, DWORD PTR [ecx+12]
	cmp	eax, DWORD PTR [edx+12]
	jne	SHORT $LN69@xmlSchemaC

; 4885 : 		    int ret = xmlStrcmp(x->value.hex.str, y->value.hex.str);

	mov	ecx, DWORD PTR _y$[ebp]
	mov	edx, DWORD PTR [ecx+8]
	push	edx
	mov	eax, DWORD PTR _x$[ebp]
	mov	ecx, DWORD PTR [eax+8]
	push	ecx
	call	_xmlStrcmp
	add	esp, 8
	mov	DWORD PTR _ret$2[ebp], eax

; 4886 : 		    if (ret > 0)

	cmp	DWORD PTR _ret$2[ebp], 0
	jle	SHORT $LN71@xmlSchemaC

; 4887 : 			return(1);

	mov	eax, 1
	jmp	$LN1@xmlSchemaC
	jmp	SHORT $LN72@xmlSchemaC
$LN71@xmlSchemaC:

; 4888 : 		    else if (ret == 0)

	cmp	DWORD PTR _ret$2[ebp], 0
	jne	SHORT $LN72@xmlSchemaC

; 4889 : 			return(0);

	xor	eax, eax
	jmp	$LN1@xmlSchemaC
$LN72@xmlSchemaC:

; 4890 : 		}

	jmp	SHORT $LN70@xmlSchemaC
$LN69@xmlSchemaC:

; 4891 : 		else if (x->value.hex.total > y->value.hex.total)

	mov	edx, DWORD PTR _x$[ebp]
	mov	eax, DWORD PTR _y$[ebp]
	mov	ecx, DWORD PTR [edx+12]
	cmp	ecx, DWORD PTR [eax+12]
	jbe	SHORT $LN70@xmlSchemaC

; 4892 : 		    return(1);

	mov	eax, 1
	jmp	$LN1@xmlSchemaC
$LN70@xmlSchemaC:

; 4893 : 
; 4894 : 		return(-1);

	or	eax, -1
	jmp	$LN1@xmlSchemaC
$LN68@xmlSchemaC:

; 4895 :             }
; 4896 :             return (-2);

	mov	eax, -2					; fffffffeH
	jmp	$LN1@xmlSchemaC
$LN75@xmlSchemaC:

; 4897 :         case XML_SCHEMAS_BASE64BINARY:
; 4898 : 	    if ((x == NULL) || (y == NULL))

	cmp	DWORD PTR _x$[ebp], 0
	je	SHORT $LN77@xmlSchemaC
	cmp	DWORD PTR _y$[ebp], 0
	jne	SHORT $LN76@xmlSchemaC
$LN77@xmlSchemaC:

; 4899 : 		return(-2);

	mov	eax, -2					; fffffffeH
	jmp	$LN1@xmlSchemaC
$LN76@xmlSchemaC:

; 4900 :             if (ytype == XML_SCHEMAS_BASE64BINARY) {

	cmp	DWORD PTR _ytype$[ebp], 44		; 0000002cH
	jne	SHORT $LN78@xmlSchemaC

; 4901 :                 if (x->value.base64.total == y->value.base64.total) {

	mov	edx, DWORD PTR _x$[ebp]
	mov	eax, DWORD PTR _y$[ebp]
	mov	ecx, DWORD PTR [edx+12]
	cmp	ecx, DWORD PTR [eax+12]
	jne	SHORT $LN79@xmlSchemaC

; 4902 :                     int ret = xmlStrcmp(x->value.base64.str,

	mov	edx, DWORD PTR _y$[ebp]
	mov	eax, DWORD PTR [edx+8]
	push	eax
	mov	ecx, DWORD PTR _x$[ebp]
	mov	edx, DWORD PTR [ecx+8]
	push	edx
	call	_xmlStrcmp
	add	esp, 8
	mov	DWORD PTR _ret$1[ebp], eax

; 4903 : 		                        y->value.base64.str);
; 4904 :                     if (ret > 0)

	cmp	DWORD PTR _ret$1[ebp], 0
	jle	SHORT $LN81@xmlSchemaC

; 4905 :                         return(1);

	mov	eax, 1
	jmp	SHORT $LN1@xmlSchemaC
	jmp	SHORT $LN82@xmlSchemaC
$LN81@xmlSchemaC:

; 4906 :                     else if (ret == 0)

	cmp	DWORD PTR _ret$1[ebp], 0
	jne	SHORT $LN83@xmlSchemaC

; 4907 :                         return(0);

	xor	eax, eax
	jmp	SHORT $LN1@xmlSchemaC
	jmp	SHORT $LN82@xmlSchemaC
$LN83@xmlSchemaC:

; 4908 : 		    else
; 4909 : 		        return(-1);

	or	eax, -1
	jmp	SHORT $LN1@xmlSchemaC
$LN82@xmlSchemaC:

; 4910 :                 }

	jmp	SHORT $LN78@xmlSchemaC
$LN79@xmlSchemaC:

; 4911 :                 else if (x->value.base64.total > y->value.base64.total)

	mov	eax, DWORD PTR _x$[ebp]
	mov	ecx, DWORD PTR _y$[ebp]
	mov	edx, DWORD PTR [eax+12]
	cmp	edx, DWORD PTR [ecx+12]
	jbe	SHORT $LN85@xmlSchemaC

; 4912 :                     return(1);

	mov	eax, 1
	jmp	SHORT $LN1@xmlSchemaC
	jmp	SHORT $LN78@xmlSchemaC
$LN85@xmlSchemaC:

; 4913 :                 else
; 4914 :                     return(-1);

	or	eax, -1
	jmp	SHORT $LN1@xmlSchemaC
$LN78@xmlSchemaC:

; 4915 :             }
; 4916 :             return (-2);

	mov	eax, -2					; fffffffeH
	jmp	SHORT $LN1@xmlSchemaC
$LN87@xmlSchemaC:

; 4917 :         case XML_SCHEMAS_IDREFS:
; 4918 :         case XML_SCHEMAS_ENTITIES:
; 4919 :         case XML_SCHEMAS_NMTOKENS:
; 4920 : 	    TODO

	mov	esi, esp
	push	4920					; 00001338H
	push	OFFSET ??_C@_0HB@FHPILMCP@c?3?2users?2dag?2documents?2_clients@
	push	OFFSET ??_C@_0BO@MDEMDPPE@Unimplemented?5block?5at?5?$CFs?3?$CFd?6@
	call	___xmlGenericErrorContext
	mov	eax, DWORD PTR [eax]
	push	eax
	call	___xmlGenericError
	mov	ecx, DWORD PTR [eax]
	call	ecx
	add	esp, 16					; 00000010H
	cmp	esi, esp
	call	__RTC_CheckEsp
$LN2@xmlSchemaC:

; 4921 : 	    break;
; 4922 :     }
; 4923 :     return -2;

	mov	eax, -2					; fffffffeH
$LN1@xmlSchemaC:

; 4924 : }

	pop	esi
	add	esp, 20					; 00000014H
	cmp	ebp, esp
	call	__RTC_CheckEsp
	mov	esp, ebp
	pop	ebp
	ret	0
	npad	2
$LN90@xmlSchemaC:
	DD	$LN4@xmlSchemaC
	DD	$LN20@xmlSchemaC
	DD	$LN5@xmlSchemaC
	DD	$LN15@xmlSchemaC
	DD	$LN11@xmlSchemaC
	DD	$LN54@xmlSchemaC
	DD	$LN59@xmlSchemaC
	DD	$LN87@xmlSchemaC
	DD	$LN48@xmlSchemaC
	DD	$LN65@xmlSchemaC
	DD	$LN75@xmlSchemaC
$LN89@xmlSchemaC:
	DB	0
	DB	1
	DB	1
	DB	2
	DB	3
	DB	3
	DB	3
	DB	3
	DB	3
	DB	3
	DB	3
	DB	3
	DB	4
	DB	5
	DB	5
	DB	6
	DB	1
	DB	1
	DB	1
	DB	7
	DB	1
	DB	8
	DB	1
	DB	1
	DB	1
	DB	7
	DB	1
	DB	7
	DB	8
	DB	1
	DB	2
	DB	2
	DB	2
	DB	2
	DB	2
	DB	2
	DB	2
	DB	2
	DB	2
	DB	2
	DB	2
	DB	2
	DB	2
	DB	9
	DB	10					; 0000000aH
	DB	0
	DB	1
_xmlSchemaCompareValuesInternal ENDP
_TEXT	ENDS
; Function compile flags: /Odtp /RTCsu
; File c:\users\dag\documents\_clients\codeproject authors group\windows on arm\libxml2\libxml2-2.9.9\xmlschemastypes.c
;	COMDAT _xmlSchemaCompareFloats
_TEXT	SEGMENT
_d2$ = -16						; size = 8
_d1$ = -8						; size = 8
_x$ = 8							; size = 4
_y$ = 12						; size = 4
_xmlSchemaCompareFloats PROC				; COMDAT

; 4614 : xmlSchemaCompareFloats(xmlSchemaValPtr x, xmlSchemaValPtr y) {

	push	ebp
	mov	ebp, esp
	sub	esp, 16					; 00000010H
	mov	eax, -858993460				; ccccccccH
	mov	DWORD PTR [ebp-16], eax
	mov	DWORD PTR [ebp-12], eax
	mov	DWORD PTR [ebp-8], eax
	mov	DWORD PTR [ebp-4], eax
	mov	ecx, OFFSET __74485836_xmlschemastypes@c
	call	@__CheckForDebuggerJustMyCode@4

; 4615 :     double d1, d2;
; 4616 : 
; 4617 :     if ((x == NULL) || (y == NULL))

	cmp	DWORD PTR _x$[ebp], 0
	je	SHORT $LN3@xmlSchemaC
	cmp	DWORD PTR _y$[ebp], 0
	jne	SHORT $LN2@xmlSchemaC
$LN3@xmlSchemaC:

; 4618 : 	return(-2);

	mov	eax, -2					; fffffffeH
	jmp	$LN1@xmlSchemaC
$LN2@xmlSchemaC:

; 4619 : 
; 4620 :     /*
; 4621 :      * Cast everything to doubles.
; 4622 :      */
; 4623 :     if (x->type == XML_SCHEMAS_DOUBLE)

	mov	eax, DWORD PTR _x$[ebp]
	cmp	DWORD PTR [eax], 14			; 0000000eH
	jne	SHORT $LN4@xmlSchemaC

; 4624 : 	d1 = x->value.d;

	mov	ecx, DWORD PTR _x$[ebp]
	movsd	xmm0, QWORD PTR [ecx+8]
	movsd	QWORD PTR _d1$[ebp], xmm0
	jmp	SHORT $LN7@xmlSchemaC
$LN4@xmlSchemaC:

; 4625 :     else if (x->type == XML_SCHEMAS_FLOAT)

	mov	edx, DWORD PTR _x$[ebp]
	cmp	DWORD PTR [edx], 13			; 0000000dH
	jne	SHORT $LN6@xmlSchemaC

; 4626 : 	d1 = x->value.f;

	mov	eax, DWORD PTR _x$[ebp]
	cvtss2sd xmm0, DWORD PTR [eax+8]
	movsd	QWORD PTR _d1$[ebp], xmm0
	jmp	SHORT $LN7@xmlSchemaC
$LN6@xmlSchemaC:

; 4627 :     else
; 4628 : 	return(-2);

	mov	eax, -2					; fffffffeH
	jmp	$LN1@xmlSchemaC
$LN7@xmlSchemaC:

; 4629 : 
; 4630 :     if (y->type == XML_SCHEMAS_DOUBLE)

	mov	ecx, DWORD PTR _y$[ebp]
	cmp	DWORD PTR [ecx], 14			; 0000000eH
	jne	SHORT $LN8@xmlSchemaC

; 4631 : 	d2 = y->value.d;

	mov	edx, DWORD PTR _y$[ebp]
	movsd	xmm0, QWORD PTR [edx+8]
	movsd	QWORD PTR _d2$[ebp], xmm0
	jmp	SHORT $LN11@xmlSchemaC
$LN8@xmlSchemaC:

; 4632 :     else if (y->type == XML_SCHEMAS_FLOAT)

	mov	eax, DWORD PTR _y$[ebp]
	cmp	DWORD PTR [eax], 13			; 0000000dH
	jne	SHORT $LN10@xmlSchemaC

; 4633 : 	d2 = y->value.f;

	mov	ecx, DWORD PTR _y$[ebp]
	cvtss2sd xmm0, DWORD PTR [ecx+8]
	movsd	QWORD PTR _d2$[ebp], xmm0
	jmp	SHORT $LN11@xmlSchemaC
$LN10@xmlSchemaC:

; 4634 :     else
; 4635 : 	return(-2);

	mov	eax, -2					; fffffffeH
	jmp	$LN1@xmlSchemaC
$LN11@xmlSchemaC:

; 4636 : 
; 4637 :     /*
; 4638 :      * Check for special cases.
; 4639 :      */
; 4640 :     if (xmlXPathIsNaN(d1)) {

	sub	esp, 8
	movsd	xmm0, QWORD PTR _d1$[ebp]
	movsd	QWORD PTR [esp], xmm0
	call	_xmlXPathIsNaN
	add	esp, 8
	test	eax, eax
	je	SHORT $LN12@xmlSchemaC

; 4641 : 	if (xmlXPathIsNaN(d2))

	sub	esp, 8
	movsd	xmm0, QWORD PTR _d2$[ebp]
	movsd	QWORD PTR [esp], xmm0
	call	_xmlXPathIsNaN
	add	esp, 8
	test	eax, eax
	je	SHORT $LN13@xmlSchemaC

; 4642 : 	    return(0);

	xor	eax, eax
	jmp	$LN1@xmlSchemaC
$LN13@xmlSchemaC:

; 4643 : 	return(1);

	mov	eax, 1
	jmp	$LN1@xmlSchemaC
$LN12@xmlSchemaC:

; 4644 :     }
; 4645 :     if (xmlXPathIsNaN(d2))

	sub	esp, 8
	movsd	xmm0, QWORD PTR _d2$[ebp]
	movsd	QWORD PTR [esp], xmm0
	call	_xmlXPathIsNaN
	add	esp, 8
	test	eax, eax
	je	SHORT $LN14@xmlSchemaC

; 4646 : 	return(-1);

	or	eax, -1
	jmp	$LN1@xmlSchemaC
$LN14@xmlSchemaC:

; 4647 :     if (d1 == xmlXPathPINF) {

	movsd	xmm0, QWORD PTR _d1$[ebp]
	ucomisd	xmm0, QWORD PTR _xmlXPathPINF
	lahf
	test	ah, 68					; 00000044H
	jp	SHORT $LN15@xmlSchemaC

; 4648 : 	if (d2 == xmlXPathPINF)

	movsd	xmm0, QWORD PTR _d2$[ebp]
	ucomisd	xmm0, QWORD PTR _xmlXPathPINF
	lahf
	test	ah, 68					; 00000044H
	jp	SHORT $LN16@xmlSchemaC

; 4649 : 	    return(0);

	xor	eax, eax
	jmp	$LN1@xmlSchemaC
$LN16@xmlSchemaC:

; 4650 :         return(1);

	mov	eax, 1
	jmp	$LN1@xmlSchemaC
$LN15@xmlSchemaC:

; 4651 :     }
; 4652 :     if (d2 == xmlXPathPINF)

	movsd	xmm0, QWORD PTR _d2$[ebp]
	ucomisd	xmm0, QWORD PTR _xmlXPathPINF
	lahf
	test	ah, 68					; 00000044H
	jp	SHORT $LN17@xmlSchemaC

; 4653 :         return(-1);

	mov	eax, -1
	jmp	$LN1@xmlSchemaC
$LN17@xmlSchemaC:

; 4654 :     if (d1 == xmlXPathNINF) {

	movsd	xmm0, QWORD PTR _d1$[ebp]
	ucomisd	xmm0, QWORD PTR _xmlXPathNINF
	lahf
	test	ah, 68					; 00000044H
	jp	SHORT $LN18@xmlSchemaC

; 4655 : 	if (d2 == xmlXPathNINF)

	movsd	xmm0, QWORD PTR _d2$[ebp]
	ucomisd	xmm0, QWORD PTR _xmlXPathNINF
	lahf
	test	ah, 68					; 00000044H
	jp	SHORT $LN19@xmlSchemaC

; 4656 : 	    return(0);

	xor	eax, eax
	jmp	SHORT $LN1@xmlSchemaC
$LN19@xmlSchemaC:

; 4657 :         return(-1);

	or	eax, -1
	jmp	SHORT $LN1@xmlSchemaC
$LN18@xmlSchemaC:

; 4658 :     }
; 4659 :     if (d2 == xmlXPathNINF)

	movsd	xmm0, QWORD PTR _d2$[ebp]
	ucomisd	xmm0, QWORD PTR _xmlXPathNINF
	lahf
	test	ah, 68					; 00000044H
	jp	SHORT $LN20@xmlSchemaC

; 4660 :         return(1);

	mov	eax, 1
	jmp	SHORT $LN1@xmlSchemaC
$LN20@xmlSchemaC:

; 4661 : 
; 4662 :     /*
; 4663 :      * basic tests, the last one we should have equality, but
; 4664 :      * portability is more important than speed and handling
; 4665 :      * NaN or Inf in a portable way is always a challenge, so ...
; 4666 :      */
; 4667 :     if (d1 < d2)

	movsd	xmm0, QWORD PTR _d2$[ebp]
	comisd	xmm0, QWORD PTR _d1$[ebp]
	jbe	SHORT $LN21@xmlSchemaC

; 4668 : 	return(-1);

	or	eax, -1
	jmp	SHORT $LN1@xmlSchemaC
$LN21@xmlSchemaC:

; 4669 :     if (d1 > d2)

	movsd	xmm0, QWORD PTR _d1$[ebp]
	comisd	xmm0, QWORD PTR _d2$[ebp]
	jbe	SHORT $LN22@xmlSchemaC

; 4670 : 	return(1);

	mov	eax, 1
	jmp	SHORT $LN1@xmlSchemaC
$LN22@xmlSchemaC:

; 4671 :     if (d1 == d2)

	movsd	xmm0, QWORD PTR _d1$[ebp]
	ucomisd	xmm0, QWORD PTR _d2$[ebp]
	lahf
	test	ah, 68					; 00000044H
	jp	SHORT $LN23@xmlSchemaC

; 4672 : 	return(0);

	xor	eax, eax
	jmp	SHORT $LN1@xmlSchemaC
$LN23@xmlSchemaC:

; 4673 :     return(2);

	mov	eax, 2
$LN1@xmlSchemaC:

; 4674 : }

	add	esp, 16					; 00000010H
	cmp	ebp, esp
	call	__RTC_CheckEsp
	mov	esp, ebp
	pop	ebp
	ret	0
_xmlSchemaCompareFloats ENDP
_TEXT	ENDS
; Function compile flags: /Odtp /RTCsu
; File c:\users\dag\documents\_clients\codeproject authors group\windows on arm\libxml2\libxml2-2.9.9\xmlschemastypes.c
;	COMDAT _xmlSchemaCompareNormStrings
_TEXT	SEGMENT
_tmp$ = -4						; size = 4
_x$ = 8							; size = 4
_y$ = 12						; size = 4
_xmlSchemaCompareNormStrings PROC			; COMDAT

; 4569 : 			    const xmlChar *y) {

	push	ebp
	mov	ebp, esp
	push	ecx
	mov	DWORD PTR [ebp-4], -858993460		; ccccccccH
	mov	ecx, OFFSET __74485836_xmlschemastypes@c
	call	@__CheckForDebuggerJustMyCode@4
$LN2@xmlSchemaC:

; 4570 :     int tmp;
; 4571 : 
; 4572 :     while (IS_BLANK_CH(*x)) x++;

	mov	eax, DWORD PTR _x$[ebp]
	movzx	ecx, BYTE PTR [eax]
	cmp	ecx, 32					; 00000020H
	je	SHORT $LN16@xmlSchemaC
	mov	edx, DWORD PTR _x$[ebp]
	movzx	eax, BYTE PTR [edx]
	cmp	eax, 9
	jl	SHORT $LN17@xmlSchemaC
	mov	ecx, DWORD PTR _x$[ebp]
	movzx	edx, BYTE PTR [ecx]
	cmp	edx, 10					; 0000000aH
	jle	SHORT $LN16@xmlSchemaC
$LN17@xmlSchemaC:
	mov	eax, DWORD PTR _x$[ebp]
	movzx	ecx, BYTE PTR [eax]
	cmp	ecx, 13					; 0000000dH
	jne	SHORT $LN4@xmlSchemaC
$LN16@xmlSchemaC:
	mov	edx, DWORD PTR _x$[ebp]
	add	edx, 1
	mov	DWORD PTR _x$[ebp], edx
	jmp	SHORT $LN2@xmlSchemaC
$LN4@xmlSchemaC:

; 4573 :     while (IS_BLANK_CH(*y)) y++;

	mov	eax, DWORD PTR _y$[ebp]
	movzx	ecx, BYTE PTR [eax]
	cmp	ecx, 32					; 00000020H
	je	SHORT $LN18@xmlSchemaC
	mov	edx, DWORD PTR _y$[ebp]
	movzx	eax, BYTE PTR [edx]
	cmp	eax, 9
	jl	SHORT $LN19@xmlSchemaC
	mov	ecx, DWORD PTR _y$[ebp]
	movzx	edx, BYTE PTR [ecx]
	cmp	edx, 10					; 0000000aH
	jle	SHORT $LN18@xmlSchemaC
$LN19@xmlSchemaC:
	mov	eax, DWORD PTR _y$[ebp]
	movzx	ecx, BYTE PTR [eax]
	cmp	ecx, 13					; 0000000dH
	jne	SHORT $LN6@xmlSchemaC
$LN18@xmlSchemaC:
	mov	edx, DWORD PTR _y$[ebp]
	add	edx, 1
	mov	DWORD PTR _y$[ebp], edx
	jmp	SHORT $LN4@xmlSchemaC
$LN6@xmlSchemaC:

; 4574 :     while ((*x != 0) && (*y != 0)) {

	mov	eax, DWORD PTR _x$[ebp]
	movzx	ecx, BYTE PTR [eax]
	test	ecx, ecx
	je	$LN7@xmlSchemaC
	mov	edx, DWORD PTR _y$[ebp]
	movzx	eax, BYTE PTR [edx]
	test	eax, eax
	je	$LN7@xmlSchemaC

; 4575 : 	if (IS_BLANK_CH(*x)) {

	mov	ecx, DWORD PTR _x$[ebp]
	movzx	edx, BYTE PTR [ecx]
	cmp	edx, 32					; 00000020H
	je	SHORT $LN22@xmlSchemaC
	mov	eax, DWORD PTR _x$[ebp]
	movzx	ecx, BYTE PTR [eax]
	cmp	ecx, 9
	jl	SHORT $LN23@xmlSchemaC
	mov	edx, DWORD PTR _x$[ebp]
	movzx	eax, BYTE PTR [edx]
	cmp	eax, 10					; 0000000aH
	jle	SHORT $LN22@xmlSchemaC
$LN23@xmlSchemaC:
	mov	ecx, DWORD PTR _x$[ebp]
	movzx	edx, BYTE PTR [ecx]
	cmp	edx, 13					; 0000000dH
	jne	$LN20@xmlSchemaC
$LN22@xmlSchemaC:

; 4576 : 	    if (!IS_BLANK_CH(*y)) {

	mov	eax, DWORD PTR _y$[ebp]
	movzx	ecx, BYTE PTR [eax]
	cmp	ecx, 32					; 00000020H
	je	SHORT $LN8@xmlSchemaC
	mov	edx, DWORD PTR _y$[ebp]
	movzx	eax, BYTE PTR [edx]
	cmp	eax, 9
	jl	SHORT $LN25@xmlSchemaC
	mov	ecx, DWORD PTR _y$[ebp]
	movzx	edx, BYTE PTR [ecx]
	cmp	edx, 10					; 0000000aH
	jle	SHORT $LN8@xmlSchemaC
$LN25@xmlSchemaC:
	mov	eax, DWORD PTR _y$[ebp]
	movzx	ecx, BYTE PTR [eax]
	cmp	ecx, 13					; 0000000dH
	je	SHORT $LN8@xmlSchemaC

; 4577 : 		tmp = *x - *y;

	mov	edx, DWORD PTR _x$[ebp]
	movzx	eax, BYTE PTR [edx]
	mov	ecx, DWORD PTR _y$[ebp]
	movzx	edx, BYTE PTR [ecx]
	sub	eax, edx
	mov	DWORD PTR _tmp$[ebp], eax

; 4578 : 		return(tmp);

	mov	eax, DWORD PTR _tmp$[ebp]
	jmp	$LN1@xmlSchemaC
$LN8@xmlSchemaC:

; 4579 : 	    }
; 4580 : 	    while (IS_BLANK_CH(*x)) x++;

	mov	eax, DWORD PTR _x$[ebp]
	movzx	ecx, BYTE PTR [eax]
	cmp	ecx, 32					; 00000020H
	je	SHORT $LN26@xmlSchemaC
	mov	edx, DWORD PTR _x$[ebp]
	movzx	eax, BYTE PTR [edx]
	cmp	eax, 9
	jl	SHORT $LN27@xmlSchemaC
	mov	ecx, DWORD PTR _x$[ebp]
	movzx	edx, BYTE PTR [ecx]
	cmp	edx, 10					; 0000000aH
	jle	SHORT $LN26@xmlSchemaC
$LN27@xmlSchemaC:
	mov	eax, DWORD PTR _x$[ebp]
	movzx	ecx, BYTE PTR [eax]
	cmp	ecx, 13					; 0000000dH
	jne	SHORT $LN10@xmlSchemaC
$LN26@xmlSchemaC:
	mov	edx, DWORD PTR _x$[ebp]
	add	edx, 1
	mov	DWORD PTR _x$[ebp], edx
	jmp	SHORT $LN8@xmlSchemaC
$LN10@xmlSchemaC:

; 4581 : 	    while (IS_BLANK_CH(*y)) y++;

	mov	eax, DWORD PTR _y$[ebp]
	movzx	ecx, BYTE PTR [eax]
	cmp	ecx, 32					; 00000020H
	je	SHORT $LN28@xmlSchemaC
	mov	edx, DWORD PTR _y$[ebp]
	movzx	eax, BYTE PTR [edx]
	cmp	eax, 9
	jl	SHORT $LN29@xmlSchemaC
	mov	ecx, DWORD PTR _y$[ebp]
	movzx	edx, BYTE PTR [ecx]
	cmp	edx, 10					; 0000000aH
	jle	SHORT $LN28@xmlSchemaC
$LN29@xmlSchemaC:
	mov	eax, DWORD PTR _y$[ebp]
	movzx	ecx, BYTE PTR [eax]
	cmp	ecx, 13					; 0000000dH
	jne	SHORT $LN11@xmlSchemaC
$LN28@xmlSchemaC:
	mov	edx, DWORD PTR _y$[ebp]
	add	edx, 1
	mov	DWORD PTR _y$[ebp], edx
	jmp	SHORT $LN10@xmlSchemaC
$LN11@xmlSchemaC:

; 4582 : 	} else {

	jmp	SHORT $LN21@xmlSchemaC
$LN20@xmlSchemaC:

; 4583 : 	    tmp = *x++ - *y++;

	mov	eax, DWORD PTR _x$[ebp]
	movzx	ecx, BYTE PTR [eax]
	mov	edx, DWORD PTR _y$[ebp]
	movzx	eax, BYTE PTR [edx]
	sub	ecx, eax
	mov	DWORD PTR _tmp$[ebp], ecx
	mov	ecx, DWORD PTR _y$[ebp]
	add	ecx, 1
	mov	DWORD PTR _y$[ebp], ecx
	mov	edx, DWORD PTR _x$[ebp]
	add	edx, 1
	mov	DWORD PTR _x$[ebp], edx

; 4584 : 	    if (tmp < 0)

	cmp	DWORD PTR _tmp$[ebp], 0
	jge	SHORT $LN30@xmlSchemaC

; 4585 : 		return(-1);

	or	eax, -1
	jmp	$LN1@xmlSchemaC
$LN30@xmlSchemaC:

; 4586 : 	    if (tmp > 0)

	cmp	DWORD PTR _tmp$[ebp], 0
	jle	SHORT $LN21@xmlSchemaC

; 4587 : 		return(1);

	mov	eax, 1
	jmp	$LN1@xmlSchemaC
$LN21@xmlSchemaC:

; 4588 : 	}
; 4589 :     }

	jmp	$LN6@xmlSchemaC
$LN7@xmlSchemaC:

; 4590 :     if (*x != 0) {

	mov	eax, DWORD PTR _x$[ebp]
	movzx	ecx, BYTE PTR [eax]
	test	ecx, ecx
	je	SHORT $LN32@xmlSchemaC
$LN12@xmlSchemaC:

; 4591 : 	while (IS_BLANK_CH(*x)) x++;

	mov	edx, DWORD PTR _x$[ebp]
	movzx	eax, BYTE PTR [edx]
	cmp	eax, 32					; 00000020H
	je	SHORT $LN33@xmlSchemaC
	mov	ecx, DWORD PTR _x$[ebp]
	movzx	edx, BYTE PTR [ecx]
	cmp	edx, 9
	jl	SHORT $LN34@xmlSchemaC
	mov	eax, DWORD PTR _x$[ebp]
	movzx	ecx, BYTE PTR [eax]
	cmp	ecx, 10					; 0000000aH
	jle	SHORT $LN33@xmlSchemaC
$LN34@xmlSchemaC:
	mov	edx, DWORD PTR _x$[ebp]
	movzx	eax, BYTE PTR [edx]
	cmp	eax, 13					; 0000000dH
	jne	SHORT $LN13@xmlSchemaC
$LN33@xmlSchemaC:
	mov	ecx, DWORD PTR _x$[ebp]
	add	ecx, 1
	mov	DWORD PTR _x$[ebp], ecx
	jmp	SHORT $LN12@xmlSchemaC
$LN13@xmlSchemaC:

; 4592 : 	if (*x != 0)

	mov	edx, DWORD PTR _x$[ebp]
	movzx	eax, BYTE PTR [edx]
	test	eax, eax
	je	SHORT $LN32@xmlSchemaC

; 4593 : 	    return(1);

	mov	eax, 1
	jmp	SHORT $LN1@xmlSchemaC
$LN32@xmlSchemaC:

; 4594 :     }
; 4595 :     if (*y != 0) {

	mov	ecx, DWORD PTR _y$[ebp]
	movzx	edx, BYTE PTR [ecx]
	test	edx, edx
	je	SHORT $LN36@xmlSchemaC
$LN14@xmlSchemaC:

; 4596 : 	while (IS_BLANK_CH(*y)) y++;

	mov	eax, DWORD PTR _y$[ebp]
	movzx	ecx, BYTE PTR [eax]
	cmp	ecx, 32					; 00000020H
	je	SHORT $LN37@xmlSchemaC
	mov	edx, DWORD PTR _y$[ebp]
	movzx	eax, BYTE PTR [edx]
	cmp	eax, 9
	jl	SHORT $LN38@xmlSchemaC
	mov	ecx, DWORD PTR _y$[ebp]
	movzx	edx, BYTE PTR [ecx]
	cmp	edx, 10					; 0000000aH
	jle	SHORT $LN37@xmlSchemaC
$LN38@xmlSchemaC:
	mov	eax, DWORD PTR _y$[ebp]
	movzx	ecx, BYTE PTR [eax]
	cmp	ecx, 13					; 0000000dH
	jne	SHORT $LN15@xmlSchemaC
$LN37@xmlSchemaC:
	mov	edx, DWORD PTR _y$[ebp]
	add	edx, 1
	mov	DWORD PTR _y$[ebp], edx
	jmp	SHORT $LN14@xmlSchemaC
$LN15@xmlSchemaC:

; 4597 : 	if (*y != 0)

	mov	eax, DWORD PTR _y$[ebp]
	movzx	ecx, BYTE PTR [eax]
	test	ecx, ecx
	je	SHORT $LN36@xmlSchemaC

; 4598 : 	    return(-1);

	or	eax, -1
	jmp	SHORT $LN1@xmlSchemaC
$LN36@xmlSchemaC:

; 4599 :     }
; 4600 :     return(0);

	xor	eax, eax
$LN1@xmlSchemaC:

; 4601 : }

	add	esp, 4
	cmp	ebp, esp
	call	__RTC_CheckEsp
	mov	esp, ebp
	pop	ebp
	ret	0
_xmlSchemaCompareNormStrings ENDP
_TEXT	ENDS
; Function compile flags: /Odtp /RTCsu
; File c:\users\dag\documents\_clients\codeproject authors group\windows on arm\libxml2\libxml2-2.9.9\xmlschemastypes.c
;	COMDAT _xmlSchemaCompareReplacedStrings
_TEXT	SEGMENT
_tmp$ = -4						; size = 4
_x$ = 8							; size = 4
_y$ = 12						; size = 4
_xmlSchemaCompareReplacedStrings PROC			; COMDAT

; 4523 : {

	push	ebp
	mov	ebp, esp
	push	ecx
	mov	DWORD PTR [ebp-4], -858993460		; ccccccccH
	mov	ecx, OFFSET __74485836_xmlschemastypes@c
	call	@__CheckForDebuggerJustMyCode@4
$LN2@xmlSchemaC:

; 4524 :     int tmp;
; 4525 : 
; 4526 :     while ((*x != 0) && (*y != 0)) {

	mov	eax, DWORD PTR _x$[ebp]
	movzx	ecx, BYTE PTR [eax]
	test	ecx, ecx
	je	$LN3@xmlSchemaC
	mov	edx, DWORD PTR _y$[ebp]
	movzx	eax, BYTE PTR [edx]
	test	eax, eax
	je	$LN3@xmlSchemaC

; 4527 : 	if IS_WSP_BLANK_CH(*y) {

	mov	ecx, DWORD PTR _y$[ebp]
	movzx	edx, BYTE PTR [ecx]
	cmp	edx, 32					; 00000020H
	je	SHORT $LN6@xmlSchemaC
	mov	eax, DWORD PTR _y$[ebp]
	movzx	ecx, BYTE PTR [eax]
	cmp	ecx, 9
	jl	SHORT $LN7@xmlSchemaC
	mov	edx, DWORD PTR _y$[ebp]
	movzx	eax, BYTE PTR [edx]
	cmp	eax, 10					; 0000000aH
	jle	SHORT $LN6@xmlSchemaC
$LN7@xmlSchemaC:
	mov	ecx, DWORD PTR _y$[ebp]
	movzx	edx, BYTE PTR [ecx]
	cmp	edx, 13					; 0000000dH
	jne	SHORT $LN4@xmlSchemaC
$LN6@xmlSchemaC:

; 4528 : 	    if (! IS_WSP_BLANK_CH(*x)) {

	mov	eax, DWORD PTR _x$[ebp]
	movzx	ecx, BYTE PTR [eax]
	cmp	ecx, 32					; 00000020H
	je	SHORT $LN8@xmlSchemaC
	mov	edx, DWORD PTR _x$[ebp]
	movzx	eax, BYTE PTR [edx]
	cmp	eax, 9
	jl	SHORT $LN9@xmlSchemaC
	mov	ecx, DWORD PTR _x$[ebp]
	movzx	edx, BYTE PTR [ecx]
	cmp	edx, 10					; 0000000aH
	jle	SHORT $LN8@xmlSchemaC
$LN9@xmlSchemaC:
	mov	eax, DWORD PTR _x$[ebp]
	movzx	ecx, BYTE PTR [eax]
	cmp	ecx, 13					; 0000000dH
	je	SHORT $LN8@xmlSchemaC

; 4529 : 		if ((*x - 0x20) < 0)

	mov	edx, DWORD PTR _x$[ebp]
	movzx	eax, BYTE PTR [edx]
	sub	eax, 32					; 00000020H
	jns	SHORT $LN10@xmlSchemaC

; 4530 : 		    return(-1);

	or	eax, -1
	jmp	$LN1@xmlSchemaC
	jmp	SHORT $LN8@xmlSchemaC
$LN10@xmlSchemaC:

; 4531 : 		else
; 4532 : 		    return(1);

	mov	eax, 1
	jmp	$LN1@xmlSchemaC
$LN8@xmlSchemaC:

; 4533 : 	    }
; 4534 : 	} else {

	jmp	SHORT $LN5@xmlSchemaC
$LN4@xmlSchemaC:

; 4535 : 	    if IS_WSP_BLANK_CH(*x) {

	mov	ecx, DWORD PTR _x$[ebp]
	movzx	edx, BYTE PTR [ecx]
	cmp	edx, 32					; 00000020H
	je	SHORT $LN13@xmlSchemaC
	mov	eax, DWORD PTR _x$[ebp]
	movzx	ecx, BYTE PTR [eax]
	cmp	ecx, 9
	jl	SHORT $LN14@xmlSchemaC
	mov	edx, DWORD PTR _x$[ebp]
	movzx	eax, BYTE PTR [edx]
	cmp	eax, 10					; 0000000aH
	jle	SHORT $LN13@xmlSchemaC
$LN14@xmlSchemaC:
	mov	ecx, DWORD PTR _x$[ebp]
	movzx	edx, BYTE PTR [ecx]
	cmp	edx, 13					; 0000000dH
	jne	SHORT $LN12@xmlSchemaC
$LN13@xmlSchemaC:

; 4536 : 		if ((0x20 - *y) < 0)

	mov	eax, DWORD PTR _y$[ebp]
	movzx	ecx, BYTE PTR [eax]
	mov	edx, 32					; 00000020H
	sub	edx, ecx
	jns	SHORT $LN15@xmlSchemaC

; 4537 : 		    return(-1);

	or	eax, -1
	jmp	SHORT $LN1@xmlSchemaC
	jmp	SHORT $LN12@xmlSchemaC
$LN15@xmlSchemaC:

; 4538 : 		else
; 4539 : 		    return(1);

	mov	eax, 1
	jmp	SHORT $LN1@xmlSchemaC
$LN12@xmlSchemaC:

; 4540 : 	    }
; 4541 : 	    tmp = *x - *y;

	mov	eax, DWORD PTR _x$[ebp]
	movzx	ecx, BYTE PTR [eax]
	mov	edx, DWORD PTR _y$[ebp]
	movzx	eax, BYTE PTR [edx]
	sub	ecx, eax
	mov	DWORD PTR _tmp$[ebp], ecx

; 4542 : 	    if (tmp < 0)

	jns	SHORT $LN17@xmlSchemaC

; 4543 : 		return(-1);

	or	eax, -1
	jmp	SHORT $LN1@xmlSchemaC
$LN17@xmlSchemaC:

; 4544 : 	    if (tmp > 0)

	cmp	DWORD PTR _tmp$[ebp], 0
	jle	SHORT $LN5@xmlSchemaC

; 4545 : 		return(1);

	mov	eax, 1
	jmp	SHORT $LN1@xmlSchemaC
$LN5@xmlSchemaC:

; 4546 : 	}
; 4547 : 	x++;

	mov	ecx, DWORD PTR _x$[ebp]
	add	ecx, 1
	mov	DWORD PTR _x$[ebp], ecx

; 4548 : 	y++;

	mov	edx, DWORD PTR _y$[ebp]
	add	edx, 1
	mov	DWORD PTR _y$[ebp], edx

; 4549 :     }

	jmp	$LN2@xmlSchemaC
$LN3@xmlSchemaC:

; 4550 :     if (*x != 0)

	mov	eax, DWORD PTR _x$[ebp]
	movzx	ecx, BYTE PTR [eax]
	test	ecx, ecx
	je	SHORT $LN19@xmlSchemaC

; 4551 :         return(1);

	mov	eax, 1
	jmp	SHORT $LN1@xmlSchemaC
$LN19@xmlSchemaC:

; 4552 :     if (*y != 0)

	mov	edx, DWORD PTR _y$[ebp]
	movzx	eax, BYTE PTR [edx]
	test	eax, eax
	je	SHORT $LN20@xmlSchemaC

; 4553 :         return(-1);

	or	eax, -1
	jmp	SHORT $LN1@xmlSchemaC
$LN20@xmlSchemaC:

; 4554 :     return(0);

	xor	eax, eax
$LN1@xmlSchemaC:

; 4555 : }

	add	esp, 4
	cmp	ebp, esp
	call	__RTC_CheckEsp
	mov	esp, ebp
	pop	ebp
	ret	0
_xmlSchemaCompareReplacedStrings ENDP
_TEXT	ENDS
; Function compile flags: /Odtp /RTCsu
; File c:\users\dag\documents\_clients\codeproject authors group\windows on arm\libxml2\libxml2-2.9.9\xmlschemastypes.c
;	COMDAT _xmlSchemaCompareReplaceCollapseStrings
_TEXT	SEGMENT
_tmp$ = -4						; size = 4
_x$ = 8							; size = 4
_y$ = 12						; size = 4
_invert$ = 16						; size = 4
_xmlSchemaCompareReplaceCollapseStrings PROC		; COMDAT

; 4429 : {

	push	ebp
	mov	ebp, esp
	push	ecx
	mov	DWORD PTR [ebp-4], -858993460		; ccccccccH
	mov	ecx, OFFSET __74485836_xmlschemastypes@c
	call	@__CheckForDebuggerJustMyCode@4
$LN2@xmlSchemaC:

; 4430 :     int tmp;
; 4431 : 
; 4432 :     /*
; 4433 :     * Skip leading blank chars of the collapsed string.
; 4434 :     */
; 4435 :     while IS_WSP_BLANK_CH(*y)

	mov	eax, DWORD PTR _y$[ebp]
	movzx	ecx, BYTE PTR [eax]
	cmp	ecx, 32					; 00000020H
	je	SHORT $LN10@xmlSchemaC
	mov	edx, DWORD PTR _y$[ebp]
	movzx	eax, BYTE PTR [edx]
	cmp	eax, 9
	jl	SHORT $LN11@xmlSchemaC
	mov	ecx, DWORD PTR _y$[ebp]
	movzx	edx, BYTE PTR [ecx]
	cmp	edx, 10					; 0000000aH
	jle	SHORT $LN10@xmlSchemaC
$LN11@xmlSchemaC:
	mov	eax, DWORD PTR _y$[ebp]
	movzx	ecx, BYTE PTR [eax]
	cmp	ecx, 13					; 0000000dH
	jne	SHORT $LN4@xmlSchemaC
$LN10@xmlSchemaC:

; 4436 : 	y++;

	mov	edx, DWORD PTR _y$[ebp]
	add	edx, 1
	mov	DWORD PTR _y$[ebp], edx
	jmp	SHORT $LN2@xmlSchemaC
$LN4@xmlSchemaC:

; 4437 : 
; 4438 :     while ((*x != 0) && (*y != 0)) {

	mov	eax, DWORD PTR _x$[ebp]
	movzx	ecx, BYTE PTR [eax]
	test	ecx, ecx
	je	$LN5@xmlSchemaC
	mov	edx, DWORD PTR _y$[ebp]
	movzx	eax, BYTE PTR [edx]
	test	eax, eax
	je	$LN5@xmlSchemaC

; 4439 : 	if IS_WSP_BLANK_CH(*y) {

	mov	ecx, DWORD PTR _y$[ebp]
	movzx	edx, BYTE PTR [ecx]
	cmp	edx, 32					; 00000020H
	je	SHORT $LN14@xmlSchemaC
	mov	eax, DWORD PTR _y$[ebp]
	movzx	ecx, BYTE PTR [eax]
	cmp	ecx, 9
	jl	SHORT $LN15@xmlSchemaC
	mov	edx, DWORD PTR _y$[ebp]
	movzx	eax, BYTE PTR [edx]
	cmp	eax, 10					; 0000000aH
	jle	SHORT $LN14@xmlSchemaC
$LN15@xmlSchemaC:
	mov	ecx, DWORD PTR _y$[ebp]
	movzx	edx, BYTE PTR [ecx]
	cmp	edx, 13					; 0000000dH
	jne	$LN12@xmlSchemaC
$LN14@xmlSchemaC:

; 4440 : 	    if (! IS_WSP_BLANK_CH(*x)) {

	mov	eax, DWORD PTR _x$[ebp]
	movzx	ecx, BYTE PTR [eax]
	cmp	ecx, 32					; 00000020H
	je	SHORT $LN16@xmlSchemaC
	mov	edx, DWORD PTR _x$[ebp]
	movzx	eax, BYTE PTR [edx]
	cmp	eax, 9
	jl	SHORT $LN17@xmlSchemaC
	mov	ecx, DWORD PTR _x$[ebp]
	movzx	edx, BYTE PTR [ecx]
	cmp	edx, 10					; 0000000aH
	jle	SHORT $LN16@xmlSchemaC
$LN17@xmlSchemaC:
	mov	eax, DWORD PTR _x$[ebp]
	movzx	ecx, BYTE PTR [eax]
	cmp	ecx, 13					; 0000000dH
	je	SHORT $LN16@xmlSchemaC

; 4441 : 		/*
; 4442 : 		* The yv character would have been replaced to 0x20.
; 4443 : 		*/
; 4444 : 		if ((*x - 0x20) < 0) {

	mov	edx, DWORD PTR _x$[ebp]
	movzx	eax, BYTE PTR [edx]
	sub	eax, 32					; 00000020H
	jns	SHORT $LN18@xmlSchemaC

; 4445 : 		    if (invert)

	cmp	DWORD PTR _invert$[ebp], 0
	je	SHORT $LN20@xmlSchemaC

; 4446 : 			return(1);

	mov	eax, 1
	jmp	$LN1@xmlSchemaC
	jmp	SHORT $LN21@xmlSchemaC
$LN20@xmlSchemaC:

; 4447 : 		    else
; 4448 : 			return(-1);

	or	eax, -1
	jmp	$LN1@xmlSchemaC
$LN21@xmlSchemaC:

; 4449 : 		} else {

	jmp	SHORT $LN16@xmlSchemaC
$LN18@xmlSchemaC:

; 4450 : 		    if (invert)

	cmp	DWORD PTR _invert$[ebp], 0
	je	SHORT $LN22@xmlSchemaC

; 4451 : 			return(-1);

	or	eax, -1
	jmp	$LN1@xmlSchemaC
	jmp	SHORT $LN16@xmlSchemaC
$LN22@xmlSchemaC:

; 4452 : 		    else
; 4453 : 			return(1);

	mov	eax, 1
	jmp	$LN1@xmlSchemaC
$LN16@xmlSchemaC:

; 4454 : 		}
; 4455 : 	    }
; 4456 : 	    x++;

	mov	ecx, DWORD PTR _x$[ebp]
	add	ecx, 1
	mov	DWORD PTR _x$[ebp], ecx

; 4457 : 	    y++;

	mov	edx, DWORD PTR _y$[ebp]
	add	edx, 1
	mov	DWORD PTR _y$[ebp], edx
$LN6@xmlSchemaC:

; 4458 : 	    /*
; 4459 : 	    * Skip contiguous blank chars of the collapsed string.
; 4460 : 	    */
; 4461 : 	    while IS_WSP_BLANK_CH(*y)

	mov	eax, DWORD PTR _y$[ebp]
	movzx	ecx, BYTE PTR [eax]
	cmp	ecx, 32					; 00000020H
	je	SHORT $LN24@xmlSchemaC
	mov	edx, DWORD PTR _y$[ebp]
	movzx	eax, BYTE PTR [edx]
	cmp	eax, 9
	jl	SHORT $LN25@xmlSchemaC
	mov	ecx, DWORD PTR _y$[ebp]
	movzx	edx, BYTE PTR [ecx]
	cmp	edx, 10					; 0000000aH
	jle	SHORT $LN24@xmlSchemaC
$LN25@xmlSchemaC:
	mov	eax, DWORD PTR _y$[ebp]
	movzx	ecx, BYTE PTR [eax]
	cmp	ecx, 13					; 0000000dH
	jne	SHORT $LN7@xmlSchemaC
$LN24@xmlSchemaC:

; 4462 : 		y++;

	mov	edx, DWORD PTR _y$[ebp]
	add	edx, 1
	mov	DWORD PTR _y$[ebp], edx
	jmp	SHORT $LN6@xmlSchemaC
$LN7@xmlSchemaC:

; 4463 : 	} else {

	jmp	$LN13@xmlSchemaC
$LN12@xmlSchemaC:

; 4464 : 	    if IS_WSP_BLANK_CH(*x) {

	mov	eax, DWORD PTR _x$[ebp]
	movzx	ecx, BYTE PTR [eax]
	cmp	ecx, 32					; 00000020H
	je	SHORT $LN27@xmlSchemaC
	mov	edx, DWORD PTR _x$[ebp]
	movzx	eax, BYTE PTR [edx]
	cmp	eax, 9
	jl	SHORT $LN28@xmlSchemaC
	mov	ecx, DWORD PTR _x$[ebp]
	movzx	edx, BYTE PTR [ecx]
	cmp	edx, 10					; 0000000aH
	jle	SHORT $LN27@xmlSchemaC
$LN28@xmlSchemaC:
	mov	eax, DWORD PTR _x$[ebp]
	movzx	ecx, BYTE PTR [eax]
	cmp	ecx, 13					; 0000000dH
	jne	SHORT $LN26@xmlSchemaC
$LN27@xmlSchemaC:

; 4465 : 		/*
; 4466 : 		* The xv character would have been replaced to 0x20.
; 4467 : 		*/
; 4468 : 		if ((0x20 - *y) < 0) {

	mov	edx, DWORD PTR _y$[ebp]
	movzx	eax, BYTE PTR [edx]
	mov	ecx, 32					; 00000020H
	sub	ecx, eax
	jns	SHORT $LN29@xmlSchemaC

; 4469 : 		    if (invert)

	cmp	DWORD PTR _invert$[ebp], 0
	je	SHORT $LN31@xmlSchemaC

; 4470 : 			return(1);

	mov	eax, 1
	jmp	$LN1@xmlSchemaC
	jmp	SHORT $LN32@xmlSchemaC
$LN31@xmlSchemaC:

; 4471 : 		    else
; 4472 : 			return(-1);

	or	eax, -1
	jmp	$LN1@xmlSchemaC
$LN32@xmlSchemaC:

; 4473 : 		} else {

	jmp	SHORT $LN26@xmlSchemaC
$LN29@xmlSchemaC:

; 4474 : 		    if (invert)

	cmp	DWORD PTR _invert$[ebp], 0
	je	SHORT $LN33@xmlSchemaC

; 4475 : 			return(-1);

	or	eax, -1
	jmp	$LN1@xmlSchemaC
	jmp	SHORT $LN26@xmlSchemaC
$LN33@xmlSchemaC:

; 4476 : 		    else
; 4477 : 			return(1);

	mov	eax, 1
	jmp	$LN1@xmlSchemaC
$LN26@xmlSchemaC:

; 4478 : 		}
; 4479 : 	    }
; 4480 : 	    tmp = *x++ - *y++;

	mov	edx, DWORD PTR _x$[ebp]
	movzx	eax, BYTE PTR [edx]
	mov	ecx, DWORD PTR _y$[ebp]
	movzx	edx, BYTE PTR [ecx]
	sub	eax, edx
	mov	DWORD PTR _tmp$[ebp], eax
	mov	eax, DWORD PTR _y$[ebp]
	add	eax, 1
	mov	DWORD PTR _y$[ebp], eax
	mov	ecx, DWORD PTR _x$[ebp]
	add	ecx, 1
	mov	DWORD PTR _x$[ebp], ecx

; 4481 : 	    if (tmp < 0)

	cmp	DWORD PTR _tmp$[ebp], 0
	jge	SHORT $LN35@xmlSchemaC

; 4482 : 		return(-1);

	or	eax, -1
	jmp	$LN1@xmlSchemaC
$LN35@xmlSchemaC:

; 4483 : 	    if (tmp > 0)

	cmp	DWORD PTR _tmp$[ebp], 0
	jle	SHORT $LN13@xmlSchemaC

; 4484 : 		return(1);

	mov	eax, 1
	jmp	$LN1@xmlSchemaC
$LN13@xmlSchemaC:

; 4485 : 	}
; 4486 :     }

	jmp	$LN4@xmlSchemaC
$LN5@xmlSchemaC:

; 4487 :     if (*x != 0) {

	mov	edx, DWORD PTR _x$[ebp]
	movzx	eax, BYTE PTR [edx]
	test	eax, eax
	je	SHORT $LN37@xmlSchemaC

; 4488 : 	 if (invert)

	cmp	DWORD PTR _invert$[ebp], 0
	je	SHORT $LN38@xmlSchemaC

; 4489 : 	     return(-1);

	or	eax, -1
	jmp	SHORT $LN1@xmlSchemaC
	jmp	SHORT $LN37@xmlSchemaC
$LN38@xmlSchemaC:

; 4490 : 	 else
; 4491 : 	     return(1);

	mov	eax, 1
	jmp	SHORT $LN1@xmlSchemaC
$LN37@xmlSchemaC:

; 4492 :     }
; 4493 :     if (*y != 0) {

	mov	ecx, DWORD PTR _y$[ebp]
	movzx	edx, BYTE PTR [ecx]
	test	edx, edx
	je	SHORT $LN40@xmlSchemaC
$LN8@xmlSchemaC:

; 4494 : 	/*
; 4495 : 	* Skip trailing blank chars of the collapsed string.
; 4496 : 	*/
; 4497 : 	while IS_WSP_BLANK_CH(*y)

	mov	eax, DWORD PTR _y$[ebp]
	movzx	ecx, BYTE PTR [eax]
	cmp	ecx, 32					; 00000020H
	je	SHORT $LN41@xmlSchemaC
	mov	edx, DWORD PTR _y$[ebp]
	movzx	eax, BYTE PTR [edx]
	cmp	eax, 9
	jl	SHORT $LN42@xmlSchemaC
	mov	ecx, DWORD PTR _y$[ebp]
	movzx	edx, BYTE PTR [ecx]
	cmp	edx, 10					; 0000000aH
	jle	SHORT $LN41@xmlSchemaC
$LN42@xmlSchemaC:
	mov	eax, DWORD PTR _y$[ebp]
	movzx	ecx, BYTE PTR [eax]
	cmp	ecx, 13					; 0000000dH
	jne	SHORT $LN9@xmlSchemaC
$LN41@xmlSchemaC:

; 4498 : 	    y++;

	mov	edx, DWORD PTR _y$[ebp]
	add	edx, 1
	mov	DWORD PTR _y$[ebp], edx
	jmp	SHORT $LN8@xmlSchemaC
$LN9@xmlSchemaC:

; 4499 : 	if (*y != 0) {

	mov	eax, DWORD PTR _y$[ebp]
	movzx	ecx, BYTE PTR [eax]
	test	ecx, ecx
	je	SHORT $LN40@xmlSchemaC

; 4500 : 	    if (invert)

	cmp	DWORD PTR _invert$[ebp], 0
	je	SHORT $LN44@xmlSchemaC

; 4501 : 		return(1);

	mov	eax, 1
	jmp	SHORT $LN1@xmlSchemaC
	jmp	SHORT $LN40@xmlSchemaC
$LN44@xmlSchemaC:

; 4502 : 	    else
; 4503 : 		return(-1);

	or	eax, -1
	jmp	SHORT $LN1@xmlSchemaC
$LN40@xmlSchemaC:

; 4504 : 	}
; 4505 :     }
; 4506 :     return(0);

	xor	eax, eax
$LN1@xmlSchemaC:

; 4507 : }

	add	esp, 4
	cmp	ebp, esp
	call	__RTC_CheckEsp
	mov	esp, ebp
	pop	ebp
	ret	0
_xmlSchemaCompareReplaceCollapseStrings ENDP
_TEXT	ENDS
; Function compile flags: /Odtp /RTCsu
; File c:\users\dag\documents\_clients\codeproject authors group\windows on arm\libxml2\libxml2-2.9.9\xmlschemastypes.c
;	COMDAT _xmlSchemaComparePreserveCollapseStrings
_TEXT	SEGMENT
_tmp$ = -4						; size = 4
_x$ = 8							; size = 4
_y$ = 12						; size = 4
_invert$ = 16						; size = 4
_xmlSchemaComparePreserveCollapseStrings PROC		; COMDAT

; 4340 : {

	push	ebp
	mov	ebp, esp
	push	ecx
	mov	DWORD PTR [ebp-4], -858993460		; ccccccccH
	mov	ecx, OFFSET __74485836_xmlschemastypes@c
	call	@__CheckForDebuggerJustMyCode@4
$LN2@xmlSchemaC:

; 4341 :     int tmp;
; 4342 : 
; 4343 :     /*
; 4344 :     * Skip leading blank chars of the collapsed string.
; 4345 :     */
; 4346 :     while IS_WSP_BLANK_CH(*y)

	mov	eax, DWORD PTR _y$[ebp]
	movzx	ecx, BYTE PTR [eax]
	cmp	ecx, 32					; 00000020H
	je	SHORT $LN10@xmlSchemaC
	mov	edx, DWORD PTR _y$[ebp]
	movzx	eax, BYTE PTR [edx]
	cmp	eax, 9
	jl	SHORT $LN11@xmlSchemaC
	mov	ecx, DWORD PTR _y$[ebp]
	movzx	edx, BYTE PTR [ecx]
	cmp	edx, 10					; 0000000aH
	jle	SHORT $LN10@xmlSchemaC
$LN11@xmlSchemaC:
	mov	eax, DWORD PTR _y$[ebp]
	movzx	ecx, BYTE PTR [eax]
	cmp	ecx, 13					; 0000000dH
	jne	SHORT $LN4@xmlSchemaC
$LN10@xmlSchemaC:

; 4347 : 	y++;

	mov	edx, DWORD PTR _y$[ebp]
	add	edx, 1
	mov	DWORD PTR _y$[ebp], edx
	jmp	SHORT $LN2@xmlSchemaC
$LN4@xmlSchemaC:

; 4348 : 
; 4349 :     while ((*x != 0) && (*y != 0)) {

	mov	eax, DWORD PTR _x$[ebp]
	movzx	ecx, BYTE PTR [eax]
	test	ecx, ecx
	je	$LN5@xmlSchemaC
	mov	edx, DWORD PTR _y$[ebp]
	movzx	eax, BYTE PTR [edx]
	test	eax, eax
	je	$LN5@xmlSchemaC

; 4350 : 	if IS_WSP_BLANK_CH(*y) {

	mov	ecx, DWORD PTR _y$[ebp]
	movzx	edx, BYTE PTR [ecx]
	cmp	edx, 32					; 00000020H
	je	SHORT $LN14@xmlSchemaC
	mov	eax, DWORD PTR _y$[ebp]
	movzx	ecx, BYTE PTR [eax]
	cmp	ecx, 9
	jl	SHORT $LN15@xmlSchemaC
	mov	edx, DWORD PTR _y$[ebp]
	movzx	eax, BYTE PTR [edx]
	cmp	eax, 10					; 0000000aH
	jle	SHORT $LN14@xmlSchemaC
$LN15@xmlSchemaC:
	mov	ecx, DWORD PTR _y$[ebp]
	movzx	edx, BYTE PTR [ecx]
	cmp	edx, 13					; 0000000dH
	jne	$LN12@xmlSchemaC
$LN14@xmlSchemaC:

; 4351 : 	    if (! IS_WSP_SPACE_CH(*x)) {

	mov	eax, DWORD PTR _x$[ebp]
	movzx	ecx, BYTE PTR [eax]
	cmp	ecx, 32					; 00000020H
	je	SHORT $LN16@xmlSchemaC

; 4352 : 		/*
; 4353 : 		* The yv character would have been replaced to 0x20.
; 4354 : 		*/
; 4355 : 		if ((*x - 0x20) < 0) {

	mov	edx, DWORD PTR _x$[ebp]
	movzx	eax, BYTE PTR [edx]
	sub	eax, 32					; 00000020H
	jns	SHORT $LN17@xmlSchemaC

; 4356 : 		    if (invert)

	cmp	DWORD PTR _invert$[ebp], 0
	je	SHORT $LN19@xmlSchemaC

; 4357 : 			return(1);

	mov	eax, 1
	jmp	$LN1@xmlSchemaC
	jmp	SHORT $LN20@xmlSchemaC
$LN19@xmlSchemaC:

; 4358 : 		    else
; 4359 : 			return(-1);

	or	eax, -1
	jmp	$LN1@xmlSchemaC
$LN20@xmlSchemaC:

; 4360 : 		} else {

	jmp	SHORT $LN16@xmlSchemaC
$LN17@xmlSchemaC:

; 4361 : 		    if (invert)

	cmp	DWORD PTR _invert$[ebp], 0
	je	SHORT $LN21@xmlSchemaC

; 4362 : 			return(-1);

	or	eax, -1
	jmp	$LN1@xmlSchemaC
	jmp	SHORT $LN16@xmlSchemaC
$LN21@xmlSchemaC:

; 4363 : 		    else
; 4364 : 			return(1);

	mov	eax, 1
	jmp	$LN1@xmlSchemaC
$LN16@xmlSchemaC:

; 4365 : 		}
; 4366 : 	    }
; 4367 : 	    x++;

	mov	ecx, DWORD PTR _x$[ebp]
	add	ecx, 1
	mov	DWORD PTR _x$[ebp], ecx

; 4368 : 	    y++;

	mov	edx, DWORD PTR _y$[ebp]
	add	edx, 1
	mov	DWORD PTR _y$[ebp], edx
$LN6@xmlSchemaC:

; 4369 : 	    /*
; 4370 : 	    * Skip contiguous blank chars of the collapsed string.
; 4371 : 	    */
; 4372 : 	    while IS_WSP_BLANK_CH(*y)

	mov	eax, DWORD PTR _y$[ebp]
	movzx	ecx, BYTE PTR [eax]
	cmp	ecx, 32					; 00000020H
	je	SHORT $LN23@xmlSchemaC
	mov	edx, DWORD PTR _y$[ebp]
	movzx	eax, BYTE PTR [edx]
	cmp	eax, 9
	jl	SHORT $LN24@xmlSchemaC
	mov	ecx, DWORD PTR _y$[ebp]
	movzx	edx, BYTE PTR [ecx]
	cmp	edx, 10					; 0000000aH
	jle	SHORT $LN23@xmlSchemaC
$LN24@xmlSchemaC:
	mov	eax, DWORD PTR _y$[ebp]
	movzx	ecx, BYTE PTR [eax]
	cmp	ecx, 13					; 0000000dH
	jne	SHORT $LN7@xmlSchemaC
$LN23@xmlSchemaC:

; 4373 : 		y++;

	mov	edx, DWORD PTR _y$[ebp]
	add	edx, 1
	mov	DWORD PTR _y$[ebp], edx
	jmp	SHORT $LN6@xmlSchemaC
$LN7@xmlSchemaC:

; 4374 : 	} else {

	jmp	SHORT $LN13@xmlSchemaC
$LN12@xmlSchemaC:

; 4375 : 	    tmp = *x++ - *y++;

	mov	eax, DWORD PTR _x$[ebp]
	movzx	ecx, BYTE PTR [eax]
	mov	edx, DWORD PTR _y$[ebp]
	movzx	eax, BYTE PTR [edx]
	sub	ecx, eax
	mov	DWORD PTR _tmp$[ebp], ecx
	mov	ecx, DWORD PTR _y$[ebp]
	add	ecx, 1
	mov	DWORD PTR _y$[ebp], ecx
	mov	edx, DWORD PTR _x$[ebp]
	add	edx, 1
	mov	DWORD PTR _x$[ebp], edx

; 4376 : 	    if (tmp < 0) {

	cmp	DWORD PTR _tmp$[ebp], 0
	jge	SHORT $LN25@xmlSchemaC

; 4377 : 		if (invert)

	cmp	DWORD PTR _invert$[ebp], 0
	je	SHORT $LN26@xmlSchemaC

; 4378 : 		    return(1);

	mov	eax, 1
	jmp	$LN1@xmlSchemaC
	jmp	SHORT $LN25@xmlSchemaC
$LN26@xmlSchemaC:

; 4379 : 		else
; 4380 : 		    return(-1);

	or	eax, -1
	jmp	$LN1@xmlSchemaC
$LN25@xmlSchemaC:

; 4381 : 	    }
; 4382 : 	    if (tmp > 0) {

	cmp	DWORD PTR _tmp$[ebp], 0
	jle	SHORT $LN13@xmlSchemaC

; 4383 : 		if (invert)

	cmp	DWORD PTR _invert$[ebp], 0
	je	SHORT $LN29@xmlSchemaC

; 4384 : 		    return(-1);

	or	eax, -1
	jmp	$LN1@xmlSchemaC
	jmp	SHORT $LN13@xmlSchemaC
$LN29@xmlSchemaC:

; 4385 : 		else
; 4386 : 		    return(1);

	mov	eax, 1
	jmp	$LN1@xmlSchemaC
$LN13@xmlSchemaC:

; 4387 : 	    }
; 4388 : 	}
; 4389 :     }

	jmp	$LN4@xmlSchemaC
$LN5@xmlSchemaC:

; 4390 :     if (*x != 0) {

	mov	eax, DWORD PTR _x$[ebp]
	movzx	ecx, BYTE PTR [eax]
	test	ecx, ecx
	je	SHORT $LN31@xmlSchemaC

; 4391 : 	 if (invert)

	cmp	DWORD PTR _invert$[ebp], 0
	je	SHORT $LN32@xmlSchemaC

; 4392 : 	     return(-1);

	or	eax, -1
	jmp	SHORT $LN1@xmlSchemaC
	jmp	SHORT $LN31@xmlSchemaC
$LN32@xmlSchemaC:

; 4393 : 	 else
; 4394 : 	     return(1);

	mov	eax, 1
	jmp	SHORT $LN1@xmlSchemaC
$LN31@xmlSchemaC:

; 4395 :     }
; 4396 :     if (*y != 0) {

	mov	edx, DWORD PTR _y$[ebp]
	movzx	eax, BYTE PTR [edx]
	test	eax, eax
	je	SHORT $LN34@xmlSchemaC
$LN8@xmlSchemaC:

; 4397 : 	/*
; 4398 : 	* Skip trailing blank chars of the collapsed string.
; 4399 : 	*/
; 4400 : 	while IS_WSP_BLANK_CH(*y)

	mov	ecx, DWORD PTR _y$[ebp]
	movzx	edx, BYTE PTR [ecx]
	cmp	edx, 32					; 00000020H
	je	SHORT $LN35@xmlSchemaC
	mov	eax, DWORD PTR _y$[ebp]
	movzx	ecx, BYTE PTR [eax]
	cmp	ecx, 9
	jl	SHORT $LN36@xmlSchemaC
	mov	edx, DWORD PTR _y$[ebp]
	movzx	eax, BYTE PTR [edx]
	cmp	eax, 10					; 0000000aH
	jle	SHORT $LN35@xmlSchemaC
$LN36@xmlSchemaC:
	mov	ecx, DWORD PTR _y$[ebp]
	movzx	edx, BYTE PTR [ecx]
	cmp	edx, 13					; 0000000dH
	jne	SHORT $LN9@xmlSchemaC
$LN35@xmlSchemaC:

; 4401 : 	    y++;

	mov	eax, DWORD PTR _y$[ebp]
	add	eax, 1
	mov	DWORD PTR _y$[ebp], eax
	jmp	SHORT $LN8@xmlSchemaC
$LN9@xmlSchemaC:

; 4402 : 	if (*y != 0) {

	mov	ecx, DWORD PTR _y$[ebp]
	movzx	edx, BYTE PTR [ecx]
	test	edx, edx
	je	SHORT $LN34@xmlSchemaC

; 4403 : 	    if (invert)

	cmp	DWORD PTR _invert$[ebp], 0
	je	SHORT $LN38@xmlSchemaC

; 4404 : 		return(1);

	mov	eax, 1
	jmp	SHORT $LN1@xmlSchemaC
	jmp	SHORT $LN34@xmlSchemaC
$LN38@xmlSchemaC:

; 4405 : 	    else
; 4406 : 		return(-1);

	or	eax, -1
	jmp	SHORT $LN1@xmlSchemaC
$LN34@xmlSchemaC:

; 4407 : 	}
; 4408 :     }
; 4409 :     return(0);

	xor	eax, eax
$LN1@xmlSchemaC:

; 4410 : }

	add	esp, 4
	cmp	ebp, esp
	call	__RTC_CheckEsp
	mov	esp, ebp
	pop	ebp
	ret	0
_xmlSchemaComparePreserveCollapseStrings ENDP
_TEXT	ENDS
; Function compile flags: /Odtp /RTCsu
; File c:\users\dag\documents\_clients\codeproject authors group\windows on arm\libxml2\libxml2-2.9.9\xmlschemastypes.c
;	COMDAT _xmlSchemaComparePreserveReplaceStrings
_TEXT	SEGMENT
_tmp$ = -4						; size = 4
_x$ = 8							; size = 4
_y$ = 12						; size = 4
_invert$ = 16						; size = 4
_xmlSchemaComparePreserveReplaceStrings PROC		; COMDAT

; 4272 : {

	push	ebp
	mov	ebp, esp
	push	ecx
	mov	DWORD PTR [ebp-4], -858993460		; ccccccccH
	mov	ecx, OFFSET __74485836_xmlschemastypes@c
	call	@__CheckForDebuggerJustMyCode@4
$LN2@xmlSchemaC:

; 4273 :     int tmp;
; 4274 : 
; 4275 :     while ((*x != 0) && (*y != 0)) {

	mov	eax, DWORD PTR _x$[ebp]
	movzx	ecx, BYTE PTR [eax]
	test	ecx, ecx
	je	$LN3@xmlSchemaC
	mov	edx, DWORD PTR _y$[ebp]
	movzx	eax, BYTE PTR [edx]
	test	eax, eax
	je	$LN3@xmlSchemaC

; 4276 : 	if (IS_WSP_REPLACE_CH(*y)) {

	mov	ecx, DWORD PTR _y$[ebp]
	movzx	edx, BYTE PTR [ecx]
	cmp	edx, 9
	je	SHORT $LN6@xmlSchemaC
	mov	eax, DWORD PTR _y$[ebp]
	movzx	ecx, BYTE PTR [eax]
	cmp	ecx, 10					; 0000000aH
	je	SHORT $LN6@xmlSchemaC
	mov	edx, DWORD PTR _y$[ebp]
	movzx	eax, BYTE PTR [edx]
	cmp	eax, 13					; 0000000dH
	jne	SHORT $LN4@xmlSchemaC
$LN6@xmlSchemaC:

; 4277 : 	    if (! IS_WSP_SPACE_CH(*x)) {

	mov	ecx, DWORD PTR _x$[ebp]
	movzx	edx, BYTE PTR [ecx]
	cmp	edx, 32					; 00000020H
	je	SHORT $LN7@xmlSchemaC

; 4278 : 		if ((*x - 0x20) < 0) {

	mov	eax, DWORD PTR _x$[ebp]
	movzx	ecx, BYTE PTR [eax]
	sub	ecx, 32					; 00000020H
	jns	SHORT $LN8@xmlSchemaC

; 4279 : 		    if (invert)

	cmp	DWORD PTR _invert$[ebp], 0
	je	SHORT $LN10@xmlSchemaC

; 4280 : 			return(1);

	mov	eax, 1
	jmp	$LN1@xmlSchemaC
	jmp	SHORT $LN11@xmlSchemaC
$LN10@xmlSchemaC:

; 4281 : 		    else
; 4282 : 			return(-1);

	or	eax, -1
	jmp	$LN1@xmlSchemaC
$LN11@xmlSchemaC:

; 4283 : 		} else {

	jmp	SHORT $LN7@xmlSchemaC
$LN8@xmlSchemaC:

; 4284 : 		    if (invert)

	cmp	DWORD PTR _invert$[ebp], 0
	je	SHORT $LN12@xmlSchemaC

; 4285 : 			return(-1);

	or	eax, -1
	jmp	$LN1@xmlSchemaC
	jmp	SHORT $LN7@xmlSchemaC
$LN12@xmlSchemaC:

; 4286 : 		    else
; 4287 : 			return(1);

	mov	eax, 1
	jmp	$LN1@xmlSchemaC
$LN7@xmlSchemaC:

; 4288 : 		}
; 4289 : 	    }
; 4290 : 	} else {

	jmp	SHORT $LN5@xmlSchemaC
$LN4@xmlSchemaC:

; 4291 : 	    tmp = *x - *y;

	mov	edx, DWORD PTR _x$[ebp]
	movzx	eax, BYTE PTR [edx]
	mov	ecx, DWORD PTR _y$[ebp]
	movzx	edx, BYTE PTR [ecx]
	sub	eax, edx
	mov	DWORD PTR _tmp$[ebp], eax

; 4292 : 	    if (tmp < 0) {

	jns	SHORT $LN14@xmlSchemaC

; 4293 : 		if (invert)

	cmp	DWORD PTR _invert$[ebp], 0
	je	SHORT $LN15@xmlSchemaC

; 4294 : 		    return(1);

	mov	eax, 1
	jmp	SHORT $LN1@xmlSchemaC
	jmp	SHORT $LN14@xmlSchemaC
$LN15@xmlSchemaC:

; 4295 : 		else
; 4296 : 		    return(-1);

	or	eax, -1
	jmp	SHORT $LN1@xmlSchemaC
$LN14@xmlSchemaC:

; 4297 : 	    }
; 4298 : 	    if (tmp > 0) {

	cmp	DWORD PTR _tmp$[ebp], 0
	jle	SHORT $LN5@xmlSchemaC

; 4299 : 		if (invert)

	cmp	DWORD PTR _invert$[ebp], 0
	je	SHORT $LN18@xmlSchemaC

; 4300 : 		    return(-1);

	or	eax, -1
	jmp	SHORT $LN1@xmlSchemaC
	jmp	SHORT $LN5@xmlSchemaC
$LN18@xmlSchemaC:

; 4301 : 		else
; 4302 : 		    return(1);

	mov	eax, 1
	jmp	SHORT $LN1@xmlSchemaC
$LN5@xmlSchemaC:

; 4303 : 	    }
; 4304 : 	}
; 4305 : 	x++;

	mov	eax, DWORD PTR _x$[ebp]
	add	eax, 1
	mov	DWORD PTR _x$[ebp], eax

; 4306 : 	y++;

	mov	ecx, DWORD PTR _y$[ebp]
	add	ecx, 1
	mov	DWORD PTR _y$[ebp], ecx

; 4307 :     }

	jmp	$LN2@xmlSchemaC
$LN3@xmlSchemaC:

; 4308 :     if (*x != 0) {

	mov	edx, DWORD PTR _x$[ebp]
	movzx	eax, BYTE PTR [edx]
	test	eax, eax
	je	SHORT $LN20@xmlSchemaC

; 4309 : 	if (invert)

	cmp	DWORD PTR _invert$[ebp], 0
	je	SHORT $LN21@xmlSchemaC

; 4310 : 	    return(-1);

	or	eax, -1
	jmp	SHORT $LN1@xmlSchemaC
	jmp	SHORT $LN20@xmlSchemaC
$LN21@xmlSchemaC:

; 4311 : 	else
; 4312 : 	    return(1);

	mov	eax, 1
	jmp	SHORT $LN1@xmlSchemaC
$LN20@xmlSchemaC:

; 4313 :     }
; 4314 :     if (*y != 0) {

	mov	ecx, DWORD PTR _y$[ebp]
	movzx	edx, BYTE PTR [ecx]
	test	edx, edx
	je	SHORT $LN23@xmlSchemaC

; 4315 : 	if (invert)

	cmp	DWORD PTR _invert$[ebp], 0
	je	SHORT $LN24@xmlSchemaC

; 4316 : 	    return(1);

	mov	eax, 1
	jmp	SHORT $LN1@xmlSchemaC
	jmp	SHORT $LN23@xmlSchemaC
$LN24@xmlSchemaC:

; 4317 : 	else
; 4318 : 	    return(-1);

	or	eax, -1
	jmp	SHORT $LN1@xmlSchemaC
$LN23@xmlSchemaC:

; 4319 :     }
; 4320 :     return(0);

	xor	eax, eax
$LN1@xmlSchemaC:

; 4321 : }

	add	esp, 4
	cmp	ebp, esp
	call	__RTC_CheckEsp
	mov	esp, ebp
	pop	ebp
	ret	0
_xmlSchemaComparePreserveReplaceStrings ENDP
_TEXT	ENDS
; Function compile flags: /Odtp /RTCsu
; File c:\users\dag\documents\_clients\codeproject authors group\windows on arm\libxml2\libxml2-2.9.9\xmlschemastypes.c
;	COMDAT _xmlSchemaCompareDates
_TEXT	SEGMENT
tv410 = -120						; size = 4
tv406 = -116						; size = 4
tv727 = -112						; size = 4
tv716 = -108						; size = 4
tv677 = -104						; size = 4
tv666 = -100						; size = 4
tv641 = -96						; size = 4
tv630 = -92						; size = 4
tv589 = -88						; size = 4
tv578 = -84						; size = 4
tv553 = -80						; size = 4
tv542 = -76						; size = 4
_sec$1 = -72						; size = 8
_ret$2 = -64						; size = 4
_ret$3 = -60						; size = 4
_sec$4 = -56						; size = 8
_ret$5 = -48						; size = 4
_sec$6 = -44						; size = 8
_q2d$ = -36						; size = 4
_q1d$ = -32						; size = 4
_p2d$ = -28						; size = 4
_p1d$ = -24						; size = 4
_q2$ = -20						; size = 4
_q1$ = -16						; size = 4
_p2$ = -12						; size = 4
_p1$ = -8						; size = 4
_and_mask$ = -4						; size = 1
_xor_mask$ = -3						; size = 1
_ymask$ = -2						; size = 1
_xmask$ = -1						; size = 1
_x$ = 8							; size = 4
_y$ = 12						; size = 4
_xmlSchemaCompareDates PROC				; COMDAT

; 4009 : {

	push	ebp
	mov	ebp, esp
	sub	esp, 120				; 00000078H
	push	edi
	lea	edi, DWORD PTR [ebp-120]
	mov	ecx, 30					; 0000001eH
	mov	eax, -858993460				; ccccccccH
	rep stosd
	mov	ecx, OFFSET __74485836_xmlschemastypes@c
	call	@__CheckForDebuggerJustMyCode@4

; 4010 :     unsigned char xmask, ymask, xor_mask, and_mask;
; 4011 :     xmlSchemaValPtr p1, p2, q1, q2;
; 4012 :     long p1d, p2d, q1d, q2d;
; 4013 : 
; 4014 :     if ((x == NULL) || (y == NULL))

	cmp	DWORD PTR _x$[ebp], 0
	je	SHORT $LN7@xmlSchemaC
	cmp	DWORD PTR _y$[ebp], 0
	jne	SHORT $LN6@xmlSchemaC
$LN7@xmlSchemaC:

; 4015 :         return -2;

	mov	eax, -2					; fffffffeH
	jmp	$LN1@xmlSchemaC
$LN6@xmlSchemaC:

; 4016 : 
; 4017 :     if (x->value.date.tz_flag) {

	mov	eax, DWORD PTR _x$[ebp]
	mov	ecx, DWORD PTR [eax+24]
	and	ecx, 1
	je	$LN8@xmlSchemaC

; 4018 : 
; 4019 :         if (!y->value.date.tz_flag) {

	mov	edx, DWORD PTR _y$[ebp]
	mov	eax, DWORD PTR [edx+24]
	and	eax, 1
	jne	$LN14@xmlSchemaC

; 4020 :             p1 = xmlSchemaDateNormalize(x, 0);

	sub	esp, 8
	xorps	xmm0, xmm0
	movsd	QWORD PTR [esp], xmm0
	mov	ecx, DWORD PTR _x$[ebp]
	push	ecx
	call	_xmlSchemaDateNormalize
	add	esp, 12					; 0000000cH
	mov	DWORD PTR _p1$[ebp], eax

; 4021 :             p1d = _xmlSchemaDateCastYMToDays(p1) + p1->value.date.day;

	mov	edx, DWORD PTR _p1$[ebp]
	push	edx
	call	__xmlSchemaDateCastYMToDays
	add	esp, 4
	mov	ecx, DWORD PTR _p1$[ebp]
	mov	edx, DWORD PTR [ecx+12]
	shr	edx, 4
	and	edx, 31					; 0000001fH
	add	eax, edx
	mov	DWORD PTR _p1d$[ebp], eax

; 4022 :             /* normalize y + 14:00 */
; 4023 :             q1 = xmlSchemaDateNormalize(y, (14 * SECS_PER_HOUR));

	sub	esp, 8
	movsd	xmm0, QWORD PTR __real@40e89c0000000000
	movsd	QWORD PTR [esp], xmm0
	mov	eax, DWORD PTR _y$[ebp]
	push	eax
	call	_xmlSchemaDateNormalize
	add	esp, 12					; 0000000cH
	mov	DWORD PTR _q1$[ebp], eax

; 4024 : 
; 4025 :             q1d = _xmlSchemaDateCastYMToDays(q1) + q1->value.date.day;

	mov	ecx, DWORD PTR _q1$[ebp]
	push	ecx
	call	__xmlSchemaDateCastYMToDays
	add	esp, 4
	mov	edx, DWORD PTR _q1$[ebp]
	mov	ecx, DWORD PTR [edx+12]
	shr	ecx, 4
	and	ecx, 31					; 0000001fH
	add	eax, ecx
	mov	DWORD PTR _q1d$[ebp], eax

; 4026 :             if (p1d < q1d) {

	mov	edx, DWORD PTR _p1d$[ebp]
	cmp	edx, DWORD PTR _q1d$[ebp]
	jge	SHORT $LN11@xmlSchemaC

; 4027 : 		xmlSchemaFreeValue(p1);

	mov	eax, DWORD PTR _p1$[ebp]
	push	eax
	call	_xmlSchemaFreeValue
	add	esp, 4

; 4028 : 		xmlSchemaFreeValue(q1);

	mov	ecx, DWORD PTR _q1$[ebp]
	push	ecx
	call	_xmlSchemaFreeValue
	add	esp, 4

; 4029 :                 return -1;

	or	eax, -1
	jmp	$LN1@xmlSchemaC
	jmp	$LN14@xmlSchemaC
$LN11@xmlSchemaC:

; 4030 : 	    } else if (p1d == q1d) {

	mov	edx, DWORD PTR _p1d$[ebp]
	cmp	edx, DWORD PTR _q1d$[ebp]
	jne	$LN13@xmlSchemaC

; 4031 :                 double sec;
; 4032 : 
; 4033 :                 sec = TIME_TO_NUMBER(p1) - TIME_TO_NUMBER(q1);

	mov	eax, DWORD PTR _p1$[ebp]
	mov	ecx, DWORD PTR [eax+12]
	shr	ecx, 9
	and	ecx, 31					; 0000001fH
	imul	edx, ecx, 3600
	mov	eax, DWORD PTR _p1$[ebp]
	mov	ecx, DWORD PTR [eax+12]
	shr	ecx, 14					; 0000000eH
	and	ecx, 63					; 0000003fH
	imul	eax, ecx, 60
	add	edx, eax
	mov	ecx, DWORD PTR _p1$[ebp]
	mov	eax, DWORD PTR [ecx+24]
	shl	eax, 19					; 00000013H
	sar	eax, 20					; 00000014H
	imul	ecx, eax, 60
	add	edx, ecx
	mov	DWORD PTR tv542[ebp], edx
	cvtsi2sd xmm0, DWORD PTR tv542[ebp]
	mov	edx, DWORD PTR tv542[ebp]
	shr	edx, 31					; 0000001fH
	addsd	xmm0, QWORD PTR __xmm@41f00000000000000000000000000000[edx*8]
	mov	eax, DWORD PTR _p1$[ebp]
	addsd	xmm0, QWORD PTR [eax+16]
	mov	ecx, DWORD PTR _q1$[ebp]
	mov	edx, DWORD PTR [ecx+12]
	shr	edx, 9
	and	edx, 31					; 0000001fH
	imul	eax, edx, 3600
	mov	ecx, DWORD PTR _q1$[ebp]
	mov	edx, DWORD PTR [ecx+12]
	shr	edx, 14					; 0000000eH
	and	edx, 63					; 0000003fH
	imul	ecx, edx, 60
	add	eax, ecx
	mov	edx, DWORD PTR _q1$[ebp]
	mov	ecx, DWORD PTR [edx+24]
	shl	ecx, 19					; 00000013H
	sar	ecx, 20					; 00000014H
	imul	edx, ecx, 60
	add	eax, edx
	mov	DWORD PTR tv553[ebp], eax
	cvtsi2sd xmm1, DWORD PTR tv553[ebp]
	mov	eax, DWORD PTR tv553[ebp]
	shr	eax, 31					; 0000001fH
	addsd	xmm1, QWORD PTR __xmm@41f00000000000000000000000000000[eax*8]
	mov	ecx, DWORD PTR _q1$[ebp]
	addsd	xmm1, QWORD PTR [ecx+16]
	subsd	xmm0, xmm1
	movsd	QWORD PTR _sec$6[ebp], xmm0

; 4034 :                 if (sec < 0.0) {

	xorps	xmm0, xmm0
	comisd	xmm0, QWORD PTR _sec$6[ebp]
	jbe	SHORT $LN15@xmlSchemaC

; 4035 : 		    xmlSchemaFreeValue(p1);

	mov	edx, DWORD PTR _p1$[ebp]
	push	edx
	call	_xmlSchemaFreeValue
	add	esp, 4

; 4036 : 		    xmlSchemaFreeValue(q1);

	mov	eax, DWORD PTR _q1$[ebp]
	push	eax
	call	_xmlSchemaFreeValue
	add	esp, 4

; 4037 :                     return -1;

	or	eax, -1
	jmp	$LN1@xmlSchemaC

; 4038 : 		} else {

	jmp	$LN22@xmlSchemaC
$LN15@xmlSchemaC:

; 4039 : 		    int ret = 0;

	mov	DWORD PTR _ret$5[ebp], 0

; 4040 :                     /* normalize y - 14:00 */
; 4041 :                     q2 = xmlSchemaDateNormalize(y, -(14 * SECS_PER_HOUR));

	sub	esp, 8
	movsd	xmm0, QWORD PTR __real@c0e89c0000000000
	movsd	QWORD PTR [esp], xmm0
	mov	ecx, DWORD PTR _y$[ebp]
	push	ecx
	call	_xmlSchemaDateNormalize
	add	esp, 12					; 0000000cH
	mov	DWORD PTR _q2$[ebp], eax

; 4042 :                     q2d = _xmlSchemaDateCastYMToDays(q2) + q2->value.date.day;

	mov	edx, DWORD PTR _q2$[ebp]
	push	edx
	call	__xmlSchemaDateCastYMToDays
	add	esp, 4
	mov	ecx, DWORD PTR _q2$[ebp]
	mov	edx, DWORD PTR [ecx+12]
	shr	edx, 4
	and	edx, 31					; 0000001fH
	add	eax, edx
	mov	DWORD PTR _q2d$[ebp], eax

; 4043 :                     if (p1d > q2d)

	mov	eax, DWORD PTR _p1d$[ebp]
	cmp	eax, DWORD PTR _q2d$[ebp]
	jle	SHORT $LN17@xmlSchemaC

; 4044 :                         ret = 1;

	mov	DWORD PTR _ret$5[ebp], 1
	jmp	$LN21@xmlSchemaC
$LN17@xmlSchemaC:

; 4045 :                     else if (p1d == q2d) {

	mov	ecx, DWORD PTR _p1d$[ebp]
	cmp	ecx, DWORD PTR _q2d$[ebp]
	jne	$LN21@xmlSchemaC

; 4046 :                         sec = TIME_TO_NUMBER(p1) - TIME_TO_NUMBER(q2);

	mov	edx, DWORD PTR _p1$[ebp]
	mov	eax, DWORD PTR [edx+12]
	shr	eax, 9
	and	eax, 31					; 0000001fH
	imul	ecx, eax, 3600
	mov	edx, DWORD PTR _p1$[ebp]
	mov	eax, DWORD PTR [edx+12]
	shr	eax, 14					; 0000000eH
	and	eax, 63					; 0000003fH
	imul	edx, eax, 60
	add	ecx, edx
	mov	eax, DWORD PTR _p1$[ebp]
	mov	edx, DWORD PTR [eax+24]
	shl	edx, 19					; 00000013H
	sar	edx, 20					; 00000014H
	imul	eax, edx, 60
	add	ecx, eax
	mov	DWORD PTR tv578[ebp], ecx
	cvtsi2sd xmm0, DWORD PTR tv578[ebp]
	mov	ecx, DWORD PTR tv578[ebp]
	shr	ecx, 31					; 0000001fH
	addsd	xmm0, QWORD PTR __xmm@41f00000000000000000000000000000[ecx*8]
	mov	edx, DWORD PTR _p1$[ebp]
	addsd	xmm0, QWORD PTR [edx+16]
	mov	eax, DWORD PTR _q2$[ebp]
	mov	ecx, DWORD PTR [eax+12]
	shr	ecx, 9
	and	ecx, 31					; 0000001fH
	imul	edx, ecx, 3600
	mov	eax, DWORD PTR _q2$[ebp]
	mov	ecx, DWORD PTR [eax+12]
	shr	ecx, 14					; 0000000eH
	and	ecx, 63					; 0000003fH
	imul	eax, ecx, 60
	add	edx, eax
	mov	ecx, DWORD PTR _q2$[ebp]
	mov	eax, DWORD PTR [ecx+24]
	shl	eax, 19					; 00000013H
	sar	eax, 20					; 00000014H
	imul	ecx, eax, 60
	add	edx, ecx
	mov	DWORD PTR tv589[ebp], edx
	cvtsi2sd xmm1, DWORD PTR tv589[ebp]
	mov	edx, DWORD PTR tv589[ebp]
	shr	edx, 31					; 0000001fH
	addsd	xmm1, QWORD PTR __xmm@41f00000000000000000000000000000[edx*8]
	mov	eax, DWORD PTR _q2$[ebp]
	addsd	xmm1, QWORD PTR [eax+16]
	subsd	xmm0, xmm1
	movsd	QWORD PTR _sec$6[ebp], xmm0

; 4047 :                         if (sec > 0.0)

	movsd	xmm0, QWORD PTR _sec$6[ebp]
	comisd	xmm0, QWORD PTR __real@0000000000000000
	jbe	SHORT $LN20@xmlSchemaC

; 4048 :                             ret = 1;

	mov	DWORD PTR _ret$5[ebp], 1
	jmp	SHORT $LN21@xmlSchemaC
$LN20@xmlSchemaC:

; 4049 :                         else
; 4050 :                             ret = 2; /* indeterminate */

	mov	DWORD PTR _ret$5[ebp], 2
$LN21@xmlSchemaC:

; 4051 :                     }
; 4052 : 		    xmlSchemaFreeValue(p1);

	mov	ecx, DWORD PTR _p1$[ebp]
	push	ecx
	call	_xmlSchemaFreeValue
	add	esp, 4

; 4053 : 		    xmlSchemaFreeValue(q1);

	mov	edx, DWORD PTR _q1$[ebp]
	push	edx
	call	_xmlSchemaFreeValue
	add	esp, 4

; 4054 : 		    xmlSchemaFreeValue(q2);

	mov	eax, DWORD PTR _q2$[ebp]
	push	eax
	call	_xmlSchemaFreeValue
	add	esp, 4

; 4055 : 		    if (ret != 0)

	cmp	DWORD PTR _ret$5[ebp], 0
	je	SHORT $LN22@xmlSchemaC

; 4056 : 		        return(ret);

	mov	eax, DWORD PTR _ret$5[ebp]
	jmp	$LN1@xmlSchemaC
$LN22@xmlSchemaC:

; 4057 :                 }
; 4058 :             } else {

	jmp	SHORT $LN14@xmlSchemaC
$LN13@xmlSchemaC:

; 4059 : 		xmlSchemaFreeValue(p1);

	mov	ecx, DWORD PTR _p1$[ebp]
	push	ecx
	call	_xmlSchemaFreeValue
	add	esp, 4

; 4060 : 		xmlSchemaFreeValue(q1);

	mov	edx, DWORD PTR _q1$[ebp]
	push	edx
	call	_xmlSchemaFreeValue
	add	esp, 4
$LN14@xmlSchemaC:

; 4061 : 	    }
; 4062 :         }

	jmp	$LN27@xmlSchemaC
$LN8@xmlSchemaC:

; 4063 :     } else if (y->value.date.tz_flag) {

	mov	eax, DWORD PTR _y$[ebp]
	mov	ecx, DWORD PTR [eax+24]
	and	ecx, 1
	je	$LN27@xmlSchemaC

; 4064 :         q1 = xmlSchemaDateNormalize(y, 0);

	sub	esp, 8
	xorps	xmm0, xmm0
	movsd	QWORD PTR [esp], xmm0
	mov	edx, DWORD PTR _y$[ebp]
	push	edx
	call	_xmlSchemaDateNormalize
	add	esp, 12					; 0000000cH
	mov	DWORD PTR _q1$[ebp], eax

; 4065 :         q1d = _xmlSchemaDateCastYMToDays(q1) + q1->value.date.day;

	mov	eax, DWORD PTR _q1$[ebp]
	push	eax
	call	__xmlSchemaDateCastYMToDays
	add	esp, 4
	mov	ecx, DWORD PTR _q1$[ebp]
	mov	edx, DWORD PTR [ecx+12]
	shr	edx, 4
	and	edx, 31					; 0000001fH
	add	eax, edx
	mov	DWORD PTR _q1d$[ebp], eax

; 4066 : 
; 4067 :         /* normalize x - 14:00 */
; 4068 :         p1 = xmlSchemaDateNormalize(x, -(14 * SECS_PER_HOUR));

	sub	esp, 8
	movsd	xmm0, QWORD PTR __real@c0e89c0000000000
	movsd	QWORD PTR [esp], xmm0
	mov	eax, DWORD PTR _x$[ebp]
	push	eax
	call	_xmlSchemaDateNormalize
	add	esp, 12					; 0000000cH
	mov	DWORD PTR _p1$[ebp], eax

; 4069 :         p1d = _xmlSchemaDateCastYMToDays(p1) + p1->value.date.day;

	mov	ecx, DWORD PTR _p1$[ebp]
	push	ecx
	call	__xmlSchemaDateCastYMToDays
	add	esp, 4
	mov	edx, DWORD PTR _p1$[ebp]
	mov	ecx, DWORD PTR [edx+12]
	shr	ecx, 4
	and	ecx, 31					; 0000001fH
	add	eax, ecx
	mov	DWORD PTR _p1d$[ebp], eax

; 4070 : 
; 4071 :         if (p1d < q1d) {

	mov	edx, DWORD PTR _p1d$[ebp]
	cmp	edx, DWORD PTR _q1d$[ebp]
	jge	SHORT $LN24@xmlSchemaC

; 4072 : 	    xmlSchemaFreeValue(p1);

	mov	eax, DWORD PTR _p1$[ebp]
	push	eax
	call	_xmlSchemaFreeValue
	add	esp, 4

; 4073 : 	    xmlSchemaFreeValue(q1);

	mov	ecx, DWORD PTR _q1$[ebp]
	push	ecx
	call	_xmlSchemaFreeValue
	add	esp, 4

; 4074 :             return -1;

	or	eax, -1
	jmp	$LN1@xmlSchemaC
	jmp	$LN27@xmlSchemaC
$LN24@xmlSchemaC:

; 4075 : 	} else if (p1d == q1d) {

	mov	edx, DWORD PTR _p1d$[ebp]
	cmp	edx, DWORD PTR _q1d$[ebp]
	jne	$LN26@xmlSchemaC

; 4076 :             double sec;
; 4077 : 
; 4078 :             sec = TIME_TO_NUMBER(p1) - TIME_TO_NUMBER(q1);

	mov	eax, DWORD PTR _p1$[ebp]
	mov	ecx, DWORD PTR [eax+12]
	shr	ecx, 9
	and	ecx, 31					; 0000001fH
	imul	edx, ecx, 3600
	mov	eax, DWORD PTR _p1$[ebp]
	mov	ecx, DWORD PTR [eax+12]
	shr	ecx, 14					; 0000000eH
	and	ecx, 63					; 0000003fH
	imul	eax, ecx, 60
	add	edx, eax
	mov	ecx, DWORD PTR _p1$[ebp]
	mov	eax, DWORD PTR [ecx+24]
	shl	eax, 19					; 00000013H
	sar	eax, 20					; 00000014H
	imul	ecx, eax, 60
	add	edx, ecx
	mov	DWORD PTR tv630[ebp], edx
	cvtsi2sd xmm0, DWORD PTR tv630[ebp]
	mov	edx, DWORD PTR tv630[ebp]
	shr	edx, 31					; 0000001fH
	addsd	xmm0, QWORD PTR __xmm@41f00000000000000000000000000000[edx*8]
	mov	eax, DWORD PTR _p1$[ebp]
	addsd	xmm0, QWORD PTR [eax+16]
	mov	ecx, DWORD PTR _q1$[ebp]
	mov	edx, DWORD PTR [ecx+12]
	shr	edx, 9
	and	edx, 31					; 0000001fH
	imul	eax, edx, 3600
	mov	ecx, DWORD PTR _q1$[ebp]
	mov	edx, DWORD PTR [ecx+12]
	shr	edx, 14					; 0000000eH
	and	edx, 63					; 0000003fH
	imul	ecx, edx, 60
	add	eax, ecx
	mov	edx, DWORD PTR _q1$[ebp]
	mov	ecx, DWORD PTR [edx+24]
	shl	ecx, 19					; 00000013H
	sar	ecx, 20					; 00000014H
	imul	edx, ecx, 60
	add	eax, edx
	mov	DWORD PTR tv641[ebp], eax
	cvtsi2sd xmm1, DWORD PTR tv641[ebp]
	mov	eax, DWORD PTR tv641[ebp]
	shr	eax, 31					; 0000001fH
	addsd	xmm1, QWORD PTR __xmm@41f00000000000000000000000000000[eax*8]
	mov	ecx, DWORD PTR _q1$[ebp]
	addsd	xmm1, QWORD PTR [ecx+16]
	subsd	xmm0, xmm1
	movsd	QWORD PTR _sec$4[ebp], xmm0

; 4079 :             if (sec < 0.0) {

	xorps	xmm0, xmm0
	comisd	xmm0, QWORD PTR _sec$4[ebp]
	jbe	SHORT $LN28@xmlSchemaC

; 4080 : 		xmlSchemaFreeValue(p1);

	mov	edx, DWORD PTR _p1$[ebp]
	push	edx
	call	_xmlSchemaFreeValue
	add	esp, 4

; 4081 : 		xmlSchemaFreeValue(q1);

	mov	eax, DWORD PTR _q1$[ebp]
	push	eax
	call	_xmlSchemaFreeValue
	add	esp, 4

; 4082 :                 return -1;

	or	eax, -1
	jmp	$LN1@xmlSchemaC

; 4083 : 	    } else {

	jmp	$LN35@xmlSchemaC
$LN28@xmlSchemaC:

; 4084 : 	        int ret = 0;

	mov	DWORD PTR _ret$3[ebp], 0

; 4085 :                 /* normalize x + 14:00 */
; 4086 :                 p2 = xmlSchemaDateNormalize(x, (14 * SECS_PER_HOUR));

	sub	esp, 8
	movsd	xmm0, QWORD PTR __real@40e89c0000000000
	movsd	QWORD PTR [esp], xmm0
	mov	ecx, DWORD PTR _x$[ebp]
	push	ecx
	call	_xmlSchemaDateNormalize
	add	esp, 12					; 0000000cH
	mov	DWORD PTR _p2$[ebp], eax

; 4087 :                 p2d = _xmlSchemaDateCastYMToDays(p2) + p2->value.date.day;

	mov	edx, DWORD PTR _p2$[ebp]
	push	edx
	call	__xmlSchemaDateCastYMToDays
	add	esp, 4
	mov	ecx, DWORD PTR _p2$[ebp]
	mov	edx, DWORD PTR [ecx+12]
	shr	edx, 4
	and	edx, 31					; 0000001fH
	add	eax, edx
	mov	DWORD PTR _p2d$[ebp], eax

; 4088 : 
; 4089 :                 if (p2d > q1d) {

	mov	eax, DWORD PTR _p2d$[ebp]
	cmp	eax, DWORD PTR _q1d$[ebp]
	jle	SHORT $LN30@xmlSchemaC

; 4090 :                     ret = 1;

	mov	DWORD PTR _ret$3[ebp], 1
	jmp	$LN34@xmlSchemaC
$LN30@xmlSchemaC:

; 4091 : 		} else if (p2d == q1d) {

	mov	ecx, DWORD PTR _p2d$[ebp]
	cmp	ecx, DWORD PTR _q1d$[ebp]
	jne	$LN34@xmlSchemaC

; 4092 :                     sec = TIME_TO_NUMBER(p2) - TIME_TO_NUMBER(q1);

	mov	edx, DWORD PTR _p2$[ebp]
	mov	eax, DWORD PTR [edx+12]
	shr	eax, 9
	and	eax, 31					; 0000001fH
	imul	ecx, eax, 3600
	mov	edx, DWORD PTR _p2$[ebp]
	mov	eax, DWORD PTR [edx+12]
	shr	eax, 14					; 0000000eH
	and	eax, 63					; 0000003fH
	imul	edx, eax, 60
	add	ecx, edx
	mov	eax, DWORD PTR _p2$[ebp]
	mov	edx, DWORD PTR [eax+24]
	shl	edx, 19					; 00000013H
	sar	edx, 20					; 00000014H
	imul	eax, edx, 60
	add	ecx, eax
	mov	DWORD PTR tv666[ebp], ecx
	cvtsi2sd xmm0, DWORD PTR tv666[ebp]
	mov	ecx, DWORD PTR tv666[ebp]
	shr	ecx, 31					; 0000001fH
	addsd	xmm0, QWORD PTR __xmm@41f00000000000000000000000000000[ecx*8]
	mov	edx, DWORD PTR _p2$[ebp]
	addsd	xmm0, QWORD PTR [edx+16]
	mov	eax, DWORD PTR _q1$[ebp]
	mov	ecx, DWORD PTR [eax+12]
	shr	ecx, 9
	and	ecx, 31					; 0000001fH
	imul	edx, ecx, 3600
	mov	eax, DWORD PTR _q1$[ebp]
	mov	ecx, DWORD PTR [eax+12]
	shr	ecx, 14					; 0000000eH
	and	ecx, 63					; 0000003fH
	imul	eax, ecx, 60
	add	edx, eax
	mov	ecx, DWORD PTR _q1$[ebp]
	mov	eax, DWORD PTR [ecx+24]
	shl	eax, 19					; 00000013H
	sar	eax, 20					; 00000014H
	imul	ecx, eax, 60
	add	edx, ecx
	mov	DWORD PTR tv677[ebp], edx
	cvtsi2sd xmm1, DWORD PTR tv677[ebp]
	mov	edx, DWORD PTR tv677[ebp]
	shr	edx, 31					; 0000001fH
	addsd	xmm1, QWORD PTR __xmm@41f00000000000000000000000000000[edx*8]
	mov	eax, DWORD PTR _q1$[ebp]
	addsd	xmm1, QWORD PTR [eax+16]
	subsd	xmm0, xmm1
	movsd	QWORD PTR _sec$4[ebp], xmm0

; 4093 :                     if (sec > 0.0)

	movsd	xmm0, QWORD PTR _sec$4[ebp]
	comisd	xmm0, QWORD PTR __real@0000000000000000
	jbe	SHORT $LN33@xmlSchemaC

; 4094 :                         ret = 1;

	mov	DWORD PTR _ret$3[ebp], 1
	jmp	SHORT $LN34@xmlSchemaC
$LN33@xmlSchemaC:

; 4095 :                     else
; 4096 :                         ret = 2; /* indeterminate */

	mov	DWORD PTR _ret$3[ebp], 2
$LN34@xmlSchemaC:

; 4097 :                 }
; 4098 : 		xmlSchemaFreeValue(p1);

	mov	ecx, DWORD PTR _p1$[ebp]
	push	ecx
	call	_xmlSchemaFreeValue
	add	esp, 4

; 4099 : 		xmlSchemaFreeValue(q1);

	mov	edx, DWORD PTR _q1$[ebp]
	push	edx
	call	_xmlSchemaFreeValue
	add	esp, 4

; 4100 : 		xmlSchemaFreeValue(p2);

	mov	eax, DWORD PTR _p2$[ebp]
	push	eax
	call	_xmlSchemaFreeValue
	add	esp, 4

; 4101 : 		if (ret != 0)

	cmp	DWORD PTR _ret$3[ebp], 0
	je	SHORT $LN35@xmlSchemaC

; 4102 : 		    return(ret);

	mov	eax, DWORD PTR _ret$3[ebp]
	jmp	$LN1@xmlSchemaC
$LN35@xmlSchemaC:

; 4103 :             }
; 4104 : 	} else {

	jmp	SHORT $LN27@xmlSchemaC
$LN26@xmlSchemaC:

; 4105 : 	    xmlSchemaFreeValue(p1);

	mov	ecx, DWORD PTR _p1$[ebp]
	push	ecx
	call	_xmlSchemaFreeValue
	add	esp, 4

; 4106 : 	    xmlSchemaFreeValue(q1);

	mov	edx, DWORD PTR _q1$[ebp]
	push	edx
	call	_xmlSchemaFreeValue
	add	esp, 4
$LN27@xmlSchemaC:

; 4107 :         }
; 4108 :     }
; 4109 : 
; 4110 :     /*
; 4111 :      * if the same type then calculate the difference
; 4112 :      */
; 4113 :     if (x->type == y->type) {

	mov	eax, DWORD PTR _x$[ebp]
	mov	ecx, DWORD PTR _y$[ebp]
	mov	edx, DWORD PTR [eax]
	cmp	edx, DWORD PTR [ecx]
	jne	$LN36@xmlSchemaC

; 4114 :         int ret = 0;

	mov	DWORD PTR _ret$2[ebp], 0

; 4115 :         q1 = xmlSchemaDateNormalize(y, 0);

	sub	esp, 8
	xorps	xmm0, xmm0
	movsd	QWORD PTR [esp], xmm0
	mov	eax, DWORD PTR _y$[ebp]
	push	eax
	call	_xmlSchemaDateNormalize
	add	esp, 12					; 0000000cH
	mov	DWORD PTR _q1$[ebp], eax

; 4116 :         q1d = _xmlSchemaDateCastYMToDays(q1) + q1->value.date.day;

	mov	ecx, DWORD PTR _q1$[ebp]
	push	ecx
	call	__xmlSchemaDateCastYMToDays
	add	esp, 4
	mov	edx, DWORD PTR _q1$[ebp]
	mov	ecx, DWORD PTR [edx+12]
	shr	ecx, 4
	and	ecx, 31					; 0000001fH
	add	eax, ecx
	mov	DWORD PTR _q1d$[ebp], eax

; 4117 : 
; 4118 :         p1 = xmlSchemaDateNormalize(x, 0);

	sub	esp, 8
	xorps	xmm0, xmm0
	movsd	QWORD PTR [esp], xmm0
	mov	edx, DWORD PTR _x$[ebp]
	push	edx
	call	_xmlSchemaDateNormalize
	add	esp, 12					; 0000000cH
	mov	DWORD PTR _p1$[ebp], eax

; 4119 :         p1d = _xmlSchemaDateCastYMToDays(p1) + p1->value.date.day;

	mov	eax, DWORD PTR _p1$[ebp]
	push	eax
	call	__xmlSchemaDateCastYMToDays
	add	esp, 4
	mov	ecx, DWORD PTR _p1$[ebp]
	mov	edx, DWORD PTR [ecx+12]
	shr	edx, 4
	and	edx, 31					; 0000001fH
	add	eax, edx
	mov	DWORD PTR _p1d$[ebp], eax

; 4120 : 
; 4121 :         if (p1d < q1d) {

	mov	eax, DWORD PTR _p1d$[ebp]
	cmp	eax, DWORD PTR _q1d$[ebp]
	jge	SHORT $LN37@xmlSchemaC

; 4122 :             ret = -1;

	mov	DWORD PTR _ret$2[ebp], -1
	jmp	$LN43@xmlSchemaC
$LN37@xmlSchemaC:

; 4123 : 	} else if (p1d > q1d) {

	mov	ecx, DWORD PTR _p1d$[ebp]
	cmp	ecx, DWORD PTR _q1d$[ebp]
	jle	SHORT $LN39@xmlSchemaC

; 4124 :             ret = 1;

	mov	DWORD PTR _ret$2[ebp], 1

; 4125 : 	} else {

	jmp	$LN43@xmlSchemaC
$LN39@xmlSchemaC:

; 4126 :             double sec;
; 4127 : 
; 4128 :             sec = TIME_TO_NUMBER(p1) - TIME_TO_NUMBER(q1);

	mov	edx, DWORD PTR _p1$[ebp]
	mov	eax, DWORD PTR [edx+12]
	shr	eax, 9
	and	eax, 31					; 0000001fH
	imul	ecx, eax, 3600
	mov	edx, DWORD PTR _p1$[ebp]
	mov	eax, DWORD PTR [edx+12]
	shr	eax, 14					; 0000000eH
	and	eax, 63					; 0000003fH
	imul	edx, eax, 60
	add	ecx, edx
	mov	eax, DWORD PTR _p1$[ebp]
	mov	edx, DWORD PTR [eax+24]
	shl	edx, 19					; 00000013H
	sar	edx, 20					; 00000014H
	imul	eax, edx, 60
	add	ecx, eax
	mov	DWORD PTR tv716[ebp], ecx
	cvtsi2sd xmm0, DWORD PTR tv716[ebp]
	mov	ecx, DWORD PTR tv716[ebp]
	shr	ecx, 31					; 0000001fH
	addsd	xmm0, QWORD PTR __xmm@41f00000000000000000000000000000[ecx*8]
	mov	edx, DWORD PTR _p1$[ebp]
	addsd	xmm0, QWORD PTR [edx+16]
	mov	eax, DWORD PTR _q1$[ebp]
	mov	ecx, DWORD PTR [eax+12]
	shr	ecx, 9
	and	ecx, 31					; 0000001fH
	imul	edx, ecx, 3600
	mov	eax, DWORD PTR _q1$[ebp]
	mov	ecx, DWORD PTR [eax+12]
	shr	ecx, 14					; 0000000eH
	and	ecx, 63					; 0000003fH
	imul	eax, ecx, 60
	add	edx, eax
	mov	ecx, DWORD PTR _q1$[ebp]
	mov	eax, DWORD PTR [ecx+24]
	shl	eax, 19					; 00000013H
	sar	eax, 20					; 00000014H
	imul	ecx, eax, 60
	add	edx, ecx
	mov	DWORD PTR tv727[ebp], edx
	cvtsi2sd xmm1, DWORD PTR tv727[ebp]
	mov	edx, DWORD PTR tv727[ebp]
	shr	edx, 31					; 0000001fH
	addsd	xmm1, QWORD PTR __xmm@41f00000000000000000000000000000[edx*8]
	mov	eax, DWORD PTR _q1$[ebp]
	addsd	xmm1, QWORD PTR [eax+16]
	subsd	xmm0, xmm1
	movsd	QWORD PTR _sec$1[ebp], xmm0

; 4129 :             if (sec < 0.0)

	xorps	xmm0, xmm0
	comisd	xmm0, QWORD PTR _sec$1[ebp]
	jbe	SHORT $LN41@xmlSchemaC

; 4130 :                 ret = -1;

	mov	DWORD PTR _ret$2[ebp], -1
	jmp	SHORT $LN43@xmlSchemaC
$LN41@xmlSchemaC:

; 4131 :             else if (sec > 0.0)

	movsd	xmm0, QWORD PTR _sec$1[ebp]
	comisd	xmm0, QWORD PTR __real@0000000000000000
	jbe	SHORT $LN43@xmlSchemaC

; 4132 :                 ret = 1;

	mov	DWORD PTR _ret$2[ebp], 1
$LN43@xmlSchemaC:

; 4133 : 
; 4134 :         }
; 4135 : 	xmlSchemaFreeValue(p1);

	mov	ecx, DWORD PTR _p1$[ebp]
	push	ecx
	call	_xmlSchemaFreeValue
	add	esp, 4

; 4136 : 	xmlSchemaFreeValue(q1);

	mov	edx, DWORD PTR _q1$[ebp]
	push	edx
	call	_xmlSchemaFreeValue
	add	esp, 4

; 4137 :         return(ret);

	mov	eax, DWORD PTR _ret$2[ebp]
	jmp	$LN1@xmlSchemaC
$LN36@xmlSchemaC:

; 4138 :     }
; 4139 : 
; 4140 :     switch (x->type) {

	mov	eax, DWORD PTR _x$[ebp]
	mov	ecx, DWORD PTR [eax]
	mov	DWORD PTR tv406[ebp], ecx
	mov	edx, DWORD PTR tv406[ebp]
	sub	edx, 4
	mov	DWORD PTR tv406[ebp], edx
	cmp	DWORD PTR tv406[ebp], 7
	ja	SHORT $LN52@xmlSchemaC
	mov	eax, DWORD PTR tv406[ebp]
	jmp	DWORD PTR $LN95@xmlSchemaC[eax*4]
$LN44@xmlSchemaC:

; 4141 :         case XML_SCHEMAS_DATETIME:
; 4142 :             xmask = 0xf;

	mov	BYTE PTR _xmask$[ebp], 15		; 0000000fH

; 4143 :             break;

	jmp	SHORT $LN2@xmlSchemaC
$LN45@xmlSchemaC:

; 4144 :         case XML_SCHEMAS_DATE:
; 4145 :             xmask = 0x7;

	mov	BYTE PTR _xmask$[ebp], 7

; 4146 :             break;

	jmp	SHORT $LN2@xmlSchemaC
$LN46@xmlSchemaC:

; 4147 :         case XML_SCHEMAS_GYEAR:
; 4148 :             xmask = 0x1;

	mov	BYTE PTR _xmask$[ebp], 1

; 4149 :             break;

	jmp	SHORT $LN2@xmlSchemaC
$LN47@xmlSchemaC:

; 4150 :         case XML_SCHEMAS_GMONTH:
; 4151 :             xmask = 0x2;

	mov	BYTE PTR _xmask$[ebp], 2

; 4152 :             break;

	jmp	SHORT $LN2@xmlSchemaC
$LN48@xmlSchemaC:

; 4153 :         case XML_SCHEMAS_GDAY:
; 4154 :             xmask = 0x3;

	mov	BYTE PTR _xmask$[ebp], 3

; 4155 :             break;

	jmp	SHORT $LN2@xmlSchemaC
$LN49@xmlSchemaC:

; 4156 :         case XML_SCHEMAS_GYEARMONTH:
; 4157 :             xmask = 0x3;

	mov	BYTE PTR _xmask$[ebp], 3

; 4158 :             break;

	jmp	SHORT $LN2@xmlSchemaC
$LN50@xmlSchemaC:

; 4159 :         case XML_SCHEMAS_GMONTHDAY:
; 4160 :             xmask = 0x6;

	mov	BYTE PTR _xmask$[ebp], 6

; 4161 :             break;

	jmp	SHORT $LN2@xmlSchemaC
$LN51@xmlSchemaC:

; 4162 :         case XML_SCHEMAS_TIME:
; 4163 :             xmask = 0x8;

	mov	BYTE PTR _xmask$[ebp], 8

; 4164 :             break;

	jmp	SHORT $LN2@xmlSchemaC
$LN52@xmlSchemaC:

; 4165 :         default:
; 4166 :             xmask = 0;

	mov	BYTE PTR _xmask$[ebp], 0
$LN2@xmlSchemaC:

; 4167 :             break;
; 4168 :     }
; 4169 : 
; 4170 :     switch (y->type) {

	mov	ecx, DWORD PTR _y$[ebp]
	mov	edx, DWORD PTR [ecx]
	mov	DWORD PTR tv410[ebp], edx
	mov	eax, DWORD PTR tv410[ebp]
	sub	eax, 4
	mov	DWORD PTR tv410[ebp], eax
	cmp	DWORD PTR tv410[ebp], 7
	ja	SHORT $LN61@xmlSchemaC
	mov	ecx, DWORD PTR tv410[ebp]
	jmp	DWORD PTR $LN96@xmlSchemaC[ecx*4]
$LN53@xmlSchemaC:

; 4171 :         case XML_SCHEMAS_DATETIME:
; 4172 :             ymask = 0xf;

	mov	BYTE PTR _ymask$[ebp], 15		; 0000000fH

; 4173 :             break;

	jmp	SHORT $LN4@xmlSchemaC
$LN54@xmlSchemaC:

; 4174 :         case XML_SCHEMAS_DATE:
; 4175 :             ymask = 0x7;

	mov	BYTE PTR _ymask$[ebp], 7

; 4176 :             break;

	jmp	SHORT $LN4@xmlSchemaC
$LN55@xmlSchemaC:

; 4177 :         case XML_SCHEMAS_GYEAR:
; 4178 :             ymask = 0x1;

	mov	BYTE PTR _ymask$[ebp], 1

; 4179 :             break;

	jmp	SHORT $LN4@xmlSchemaC
$LN56@xmlSchemaC:

; 4180 :         case XML_SCHEMAS_GMONTH:
; 4181 :             ymask = 0x2;

	mov	BYTE PTR _ymask$[ebp], 2

; 4182 :             break;

	jmp	SHORT $LN4@xmlSchemaC
$LN57@xmlSchemaC:

; 4183 :         case XML_SCHEMAS_GDAY:
; 4184 :             ymask = 0x3;

	mov	BYTE PTR _ymask$[ebp], 3

; 4185 :             break;

	jmp	SHORT $LN4@xmlSchemaC
$LN58@xmlSchemaC:

; 4186 :         case XML_SCHEMAS_GYEARMONTH:
; 4187 :             ymask = 0x3;

	mov	BYTE PTR _ymask$[ebp], 3

; 4188 :             break;

	jmp	SHORT $LN4@xmlSchemaC
$LN59@xmlSchemaC:

; 4189 :         case XML_SCHEMAS_GMONTHDAY:
; 4190 :             ymask = 0x6;

	mov	BYTE PTR _ymask$[ebp], 6

; 4191 :             break;

	jmp	SHORT $LN4@xmlSchemaC
$LN60@xmlSchemaC:

; 4192 :         case XML_SCHEMAS_TIME:
; 4193 :             ymask = 0x8;

	mov	BYTE PTR _ymask$[ebp], 8

; 4194 :             break;

	jmp	SHORT $LN4@xmlSchemaC
$LN61@xmlSchemaC:

; 4195 :         default:
; 4196 :             ymask = 0;

	mov	BYTE PTR _ymask$[ebp], 0
$LN4@xmlSchemaC:

; 4197 :             break;
; 4198 :     }
; 4199 : 
; 4200 :     xor_mask = xmask ^ ymask;           /* mark type differences */

	movzx	edx, BYTE PTR _xmask$[ebp]
	movzx	eax, BYTE PTR _ymask$[ebp]
	xor	edx, eax
	mov	BYTE PTR _xor_mask$[ebp], dl

; 4201 :     and_mask = xmask & ymask;           /* mark field specification */

	movzx	ecx, BYTE PTR _xmask$[ebp]
	movzx	edx, BYTE PTR _ymask$[ebp]
	and	ecx, edx
	mov	BYTE PTR _and_mask$[ebp], cl

; 4202 : 
; 4203 :     /* year */
; 4204 :     if (xor_mask & 1)

	movzx	eax, BYTE PTR _xor_mask$[ebp]
	and	eax, 1
	je	SHORT $LN62@xmlSchemaC

; 4205 :         return 2; /* indeterminate */

	mov	eax, 2
	jmp	$LN1@xmlSchemaC
	jmp	SHORT $LN67@xmlSchemaC
$LN62@xmlSchemaC:

; 4206 :     else if (and_mask & 1) {

	movzx	ecx, BYTE PTR _and_mask$[ebp]
	and	ecx, 1
	je	SHORT $LN67@xmlSchemaC

; 4207 :         if (x->value.date.year < y->value.date.year)

	mov	edx, DWORD PTR _x$[ebp]
	mov	eax, DWORD PTR _y$[ebp]
	mov	ecx, DWORD PTR [edx+8]
	cmp	ecx, DWORD PTR [eax+8]
	jge	SHORT $LN65@xmlSchemaC

; 4208 :             return -1;

	or	eax, -1
	jmp	$LN1@xmlSchemaC
	jmp	SHORT $LN67@xmlSchemaC
$LN65@xmlSchemaC:

; 4209 :         else if (x->value.date.year > y->value.date.year)

	mov	edx, DWORD PTR _x$[ebp]
	mov	eax, DWORD PTR _y$[ebp]
	mov	ecx, DWORD PTR [edx+8]
	cmp	ecx, DWORD PTR [eax+8]
	jle	SHORT $LN67@xmlSchemaC

; 4210 :             return 1;

	mov	eax, 1
	jmp	$LN1@xmlSchemaC
$LN67@xmlSchemaC:

; 4211 :     }
; 4212 : 
; 4213 :     /* month */
; 4214 :     if (xor_mask & 2)

	movzx	edx, BYTE PTR _xor_mask$[ebp]
	and	edx, 2
	je	SHORT $LN68@xmlSchemaC

; 4215 :         return 2; /* indeterminate */

	mov	eax, 2
	jmp	$LN1@xmlSchemaC
	jmp	SHORT $LN73@xmlSchemaC
$LN68@xmlSchemaC:

; 4216 :     else if (and_mask & 2) {

	movzx	eax, BYTE PTR _and_mask$[ebp]
	and	eax, 2
	je	SHORT $LN73@xmlSchemaC

; 4217 :         if (x->value.date.mon < y->value.date.mon)

	mov	ecx, DWORD PTR _x$[ebp]
	mov	edx, DWORD PTR [ecx+12]
	and	edx, 15					; 0000000fH
	mov	eax, DWORD PTR _y$[ebp]
	mov	ecx, DWORD PTR [eax+12]
	and	ecx, 15					; 0000000fH
	cmp	edx, ecx
	jae	SHORT $LN71@xmlSchemaC

; 4218 :             return -1;

	or	eax, -1
	jmp	$LN1@xmlSchemaC
	jmp	SHORT $LN73@xmlSchemaC
$LN71@xmlSchemaC:

; 4219 :         else if (x->value.date.mon > y->value.date.mon)

	mov	edx, DWORD PTR _x$[ebp]
	mov	eax, DWORD PTR [edx+12]
	and	eax, 15					; 0000000fH
	mov	ecx, DWORD PTR _y$[ebp]
	mov	edx, DWORD PTR [ecx+12]
	and	edx, 15					; 0000000fH
	cmp	eax, edx
	jbe	SHORT $LN73@xmlSchemaC

; 4220 :             return 1;

	mov	eax, 1
	jmp	$LN1@xmlSchemaC
$LN73@xmlSchemaC:

; 4221 :     }
; 4222 : 
; 4223 :     /* day */
; 4224 :     if (xor_mask & 4)

	movzx	eax, BYTE PTR _xor_mask$[ebp]
	and	eax, 4
	je	SHORT $LN74@xmlSchemaC

; 4225 :         return 2; /* indeterminate */

	mov	eax, 2
	jmp	$LN1@xmlSchemaC
	jmp	SHORT $LN79@xmlSchemaC
$LN74@xmlSchemaC:

; 4226 :     else if (and_mask & 4) {

	movzx	ecx, BYTE PTR _and_mask$[ebp]
	and	ecx, 4
	je	SHORT $LN79@xmlSchemaC

; 4227 :         if (x->value.date.day < y->value.date.day)

	mov	edx, DWORD PTR _x$[ebp]
	mov	eax, DWORD PTR [edx+12]
	shr	eax, 4
	and	eax, 31					; 0000001fH
	mov	ecx, DWORD PTR _y$[ebp]
	mov	edx, DWORD PTR [ecx+12]
	shr	edx, 4
	and	edx, 31					; 0000001fH
	cmp	eax, edx
	jae	SHORT $LN77@xmlSchemaC

; 4228 :             return -1;

	or	eax, -1
	jmp	$LN1@xmlSchemaC
	jmp	SHORT $LN79@xmlSchemaC
$LN77@xmlSchemaC:

; 4229 :         else if (x->value.date.day > y->value.date.day)

	mov	eax, DWORD PTR _x$[ebp]
	mov	ecx, DWORD PTR [eax+12]
	shr	ecx, 4
	and	ecx, 31					; 0000001fH
	mov	edx, DWORD PTR _y$[ebp]
	mov	eax, DWORD PTR [edx+12]
	shr	eax, 4
	and	eax, 31					; 0000001fH
	cmp	ecx, eax
	jbe	SHORT $LN79@xmlSchemaC

; 4230 :             return 1;

	mov	eax, 1
	jmp	$LN1@xmlSchemaC
$LN79@xmlSchemaC:

; 4231 :     }
; 4232 : 
; 4233 :     /* time */
; 4234 :     if (xor_mask & 8)

	movzx	ecx, BYTE PTR _xor_mask$[ebp]
	and	ecx, 8
	je	SHORT $LN80@xmlSchemaC

; 4235 :         return 2; /* indeterminate */

	mov	eax, 2
	jmp	$LN1@xmlSchemaC
	jmp	$LN93@xmlSchemaC
$LN80@xmlSchemaC:

; 4236 :     else if (and_mask & 8) {

	movzx	edx, BYTE PTR _and_mask$[ebp]
	and	edx, 8
	je	$LN93@xmlSchemaC

; 4237 :         if (x->value.date.hour < y->value.date.hour)

	mov	eax, DWORD PTR _x$[ebp]
	mov	ecx, DWORD PTR [eax+12]
	shr	ecx, 9
	and	ecx, 31					; 0000001fH
	mov	edx, DWORD PTR _y$[ebp]
	mov	eax, DWORD PTR [edx+12]
	shr	eax, 9
	and	eax, 31					; 0000001fH
	cmp	ecx, eax
	jae	SHORT $LN83@xmlSchemaC

; 4238 :             return -1;

	or	eax, -1
	jmp	$LN1@xmlSchemaC
	jmp	$LN93@xmlSchemaC
$LN83@xmlSchemaC:

; 4239 :         else if (x->value.date.hour > y->value.date.hour)

	mov	ecx, DWORD PTR _x$[ebp]
	mov	edx, DWORD PTR [ecx+12]
	shr	edx, 9
	and	edx, 31					; 0000001fH
	mov	eax, DWORD PTR _y$[ebp]
	mov	ecx, DWORD PTR [eax+12]
	shr	ecx, 9
	and	ecx, 31					; 0000001fH
	cmp	edx, ecx
	jbe	SHORT $LN85@xmlSchemaC

; 4240 :             return 1;

	mov	eax, 1
	jmp	SHORT $LN1@xmlSchemaC
	jmp	SHORT $LN93@xmlSchemaC
$LN85@xmlSchemaC:

; 4241 :         else if (x->value.date.min < y->value.date.min)

	mov	edx, DWORD PTR _x$[ebp]
	mov	eax, DWORD PTR [edx+12]
	shr	eax, 14					; 0000000eH
	and	eax, 63					; 0000003fH
	mov	ecx, DWORD PTR _y$[ebp]
	mov	edx, DWORD PTR [ecx+12]
	shr	edx, 14					; 0000000eH
	and	edx, 63					; 0000003fH
	cmp	eax, edx
	jae	SHORT $LN87@xmlSchemaC

; 4242 :             return -1;

	or	eax, -1
	jmp	SHORT $LN1@xmlSchemaC
	jmp	SHORT $LN93@xmlSchemaC
$LN87@xmlSchemaC:

; 4243 :         else if (x->value.date.min > y->value.date.min)

	mov	eax, DWORD PTR _x$[ebp]
	mov	ecx, DWORD PTR [eax+12]
	shr	ecx, 14					; 0000000eH
	and	ecx, 63					; 0000003fH
	mov	edx, DWORD PTR _y$[ebp]
	mov	eax, DWORD PTR [edx+12]
	shr	eax, 14					; 0000000eH
	and	eax, 63					; 0000003fH
	cmp	ecx, eax
	jbe	SHORT $LN89@xmlSchemaC

; 4244 :             return 1;

	mov	eax, 1
	jmp	SHORT $LN1@xmlSchemaC
	jmp	SHORT $LN93@xmlSchemaC
$LN89@xmlSchemaC:

; 4245 :         else if (x->value.date.sec < y->value.date.sec)

	mov	ecx, DWORD PTR _y$[ebp]
	mov	edx, DWORD PTR _x$[ebp]
	movsd	xmm0, QWORD PTR [ecx+16]
	comisd	xmm0, QWORD PTR [edx+16]
	jbe	SHORT $LN91@xmlSchemaC

; 4246 :             return -1;

	or	eax, -1
	jmp	SHORT $LN1@xmlSchemaC
	jmp	SHORT $LN93@xmlSchemaC
$LN91@xmlSchemaC:

; 4247 :         else if (x->value.date.sec > y->value.date.sec)

	mov	eax, DWORD PTR _x$[ebp]
	mov	ecx, DWORD PTR _y$[ebp]
	movsd	xmm0, QWORD PTR [eax+16]
	comisd	xmm0, QWORD PTR [ecx+16]
	jbe	SHORT $LN93@xmlSchemaC

; 4248 :             return 1;

	mov	eax, 1
	jmp	SHORT $LN1@xmlSchemaC
$LN93@xmlSchemaC:

; 4249 :     }
; 4250 : 
; 4251 :     return 0;

	xor	eax, eax
$LN1@xmlSchemaC:

; 4252 : }

	pop	edi
	add	esp, 120				; 00000078H
	cmp	ebp, esp
	call	__RTC_CheckEsp
	mov	esp, ebp
	pop	ebp
	ret	0
	npad	1
$LN95@xmlSchemaC:
	DD	$LN51@xmlSchemaC
	DD	$LN48@xmlSchemaC
	DD	$LN47@xmlSchemaC
	DD	$LN50@xmlSchemaC
	DD	$LN46@xmlSchemaC
	DD	$LN49@xmlSchemaC
	DD	$LN45@xmlSchemaC
	DD	$LN44@xmlSchemaC
$LN96@xmlSchemaC:
	DD	$LN60@xmlSchemaC
	DD	$LN57@xmlSchemaC
	DD	$LN56@xmlSchemaC
	DD	$LN59@xmlSchemaC
	DD	$LN55@xmlSchemaC
	DD	$LN58@xmlSchemaC
	DD	$LN54@xmlSchemaC
	DD	$LN53@xmlSchemaC
_xmlSchemaCompareDates ENDP
_TEXT	ENDS
; Function compile flags: /Odtp /RTCsu
; File c:\users\dag\documents\_clients\codeproject authors group\windows on arm\libxml2\libxml2-2.9.9\xmlschemastypes.c
;	COMDAT __xmlSchemaDateCastYMToDays
_TEXT	SEGMENT
tv162 = -16						; size = 4
tv130 = -12						; size = 4
_mon$ = -8						; size = 4
_ret$ = -4						; size = 4
_dt$ = 8						; size = 4
__xmlSchemaDateCastYMToDays PROC			; COMDAT

; 3962 : {

	push	ebp
	mov	ebp, esp
	sub	esp, 16					; 00000010H
	push	esi
	push	edi
	mov	eax, -858993460				; ccccccccH
	mov	DWORD PTR [ebp-16], eax
	mov	DWORD PTR [ebp-12], eax
	mov	DWORD PTR [ebp-8], eax
	mov	DWORD PTR [ebp-4], eax
	mov	ecx, OFFSET __74485836_xmlschemastypes@c
	call	@__CheckForDebuggerJustMyCode@4

; 3963 :     long ret;
; 3964 :     int mon;
; 3965 : 
; 3966 :     mon = dt->value.date.mon;

	mov	eax, DWORD PTR _dt$[ebp]
	mov	ecx, DWORD PTR [eax+12]
	and	ecx, 15					; 0000000fH
	mov	DWORD PTR _mon$[ebp], ecx

; 3967 :     if (mon <= 0) mon = 1; /* normalization */

	jg	SHORT $LN2@xmlSchemaD
	mov	DWORD PTR _mon$[ebp], 1
$LN2@xmlSchemaD:

; 3968 : 
; 3969 :     if (dt->value.date.year <= 0)

	mov	edx, DWORD PTR _dt$[ebp]
	cmp	DWORD PTR [edx+8], 0
	jg	$LN3@xmlSchemaD

; 3970 :         ret = (dt->value.date.year * 365) +

	mov	eax, DWORD PTR _dt$[ebp]
	mov	ecx, DWORD PTR [eax+8]
	and	ecx, -2147483645			; 80000003H
	jns	SHORT $LN12@xmlSchemaD
	dec	ecx
	or	ecx, -4					; fffffffcH
	inc	ecx
$LN12@xmlSchemaD:
	test	ecx, ecx
	jne	SHORT $LN6@xmlSchemaD
	mov	edx, DWORD PTR _dt$[ebp]
	mov	eax, DWORD PTR [edx+8]
	cdq
	mov	ecx, 100				; 00000064H
	idiv	ecx
	test	edx, edx
	jne	SHORT $LN7@xmlSchemaD
$LN6@xmlSchemaD:
	mov	edx, DWORD PTR _dt$[ebp]
	mov	eax, DWORD PTR [edx+8]
	cdq
	mov	ecx, 400				; 00000190H
	idiv	ecx
	test	edx, edx
	je	SHORT $LN7@xmlSchemaD
	mov	edx, DWORD PTR _mon$[ebp]
	mov	eax, DWORD PTR _dayInYearByMonth[edx*4-4]
	mov	DWORD PTR tv130[ebp], eax
	jmp	SHORT $LN8@xmlSchemaD
$LN7@xmlSchemaD:
	mov	ecx, DWORD PTR _mon$[ebp]
	mov	edx, DWORD PTR _dayInLeapYearByMonth[ecx*4-4]
	mov	DWORD PTR tv130[ebp], edx
$LN8@xmlSchemaD:
	mov	eax, DWORD PTR _dt$[ebp]
	imul	ecx, DWORD PTR [eax+8], 365
	mov	edx, DWORD PTR _dt$[ebp]
	mov	eax, DWORD PTR [edx+8]
	add	eax, 1
	cdq
	and	edx, 3
	add	eax, edx
	mov	esi, eax
	sar	esi, 2
	mov	eax, DWORD PTR _dt$[ebp]
	mov	eax, DWORD PTR [eax+8]
	add	eax, 1
	cdq
	mov	edi, 100				; 00000064H
	idiv	edi
	sub	esi, eax
	mov	edx, DWORD PTR _dt$[ebp]
	mov	eax, DWORD PTR [edx+8]
	add	eax, 1
	cdq
	mov	edi, 400				; 00000190H
	idiv	edi
	add	esi, eax
	add	ecx, DWORD PTR tv130[ebp]
	add	esi, ecx
	mov	DWORD PTR _ret$[ebp], esi
	jmp	$LN4@xmlSchemaD
$LN3@xmlSchemaD:

; 3971 :               (((dt->value.date.year+1)/4)-((dt->value.date.year+1)/100)+
; 3972 :                ((dt->value.date.year+1)/400)) +
; 3973 :               DAY_IN_YEAR(0, mon, dt->value.date.year);
; 3974 :     else
; 3975 :         ret = ((dt->value.date.year-1) * 365) +

	mov	eax, DWORD PTR _dt$[ebp]
	mov	ecx, DWORD PTR [eax+8]
	and	ecx, -2147483645			; 80000003H
	jns	SHORT $LN13@xmlSchemaD
	dec	ecx
	or	ecx, -4					; fffffffcH
	inc	ecx
$LN13@xmlSchemaD:
	test	ecx, ecx
	jne	SHORT $LN9@xmlSchemaD
	mov	edx, DWORD PTR _dt$[ebp]
	mov	eax, DWORD PTR [edx+8]
	cdq
	mov	ecx, 100				; 00000064H
	idiv	ecx
	test	edx, edx
	jne	SHORT $LN10@xmlSchemaD
$LN9@xmlSchemaD:
	mov	edx, DWORD PTR _dt$[ebp]
	mov	eax, DWORD PTR [edx+8]
	cdq
	mov	ecx, 400				; 00000190H
	idiv	ecx
	test	edx, edx
	je	SHORT $LN10@xmlSchemaD
	mov	edx, DWORD PTR _mon$[ebp]
	mov	eax, DWORD PTR _dayInYearByMonth[edx*4-4]
	mov	DWORD PTR tv162[ebp], eax
	jmp	SHORT $LN11@xmlSchemaD
$LN10@xmlSchemaD:
	mov	ecx, DWORD PTR _mon$[ebp]
	mov	edx, DWORD PTR _dayInLeapYearByMonth[ecx*4-4]
	mov	DWORD PTR tv162[ebp], edx
$LN11@xmlSchemaD:
	mov	eax, DWORD PTR _dt$[ebp]
	mov	ecx, DWORD PTR [eax+8]
	sub	ecx, 1
	imul	ecx, ecx, 365
	mov	edx, DWORD PTR _dt$[ebp]
	mov	eax, DWORD PTR [edx+8]
	sub	eax, 1
	cdq
	and	edx, 3
	add	eax, edx
	mov	esi, eax
	sar	esi, 2
	mov	eax, DWORD PTR _dt$[ebp]
	mov	eax, DWORD PTR [eax+8]
	sub	eax, 1
	cdq
	mov	edi, 100				; 00000064H
	idiv	edi
	sub	esi, eax
	mov	edx, DWORD PTR _dt$[ebp]
	mov	eax, DWORD PTR [edx+8]
	sub	eax, 1
	cdq
	mov	edi, 400				; 00000190H
	idiv	edi
	add	esi, eax
	add	ecx, DWORD PTR tv162[ebp]
	add	esi, ecx
	mov	DWORD PTR _ret$[ebp], esi
$LN4@xmlSchemaD:

; 3976 :               (((dt->value.date.year-1)/4)-((dt->value.date.year-1)/100)+
; 3977 :                ((dt->value.date.year-1)/400)) +
; 3978 :               DAY_IN_YEAR(0, mon, dt->value.date.year);
; 3979 : 
; 3980 :     return ret;

	mov	eax, DWORD PTR _ret$[ebp]

; 3981 : }

	pop	edi
	pop	esi
	add	esp, 16					; 00000010H
	cmp	ebp, esp
	call	__RTC_CheckEsp
	mov	esp, ebp
	pop	ebp
	ret	0
__xmlSchemaDateCastYMToDays ENDP
_TEXT	ENDS
; Function compile flags: /Odtp /RTCsu
; File c:\users\dag\documents\_clients\codeproject authors group\windows on arm\libxml2\libxml2-2.9.9\xmlschemastypes.c
;	COMDAT _xmlSchemaDateNormalize
_TEXT	SEGMENT
_ret$ = -8						; size = 4
_dur$ = -4						; size = 4
_dt$ = 8						; size = 4
_offset$ = 12						; size = 8
_xmlSchemaDateNormalize PROC				; COMDAT

; 3922 : {

	push	ebp
	mov	ebp, esp
	sub	esp, 8
	mov	DWORD PTR [ebp-8], -858993460		; ccccccccH
	mov	DWORD PTR [ebp-4], -858993460		; ccccccccH
	mov	ecx, OFFSET __74485836_xmlschemastypes@c
	call	@__CheckForDebuggerJustMyCode@4

; 3923 :     xmlSchemaValPtr dur, ret;
; 3924 : 
; 3925 :     if (dt == NULL)

	cmp	DWORD PTR _dt$[ebp], 0
	jne	SHORT $LN2@xmlSchemaD

; 3926 :         return NULL;

	xor	eax, eax
	jmp	$LN1@xmlSchemaD
$LN2@xmlSchemaD:

; 3927 : 
; 3928 :     if (((dt->type != XML_SCHEMAS_TIME) &&
; 3929 :          (dt->type != XML_SCHEMAS_DATETIME) &&
; 3930 : 	 (dt->type != XML_SCHEMAS_DATE)) || (dt->value.date.tzo == 0))

	mov	eax, DWORD PTR _dt$[ebp]
	cmp	DWORD PTR [eax], 4
	je	SHORT $LN5@xmlSchemaD
	mov	ecx, DWORD PTR _dt$[ebp]
	cmp	DWORD PTR [ecx], 11			; 0000000bH
	je	SHORT $LN5@xmlSchemaD
	mov	edx, DWORD PTR _dt$[ebp]
	cmp	DWORD PTR [edx], 10			; 0000000aH
	jne	SHORT $LN4@xmlSchemaD
$LN5@xmlSchemaD:
	mov	eax, DWORD PTR _dt$[ebp]
	mov	ecx, DWORD PTR [eax+24]
	shl	ecx, 19					; 00000013H
	sar	ecx, 20					; 00000014H
	test	ecx, ecx
	jne	SHORT $LN3@xmlSchemaD
$LN4@xmlSchemaD:

; 3931 :         return xmlSchemaDupVal(dt);

	mov	edx, DWORD PTR _dt$[ebp]
	push	edx
	call	_xmlSchemaDupVal
	add	esp, 4
	jmp	SHORT $LN1@xmlSchemaD
$LN3@xmlSchemaD:

; 3932 : 
; 3933 :     dur = xmlSchemaNewValue(XML_SCHEMAS_DURATION);

	push	12					; 0000000cH
	call	_xmlSchemaNewValue
	add	esp, 4
	mov	DWORD PTR _dur$[ebp], eax

; 3934 :     if (dur == NULL)

	cmp	DWORD PTR _dur$[ebp], 0
	jne	SHORT $LN6@xmlSchemaD

; 3935 :         return NULL;

	xor	eax, eax
	jmp	SHORT $LN1@xmlSchemaD
$LN6@xmlSchemaD:

; 3936 : 
; 3937 :     dur->value.date.sec -= offset;

	mov	eax, DWORD PTR _dur$[ebp]
	movsd	xmm0, QWORD PTR [eax+16]
	subsd	xmm0, QWORD PTR _offset$[ebp]
	mov	ecx, DWORD PTR _dur$[ebp]
	movsd	QWORD PTR [ecx+16], xmm0

; 3938 : 
; 3939 :     ret = _xmlSchemaDateAdd(dt, dur);

	mov	edx, DWORD PTR _dur$[ebp]
	push	edx
	mov	eax, DWORD PTR _dt$[ebp]
	push	eax
	call	__xmlSchemaDateAdd
	add	esp, 8
	mov	DWORD PTR _ret$[ebp], eax

; 3940 :     if (ret == NULL)

	cmp	DWORD PTR _ret$[ebp], 0
	jne	SHORT $LN7@xmlSchemaD

; 3941 :         return NULL;

	xor	eax, eax
	jmp	SHORT $LN1@xmlSchemaD
$LN7@xmlSchemaD:

; 3942 : 
; 3943 :     xmlSchemaFreeValue(dur);

	mov	ecx, DWORD PTR _dur$[ebp]
	push	ecx
	call	_xmlSchemaFreeValue
	add	esp, 4

; 3944 : 
; 3945 :     /* ret->value.date.tzo = 0; */
; 3946 :     return ret;

	mov	eax, DWORD PTR _ret$[ebp]
$LN1@xmlSchemaD:

; 3947 : }

	add	esp, 8
	cmp	ebp, esp
	call	__RTC_CheckEsp
	mov	esp, ebp
	pop	ebp
	ret	0
_xmlSchemaDateNormalize ENDP
_TEXT	ENDS
; Function compile flags: /Odtp /RTCsu
; File c:\users\dag\documents\_clients\codeproject authors group\windows on arm\libxml2\libxml2-2.9.9\xmlschemastypes.c
;	COMDAT __xmlSchemaDateAdd
_TEXT	SEGMENT
tv897 = -260						; size = 8
tv890 = -252						; size = 8
tv881 = -244						; size = 8
tv942 = -236						; size = 8
tv874 = -228						; size = 8
tv448 = -220						; size = 4
tv427 = -216						; size = 4
tv398 = -212						; size = 4
tv803 = -208						; size = 8
tv796 = -200						; size = 8
tv792 = -192						; size = 8
tv940 = -184						; size = 8
tv785 = -176						; size = 8
tv333 = -168						; size = 4
tv312 = -164						; size = 4
tv718 = -160						; size = 8
tv710 = -152						; size = 8
tv938 = -144						; size = 8
tv703 = -136						; size = 8
tv692 = -128						; size = 8
tv684 = -120						; size = 8
tv936 = -112						; size = 8
tv677 = -104						; size = 8
tv670 = -96						; size = 8
tv663 = -88						; size = 8
tv648 = -80						; size = 8
tv615 = -72						; size = 8
tv606 = -64						; size = 8
tv934 = -56						; size = 8
tv599 = -48						; size = 8
_tyr$1 = -40						; size = 4
_tmon$2 = -36						; size = 4
_u$ = -32						; size = 4
_d$ = -28						; size = 4
_r$ = -24						; size = 4
_temp$ = -20						; size = 4
_tempdays$ = -16					; size = 4
_carry$ = -12						; size = 4
_tmp$ = -8						; size = 4
_ret$ = -4						; size = 4
_dt$ = 8						; size = 4
_dur$ = 12						; size = 4
__xmlSchemaDateAdd PROC					; COMDAT

; 3769 : {

	push	ebp
	mov	ebp, esp
	sub	esp, 260				; 00000104H
	push	edi
	lea	edi, DWORD PTR [ebp-260]
	mov	ecx, 65					; 00000041H
	mov	eax, -858993460				; ccccccccH
	rep stosd
	mov	ecx, OFFSET __74485836_xmlschemastypes@c
	call	@__CheckForDebuggerJustMyCode@4

; 3770 :     xmlSchemaValPtr ret, tmp;
; 3771 :     long carry, tempdays, temp;
; 3772 :     xmlSchemaValDatePtr r, d;
; 3773 :     xmlSchemaValDurationPtr u;
; 3774 : 
; 3775 :     if ((dt == NULL) || (dur == NULL))

	cmp	DWORD PTR _dt$[ebp], 0
	je	SHORT $LN5@xmlSchemaD
	cmp	DWORD PTR _dur$[ebp], 0
	jne	SHORT $LN4@xmlSchemaD
$LN5@xmlSchemaD:

; 3776 :         return NULL;

	xor	eax, eax
	jmp	$LN1@xmlSchemaD
$LN4@xmlSchemaD:

; 3777 : 
; 3778 :     ret = xmlSchemaNewValue(dt->type);

	mov	eax, DWORD PTR _dt$[ebp]
	mov	ecx, DWORD PTR [eax]
	push	ecx
	call	_xmlSchemaNewValue
	add	esp, 4
	mov	DWORD PTR _ret$[ebp], eax

; 3779 :     if (ret == NULL)

	cmp	DWORD PTR _ret$[ebp], 0
	jne	SHORT $LN6@xmlSchemaD

; 3780 :         return NULL;

	xor	eax, eax
	jmp	$LN1@xmlSchemaD
$LN6@xmlSchemaD:

; 3781 : 
; 3782 :     /* make a copy so we don't alter the original value */
; 3783 :     tmp = xmlSchemaDupVal(dt);

	mov	edx, DWORD PTR _dt$[ebp]
	push	edx
	call	_xmlSchemaDupVal
	add	esp, 4
	mov	DWORD PTR _tmp$[ebp], eax

; 3784 :     if (tmp == NULL) {

	cmp	DWORD PTR _tmp$[ebp], 0
	jne	SHORT $LN7@xmlSchemaD

; 3785 :         xmlSchemaFreeValue(ret);

	mov	eax, DWORD PTR _ret$[ebp]
	push	eax
	call	_xmlSchemaFreeValue
	add	esp, 4

; 3786 :         return NULL;

	xor	eax, eax
	jmp	$LN1@xmlSchemaD
$LN7@xmlSchemaD:

; 3787 :     }
; 3788 : 
; 3789 :     r = &(ret->value.date);

	mov	ecx, DWORD PTR _ret$[ebp]
	add	ecx, 8
	mov	DWORD PTR _r$[ebp], ecx

; 3790 :     d = &(tmp->value.date);

	mov	edx, DWORD PTR _tmp$[ebp]
	add	edx, 8
	mov	DWORD PTR _d$[ebp], edx

; 3791 :     u = &(dur->value.dur);

	mov	eax, DWORD PTR _dur$[ebp]
	add	eax, 8
	mov	DWORD PTR _u$[ebp], eax

; 3792 : 
; 3793 :     /* normalization */
; 3794 :     if (d->mon == 0)

	mov	ecx, DWORD PTR _d$[ebp]
	mov	edx, DWORD PTR [ecx+4]
	and	edx, 15					; 0000000fH
	jne	SHORT $LN8@xmlSchemaD

; 3795 :         d->mon = 1;

	mov	eax, DWORD PTR _d$[ebp]
	mov	ecx, DWORD PTR [eax+4]
	and	ecx, -16				; fffffff0H
	or	ecx, 1
	mov	edx, DWORD PTR _d$[ebp]
	mov	DWORD PTR [edx+4], ecx
$LN8@xmlSchemaD:

; 3796 : 
; 3797 :     /* normalize for time zone offset */
; 3798 :     u->sec -= (d->tzo * 60);

	mov	eax, DWORD PTR _d$[ebp]
	mov	ecx, DWORD PTR [eax+16]
	shl	ecx, 19					; 00000013H
	sar	ecx, 20					; 00000014H
	imul	edx, ecx, 60
	cvtsi2sd xmm0, edx
	mov	eax, DWORD PTR _u$[ebp]
	movsd	xmm1, QWORD PTR [eax+8]
	subsd	xmm1, xmm0
	mov	ecx, DWORD PTR _u$[ebp]
	movsd	QWORD PTR [ecx+8], xmm1

; 3799 :     d->tzo = 0;

	mov	edx, DWORD PTR _d$[ebp]
	mov	eax, DWORD PTR [edx+16]
	and	eax, -8191				; ffffe001H
	mov	ecx, DWORD PTR _d$[ebp]
	mov	DWORD PTR [ecx+16], eax

; 3800 : 
; 3801 :     /* normalization */
; 3802 :     if (d->day == 0)

	mov	edx, DWORD PTR _d$[ebp]
	mov	eax, DWORD PTR [edx+4]
	shr	eax, 4
	and	eax, 31					; 0000001fH
	jne	SHORT $LN9@xmlSchemaD

; 3803 :         d->day = 1;

	mov	ecx, DWORD PTR _d$[ebp]
	mov	edx, DWORD PTR [ecx+4]
	and	edx, -497				; fffffe0fH
	or	edx, 16					; 00000010H
	mov	eax, DWORD PTR _d$[ebp]
	mov	DWORD PTR [eax+4], edx
$LN9@xmlSchemaD:

; 3804 : 
; 3805 :     /* month */
; 3806 :     carry  = d->mon + u->mon;

	mov	ecx, DWORD PTR _d$[ebp]
	mov	edx, DWORD PTR [ecx+4]
	and	edx, 15					; 0000000fH
	mov	eax, DWORD PTR _u$[ebp]
	add	edx, DWORD PTR [eax]
	mov	DWORD PTR _carry$[ebp], edx

; 3807 :     r->mon = (unsigned int) MODULO_RANGE(carry, 1, 13);

	mov	ecx, DWORD PTR _carry$[ebp]
	sub	ecx, 1
	cvtsi2sd xmm0, ecx
	mov	edx, DWORD PTR _carry$[ebp]
	sub	edx, 1
	cvtsi2sd xmm1, edx
	divsd	xmm1, QWORD PTR __real@4028000000000000
	movsd	QWORD PTR tv599[ebp], xmm1
	fld	QWORD PTR tv599[ebp]
	sub	esp, 8
	fstp	QWORD PTR [esp]
	movsd	QWORD PTR tv934[ebp], xmm0
	call	_floor
	add	esp, 8
	fstp	QWORD PTR tv606[ebp]
	movsd	xmm0, QWORD PTR tv606[ebp]
	mulsd	xmm0, QWORD PTR __real@4028000000000000
	movsd	xmm1, QWORD PTR tv934[ebp]
	subsd	xmm1, xmm0
	addsd	xmm1, QWORD PTR __real@3ff0000000000000
	movaps	xmm0, xmm1
	call	__dtoui3
	and	eax, 15					; 0000000fH
	mov	ecx, DWORD PTR _r$[ebp]
	mov	edx, DWORD PTR [ecx+4]
	and	edx, -16				; fffffff0H
	or	edx, eax
	mov	eax, DWORD PTR _r$[ebp]
	mov	DWORD PTR [eax+4], edx

; 3808 :     carry  = (long) FQUOTIENT_RANGE(carry, 1, 13);

	mov	ecx, DWORD PTR _carry$[ebp]
	sub	ecx, 1
	cvtsi2sd xmm0, ecx
	divsd	xmm0, QWORD PTR __real@4028000000000000
	movsd	QWORD PTR tv615[ebp], xmm0
	fld	QWORD PTR tv615[ebp]
	sub	esp, 8
	fstp	QWORD PTR [esp]
	call	_floor
	add	esp, 8
	call	__ftol2_sse_excpt
	mov	DWORD PTR _carry$[ebp], eax

; 3809 : 
; 3810 :     /* year (may be modified later) */
; 3811 :     r->year = d->year + carry;

	mov	edx, DWORD PTR _d$[ebp]
	mov	eax, DWORD PTR [edx]
	add	eax, DWORD PTR _carry$[ebp]
	mov	ecx, DWORD PTR _r$[ebp]
	mov	DWORD PTR [ecx], eax

; 3812 :     if (r->year == 0) {

	mov	edx, DWORD PTR _r$[ebp]
	cmp	DWORD PTR [edx], 0
	jne	SHORT $LN12@xmlSchemaD

; 3813 :         if (d->year > 0)

	mov	eax, DWORD PTR _d$[ebp]
	cmp	DWORD PTR [eax], 0
	jle	SHORT $LN11@xmlSchemaD

; 3814 :             r->year--;

	mov	ecx, DWORD PTR _r$[ebp]
	mov	edx, DWORD PTR [ecx]
	sub	edx, 1
	mov	eax, DWORD PTR _r$[ebp]
	mov	DWORD PTR [eax], edx
	jmp	SHORT $LN12@xmlSchemaD
$LN11@xmlSchemaD:

; 3815 :         else
; 3816 :             r->year++;

	mov	ecx, DWORD PTR _r$[ebp]
	mov	edx, DWORD PTR [ecx]
	add	edx, 1
	mov	eax, DWORD PTR _r$[ebp]
	mov	DWORD PTR [eax], edx
$LN12@xmlSchemaD:

; 3817 :     }
; 3818 : 
; 3819 :     /* time zone */
; 3820 :     r->tzo     = d->tzo;

	mov	ecx, DWORD PTR _d$[ebp]
	mov	edx, DWORD PTR [ecx+16]
	shl	edx, 19					; 00000013H
	sar	edx, 20					; 00000014H
	and	edx, 4095				; 00000fffH
	shl	edx, 1
	mov	eax, DWORD PTR _r$[ebp]
	mov	ecx, DWORD PTR [eax+16]
	and	ecx, -8191				; ffffe001H
	or	ecx, edx
	mov	edx, DWORD PTR _r$[ebp]
	mov	DWORD PTR [edx+16], ecx

; 3821 :     r->tz_flag = d->tz_flag;

	mov	eax, DWORD PTR _d$[ebp]
	mov	ecx, DWORD PTR [eax+16]
	and	ecx, 1
	and	ecx, 1
	mov	edx, DWORD PTR _r$[ebp]
	mov	eax, DWORD PTR [edx+16]
	and	eax, -2					; fffffffeH
	or	eax, ecx
	mov	ecx, DWORD PTR _r$[ebp]
	mov	DWORD PTR [ecx+16], eax

; 3822 : 
; 3823 :     /* seconds */
; 3824 :     r->sec = d->sec + u->sec;

	mov	edx, DWORD PTR _d$[ebp]
	mov	eax, DWORD PTR _u$[ebp]
	movsd	xmm0, QWORD PTR [edx+8]
	addsd	xmm0, QWORD PTR [eax+8]
	mov	ecx, DWORD PTR _r$[ebp]
	movsd	QWORD PTR [ecx+8], xmm0

; 3825 :     carry  = (long) FQUOTIENT((long)r->sec, 60);

	mov	edx, DWORD PTR _r$[ebp]
	cvttsd2si eax, QWORD PTR [edx+8]
	cvtsi2sd xmm0, eax
	divsd	xmm0, QWORD PTR __real@404e000000000000
	movsd	QWORD PTR tv648[ebp], xmm0
	fld	QWORD PTR tv648[ebp]
	sub	esp, 8
	fstp	QWORD PTR [esp]
	call	_floor
	add	esp, 8
	call	__ftol2_sse_excpt
	mov	DWORD PTR _carry$[ebp], eax

; 3826 :     if (r->sec != 0.0) {

	mov	ecx, DWORD PTR _r$[ebp]
	movsd	xmm0, QWORD PTR [ecx+8]
	ucomisd	xmm0, QWORD PTR __real@0000000000000000
	lahf
	test	ah, 68					; 00000044H
	jnp	SHORT $LN13@xmlSchemaD

; 3827 :         r->sec = MODULO(r->sec, 60.0);

	mov	edx, DWORD PTR _r$[ebp]
	movsd	xmm0, QWORD PTR [edx+8]
	divsd	xmm0, QWORD PTR __real@404e000000000000
	movsd	QWORD PTR tv663[ebp], xmm0
	fld	QWORD PTR tv663[ebp]
	sub	esp, 8
	fstp	QWORD PTR [esp]
	call	_floor
	add	esp, 8
	fstp	QWORD PTR tv670[ebp]
	movsd	xmm0, QWORD PTR tv670[ebp]
	mulsd	xmm0, QWORD PTR __real@404e000000000000
	mov	eax, DWORD PTR _r$[ebp]
	movsd	xmm1, QWORD PTR [eax+8]
	subsd	xmm1, xmm0
	mov	ecx, DWORD PTR _r$[ebp]
	movsd	QWORD PTR [ecx+8], xmm1
$LN13@xmlSchemaD:

; 3828 :     }
; 3829 : 
; 3830 :     /* minute */
; 3831 :     carry += d->min;

	mov	edx, DWORD PTR _d$[ebp]
	mov	eax, DWORD PTR [edx+4]
	shr	eax, 14					; 0000000eH
	and	eax, 63					; 0000003fH
	add	eax, DWORD PTR _carry$[ebp]
	mov	DWORD PTR _carry$[ebp], eax

; 3832 :     r->min = (unsigned int) MODULO(carry, 60);

	cvtsi2sd xmm0, DWORD PTR _carry$[ebp]
	cvtsi2sd xmm1, DWORD PTR _carry$[ebp]
	divsd	xmm1, QWORD PTR __real@404e000000000000
	movsd	QWORD PTR tv677[ebp], xmm1
	fld	QWORD PTR tv677[ebp]
	sub	esp, 8
	fstp	QWORD PTR [esp]
	movsd	QWORD PTR tv936[ebp], xmm0
	call	_floor
	add	esp, 8
	fstp	QWORD PTR tv684[ebp]
	movsd	xmm0, QWORD PTR tv684[ebp]
	mulsd	xmm0, QWORD PTR __real@404e000000000000
	movsd	xmm1, QWORD PTR tv936[ebp]
	subsd	xmm1, xmm0
	movaps	xmm0, xmm1
	call	__dtoui3
	and	eax, 63					; 0000003fH
	shl	eax, 14					; 0000000eH
	mov	ecx, DWORD PTR _r$[ebp]
	mov	edx, DWORD PTR [ecx+4]
	and	edx, -1032193				; fff03fffH
	or	edx, eax
	mov	eax, DWORD PTR _r$[ebp]
	mov	DWORD PTR [eax+4], edx

; 3833 :     carry  = (long) FQUOTIENT(carry, 60);

	cvtsi2sd xmm0, DWORD PTR _carry$[ebp]
	divsd	xmm0, QWORD PTR __real@404e000000000000
	movsd	QWORD PTR tv692[ebp], xmm0
	fld	QWORD PTR tv692[ebp]
	sub	esp, 8
	fstp	QWORD PTR [esp]
	call	_floor
	add	esp, 8
	call	__ftol2_sse_excpt
	mov	DWORD PTR _carry$[ebp], eax

; 3834 : 
; 3835 :     /* hours */
; 3836 :     carry  += d->hour;

	mov	ecx, DWORD PTR _d$[ebp]
	mov	edx, DWORD PTR [ecx+4]
	shr	edx, 9
	and	edx, 31					; 0000001fH
	add	edx, DWORD PTR _carry$[ebp]
	mov	DWORD PTR _carry$[ebp], edx

; 3837 :     r->hour = (unsigned int) MODULO(carry, 24);

	cvtsi2sd xmm0, DWORD PTR _carry$[ebp]
	cvtsi2sd xmm1, DWORD PTR _carry$[ebp]
	divsd	xmm1, QWORD PTR __real@4038000000000000
	movsd	QWORD PTR tv703[ebp], xmm1
	fld	QWORD PTR tv703[ebp]
	sub	esp, 8
	fstp	QWORD PTR [esp]
	movsd	QWORD PTR tv938[ebp], xmm0
	call	_floor
	add	esp, 8
	fstp	QWORD PTR tv710[ebp]
	movsd	xmm0, QWORD PTR tv710[ebp]
	mulsd	xmm0, QWORD PTR __real@4038000000000000
	movsd	xmm1, QWORD PTR tv938[ebp]
	subsd	xmm1, xmm0
	movaps	xmm0, xmm1
	call	__dtoui3
	and	eax, 31					; 0000001fH
	shl	eax, 9
	mov	ecx, DWORD PTR _r$[ebp]
	mov	edx, DWORD PTR [ecx+4]
	and	edx, -15873				; ffffc1ffH
	or	edx, eax
	mov	eax, DWORD PTR _r$[ebp]
	mov	DWORD PTR [eax+4], edx

; 3838 :     carry   = (long)FQUOTIENT(carry, 24);

	cvtsi2sd xmm0, DWORD PTR _carry$[ebp]
	divsd	xmm0, QWORD PTR __real@4038000000000000
	movsd	QWORD PTR tv718[ebp], xmm0
	fld	QWORD PTR tv718[ebp]
	sub	esp, 8
	fstp	QWORD PTR [esp]
	call	_floor
	add	esp, 8
	call	__ftol2_sse_excpt
	mov	DWORD PTR _carry$[ebp], eax

; 3839 : 
; 3840 :     /*
; 3841 :      * days
; 3842 :      * Note we use tempdays because the temporary values may need more
; 3843 :      * than 5 bits
; 3844 :      */
; 3845 :     if ((VALID_YEAR(r->year)) && (VALID_MONTH(r->mon)) &&

	mov	ecx, DWORD PTR _r$[ebp]
	cmp	DWORD PTR [ecx], 0
	je	$LN14@xmlSchemaD
	mov	edx, DWORD PTR _r$[ebp]
	mov	eax, DWORD PTR [edx+4]
	and	eax, 15					; 0000000fH
	cmp	eax, 1
	jb	$LN14@xmlSchemaD
	mov	ecx, DWORD PTR _r$[ebp]
	mov	edx, DWORD PTR [ecx+4]
	and	edx, 15					; 0000000fH
	cmp	edx, 12					; 0000000cH
	ja	$LN14@xmlSchemaD
	mov	eax, DWORD PTR _r$[ebp]
	mov	ecx, DWORD PTR [eax]
	and	ecx, -2147483645			; 80000003H
	jns	SHORT $LN52@xmlSchemaD
	dec	ecx
	or	ecx, -4					; fffffffcH
	inc	ecx
$LN52@xmlSchemaD:
	test	ecx, ecx
	jne	SHORT $LN37@xmlSchemaD
	mov	edx, DWORD PTR _r$[ebp]
	mov	eax, DWORD PTR [edx]
	cdq
	mov	ecx, 100				; 00000064H
	idiv	ecx
	test	edx, edx
	jne	SHORT $LN38@xmlSchemaD
$LN37@xmlSchemaD:
	mov	edx, DWORD PTR _r$[ebp]
	mov	eax, DWORD PTR [edx]
	cdq
	mov	ecx, 400				; 00000190H
	idiv	ecx
	test	edx, edx
	je	SHORT $LN38@xmlSchemaD
	mov	edx, DWORD PTR _r$[ebp]
	mov	eax, DWORD PTR [edx+4]
	and	eax, 15					; 0000000fH
	mov	ecx, DWORD PTR _daysInMonth[eax*4-4]
	mov	DWORD PTR tv312[ebp], ecx
	jmp	SHORT $LN39@xmlSchemaD
$LN38@xmlSchemaD:
	mov	edx, DWORD PTR _r$[ebp]
	mov	eax, DWORD PTR [edx+4]
	and	eax, 15					; 0000000fH
	mov	ecx, DWORD PTR _daysInMonthLeap[eax*4-4]
	mov	DWORD PTR tv312[ebp], ecx
$LN39@xmlSchemaD:
	mov	edx, DWORD PTR _d$[ebp]
	mov	eax, DWORD PTR [edx+4]
	shr	eax, 4
	and	eax, 31					; 0000001fH
	cmp	eax, DWORD PTR tv312[ebp]
	jbe	SHORT $LN14@xmlSchemaD

; 3846 :                   (d->day > MAX_DAYINMONTH(r->year, r->mon)))
; 3847 :         tempdays = MAX_DAYINMONTH(r->year, r->mon);

	mov	ecx, DWORD PTR _r$[ebp]
	mov	edx, DWORD PTR [ecx]
	and	edx, -2147483645			; 80000003H
	jns	SHORT $LN53@xmlSchemaD
	dec	edx
	or	edx, -4					; fffffffcH
	inc	edx
$LN53@xmlSchemaD:
	test	edx, edx
	jne	SHORT $LN40@xmlSchemaD
	mov	eax, DWORD PTR _r$[ebp]
	mov	eax, DWORD PTR [eax]
	cdq
	mov	ecx, 100				; 00000064H
	idiv	ecx
	test	edx, edx
	jne	SHORT $LN41@xmlSchemaD
$LN40@xmlSchemaD:
	mov	edx, DWORD PTR _r$[ebp]
	mov	eax, DWORD PTR [edx]
	cdq
	mov	ecx, 400				; 00000190H
	idiv	ecx
	test	edx, edx
	je	SHORT $LN41@xmlSchemaD
	mov	edx, DWORD PTR _r$[ebp]
	mov	eax, DWORD PTR [edx+4]
	and	eax, 15					; 0000000fH
	mov	ecx, DWORD PTR _daysInMonth[eax*4-4]
	mov	DWORD PTR tv333[ebp], ecx
	jmp	SHORT $LN42@xmlSchemaD
$LN41@xmlSchemaD:
	mov	edx, DWORD PTR _r$[ebp]
	mov	eax, DWORD PTR [edx+4]
	and	eax, 15					; 0000000fH
	mov	ecx, DWORD PTR _daysInMonthLeap[eax*4-4]
	mov	DWORD PTR tv333[ebp], ecx
$LN42@xmlSchemaD:
	mov	edx, DWORD PTR tv333[ebp]
	mov	DWORD PTR _tempdays$[ebp], edx
	jmp	SHORT $LN17@xmlSchemaD
$LN14@xmlSchemaD:

; 3848 :     else if (d->day < 1)

	mov	eax, DWORD PTR _d$[ebp]
	mov	ecx, DWORD PTR [eax+4]
	shr	ecx, 4
	and	ecx, 31					; 0000001fH
	cmp	ecx, 1
	jae	SHORT $LN16@xmlSchemaD

; 3849 :         tempdays = 1;

	mov	DWORD PTR _tempdays$[ebp], 1
	jmp	SHORT $LN17@xmlSchemaD
$LN16@xmlSchemaD:

; 3850 :     else
; 3851 :         tempdays = d->day;

	mov	edx, DWORD PTR _d$[ebp]
	mov	eax, DWORD PTR [edx+4]
	shr	eax, 4
	and	eax, 31					; 0000001fH
	mov	DWORD PTR _tempdays$[ebp], eax
$LN17@xmlSchemaD:

; 3852 : 
; 3853 :     tempdays += u->day + carry;

	mov	ecx, DWORD PTR _u$[ebp]
	mov	edx, DWORD PTR [ecx+4]
	add	edx, DWORD PTR _carry$[ebp]
	add	edx, DWORD PTR _tempdays$[ebp]
	mov	DWORD PTR _tempdays$[ebp], edx
$LN2@xmlSchemaD:

; 3854 : 
; 3855 :     while (1) {

	mov	eax, 1
	test	eax, eax
	je	$LN3@xmlSchemaD

; 3856 :         if (tempdays < 1) {

	cmp	DWORD PTR _tempdays$[ebp], 1
	jge	$LN18@xmlSchemaD

; 3857 :             long tmon = (long) MODULO_RANGE((int)r->mon-1, 1, 13);

	mov	ecx, DWORD PTR _r$[ebp]
	mov	edx, DWORD PTR [ecx+4]
	and	edx, 15					; 0000000fH
	sub	edx, 2
	cvtsi2sd xmm0, edx
	mov	eax, DWORD PTR _r$[ebp]
	mov	ecx, DWORD PTR [eax+4]
	and	ecx, 15					; 0000000fH
	sub	ecx, 2
	cvtsi2sd xmm1, ecx
	divsd	xmm1, QWORD PTR __real@4028000000000000
	movsd	QWORD PTR tv785[ebp], xmm1
	fld	QWORD PTR tv785[ebp]
	sub	esp, 8
	fstp	QWORD PTR [esp]
	movsd	QWORD PTR tv940[ebp], xmm0
	call	_floor
	add	esp, 8
	fstp	QWORD PTR tv792[ebp]
	movsd	xmm0, QWORD PTR tv792[ebp]
	mulsd	xmm0, QWORD PTR __real@4028000000000000
	movsd	xmm1, QWORD PTR tv940[ebp]
	subsd	xmm1, xmm0
	addsd	xmm1, QWORD PTR __real@3ff0000000000000
	cvttsd2si edx, xmm1
	mov	DWORD PTR _tmon$2[ebp], edx

; 3858 :             long tyr  = r->year + (long)FQUOTIENT_RANGE((int)r->mon-1, 1, 13);

	mov	eax, DWORD PTR _r$[ebp]
	mov	ecx, DWORD PTR [eax+4]
	and	ecx, 15					; 0000000fH
	sub	ecx, 2
	cvtsi2sd xmm0, ecx
	divsd	xmm0, QWORD PTR __real@4028000000000000
	movsd	QWORD PTR tv796[ebp], xmm0
	fld	QWORD PTR tv796[ebp]
	sub	esp, 8
	fstp	QWORD PTR [esp]
	call	_floor
	add	esp, 8
	fstp	QWORD PTR tv803[ebp]
	movsd	xmm0, QWORD PTR tv803[ebp]
	cvttsd2si edx, xmm0
	mov	eax, DWORD PTR _r$[ebp]
	add	edx, DWORD PTR [eax]
	mov	DWORD PTR _tyr$1[ebp], edx

; 3859 :             if (tyr == 0)

	jne	SHORT $LN20@xmlSchemaD

; 3860 :                 tyr--;

	mov	ecx, DWORD PTR _tyr$1[ebp]
	sub	ecx, 1
	mov	DWORD PTR _tyr$1[ebp], ecx
$LN20@xmlSchemaD:

; 3861 : 	    /*
; 3862 : 	     * Coverity detected an overrun in daysInMonth
; 3863 : 	     * of size 12 at position 12 with index variable "((r)->mon - 1)"
; 3864 : 	     */
; 3865 : 	    if (tmon < 1)

	cmp	DWORD PTR _tmon$2[ebp], 1
	jge	SHORT $LN21@xmlSchemaD

; 3866 : 	        tmon = 1;

	mov	DWORD PTR _tmon$2[ebp], 1
$LN21@xmlSchemaD:

; 3867 : 	    if (tmon > 12)

	cmp	DWORD PTR _tmon$2[ebp], 12		; 0000000cH
	jle	SHORT $LN22@xmlSchemaD

; 3868 : 	        tmon = 12;

	mov	DWORD PTR _tmon$2[ebp], 12		; 0000000cH
$LN22@xmlSchemaD:

; 3869 :             tempdays += MAX_DAYINMONTH(tyr, tmon);

	mov	edx, DWORD PTR _tyr$1[ebp]
	and	edx, -2147483645			; 80000003H
	jns	SHORT $LN54@xmlSchemaD
	dec	edx
	or	edx, -4					; fffffffcH
	inc	edx
$LN54@xmlSchemaD:
	test	edx, edx
	jne	SHORT $LN43@xmlSchemaD
	mov	eax, DWORD PTR _tyr$1[ebp]
	cdq
	mov	ecx, 100				; 00000064H
	idiv	ecx
	test	edx, edx
	jne	SHORT $LN44@xmlSchemaD
$LN43@xmlSchemaD:
	mov	eax, DWORD PTR _tyr$1[ebp]
	cdq
	mov	ecx, 400				; 00000190H
	idiv	ecx
	test	edx, edx
	je	SHORT $LN44@xmlSchemaD
	mov	edx, DWORD PTR _tmon$2[ebp]
	mov	eax, DWORD PTR _daysInMonth[edx*4-4]
	mov	DWORD PTR tv398[ebp], eax
	jmp	SHORT $LN45@xmlSchemaD
$LN44@xmlSchemaD:
	mov	ecx, DWORD PTR _tmon$2[ebp]
	mov	edx, DWORD PTR _daysInMonthLeap[ecx*4-4]
	mov	DWORD PTR tv398[ebp], edx
$LN45@xmlSchemaD:
	mov	eax, DWORD PTR _tempdays$[ebp]
	add	eax, DWORD PTR tv398[ebp]
	mov	DWORD PTR _tempdays$[ebp], eax

; 3870 :             carry = -1;

	mov	DWORD PTR _carry$[ebp], -1
	jmp	$LN24@xmlSchemaD
$LN18@xmlSchemaD:

; 3871 :         } else if (VALID_YEAR(r->year) && VALID_MONTH(r->mon) &&

	mov	ecx, DWORD PTR _r$[ebp]
	cmp	DWORD PTR [ecx], 0
	je	$LN23@xmlSchemaD
	mov	edx, DWORD PTR _r$[ebp]
	mov	eax, DWORD PTR [edx+4]
	and	eax, 15					; 0000000fH
	cmp	eax, 1
	jb	$LN23@xmlSchemaD
	mov	ecx, DWORD PTR _r$[ebp]
	mov	edx, DWORD PTR [ecx+4]
	and	edx, 15					; 0000000fH
	cmp	edx, 12					; 0000000cH
	ja	$LN23@xmlSchemaD
	mov	eax, DWORD PTR _r$[ebp]
	mov	ecx, DWORD PTR [eax]
	and	ecx, -2147483645			; 80000003H
	jns	SHORT $LN55@xmlSchemaD
	dec	ecx
	or	ecx, -4					; fffffffcH
	inc	ecx
$LN55@xmlSchemaD:
	test	ecx, ecx
	jne	SHORT $LN46@xmlSchemaD
	mov	edx, DWORD PTR _r$[ebp]
	mov	eax, DWORD PTR [edx]
	cdq
	mov	ecx, 100				; 00000064H
	idiv	ecx
	test	edx, edx
	jne	SHORT $LN47@xmlSchemaD
$LN46@xmlSchemaD:
	mov	edx, DWORD PTR _r$[ebp]
	mov	eax, DWORD PTR [edx]
	cdq
	mov	ecx, 400				; 00000190H
	idiv	ecx
	test	edx, edx
	je	SHORT $LN47@xmlSchemaD
	mov	edx, DWORD PTR _r$[ebp]
	mov	eax, DWORD PTR [edx+4]
	and	eax, 15					; 0000000fH
	mov	ecx, DWORD PTR _daysInMonth[eax*4-4]
	mov	DWORD PTR tv427[ebp], ecx
	jmp	SHORT $LN48@xmlSchemaD
$LN47@xmlSchemaD:
	mov	edx, DWORD PTR _r$[ebp]
	mov	eax, DWORD PTR [edx+4]
	and	eax, 15					; 0000000fH
	mov	ecx, DWORD PTR _daysInMonthLeap[eax*4-4]
	mov	DWORD PTR tv427[ebp], ecx
$LN48@xmlSchemaD:
	mov	edx, DWORD PTR _tempdays$[ebp]
	cmp	edx, DWORD PTR tv427[ebp]
	jle	SHORT $LN23@xmlSchemaD

; 3872 :                    tempdays > (long) MAX_DAYINMONTH(r->year, r->mon)) {
; 3873 :             tempdays = tempdays - MAX_DAYINMONTH(r->year, r->mon);

	mov	eax, DWORD PTR _r$[ebp]
	mov	ecx, DWORD PTR [eax]
	and	ecx, -2147483645			; 80000003H
	jns	SHORT $LN56@xmlSchemaD
	dec	ecx
	or	ecx, -4					; fffffffcH
	inc	ecx
$LN56@xmlSchemaD:
	test	ecx, ecx
	jne	SHORT $LN49@xmlSchemaD
	mov	edx, DWORD PTR _r$[ebp]
	mov	eax, DWORD PTR [edx]
	cdq
	mov	ecx, 100				; 00000064H
	idiv	ecx
	test	edx, edx
	jne	SHORT $LN50@xmlSchemaD
$LN49@xmlSchemaD:
	mov	edx, DWORD PTR _r$[ebp]
	mov	eax, DWORD PTR [edx]
	cdq
	mov	ecx, 400				; 00000190H
	idiv	ecx
	test	edx, edx
	je	SHORT $LN50@xmlSchemaD
	mov	edx, DWORD PTR _r$[ebp]
	mov	eax, DWORD PTR [edx+4]
	and	eax, 15					; 0000000fH
	mov	ecx, DWORD PTR _daysInMonth[eax*4-4]
	mov	DWORD PTR tv448[ebp], ecx
	jmp	SHORT $LN51@xmlSchemaD
$LN50@xmlSchemaD:
	mov	edx, DWORD PTR _r$[ebp]
	mov	eax, DWORD PTR [edx+4]
	and	eax, 15					; 0000000fH
	mov	ecx, DWORD PTR _daysInMonthLeap[eax*4-4]
	mov	DWORD PTR tv448[ebp], ecx
$LN51@xmlSchemaD:
	mov	edx, DWORD PTR _tempdays$[ebp]
	sub	edx, DWORD PTR tv448[ebp]
	mov	DWORD PTR _tempdays$[ebp], edx

; 3874 :             carry = 1;

	mov	DWORD PTR _carry$[ebp], 1

; 3875 :         } else

	jmp	SHORT $LN24@xmlSchemaD
$LN23@xmlSchemaD:

; 3876 :             break;

	jmp	$LN3@xmlSchemaD
$LN24@xmlSchemaD:

; 3877 : 
; 3878 :         temp = r->mon + carry;

	mov	eax, DWORD PTR _r$[ebp]
	mov	ecx, DWORD PTR [eax+4]
	and	ecx, 15					; 0000000fH
	add	ecx, DWORD PTR _carry$[ebp]
	mov	DWORD PTR _temp$[ebp], ecx

; 3879 :         r->mon = (unsigned int) MODULO_RANGE(temp, 1, 13);

	mov	edx, DWORD PTR _temp$[ebp]
	sub	edx, 1
	cvtsi2sd xmm0, edx
	mov	eax, DWORD PTR _temp$[ebp]
	sub	eax, 1
	cvtsi2sd xmm1, eax
	divsd	xmm1, QWORD PTR __real@4028000000000000
	movsd	QWORD PTR tv874[ebp], xmm1
	fld	QWORD PTR tv874[ebp]
	sub	esp, 8
	fstp	QWORD PTR [esp]
	movsd	QWORD PTR tv942[ebp], xmm0
	call	_floor
	add	esp, 8
	fstp	QWORD PTR tv881[ebp]
	movsd	xmm0, QWORD PTR tv881[ebp]
	mulsd	xmm0, QWORD PTR __real@4028000000000000
	movsd	xmm1, QWORD PTR tv942[ebp]
	subsd	xmm1, xmm0
	addsd	xmm1, QWORD PTR __real@3ff0000000000000
	movaps	xmm0, xmm1
	call	__dtoui3
	and	eax, 15					; 0000000fH
	mov	ecx, DWORD PTR _r$[ebp]
	mov	edx, DWORD PTR [ecx+4]
	and	edx, -16				; fffffff0H
	or	edx, eax
	mov	eax, DWORD PTR _r$[ebp]
	mov	DWORD PTR [eax+4], edx

; 3880 :         r->year = r->year + (unsigned int) FQUOTIENT_RANGE(temp, 1, 13);

	mov	ecx, DWORD PTR _temp$[ebp]
	sub	ecx, 1
	cvtsi2sd xmm0, ecx
	divsd	xmm0, QWORD PTR __real@4028000000000000
	movsd	QWORD PTR tv890[ebp], xmm0
	fld	QWORD PTR tv890[ebp]
	sub	esp, 8
	fstp	QWORD PTR [esp]
	call	_floor
	add	esp, 8
	fstp	QWORD PTR tv897[ebp]
	movsd	xmm0, QWORD PTR tv897[ebp]
	call	__dtoui3
	mov	edx, DWORD PTR _r$[ebp]
	add	eax, DWORD PTR [edx]
	mov	ecx, DWORD PTR _r$[ebp]
	mov	DWORD PTR [ecx], eax

; 3881 :         if (r->year == 0) {

	mov	edx, DWORD PTR _r$[ebp]
	cmp	DWORD PTR [edx], 0
	jne	SHORT $LN27@xmlSchemaD

; 3882 :             if (temp < 1)

	cmp	DWORD PTR _temp$[ebp], 1
	jge	SHORT $LN26@xmlSchemaD

; 3883 :                 r->year--;

	mov	eax, DWORD PTR _r$[ebp]
	mov	ecx, DWORD PTR [eax]
	sub	ecx, 1
	mov	edx, DWORD PTR _r$[ebp]
	mov	DWORD PTR [edx], ecx
	jmp	SHORT $LN27@xmlSchemaD
$LN26@xmlSchemaD:

; 3884 :             else
; 3885 :                 r->year++;

	mov	eax, DWORD PTR _r$[ebp]
	mov	ecx, DWORD PTR [eax]
	add	ecx, 1
	mov	edx, DWORD PTR _r$[ebp]
	mov	DWORD PTR [edx], ecx
$LN27@xmlSchemaD:

; 3886 : 	}
; 3887 :     }

	jmp	$LN2@xmlSchemaD
$LN3@xmlSchemaD:

; 3888 : 
; 3889 :     r->day = tempdays;

	mov	eax, DWORD PTR _tempdays$[ebp]
	and	eax, 31					; 0000001fH
	shl	eax, 4
	mov	ecx, DWORD PTR _r$[ebp]
	mov	edx, DWORD PTR [ecx+4]
	and	edx, -497				; fffffe0fH
	or	edx, eax
	mov	eax, DWORD PTR _r$[ebp]
	mov	DWORD PTR [eax+4], edx

; 3890 : 
; 3891 :     /*
; 3892 :      * adjust the date/time type to the date values
; 3893 :      */
; 3894 :     if (ret->type != XML_SCHEMAS_DATETIME) {

	mov	ecx, DWORD PTR _ret$[ebp]
	cmp	DWORD PTR [ecx], 11			; 0000000bH
	je	$LN35@xmlSchemaD

; 3895 :         if ((r->hour) || (r->min) || (r->sec))

	mov	edx, DWORD PTR _r$[ebp]
	mov	eax, DWORD PTR [edx+4]
	shr	eax, 9
	and	eax, 31					; 0000001fH
	jne	SHORT $LN31@xmlSchemaD
	mov	ecx, DWORD PTR _r$[ebp]
	mov	edx, DWORD PTR [ecx+4]
	shr	edx, 14					; 0000000eH
	and	edx, 63					; 0000003fH
	jne	SHORT $LN31@xmlSchemaD
	mov	eax, DWORD PTR _r$[ebp]
	movsd	xmm0, QWORD PTR [eax+8]
	ucomisd	xmm0, QWORD PTR __real@0000000000000000
	lahf
	test	ah, 68					; 00000044H
	jnp	SHORT $LN29@xmlSchemaD
$LN31@xmlSchemaD:

; 3896 :             ret->type = XML_SCHEMAS_DATETIME;

	mov	ecx, DWORD PTR _ret$[ebp]
	mov	DWORD PTR [ecx], 11			; 0000000bH
	jmp	SHORT $LN35@xmlSchemaD
$LN29@xmlSchemaD:

; 3897 :         else if (ret->type != XML_SCHEMAS_DATE) {

	mov	edx, DWORD PTR _ret$[ebp]
	cmp	DWORD PTR [edx], 10			; 0000000aH
	je	SHORT $LN35@xmlSchemaD

; 3898 :             if ((r->mon != 1) && (r->day != 1))

	mov	eax, DWORD PTR _r$[ebp]
	mov	ecx, DWORD PTR [eax+4]
	and	ecx, 15					; 0000000fH
	cmp	ecx, 1
	je	SHORT $LN33@xmlSchemaD
	mov	edx, DWORD PTR _r$[ebp]
	mov	eax, DWORD PTR [edx+4]
	shr	eax, 4
	and	eax, 31					; 0000001fH
	cmp	eax, 1
	je	SHORT $LN33@xmlSchemaD

; 3899 :                 ret->type = XML_SCHEMAS_DATE;

	mov	ecx, DWORD PTR _ret$[ebp]
	mov	DWORD PTR [ecx], 10			; 0000000aH
	jmp	SHORT $LN35@xmlSchemaD
$LN33@xmlSchemaD:

; 3900 :             else if ((ret->type != XML_SCHEMAS_GYEARMONTH) && (r->mon != 1))

	mov	edx, DWORD PTR _ret$[ebp]
	cmp	DWORD PTR [edx], 9
	je	SHORT $LN35@xmlSchemaD
	mov	eax, DWORD PTR _r$[ebp]
	mov	ecx, DWORD PTR [eax+4]
	and	ecx, 15					; 0000000fH
	cmp	ecx, 1
	je	SHORT $LN35@xmlSchemaD

; 3901 :                 ret->type = XML_SCHEMAS_GYEARMONTH;

	mov	edx, DWORD PTR _ret$[ebp]
	mov	DWORD PTR [edx], 9
$LN35@xmlSchemaD:

; 3902 :         }
; 3903 :     }
; 3904 : 
; 3905 :     xmlSchemaFreeValue(tmp);

	mov	eax, DWORD PTR _tmp$[ebp]
	push	eax
	call	_xmlSchemaFreeValue
	add	esp, 4

; 3906 : 
; 3907 :     return ret;

	mov	eax, DWORD PTR _ret$[ebp]
$LN1@xmlSchemaD:

; 3908 : }

	pop	edi
	add	esp, 260				; 00000104H
	cmp	ebp, esp
	call	__RTC_CheckEsp
	mov	esp, ebp
	pop	ebp
	ret	0
__xmlSchemaDateAdd ENDP
_TEXT	ENDS
; Function compile flags: /Odtp /RTCsu
; File c:\users\dag\documents\_clients\codeproject authors group\windows on arm\libxml2\libxml2-2.9.9\xmlschemastypes.c
;	COMDAT _xmlSchemaDupVal
_TEXT	SEGMENT
_ret$ = -4						; size = 4
_v$ = 8							; size = 4
_xmlSchemaDupVal PROC					; COMDAT

; 3670 : {

	push	ebp
	mov	ebp, esp
	push	ecx
	push	esi
	push	edi
	mov	DWORD PTR [ebp-4], -858993460		; ccccccccH
	mov	ecx, OFFSET __74485836_xmlschemastypes@c
	call	@__CheckForDebuggerJustMyCode@4

; 3671 :     xmlSchemaValPtr ret = xmlSchemaNewValue(v->type);

	mov	eax, DWORD PTR _v$[ebp]
	mov	ecx, DWORD PTR [eax]
	push	ecx
	call	_xmlSchemaNewValue
	add	esp, 4
	mov	DWORD PTR _ret$[ebp], eax

; 3672 :     if (ret == NULL)

	cmp	DWORD PTR _ret$[ebp], 0
	jne	SHORT $LN2@xmlSchemaD

; 3673 :         return NULL;

	xor	eax, eax
	jmp	SHORT $LN1@xmlSchemaD
$LN2@xmlSchemaD:

; 3674 : 
; 3675 :     memcpy(ret, v, sizeof(xmlSchemaVal));

	mov	ecx, 8
	mov	esi, DWORD PTR _v$[ebp]
	mov	edi, DWORD PTR _ret$[ebp]
	rep movsd

; 3676 :     ret->next = NULL;

	mov	edx, DWORD PTR _ret$[ebp]
	mov	DWORD PTR [edx+4], 0

; 3677 :     return ret;

	mov	eax, DWORD PTR _ret$[ebp]
$LN1@xmlSchemaD:

; 3678 : }

	pop	edi
	pop	esi
	add	esp, 4
	cmp	ebp, esp
	call	__RTC_CheckEsp
	mov	esp, ebp
	pop	ebp
	ret	0
_xmlSchemaDupVal ENDP
_TEXT	ENDS
; Function compile flags: /Odtp /RTCsu
; File c:\users\dag\documents\_clients\codeproject authors group\windows on arm\libxml2\libxml2-2.9.9\xmlschemastypes.c
;	COMDAT _xmlSchemaCompareDurations
_TEXT	SEGMENT
_maxday$ = -44						; size = 4
_minday$ = -40						; size = 4
_myear$ = -36						; size = 4
_xday$ = -32						; size = 4
_xmon$ = -28						; size = 4
_invert$ = -24						; size = 4
_sec$ = -20						; size = 8
_day$ = -12						; size = 4
_mon$ = -8						; size = 4
_carry$ = -4						; size = 4
_x$ = 8							; size = 4
_y$ = 12						; size = 4
_xmlSchemaCompareDurations PROC				; COMDAT

; 3573 : {

	push	ebp
	mov	ebp, esp
	sub	esp, 44					; 0000002cH
	push	edi
	lea	edi, DWORD PTR [ebp-44]
	mov	ecx, 11					; 0000000bH
	mov	eax, -858993460				; ccccccccH
	rep stosd
	mov	ecx, OFFSET __74485836_xmlschemastypes@c
	call	@__CheckForDebuggerJustMyCode@4

; 3574 :     long carry, mon, day;
; 3575 :     double sec;
; 3576 :     int invert = 1;

	mov	DWORD PTR _invert$[ebp], 1

; 3577 :     long xmon, xday, myear, minday, maxday;
; 3578 :     static const long dayRange [2][12] = {
; 3579 :         { 0, 28, 59, 89, 120, 150, 181, 212, 242, 273, 303, 334, },
; 3580 :         { 0, 31, 62, 92, 123, 153, 184, 215, 245, 276, 306, 337} };
; 3581 : 
; 3582 :     if ((x == NULL) || (y == NULL))

	cmp	DWORD PTR _x$[ebp], 0
	je	SHORT $LN3@xmlSchemaC
	cmp	DWORD PTR _y$[ebp], 0
	jne	SHORT $LN2@xmlSchemaC
$LN3@xmlSchemaC:

; 3583 :         return -2;

	mov	eax, -2					; fffffffeH
	jmp	$LN1@xmlSchemaC
$LN2@xmlSchemaC:

; 3584 : 
; 3585 :     /* months */
; 3586 :     mon = x->value.dur.mon - y->value.dur.mon;

	mov	eax, DWORD PTR _x$[ebp]
	mov	ecx, DWORD PTR _y$[ebp]
	mov	edx, DWORD PTR [eax+8]
	sub	edx, DWORD PTR [ecx+8]
	mov	DWORD PTR _mon$[ebp], edx

; 3587 : 
; 3588 :     /* seconds */
; 3589 :     sec = x->value.dur.sec - y->value.dur.sec;

	mov	eax, DWORD PTR _x$[ebp]
	mov	ecx, DWORD PTR _y$[ebp]
	movsd	xmm0, QWORD PTR [eax+16]
	subsd	xmm0, QWORD PTR [ecx+16]
	movsd	QWORD PTR _sec$[ebp], xmm0

; 3590 :     carry = (long)(sec / SECS_PER_DAY);

	movsd	xmm0, QWORD PTR _sec$[ebp]
	divsd	xmm0, QWORD PTR __real@40f5180000000000
	cvttsd2si edx, xmm0
	mov	DWORD PTR _carry$[ebp], edx

; 3591 :     sec -= ((double)carry) * SECS_PER_DAY;

	cvtsi2sd xmm0, DWORD PTR _carry$[ebp]
	mulsd	xmm0, QWORD PTR __real@40f5180000000000
	movsd	xmm1, QWORD PTR _sec$[ebp]
	subsd	xmm1, xmm0
	movsd	QWORD PTR _sec$[ebp], xmm1

; 3592 : 
; 3593 :     /* days */
; 3594 :     day = x->value.dur.day - y->value.dur.day + carry;

	mov	eax, DWORD PTR _x$[ebp]
	mov	ecx, DWORD PTR _y$[ebp]
	mov	edx, DWORD PTR [eax+12]
	sub	edx, DWORD PTR [ecx+12]
	add	edx, DWORD PTR _carry$[ebp]
	mov	DWORD PTR _day$[ebp], edx

; 3595 : 
; 3596 :     /* easy test */
; 3597 :     if (mon == 0) {

	cmp	DWORD PTR _mon$[ebp], 0
	jne	SHORT $LN12@xmlSchemaC

; 3598 :         if (day == 0)

	cmp	DWORD PTR _day$[ebp], 0
	jne	SHORT $LN5@xmlSchemaC

; 3599 :             if (sec == 0.0)

	movsd	xmm0, QWORD PTR _sec$[ebp]
	ucomisd	xmm0, QWORD PTR __real@0000000000000000
	lahf
	test	ah, 68					; 00000044H
	jp	SHORT $LN7@xmlSchemaC

; 3600 :                 return 0;

	xor	eax, eax
	jmp	$LN1@xmlSchemaC
	jmp	SHORT $LN10@xmlSchemaC
$LN7@xmlSchemaC:

; 3601 :             else if (sec < 0.0)

	xorps	xmm0, xmm0
	comisd	xmm0, QWORD PTR _sec$[ebp]
	jbe	SHORT $LN9@xmlSchemaC

; 3602 :                 return -1;

	or	eax, -1
	jmp	$LN1@xmlSchemaC
	jmp	SHORT $LN10@xmlSchemaC
$LN9@xmlSchemaC:

; 3603 :             else
; 3604 :                 return 1;

	mov	eax, 1
	jmp	$LN1@xmlSchemaC
$LN10@xmlSchemaC:
	jmp	SHORT $LN12@xmlSchemaC
$LN5@xmlSchemaC:

; 3605 :         else if (day < 0)

	cmp	DWORD PTR _day$[ebp], 0
	jge	SHORT $LN11@xmlSchemaC

; 3606 :             return -1;

	or	eax, -1
	jmp	$LN1@xmlSchemaC
	jmp	SHORT $LN12@xmlSchemaC
$LN11@xmlSchemaC:

; 3607 :         else
; 3608 :             return 1;

	mov	eax, 1
	jmp	$LN1@xmlSchemaC
$LN12@xmlSchemaC:

; 3609 :     }
; 3610 : 
; 3611 :     if (mon > 0) {

	cmp	DWORD PTR _mon$[ebp], 0
	jle	SHORT $LN13@xmlSchemaC

; 3612 :         if ((day >= 0) && (sec >= 0.0))

	cmp	DWORD PTR _day$[ebp], 0
	jl	SHORT $LN15@xmlSchemaC
	movsd	xmm0, QWORD PTR _sec$[ebp]
	comisd	xmm0, QWORD PTR __real@0000000000000000
	jb	SHORT $LN15@xmlSchemaC

; 3613 :             return 1;

	mov	eax, 1
	jmp	$LN1@xmlSchemaC
	jmp	SHORT $LN16@xmlSchemaC
$LN15@xmlSchemaC:

; 3614 :         else {
; 3615 :             xmon = mon;

	mov	eax, DWORD PTR _mon$[ebp]
	mov	DWORD PTR _xmon$[ebp], eax

; 3616 :             xday = -day;

	mov	ecx, DWORD PTR _day$[ebp]
	neg	ecx
	mov	DWORD PTR _xday$[ebp], ecx
$LN16@xmlSchemaC:

; 3617 :         }

	jmp	SHORT $LN18@xmlSchemaC
$LN13@xmlSchemaC:

; 3618 :     } else if ((day <= 0) && (sec <= 0.0)) {

	cmp	DWORD PTR _day$[ebp], 0
	jg	SHORT $LN17@xmlSchemaC
	xorps	xmm0, xmm0
	comisd	xmm0, QWORD PTR _sec$[ebp]
	jb	SHORT $LN17@xmlSchemaC

; 3619 :         return -1;

	or	eax, -1
	jmp	$LN1@xmlSchemaC

; 3620 :     } else {

	jmp	SHORT $LN18@xmlSchemaC
$LN17@xmlSchemaC:

; 3621 : 	invert = -1;

	mov	DWORD PTR _invert$[ebp], -1

; 3622 :         xmon = -mon;

	mov	edx, DWORD PTR _mon$[ebp]
	neg	edx
	mov	DWORD PTR _xmon$[ebp], edx

; 3623 :         xday = day;

	mov	eax, DWORD PTR _day$[ebp]
	mov	DWORD PTR _xday$[ebp], eax
$LN18@xmlSchemaC:

; 3624 :     }
; 3625 : 
; 3626 :     myear = xmon / 12;

	mov	eax, DWORD PTR _xmon$[ebp]
	cdq
	mov	ecx, 12					; 0000000cH
	idiv	ecx
	mov	DWORD PTR _myear$[ebp], eax

; 3627 :     if (myear == 0) {

	cmp	DWORD PTR _myear$[ebp], 0
	jne	SHORT $LN19@xmlSchemaC

; 3628 : 	minday = 0;

	mov	DWORD PTR _minday$[ebp], 0

; 3629 : 	maxday = 0;

	mov	DWORD PTR _maxday$[ebp], 0

; 3630 :     } else {

	jmp	SHORT $LN20@xmlSchemaC
$LN19@xmlSchemaC:

; 3631 : 	maxday = 366 * ((myear + 3) / 4) +

	mov	eax, DWORD PTR _myear$[ebp]
	add	eax, 3
	cdq
	and	edx, 3
	add	eax, edx
	sar	eax, 2
	imul	edx, eax, 366
	mov	eax, DWORD PTR _myear$[ebp]
	sub	eax, 1
	and	eax, -2147483645			; 80000003H
	jns	SHORT $LN25@xmlSchemaC
	dec	eax
	or	eax, -4					; fffffffcH
	inc	eax
$LN25@xmlSchemaC:
	imul	ecx, eax, 365
	add	edx, ecx
	mov	DWORD PTR _maxday$[ebp], edx

; 3632 : 	         365 * ((myear - 1) % 4);
; 3633 : 	minday = maxday - 1;

	mov	edx, DWORD PTR _maxday$[ebp]
	sub	edx, 1
	mov	DWORD PTR _minday$[ebp], edx
$LN20@xmlSchemaC:

; 3634 :     }
; 3635 : 
; 3636 :     xmon = xmon % 12;

	mov	eax, DWORD PTR _xmon$[ebp]
	cdq
	mov	ecx, 12					; 0000000cH
	idiv	ecx
	mov	DWORD PTR _xmon$[ebp], edx

; 3637 :     minday += dayRange[0][xmon];

	mov	edx, 48					; 00000030H
	imul	eax, edx, 0
	mov	ecx, DWORD PTR _xmon$[ebp]
	mov	edx, DWORD PTR _minday$[ebp]
	add	edx, DWORD PTR ?dayRange@?1??xmlSchemaCompareDurations@@9@9[eax+ecx*4]
	mov	DWORD PTR _minday$[ebp], edx

; 3638 :     maxday += dayRange[1][xmon];

	mov	eax, 48					; 00000030H
	shl	eax, 0
	mov	ecx, DWORD PTR _xmon$[ebp]
	mov	edx, DWORD PTR _maxday$[ebp]
	add	edx, DWORD PTR ?dayRange@?1??xmlSchemaCompareDurations@@9@9[eax+ecx*4]
	mov	DWORD PTR _maxday$[ebp], edx

; 3639 : 
; 3640 :     if ((maxday == minday) && (maxday == xday))

	mov	eax, DWORD PTR _maxday$[ebp]
	cmp	eax, DWORD PTR _minday$[ebp]
	jne	SHORT $LN21@xmlSchemaC
	mov	ecx, DWORD PTR _maxday$[ebp]
	cmp	ecx, DWORD PTR _xday$[ebp]
	jne	SHORT $LN21@xmlSchemaC

; 3641 : 	return(0); /* can this really happen ? */

	xor	eax, eax
	jmp	SHORT $LN1@xmlSchemaC
$LN21@xmlSchemaC:

; 3642 :     if (maxday < xday)

	mov	edx, DWORD PTR _maxday$[ebp]
	cmp	edx, DWORD PTR _xday$[ebp]
	jge	SHORT $LN22@xmlSchemaC

; 3643 :         return(-invert);

	mov	eax, DWORD PTR _invert$[ebp]
	neg	eax
	jmp	SHORT $LN1@xmlSchemaC
$LN22@xmlSchemaC:

; 3644 :     if (minday > xday)

	mov	eax, DWORD PTR _minday$[ebp]
	cmp	eax, DWORD PTR _xday$[ebp]
	jle	SHORT $LN23@xmlSchemaC

; 3645 :         return(invert);

	mov	eax, DWORD PTR _invert$[ebp]
	jmp	SHORT $LN1@xmlSchemaC
$LN23@xmlSchemaC:

; 3646 : 
; 3647 :     /* indeterminate */
; 3648 :     return 2;

	mov	eax, 2
$LN1@xmlSchemaC:

; 3649 : }

	pop	edi
	add	esp, 44					; 0000002cH
	cmp	ebp, esp
	call	__RTC_CheckEsp
	mov	esp, ebp
	pop	ebp
	ret	0
_xmlSchemaCompareDurations ENDP
_TEXT	ENDS
; Function compile flags: /Odtp /RTCsu
; File c:\users\dag\documents\_clients\codeproject authors group\windows on arm\libxml2\libxml2-2.9.9\xmlschemastypes.c
;	COMDAT _xmlSchemaCompareDecimals
_TEXT	SEGMENT
_rem2$1 = -40						; size = 4
_rem1$2 = -36						; size = 4
_lo$ = -32						; size = 4
_mi$ = -28						; size = 4
_hi$ = -24						; size = 4
_dlen$ = -20						; size = 4
_integy$ = -16						; size = 4
_integx$ = -12						; size = 4
_order$ = -8						; size = 4
_swp$ = -4						; size = 4
_x$ = 8							; size = 4
_y$ = 12						; size = 4
_xmlSchemaCompareDecimals PROC				; COMDAT

; 3425 : {

	push	ebp
	mov	ebp, esp
	sub	esp, 40					; 00000028H
	push	edi
	lea	edi, DWORD PTR [ebp-40]
	mov	ecx, 10					; 0000000aH
	mov	eax, -858993460				; ccccccccH
	rep stosd
	mov	ecx, OFFSET __74485836_xmlschemastypes@c
	call	@__CheckForDebuggerJustMyCode@4

; 3426 :     xmlSchemaValPtr swp;
; 3427 :     int order = 1, integx, integy, dlen;

	mov	DWORD PTR _order$[ebp], 1

; 3428 :     unsigned long hi, mi, lo;
; 3429 : 
; 3430 :     /*
; 3431 :      * First test: If x is -ve and not zero
; 3432 :      */
; 3433 :     if ((x->value.decimal.sign) &&

	mov	eax, DWORD PTR _x$[ebp]
	mov	ecx, DWORD PTR [eax+24]
	and	ecx, 1
	je	SHORT $LN6@xmlSchemaC
	mov	edx, DWORD PTR _x$[ebp]
	cmp	DWORD PTR [edx+8], 0
	jne	SHORT $LN8@xmlSchemaC
	mov	eax, DWORD PTR _x$[ebp]
	cmp	DWORD PTR [eax+12], 0
	jne	SHORT $LN8@xmlSchemaC
	mov	ecx, DWORD PTR _x$[ebp]
	cmp	DWORD PTR [ecx+16], 0
	je	SHORT $LN6@xmlSchemaC
$LN8@xmlSchemaC:

; 3434 : 	((x->value.decimal.lo != 0) ||
; 3435 : 	 (x->value.decimal.mi != 0) ||
; 3436 : 	 (x->value.decimal.hi != 0))) {
; 3437 : 	/*
; 3438 : 	 * Then if y is -ve and not zero reverse the compare
; 3439 : 	 */
; 3440 : 	if ((y->value.decimal.sign) &&

	mov	edx, DWORD PTR _y$[ebp]
	mov	eax, DWORD PTR [edx+24]
	and	eax, 1
	je	SHORT $LN9@xmlSchemaC
	mov	ecx, DWORD PTR _y$[ebp]
	cmp	DWORD PTR [ecx+8], 0
	jne	SHORT $LN11@xmlSchemaC
	mov	edx, DWORD PTR _y$[ebp]
	cmp	DWORD PTR [edx+12], 0
	jne	SHORT $LN11@xmlSchemaC
	mov	eax, DWORD PTR _y$[ebp]
	cmp	DWORD PTR [eax+16], 0
	je	SHORT $LN9@xmlSchemaC
$LN11@xmlSchemaC:

; 3441 : 	    ((y->value.decimal.lo != 0) ||
; 3442 : 	     (y->value.decimal.mi != 0) ||
; 3443 : 	     (y->value.decimal.hi != 0)))
; 3444 : 	    order = -1;

	mov	DWORD PTR _order$[ebp], -1
	jmp	SHORT $LN10@xmlSchemaC
$LN9@xmlSchemaC:

; 3445 : 	/*
; 3446 : 	 * Otherwise (y >= 0) we have the answer
; 3447 : 	 */
; 3448 : 	else
; 3449 : 	    return (-1);

	or	eax, -1
	jmp	$LN1@xmlSchemaC
$LN10@xmlSchemaC:

; 3450 :     /*
; 3451 :      * If x is not -ve and y is -ve we have the answer
; 3452 :      */
; 3453 :     } else if ((y->value.decimal.sign) &&

	jmp	SHORT $LN7@xmlSchemaC
$LN6@xmlSchemaC:
	mov	ecx, DWORD PTR _y$[ebp]
	mov	edx, DWORD PTR [ecx+24]
	and	edx, 1
	je	SHORT $LN7@xmlSchemaC
	mov	eax, DWORD PTR _y$[ebp]
	cmp	DWORD PTR [eax+8], 0
	jne	SHORT $LN13@xmlSchemaC
	mov	ecx, DWORD PTR _y$[ebp]
	cmp	DWORD PTR [ecx+12], 0
	jne	SHORT $LN13@xmlSchemaC
	mov	edx, DWORD PTR _y$[ebp]
	cmp	DWORD PTR [edx+16], 0
	je	SHORT $LN7@xmlSchemaC
$LN13@xmlSchemaC:

; 3454 : 	       ((y->value.decimal.lo != 0) ||
; 3455 : 		(y->value.decimal.mi != 0) ||
; 3456 : 		(y->value.decimal.hi != 0))) {
; 3457 :         return (1);

	mov	eax, 1
	jmp	$LN1@xmlSchemaC
$LN7@xmlSchemaC:

; 3458 :     }
; 3459 :     /*
; 3460 :      * If it's not simply determined by a difference in sign,
; 3461 :      * then we need to compare the actual values of the two nums.
; 3462 :      * To do this, we start by looking at the integral parts.
; 3463 :      * If the number of integral digits differ, then we have our
; 3464 :      * answer.
; 3465 :      */
; 3466 :     integx = x->value.decimal.total - x->value.decimal.frac;

	mov	eax, DWORD PTR _x$[ebp]
	mov	ecx, DWORD PTR [eax+24]
	shr	ecx, 8
	and	ecx, 255				; 000000ffH
	mov	edx, DWORD PTR _x$[ebp]
	mov	eax, DWORD PTR [edx+24]
	shr	eax, 1
	and	eax, 127				; 0000007fH
	sub	ecx, eax
	mov	DWORD PTR _integx$[ebp], ecx

; 3467 :     integy = y->value.decimal.total - y->value.decimal.frac;

	mov	ecx, DWORD PTR _y$[ebp]
	mov	edx, DWORD PTR [ecx+24]
	shr	edx, 8
	and	edx, 255				; 000000ffH
	mov	eax, DWORD PTR _y$[ebp]
	mov	ecx, DWORD PTR [eax+24]
	shr	ecx, 1
	and	ecx, 127				; 0000007fH
	sub	edx, ecx
	mov	DWORD PTR _integy$[ebp], edx

; 3468 :     /*
; 3469 :     * NOTE: We changed the "total" for values like "0.1"
; 3470 :     *   (or "-0.1" or ".1") to be 1, which was 2 previously.
; 3471 :     *   Therefore the special case, when such values are
; 3472 :     *   compared with 0, needs to be handled separately;
; 3473 :     *   otherwise a zero would be recognized incorrectly as
; 3474 :     *   greater than those values. This has the nice side effect
; 3475 :     *   that we gain an overall optimized comparison with zeroes.
; 3476 :     * Note that a "0" has a "total" of 1 already.
; 3477 :     */
; 3478 :     if (integx == 1) {

	cmp	DWORD PTR _integx$[ebp], 1
	jne	SHORT $LN14@xmlSchemaC

; 3479 : 	if (x->value.decimal.lo == 0) {

	mov	edx, DWORD PTR _x$[ebp]
	cmp	DWORD PTR [edx+8], 0
	jne	SHORT $LN14@xmlSchemaC

; 3480 : 	    if (integy != 1)

	cmp	DWORD PTR _integy$[ebp], 1
	je	SHORT $LN16@xmlSchemaC

; 3481 : 		return -order;

	mov	eax, DWORD PTR _order$[ebp]
	neg	eax
	jmp	$LN1@xmlSchemaC
	jmp	SHORT $LN14@xmlSchemaC
$LN16@xmlSchemaC:

; 3482 : 	    else if (y->value.decimal.lo != 0)

	mov	eax, DWORD PTR _y$[ebp]
	cmp	DWORD PTR [eax+8], 0
	je	SHORT $LN18@xmlSchemaC

; 3483 : 		return -order;

	mov	eax, DWORD PTR _order$[ebp]
	neg	eax
	jmp	$LN1@xmlSchemaC
	jmp	SHORT $LN14@xmlSchemaC
$LN18@xmlSchemaC:

; 3484 : 	    else
; 3485 : 		return(0);

	xor	eax, eax
	jmp	$LN1@xmlSchemaC
$LN14@xmlSchemaC:

; 3486 : 	}
; 3487 :     }
; 3488 :     if (integy == 1) {

	cmp	DWORD PTR _integy$[ebp], 1
	jne	SHORT $LN20@xmlSchemaC

; 3489 : 	if (y->value.decimal.lo == 0) {

	mov	ecx, DWORD PTR _y$[ebp]
	cmp	DWORD PTR [ecx+8], 0
	jne	SHORT $LN20@xmlSchemaC

; 3490 : 	    if (integx != 1)

	cmp	DWORD PTR _integx$[ebp], 1
	je	SHORT $LN22@xmlSchemaC

; 3491 : 		return order;

	mov	eax, DWORD PTR _order$[ebp]
	jmp	$LN1@xmlSchemaC
	jmp	SHORT $LN20@xmlSchemaC
$LN22@xmlSchemaC:

; 3492 : 	    else if (x->value.decimal.lo != 0)

	mov	edx, DWORD PTR _x$[ebp]
	cmp	DWORD PTR [edx+8], 0
	je	SHORT $LN24@xmlSchemaC

; 3493 : 		return order;

	mov	eax, DWORD PTR _order$[ebp]
	jmp	$LN1@xmlSchemaC
	jmp	SHORT $LN20@xmlSchemaC
$LN24@xmlSchemaC:

; 3494 : 	    else
; 3495 : 		return(0);

	xor	eax, eax
	jmp	$LN1@xmlSchemaC
$LN20@xmlSchemaC:

; 3496 : 	}
; 3497 :     }
; 3498 : 
; 3499 :     if (integx > integy)

	mov	eax, DWORD PTR _integx$[ebp]
	cmp	eax, DWORD PTR _integy$[ebp]
	jle	SHORT $LN26@xmlSchemaC

; 3500 : 	return order;

	mov	eax, DWORD PTR _order$[ebp]
	jmp	$LN1@xmlSchemaC
	jmp	SHORT $LN27@xmlSchemaC
$LN26@xmlSchemaC:

; 3501 :     else if (integy > integx)

	mov	ecx, DWORD PTR _integy$[ebp]
	cmp	ecx, DWORD PTR _integx$[ebp]
	jle	SHORT $LN27@xmlSchemaC

; 3502 : 	return -order;

	mov	eax, DWORD PTR _order$[ebp]
	neg	eax
	jmp	$LN1@xmlSchemaC
$LN27@xmlSchemaC:

; 3503 : 
; 3504 :     /*
; 3505 :      * If the number of integral digits is the same for both numbers,
; 3506 :      * then things get a little more complicated.  We need to "normalize"
; 3507 :      * the numbers in order to properly compare them.  To do this, we
; 3508 :      * look at the total length of each number (length => number of
; 3509 :      * significant digits), and divide the "shorter" by 10 (decreasing
; 3510 :      * the length) until they are of equal length.
; 3511 :      */
; 3512 :     dlen = x->value.decimal.total - y->value.decimal.total;

	mov	edx, DWORD PTR _x$[ebp]
	mov	eax, DWORD PTR [edx+24]
	shr	eax, 8
	and	eax, 255				; 000000ffH
	mov	ecx, DWORD PTR _y$[ebp]
	mov	edx, DWORD PTR [ecx+24]
	shr	edx, 8
	and	edx, 255				; 000000ffH
	sub	eax, edx
	mov	DWORD PTR _dlen$[ebp], eax

; 3513 :     if (dlen < 0) {	/* y has more digits than x */

	jns	SHORT $LN29@xmlSchemaC

; 3514 : 	swp = x;

	mov	eax, DWORD PTR _x$[ebp]
	mov	DWORD PTR _swp$[ebp], eax

; 3515 : 	hi = y->value.decimal.hi;

	mov	ecx, DWORD PTR _y$[ebp]
	mov	edx, DWORD PTR [ecx+16]
	mov	DWORD PTR _hi$[ebp], edx

; 3516 : 	mi = y->value.decimal.mi;

	mov	eax, DWORD PTR _y$[ebp]
	mov	ecx, DWORD PTR [eax+12]
	mov	DWORD PTR _mi$[ebp], ecx

; 3517 : 	lo = y->value.decimal.lo;

	mov	edx, DWORD PTR _y$[ebp]
	mov	eax, DWORD PTR [edx+8]
	mov	DWORD PTR _lo$[ebp], eax

; 3518 : 	dlen = -dlen;

	mov	ecx, DWORD PTR _dlen$[ebp]
	neg	ecx
	mov	DWORD PTR _dlen$[ebp], ecx

; 3519 : 	order = -order;

	mov	edx, DWORD PTR _order$[ebp]
	neg	edx
	mov	DWORD PTR _order$[ebp], edx

; 3520 :     } else {		/* x has more digits than y */

	jmp	SHORT $LN2@xmlSchemaC
$LN29@xmlSchemaC:

; 3521 : 	swp = y;

	mov	eax, DWORD PTR _y$[ebp]
	mov	DWORD PTR _swp$[ebp], eax

; 3522 : 	hi = x->value.decimal.hi;

	mov	ecx, DWORD PTR _x$[ebp]
	mov	edx, DWORD PTR [ecx+16]
	mov	DWORD PTR _hi$[ebp], edx

; 3523 : 	mi = x->value.decimal.mi;

	mov	eax, DWORD PTR _x$[ebp]
	mov	ecx, DWORD PTR [eax+12]
	mov	DWORD PTR _mi$[ebp], ecx

; 3524 : 	lo = x->value.decimal.lo;

	mov	edx, DWORD PTR _x$[ebp]
	mov	eax, DWORD PTR [edx+8]
	mov	DWORD PTR _lo$[ebp], eax
$LN2@xmlSchemaC:

; 3525 :     }
; 3526 :     while (dlen > 8) {	/* in effect, right shift by 10**8 */

	cmp	DWORD PTR _dlen$[ebp], 8
	jle	SHORT $LN4@xmlSchemaC

; 3527 : 	lo = mi;

	mov	ecx, DWORD PTR _mi$[ebp]
	mov	DWORD PTR _lo$[ebp], ecx

; 3528 : 	mi = hi;

	mov	edx, DWORD PTR _hi$[ebp]
	mov	DWORD PTR _mi$[ebp], edx

; 3529 : 	hi = 0;

	mov	DWORD PTR _hi$[ebp], 0

; 3530 : 	dlen -= 8;

	mov	eax, DWORD PTR _dlen$[ebp]
	sub	eax, 8
	mov	DWORD PTR _dlen$[ebp], eax

; 3531 :     }

	jmp	SHORT $LN2@xmlSchemaC
$LN4@xmlSchemaC:

; 3532 :     while (dlen > 0) {

	cmp	DWORD PTR _dlen$[ebp], 0
	jle	SHORT $LN5@xmlSchemaC

; 3533 : 	unsigned long rem1, rem2;
; 3534 : 	rem1 = (hi % 10) * 100000000L;

	mov	eax, DWORD PTR _hi$[ebp]
	xor	edx, edx
	mov	ecx, 10					; 0000000aH
	div	ecx
	imul	edx, edx, 100000000
	mov	DWORD PTR _rem1$2[ebp], edx

; 3535 : 	hi = hi / 10;

	mov	eax, DWORD PTR _hi$[ebp]
	xor	edx, edx
	mov	ecx, 10					; 0000000aH
	div	ecx
	mov	DWORD PTR _hi$[ebp], eax

; 3536 : 	rem2 = (mi % 10) * 100000000L;

	mov	eax, DWORD PTR _mi$[ebp]
	xor	edx, edx
	mov	ecx, 10					; 0000000aH
	div	ecx
	imul	edx, edx, 100000000
	mov	DWORD PTR _rem2$1[ebp], edx

; 3537 : 	mi = (mi + rem1) / 10;

	mov	eax, DWORD PTR _mi$[ebp]
	add	eax, DWORD PTR _rem1$2[ebp]
	xor	edx, edx
	mov	ecx, 10					; 0000000aH
	div	ecx
	mov	DWORD PTR _mi$[ebp], eax

; 3538 : 	lo = (lo + rem2) / 10;

	mov	eax, DWORD PTR _lo$[ebp]
	add	eax, DWORD PTR _rem2$1[ebp]
	xor	edx, edx
	mov	ecx, 10					; 0000000aH
	div	ecx
	mov	DWORD PTR _lo$[ebp], eax

; 3539 : 	dlen--;

	mov	edx, DWORD PTR _dlen$[ebp]
	sub	edx, 1
	mov	DWORD PTR _dlen$[ebp], edx

; 3540 :     }

	jmp	SHORT $LN4@xmlSchemaC
$LN5@xmlSchemaC:

; 3541 :     if (hi > swp->value.decimal.hi) {

	mov	eax, DWORD PTR _swp$[ebp]
	mov	ecx, DWORD PTR _hi$[ebp]
	cmp	ecx, DWORD PTR [eax+16]
	jbe	SHORT $LN31@xmlSchemaC

; 3542 : 	return order;

	mov	eax, DWORD PTR _order$[ebp]
	jmp	SHORT $LN1@xmlSchemaC
	jmp	SHORT $LN32@xmlSchemaC
$LN31@xmlSchemaC:

; 3543 :     } else if (hi == swp->value.decimal.hi) {

	mov	edx, DWORD PTR _swp$[ebp]
	mov	eax, DWORD PTR _hi$[ebp]
	cmp	eax, DWORD PTR [edx+16]
	jne	SHORT $LN32@xmlSchemaC

; 3544 : 	if (mi > swp->value.decimal.mi) {

	mov	ecx, DWORD PTR _swp$[ebp]
	mov	edx, DWORD PTR _mi$[ebp]
	cmp	edx, DWORD PTR [ecx+12]
	jbe	SHORT $LN34@xmlSchemaC

; 3545 : 	    return order;

	mov	eax, DWORD PTR _order$[ebp]
	jmp	SHORT $LN1@xmlSchemaC
	jmp	SHORT $LN32@xmlSchemaC
$LN34@xmlSchemaC:

; 3546 : 	} else if (mi == swp->value.decimal.mi) {

	mov	eax, DWORD PTR _swp$[ebp]
	mov	ecx, DWORD PTR _mi$[ebp]
	cmp	ecx, DWORD PTR [eax+12]
	jne	SHORT $LN32@xmlSchemaC

; 3547 : 	    if (lo > swp->value.decimal.lo) {

	mov	edx, DWORD PTR _swp$[ebp]
	mov	eax, DWORD PTR _lo$[ebp]
	cmp	eax, DWORD PTR [edx+8]
	jbe	SHORT $LN37@xmlSchemaC

; 3548 : 		return order;

	mov	eax, DWORD PTR _order$[ebp]
	jmp	SHORT $LN1@xmlSchemaC
	jmp	SHORT $LN32@xmlSchemaC
$LN37@xmlSchemaC:

; 3549 : 	    } else if (lo == swp->value.decimal.lo) {

	mov	ecx, DWORD PTR _swp$[ebp]
	mov	edx, DWORD PTR _lo$[ebp]
	cmp	edx, DWORD PTR [ecx+8]
	jne	SHORT $LN32@xmlSchemaC

; 3550 : 		if (x->value.decimal.total == y->value.decimal.total) {

	mov	eax, DWORD PTR _x$[ebp]
	mov	ecx, DWORD PTR [eax+24]
	shr	ecx, 8
	and	ecx, 255				; 000000ffH
	mov	edx, DWORD PTR _y$[ebp]
	mov	eax, DWORD PTR [edx+24]
	shr	eax, 8
	and	eax, 255				; 000000ffH
	cmp	ecx, eax
	jne	SHORT $LN40@xmlSchemaC

; 3551 : 		    return 0;

	xor	eax, eax
	jmp	SHORT $LN1@xmlSchemaC

; 3552 : 		} else {

	jmp	SHORT $LN32@xmlSchemaC
$LN40@xmlSchemaC:

; 3553 : 		    return order;

	mov	eax, DWORD PTR _order$[ebp]
	jmp	SHORT $LN1@xmlSchemaC
$LN32@xmlSchemaC:

; 3554 : 		}
; 3555 : 	    }
; 3556 : 	}
; 3557 :     }
; 3558 :     return -order;

	mov	eax, DWORD PTR _order$[ebp]
	neg	eax
$LN1@xmlSchemaC:

; 3559 : }

	pop	edi
	add	esp, 40					; 00000028H
	cmp	ebp, esp
	call	__RTC_CheckEsp
	mov	esp, ebp
	pop	ebp
	ret	0
_xmlSchemaCompareDecimals ENDP
_TEXT	ENDS
; Function compile flags: /Odtp /RTCsu
; File c:\users\dag\documents\_clients\codeproject authors group\windows on arm\libxml2\libxml2-2.9.9\xmlschemastypes.c
;	COMDAT _xmlSchemaValAtomicType
_TEXT	SEGMENT
tv1056 = -496						; size = 4
tv1055 = -492						; size = 4
tv526 = -488						; size = 4
tv525 = -484						; size = 4
tv520 = -480						; size = 4
tv519 = -476						; size = 4
tv514 = -472						; size = 4
tv513 = -468						; size = 4
tv508 = -464						; size = 4
tv507 = -460						; size = 4
tv499 = -456						; size = 4
tv498 = -452						; size = 4
tv493 = -448						; size = 4
tv492 = -444						; size = 4
tv487 = -440						; size = 4
tv486 = -436						; size = 4
tv84 = -432						; size = 4
_hi$1 = -424						; size = 4
_mi$2 = -412						; size = 4
_lo$3 = -400						; size = 4
_cur$4 = -388						; size = 4
_sign$5 = -380						; size = 4
_hi$6 = -372						; size = 4
_mi$7 = -360						; size = 4
_lo$8 = -348						; size = 4
_cur$9 = -336						; size = 4
_sign$10 = -328						; size = 4
_hi$11 = -320						; size = 4
_mi$12 = -308						; size = 4
_lo$13 = -296						; size = 4
_cur$14 = -284						; size = 4
_decc$15 = -276						; size = 4
_decc$16 = -272						; size = 4
_decc$17 = -268						; size = 4
_decc$18 = -264						; size = 4
_pad$19 = -260						; size = 4
_i$20 = -256						; size = 4
_total$21 = -252					; size = 4
_base$22 = -248						; size = 4
_cur$23 = -244						; size = 4
_i$24 = -240						; size = 4
_total$25 = -236					; size = 4
_base$26 = -232						; size = 4
_start$27 = -228					; size = 4
_cur$28 = -224						; size = 4
_cur$29 = -220						; size = 4
_tmpval$30 = -216					; size = 4
_uri$31 = -212						; size = 4
_ns$32 = -208						; size = 4
_prefix$33 = -200					; size = 4
_local$34 = -192					; size = 4
_uri$35 = -188						; size = 4
_attr$36 = -184						; size = 4
_attr$37 = -180						; size = 4
_ent$38 = -176						; size = 4
_strip$39 = -172					; size = 4
_attr$40 = -168						; size = 4
_strip$41 = -164					; size = 4
_attr$42 = -160						; size = 4
_strip$43 = -156					; size = 4
_res$44 = -152						; size = 4
_attr$45 = -148						; size = 4
_ns$46 = -144						; size = 4
_prefix$47 = -136					; size = 4
_local$48 = -128					; size = 4
_uri$49 = -124						; size = 4
_end$50 = -120						; size = 4
_start$51 = -116					; size = 4
_cur$52 = -112						; size = 4
_cur$53 = -108						; size = 4
_digits_after$54 = -104					; size = 4
_digits_before$55 = -100				; size = 4
_neg$56 = -96						; size = 4
_cur$57 = -92						; size = 4
_cptr$58 = -84						; size = 4
_cval$59 = -72						; size = 25
_hasLeadingZeroes$60 = -40				; size = 4
_integ$61 = -36						; size = 4
_neg$62 = -32						; size = 4
_len$63 = -28						; size = 4
_cur$64 = -24						; size = 4
_cur$65 = -20						; size = 4
_cur$66 = -16						; size = 4
_ret$ = -12						; size = 4
_norm$ = -8						; size = 4
_v$ = -4						; size = 4
_type$ = 8						; size = 4
_value$ = 12						; size = 4
_val$ = 16						; size = 4
_node$ = 20						; size = 4
_flags$ = 24						; size = 4
_ws$ = 28						; size = 4
_normOnTheFly$ = 32					; size = 4
_applyNorm$ = 36					; size = 4
_createStringValue$ = 40				; size = 4
_xmlSchemaValAtomicType PROC				; COMDAT

; 2147 : {

	push	ebp
	mov	ebp, esp
	sub	esp, 496				; 000001f0H
	push	esi
	push	edi
	lea	edi, DWORD PTR [ebp-496]
	mov	ecx, 124				; 0000007cH
	mov	eax, -858993460				; ccccccccH
	rep stosd
	mov	ecx, OFFSET __74485836_xmlschemastypes@c
	call	@__CheckForDebuggerJustMyCode@4

; 2148 :     xmlSchemaValPtr v;
; 2149 :     xmlChar *norm = NULL;

	mov	DWORD PTR _norm$[ebp], 0

; 2150 :     int ret = 0;

	mov	DWORD PTR _ret$[ebp], 0

; 2151 : 
; 2152 :     if (xmlSchemaTypesInitialized == 0)

	cmp	DWORD PTR _xmlSchemaTypesInitialized, 0
	jne	SHORT $LN74@xmlSchemaV

; 2153 :         xmlSchemaInitTypes();

	call	_xmlSchemaInitTypes
$LN74@xmlSchemaV:

; 2154 :     if (type == NULL)

	cmp	DWORD PTR _type$[ebp], 0
	jne	SHORT $LN75@xmlSchemaV

; 2155 :         return (-1);

	or	eax, -1
	jmp	$LN1@xmlSchemaV
$LN75@xmlSchemaV:

; 2156 : 
; 2157 :     /*
; 2158 :      * validating a non existant text node is similar to validating
; 2159 :      * an empty one.
; 2160 :      */
; 2161 :     if (value == NULL)

	cmp	DWORD PTR _value$[ebp], 0
	jne	SHORT $LN76@xmlSchemaV

; 2162 :         value = BAD_CAST "";

	mov	DWORD PTR _value$[ebp], OFFSET ??_C@_00CNPNBAHC@@
$LN76@xmlSchemaV:

; 2163 : 
; 2164 :     if (val != NULL)

	cmp	DWORD PTR _val$[ebp], 0
	je	SHORT $LN77@xmlSchemaV

; 2165 :         *val = NULL;

	mov	eax, DWORD PTR _val$[ebp]
	mov	DWORD PTR [eax], 0
$LN77@xmlSchemaV:

; 2166 :     if ((flags == 0) && (value != NULL)) {

	cmp	DWORD PTR _flags$[ebp], 0
	jne	SHORT $LN82@xmlSchemaV
	cmp	DWORD PTR _value$[ebp], 0
	je	SHORT $LN82@xmlSchemaV

; 2167 : 
; 2168 :         if ((type->builtInType != XML_SCHEMAS_STRING) &&
; 2169 : 	  (type->builtInType != XML_SCHEMAS_ANYTYPE) &&

	mov	ecx, DWORD PTR _type$[ebp]
	cmp	DWORD PTR [ecx+88], 1
	je	SHORT $LN82@xmlSchemaV
	mov	edx, DWORD PTR _type$[ebp]
	cmp	DWORD PTR [edx+88], 45			; 0000002dH
	je	SHORT $LN82@xmlSchemaV
	mov	eax, DWORD PTR _type$[ebp]
	cmp	DWORD PTR [eax+88], 46			; 0000002eH
	je	SHORT $LN82@xmlSchemaV

; 2170 : 	  (type->builtInType != XML_SCHEMAS_ANYSIMPLETYPE)) {
; 2171 : 	    if (type->builtInType == XML_SCHEMAS_NORMSTRING)

	mov	ecx, DWORD PTR _type$[ebp]
	cmp	DWORD PTR [ecx+88], 2
	jne	SHORT $LN80@xmlSchemaV

; 2172 : 		norm = xmlSchemaWhiteSpaceReplace(value);

	mov	edx, DWORD PTR _value$[ebp]
	push	edx
	call	_xmlSchemaWhiteSpaceReplace
	add	esp, 4
	mov	DWORD PTR _norm$[ebp], eax
	jmp	SHORT $LN81@xmlSchemaV
$LN80@xmlSchemaV:

; 2173 :             else
; 2174 : 		norm = xmlSchemaCollapseString(value);

	mov	eax, DWORD PTR _value$[ebp]
	push	eax
	call	_xmlSchemaCollapseString
	add	esp, 4
	mov	DWORD PTR _norm$[ebp], eax
$LN81@xmlSchemaV:

; 2175 :             if (norm != NULL)

	cmp	DWORD PTR _norm$[ebp], 0
	je	SHORT $LN82@xmlSchemaV

; 2176 :                 value = norm;

	mov	ecx, DWORD PTR _norm$[ebp]
	mov	DWORD PTR _value$[ebp], ecx
$LN82@xmlSchemaV:

; 2177 :         }
; 2178 :     }
; 2179 : 
; 2180 :     switch (type->builtInType) {

	mov	edx, DWORD PTR _type$[ebp]
	mov	eax, DWORD PTR [edx+88]
	mov	DWORD PTR tv84[ebp], eax
	cmp	DWORD PTR tv84[ebp], 46			; 0000002eH
	ja	$done$543
	mov	ecx, DWORD PTR tv84[ebp]
	movzx	edx, BYTE PTR $LN519@xmlSchemaV[ecx]
	jmp	DWORD PTR $LN542@xmlSchemaV[edx*4]
$LN83@xmlSchemaV:

; 2181 :         case XML_SCHEMAS_UNKNOWN:
; 2182 :             goto error;

	jmp	$error$544
$LN84@xmlSchemaV:

; 2183 : 	case XML_SCHEMAS_ANYTYPE:
; 2184 : 	case XML_SCHEMAS_ANYSIMPLETYPE:
; 2185 : 	    if ((createStringValue) && (val != NULL)) {

	cmp	DWORD PTR _createStringValue$[ebp], 0
	je	SHORT $LN87@xmlSchemaV
	cmp	DWORD PTR _val$[ebp], 0
	je	SHORT $LN87@xmlSchemaV

; 2186 : 		v = xmlSchemaNewValue(XML_SCHEMAS_ANYSIMPLETYPE);

	push	46					; 0000002eH
	call	_xmlSchemaNewValue
	add	esp, 4
	mov	DWORD PTR _v$[ebp], eax

; 2187 : 		if (v != NULL) {

	cmp	DWORD PTR _v$[ebp], 0
	je	SHORT $LN86@xmlSchemaV

; 2188 : 		    v->value.str = xmlStrdup(value);

	mov	eax, DWORD PTR _value$[ebp]
	push	eax
	call	_xmlStrdup
	add	esp, 4
	mov	ecx, DWORD PTR _v$[ebp]
	mov	DWORD PTR [ecx+8], eax

; 2189 : 		    *val = v;

	mov	edx, DWORD PTR _val$[ebp]
	mov	eax, DWORD PTR _v$[ebp]
	mov	DWORD PTR [edx], eax

; 2190 : 		} else {

	jmp	SHORT $LN87@xmlSchemaV
$LN86@xmlSchemaV:

; 2191 : 		    goto error;

	jmp	$error$544
$LN87@xmlSchemaV:

; 2192 : 		}
; 2193 : 	    }
; 2194 : 	    goto return0;

	jmp	$return0$545
$LN88@xmlSchemaV:

; 2195 :         case XML_SCHEMAS_STRING:
; 2196 : 	    if (! normOnTheFly) {

	cmp	DWORD PTR _normOnTheFly$[ebp], 0
	jne	$LN7@xmlSchemaV

; 2197 : 		const xmlChar *cur = value;

	mov	ecx, DWORD PTR _value$[ebp]
	mov	DWORD PTR _cur$66[ebp], ecx

; 2198 : 
; 2199 : 		if (ws == XML_SCHEMA_WHITESPACE_REPLACE) {

	cmp	DWORD PTR _ws$[ebp], 2
	jne	SHORT $LN90@xmlSchemaV
$LN4@xmlSchemaV:

; 2200 : 		    while (*cur != 0) {

	mov	edx, DWORD PTR _cur$66[ebp]
	movzx	eax, BYTE PTR [edx]
	test	eax, eax
	je	SHORT $LN5@xmlSchemaV

; 2201 : 			if ((*cur == 0xd) || (*cur == 0xa) || (*cur == 0x9)) {

	mov	ecx, DWORD PTR _cur$66[ebp]
	movzx	edx, BYTE PTR [ecx]
	cmp	edx, 13					; 0000000dH
	je	SHORT $LN94@xmlSchemaV
	mov	eax, DWORD PTR _cur$66[ebp]
	movzx	ecx, BYTE PTR [eax]
	cmp	ecx, 10					; 0000000aH
	je	SHORT $LN94@xmlSchemaV
	mov	edx, DWORD PTR _cur$66[ebp]
	movzx	eax, BYTE PTR [edx]
	cmp	eax, 9
	jne	SHORT $LN92@xmlSchemaV
$LN94@xmlSchemaV:

; 2202 : 			    goto return1;

	jmp	$return1$546

; 2203 : 			} else {

	jmp	SHORT $LN93@xmlSchemaV
$LN92@xmlSchemaV:

; 2204 : 			    cur++;

	mov	ecx, DWORD PTR _cur$66[ebp]
	add	ecx, 1
	mov	DWORD PTR _cur$66[ebp], ecx
$LN93@xmlSchemaV:

; 2205 : 			}
; 2206 : 		    }

	jmp	SHORT $LN4@xmlSchemaV
$LN5@xmlSchemaV:

; 2207 : 		} else if (ws == XML_SCHEMA_WHITESPACE_COLLAPSE) {

	jmp	SHORT $LN7@xmlSchemaV
$LN90@xmlSchemaV:
	cmp	DWORD PTR _ws$[ebp], 3
	jne	SHORT $LN7@xmlSchemaV
$LN6@xmlSchemaV:

; 2208 : 		    while (*cur != 0) {

	mov	edx, DWORD PTR _cur$66[ebp]
	movzx	eax, BYTE PTR [edx]
	test	eax, eax
	je	SHORT $LN7@xmlSchemaV

; 2209 : 			if ((*cur == 0xd) || (*cur == 0xa) || (*cur == 0x9)) {

	mov	ecx, DWORD PTR _cur$66[ebp]
	movzx	edx, BYTE PTR [ecx]
	cmp	edx, 13					; 0000000dH
	je	SHORT $LN98@xmlSchemaV
	mov	eax, DWORD PTR _cur$66[ebp]
	movzx	ecx, BYTE PTR [eax]
	cmp	ecx, 10					; 0000000aH
	je	SHORT $LN98@xmlSchemaV
	mov	edx, DWORD PTR _cur$66[ebp]
	movzx	eax, BYTE PTR [edx]
	cmp	eax, 9
	jne	SHORT $LN96@xmlSchemaV
$LN98@xmlSchemaV:

; 2210 : 			    goto return1;

	jmp	$return1$546
	jmp	SHORT $LN100@xmlSchemaV
$LN96@xmlSchemaV:

; 2211 : 			} else if IS_WSP_SPACE_CH(*cur) {

	mov	ecx, DWORD PTR _cur$66[ebp]
	movzx	edx, BYTE PTR [ecx]
	cmp	edx, 32					; 00000020H
	jne	SHORT $LN99@xmlSchemaV

; 2212 : 			    cur++;

	mov	eax, DWORD PTR _cur$66[ebp]
	add	eax, 1
	mov	DWORD PTR _cur$66[ebp], eax

; 2213 : 			    if IS_WSP_SPACE_CH(*cur)

	mov	ecx, DWORD PTR _cur$66[ebp]
	movzx	edx, BYTE PTR [ecx]
	cmp	edx, 32					; 00000020H
	jne	SHORT $LN101@xmlSchemaV

; 2214 : 				goto return1;

	jmp	$return1$546
$LN101@xmlSchemaV:

; 2215 : 			} else {

	jmp	SHORT $LN100@xmlSchemaV
$LN99@xmlSchemaV:

; 2216 : 			    cur++;

	mov	eax, DWORD PTR _cur$66[ebp]
	add	eax, 1
	mov	DWORD PTR _cur$66[ebp], eax
$LN100@xmlSchemaV:

; 2217 : 			}
; 2218 : 		    }

	jmp	SHORT $LN6@xmlSchemaV
$LN7@xmlSchemaV:

; 2219 : 		}
; 2220 : 	    }
; 2221 : 	    if (createStringValue && (val != NULL)) {

	cmp	DWORD PTR _createStringValue$[ebp], 0
	je	SHORT $LN109@xmlSchemaV
	cmp	DWORD PTR _val$[ebp], 0
	je	SHORT $LN109@xmlSchemaV

; 2222 : 		if (applyNorm) {

	cmp	DWORD PTR _applyNorm$[ebp], 0
	je	SHORT $LN107@xmlSchemaV

; 2223 : 		    if (ws == XML_SCHEMA_WHITESPACE_COLLAPSE)

	cmp	DWORD PTR _ws$[ebp], 3
	jne	SHORT $LN104@xmlSchemaV

; 2224 : 			norm = xmlSchemaCollapseString(value);

	mov	ecx, DWORD PTR _value$[ebp]
	push	ecx
	call	_xmlSchemaCollapseString
	add	esp, 4
	mov	DWORD PTR _norm$[ebp], eax
	jmp	SHORT $LN106@xmlSchemaV
$LN104@xmlSchemaV:

; 2225 : 		    else if (ws == XML_SCHEMA_WHITESPACE_REPLACE)

	cmp	DWORD PTR _ws$[ebp], 2
	jne	SHORT $LN106@xmlSchemaV

; 2226 : 			norm = xmlSchemaWhiteSpaceReplace(value);

	mov	edx, DWORD PTR _value$[ebp]
	push	edx
	call	_xmlSchemaWhiteSpaceReplace
	add	esp, 4
	mov	DWORD PTR _norm$[ebp], eax
$LN106@xmlSchemaV:

; 2227 : 		    if (norm != NULL)

	cmp	DWORD PTR _norm$[ebp], 0
	je	SHORT $LN107@xmlSchemaV

; 2228 : 			value = norm;

	mov	eax, DWORD PTR _norm$[ebp]
	mov	DWORD PTR _value$[ebp], eax
$LN107@xmlSchemaV:

; 2229 : 		}
; 2230 : 		v = xmlSchemaNewValue(XML_SCHEMAS_STRING);

	push	1
	call	_xmlSchemaNewValue
	add	esp, 4
	mov	DWORD PTR _v$[ebp], eax

; 2231 : 		if (v != NULL) {

	cmp	DWORD PTR _v$[ebp], 0
	je	SHORT $LN108@xmlSchemaV

; 2232 : 		    v->value.str = xmlStrdup(value);

	mov	ecx, DWORD PTR _value$[ebp]
	push	ecx
	call	_xmlStrdup
	add	esp, 4
	mov	edx, DWORD PTR _v$[ebp]
	mov	DWORD PTR [edx+8], eax

; 2233 : 		    *val = v;

	mov	eax, DWORD PTR _val$[ebp]
	mov	ecx, DWORD PTR _v$[ebp]
	mov	DWORD PTR [eax], ecx

; 2234 : 		} else {

	jmp	SHORT $LN109@xmlSchemaV
$LN108@xmlSchemaV:

; 2235 : 		    goto error;

	jmp	$error$544
$LN109@xmlSchemaV:

; 2236 : 		}
; 2237 : 	    }
; 2238 :             goto return0;

	jmp	$return0$545
$LN110@xmlSchemaV:

; 2239 :         case XML_SCHEMAS_NORMSTRING:{
; 2240 : 		if (normOnTheFly) {

	cmp	DWORD PTR _normOnTheFly$[ebp], 0
	je	SHORT $LN111@xmlSchemaV

; 2241 : 		    if (applyNorm) {

	cmp	DWORD PTR _applyNorm$[ebp], 0
	je	SHORT $LN116@xmlSchemaV

; 2242 : 			if (ws == XML_SCHEMA_WHITESPACE_COLLAPSE)

	cmp	DWORD PTR _ws$[ebp], 3
	jne	SHORT $LN114@xmlSchemaV

; 2243 : 			    norm = xmlSchemaCollapseString(value);

	mov	edx, DWORD PTR _value$[ebp]
	push	edx
	call	_xmlSchemaCollapseString
	add	esp, 4
	mov	DWORD PTR _norm$[ebp], eax
	jmp	SHORT $LN115@xmlSchemaV
$LN114@xmlSchemaV:

; 2244 : 			else
; 2245 : 			    norm = xmlSchemaWhiteSpaceReplace(value);

	mov	eax, DWORD PTR _value$[ebp]
	push	eax
	call	_xmlSchemaWhiteSpaceReplace
	add	esp, 4
	mov	DWORD PTR _norm$[ebp], eax
$LN115@xmlSchemaV:

; 2246 : 			if (norm != NULL)

	cmp	DWORD PTR _norm$[ebp], 0
	je	SHORT $LN116@xmlSchemaV

; 2247 : 			    value = norm;

	mov	ecx, DWORD PTR _norm$[ebp]
	mov	DWORD PTR _value$[ebp], ecx
$LN116@xmlSchemaV:

; 2248 : 		    }
; 2249 : 		} else {

	jmp	SHORT $LN9@xmlSchemaV
$LN111@xmlSchemaV:

; 2250 : 		    const xmlChar *cur = value;

	mov	edx, DWORD PTR _value$[ebp]
	mov	DWORD PTR _cur$65[ebp], edx
$LN8@xmlSchemaV:

; 2251 : 		    while (*cur != 0) {

	mov	eax, DWORD PTR _cur$65[ebp]
	movzx	ecx, BYTE PTR [eax]
	test	ecx, ecx
	je	SHORT $LN9@xmlSchemaV

; 2252 : 			if ((*cur == 0xd) || (*cur == 0xa) || (*cur == 0x9)) {

	mov	edx, DWORD PTR _cur$65[ebp]
	movzx	eax, BYTE PTR [edx]
	cmp	eax, 13					; 0000000dH
	je	SHORT $LN119@xmlSchemaV
	mov	ecx, DWORD PTR _cur$65[ebp]
	movzx	edx, BYTE PTR [ecx]
	cmp	edx, 10					; 0000000aH
	je	SHORT $LN119@xmlSchemaV
	mov	eax, DWORD PTR _cur$65[ebp]
	movzx	ecx, BYTE PTR [eax]
	cmp	ecx, 9
	jne	SHORT $LN117@xmlSchemaV
$LN119@xmlSchemaV:

; 2253 : 			    goto return1;

	jmp	$return1$546

; 2254 : 			} else {

	jmp	SHORT $LN118@xmlSchemaV
$LN117@xmlSchemaV:

; 2255 : 			    cur++;

	mov	edx, DWORD PTR _cur$65[ebp]
	add	edx, 1
	mov	DWORD PTR _cur$65[ebp], edx
$LN118@xmlSchemaV:

; 2256 : 			}
; 2257 : 		    }

	jmp	SHORT $LN8@xmlSchemaV
$LN9@xmlSchemaV:

; 2258 : 		}
; 2259 :                 if (val != NULL) {

	cmp	DWORD PTR _val$[ebp], 0
	je	SHORT $LN122@xmlSchemaV

; 2260 :                     v = xmlSchemaNewValue(XML_SCHEMAS_NORMSTRING);

	push	2
	call	_xmlSchemaNewValue
	add	esp, 4
	mov	DWORD PTR _v$[ebp], eax

; 2261 :                     if (v != NULL) {

	cmp	DWORD PTR _v$[ebp], 0
	je	SHORT $LN121@xmlSchemaV

; 2262 :                         v->value.str = xmlStrdup(value);

	mov	eax, DWORD PTR _value$[ebp]
	push	eax
	call	_xmlStrdup
	add	esp, 4
	mov	ecx, DWORD PTR _v$[ebp]
	mov	DWORD PTR [ecx+8], eax

; 2263 :                         *val = v;

	mov	edx, DWORD PTR _val$[ebp]
	mov	eax, DWORD PTR _v$[ebp]
	mov	DWORD PTR [edx], eax

; 2264 :                     } else {

	jmp	SHORT $LN122@xmlSchemaV
$LN121@xmlSchemaV:

; 2265 :                         goto error;

	jmp	$error$544
$LN122@xmlSchemaV:

; 2266 :                     }
; 2267 :                 }
; 2268 :                 goto return0;

	jmp	$return0$545
$LN123@xmlSchemaV:

; 2269 :             }
; 2270 :         case XML_SCHEMAS_DECIMAL:{
; 2271 :                 const xmlChar *cur = value;

	mov	ecx, DWORD PTR _value$[ebp]
	mov	DWORD PTR _cur$64[ebp], ecx

; 2272 :                 unsigned int len, neg, integ, hasLeadingZeroes;
; 2273 : 		xmlChar cval[25];
; 2274 : 		xmlChar *cptr = cval;

	lea	edx, DWORD PTR _cval$59[ebp]
	mov	DWORD PTR _cptr$58[ebp], edx

; 2275 : 
; 2276 :                 if ((cur == NULL) || (*cur == 0))

	cmp	DWORD PTR _cur$64[ebp], 0
	je	SHORT $LN125@xmlSchemaV
	mov	eax, DWORD PTR _cur$64[ebp]
	movzx	ecx, BYTE PTR [eax]
	test	ecx, ecx
	jne	SHORT $LN124@xmlSchemaV
$LN125@xmlSchemaV:

; 2277 :                     goto return1;

	jmp	$return1$546
$LN124@xmlSchemaV:

; 2278 : 
; 2279 : 		/*
; 2280 : 		* xs:decimal has a whitespace-facet value of 'collapse'.
; 2281 : 		*/
; 2282 : 		if (normOnTheFly)

	cmp	DWORD PTR _normOnTheFly$[ebp], 0
	je	SHORT $LN11@xmlSchemaV
$LN10@xmlSchemaV:

; 2283 : 		    while IS_WSP_BLANK_CH(*cur) cur++;

	mov	edx, DWORD PTR _cur$64[ebp]
	movzx	eax, BYTE PTR [edx]
	cmp	eax, 32					; 00000020H
	je	SHORT $LN127@xmlSchemaV
	mov	ecx, DWORD PTR _cur$64[ebp]
	movzx	edx, BYTE PTR [ecx]
	cmp	edx, 9
	jl	SHORT $LN128@xmlSchemaV
	mov	eax, DWORD PTR _cur$64[ebp]
	movzx	ecx, BYTE PTR [eax]
	cmp	ecx, 10					; 0000000aH
	jle	SHORT $LN127@xmlSchemaV
$LN128@xmlSchemaV:
	mov	edx, DWORD PTR _cur$64[ebp]
	movzx	eax, BYTE PTR [edx]
	cmp	eax, 13					; 0000000dH
	jne	SHORT $LN11@xmlSchemaV
$LN127@xmlSchemaV:
	mov	ecx, DWORD PTR _cur$64[ebp]
	add	ecx, 1
	mov	DWORD PTR _cur$64[ebp], ecx
	jmp	SHORT $LN10@xmlSchemaV
$LN11@xmlSchemaV:

; 2284 : 
; 2285 : 		/*
; 2286 : 		* First we handle an optional sign.
; 2287 : 		*/
; 2288 : 		neg = 0;

	mov	DWORD PTR _neg$62[ebp], 0

; 2289 :                 if (*cur == '-') {

	mov	edx, DWORD PTR _cur$64[ebp]
	movzx	eax, BYTE PTR [edx]
	cmp	eax, 45					; 0000002dH
	jne	SHORT $LN129@xmlSchemaV

; 2290 : 		    neg = 1;

	mov	DWORD PTR _neg$62[ebp], 1

; 2291 :                     cur++;

	mov	ecx, DWORD PTR _cur$64[ebp]
	add	ecx, 1
	mov	DWORD PTR _cur$64[ebp], ecx
	jmp	SHORT $LN131@xmlSchemaV
$LN129@xmlSchemaV:

; 2292 : 		} else if (*cur == '+')

	mov	edx, DWORD PTR _cur$64[ebp]
	movzx	eax, BYTE PTR [edx]
	cmp	eax, 43					; 0000002bH
	jne	SHORT $LN131@xmlSchemaV

; 2293 :                     cur++;

	mov	ecx, DWORD PTR _cur$64[ebp]
	add	ecx, 1
	mov	DWORD PTR _cur$64[ebp], ecx
$LN131@xmlSchemaV:

; 2294 : 		/*
; 2295 : 		* Disallow: "", "-", "- "
; 2296 : 		*/
; 2297 : 		if (*cur == 0)

	mov	edx, DWORD PTR _cur$64[ebp]
	movzx	eax, BYTE PTR [edx]
	test	eax, eax
	jne	SHORT $LN132@xmlSchemaV

; 2298 : 		    goto return1;

	jmp	$return1$546
$LN132@xmlSchemaV:

; 2299 : 		/*
; 2300 : 		 * Next we "pre-parse" the number, in preparation for calling
; 2301 : 		 * the common routine xmlSchemaParseUInt.  We get rid of any
; 2302 : 		 * leading zeroes (because we have reserved only 25 chars),
; 2303 : 		 * and note the position of a decimal point.
; 2304 : 		 */
; 2305 : 		len = 0;

	mov	DWORD PTR _len$63[ebp], 0

; 2306 : 		integ = ~0u;

	mov	DWORD PTR _integ$61[ebp], -1

; 2307 : 		hasLeadingZeroes = 0;

	mov	DWORD PTR _hasLeadingZeroes$60[ebp], 0
$LN12@xmlSchemaV:

; 2308 : 		/*
; 2309 : 		* Skip leading zeroes.
; 2310 : 		*/
; 2311 : 		while (*cur == '0') {

	mov	ecx, DWORD PTR _cur$64[ebp]
	movzx	edx, BYTE PTR [ecx]
	cmp	edx, 48					; 00000030H
	jne	SHORT $LN13@xmlSchemaV

; 2312 : 		    cur++;

	mov	eax, DWORD PTR _cur$64[ebp]
	add	eax, 1
	mov	DWORD PTR _cur$64[ebp], eax

; 2313 : 		    hasLeadingZeroes = 1;

	mov	DWORD PTR _hasLeadingZeroes$60[ebp], 1

; 2314 : 		}

	jmp	SHORT $LN12@xmlSchemaV
$LN13@xmlSchemaV:

; 2315 : 		if (*cur != 0) {

	mov	ecx, DWORD PTR _cur$64[ebp]
	movzx	edx, BYTE PTR [ecx]
	test	edx, edx
	je	$LN15@xmlSchemaV
$LN16@xmlSchemaV:

; 2316 : 		    do {
; 2317 : 			if ((*cur >= '0') && (*cur <= '9')) {

	mov	eax, DWORD PTR _cur$64[ebp]
	movzx	ecx, BYTE PTR [eax]
	cmp	ecx, 48					; 00000030H
	jl	SHORT $LN134@xmlSchemaV
	mov	edx, DWORD PTR _cur$64[ebp]
	movzx	eax, BYTE PTR [edx]
	cmp	eax, 57					; 00000039H
	jg	SHORT $LN134@xmlSchemaV

; 2318 : 			    *cptr++ = *cur++;

	mov	ecx, DWORD PTR _cptr$58[ebp]
	mov	edx, DWORD PTR _cur$64[ebp]
	mov	al, BYTE PTR [edx]
	mov	BYTE PTR [ecx], al
	mov	ecx, DWORD PTR _cptr$58[ebp]
	add	ecx, 1
	mov	DWORD PTR _cptr$58[ebp], ecx
	mov	edx, DWORD PTR _cur$64[ebp]
	add	edx, 1
	mov	DWORD PTR _cur$64[ebp], edx

; 2319 : 			    len++;

	mov	eax, DWORD PTR _len$63[ebp]
	add	eax, 1
	mov	DWORD PTR _len$63[ebp], eax
	jmp	SHORT $LN137@xmlSchemaV
$LN134@xmlSchemaV:

; 2320 : 			} else if (*cur == '.') {

	mov	ecx, DWORD PTR _cur$64[ebp]
	movzx	edx, BYTE PTR [ecx]
	cmp	edx, 46					; 0000002eH
	jne	SHORT $LN136@xmlSchemaV

; 2321 : 			    cur++;

	mov	eax, DWORD PTR _cur$64[ebp]
	add	eax, 1
	mov	DWORD PTR _cur$64[ebp], eax

; 2322 : 			    integ = len;

	mov	ecx, DWORD PTR _len$63[ebp]
	mov	DWORD PTR _integ$61[ebp], ecx
$LN19@xmlSchemaV:

; 2323 : 			    do {
; 2324 : 				if ((*cur >= '0') && (*cur <= '9')) {

	mov	edx, DWORD PTR _cur$64[ebp]
	movzx	eax, BYTE PTR [edx]
	cmp	eax, 48					; 00000030H
	jl	SHORT $LN138@xmlSchemaV
	mov	ecx, DWORD PTR _cur$64[ebp]
	movzx	edx, BYTE PTR [ecx]
	cmp	edx, 57					; 00000039H
	jg	SHORT $LN138@xmlSchemaV

; 2325 : 				    *cptr++ = *cur++;

	mov	eax, DWORD PTR _cptr$58[ebp]
	mov	ecx, DWORD PTR _cur$64[ebp]
	mov	dl, BYTE PTR [ecx]
	mov	BYTE PTR [eax], dl
	mov	eax, DWORD PTR _cptr$58[ebp]
	add	eax, 1
	mov	DWORD PTR _cptr$58[ebp], eax
	mov	ecx, DWORD PTR _cur$64[ebp]
	add	ecx, 1
	mov	DWORD PTR _cur$64[ebp], ecx

; 2326 : 				    len++;

	mov	edx, DWORD PTR _len$63[ebp]
	add	edx, 1
	mov	DWORD PTR _len$63[ebp], edx

; 2327 : 				} else

	jmp	SHORT $LN139@xmlSchemaV
$LN138@xmlSchemaV:

; 2328 : 				    break;

	jmp	SHORT $LN18@xmlSchemaV
$LN139@xmlSchemaV:

; 2329 : 			    } while (len < 24);

	cmp	DWORD PTR _len$63[ebp], 24		; 00000018H
	jb	SHORT $LN19@xmlSchemaV
$LN18@xmlSchemaV:

; 2330 : 			    /*
; 2331 : 			    * Disallow "." but allow "00."
; 2332 : 			    */
; 2333 : 			    if ((len == 0) && (!hasLeadingZeroes))

	cmp	DWORD PTR _len$63[ebp], 0
	jne	SHORT $LN140@xmlSchemaV
	cmp	DWORD PTR _hasLeadingZeroes$60[ebp], 0
	jne	SHORT $LN140@xmlSchemaV

; 2334 : 				goto return1;

	jmp	$return1$546
$LN140@xmlSchemaV:

; 2335 : 			    break;

	jmp	SHORT $LN15@xmlSchemaV

; 2336 : 			} else

	jmp	SHORT $LN137@xmlSchemaV
$LN136@xmlSchemaV:

; 2337 : 			    break;

	jmp	SHORT $LN15@xmlSchemaV
$LN137@xmlSchemaV:

; 2338 : 		    } while (len < 24);

	cmp	DWORD PTR _len$63[ebp], 24		; 00000018H
	jb	$LN16@xmlSchemaV
$LN15@xmlSchemaV:

; 2339 : 		}
; 2340 : 		if (normOnTheFly)

	cmp	DWORD PTR _normOnTheFly$[ebp], 0
	je	SHORT $LN21@xmlSchemaV
$LN20@xmlSchemaV:

; 2341 : 		    while IS_WSP_BLANK_CH(*cur) cur++;

	mov	eax, DWORD PTR _cur$64[ebp]
	movzx	ecx, BYTE PTR [eax]
	cmp	ecx, 32					; 00000020H
	je	SHORT $LN142@xmlSchemaV
	mov	edx, DWORD PTR _cur$64[ebp]
	movzx	eax, BYTE PTR [edx]
	cmp	eax, 9
	jl	SHORT $LN143@xmlSchemaV
	mov	ecx, DWORD PTR _cur$64[ebp]
	movzx	edx, BYTE PTR [ecx]
	cmp	edx, 10					; 0000000aH
	jle	SHORT $LN142@xmlSchemaV
$LN143@xmlSchemaV:
	mov	eax, DWORD PTR _cur$64[ebp]
	movzx	ecx, BYTE PTR [eax]
	cmp	ecx, 13					; 0000000dH
	jne	SHORT $LN21@xmlSchemaV
$LN142@xmlSchemaV:
	mov	edx, DWORD PTR _cur$64[ebp]
	add	edx, 1
	mov	DWORD PTR _cur$64[ebp], edx
	jmp	SHORT $LN20@xmlSchemaV
$LN21@xmlSchemaV:

; 2342 : 		if (*cur != 0)

	mov	eax, DWORD PTR _cur$64[ebp]
	movzx	ecx, BYTE PTR [eax]
	test	ecx, ecx
	je	SHORT $LN144@xmlSchemaV

; 2343 : 		    goto return1; /* error if any extraneous chars */

	jmp	$return1$546
$LN144@xmlSchemaV:

; 2344 :                 if (val != NULL) {

	cmp	DWORD PTR _val$[ebp], 0
	je	$LN146@xmlSchemaV

; 2345 :                     v = xmlSchemaNewValue(XML_SCHEMAS_DECIMAL);

	push	3
	call	_xmlSchemaNewValue
	add	esp, 4
	mov	DWORD PTR _v$[ebp], eax

; 2346 :                     if (v != NULL) {

	cmp	DWORD PTR _v$[ebp], 0
	je	$LN146@xmlSchemaV

; 2347 : 			/*
; 2348 : 			* Now evaluate the significant digits of the number
; 2349 : 			*/
; 2350 : 			if (len != 0) {

	cmp	DWORD PTR _len$63[ebp], 0
	je	SHORT $LN149@xmlSchemaV

; 2351 : 
; 2352 : 			    if (integ != ~0u) {

	cmp	DWORD PTR _integ$61[ebp], -1
	je	SHORT $LN23@xmlSchemaV
$LN22@xmlSchemaV:

; 2353 : 				/*
; 2354 : 				* Get rid of trailing zeroes in the
; 2355 : 				* fractional part.
; 2356 : 				*/
; 2357 : 				while ((len != integ) && (*(cptr-1) == '0')) {

	mov	edx, DWORD PTR _len$63[ebp]
	cmp	edx, DWORD PTR _integ$61[ebp]
	je	SHORT $LN23@xmlSchemaV
	mov	eax, DWORD PTR _cptr$58[ebp]
	movzx	ecx, BYTE PTR [eax-1]
	cmp	ecx, 48					; 00000030H
	jne	SHORT $LN23@xmlSchemaV

; 2358 : 				    cptr--;

	mov	edx, DWORD PTR _cptr$58[ebp]
	sub	edx, 1
	mov	DWORD PTR _cptr$58[ebp], edx

; 2359 : 				    len--;

	mov	eax, DWORD PTR _len$63[ebp]
	sub	eax, 1
	mov	DWORD PTR _len$63[ebp], eax

; 2360 : 				}

	jmp	SHORT $LN22@xmlSchemaV
$LN23@xmlSchemaV:

; 2361 : 			    }
; 2362 : 			    /*
; 2363 : 			    * Terminate the (preparsed) string.
; 2364 : 			    */
; 2365 : 			    if (len != 0) {

	cmp	DWORD PTR _len$63[ebp], 0
	je	SHORT $LN149@xmlSchemaV

; 2366 : 				*cptr = 0;

	mov	ecx, DWORD PTR _cptr$58[ebp]
	mov	BYTE PTR [ecx], 0

; 2367 : 				cptr = cval;

	lea	edx, DWORD PTR _cval$59[ebp]
	mov	DWORD PTR _cptr$58[ebp], edx

; 2368 : 
; 2369 : 				xmlSchemaParseUInt((const xmlChar **)&cptr,

	mov	eax, DWORD PTR _v$[ebp]
	add	eax, 16					; 00000010H
	push	eax
	mov	ecx, DWORD PTR _v$[ebp]
	add	ecx, 12					; 0000000cH
	push	ecx
	mov	edx, DWORD PTR _v$[ebp]
	add	edx, 8
	push	edx
	lea	eax, DWORD PTR _cptr$58[ebp]
	push	eax
	call	_xmlSchemaParseUInt
	add	esp, 16					; 00000010H
$LN149@xmlSchemaV:

; 2370 : 				    &v->value.decimal.lo,
; 2371 : 				    &v->value.decimal.mi,
; 2372 : 				    &v->value.decimal.hi);
; 2373 : 			    }
; 2374 : 			}
; 2375 : 			/*
; 2376 : 			* Set the total digits to 1 if a zero value.
; 2377 : 			*/
; 2378 :                         v->value.decimal.sign = neg;

	mov	ecx, DWORD PTR _neg$62[ebp]
	and	ecx, 1
	mov	edx, DWORD PTR _v$[ebp]
	mov	eax, DWORD PTR [edx+24]
	and	eax, -2					; fffffffeH
	or	eax, ecx
	mov	ecx, DWORD PTR _v$[ebp]
	mov	DWORD PTR [ecx+24], eax

; 2379 : 			if (len == 0) {

	cmp	DWORD PTR _len$63[ebp], 0
	jne	SHORT $LN150@xmlSchemaV

; 2380 : 			    /* Speedup for zero values. */
; 2381 : 			    v->value.decimal.total = 1;

	mov	edx, DWORD PTR _v$[ebp]
	mov	eax, DWORD PTR [edx+24]
	and	eax, -65281				; ffff00ffH
	or	eax, 256				; 00000100H
	mov	ecx, DWORD PTR _v$[ebp]
	mov	DWORD PTR [ecx+24], eax

; 2382 : 			} else {

	jmp	SHORT $LN153@xmlSchemaV
$LN150@xmlSchemaV:

; 2383 : 			    v->value.decimal.total = len;

	mov	edx, DWORD PTR _len$63[ebp]
	and	edx, 255				; 000000ffH
	shl	edx, 8
	mov	eax, DWORD PTR _v$[ebp]
	mov	ecx, DWORD PTR [eax+24]
	and	ecx, -65281				; ffff00ffH
	or	ecx, edx
	mov	edx, DWORD PTR _v$[ebp]
	mov	DWORD PTR [edx+24], ecx

; 2384 : 			    if (integ == ~0u)

	cmp	DWORD PTR _integ$61[ebp], -1
	jne	SHORT $LN152@xmlSchemaV

; 2385 : 				v->value.decimal.frac = 0;

	mov	eax, DWORD PTR _v$[ebp]
	mov	ecx, DWORD PTR [eax+24]
	and	ecx, -255				; ffffff01H
	mov	edx, DWORD PTR _v$[ebp]
	mov	DWORD PTR [edx+24], ecx
	jmp	SHORT $LN153@xmlSchemaV
$LN152@xmlSchemaV:

; 2386 : 			    else
; 2387 : 				v->value.decimal.frac = len - integ;

	mov	eax, DWORD PTR _len$63[ebp]
	sub	eax, DWORD PTR _integ$61[ebp]
	and	eax, 127				; 0000007fH
	shl	eax, 1
	mov	ecx, DWORD PTR _v$[ebp]
	mov	edx, DWORD PTR [ecx+24]
	and	edx, -255				; ffffff01H
	or	edx, eax
	mov	eax, DWORD PTR _v$[ebp]
	mov	DWORD PTR [eax+24], edx
$LN153@xmlSchemaV:

; 2388 : 			}
; 2389 :                         *val = v;

	mov	ecx, DWORD PTR _val$[ebp]
	mov	edx, DWORD PTR _v$[ebp]
	mov	DWORD PTR [ecx], edx
$LN146@xmlSchemaV:

; 2390 :                     }
; 2391 :                 }
; 2392 :                 goto return0;

	jmp	$return0$545
$LN154@xmlSchemaV:

; 2393 :             }
; 2394 :         case XML_SCHEMAS_TIME:
; 2395 :         case XML_SCHEMAS_GDAY:
; 2396 :         case XML_SCHEMAS_GMONTH:
; 2397 :         case XML_SCHEMAS_GMONTHDAY:
; 2398 :         case XML_SCHEMAS_GYEAR:
; 2399 :         case XML_SCHEMAS_GYEARMONTH:
; 2400 :         case XML_SCHEMAS_DATE:
; 2401 :         case XML_SCHEMAS_DATETIME:
; 2402 :             ret = xmlSchemaValidateDates(type->builtInType, value, val,

	mov	eax, DWORD PTR _normOnTheFly$[ebp]
	push	eax
	mov	ecx, DWORD PTR _val$[ebp]
	push	ecx
	mov	edx, DWORD PTR _value$[ebp]
	push	edx
	mov	eax, DWORD PTR _type$[ebp]
	mov	ecx, DWORD PTR [eax+88]
	push	ecx
	call	_xmlSchemaValidateDates
	add	esp, 16					; 00000010H
	mov	DWORD PTR _ret$[ebp], eax

; 2403 : 		normOnTheFly);
; 2404 :             break;

	jmp	$done$543
$LN155@xmlSchemaV:

; 2405 :         case XML_SCHEMAS_DURATION:
; 2406 :             ret = xmlSchemaValidateDuration(type, value, val,

	mov	edx, DWORD PTR _normOnTheFly$[ebp]
	push	edx
	mov	eax, DWORD PTR _val$[ebp]
	push	eax
	mov	ecx, DWORD PTR _value$[ebp]
	push	ecx
	mov	edx, DWORD PTR _type$[ebp]
	push	edx
	call	_xmlSchemaValidateDuration
	add	esp, 16					; 00000010H
	mov	DWORD PTR _ret$[ebp], eax

; 2407 : 		normOnTheFly);
; 2408 :             break;

	jmp	$done$543
$LN156@xmlSchemaV:

; 2409 :         case XML_SCHEMAS_FLOAT:
; 2410 :         case XML_SCHEMAS_DOUBLE: {
; 2411 :                 const xmlChar *cur = value;

	mov	eax, DWORD PTR _value$[ebp]
	mov	DWORD PTR _cur$57[ebp], eax

; 2412 :                 int neg = 0;

	mov	DWORD PTR _neg$56[ebp], 0

; 2413 :                 int digits_before = 0;

	mov	DWORD PTR _digits_before$55[ebp], 0

; 2414 :                 int digits_after = 0;

	mov	DWORD PTR _digits_after$54[ebp], 0

; 2415 : 
; 2416 : 		if (normOnTheFly)

	cmp	DWORD PTR _normOnTheFly$[ebp], 0
	je	SHORT $LN25@xmlSchemaV
$LN24@xmlSchemaV:

; 2417 : 		    while IS_WSP_BLANK_CH(*cur) cur++;

	mov	ecx, DWORD PTR _cur$57[ebp]
	movzx	edx, BYTE PTR [ecx]
	cmp	edx, 32					; 00000020H
	je	SHORT $LN158@xmlSchemaV
	mov	eax, DWORD PTR _cur$57[ebp]
	movzx	ecx, BYTE PTR [eax]
	cmp	ecx, 9
	jl	SHORT $LN159@xmlSchemaV
	mov	edx, DWORD PTR _cur$57[ebp]
	movzx	eax, BYTE PTR [edx]
	cmp	eax, 10					; 0000000aH
	jle	SHORT $LN158@xmlSchemaV
$LN159@xmlSchemaV:
	mov	ecx, DWORD PTR _cur$57[ebp]
	movzx	edx, BYTE PTR [ecx]
	cmp	edx, 13					; 0000000dH
	jne	SHORT $LN25@xmlSchemaV
$LN158@xmlSchemaV:
	mov	eax, DWORD PTR _cur$57[ebp]
	add	eax, 1
	mov	DWORD PTR _cur$57[ebp], eax
	jmp	SHORT $LN24@xmlSchemaV
$LN25@xmlSchemaV:

; 2418 : 
; 2419 :                 if ((cur[0] == 'N') && (cur[1] == 'a') && (cur[2] == 'N')) {

	mov	ecx, 1
	imul	edx, ecx, 0
	mov	eax, DWORD PTR _cur$57[ebp]
	movzx	ecx, BYTE PTR [eax+edx]
	cmp	ecx, 78					; 0000004eH
	jne	$LN160@xmlSchemaV
	mov	edx, 1
	shl	edx, 0
	mov	eax, DWORD PTR _cur$57[ebp]
	movzx	ecx, BYTE PTR [eax+edx]
	cmp	ecx, 97					; 00000061H
	jne	$LN160@xmlSchemaV
	mov	edx, 1
	shl	edx, 1
	mov	eax, DWORD PTR _cur$57[ebp]
	movzx	ecx, BYTE PTR [eax+edx]
	cmp	ecx, 78					; 0000004eH
	jne	$LN160@xmlSchemaV

; 2420 :                     cur += 3;

	mov	edx, DWORD PTR _cur$57[ebp]
	add	edx, 3
	mov	DWORD PTR _cur$57[ebp], edx

; 2421 :                     if (*cur != 0)

	mov	eax, DWORD PTR _cur$57[ebp]
	movzx	ecx, BYTE PTR [eax]
	test	ecx, ecx
	je	SHORT $LN161@xmlSchemaV

; 2422 :                         goto return1;

	jmp	$return1$546
$LN161@xmlSchemaV:

; 2423 :                     if (val != NULL) {

	cmp	DWORD PTR _val$[ebp], 0
	je	$LN162@xmlSchemaV

; 2424 :                         if (type == xmlSchemaTypeFloatDef) {

	mov	edx, DWORD PTR _type$[ebp]
