; Listing generated by Microsoft (R) Optimizing Compiler Version 19.16.27027.1 

	TITLE	C:\Users\DAG\Documents\_Clients\CodeProject Authors Group\Windows on ARM\libxml2\libxml2-2.9.9\xmlschemas.c
	.686P
	.XMM
	include listing.inc
	.model	flat

INCLUDELIB MSVCRTD
INCLUDELIB OLDNAMES

PUBLIC	??_C@_0CB@PJCCKICC@http?3?1?1www?4w3?4org?12001?1XMLSchem@ ; `string'
PUBLIC	??_C@_0CK@FAJBIKFJ@http?3?1?1www?4w3?4org?12001?1XMLSchem@ ; `string'
PUBLIC	??_C@_0BO@GBJIDPIB@http?3?1?1www?4w3?4org?12000?1xmlns?1@ ; `string'
_DATA	SEGMENT
COMM	_xmlMalloc:DWORD
COMM	_xmlMallocAtomic:DWORD
COMM	_xmlRealloc:DWORD
COMM	_xmlFree:DWORD
COMM	_xmlMemStrdup:DWORD
COMM	_xmlIsBaseCharGroup:BYTE:010H
COMM	_xmlIsCharGroup:BYTE:010H
COMM	_xmlIsCombiningGroup:BYTE:010H
COMM	_xmlIsDigitGroup:BYTE:010H
COMM	_xmlIsExtenderGroup:BYTE:010H
COMM	_xmlIsIdeographicGroup:BYTE:010H
COMM	_xmlIsPubidChar_tab:BYTE:0100H
COMM	_xmlParserMaxDepth:DWORD
COMM	_forbiddenExp:DWORD
COMM	_emptyExp:DWORD
_DATA	ENDS
;	COMDAT ??_C@_0BO@GBJIDPIB@http?3?1?1www?4w3?4org?12000?1xmlns?1@
CONST	SEGMENT
??_C@_0BO@GBJIDPIB@http?3?1?1www?4w3?4org?12000?1xmlns?1@ DB 'http://www.'
	DB	'w3.org/2000/xmlns/', 00H			; `string'
CONST	ENDS
;	COMDAT ??_C@_0CK@FAJBIKFJ@http?3?1?1www?4w3?4org?12001?1XMLSchem@
CONST	SEGMENT
??_C@_0CK@FAJBIKFJ@http?3?1?1www?4w3?4org?12001?1XMLSchem@ DB 'http://www'
	DB	'.w3.org/2001/XMLSchema-instance', 00H	; `string'
CONST	ENDS
;	COMDAT ??_C@_0CB@PJCCKICC@http?3?1?1www?4w3?4org?12001?1XMLSchem@
CONST	SEGMENT
??_C@_0CB@PJCCKICC@http?3?1?1www?4w3?4org?12001?1XMLSchem@ DB 'http://www'
	DB	'.w3.org/2001/XMLSchema', 00H		; `string'
CONST	ENDS
msvcjmc	SEGMENT
__188180DA_corecrt_math@h DB 01H
__2CC6E67D_corecrt_stdio_config@h DB 01H
__05476D76_corecrt_wstdio@h DB 01H
__A452D4A0_stdio@h DB 01H
__4384A2D9_corecrt_memcpy_s@h DB 01H
__4E51A221_corecrt_wstring@h DB 01H
__2140C079_string@h DB 01H
__7C094509_xmlschemas@c DB 01H
msvcjmc	ENDS
PUBLIC	___local_stdio_printf_options
PUBLIC	_fprintf
PUBLIC	_snprintf
PUBLIC	_xmlSchemaNewParserCtxt
PUBLIC	_xmlSchemaNewMemParserCtxt
PUBLIC	_xmlSchemaNewDocParserCtxt
PUBLIC	_xmlSchemaFreeParserCtxt
PUBLIC	_xmlSchemaSetParserErrors
PUBLIC	_xmlSchemaSetParserStructuredErrors
PUBLIC	_xmlSchemaGetParserErrors
PUBLIC	_xmlSchemaIsValid
PUBLIC	_xmlSchemaParse
PUBLIC	_xmlSchemaFree
PUBLIC	_xmlSchemaDump
PUBLIC	_xmlSchemaSetValidErrors
PUBLIC	_xmlSchemaSetValidStructuredErrors
PUBLIC	_xmlSchemaGetValidErrors
PUBLIC	_xmlSchemaSetValidOptions
PUBLIC	_xmlSchemaValidateSetFilename
PUBLIC	_xmlSchemaValidCtxtGetOptions
PUBLIC	_xmlSchemaNewValidCtxt
PUBLIC	_xmlSchemaFreeValidCtxt
PUBLIC	_xmlSchemaValidateDoc
PUBLIC	_xmlSchemaValidateOneElement
PUBLIC	_xmlSchemaValidateStream
PUBLIC	_xmlSchemaValidateFile
PUBLIC	_xmlSchemaValidCtxtGetParserCtxt
PUBLIC	_xmlSchemaSAXPlug
PUBLIC	_xmlSchemaSAXUnplug
PUBLIC	_xmlSchemaValidateSetLocator
PUBLIC	_xmlSchemaFreeType
PUBLIC	_xmlSchemaFreeWildcard
PUBLIC	_xmlSchemaNewFacet
PUBLIC	_xmlSchemaCheckFacet
PUBLIC	_xmlSchemaFreeFacet
PUBLIC	__JustMyCode_Default
PUBLIC	??_C@_0BH@BIKOCJPH@simple?5type?5definition@	; `string'
PUBLIC	??_C@_0BI@MHGDJJNC@complex?5type?5definition@	; `string'
PUBLIC	??_C@_0BE@GNKEMAII@element?5declaration@	; `string'
PUBLIC	??_C@_0O@OMANOKDA@attribute?5use@		; `string'
PUBLIC	??_C@_0BG@EDIHLHKC@attribute?5declaration@	; `string'
PUBLIC	??_C@_0BH@MMBLGEHA@model?5group?5definition@	; `string'
PUBLIC	??_C@_0BL@LEHHANJP@attribute?5group?5definition@ ; `string'
PUBLIC	??_C@_0BF@JHGFINH@notation?5declaration@	; `string'
PUBLIC	??_C@_0BH@EJHDDDLA@model?5group?5?$CIsequence?$CJ@ ; `string'
PUBLIC	??_C@_0BF@DBPJFANL@model?5group?5?$CIchoice?$CJ@ ; `string'
PUBLIC	??_C@_0BC@IIBLBPCH@model?5group?5?$CIall?$CJ@	; `string'
PUBLIC	??_C@_08PKKGOGAD@particle@			; `string'
PUBLIC	??_C@_0BL@NFCPOJDK@unique?5identity?9constraint@ ; `string'
PUBLIC	??_C@_0BI@LJCGFAMF@key?5identity?9constraint@	; `string'
PUBLIC	??_C@_0BL@GKPNKMCM@keyref?5identity?9constraint@ ; `string'
PUBLIC	??_C@_0P@BBIPBLEO@wildcard?5?$CIany?$CJ@	; `string'
PUBLIC	??_C@_0CD@GEFKFDJJ@?$FLhelper?5component?$FN?5QName?5refere@ ; `string'
PUBLIC	??_C@_0CN@OAJJPDIM@?$FLhelper?5component?$FN?5attribute?5us@ ; `string'
PUBLIC	??_C@_0BH@CAFJLKIN@Not?5a?5schema?5component@	; `string'
PUBLIC	??_C@_01HCONENDN@?$HL@				; `string'
PUBLIC	??_C@_01CELHOKLL@?$HN@				; `string'
PUBLIC	??_C@_06LHGEHABH@?$CINULL?$CJ@			; `string'
PUBLIC	??_C@_02OCDGNCGI@?5?8@				; `string'
PUBLIC	??_C@_01GEODFPGF@?8@				; `string'
PUBLIC	??_C@_04DLBGLKG@skip@				; `string'
PUBLIC	??_C@_03BLIDKLB@lax@				; `string'
PUBLIC	??_C@_06OLFOGHEN@strict@			; `string'
PUBLIC	??_C@_0BJ@IEOMLCDH@invalid?5process?5contents@	; `string'
PUBLIC	??_C@_00CNPNBAHC@@				; `string'
PUBLIC	??_C@_01CLKCMJKC@?5@				; `string'
PUBLIC	??_C@_0BB@MLAHCBJL@atomic?5type?5?8xs?3@	; `string'
PUBLIC	??_C@_0P@NECGJBPP@list?5type?5?8xs?3@		; `string'
PUBLIC	??_C@_0BA@CKGFBMGP@union?5type?5?8xs?3@		; `string'
PUBLIC	??_C@_0BB@GMNLLPLD@simple?5type?5?8xs?3@	; `string'
PUBLIC	??_C@_06FOGGDAIC@local?5@			; `string'
PUBLIC	??_C@_0M@NAKOLHPN@atomic?5type@			; `string'
PUBLIC	??_C@_09EMCEHNFO@list?5type@			; `string'
PUBLIC	??_C@_0L@KHBDGNKM@union?5type@			; `string'
PUBLIC	??_C@_0M@CHKFADBH@simple?5type@			; `string'
PUBLIC	??_C@_0N@NIBELLIN@complex?5type@		; `string'
PUBLIC	??_C@_0P@LDLBBJOE@attribute?5use?5@		; `string'
PUBLIC	??_C@_09GPGAJHPD@?$CIunknown?$CJ@		; `string'
PUBLIC	??_C@_0BA@NHBCAGDA@attribute?5decl?4@		; `string'
PUBLIC	??_C@_0O@HMOECBPO@element?5decl?4@		; `string'
PUBLIC	??_C@_08GHLBJEBL@unique?5?8@			; `string'
PUBLIC	??_C@_05IJGDECGL@key?5?8@			; `string'
PUBLIC	??_C@_08MKGKMCJE@keyRef?5?8@			; `string'
PUBLIC	??_C@_09NMNBGFGO@?5wildcard@			; `string'
PUBLIC	??_C@_07HIPPIIHM@facet?5?8@			; `string'
PUBLIC	??_C@_0BB@IMEONDPK@model?5group?5def?4@		; `string'
PUBLIC	??_C@_09NEDFDOKM@Element?5?8@			; `string'
PUBLIC	??_C@_0O@MMBACEAK@?0?5attribute?5?8@		; `string'
PUBLIC	??_C@_0CN@FICFNABL@compute?5the?5canonical?5lexical?5r@ ; `string'
PUBLIC	??_C@_0BM@OEBNECHE@xmlSchemaFormatFacetEnumSet@	; `string'
PUBLIC	??_C@_03NGNHMEOA@?0?5?8@			; `string'
PUBLIC	??_C@_0GM@IJCDLDON@c?3?2users?2dag?2documents?2_clients@ ; `string'
PUBLIC	??_C@_0BO@MDEMDPPE@Unimplemented?5block?5at?5?$CFs?3?$CFd?6@ ; `string'
PUBLIC	??_C@_03EHINCMEC@?8?0?5@			; `string'
PUBLIC	??_C@_0M@DCJBDJKC@attribute?5?8@		; `string'
PUBLIC	??_C@_03FPCGPDIA@?8?3?5@			; `string'
PUBLIC	??_C@_0BF@EFOKBLAL@Internal?5error?3?5?$CFs?0?5@ ; `string'
PUBLIC	??_C@_02MIICKFIN@?4?6@				; `string'
PUBLIC	??_C@_02LMMGGCAJ@?3?5@				; `string'
PUBLIC	??_C@_0P@KFJAHJM@Element?5?8?$CFs?8?3?5@	; `string'
PUBLIC	??_C@_0BO@ONHLDAAN@?8?$CFs?8?5is?5not?5a?5valid?5value?5of?5@ ; `string'
PUBLIC	??_C@_0CP@NNGHIIKI@The?5character?5content?5is?5not?5a?5@ ; `string'
PUBLIC	??_C@_0L@MLMEJNFI@the?5local?5@			; `string'
PUBLIC	??_C@_04BAIFLMGI@the?5@				; `string'
PUBLIC	??_C@_03DCOKAOA@xs?3@				; `string'
PUBLIC	??_C@_0CE@FELNOPMA@The?5attribute?5?8?$CFs?8?5is?5not?5allow@ ; `string'
PUBLIC	??_C@_01LFCBOECM@?4@				; `string'
PUBLIC	??_C@_0BH@JGKEPFCF@?5Expected?5is?5one?5of?5?$CI?5@ ; `string'
PUBLIC	??_C@_0BA@HCJBOGK@?5Expected?5is?5?$CI?5@	; `string'
PUBLIC	??_C@_07ELAGFAPB@?$CD?$CDother@			; `string'
PUBLIC	??_C@_01NBENCBCI@?$CK@				; `string'
PUBLIC	??_C@_03MNMOMDPD@?$HL?$CK?$HN@			; `string'
PUBLIC	??_C@_09OEHCBIBE@?$HL?$CD?$CDother?3@		; `string'
PUBLIC	??_C@_02KEGNLNML@?0?5@				; `string'
PUBLIC	??_C@_04ONBKEEDC@?5?$CJ?4?6@			; `string'
PUBLIC	??_C@_01EEMJAFIK@?6@				; `string'
PUBLIC	??_C@_01OHGJGJJP@?$FL@				; `string'
PUBLIC	??_C@_03BCLOCOCF@?8?$FN?5@			; `string'
PUBLIC	??_C@_0CG@GNANNDNL@The?5value?5?8?$CFs?8?5has?5a?5length?5of?5@ ; `string'
PUBLIC	??_C@_0CB@KPGCMBDK@The?5value?5has?5a?5length?5of?5?8?$CFs?8?$DL@ ; `string'
PUBLIC	??_C@_03FKNCMABI@?$CFlu@			; `string'
PUBLIC	??_C@_0CP@IEDJOHDN@this?5differs?5from?5the?5allowed?5l@ ; `string'
PUBLIC	??_C@_0DC@OJNJPCCF@this?5exceeds?5the?5allowed?5maximu@ ; `string'
PUBLIC	??_C@_0DE@PEKKBPHG@this?5underruns?5the?5allowed?5mini@ ; `string'
PUBLIC	??_C@_0DD@DOBLIGCG@The?5value?5?8?$CFs?8?5is?5not?5an?5elemen@ ; `string'
PUBLIC	??_C@_0DF@NEKJCLEF@The?5value?5?8?$CFs?8?5is?5not?5accepted?5@ ; `string'
PUBLIC	??_C@_0DP@JKCFEDLM@The?5value?5?8?$CFs?8?5is?5less?5than?5the@ ; `string'
PUBLIC	??_C@_0EC@ODIEFLC@The?5value?5?8?$CFs?8?5is?5greater?5than?5@ ; `string'
PUBLIC	??_C@_0CL@CEDGHCDN@The?5value?5?8?$CFs?8?5must?5be?5greater?5@ ; `string'
PUBLIC	??_C@_0CI@DMBEGLJK@The?5value?5?8?$CFs?8?5must?5be?5less?5tha@ ; `string'
PUBLIC	??_C@_0DJ@CHBCAGLC@The?5value?5?8?$CFs?8?5has?5more?5digits?5@ ; `string'
PUBLIC	??_C@_0EE@PPGDNELD@The?5value?5?8?$CFs?8?5has?5more?5fractio@ ; `string'
PUBLIC	??_C@_0CE@HKFPHOBG@The?5value?5?8?$CFs?8?5is?5not?5facet?9val@ ; `string'
PUBLIC	??_C@_0BP@CKLMMNCB@The?5value?5is?5not?5facet?9valid?4?6@ ; `string'
PUBLIC	??_C@_08EAGHGJIC@?$CFs?3?5?$CFs?4?6@		; `string'
PUBLIC	??_C@_0DB@LLELCGPM@?$CFs?3?5The?5attribute?5?8?$CFs?8?5is?5requi@ ; `string'
PUBLIC	??_C@_0EH@GOOOKJLI@?$CFs?0?5attribute?5?8?$CFs?8?3?5The?5QName?5v@ ; `string'
PUBLIC	??_C@_07NBCGADJA@Unknown@			; `string'
PUBLIC	??_C@_0BJ@EDCPEHIM@?$CFs?0?5attribute?5?8?$CFs?8?3?5?$CFs?4?6@ ; `string'
PUBLIC	??_C@_0CG@GPHLIIIG@?$CFsThe?5attribute?5?8?$CFs?8?5is?5not?5all@ ; `string'
PUBLIC	??_C@_04PFAOODAA@?$CFs?3?5@			; `string'
PUBLIC	??_C@_0EG@LINCPIFE@?$CFs?3?5The?5facet?5?8?$CFs?8?5is?5not?5allow@ ; `string'
PUBLIC	??_C@_0CE@OEIFIFDF@?$CFs?3?5The?5facet?5?8?$CFs?8?5is?5not?5allow@ ; `string'
PUBLIC	??_C@_0DK@HPMJEOHA@?$CFs?3?5The?5attributes?5?8?$CFs?8?5and?5?8?$CFs@ ; `string'
PUBLIC	??_C@_02DGLLHPKE@?8?4@				; `string'
PUBLIC	??_C@_0BN@HAAPLFMH@The?5value?5?8?$CFs?8?5is?5not?5valid?4@ ; `string'
PUBLIC	??_C@_0CE@BMFBGFDE@The?5character?5content?5is?5not?5va@ ; `string'
PUBLIC	??_C@_0P@PICMEPAD@?5Expected?5is?5?8@		; `string'
PUBLIC	??_C@_03CLGCDEAE@?8?4?6@			; `string'
PUBLIC	??_C@_0CP@OEFNIPAD@?$CFs?3?5The?5content?5is?5not?5valid?4?5E@ ; `string'
PUBLIC	??_C@_0BP@IENIKLPP@?$CFs?3?5The?5content?5is?5not?5valid?4?6@ ; `string'
PUBLIC	??_C@_0BC@BFLACGOA@allocating?5schema@		; `string'
PUBLIC	??_C@_0BG@ICNGEPGO@allocating?5annotation@	; `string'
PUBLIC	??_C@_0CC@BAFOADOL@allocating?5an?5item?5list?5structu@ ; `string'
PUBLIC	??_C@_0BJ@JABJNCPJ@allocating?5new?5item?5list@	; `string'
PUBLIC	??_C@_0BC@PKMEEMHP@growing?5item?5list@		; `string'
PUBLIC	??_C@_0DH@PONCBEFB@Internal?5error?3?5xmlSchemaItemLi@ ; `string'
PUBLIC	??_C@_0BO@PGEEMOLL@no?5main?5schema?5on?5constructor@ ; `string'
PUBLIC	??_C@_0BG@KOPDJPPO@xmlSchemaBucketCreate@	; `string'
PUBLIC	??_C@_0BJ@CMBPIEML@allocating?5schema?5bucket@	; `string'
PUBLIC	??_C@_0CN@IEDLEJJH@first?5bucket?5but?5it?8s?5an?5includ@ ; `string'
PUBLIC	??_C@_0CH@KFOKDOIL@main?5bucket?5but?5it?8s?5not?5the?5fi@ ; `string'
PUBLIC	??_C@_02IEBMKJDF@?$CD?$CD@			; `string'
PUBLIC	??_C@_0CM@PPHBJHEG@failed?5to?5add?5the?5schema?5bucket@ ; `string'
PUBLIC	??_C@_0EM@EBPFONFN@Internal?5error?3?5xmlSchemaCompon@ ; `string'
PUBLIC	??_C@_07ILMPLKHC@Element@			; `string'
PUBLIC	??_C@_09GAHIJPLK@?5?$CIglobal?$CJ@		; `string'
PUBLIC	??_C@_07IDOJLIPA@?3?5?8?$CFs?8?5@		; `string'
PUBLIC	??_C@_07ONOPJFOL@ns?5?8?$CFs?8@			; `string'
PUBLIC	??_C@_09MDPMFALO@?5?5props?3?5@			; `string'
PUBLIC	??_C@_08BCFMBKHE@?$FLfixed?$FN?5@		; `string'
PUBLIC	??_C@_0L@CIMKDCEL@?$FLdefault?$FN?5@		; `string'
PUBLIC	??_C@_0M@BPMPIELH@?$FLabstract?$FN?5@		; `string'
PUBLIC	??_C@_0M@BCKHHPGO@?$FLnillable?$FN?5@		; `string'
PUBLIC	??_C@_0P@OOGOODOG@?5?5value?3?5?8?$CFs?8?6@	; `string'
PUBLIC	??_C@_0O@LPELKPN@?5?5type?3?5?8?$CFs?8?5@	; `string'
PUBLIC	??_C@_08MNNKDMOP@ns?5?8?$CFs?8?6@		; `string'
PUBLIC	??_C@_0BL@GHPOMFG@?5?5substitutionGroup?3?5?8?$CFs?8?5@ ; `string'
PUBLIC	??_C@_0N@FJPFKNMF@?5?5Annot?3?5?$CFs?6@		; `string'
PUBLIC	??_C@_0BA@MKDNPCKH@?5?5Annot?3?5empty?6@	; `string'
PUBLIC	??_C@_02DKCKIIND@?$CFs@				; `string'
PUBLIC	??_C@_0BH@DPNPBLLK@MISSING?5particle?5term?6@	; `string'
PUBLIC	??_C@_09HHDCLOAM@ELEM?5?8?$CFs?8@		; `string'
PUBLIC	??_C@_08POLPFBMC@SEQUENCE@			; `string'
PUBLIC	??_C@_06DHBGJHJC@CHOICE@			; `string'
PUBLIC	??_C@_03NIFPGLBG@ALL@				; `string'
PUBLIC	??_C@_03OMGOFJGM@ANY@				; `string'
PUBLIC	??_C@_08GCOIMFOL@UNKNOWN?6@			; `string'
PUBLIC	??_C@_08IIINJODF@?5min?3?5?$CFd@		; `string'
PUBLIC	??_C@_0BA@NODJHFHO@?5max?3?5unbounded@		; `string'
PUBLIC	??_C@_08GOONDBNE@?5max?3?5?$CFd@		; `string'
PUBLIC	??_C@_0P@JCEFCIDL@?5?5attributes?3?6@		; `string'
PUBLIC	??_C@_0BB@EJJDJFMI@?5?5?$FLprohibition?$FN?5@	; `string'
PUBLIC	??_C@_0P@IGLOKPCJ@?5?5?$FLreference?$FN?5@	; `string'
PUBLIC	??_C@_08FLCGCOPE@?5?5?$FLuse?$FN?5@		; `string'
PUBLIC	??_C@_05ODNCHMDL@?8?$CFs?8?6@			; `string'
PUBLIC	??_C@_0M@JCDJFDMD@Type?3?5NULL?6@		; `string'
PUBLIC	??_C@_06NAHGBCDG@Type?3?5@			; `string'
PUBLIC	??_C@_05IMLJLABD@?8?$CFs?8?5@			; `string'
PUBLIC	??_C@_0L@MKMGDOCG@?$CIno?5name?$CJ?5@		; `string'
PUBLIC	??_C@_08KCLBPAMH@ns?5?8?$CFs?8?5@		; `string'
PUBLIC	??_C@_08JHBJHPJC@?$FLbasic?$FN?5@		; `string'
PUBLIC	??_C@_09BLJCIKGO@?$FLsimple?$FN?5@		; `string'
PUBLIC	??_C@_0L@KAOEKGBK@?$FLcomplex?$FN?5@		; `string'
PUBLIC	??_C@_0M@FCFPOKLD@?$FLsequence?$FN?5@		; `string'
PUBLIC	??_C@_09EKOOBNCK@?$FLchoice?$FN?5@		; `string'
PUBLIC	??_C@_06FMDLAKIF@?$FLall?$FN?5@			; `string'
PUBLIC	??_C@_05CJJADIIB@?$FLur?$FN?5@			; `string'
PUBLIC	??_C@_0P@CHAMEEEB@?$FLrestriction?$FN?5@	; `string'
PUBLIC	??_C@_0N@FOPKHEI@?$FLextension?$FN?5@		; `string'
PUBLIC	??_C@_0BD@MFKKFECO@?$FLunknown?5type?5?$CFd?$FN?5@ ; `string'
PUBLIC	??_C@_09FOCHAENE@content?3?5@			; `string'
PUBLIC	??_C@_0L@IFGHBDON@?$FLunknown?$FN?5@		; `string'
PUBLIC	??_C@_08HLDMIKJJ@?$FLempty?$FN?5@		; `string'
PUBLIC	??_C@_0L@FLJCNDEC@?$FLelement?$FN?5@		; `string'
PUBLIC	??_C@_08EPDGAGCC@?$FLmixed?$FN?5@		; `string'
PUBLIC	??_C@_06EBDMPOEI@?$FLany?$FN?5@			; `string'
PUBLIC	??_C@_0BC@HMAJHNML@?5?5base?5type?3?5?8?$CFs?8@	; `string'
PUBLIC	??_C@_09IHAEEDOH@?5ns?5?8?$CFs?8?6@		; `string'
PUBLIC	??_C@_0P@IDICKHMO@Schemas?3?5NULL?6@		; `string'
PUBLIC	??_C@_09CEPCMGAA@Schemas?3?5@			; `string'
PUBLIC	??_C@_04ONKFDMMC@?$CFs?0?5@			; `string'
PUBLIC	??_C@_09HIFPELMF@no?5name?0?5@			; `string'
PUBLIC	??_C@_0BE@HFGDBOPE@no?5target?5namespace@	; `string'
PUBLIC	??_C@_0P@HKPLIAHO@add?5annotation@		; `string'
PUBLIC	??_C@_0BF@IGICPFC@allocating?5attribute@	; `string'
PUBLIC	??_C@_0BN@DCKEMFJK@allocating?5redefinition?5info@ ; `string'
PUBLIC	??_C@_0BL@LFEIBOLE@allocating?5attribute?5group@ ; `string'
PUBLIC	??_C@_0BD@OFNGJBCE@allocating?5element@		; `string'
PUBLIC	??_C@_0BA@BHDLCLLG@allocating?5type@		; `string'
PUBLIC	??_C@_0CA@BENLLJIB@allocating?5QName?5reference?5item@ ; `string'
PUBLIC	??_C@_0CF@BKCCIOBM@allocating?5attribute?5use?5prohib@ ; `string'
PUBLIC	??_C@_0CB@MIJFJDPK@allocating?5model?5group?5componen@ ; `string'
PUBLIC	??_C@_0BO@IIFFCFND@allocating?5particle?5component@ ; `string'
PUBLIC	??_C@_0N@MMNEFFIM@adding?5group@		; `string'
PUBLIC	??_C@_0CH@KLLMMGAA@creating?5wildcard?5namespace?5con@ ; `string'
PUBLIC	??_C@_0CN@LEONOKAC@allocating?5an?5identity?9constrai@ ; `string'
PUBLIC	??_C@_0BA@CIBAJGPC@adding?5wildcard@		; `string'
PUBLIC	??_C@_0CK@NKPACKCN@allocating?5a?5substitution?5group@ ; `string'
PUBLIC	??_C@_0CL@JADHFAI@failed?5to?5add?5a?5new?5substitutio@ ; `string'
PUBLIC	??_C@_0BH@CHMIFAPN@xmlSchemaSubstGroupAdd@	; `string'
PUBLIC	??_C@_0FN@NHMNMJGI@The?5value?5?8?$CFs?8?5of?5simple?5type?5?8@ ; `string'
PUBLIC	??_C@_0CM@OMFMFEA@Duplicate?5value?5?8?$CFs?8?5of?5simple?5@ ; `string'
PUBLIC	??_C@_0EB@BMJNLDB@The?5value?5?8?$CFs?8?5of?5simple?5type?5?8@ ; `string'
PUBLIC	??_C@_09OBPGLENH@maxOccurs@			; `string'
PUBLIC	??_C@_09PBKAIKML@unbounded@			; `string'
PUBLIC	??_C@_09OAPKCOGD@minOccurs@			; `string'
PUBLIC	??_C@_04LOAJBDKD@true@				; `string'
PUBLIC	??_C@_05LAPONLG@false@				; `string'
PUBLIC	??_C@_01HIHLOKLC@1@				; `string'
PUBLIC	??_C@_01GBGANLPD@0@				; `string'
PUBLIC	??_C@_0CG@JADIGFME@the?5given?5type?5is?5not?5a?5built?9i@ ; `string'
PUBLIC	??_C@_0BL@CNLGMFJP@xmlSchemaPValAttrNodeValue@	; `string'
PUBLIC	??_C@_0EI@OLDONBHK@validation?5using?5the?5given?5type@ ; `string'
PUBLIC	??_C@_0CM@DLDNHDND@failed?5to?5validate?5a?5schema?5att@ ; `string'
PUBLIC	??_C@_0FA@OJBBBDML@Internal?5error?3?5xmlSchemaPValAt@ ; `string'
PUBLIC	??_C@_0HG@LIIBNHFM@References?5from?5this?5schema?5to?5@ ; `string'
PUBLIC	??_C@_0HM@PFGFDKAG@References?5from?5this?5schema?5to?5@ ; `string'
PUBLIC	??_C@_09HGIEBAJ@attribute@			; `string'
PUBLIC	??_C@_0P@KIDCOMBF@attributeGroup@		; `string'
PUBLIC	??_C@_02EGCJHIOB@id@				; `string'
PUBLIC	??_C@_07IADCAIKP@appinfo@			; `string'
PUBLIC	??_C@_06OEKOLKIL@source@			; `string'
PUBLIC	??_C@_0O@JMIFCMPP@documentation@		; `string'
PUBLIC	??_C@_04IOHABJIC@lang@				; `string'
PUBLIC	??_C@_0CF@GLDAAHFK@http?3?1?1www?4w3?4org?1XML?11998?1name@ ; `string'
PUBLIC	??_C@_0BL@CHHJOIII@?$CIappinfo?5?$HM?5documentation?$CJ?$CK@ ; `string'
PUBLIC	??_C@_0BB@DFGEBGMC@allocating?5facet@		; `string'
PUBLIC	??_C@_05MFEJDJP@value@				; `string'
PUBLIC	??_C@_0BH@LAHCBIKA@Facet?5?$CFs?5has?5no?5value?6@ ; `string'
PUBLIC	??_C@_0N@BDECKIL@minInclusive@			; `string'
PUBLIC	??_C@_0N@MENCPBPO@minExclusive@			; `string'
PUBLIC	??_C@_0N@EBHLFCPN@maxInclusive@			; `string'
PUBLIC	??_C@_0N@IEJNIJII@maxExclusive@			; `string'
PUBLIC	??_C@_0M@PGNNBCIB@totalDigits@			; `string'
PUBLIC	??_C@_0P@EPJLKDGA@fractionDigits@		; `string'
PUBLIC	??_C@_07CHFOACKJ@pattern@			; `string'
PUBLIC	??_C@_0M@FJOIDAAJ@enumeration@			; `string'
PUBLIC	??_C@_0L@CCEMGGFL@whiteSpace@			; `string'
PUBLIC	??_C@_06IJDLPEM@length@				; `string'
PUBLIC	??_C@_09KJHMKBNK@maxLength@			; `string'
PUBLIC	??_C@_09KIHADLGO@minLength@			; `string'
PUBLIC	??_C@_0BH@JGDFLELF@Unknown?5facet?5type?5?$CFs?6@ ; `string'
PUBLIC	??_C@_05OFLEIIDM@fixed@				; `string'
PUBLIC	??_C@_0L@HOGAMHHM@annotation@			; `string'
PUBLIC	??_C@_0CH@KGEOIBLP@Facet?5?$CFs?5has?5unexpected?5child?5c@ ; `string'
PUBLIC	??_C@_0BA@LJOIJHLO@processContents@		; `string'
PUBLIC	??_C@_0BG@JONDLOPH@?$CIstrict?5?$HM?5skip?5?$HM?5lax?$CJ@ ; `string'
PUBLIC	??_C@_09KPMGAFNI@namespace@			; `string'
PUBLIC	??_C@_05HGEKMIOD@?$CD?$CDany@			; `string'
PUBLIC	??_C@_0EK@HAPJOCKP@?$CI?$CI?$CD?$CDany?5?$HM?5?$CD?$CDother?$CJ?5?$HM?5List?5of?5?$CIx@ ; `string'
PUBLIC	??_C@_0BC@NIOKFNAN@?$CD?$CDtargetNamespace@	; `string'
PUBLIC	??_C@_07NOOLJEMO@?$CD?$CDlocal@			; `string'
PUBLIC	??_C@_0CN@HPDJBJNO@The?5value?5must?5be?5greater?5than?5@ ; `string'
PUBLIC	??_C@_0DM@MJPPLMBN@The?5value?5must?5not?5be?5greater?5t@ ; `string'
PUBLIC	??_C@_0CE@BEMOBFLH@?$CIxs?3nonNegativeInteger?5?$HM?5unboun@ ; `string'
PUBLIC	??_C@_0BG@FKFDAFPO@xs?3nonNegativeInteger@	; `string'
PUBLIC	??_C@_0O@MNAJHLGE@?$CIannotation?$DP?$CJ@	; `string'
PUBLIC	??_C@_04MEMAJGDJ@name@				; `string'
PUBLIC	??_C@_0BG@DHBIDCLH@Notation?5has?5no?5name?6@	; `string'
PUBLIC	??_C@_03GCDGINBO@ref@				; `string'
PUBLIC	??_C@_04GPMDFGEJ@type@				; `string'
PUBLIC	??_C@_04MLMMMEIO@form@				; `string'
PUBLIC	??_C@_09NPLHLKJP@qualified@			; `string'
PUBLIC	??_C@_0M@PJKDFPFM@unqualified@			; `string'
PUBLIC	??_C@_0BK@IDHDHMBC@?$CIqualified?5?$HM?5unqualified?$CJ@ ; `string'
PUBLIC	??_C@_03MMGHDJKG@use@				; `string'
PUBLIC	??_C@_08EBGGHLAO@optional@			; `string'
PUBLIC	??_C@_0L@HMNCJOMG@prohibited@			; `string'
PUBLIC	??_C@_08FEMBDDHD@required@			; `string'
PUBLIC	??_C@_0CD@MEKFLEMO@?$CIoptional?5?$HM?5prohibited?5?$HM?5requir@ ; `string'
PUBLIC	??_C@_07DLHCIBDH@default@			; `string'
PUBLIC	??_C@_0FK@JMMMCAKL@The?5value?5of?5the?5attribute?5?8use@ ; `string'
PUBLIC	??_C@_0CJ@KHJHCHGN@The?5target?5namespace?5must?5not?5m@ ; `string'
PUBLIC	??_C@_05PPEFOGKI@xmlns@				; `string'
PUBLIC	??_C@_0DC@IMLKIPJD@The?5value?5of?5the?5attribute?5must@ ; `string'
PUBLIC	??_C@_0FF@PAOOKLLP@Skipping?5attribute?5use?5prohibit@ ; `string'
PUBLIC	??_C@_0FA@EKEFODDF@Skipping?5attribute?5use?5prohibit@ ; `string'
PUBLIC	??_C@_0DC@LIPHNCMP@Skipping?5duplicate?5attribute?5us@ ; `string'
PUBLIC	??_C@_0L@FMMGGLOP@simpleType@			; `string'
PUBLIC	??_C@_0EH@BAMMFMJA@The?5attribute?5?8type?8?5and?5the?5?$DMs@ ; `string'
PUBLIC	??_C@_0BL@LABGHPL@?$CIannotation?$DP?0?5simpleType?$DP?$CJ@ ; `string'
PUBLIC	??_C@_0HE@EDEMIIKM@The?5redefining?5attribute?5group?5@ ; `string'
PUBLIC	??_C@_0N@DDKCLMJG@anyAttribute@			; `string'
PUBLIC	??_C@_0DO@PEEJHPPG@?$CIannotation?$DP?0?5?$CI?$CIattribute?5?$HM?5att@ ; `string'
PUBLIC	??_C@_04LEKDNLLP@?$CDall@			; `string'
PUBLIC	??_C@_09ODADEDNA@extension@			; `string'
PUBLIC	??_C@_0M@FBFLGGFO@restriction@			; `string'
PUBLIC	??_C@_0N@INDADLAA@substitution@			; `string'
PUBLIC	??_C@_04DONFEANM@list@				; `string'
PUBLIC	??_C@_05MNALHJLP@union@				; `string'
PUBLIC	??_C@_0EO@EIAADIEO@Internal?5error?3?5xmlSchemaCheckC@ ; `string'
PUBLIC	??_C@_0DC@LABDBLHI@The?5XPath?5expression?5of?5the?5sel@ ; `string'
PUBLIC	??_C@_0BN@LCFJGAGM@allocating?5a?5namespace?5array@ ; `string'
PUBLIC	??_C@_0DA@MEAKINLE@The?5XPath?5expression?5?8?$CFs?8?5could@ ; `string'
PUBLIC	??_C@_0FF@CNICCNGM@Internal?5error?3?5xmlSchemaAddAnn@ ; `string'
PUBLIC	??_C@_05CNNIIAHK@xpath@				; `string'
PUBLIC	??_C@_0DN@GFJDOCKM@allocating?5a?5?8selector?8?5of?5an?5i@ ; `string'
PUBLIC	??_C@_0GH@EOECGLHE@Internal?5error?3?5xmlSchemaParseI@ ; `string'
PUBLIC	??_C@_05BEFNLAML@refer@				; `string'
PUBLIC	??_C@_0CC@DEBKGIBF@?$CIannotation?$DP?0?5?$CIselector?0?5field?$CL@ ; `string'
PUBLIC	??_C@_0BL@HDFCKCKI@A?5child?5element?5is?5missing@ ; `string'
PUBLIC	??_C@_08DILBKPNJ@selector@			; `string'
PUBLIC	??_C@_05EIBGDMPB@field@				; `string'
PUBLIC	??_C@_0FH@LFNFLK@Only?5the?5attributes?5?8minOccurs?8@ ; `string'
PUBLIC	??_C@_05PIBOEKAB@block@				; `string'
PUBLIC	??_C@_08BNOJCPJE@nillable@			; `string'
PUBLIC	??_C@_05FPBGKCKL@final@				; `string'
PUBLIC	??_C@_08IMFJLGFD@abstract@			; `string'
PUBLIC	??_C@_0BC@CGDMBFF@substitutionGroup@		; `string'
PUBLIC	??_C@_0CL@KNGCEGAB@?$CI?$CDall?5?$HM?5List?5of?5?$CIextension?5?$HM?5re@ ; `string'
PUBLIC	??_C@_0DK@DDAOLEFB@?$CI?$CDall?5?$HM?5List?5of?5?$CIextension?5?$HM?5re@ ; `string'
PUBLIC	??_C@_0M@OCBEIBDG@complexType@			; `string'
PUBLIC	??_C@_0EI@DDMHFMFF@The?5attribute?5?8type?8?5and?5the?5?$DMc@ ; `string'
PUBLIC	??_C@_06ODCMFGLL@unique@			; `string'
PUBLIC	??_C@_03ICHNJLJF@key@				; `string'
PUBLIC	??_C@_06PLFEIJDE@keyref@			; `string'
PUBLIC	??_C@_0EH@NHLOCELP@?$CIannotation?$DP?0?5?$CI?$CIsimpleType?5?$HM?5co@ ; `string'
PUBLIC	??_C@_0M@OEMIGMAO@memberTypes@			; `string'
PUBLIC	??_C@_0CM@CGPNFFK@xmlSchemaParseUnion?0?5allocating@ ; `string'
PUBLIC	??_C@_0BL@BBOMAGGA@?$CIannotation?$DP?0?5simpleType?$CK?$CJ@ ; `string'
PUBLIC	??_C@_0FG@HHPGDCB@Either?5the?5attribute?5?8memberTyp@ ; `string'
PUBLIC	??_C@_08DLBHENKN@itemType@			; `string'
PUBLIC	??_C@_0EL@LEHAHIHI@The?5attribute?5?8itemType?8?5and?5th@ ; `string'
PUBLIC	??_C@_0EK@BDPJPAFM@Either?5the?5attribute?5?8itemType?8@ ; `string'
PUBLIC	??_C@_0DH@OIPDFCAL@Redefinition?5of?5built?9in?5simple@ ; `string'
PUBLIC	??_C@_0CN@IJLHAKIE@?$CI?$CDall?5?$HM?5List?5of?5?$CIlist?5?$HM?5union?5?$HM@ ; `string'
PUBLIC	??_C@_0CM@MDINDAN@?$CIannotation?$DP?0?5?$CIrestriction?5?$HM?5li@ ; `string'
PUBLIC	??_C@_0EO@JDMIJKLB@This?5is?5a?5redefinition?0?5thus?5th@ ; `string'
PUBLIC	??_C@_03NFKEKGGK@all@				; `string'
PUBLIC	??_C@_06DDDNEJEA@choice@			; `string'
PUBLIC	??_C@_08IBBDGPOF@sequence@			; `string'
PUBLIC	??_C@_0CK@IMPEKNJM@?$CIannotation?$DP?0?5?$CIall?5?$HM?5choice?5?$HM?5s@ ; `string'
PUBLIC	??_C@_0BA@JJLDNFDJ@targetNamespace@		; `string'
PUBLIC	??_C@_0BD@GLAKFDIM@elementFormDefault@		; `string'
PUBLIC	??_C@_0BF@PMHAPIPB@attributeFormDefault@	; `string'
PUBLIC	??_C@_0N@DFGPIJFA@finalDefault@			; `string'
PUBLIC	??_C@_0DK@JHFKOEOC@?$CI?$CDall?5?$HM?5List?5of?5?$CIextension?5?$HM?5re@ ; `string'
PUBLIC	??_C@_0N@MMGPPGOC@blockDefault@			; `string'
PUBLIC	??_C@_07FHOHOHLG@include@			; `string'
PUBLIC	??_C@_06EOGGDCGF@import@			; `string'
PUBLIC	??_C@_08HCPHBLGO@redefine@			; `string'
PUBLIC	??_C@_07HCLJNICE@element@			; `string'
PUBLIC	??_C@_05MGJOOGAJ@group@				; `string'
PUBLIC	??_C@_08KNJKBPAF@notation@			; `string'
PUBLIC	??_C@_0JG@PPPAGMJA@?$CI?$CIinclude?5?$HM?5import?5?$HM?5redefine?5?$HM@ ; `string'
PUBLIC	??_C@_0BL@CHFLODC@allocating?5schema?5relation@	; `string'
PUBLIC	??_C@_0CH@HOMALJAM@allocating?5schema?5construction?5@ ; `string'
PUBLIC	??_C@_0CC@KNCAMKIP@allocating?5list?5of?5schema?5bucke@ ; `string'
PUBLIC	??_C@_0CN@MGLOMDJH@allocating?5list?5of?5pending?5glob@ ; `string'
PUBLIC	??_C@_0CB@NCMLFNIB@allocating?5schema?5parser?5contex@ ; `string'
PUBLIC	??_C@_0CI@GJEMMNOJ@failed?5to?5create?5a?5temp?4?5parser@ ; `string'
PUBLIC	??_C@_0BM@OJEBCMPM@xmlSchemaCreatePCtxtOnVCtxt@	; `string'
PUBLIC	??_C@_0BH@IFNOMMON@reparsing?5a?5schema?5doc@	; `string'
PUBLIC	??_C@_0BF@DMMABNCK@xmlSchemaParseNewDoc@	; `string'
PUBLIC	??_C@_0CJ@PEPIDOML@parsing?5a?5schema?5doc?0?5but?5there@ ; `string'
PUBLIC	??_C@_0P@BIPJKJFE@no?5constructor@		; `string'
PUBLIC	??_C@_0DD@JJBMBON@The?5schema?5must?5not?5import?1incl@ ; `string'
PUBLIC	??_C@_0BB@IEONCAEH@in_memory_buffer@		; `string'
PUBLIC	??_C@_0FI@DLHCDBDL@The?5schema?5document?5?8?$CFs?8?5cannot@ ; `string'
PUBLIC	??_C@_0FI@DIIKKJHP@The?5schema?5document?5?8?$CFs?8?5cannot@ ; `string'
PUBLIC	??_C@_0IM@HCCFLAGC@Skipping?5import?5of?5schema?5locat@ ; `string'
PUBLIC	??_C@_0FA@FCNDNFNE@trying?5to?5load?5a?5schema?5doc?0?5bu@ ; `string'
PUBLIC	??_C@_0BG@PEDNHGDB@xmlSchemaAddSchemaDoc@	; `string'
PUBLIC	??_C@_0CN@KMMHPBMO@xmlSchemaGetDoc?0?5allocating?5a?5p@ ; `string'
PUBLIC	??_C@_0CG@MKFNOEJC@Failed?5to?5parse?5the?5XML?5resourc@ ; `string'
PUBLIC	??_C@_0EP@KKBODFED@No?5information?5for?5parsing?5was?5@ ; `string'
PUBLIC	??_C@_0CK@LEAJAMEE@The?5document?5?8?$CFs?8?5has?5no?5docume@ ; `string'
PUBLIC	??_C@_06KICAKOOL@schema@			; `string'
PUBLIC	??_C@_0CP@HFPALNHL@The?5XML?5document?5?8?$CFs?8?5is?5not?5a?5@ ; `string'
PUBLIC	??_C@_0P@DEMHLMFE@schemaLocation@		; `string'
PUBLIC	??_C@_0GI@OLOMMMCB@The?5value?5of?5the?5attribute?5?8nam@ ; `string'
PUBLIC	??_C@_0FL@GDFMFMFB@The?5attribute?5?8namespace?8?5must?5@ ; `string'
PUBLIC	??_C@_0EA@NKOOPGEC@Failed?5to?5locate?5a?5schema?5at?5lo@ ; `string'
PUBLIC	??_C@_0CP@EKIECFJN@could?5not?5build?5an?5URI?5from?5the@ ; `string'
PUBLIC	??_C@_0CA@NKMDDHKI@xmlSchemaParseIncludeOrRedefine@ ; `string'
PUBLIC	??_C@_0DB@IGEPJIPN@The?5schema?5document?5?8?$CFs?8?5cannot@ ; `string'
PUBLIC	??_C@_0DA@JGHKIBFN@The?5schema?5document?5?8?$CFs?8?5cannot@ ; `string'
PUBLIC	??_C@_0CP@PKPHBKIC@Failed?5to?5load?5the?5document?5?8?$CFs@ ; `string'
PUBLIC	??_C@_0DC@DJHEKCBE@Failed?5to?5load?5the?5document?5?8?$CFs@ ; `string'
PUBLIC	??_C@_0IL@MIGJBHGC@The?5target?5namespace?5of?5the?5inc@ ; `string'
PUBLIC	??_C@_0HF@NFPCCAHE@The?5target?5namespace?5?8?$CFs?8?5of?5th@ ; `string'
PUBLIC	??_C@_0IO@MEKANAPF@The?5target?5namespace?5of?5the?5inc@ ; `string'
PUBLIC	??_C@_0EE@OHBEFOEM@?$CIannotation?5?$HM?5?$CIsimpleType?5?$HM?5com@ ; `string'
PUBLIC	??_C@_07OCHOELKN@?$CI0?5?$HM?51?$CJ@		; `string'
PUBLIC	??_C@_0CN@GPAMDNEI@Invalid?5value?5for?5minOccurs?5?$CImu@ ; `string'
PUBLIC	??_C@_0CN@JOJFLDM@Invalid?5value?5for?5maxOccurs?5?$CImu@ ; `string'
PUBLIC	??_C@_0CG@DCDFMCOM@?$CIannotation?$DP?0?5?$CIannotation?$DP?0?5ele@ ; `string'
PUBLIC	??_C@_03OBJFJEBA@any@				; `string'
PUBLIC	??_C@_0HA@PEPECPEK@The?5redefining?5model?5group?5defi@ ; `string'
PUBLIC	??_C@_0IM@HPEJBILG@The?5redefining?5model?5group?5defi@ ; `string'
PUBLIC	??_C@_0DM@EMLAMPJB@?$CIannotation?$DP?0?5?$CIelement?5?$HM?5group?5@ ; `string'
PUBLIC	??_C@_04BHIIPFEC@base@				; `string'
PUBLIC	??_C@_0HE@HDNCABHM@This?5is?5a?5redefinition?0?5but?5the@ ; `string'
PUBLIC	??_C@_0EH@NLLIFAIL@The?5attribute?5?8base?8?5and?5the?5?$DMs@ ; `string'
PUBLIC	??_C@_0EE@KBNCPLAN@Either?5the?5attribute?5?8base?8?5or?5@ ; `string'
PUBLIC	??_C@_0BI@BKMOEBCP@allocating?5a?5facet?5link@	; `string'
PUBLIC	??_C@_0GB@CPHLEAHN@annotation?$DP?0?5?$CIgroup?5?$HM?5all?5?$HM?5cho@ ; `string'
PUBLIC	??_C@_0PB@MMDBBLJD@?$CIannotation?$DP?0?5?$CIsimpleType?$DP?0?5?$CImi@ ; `string'
PUBLIC	??_C@_0MA@MDLOJGLL@?$CIannotation?$DP?0?5?$CIsimpleType?$DP?0?5?$CImi@ ; `string'
PUBLIC	??_C@_0GE@NILNJLFH@?$CIannotation?$DP?0?5?$CI?$CIgroup?5?$HM?5all?5?$HM?5c@ ; `string'
PUBLIC	??_C@_0CJ@BJCOBFBF@?$CIannotation?$DP?0?5?$CIrestriction?5?$HM?5ex@ ; `string'
PUBLIC	??_C@_05IPHDHIPP@mixed@				; `string'
PUBLIC	??_C@_0CM@OCCOHGHC@?$CI?$CDall?5?$HM?5List?5of?5?$CIextension?5?$HM?5re@ ; `string'
PUBLIC	??_C@_0O@EFHOFDNO@simpleContent@		; `string'
PUBLIC	??_C@_0P@LGKPFEB@complexContent@		; `string'
PUBLIC	??_C@_0IH@OBLFEMHP@?$CIannotation?$DP?0?5?$CIsimpleContent?5?$HM?5@ ; `string'
PUBLIC	??_C@_0GE@BCLPNLHN@This?5is?5a?5redefinition?0?5thus?5th@ ; `string'
PUBLIC	??_C@_0HK@IHMHBPHC@Internal?5error?3?5xmlSchemaBuildC@ ; `string'
PUBLIC	??_C@_0BB@IKBLLFGH@particle?5is?5NULL@		; `string'
PUBLIC	??_C@_0BM@HHPDPMCK@xmlSchemaBuildAContentModel@	; `string'
PUBLIC	??_C@_0BP@LJGCIBKB@?$DMelement?$DO?5particle?5has?5no?5term@ ; `string'
PUBLIC	??_C@_0DE@JHALJFOD@found?5unexpected?5term?5of?5type?5?8@ ; `string'
PUBLIC	??_C@_0CM@ONMINIGJ@Cannot?5create?5automata?5for?5comp@ ; `string'
PUBLIC	??_C@_0CE@GNJHIDLA@Failed?5to?5compile?5the?5content?5m@ ; `string'
PUBLIC	??_C@_0CF@FHONPKDJ@The?5content?5model?5is?5not?5determ@ ; `string'
PUBLIC	??_C@_0BA@LIFKLDKP@type?5definition@		; `string'
PUBLIC	??_C@_0BH@ENHIIAOL@allocating?5a?5type?5link@	; `string'
PUBLIC	??_C@_0CO@HFHAKEB@The?5union?5of?5the?5wilcard?5is?5not@ ; `string'
PUBLIC	??_C@_0DF@DJLMCEFH@The?5intersection?5of?5the?5wilcard@ ; `string'
PUBLIC	??_C@_09KLOJBFOH@redefined@			; `string'
PUBLIC	??_C@_0GK@JGCEGOAB@The?5?8optional?8?5attribute?5use?5is@ ; `string'
PUBLIC	??_C@_0HK@BBMHJBAP@The?5attribute?5declaration?8s?5?$CFs?5@ ; `string'
PUBLIC	??_C@_0GI@OJPOJNKC@The?5effective?5value?5constraint?5@ ; `string'
PUBLIC	??_C@_0EO@EJIDKJHC@Neither?5a?5matching?5attribute?5us@ ; `string'
PUBLIC	??_C@_0EH@JCFCIHDB@A?5matching?5attribute?5use?5for?5th@ ; `string'
PUBLIC	??_C@_0EH@LKDIOLEM@The?5?$CFs?5has?5an?5attribute?5wildcar@ ; `string'
PUBLIC	??_C@_0EP@KINLKDD@The?5attribute?5wildcard?5is?5not?5a@ ; `string'
PUBLIC	??_C@_0FK@HDNJNNIO@The?5?$HLprocess?5contents?$HN?5of?5the?5a@ ; `string'
PUBLIC	??_C@_0N@OMCNPMDL@no?5base?5type@		; `string'
PUBLIC	??_C@_0CA@OFHPNPHI@xmlSchemaFixupTypeAttributeUses@ ; `string'
PUBLIC	??_C@_0BM@FJOPIFJN@failed?5to?5expand?5attributes@ ; `string'
PUBLIC	??_C@_0BL@KGAFCIDP@The?5definition?5is?5circular@ ; `string'
PUBLIC	??_C@_0CG@FDHFJMFM@The?5union?5type?5definition?5is?5ci@ ; `string'
PUBLIC	??_C@_0FM@NJGNMMEM@The?5particle?8s?5?$HLmax?5occurs?$HN?5mus@ ; `string'
PUBLIC	??_C@_0BG@PPOHGOMN@No?5base?5type?5existent@	; `string'
PUBLIC	??_C@_0CI@BABCEAKF@The?5base?5type?5?8?$CFs?8?5is?5not?5a?5sim@ ; `string'
PUBLIC	??_C@_0GB@OJPAIDNO@A?5type?0?5derived?5by?5list?5or?5unio@ ; `string'
PUBLIC	??_C@_0BG@NAEJKMEI@The?5variety?5is?5absent@	; `string'
PUBLIC	??_C@_0EB@JOOLHCHD@The?5?8final?8?5of?5its?5base?5type?5?8?$CF@ ; `string'
PUBLIC	??_C@_0CM@LMHOOJIC@given?5type?5is?5not?5a?5user?9derive@ ; `string'
PUBLIC	??_C@_0BN@JGCJPHDI@xmlSchemaCheckCOSSTRestricts@ ; `string'
PUBLIC	??_C@_0DA@BHMFPHHO@The?5base?5type?5?8?$CFs?8?5is?5not?5an?5at@ ; `string'
PUBLIC	??_C@_0DP@KJOCHNDL@The?5final?5of?5its?5base?5type?5?8?$CFs?8@ ; `string'
PUBLIC	??_C@_0BN@KLLNOLEJ@failed?5to?5get?5primitive?5type@ ; `string'
PUBLIC	??_C@_0CB@HJDIBIBN@failed?5to?5evaluate?5the?5item?5typ@ ; `string'
PUBLIC	??_C@_0DO@CNOGHMHL@The?5item?5type?5?8?$CFs?8?5does?5not?5hav@ ; `string'
PUBLIC	??_C@_0FI@NONGNEND@The?5item?5type?5is?5a?5union?5type?0?5@ ; `string'
PUBLIC	??_C@_0DI@HJPNFIBB@The?5final?5of?5its?5item?5type?5?8?$CFs?8@ ; `string'
PUBLIC	??_C@_0CH@GNOCMONM@The?5base?5type?5?8?$CFs?8?5must?5be?5a?5li@ ; `string'
PUBLIC	??_C@_0EB@DKPMMCLA@The?5?8final?8?5of?5the?5base?5type?5?8?$CF@ ; `string'
PUBLIC	??_C@_0CM@CKGJJDPM@failed?5to?5eval?5the?5item?5type?5of@ ; `string'
PUBLIC	??_C@_0FI@JBMOEDMD@The?5item?5type?5?8?$CFs?8?5is?5not?5valid@ ; `string'
PUBLIC	??_C@_0DL@JIAIGPPB@The?5member?5type?5?8?$CFs?8?5is?5neither@ ; `string'
PUBLIC	??_C@_0DB@GMGLNPMG@The?5?8final?8?5of?5member?5type?5?8?$CFs?8@ ; `string'
PUBLIC	??_C@_0BC@LHNABEDG@No?5facets?5allowed@		; `string'
PUBLIC	??_C@_0CH@MIGLCPEH@The?5base?5type?5?8?$CFs?8?5is?5not?5a?5uni@ ; `string'
PUBLIC	??_C@_0CJ@HOHKAHOI@different?5number?5of?5member?5type@ ; `string'
PUBLIC	??_C@_0GE@MIEEABNE@The?5member?5type?5?$CFs?5is?5not?5valid@ ; `string'
PUBLIC	??_C@_0FL@FMHFMMBK@Internal?5error?3?5xmlSchemaCreate@ ; `string'
PUBLIC	??_C@_0IM@DDPGDFGG@For?5a?5string?5to?5be?5a?5valid?5defa@ ; `string'
PUBLIC	??_C@_0CH@HOPMNJDI@calling?5xmlSchemaVCheckCVCSimpl@ ; `string'
PUBLIC	??_C@_0CD@MOGOJILI@xmlSchemaParseCheckCOSValidDefa@ ; `string'
PUBLIC	??_C@_0EN@DHFNNJDJ@If?5the?5base?5type?5is?5a?5simple?5ty@ ; `string'
PUBLIC	??_C@_0N@NMANGDLF@Duplicate?5?$CFs@		; `string'
PUBLIC	??_C@_0IE@LIFNGLDM@There?5must?5not?5exist?5more?5than?5@ ; `string'
PUBLIC	??_C@_0DN@CKGKOKMC@The?5?8final?8?5of?5the?5base?5type?5de@ ; `string'
PUBLIC	??_C@_0CJ@LMFNPNPH@The?5content?5type?5must?5specify?5a@ ; `string'
PUBLIC	??_C@_0FM@GPKINKDA@The?5content?5type?5of?5both?0?5the?5t@ ; `string'
PUBLIC	??_C@_0CO@EGFIFAEL@The?5content?5type?5must?5be?5the?5si@ ; `string'
PUBLIC	??_C@_0CF@JAJFEDFA@The?5base?5type?5must?5be?5a?5complex@ ; `string'
PUBLIC	??_C@_0DP@BNGFOOBI@The?5?8final?8?5of?5the?5base?5type?5de@ ; `string'
PUBLIC	??_C@_0FE@IHCAKODH@The?5?$HLcontent?5type?$HN?5?$CFs?5is?5not?5va@ ; `string'
PUBLIC	??_C@_0GE@JDFDINMM@The?5content?5type?5of?5the?5base?5ty@ ; `string'
PUBLIC	??_C@_0HB@BKHGHMKG@The?5content?5type?5of?5the?5base?5ty@ ; `string'
PUBLIC	??_C@_0FM@PFEADGDA@If?5the?5content?5type?5is?5?8mixed?8?0@ ; `string'
PUBLIC	??_C@_0DF@LCGEMILI@The?5type?5is?5not?5a?5valid?5restric@ ; `string'
PUBLIC	??_C@_0GP@CNIJIED@If?5using?5?$DMcomplexContent?$DO?0?5the?5@ ; `string'
PUBLIC	??_C@_0HG@OCMJPANJ@If?5using?5?$DMsimpleContent?$DO?5and?5?$DMr@ ; `string'
PUBLIC	??_C@_0EJ@MGOOHGBI@Internal?5error?3?5xmlSchemaCheckS@ ; `string'
PUBLIC	??_C@_0IE@LDPFNCJG@A?5?$DMsimpleType?$DO?5is?5expected?5amon@ ; `string'
PUBLIC	??_C@_0LD@GJIEKEIE@If?5?$DMsimpleContent?$DO?5and?5?$DMrestric@ ; `string'
PUBLIC	??_C@_0HG@CLNEKDGF@If?5?$DMsimpleContent?$DO?5and?5?$DMextensi@ ; `string'
PUBLIC	??_C@_0M@HCGPHKGF@?8?5has?5to?5be@		; `string'
PUBLIC	??_C@_09BFLDGAFJ@?5equal?5to@			; `string'
PUBLIC	??_C@_0O@EOMDOOFG@?5greater?5than@		; `string'
PUBLIC	??_C@_0L@HHJDMGPP@?5less?5than@			; `string'
PUBLIC	??_C@_0N@LGLLBNBD@?5or?5equal?5to@		; `string'
PUBLIC	??_C@_0BD@OGMOIDHN@?8?5of?5the?5base?5type@	; `string'
PUBLIC	??_C@_0HG@KJDGAKFE@It?5is?5an?5error?5for?5both?5?8length@ ; `string'
PUBLIC	??_C@_0FC@EFACGABJ@It?5is?5an?5error?5for?5both?5?8?$CFs?8?5an@ ; `string'
PUBLIC	??_C@_0EB@JECLPMKG@The?5base?5type?8s?5facet?5is?5?8fixed@ ; `string'
PUBLIC	??_C@_0GD@BCLDHCAD@The?5?8whitespace?8?5value?5has?5to?5b@ ; `string'
PUBLIC	??_C@_0CH@NFDGHLNP@deriving?5facets?0?5creating?5a?5fac@ ; `string'
PUBLIC	??_C@_0BC@JHOAJLMF@an?5error?5occurred@		; `string'
PUBLIC	??_C@_0CB@LPIBFCGM@xmlSchemaDeriveAndValidateFacet@ ; `string'
PUBLIC	??_C@_0CE@OOLPDECC@list?5type?5has?5no?5item?9type?5assi@ ; `string'
PUBLIC	??_C@_0CB@LJIHOMAE@xmlSchemaFixupSimpleTypeStageOn@ ; `string'
PUBLIC	??_C@_0CI@HMJDLBFH@union?5type?5has?5no?5member?9types?5@ ; `string'
PUBLIC	??_C@_0BP@EGJFJLNK@type?5has?5no?5base?9type?5assigned@ ; `string'
PUBLIC	??_C@_0BB@DAFLJMHA@missing?5baseType@		; `string'
PUBLIC	??_C@_0CB@NHIHEMOP@xmlSchemaFixupSimpleTypeStageTw@ ; `string'
PUBLIC	??_C@_0BK@JMGNNAEE@xmlSchemaFixupComplexType@	; `string'
PUBLIC	??_C@_0KG@MFOLBCHA@Internal?5error?3?5xmlSchemaTypeFi@ ; `string'
PUBLIC	??_C@_0IB@IICIOIAO@Internal?5error?3?5xmlSchemaTypeFi@ ; `string'
PUBLIC	??_C@_0GG@NFAALECG@Internal?5error?3?5xmlSchemaTypeFi@ ; `string'
PUBLIC	??_C@_0BAF@GMDKHDD@The?5type?5has?5an?5?8all?8?5model?5gro@ ; `string'
PUBLIC	??_C@_0BAD@EONAGGAE@A?5type?5cannot?5be?5derived?5by?5ext@ ; `string'
PUBLIC	??_C@_0CF@EHENJODP@this?5function?5needs?5a?5parser?5co@ ; `string'
PUBLIC	??_C@_0BD@JIKEDLJK@xmlSchemaTypeFixup@		; `string'
PUBLIC	??_C@_0CK@KJAODNIP@a?5type?5user?5derived?5type?5has?5no@ ; `string'
PUBLIC	??_C@_0BE@GOHHCECA@xmlSchemaCheckFacet@		; `string'
PUBLIC	??_C@_0GP@JDEDDDKD@Internal?5error?3?5xmlSchemaCheckF@ ; `string'
PUBLIC	??_C@_0EJ@BAMFGHGG@The?5value?5?8?$CFs?8?5of?5the?5facet?5doe@ ; `string'
PUBLIC	??_C@_0BH@DKKABPAP@value?5was?5not?5computed@	; `string'
PUBLIC	??_C@_0EI@FMIFFGFN@The?5value?5?8?$CFs?8?5of?5the?5facet?5?8pa@ ; `string'
PUBLIC	??_C@_0BH@ODKMLHFB@validating?5facet?5value@	; `string'
PUBLIC	??_C@_0BD@IEOLADAC@nonNegativeInteger@		; `string'
PUBLIC	??_C@_0BA@PNFEGAHG@positiveInteger@		; `string'
PUBLIC	??_C@_0DF@HPIINFD@The?5value?5?8?$CFs?8?5of?5the?5facet?5?8?$CFs@ ; `string'
PUBLIC	??_C@_08ILAKLJGO@preserve@			; `string'
PUBLIC	??_C@_07CLEHDIEJ@replace@			; `string'
PUBLIC	??_C@_08MHKDLKBN@collapse@			; `string'
PUBLIC	??_C@_0DG@BFJCEJH@The?5value?5?8?$CFs?8?5of?5the?5facet?5?8wh@ ; `string'
PUBLIC	??_C@_0DO@EEBKKJHN@Circular?5reference?5to?5the?5model@ ; `string'
PUBLIC	??_C@_0DH@FDECNJHO@Circular?5reference?5to?5the?5attri@ ; `string'
PUBLIC	??_C@_0CC@JIEJECEC@unexpected?5attr?5prohibition?5fou@ ; `string'
PUBLIC	??_C@_0CC@NLBCMGHN@xmlSchemaExpandAttributeGroupRe@ ; `string'
PUBLIC	??_C@_0HN@PJGMJAIH@Skipping?5pointless?5attribute?5us@ ; `string'
PUBLIC	??_C@_0FF@JBDCKHFC@Value?5constraints?5are?5not?5allow@ ; `string'
PUBLIC	??_C@_0BP@KEKKKHHB@xmlSchemaCheckAttrPropsCorrect@ ; `string'
PUBLIC	??_C@_0CP@DMDDKJIO@The?5value?5of?5the?5value?5constrai@ ; `string'
PUBLIC	??_C@_0EL@CIIJKFO@Only?5global?5element?5declaration@ ; `string'
PUBLIC	??_C@_0FP@ECMLFAOK@The?5element?5declaration?5?8?$CFs?8?5de@ ; `string'
PUBLIC	??_C@_0IO@OBKDAHJI@The?5type?5definition?5?8?$CFs?8?5was?5ei@ ; `string'
PUBLIC	??_C@_0JP@GPCAONIJ@The?5type?5definition?5?$CIor?5type?5de@ ; `string'
PUBLIC	??_C@_0GP@ONEJGEGK@Internal?5error?3?5xmlSchemaCheckE@ ; `string'
PUBLIC	??_C@_0EC@IFGBKADH@failed?5to?5validate?5the?5value?5co@ ; `string'
PUBLIC	??_C@_0BM@INOHADNA@xmlSchemaElemCheckValConstr@	; `string'
PUBLIC	??_C@_0HI@HIFFMALD@A?5model?5group?5definition?5is?5ref@ ; `string'
PUBLIC	??_C@_0HM@EHFKHNMB@The?5attribute?5declaration?5has?5a@ ; `string'
PUBLIC	??_C@_0CC@FBIHIMFL@xmlSchemaCheckAttrUsePropsCorre@ ; `string'
PUBLIC	??_C@_0GP@GLBEFPEK@The?5?8fixed?8?5value?5constraint?5of@ ; `string'
PUBLIC	??_C@_0BP@JCIFOLN@The?5keyref?5references?5a?5keyref@ ; `string'
PUBLIC	??_C@_0FN@FJLAHNCH@The?5cardinality?5of?5the?5keyref?5d@ ; `string'
PUBLIC	??_C@_0EH@DMAILEC@The?5?$CFs?5?8?$CFs?8?5to?5be?5redefined?5cou@ ; `string'
PUBLIC	??_C@_0CE@NJALEOMP@Unexpected?5redefined?5component?5@ ; `string'
PUBLIC	??_C@_0CA@MJPJGEAA@xmlSchemaResolveRedefReferences@ ; `string'
PUBLIC	??_C@_0GG@OLGKEPPA@The?5referenced?5?$CFs?5was?5already?5r@ ; `string'
PUBLIC	??_C@_0CB@EHOCOMPJ@Unexpected?5global?5component?5typ@ ; `string'
PUBLIC	??_C@_0BH@KEIDDOOE@xmlSchemaAddComponents@	; `string'
PUBLIC	??_C@_0CI@HOKAKPAF@failed?5to?5create?5a?5component?5ha@ ; `string'
PUBLIC	??_C@_0CE@NEPGNBMH@A?5global?5?$CFs?5?8?$CFs?8?5does?5already?5e@ ; `string'
PUBLIC	??_C@_0DC@HKCNLJOG@Failed?5to?5locate?5the?5main?5schem@ ; `string'
PUBLIC	??_C@_0CK@PCIDMOBP@Failed?5to?5locate?5the?5main?5schem@ ; `string'
PUBLIC	??_C@_0BL@KBEKBABO@An?5internal?5error?5occurred@ ; `string'
PUBLIC	??_C@_0P@FJHIALID@xmlSchemaParse@		; `string'
PUBLIC	??_C@_0P@DAONFGNJ@Internal?5Error@		; `string'
PUBLIC	??_C@_0BM@JLNHNHFO@no?5parser?5context?5available@ ; `string'
PUBLIC	??_C@_0BM@IPNOOOA@xmlSchemaAssembleByLocation@	; `string'
PUBLIC	??_C@_0DE@OFHLHGBG@The?5document?5at?5location?5?8?$CFs?8?5c@ ; `string'
PUBLIC	??_C@_0FD@KDOLAGPK@The?5value?5must?5consist?5of?5tuple@ ; `string'
PUBLIC	??_C@_0BE@HNFEMNKO@assembling?5schemata@	; `string'
PUBLIC	??_C@_0BH@DHODCNOI@xmlSchemaAssembleByXSI@	; `string'
PUBLIC	??_C@_0CA@LAIFBHAE@no?5node?5or?5node?8s?5doc?5avaliable@ ; `string'
PUBLIC	??_C@_0BJ@NLHBOILD@xmlSchemaLookupNamespace@	; `string'
PUBLIC	??_C@_0CN@LAHJCGKC@a?5schema?5is?5needed?5on?5the?5valid@ ; `string'
PUBLIC	??_C@_0BK@IMJIJGNM@xmlSchemaValidateNotation@	; `string'
PUBLIC	??_C@_0DM@CAHAFNJE@xmlSchemaAugmentIDC?3?5allocating@ ; `string'
PUBLIC	??_C@_0CD@HDBDLPGB@allocating?5a?5PSVI?5IDC?5binding?5i@ ; `string'
PUBLIC	??_C@_0CI@MOGKDPMG@allocating?5the?5IDC?5node?5table?5i@ ; `string'
PUBLIC	??_C@_0CL@PFEMPGNK@re?9allocating?5the?5IDC?5node?5tabl@ ; `string'
PUBLIC	??_C@_0CE@CCLJMNGF@allocating?5the?5IDC?5key?5storage?5@ ; `string'
PUBLIC	??_C@_0CH@OEOHKDEB@re?9allocating?5the?5IDC?5key?5stora@ ; `string'
PUBLIC	??_C@_0CM@BBNGODJA@allocating?5an?5array?5of?5IDC?5node@ ; `string'
PUBLIC	??_C@_0CP@OHLCMMHI@re?9allocating?5an?5array?5of?5IDC?5n@ ; `string'
PUBLIC	??_C@_0BP@KMMMKNDG@allocating?5an?5IDC?5state?5object@ ; `string'
PUBLIC	??_C@_0CN@MKAMKJFE@failed?5to?5create?5an?5XPath?5valid@ ; `string'
PUBLIC	??_C@_0BL@EMBGPHEI@xmlSchemaIDCAddStateObject@	; `string'
PUBLIC	??_C@_0BI@EPLNDPKO@calling?5xmlStreamPush?$CI?$CJ@ ; `string'
PUBLIC	??_C@_0BH@BGCDIJOO@xmlSchemaXPathEvaluate@	; `string'
PUBLIC	??_C@_0CE@OEKMEEHF@allocating?5the?5state?5object?5his@ ; `string'
PUBLIC	??_C@_0CH@CCPCCKFB@re?9allocating?5the?5state?5object?5@ ; `string'
PUBLIC	??_C@_0CE@HGOJGLAG@failed?5to?5compute?5a?5canonical?5v@ ; `string'
PUBLIC	??_C@_0BO@COPGMMIK@xmlSchemaFormatIDCKeySequence@ ; `string'
PUBLIC	??_C@_03BBKEAIF@?$DP?$DP?$DP@			; `string'
PUBLIC	??_C@_01LBDDMOBJ@?$FN@				; `string'
PUBLIC	??_C@_0BH@HBBLPIID@calling?5xmlStreamPop?$CI?$CJ@ ; `string'
PUBLIC	??_C@_0BN@CBHGMMP@xmlSchemaXPathProcessHistory@	; `string'
PUBLIC	??_C@_0FD@MADPFADD@field?5resolves?5to?5a?5CT?5with?5sim@ ; `string'
PUBLIC	??_C@_0EL@FLEKOJFE@The?5XPath?5?8?$CFs?8?5of?5a?5field?5of?5?$CFs@ ; `string'
PUBLIC	??_C@_0GD@IKFFNPGA@Warning?3?5No?5precomputed?5value?5a@ ; `string'
PUBLIC	??_C@_0CF@MLBGNEED@allocating?5an?5array?5of?5key?9sequ@ ; `string'
PUBLIC	??_C@_0CH@LFFCCCHC@reallocating?5an?5array?5of?5key?9se@ ; `string'
PUBLIC	??_C@_0FC@LNIGGAMO@The?5XPath?5?8?$CFs?8?5of?5a?5field?5of?5?$CFs@ ; `string'
PUBLIC	??_C@_0BP@BFFMOABM@allocating?5an?5IDC?5key?9sequence@ ; `string'
PUBLIC	??_C@_0BF@DNPMHACD@allocating?5a?5IDC?5key@	; `string'
PUBLIC	??_C@_0CA@LMIOLKEE@Duplicate?5key?9sequence?5?$CFs?5in?5?$CFs@ ; `string'
PUBLIC	??_C@_0CC@HMFENHHC@allocating?5an?5IDC?5node?9table?5it@ ; `string'
PUBLIC	??_C@_0CI@LOGANEIF@Not?5all?5fields?5of?5?$CFs?5evaluate?5t@ ; `string'
PUBLIC	??_C@_0DM@JEDCDBII@The?5state?5object?5to?5be?5removed?5@ ; `string'
PUBLIC	??_C@_0DC@BCHPJJHO@The?5chain?5of?5IDC?5matchers?5is?5ex@ ; `string'
PUBLIC	??_C@_0BN@FHFHOILP@xmlSchemaIDCRegisterMatchers@ ; `string'
PUBLIC	??_C@_0DL@HKBGOKJP@Could?5not?5find?5an?5augmented?5IDC@ ; `string'
PUBLIC	??_C@_0BK@INNNDFEE@allocating?5an?5IDC?5matcher@ ; `string'
PUBLIC	??_C@_0CI@JFHKHDCD@allocating?5IDC?5list?5of?5node?9tab@ ; `string'
PUBLIC	??_C@_0CL@KOFMLKDP@re?9allocating?5IDC?5list?5of?5node?9@ ; `string'
PUBLIC	??_C@_0DN@GJPPLNCJ@More?5than?5one?5match?5found?5for?5k@ ; `string'
PUBLIC	??_C@_0DC@DKEGLJJH@No?5match?5found?5for?5key?9sequence@ ; `string'
PUBLIC	??_C@_0BP@IEFJMMAN@allocating?5attribute?5info?5list@ ; `string'
PUBLIC	??_C@_0CC@BAMAMEME@re?9allocating?5attribute?5info?5li@ ; `string'
PUBLIC	??_C@_0BG@PFNFPHPM@attr?5info?5not?5cleared@	; `string'
PUBLIC	??_C@_0BK@LKOCBHBB@xmlSchemaGetFreshAttrInfo@	; `string'
PUBLIC	??_C@_0BM@BOOKJCLG@creating?5new?5attribute?5info@ ; `string'
PUBLIC	??_C@_0CE@JCDDMGJO@calling?5xmlSchemaGetFreshAttrIn@ ; `string'
PUBLIC	??_C@_0BH@MIDCNBN@xmlSchemaPushAttribute@	; `string'
PUBLIC	??_C@_03ILAMHENH@nil@				; `string'
PUBLIC	??_C@_0BK@PJGHNDDL@noNamespaceSchemaLocation@	; `string'
PUBLIC	??_C@_0BP@KBPFIFIK@inconsistent?5depth?5encountered@ ; `string'
PUBLIC	??_C@_0BK@HLHJELLH@xmlSchemaGetFreshElemInfo@	; `string'
PUBLIC	??_C@_0CC@CMDKBIBJ@allocating?5the?5element?5info?5arr@ ; `string'
PUBLIC	??_C@_0CF@PDEOBEKK@re?9allocating?5the?5element?5info?5@ ; `string'
PUBLIC	??_C@_0BL@LLLHNEDD@allocating?5an?5element?5info@ ; `string'
PUBLIC	??_C@_0BP@FKKNFHGK@elem?5info?5has?5not?5been?5cleared@ ; `string'
PUBLIC	??_C@_0CH@MOGKKGIH@validating?5against?5a?5atomic?5typ@ ; `string'
PUBLIC	??_C@_0BI@NHJMGMIL@xmlSchemaValidateFacets@	; `string'
PUBLIC	??_C@_0CF@IGJENPFO@validating?5against?5a?5list?5type?5@ ; `string'
PUBLIC	??_C@_0CI@BDJMPJNK@validating?5against?5an?5enumerati@ ; `string'
PUBLIC	??_C@_0CD@GIDABGCK@validating?5against?5a?5pattern?5fa@ ; `string'
PUBLIC	??_C@_0BL@JAPCPOMD@calling?5xmlValidateQName?$CI?$CJ@ ; `string'
PUBLIC	??_C@_0BH@PCDDHFLC@xmlSchemaValidateQName@	; `string'
PUBLIC	??_C@_0EJ@KJCHOIHD@The?5QName?5value?5?8?$CFs?8?5has?5no?5cor@ ; `string'
PUBLIC	??_C@_0CA@NBJHIEJL@could?5not?5get?5the?5built?9in?5type@ ; `string'
PUBLIC	??_C@_0BN@DBANEELH@xmlSchemaVCheckCVCSimpleType@ ; `string'
PUBLIC	??_C@_0CD@GBDHIMIE@validating?5against?5a?5built?9in?5t@ ; `string'
PUBLIC	??_C@_0CI@LPLEHNN@validating?5facets?5of?5atomic?5sim@ ; `string'
PUBLIC	??_C@_0CH@JGMIFPNF@validating?5an?5item?5of?5list?5simp@ ; `string'
PUBLIC	??_C@_0CG@LKPAEBKB@validating?5facets?5of?5list?5simpl@ ; `string'
PUBLIC	??_C@_0CG@NCCHNOHC@union?5simple?5type?5has?5no?5member@ ; `string'
PUBLIC	??_C@_0CI@MOMFK@validating?5members?5of?5union?5sim@ ; `string'
PUBLIC	??_C@_0CH@DGPHKMDI@validating?5facets?5of?5union?5simp@ ; `string'
PUBLIC	??_C@_0EE@GLDMHPJF@calling?5xmlSchemaQNameExpand?$CI?$CJ?5@ ; `string'
PUBLIC	??_C@_0CG@PKILICAE@xmlSchemaValidateElementByDecla@ ; `string'
PUBLIC	??_C@_0FF@GCDILCEF@The?5QName?5value?5?8?$CFs?8?5of?5the?5xsi@ ; `string'
PUBLIC	??_C@_0IH@GEMBEHDJ@The?5type?5definition?5?8?$CFs?8?0?5speci@ ; `string'
PUBLIC	??_C@_0CC@POINHACG@No?5matching?5declaration?5availab@ ; `string'
PUBLIC	??_C@_0CE@FKPBKJME@The?5element?5declaration?5is?5abst@ ; `string'
PUBLIC	??_C@_0BO@GOBNMKOB@The?5type?5definition?5is?5absent@ ; `string'
PUBLIC	??_C@_0EL@BODABIJH@calling?5xmlSchemaVCheckCVCSimpl@ ; `string'
PUBLIC	??_C@_0BK@OGPCMEDL@xmlSchemaValidateElemDecl@	; `string'
PUBLIC	??_C@_0BO@NGOMKCIG@The?5element?5is?5not?5?8nillable?8@ ; `string'
PUBLIC	??_C@_0FI@EHNCBIIJ@The?5element?5cannot?5be?5?8nilled?8?5@ ; `string'
PUBLIC	??_C@_0EG@NIGOCKPL@calling?5xmlSchemaProcessXSIType@ ; `string'
PUBLIC	??_C@_0BM@CHGONAOC@xmlSchemaVAttributesComplex@	; `string'
PUBLIC	??_C@_0CB@OAMKHEAF@calling?5xmlSchemaXPathEvaluate?$CI@ ; `string'
PUBLIC	??_C@_0DM@OLDNNBOE@default?1fixed?5value?5on?5an?5attri@ ; `string'
PUBLIC	??_C@_0BN@NBKJGHAJ@calling?5xmlSchemaCopyValue?$CI?$CJ@ ; `string'
PUBLIC	??_C@_0BF@NILPJKHF@calling?5xmlNewProp?$CI?$CJ@	; `string'
PUBLIC	??_C@_03IKJDKKNH@p?$CFd@			; `string'
PUBLIC	??_C@_0DM@GNILNNDD@could?5not?5compute?5a?5ns?5prefix?5f@ ; `string'
PUBLIC	??_C@_0DB@JPKGGAFI@calling?5xmlSchemaStreamValidate@ ; `string'
PUBLIC	??_C@_0CL@GFEDJBGB@The?5attribute?5?8?$CFs?8?5is?5required?5@ ; `string'
PUBLIC	??_C@_0DO@GPMMNIJO@The?5value?5?8?$CFs?8?5does?5not?5match?5t@ ; `string'
PUBLIC	??_C@_0FI@JBNMNHPF@No?5matching?5global?5attribute?5de@ ; `string'
PUBLIC	??_C@_0O@NAPPEKME@bad?5arguments@		; `string'
PUBLIC	??_C@_0BO@NHKJDFH@xmlSchemaValidateElemWildcard@ ; `string'
PUBLIC	??_C@_0FG@DIJLLKJP@No?5matching?5global?5element?5decl@ ; `string'
PUBLIC	??_C@_0EF@GLDBDLOM@calling?5xmlSchemaProcessXSIType@ ; `string'
PUBLIC	??_C@_0JO@LAEFOCFG@For?5a?5string?5to?5be?5a?5valid?5defa@ ; `string'
PUBLIC	??_C@_0BO@FJAHODBA@xmlSchemaCheckCOSValidDefault@ ; `string'
PUBLIC	??_C@_0CE@ILDABLF@calling?5xmlSchemaGetFreshElemIn@ ; `string'
PUBLIC	??_C@_0BL@GMHMOLCB@xmlSchemaValidatorPushElem@	; `string'
PUBLIC	??_C@_0CB@GNCACIIF@failed?5to?5create?5a?5regex?5contex@ ; `string'
PUBLIC	??_C@_0BK@CPCENKBJ@xmlSchemaValidatorPopElem@	; `string'
PUBLIC	??_C@_0BJ@GMMIGBBG@Missing?5child?5element?$CIs?$CJ@ ; `string'
PUBLIC	??_C@_0CI@FBAKNAMG@calling?5xmlSchemaCheckCOSValidD@ ; `string'
PUBLIC	??_C@_0BF@GPIBFAIA@calling?5xmlNewText?$CI?$CJ@	; `string'
PUBLIC	??_C@_0FE@OJCHDPJF@The?5content?5must?5not?5containt?5e@ ; `string'
PUBLIC	??_C@_0EG@LHINEJAD@The?5initial?5value?5?8?$CFs?8?5does?5not@ ; `string'
PUBLIC	??_C@_0EF@OEHLJDGK@The?5actual?5value?5?8?$CFs?8?5does?5not?5@ ; `string'
PUBLIC	??_C@_0CF@GNGFKIEN@not?5intended?5for?5the?5validation@ ; `string'
PUBLIC	??_C@_0BL@FBELDAFB@xmlSchemaValidateChildElem@	; `string'
PUBLIC	??_C@_0FD@PPFLCKNL@Neither?5character?5nor?5element?5c@ ; `string'
PUBLIC	??_C@_0EC@KOBHHIFI@Element?5content?5is?5not?5allowed?0@ ; `string'
PUBLIC	??_C@_0CL@MKLADNOP@type?5has?5elem?5content?5but?5no?5co@ ; `string'
PUBLIC	??_C@_0DF@OBNAIIEI@validating?5elem?0?5but?5elem?5conte@ ; `string'
PUBLIC	??_C@_0CA@OAIJEHME@calling?5xmlRegExecPushString2?$CI?$CJ@ ; `string'
PUBLIC	??_C@_0BN@MPLEFMDA@This?5element?5is?5not?5expected@ ; `string'
PUBLIC	??_C@_0FF@IENAPLLP@Element?5content?5is?5not?5allowed?0@ ; `string'
PUBLIC	??_C@_0EG@PMDFJIHB@Element?5content?5is?5not?5allowed?0@ ; `string'
PUBLIC	??_C@_0FB@HDMHOBND@Neither?5character?5nor?5element?5c@ ; `string'
PUBLIC	??_C@_0EE@EDDPNAMO@Character?5content?5is?5not?5allowe@ ; `string'
PUBLIC	??_C@_0GC@MDHGDDOF@Character?5content?5other?5than?5wh@ ; `string'
PUBLIC	??_C@_0O@BFNKDIGJ@in?5skip?9state@		; `string'
PUBLIC	??_C@_0BG@PEPPJHKP@xmlSchemaValidateElem@	; `string'
PUBLIC	??_C@_0CO@IEJMJHPB@calling?5xmlSchemaStreamValidate@ ; `string'
PUBLIC	??_C@_0EN@IOLJEJKJ@the?5child?5element?5was?5valid?5but@ ; `string'
PUBLIC	??_C@_0EB@OKNNKHOB@No?5matching?5global?5declaration?5@ ; `string'
PUBLIC	??_C@_0CI@LODHCMEF@calling?5xmlSchemaValidateElemWi@ ; `string'
PUBLIC	??_C@_0CE@OCICNFMI@calling?5xmlSchemaValidateElemDe@ ; `string'
PUBLIC	??_C@_0CA@DHELECIF@The?5type?5definition?5is?5abstract@ ; `string'
PUBLIC	??_C@_0BO@EFEFIODN@calling?5attributes?5validation@ ; `string'
PUBLIC	??_C@_0BN@NAKBGNNM@calling?5xmlSchemaVPushText?$CI?$CJ@ ; `string'
PUBLIC	??_C@_0BP@DDCACDGG@xmlSchemaSAXHandleCDataSection@ ; `string'
PUBLIC	??_C@_0CF@NKADHDNI@calling?5xmlSchemaValidatorPushE@ ; `string'
PUBLIC	??_C@_0CB@PHMCNLEA@xmlSchemaSAXHandleStartElementN@ ; `string'
PUBLIC	??_C@_0DB@LKIJJHFH@allocating?5namespace?5bindings?5f@ ; `string'
PUBLIC	??_C@_0DE@FHEEIBOG@re?9allocating?5namespace?5binding@ ; `string'
PUBLIC	??_C@_0CI@BHABMMOD@allocating?5string?5for?5decoded?5a@ ; `string'
PUBLIC	??_C@_0CK@JPNOGHKO@calling?5xmlSchemaValidatorPushA@ ; `string'
PUBLIC	??_C@_0CA@HCDKBLLH@calling?5xmlSchemaValidateElem?$CI?$CJ@ ; `string'
PUBLIC	??_C@_0BC@LAPBJBJD@elem?5pop?5mismatch@		; `string'
PUBLIC	??_C@_0BP@IODONKBL@xmlSchemaSAXHandleEndElementNs@ ; `string'
PUBLIC	??_C@_0CE@LPDPGHFN@calling?5xmlSchemaValidatorPopEl@ ; `string'
PUBLIC	??_C@_0BO@JGCBGKGF@allocating?5validation?5context@ ; `string'
PUBLIC	??_C@_0CF@IJEICDHG@The?5document?5has?5no?5document?5el@ ; `string'
PUBLIC	??_C@_0BB@JLNPEAHB@xmlSchemaDocWalk@		; `string'
PUBLIC	??_C@_0BC@GLFJEMA@xmlSchemaVDocWalk@		; `string'
PUBLIC	??_C@_0MP@HCAOIGI@there?5is?5at?5least?5one?5entity?5re@ ; `string'
PUBLIC	??_C@_0BK@MHAMFOBD@element?5position?5mismatch@	; `string'
PUBLIC	??_C@_0BI@BPKAPLGE@no?5instance?5to?5validate@	; `string'
PUBLIC	??_C@_0BA@HJOAFKLO@xmlSchemaVStart@		; `string'
EXTRN	_xmlStrdup:PROC
EXTRN	_xmlStrndup:PROC
EXTRN	_xmlCharStrdup:PROC
EXTRN	_xmlStrEqual:PROC
EXTRN	_xmlStrlen:PROC
EXTRN	_xmlStrcat:PROC
EXTRN	_xmlStrncat:PROC
EXTRN	_xmlStrncatNew:PROC
EXTRN	__imp____stdio_common_vfprintf:PROC
EXTRN	__imp____stdio_common_vsprintf:PROC
EXTRN	_xmlEscapeFormatString:PROC
EXTRN	_strchr:PROC
EXTRN	_xmlDictCreate:PROC
EXTRN	_xmlDictReference:PROC
EXTRN	_xmlDictFree:PROC
EXTRN	_xmlDictLookup:PROC
EXTRN	_xmlRegexpCompile:PROC
EXTRN	_xmlRegFreeRegexp:PROC
EXTRN	_xmlRegexpExec:PROC
EXTRN	_xmlRegexpIsDeterminist:PROC
EXTRN	_xmlRegNewExecCtxt:PROC
EXTRN	_xmlRegFreeExecCtxt:PROC
EXTRN	_xmlRegExecPushString:PROC
EXTRN	_xmlRegExecPushString2:PROC
EXTRN	_xmlRegExecNextValues:PROC
EXTRN	_xmlRegExecErrInfo:PROC
EXTRN	_xmlValidateNCName:PROC
EXTRN	_xmlValidateQName:PROC
EXTRN	_xmlSplitQName2:PROC
EXTRN	_xmlSplitQName3:PROC
EXTRN	_xmlNewNs:PROC
EXTRN	_xmlFreeDoc:PROC
EXTRN	_xmlNewProp:PROC
EXTRN	_xmlNewNsProp:PROC
EXTRN	_xmlNewText:PROC
EXTRN	_xmlDocGetRootElement:PROC
EXTRN	_xmlAddChild:PROC
EXTRN	_xmlUnlinkNode:PROC
EXTRN	_xmlFreeNode:PROC
EXTRN	_xmlSearchNs:PROC
EXTRN	_xmlSearchNsByHref:PROC
EXTRN	_xmlGetNsList:PROC
EXTRN	_xmlGetNoNsProp:PROC
EXTRN	_xmlHasProp:PROC
EXTRN	_xmlNodeListGetString:PROC
EXTRN	_xmlNodeGetContent:PROC
EXTRN	_xmlNodeGetSpacePreserve:PROC
EXTRN	_xmlNodeGetBase:PROC
EXTRN	_xmlHashCreateDict:PROC
EXTRN	_xmlHashFree:PROC
EXTRN	_xmlHashAddEntry:PROC
EXTRN	_xmlHashAddEntry2:PROC
EXTRN	_xmlHashLookup:PROC
EXTRN	_xmlHashLookup2:PROC
EXTRN	_xmlHashSize:PROC
EXTRN	_xmlHashScan:PROC
EXTRN	_xmlHashScanFull:PROC
EXTRN	_xmlGetLastError:PROC
EXTRN	___xmlRaiseError:PROC
EXTRN	___xmlSimpleError:PROC
EXTRN	_xmlNewAutomata:PROC
EXTRN	_xmlFreeAutomata:PROC
EXTRN	_xmlAutomataGetInitState:PROC
EXTRN	_xmlAutomataSetFinalState:PROC
EXTRN	_xmlAutomataNewState:PROC
EXTRN	_xmlAutomataNewTransition2:PROC
EXTRN	_xmlAutomataNewNegTrans:PROC
EXTRN	_xmlAutomataNewCountTrans2:PROC
EXTRN	_xmlAutomataNewOnceTrans2:PROC
EXTRN	_xmlAutomataNewAllTrans:PROC
EXTRN	_xmlAutomataNewEpsilon:PROC
EXTRN	_xmlAutomataNewCountedTrans:PROC
EXTRN	_xmlAutomataNewCounterTrans:PROC
EXTRN	_xmlAutomataNewCounter:PROC
EXTRN	_xmlAutomataCompile:PROC
EXTRN	_xmlFreeEnumeration:PROC
EXTRN	_xmlAddID:PROC
EXTRN	_xmlParserInputBufferCreateFilename:PROC
EXTRN	_xmlStopParser:PROC
EXTRN	_xmlParseDocument:PROC
EXTRN	_xmlNewParserCtxt:PROC
EXTRN	_xmlFreeParserCtxt:PROC
EXTRN	_xmlNewIOInputStream:PROC
EXTRN	_xmlCtxtReadFile:PROC
EXTRN	_xmlCtxtReadMemory:PROC
EXTRN	_xmlSAX2GetLineNumber:PROC
EXTRN	___xmlGenericError:PROC
EXTRN	___xmlGenericErrorContext:PROC
EXTRN	_inputPush:PROC
EXTRN	_xmlBuildURI:PROC
EXTRN	_xmlSchemaInitTypes:PROC
EXTRN	_xmlSchemaGetPredefinedType:PROC
EXTRN	_xmlSchemaValidatePredefinedType:PROC
EXTRN	_xmlSchemaValPredefTypeNode:PROC
EXTRN	_xmlSchemaValidateFacetWhtsp:PROC
EXTRN	_xmlSchemaFreeValue:PROC
EXTRN	_xmlSchemaCompareValues:PROC
EXTRN	_xmlSchemaValidateListSimpleTypeFacet:PROC
EXTRN	_xmlSchemaGetBuiltInType:PROC
EXTRN	_xmlSchemaIsBuiltInTypeFacet:PROC
EXTRN	_xmlSchemaCollapseString:PROC
EXTRN	_xmlSchemaWhiteSpaceReplace:PROC
EXTRN	_xmlSchemaGetFacetValueAsULong:PROC
EXTRN	_xmlSchemaValidateLengthFacetWhtsp:PROC
EXTRN	_xmlSchemaValPredefTypeNodeNoNorm:PROC
EXTRN	_xmlSchemaGetCanonValue:PROC
EXTRN	_xmlSchemaValueAppend:PROC
EXTRN	_xmlSchemaValueGetNext:PROC
EXTRN	_xmlSchemaValueGetAsString:PROC
EXTRN	_xmlSchemaValueGetAsBoolean:PROC
EXTRN	_xmlSchemaNewNOTATIONValue:PROC
EXTRN	_xmlSchemaNewQNameValue:PROC
EXTRN	_xmlSchemaCompareValuesWhtsp:PROC
EXTRN	_xmlSchemaCopyValue:PROC
EXTRN	_xmlSchemaGetValType:PROC
EXTRN	_xmlFreePattern:PROC
EXTRN	_xmlPatterncompile:PROC
EXTRN	_xmlPatternGetStreamCtxt:PROC
EXTRN	_xmlFreeStreamCtxt:PROC
EXTRN	_xmlStreamPush:PROC
EXTRN	_xmlStreamPushAttr:PROC
EXTRN	_xmlStreamPop:PROC
EXTRN	_xmlTextReaderLookupNamespace:PROC
EXTRN	@_RTC_CheckStackVars@8:PROC
EXTRN	@__CheckForDebuggerJustMyCode@4:PROC
EXTRN	__RTC_CheckEsp:PROC
EXTRN	__RTC_InitBase:PROC
EXTRN	__RTC_Shutdown:PROC
EXTRN	__RTC_UninitUse:PROC
EXTRN	_memcpy:PROC
EXTRN	_memset:PROC
_DATA	SEGMENT
COMM	?_OptionsStorage@?1??__local_stdio_printf_options@@9@9:QWORD							; `__local_stdio_printf_options'::`2'::_OptionsStorage
_DATA	ENDS
;	COMDAT rtc$TMZ
rtc$TMZ	SEGMENT
__RTC_Shutdown.rtc$TMZ DD FLAT:__RTC_Shutdown
rtc$TMZ	ENDS
;	COMDAT rtc$IMZ
rtc$IMZ	SEGMENT
__RTC_InitBase.rtc$IMZ DD FLAT:__RTC_InitBase
rtc$IMZ	ENDS
;	COMDAT ??_C@_0BA@HJOAFKLO@xmlSchemaVStart@
CONST	SEGMENT
??_C@_0BA@HJOAFKLO@xmlSchemaVStart@ DB 'xmlSchemaVStart', 00H ; `string'
CONST	ENDS
;	COMDAT ??_C@_0BI@BPKAPLGE@no?5instance?5to?5validate@
CONST	SEGMENT
??_C@_0BI@BPKAPLGE@no?5instance?5to?5validate@ DB 'no instance to validat'
	DB	'e', 00H					; `string'
CONST	ENDS
;	COMDAT ??_C@_0BK@MHAMFOBD@element?5position?5mismatch@
CONST	SEGMENT
??_C@_0BK@MHAMFOBD@element?5position?5mismatch@ DB 'element position mism'
	DB	'atch', 00H					; `string'
CONST	ENDS
;	COMDAT ??_C@_0MP@HCAOIGI@there?5is?5at?5least?5one?5entity?5re@
CONST	SEGMENT
??_C@_0MP@HCAOIGI@there?5is?5at?5least?5one?5entity?5re@ DB 'there is at '
	DB	'least one entity reference in the node-tree currently being v'
	DB	'alidated. Processing of entities with this XML Schema process'
	DB	'or is not supported (yet). Please substitute entities before '
	DB	'validation.', 00H				; `string'
CONST	ENDS
;	COMDAT ??_C@_0BC@GLFJEMA@xmlSchemaVDocWalk@
CONST	SEGMENT
??_C@_0BC@GLFJEMA@xmlSchemaVDocWalk@ DB 'xmlSchemaVDocWalk', 00H ; `string'
CONST	ENDS
;	COMDAT ??_C@_0BB@JLNPEAHB@xmlSchemaDocWalk@
CONST	SEGMENT
??_C@_0BB@JLNPEAHB@xmlSchemaDocWalk@ DB 'xmlSchemaDocWalk', 00H ; `string'
CONST	ENDS
;	COMDAT ??_C@_0CF@IJEICDHG@The?5document?5has?5no?5document?5el@
CONST	SEGMENT
??_C@_0CF@IJEICDHG@The?5document?5has?5no?5document?5el@ DB 'The document'
	DB	' has no document element', 00H		; `string'
CONST	ENDS
;	COMDAT ??_C@_0BO@JGCBGKGF@allocating?5validation?5context@
CONST	SEGMENT
??_C@_0BO@JGCBGKGF@allocating?5validation?5context@ DB 'allocating valida'
	DB	'tion context', 00H				; `string'
CONST	ENDS
;	COMDAT ??_C@_0CE@LPDPGHFN@calling?5xmlSchemaValidatorPopEl@
CONST	SEGMENT
??_C@_0CE@LPDPGHFN@calling?5xmlSchemaValidatorPopEl@ DB 'calling xmlSchem'
	DB	'aValidatorPopElem()', 00H			; `string'
CONST	ENDS
;	COMDAT ??_C@_0BP@IODONKBL@xmlSchemaSAXHandleEndElementNs@
CONST	SEGMENT
??_C@_0BP@IODONKBL@xmlSchemaSAXHandleEndElementNs@ DB 'xmlSchemaSAXHandle'
	DB	'EndElementNs', 00H				; `string'
CONST	ENDS
;	COMDAT ??_C@_0BC@LAPBJBJD@elem?5pop?5mismatch@
CONST	SEGMENT
??_C@_0BC@LAPBJBJD@elem?5pop?5mismatch@ DB 'elem pop mismatch', 00H ; `string'
CONST	ENDS
;	COMDAT ??_C@_0CA@HCDKBLLH@calling?5xmlSchemaValidateElem?$CI?$CJ@
CONST	SEGMENT
??_C@_0CA@HCDKBLLH@calling?5xmlSchemaValidateElem?$CI?$CJ@ DB 'calling xm'
	DB	'lSchemaValidateElem()', 00H			; `string'
CONST	ENDS
;	COMDAT ??_C@_0CK@JPNOGHKO@calling?5xmlSchemaValidatorPushA@
CONST	SEGMENT
??_C@_0CK@JPNOGHKO@calling?5xmlSchemaValidatorPushA@ DB 'calling xmlSchem'
	DB	'aValidatorPushAttribute()', 00H		; `string'
CONST	ENDS
;	COMDAT ??_C@_0CI@BHABMMOD@allocating?5string?5for?5decoded?5a@
CONST	SEGMENT
??_C@_0CI@BHABMMOD@allocating?5string?5for?5decoded?5a@ DB 'allocating st'
	DB	'ring for decoded attribute', 00H		; `string'
CONST	ENDS
;	COMDAT ??_C@_0DE@FHEEIBOG@re?9allocating?5namespace?5binding@
CONST	SEGMENT
??_C@_0DE@FHEEIBOG@re?9allocating?5namespace?5binding@ DB 're-allocating '
	DB	'namespace bindings for SAX validation', 00H	; `string'
CONST	ENDS
;	COMDAT ??_C@_0DB@LKIJJHFH@allocating?5namespace?5bindings?5f@
CONST	SEGMENT
??_C@_0DB@LKIJJHFH@allocating?5namespace?5bindings?5f@ DB 'allocating nam'
	DB	'espace bindings for SAX validation', 00H	; `string'
CONST	ENDS
;	COMDAT ??_C@_0CB@PHMCNLEA@xmlSchemaSAXHandleStartElementN@
CONST	SEGMENT
??_C@_0CB@PHMCNLEA@xmlSchemaSAXHandleStartElementN@ DB 'xmlSchemaSAXHandl'
	DB	'eStartElementNs', 00H			; `string'
CONST	ENDS
;	COMDAT ??_C@_0CF@NKADHDNI@calling?5xmlSchemaValidatorPushE@
CONST	SEGMENT
??_C@_0CF@NKADHDNI@calling?5xmlSchemaValidatorPushE@ DB 'calling xmlSchem'
	DB	'aValidatorPushElem()', 00H			; `string'
CONST	ENDS
;	COMDAT ??_C@_0BP@DDCACDGG@xmlSchemaSAXHandleCDataSection@
CONST	SEGMENT
??_C@_0BP@DDCACDGG@xmlSchemaSAXHandleCDataSection@ DB 'xmlSchemaSAXHandle'
	DB	'CDataSection', 00H				; `string'
CONST	ENDS
;	COMDAT ??_C@_0BN@NAKBGNNM@calling?5xmlSchemaVPushText?$CI?$CJ@
CONST	SEGMENT
??_C@_0BN@NAKBGNNM@calling?5xmlSchemaVPushText?$CI?$CJ@ DB 'calling xmlSc'
	DB	'hemaVPushText()', 00H			; `string'
CONST	ENDS
;	COMDAT ??_C@_0BO@EFEFIODN@calling?5attributes?5validation@
CONST	SEGMENT
??_C@_0BO@EFEFIODN@calling?5attributes?5validation@ DB 'calling attribute'
	DB	's validation', 00H				; `string'
CONST	ENDS
;	COMDAT ??_C@_0CA@DHELECIF@The?5type?5definition?5is?5abstract@
CONST	SEGMENT
??_C@_0CA@DHELECIF@The?5type?5definition?5is?5abstract@ DB 'The type defi'
	DB	'nition is abstract', 00H			; `string'
CONST	ENDS
;	COMDAT ??_C@_0CE@OCICNFMI@calling?5xmlSchemaValidateElemDe@
CONST	SEGMENT
??_C@_0CE@OCICNFMI@calling?5xmlSchemaValidateElemDe@ DB 'calling xmlSchem'
	DB	'aValidateElemDecl()', 00H			; `string'
CONST	ENDS
;	COMDAT ??_C@_0CI@LODHCMEF@calling?5xmlSchemaValidateElemWi@
CONST	SEGMENT
??_C@_0CI@LODHCMEF@calling?5xmlSchemaValidateElemWi@ DB 'calling xmlSchem'
	DB	'aValidateElemWildcard()', 00H		; `string'
CONST	ENDS
;	COMDAT ??_C@_0EB@OKNNKHOB@No?5matching?5global?5declaration?5@
CONST	SEGMENT
??_C@_0EB@OKNNKHOB@No?5matching?5global?5declaration?5@ DB 'No matching g'
	DB	'lobal declaration available for the validation root', 00H ; `string'
CONST	ENDS
;	COMDAT ??_C@_0EN@IOLJEJKJ@the?5child?5element?5was?5valid?5but@
CONST	SEGMENT
??_C@_0EN@IOLJEJKJ@the?5child?5element?5was?5valid?5but@ DB 'the child el'
	DB	'ement was valid but neither the declaration nor the type was '
	DB	'set', 00H					; `string'
CONST	ENDS
;	COMDAT ??_C@_0CO@IEJMJHPB@calling?5xmlSchemaStreamValidate@
CONST	SEGMENT
??_C@_0CO@IEJMJHPB@calling?5xmlSchemaStreamValidate@ DB 'calling xmlSchem'
	DB	'aStreamValidateChildElement()', 00H		; `string'
CONST	ENDS
;	COMDAT ??_C@_0BG@PEPPJHKP@xmlSchemaValidateElem@
CONST	SEGMENT
??_C@_0BG@PEPPJHKP@xmlSchemaValidateElem@ DB 'xmlSchemaValidateElem', 00H ; `string'
CONST	ENDS
;	COMDAT ??_C@_0O@BFNKDIGJ@in?5skip?9state@
CONST	SEGMENT
??_C@_0O@BFNKDIGJ@in?5skip?9state@ DB 'in skip-state', 00H ; `string'
CONST	ENDS
;	COMDAT ??_C@_0GC@MDHGDDOF@Character?5content?5other?5than?5wh@
CONST	SEGMENT
??_C@_0GC@MDHGDDOF@Character?5content?5other?5than?5wh@ DB 'Character con'
	DB	'tent other than whitespace is not allowed because the content'
	DB	' type is ''element-only''', 00H		; `string'
CONST	ENDS
;	COMDAT ??_C@_0EE@EDDPNAMO@Character?5content?5is?5not?5allowe@
CONST	SEGMENT
??_C@_0EE@EDDPNAMO@Character?5content?5is?5not?5allowe@ DB 'Character con'
	DB	'tent is not allowed, because the content type is empty', 00H ; `string'
CONST	ENDS
;	COMDAT ??_C@_0FB@HDMHOBND@Neither?5character?5nor?5element?5c@
CONST	SEGMENT
??_C@_0FB@HDMHOBND@Neither?5character?5nor?5element?5c@ DB 'Neither chara'
	DB	'cter nor element content is allowed because the element is '''
	DB	'nilled''', 00H				; `string'
CONST	ENDS
;	COMDAT ??_C@_0EG@PMDFJIHB@Element?5content?5is?5not?5allowed?0@
CONST	SEGMENT
??_C@_0EG@PMDFJIHB@Element?5content?5is?5not?5allowed?0@ DB 'Element cont'
	DB	'ent is not allowed, because the type definition is simple', 00H ; `string'
CONST	ENDS
;	COMDAT ??_C@_0FF@IENAPLLP@Element?5content?5is?5not?5allowed?0@
CONST	SEGMENT
??_C@_0FF@IENAPLLP@Element?5content?5is?5not?5allowed?0@ DB 'Element cont'
	DB	'ent is not allowed, because the content type is a simple type'
	DB	' definition', 00H				; `string'
CONST	ENDS
;	COMDAT ??_C@_0BN@MPLEFMDA@This?5element?5is?5not?5expected@
CONST	SEGMENT
??_C@_0BN@MPLEFMDA@This?5element?5is?5not?5expected@ DB 'This element is '
	DB	'not expected', 00H				; `string'
CONST	ENDS
;	COMDAT ??_C@_0CA@OAIJEHME@calling?5xmlRegExecPushString2?$CI?$CJ@
CONST	SEGMENT
??_C@_0CA@OAIJEHME@calling?5xmlRegExecPushString2?$CI?$CJ@ DB 'calling xm'
	DB	'lRegExecPushString2()', 00H			; `string'
CONST	ENDS
;	COMDAT ??_C@_0DF@OBNAIIEI@validating?5elem?0?5but?5elem?5conte@
CONST	SEGMENT
??_C@_0DF@OBNAIIEI@validating?5elem?0?5but?5elem?5conte@ DB 'validating e'
	DB	'lem, but elem content is already invalid', 00H ; `string'
CONST	ENDS
;	COMDAT ??_C@_0CL@MKLADNOP@type?5has?5elem?5content?5but?5no?5co@
CONST	SEGMENT
??_C@_0CL@MKLADNOP@type?5has?5elem?5content?5but?5no?5co@ DB 'type has el'
	DB	'em content but no content model', 00H	; `string'
CONST	ENDS
;	COMDAT ??_C@_0EC@KOBHHIFI@Element?5content?5is?5not?5allowed?0@
CONST	SEGMENT
??_C@_0EC@KOBHHIFI@Element?5content?5is?5not?5allowed?0@ DB 'Element cont'
	DB	'ent is not allowed, because the content type is empty', 00H ; `string'
CONST	ENDS
;	COMDAT ??_C@_0FD@PPFLCKNL@Neither?5character?5nor?5element?5c@
CONST	SEGMENT
??_C@_0FD@PPFLCKNL@Neither?5character?5nor?5element?5c@ DB 'Neither chara'
	DB	'cter nor element content is allowed, because the element was '
	DB	'''nilled''', 00H				; `string'
CONST	ENDS
;	COMDAT ??_C@_0BL@FBELDAFB@xmlSchemaValidateChildElem@
CONST	SEGMENT
??_C@_0BL@FBELDAFB@xmlSchemaValidateChildElem@ DB 'xmlSchemaValidateChild'
	DB	'Elem', 00H					; `string'
CONST	ENDS
;	COMDAT ??_C@_0CF@GNGFKIEN@not?5intended?5for?5the?5validation@
CONST	SEGMENT
??_C@_0CF@GNGFKIEN@not?5intended?5for?5the?5validation@ DB 'not intended '
	DB	'for the validation root', 00H		; `string'
CONST	ENDS
;	COMDAT ??_C@_0EF@OEHLJDGK@The?5actual?5value?5?8?$CFs?8?5does?5not?5@
CONST	SEGMENT
??_C@_0EF@OEHLJDGK@The?5actual?5value?5?8?$CFs?8?5does?5not?5@ DB 'The ac'
	DB	'tual value ''%s'' does not match the fixed value constraint '''
	DB	'%s''', 00H					; `string'
CONST	ENDS
;	COMDAT ??_C@_0EG@LHINEJAD@The?5initial?5value?5?8?$CFs?8?5does?5not@
CONST	SEGMENT
??_C@_0EG@LHINEJAD@The?5initial?5value?5?8?$CFs?8?5does?5not@ DB 'The ini'
	DB	'tial value ''%s'' does not match the fixed value constraint '''
	DB	'%s''', 00H					; `string'
CONST	ENDS
;	COMDAT ??_C@_0FE@OJCHDPJF@The?5content?5must?5not?5containt?5e@
CONST	SEGMENT
??_C@_0FE@OJCHDPJF@The?5content?5must?5not?5containt?5e@ DB 'The content '
	DB	'must not containt element nodes since there is a fixed value '
	DB	'constraint', 00H				; `string'
CONST	ENDS
;	COMDAT ??_C@_0BF@GPIBFAIA@calling?5xmlNewText?$CI?$CJ@
CONST	SEGMENT
??_C@_0BF@GPIBFAIA@calling?5xmlNewText?$CI?$CJ@ DB 'calling xmlNewText()', 00H ; `string'
CONST	ENDS
;	COMDAT ??_C@_0CI@FBAKNAMG@calling?5xmlSchemaCheckCOSValidD@
CONST	SEGMENT
??_C@_0CI@FBAKNAMG@calling?5xmlSchemaCheckCOSValidD@ DB 'calling xmlSchem'
	DB	'aCheckCOSValidDefault()', 00H		; `string'
CONST	ENDS
;	COMDAT ??_C@_0BJ@GMMIGBBG@Missing?5child?5element?$CIs?$CJ@
CONST	SEGMENT
??_C@_0BJ@GMMIGBBG@Missing?5child?5element?$CIs?$CJ@ DB 'Missing child el'
	DB	'ement(s)', 00H				; `string'
CONST	ENDS
;	COMDAT ??_C@_0BK@CPCENKBJ@xmlSchemaValidatorPopElem@
CONST	SEGMENT
??_C@_0BK@CPCENKBJ@xmlSchemaValidatorPopElem@ DB 'xmlSchemaValidatorPopEl'
	DB	'em', 00H					; `string'
CONST	ENDS
;	COMDAT ??_C@_0CB@GNCACIIF@failed?5to?5create?5a?5regex?5contex@
CONST	SEGMENT
??_C@_0CB@GNCACIIF@failed?5to?5create?5a?5regex?5contex@ DB 'failed to cr'
	DB	'eate a regex context', 00H			; `string'
CONST	ENDS
;	COMDAT ??_C@_0BL@GMHMOLCB@xmlSchemaValidatorPushElem@
CONST	SEGMENT
??_C@_0BL@GMHMOLCB@xmlSchemaValidatorPushElem@ DB 'xmlSchemaValidatorPush'
	DB	'Elem', 00H					; `string'
CONST	ENDS
;	COMDAT ??_C@_0CE@ILDABLF@calling?5xmlSchemaGetFreshElemIn@
CONST	SEGMENT
??_C@_0CE@ILDABLF@calling?5xmlSchemaGetFreshElemIn@ DB 'calling xmlSchema'
	DB	'GetFreshElemInfo()', 00H			; `string'
CONST	ENDS
;	COMDAT ??_C@_0BO@FJAHODBA@xmlSchemaCheckCOSValidDefault@
CONST	SEGMENT
??_C@_0BO@FJAHODBA@xmlSchemaCheckCOSValidDefault@ DB 'xmlSchemaCheckCOSVa'
	DB	'lidDefault', 00H				; `string'
CONST	ENDS
;	COMDAT ??_C@_0JO@LAEFOCFG@For?5a?5string?5to?5be?5a?5valid?5defa@
CONST	SEGMENT
??_C@_0JO@LAEFOCFG@For?5a?5string?5to?5be?5a?5valid?5defa@ DB 'For a stri'
	DB	'ng to be a valid default, the type definition must be a simpl'
	DB	'e type or a complex type with simple content or mixed content'
	DB	' and a particle emptiable', 00H		; `string'
CONST	ENDS
;	COMDAT ??_C@_0EF@GLDBDLOM@calling?5xmlSchemaProcessXSIType@
CONST	SEGMENT
??_C@_0EF@GLDBDLOM@calling?5xmlSchemaProcessXSIType@ DB 'calling xmlSchem'
	DB	'aProcessXSIType() to process the attribute ''xsi:nil''', 00H ; `string'
CONST	ENDS
;	COMDAT ??_C@_0FG@DIJLLKJP@No?5matching?5global?5element?5decl@
CONST	SEGMENT
??_C@_0FG@DIJLLKJP@No?5matching?5global?5element?5decl@ DB 'No matching g'
	DB	'lobal element declaration available, but demanded by the stri'
	DB	'ct wildcard', 00H				; `string'
CONST	ENDS
;	COMDAT ??_C@_0BO@NHKJDFH@xmlSchemaValidateElemWildcard@
CONST	SEGMENT
??_C@_0BO@NHKJDFH@xmlSchemaValidateElemWildcard@ DB 'xmlSchemaValidateEle'
	DB	'mWildcard', 00H				; `string'
CONST	ENDS
;	COMDAT ??_C@_0O@NAPPEKME@bad?5arguments@
CONST	SEGMENT
??_C@_0O@NAPPEKME@bad?5arguments@ DB 'bad arguments', 00H ; `string'
CONST	ENDS
;	COMDAT ??_C@_0FI@JBNMNHPF@No?5matching?5global?5attribute?5de@
CONST	SEGMENT
??_C@_0FI@JBNMNHPF@No?5matching?5global?5attribute?5de@ DB 'No matching g'
	DB	'lobal attribute declaration available, but demanded by the st'
	DB	'rict wildcard', 00H				; `string'
CONST	ENDS
;	COMDAT ??_C@_0DO@GPMMNIJO@The?5value?5?8?$CFs?8?5does?5not?5match?5t@
CONST	SEGMENT
??_C@_0DO@GPMMNIJO@The?5value?5?8?$CFs?8?5does?5not?5match?5t@ DB 'The va'
	DB	'lue ''%s'' does not match the fixed value constraint ''%s''', 00H ; `string'
CONST	ENDS
;	COMDAT ??_C@_0CL@GFEDJBGB@The?5attribute?5?8?$CFs?8?5is?5required?5@
CONST	SEGMENT
??_C@_0CL@GFEDJBGB@The?5attribute?5?8?$CFs?8?5is?5required?5@ DB 'The att'
	DB	'ribute ''%s'' is required but missing', 00H	; `string'
CONST	ENDS
;	COMDAT ??_C@_0DB@JPKGGAFI@calling?5xmlSchemaStreamValidate@
CONST	SEGMENT
??_C@_0DB@JPKGGAFI@calling?5xmlSchemaStreamValidate@ DB 'calling xmlSchem'
	DB	'aStreamValidateSimpleTypeValue()', 00H	; `string'
CONST	ENDS
;	COMDAT ??_C@_0DM@GNILNNDD@could?5not?5compute?5a?5ns?5prefix?5f@
CONST	SEGMENT
??_C@_0DM@GNILNNDD@could?5not?5compute?5a?5ns?5prefix?5f@ DB 'could not c'
	DB	'ompute a ns prefix for a default/fixed attribute', 00H ; `string'
CONST	ENDS
;	COMDAT ??_C@_03IKJDKKNH@p?$CFd@
CONST	SEGMENT
??_C@_03IKJDKKNH@p?$CFd@ DB 'p%d', 00H			; `string'
CONST	ENDS
;	COMDAT ??_C@_0BF@NILPJKHF@calling?5xmlNewProp?$CI?$CJ@
CONST	SEGMENT
??_C@_0BF@NILPJKHF@calling?5xmlNewProp?$CI?$CJ@ DB 'calling xmlNewProp()', 00H ; `string'
CONST	ENDS
;	COMDAT ??_C@_0BN@NBKJGHAJ@calling?5xmlSchemaCopyValue?$CI?$CJ@
CONST	SEGMENT
??_C@_0BN@NBKJGHAJ@calling?5xmlSchemaCopyValue?$CI?$CJ@ DB 'calling xmlSc'
	DB	'hemaCopyValue()', 00H			; `string'
CONST	ENDS
;	COMDAT ??_C@_0DM@OLDNNBOE@default?1fixed?5value?5on?5an?5attri@
CONST	SEGMENT
??_C@_0DM@OLDNNBOE@default?1fixed?5value?5on?5an?5attri@ DB 'default/fixe'
	DB	'd value on an attribute use was not precomputed', 00H ; `string'
CONST	ENDS
;	COMDAT ??_C@_0CB@OAMKHEAF@calling?5xmlSchemaXPathEvaluate?$CI@
CONST	SEGMENT
??_C@_0CB@OAMKHEAF@calling?5xmlSchemaXPathEvaluate?$CI@ DB 'calling xmlSc'
	DB	'hemaXPathEvaluate()', 00H			; `string'
CONST	ENDS
;	COMDAT ??_C@_0BM@CHGONAOC@xmlSchemaVAttributesComplex@
CONST	SEGMENT
??_C@_0BM@CHGONAOC@xmlSchemaVAttributesComplex@ DB 'xmlSchemaVAttributesC'
	DB	'omplex', 00H				; `string'
CONST	ENDS
;	COMDAT ??_C@_0EG@NIGOCKPL@calling?5xmlSchemaProcessXSIType@
CONST	SEGMENT
??_C@_0EG@NIGOCKPL@calling?5xmlSchemaProcessXSIType@ DB 'calling xmlSchem'
	DB	'aProcessXSIType() to process the attribute ''xsi:type''', 00H ; `string'
CONST	ENDS
;	COMDAT ??_C@_0FI@EHNCBIIJ@The?5element?5cannot?5be?5?8nilled?8?5@
CONST	SEGMENT
??_C@_0FI@EHNCBIIJ@The?5element?5cannot?5be?5?8nilled?8?5@ DB 'The elemen'
	DB	't cannot be ''nilled'' because there is a fixed value constra'
	DB	'int defined for it', 00H			; `string'
CONST	ENDS
;	COMDAT ??_C@_0BO@NGOMKCIG@The?5element?5is?5not?5?8nillable?8@
CONST	SEGMENT
??_C@_0BO@NGOMKCIG@The?5element?5is?5not?5?8nillable?8@ DB 'The element i'
	DB	's not ''nillable''', 00H			; `string'
CONST	ENDS
;	COMDAT ??_C@_0BK@OGPCMEDL@xmlSchemaValidateElemDecl@
CONST	SEGMENT
??_C@_0BK@OGPCMEDL@xmlSchemaValidateElemDecl@ DB 'xmlSchemaValidateElemDe'
	DB	'cl', 00H					; `string'
CONST	ENDS
;	COMDAT ??_C@_0EL@BODABIJH@calling?5xmlSchemaVCheckCVCSimpl@
CONST	SEGMENT
??_C@_0EL@BODABIJH@calling?5xmlSchemaVCheckCVCSimpl@ DB 'calling xmlSchem'
	DB	'aVCheckCVCSimpleType() to validate the attribute ''xsi:nil''', 00H ; `string'
CONST	ENDS
;	COMDAT ??_C@_0BO@GOBNMKOB@The?5type?5definition?5is?5absent@
CONST	SEGMENT
??_C@_0BO@GOBNMKOB@The?5type?5definition?5is?5absent@ DB 'The type defini'
	DB	'tion is absent', 00H			; `string'
CONST	ENDS
;	COMDAT ??_C@_0CE@FKPBKJME@The?5element?5declaration?5is?5abst@
CONST	SEGMENT
??_C@_0CE@FKPBKJME@The?5element?5declaration?5is?5abst@ DB 'The element d'
	DB	'eclaration is abstract', 00H		; `string'
CONST	ENDS
;	COMDAT ??_C@_0CC@POINHACG@No?5matching?5declaration?5availab@
CONST	SEGMENT
??_C@_0CC@POINHACG@No?5matching?5declaration?5availab@ DB 'No matching de'
	DB	'claration available', 00H			; `string'
CONST	ENDS
;	COMDAT ??_C@_0IH@GEMBEHDJ@The?5type?5definition?5?8?$CFs?8?0?5speci@
CONST	SEGMENT
??_C@_0IH@GEMBEHDJ@The?5type?5definition?5?8?$CFs?8?0?5speci@ DB 'The typ'
	DB	'e definition ''%s'', specified by xsi:type, is blocked or not'
	DB	' validly derived from the type definition of the element decl'
	DB	'aration', 00H				; `string'
CONST	ENDS
;	COMDAT ??_C@_0FF@GCDILCEF@The?5QName?5value?5?8?$CFs?8?5of?5the?5xsi@
CONST	SEGMENT
??_C@_0FF@GCDILCEF@The?5QName?5value?5?8?$CFs?8?5of?5the?5xsi@ DB 'The QN'
	DB	'ame value ''%s'' of the xsi:type attribute does not resolve t'
	DB	'o a type definition', 00H			; `string'
CONST	ENDS
;	COMDAT ??_C@_0CG@PKILICAE@xmlSchemaValidateElementByDecla@
CONST	SEGMENT
??_C@_0CG@PKILICAE@xmlSchemaValidateElementByDecla@ DB 'xmlSchemaValidate'
	DB	'ElementByDeclaration', 00H			; `string'
CONST	ENDS
;	COMDAT ??_C@_0EE@GLDMHPJF@calling?5xmlSchemaQNameExpand?$CI?$CJ?5@
CONST	SEGMENT
??_C@_0EE@GLDMHPJF@calling?5xmlSchemaQNameExpand?$CI?$CJ?5@ DB 'calling x'
	DB	'mlSchemaQNameExpand() to validate the attribute ''xsi:type''', 00H ; `string'
CONST	ENDS
;	COMDAT ??_C@_0CH@DGPHKMDI@validating?5facets?5of?5union?5simp@
CONST	SEGMENT
??_C@_0CH@DGPHKMDI@validating?5facets?5of?5union?5simp@ DB 'validating fa'
	DB	'cets of union simple type', 00H		; `string'
CONST	ENDS
;	COMDAT ??_C@_0CI@MOMFK@validating?5members?5of?5union?5sim@
CONST	SEGMENT
??_C@_0CI@MOMFK@validating?5members?5of?5union?5sim@ DB 'validating membe'
	DB	'rs of union simple type', 00H		; `string'
CONST	ENDS
;	COMDAT ??_C@_0CG@NCCHNOHC@union?5simple?5type?5has?5no?5member@
CONST	SEGMENT
??_C@_0CG@NCCHNOHC@union?5simple?5type?5has?5no?5member@ DB 'union simple'
	DB	' type has no member types', 00H		; `string'
CONST	ENDS
;	COMDAT ??_C@_0CG@LKPAEBKB@validating?5facets?5of?5list?5simpl@
CONST	SEGMENT
??_C@_0CG@LKPAEBKB@validating?5facets?5of?5list?5simpl@ DB 'validating fa'
	DB	'cets of list simple type', 00H		; `string'
CONST	ENDS
;	COMDAT ??_C@_0CH@JGMIFPNF@validating?5an?5item?5of?5list?5simp@
CONST	SEGMENT
??_C@_0CH@JGMIFPNF@validating?5an?5item?5of?5list?5simp@ DB 'validating a'
	DB	'n item of list simple type', 00H		; `string'
CONST	ENDS
;	COMDAT ??_C@_0CI@LPLEHNN@validating?5facets?5of?5atomic?5sim@
CONST	SEGMENT
??_C@_0CI@LPLEHNN@validating?5facets?5of?5atomic?5sim@ DB 'validating fac'
	DB	'ets of atomic simple type', 00H		; `string'
CONST	ENDS
;	COMDAT ??_C@_0CD@GBDHIMIE@validating?5against?5a?5built?9in?5t@
CONST	SEGMENT
??_C@_0CD@GBDHIMIE@validating?5against?5a?5built?9in?5t@ DB 'validating a'
	DB	'gainst a built-in type', 00H		; `string'
CONST	ENDS
;	COMDAT ??_C@_0BN@DBANEELH@xmlSchemaVCheckCVCSimpleType@
CONST	SEGMENT
??_C@_0BN@DBANEELH@xmlSchemaVCheckCVCSimpleType@ DB 'xmlSchemaVCheckCVCSi'
	DB	'mpleType', 00H				; `string'
CONST	ENDS
;	COMDAT ??_C@_0CA@NBJHIEJL@could?5not?5get?5the?5built?9in?5type@
CONST	SEGMENT
??_C@_0CA@NBJHIEJL@could?5not?5get?5the?5built?9in?5type@ DB 'could not g'
	DB	'et the built-in type', 00H			; `string'
CONST	ENDS
;	COMDAT ??_C@_0EJ@KJCHOIHD@The?5QName?5value?5?8?$CFs?8?5has?5no?5cor@
CONST	SEGMENT
??_C@_0EJ@KJCHOIHD@The?5QName?5value?5?8?$CFs?8?5has?5no?5cor@ DB 'The QN'
	DB	'ame value ''%s'' has no corresponding namespace declaration i'
	DB	'n scope', 00H				; `string'
CONST	ENDS
;	COMDAT ??_C@_0BH@PCDDHFLC@xmlSchemaValidateQName@
CONST	SEGMENT
??_C@_0BH@PCDDHFLC@xmlSchemaValidateQName@ DB 'xmlSchemaValidateQName', 00H ; `string'
CONST	ENDS
;	COMDAT ??_C@_0BL@JAPCPOMD@calling?5xmlValidateQName?$CI?$CJ@
CONST	SEGMENT
??_C@_0BL@JAPCPOMD@calling?5xmlValidateQName?$CI?$CJ@ DB 'calling xmlVali'
	DB	'dateQName()', 00H				; `string'
CONST	ENDS
;	COMDAT ??_C@_0CD@GIDABGCK@validating?5against?5a?5pattern?5fa@
CONST	SEGMENT
??_C@_0CD@GIDABGCK@validating?5against?5a?5pattern?5fa@ DB 'validating ag'
	DB	'ainst a pattern facet', 00H			; `string'
CONST	ENDS
;	COMDAT ??_C@_0CI@BDJMPJNK@validating?5against?5an?5enumerati@
CONST	SEGMENT
??_C@_0CI@BDJMPJNK@validating?5against?5an?5enumerati@ DB 'validating aga'
	DB	'inst an enumeration facet', 00H		; `string'
CONST	ENDS
;	COMDAT ??_C@_0CF@IGJENPFO@validating?5against?5a?5list?5type?5@
CONST	SEGMENT
??_C@_0CF@IGJENPFO@validating?5against?5a?5list?5type?5@ DB 'validating a'
	DB	'gainst a list type facet', 00H		; `string'
CONST	ENDS
;	COMDAT ??_C@_0BI@NHJMGMIL@xmlSchemaValidateFacets@
CONST	SEGMENT
??_C@_0BI@NHJMGMIL@xmlSchemaValidateFacets@ DB 'xmlSchemaValidateFacets', 00H ; `string'
CONST	ENDS
;	COMDAT ??_C@_0CH@MOGKKGIH@validating?5against?5a?5atomic?5typ@
CONST	SEGMENT
??_C@_0CH@MOGKKGIH@validating?5against?5a?5atomic?5typ@ DB 'validating ag'
	DB	'ainst a atomic type facet', 00H		; `string'
CONST	ENDS
;	COMDAT ??_C@_0BP@FKKNFHGK@elem?5info?5has?5not?5been?5cleared@
CONST	SEGMENT
??_C@_0BP@FKKNFHGK@elem?5info?5has?5not?5been?5cleared@ DB 'elem info has'
	DB	' not been cleared', 00H			; `string'
CONST	ENDS
;	COMDAT ??_C@_0BL@LLLHNEDD@allocating?5an?5element?5info@
CONST	SEGMENT
??_C@_0BL@LLLHNEDD@allocating?5an?5element?5info@ DB 'allocating an eleme'
	DB	'nt info', 00H				; `string'
CONST	ENDS
;	COMDAT ??_C@_0CF@PDEOBEKK@re?9allocating?5the?5element?5info?5@
CONST	SEGMENT
??_C@_0CF@PDEOBEKK@re?9allocating?5the?5element?5info?5@ DB 're-allocatin'
	DB	'g the element info array', 00H		; `string'
CONST	ENDS
;	COMDAT ??_C@_0CC@CMDKBIBJ@allocating?5the?5element?5info?5arr@
CONST	SEGMENT
??_C@_0CC@CMDKBIBJ@allocating?5the?5element?5info?5arr@ DB 'allocating th'
	DB	'e element info array', 00H			; `string'
CONST	ENDS
;	COMDAT ??_C@_0BK@HLHJELLH@xmlSchemaGetFreshElemInfo@
CONST	SEGMENT
??_C@_0BK@HLHJELLH@xmlSchemaGetFreshElemInfo@ DB 'xmlSchemaGetFreshElemIn'
	DB	'fo', 00H					; `string'
CONST	ENDS
;	COMDAT ??_C@_0BP@KBPFIFIK@inconsistent?5depth?5encountered@
CONST	SEGMENT
??_C@_0BP@KBPFIFIK@inconsistent?5depth?5encountered@ DB 'inconsistent dep'
	DB	'th encountered', 00H			; `string'
CONST	ENDS
;	COMDAT ??_C@_0BK@PJGHNDDL@noNamespaceSchemaLocation@
CONST	SEGMENT
??_C@_0BK@PJGHNDDL@noNamespaceSchemaLocation@ DB 'noNamespaceSchemaLocati'
	DB	'on', 00H					; `string'
CONST	ENDS
;	COMDAT ??_C@_03ILAMHENH@nil@
CONST	SEGMENT
??_C@_03ILAMHENH@nil@ DB 'nil', 00H			; `string'
CONST	ENDS
;	COMDAT ??_C@_0BH@MIDCNBN@xmlSchemaPushAttribute@
CONST	SEGMENT
??_C@_0BH@MIDCNBN@xmlSchemaPushAttribute@ DB 'xmlSchemaPushAttribute', 00H ; `string'
CONST	ENDS
;	COMDAT ??_C@_0CE@JCDDMGJO@calling?5xmlSchemaGetFreshAttrIn@
CONST	SEGMENT
??_C@_0CE@JCDDMGJO@calling?5xmlSchemaGetFreshAttrIn@ DB 'calling xmlSchem'
	DB	'aGetFreshAttrInfo()', 00H			; `string'
CONST	ENDS
;	COMDAT ??_C@_0BM@BOOKJCLG@creating?5new?5attribute?5info@
CONST	SEGMENT
??_C@_0BM@BOOKJCLG@creating?5new?5attribute?5info@ DB 'creating new attri'
	DB	'bute info', 00H				; `string'
CONST	ENDS
;	COMDAT ??_C@_0BK@LKOCBHBB@xmlSchemaGetFreshAttrInfo@
CONST	SEGMENT
??_C@_0BK@LKOCBHBB@xmlSchemaGetFreshAttrInfo@ DB 'xmlSchemaGetFreshAttrIn'
	DB	'fo', 00H					; `string'
CONST	ENDS
;	COMDAT ??_C@_0BG@PFNFPHPM@attr?5info?5not?5cleared@
CONST	SEGMENT
??_C@_0BG@PFNFPHPM@attr?5info?5not?5cleared@ DB 'attr info not cleared', 00H ; `string'
CONST	ENDS
;	COMDAT ??_C@_0CC@BAMAMEME@re?9allocating?5attribute?5info?5li@
CONST	SEGMENT
??_C@_0CC@BAMAMEME@re?9allocating?5attribute?5info?5li@ DB 're-allocating'
	DB	' attribute info list', 00H			; `string'
CONST	ENDS
;	COMDAT ??_C@_0BP@IEFJMMAN@allocating?5attribute?5info?5list@
CONST	SEGMENT
??_C@_0BP@IEFJMMAN@allocating?5attribute?5info?5list@ DB 'allocating attr'
	DB	'ibute info list', 00H			; `string'
CONST	ENDS
;	COMDAT ??_C@_0DC@DKEGLJJH@No?5match?5found?5for?5key?9sequence@
CONST	SEGMENT
??_C@_0DC@DKEGLJJH@No?5match?5found?5for?5key?9sequence@ DB 'No match fou'
	DB	'nd for key-sequence %s of keyref ''%s''', 00H ; `string'
CONST	ENDS
;	COMDAT ??_C@_0DN@GJPPLNCJ@More?5than?5one?5match?5found?5for?5k@
CONST	SEGMENT
??_C@_0DN@GJPPLNCJ@More?5than?5one?5match?5found?5for?5k@ DB 'More than o'
	DB	'ne match found for key-sequence %s of keyref ''%s''', 00H ; `string'
CONST	ENDS
;	COMDAT ??_C@_0CL@KOFMLKDP@re?9allocating?5IDC?5list?5of?5node?9@
CONST	SEGMENT
??_C@_0CL@KOFMLKDP@re?9allocating?5IDC?5list?5of?5node?9@ DB 're-allocati'
	DB	'ng IDC list of node-table items', 00H	; `string'
CONST	ENDS
;	COMDAT ??_C@_0CI@JFHKHDCD@allocating?5IDC?5list?5of?5node?9tab@
CONST	SEGMENT
??_C@_0CI@JFHKHDCD@allocating?5IDC?5list?5of?5node?9tab@ DB 'allocating I'
	DB	'DC list of node-table items', 00H		; `string'
CONST	ENDS
;	COMDAT ??_C@_0BK@INNNDFEE@allocating?5an?5IDC?5matcher@
CONST	SEGMENT
??_C@_0BK@INNNDFEE@allocating?5an?5IDC?5matcher@ DB 'allocating an IDC ma'
	DB	'tcher', 00H					; `string'
CONST	ENDS
;	COMDAT ??_C@_0DL@HKBGOKJP@Could?5not?5find?5an?5augmented?5IDC@
CONST	SEGMENT
??_C@_0DL@HKBGOKJP@Could?5not?5find?5an?5augmented?5IDC@ DB 'Could not fi'
	DB	'nd an augmented IDC item for an IDC definition', 00H ; `string'
CONST	ENDS
;	COMDAT ??_C@_0BN@FHFHOILP@xmlSchemaIDCRegisterMatchers@
CONST	SEGMENT
??_C@_0BN@FHFHOILP@xmlSchemaIDCRegisterMatchers@ DB 'xmlSchemaIDCRegister'
	DB	'Matchers', 00H				; `string'
CONST	ENDS
;	COMDAT ??_C@_0DC@BCHPJJHO@The?5chain?5of?5IDC?5matchers?5is?5ex@
CONST	SEGMENT
??_C@_0DC@BCHPJJHO@The?5chain?5of?5IDC?5matchers?5is?5ex@ DB 'The chain o'
	DB	'f IDC matchers is expected to be empty', 00H ; `string'
CONST	ENDS
;	COMDAT ??_C@_0DM@JEDCDBII@The?5state?5object?5to?5be?5removed?5@
CONST	SEGMENT
??_C@_0DM@JEDCDBII@The?5state?5object?5to?5be?5removed?5@ DB 'The state o'
	DB	'bject to be removed is not the first in the list', 00H ; `string'
CONST	ENDS
;	COMDAT ??_C@_0CI@LOGANEIF@Not?5all?5fields?5of?5?$CFs?5evaluate?5t@
CONST	SEGMENT
??_C@_0CI@LOGANEIF@Not?5all?5fields?5of?5?$CFs?5evaluate?5t@ DB 'Not all '
	DB	'fields of %s evaluate to a node', 00H	; `string'
CONST	ENDS
;	COMDAT ??_C@_0CC@HMFENHHC@allocating?5an?5IDC?5node?9table?5it@
CONST	SEGMENT
??_C@_0CC@HMFENHHC@allocating?5an?5IDC?5node?9table?5it@ DB 'allocating a'
	DB	'n IDC node-table item', 00H			; `string'
CONST	ENDS
;	COMDAT ??_C@_0CA@LMIOLKEE@Duplicate?5key?9sequence?5?$CFs?5in?5?$CFs@
CONST	SEGMENT
??_C@_0CA@LMIOLKEE@Duplicate?5key?9sequence?5?$CFs?5in?5?$CFs@ DB 'Duplic'
	DB	'ate key-sequence %s in %s', 00H		; `string'
CONST	ENDS
;	COMDAT ??_C@_0BF@DNPMHACD@allocating?5a?5IDC?5key@
CONST	SEGMENT
??_C@_0BF@DNPMHACD@allocating?5a?5IDC?5key@ DB 'allocating a IDC key', 00H ; `string'
CONST	ENDS
;	COMDAT ??_C@_0BP@BFFMOABM@allocating?5an?5IDC?5key?9sequence@
CONST	SEGMENT
??_C@_0BP@BFFMOABM@allocating?5an?5IDC?5key?9sequence@ DB 'allocating an '
	DB	'IDC key-sequence', 00H			; `string'
CONST	ENDS
;	COMDAT ??_C@_0FC@LNIGGAMO@The?5XPath?5?8?$CFs?8?5of?5a?5field?5of?5?$CFs@
CONST	SEGMENT
??_C@_0FC@LNIGGAMO@The?5XPath?5?8?$CFs?8?5of?5a?5field?5of?5?$CFs@ DB 'Th'
	DB	'e XPath ''%s'' of a field of %s evaluates to a node-set with '
	DB	'more than one member', 00H			; `string'
CONST	ENDS
;	COMDAT ??_C@_0CH@LFFCCCHC@reallocating?5an?5array?5of?5key?9se@
CONST	SEGMENT
??_C@_0CH@LFFCCCHC@reallocating?5an?5array?5of?5key?9se@ DB 'reallocating'
	DB	' an array of key-sequences', 00H		; `string'
CONST	ENDS
;	COMDAT ??_C@_0CF@MLBGNEED@allocating?5an?5array?5of?5key?9sequ@
CONST	SEGMENT
??_C@_0CF@MLBGNEED@allocating?5an?5array?5of?5key?9sequ@ DB 'allocating a'
	DB	'n array of key-sequences', 00H		; `string'
CONST	ENDS
;	COMDAT ??_C@_0GD@IKFFNPGA@Warning?3?5No?5precomputed?5value?5a@
CONST	SEGMENT
??_C@_0GD@IKFFNPGA@Warning?3?5No?5precomputed?5value?5a@ DB 'Warning: No '
	DB	'precomputed value available, the value was either invalid or '
	DB	'something strange happend', 00H		; `string'
CONST	ENDS
;	COMDAT ??_C@_0EL@FLEKOJFE@The?5XPath?5?8?$CFs?8?5of?5a?5field?5of?5?$CFs@
CONST	SEGMENT
??_C@_0EL@FLEKOJFE@The?5XPath?5?8?$CFs?8?5of?5a?5field?5of?5?$CFs@ DB 'Th'
	DB	'e XPath ''%s'' of a field of %s does evaluate to a node of no'
	DB	'n-simple type', 00H				; `string'
CONST	ENDS
;	COMDAT ??_C@_0FD@MADPFADD@field?5resolves?5to?5a?5CT?5with?5sim@
CONST	SEGMENT
??_C@_0FD@MADPFADD@field?5resolves?5to?5a?5CT?5with?5sim@ DB 'field resol'
	DB	'ves to a CT with simple content but the CT is missing the ST '
	DB	'definition', 00H				; `string'
CONST	ENDS
;	COMDAT ??_C@_0BN@CBHGMMP@xmlSchemaXPathProcessHistory@
CONST	SEGMENT
??_C@_0BN@CBHGMMP@xmlSchemaXPathProcessHistory@ DB 'xmlSchemaXPathProcess'
	DB	'History', 00H				; `string'
CONST	ENDS
;	COMDAT ??_C@_0BH@HBBLPIID@calling?5xmlStreamPop?$CI?$CJ@
CONST	SEGMENT
??_C@_0BH@HBBLPIID@calling?5xmlStreamPop?$CI?$CJ@ DB 'calling xmlStreamPo'
	DB	'p()', 00H					; `string'
CONST	ENDS
;	COMDAT ??_C@_01LBDDMOBJ@?$FN@
CONST	SEGMENT
??_C@_01LBDDMOBJ@?$FN@ DB ']', 00H			; `string'
CONST	ENDS
;	COMDAT ??_C@_03BBKEAIF@?$DP?$DP?$DP@
CONST	SEGMENT
??_C@_03BBKEAIF@?$DP?$DP?$DP@ DB '???', 00H		; `string'
CONST	ENDS
;	COMDAT ??_C@_0BO@COPGMMIK@xmlSchemaFormatIDCKeySequence@
CONST	SEGMENT
??_C@_0BO@COPGMMIK@xmlSchemaFormatIDCKeySequence@ DB 'xmlSchemaFormatIDCK'
	DB	'eySequence', 00H				; `string'
CONST	ENDS
;	COMDAT ??_C@_0CE@HGOJGLAG@failed?5to?5compute?5a?5canonical?5v@
CONST	SEGMENT
??_C@_0CE@HGOJGLAG@failed?5to?5compute?5a?5canonical?5v@ DB 'failed to co'
	DB	'mpute a canonical value', 00H		; `string'
CONST	ENDS
;	COMDAT ??_C@_0CH@CCPCCKFB@re?9allocating?5the?5state?5object?5@
CONST	SEGMENT
??_C@_0CH@CCPCCKFB@re?9allocating?5the?5state?5object?5@ DB 're-allocatin'
	DB	'g the state object history', 00H		; `string'
CONST	ENDS
;	COMDAT ??_C@_0CE@OEKMEEHF@allocating?5the?5state?5object?5his@
CONST	SEGMENT
??_C@_0CE@OEKMEEHF@allocating?5the?5state?5object?5his@ DB 'allocating th'
	DB	'e state object history', 00H		; `string'
CONST	ENDS
;	COMDAT ??_C@_0BH@BGCDIJOO@xmlSchemaXPathEvaluate@
CONST	SEGMENT
??_C@_0BH@BGCDIJOO@xmlSchemaXPathEvaluate@ DB 'xmlSchemaXPathEvaluate', 00H ; `string'
CONST	ENDS
;	COMDAT ??_C@_0BI@EPLNDPKO@calling?5xmlStreamPush?$CI?$CJ@
CONST	SEGMENT
??_C@_0BI@EPLNDPKO@calling?5xmlStreamPush?$CI?$CJ@ DB 'calling xmlStreamP'
	DB	'ush()', 00H					; `string'
CONST	ENDS
;	COMDAT ??_C@_0BL@EMBGPHEI@xmlSchemaIDCAddStateObject@
CONST	SEGMENT
??_C@_0BL@EMBGPHEI@xmlSchemaIDCAddStateObject@ DB 'xmlSchemaIDCAddStateOb'
	DB	'ject', 00H					; `string'
CONST	ENDS
;	COMDAT ??_C@_0CN@MKAMKJFE@failed?5to?5create?5an?5XPath?5valid@
CONST	SEGMENT
??_C@_0CN@MKAMKJFE@failed?5to?5create?5an?5XPath?5valid@ DB 'failed to cr'
	DB	'eate an XPath validation context', 00H	; `string'
CONST	ENDS
;	COMDAT ??_C@_0BP@KMMMKNDG@allocating?5an?5IDC?5state?5object@
CONST	SEGMENT
??_C@_0BP@KMMMKNDG@allocating?5an?5IDC?5state?5object@ DB 'allocating an '
	DB	'IDC state object', 00H			; `string'
CONST	ENDS
;	COMDAT ??_C@_0CP@OHLCMMHI@re?9allocating?5an?5array?5of?5IDC?5n@
CONST	SEGMENT
??_C@_0CP@OHLCMMHI@re?9allocating?5an?5array?5of?5IDC?5n@ DB 're-allocati'
	DB	'ng an array of IDC node-table items', 00H	; `string'
CONST	ENDS
;	COMDAT ??_C@_0CM@BBNGODJA@allocating?5an?5array?5of?5IDC?5node@
CONST	SEGMENT
??_C@_0CM@BBNGODJA@allocating?5an?5array?5of?5IDC?5node@ DB 'allocating a'
	DB	'n array of IDC node-table items', 00H	; `string'
CONST	ENDS
;	COMDAT ??_C@_0CH@OEOHKDEB@re?9allocating?5the?5IDC?5key?5stora@
CONST	SEGMENT
??_C@_0CH@OEOHKDEB@re?9allocating?5the?5IDC?5key?5stora@ DB 're-allocatin'
	DB	'g the IDC key storage list', 00H		; `string'
CONST	ENDS
;	COMDAT ??_C@_0CE@CCLJMNGF@allocating?5the?5IDC?5key?5storage?5@
CONST	SEGMENT
??_C@_0CE@CCLJMNGF@allocating?5the?5IDC?5key?5storage?5@ DB 'allocating t'
	DB	'he IDC key storage list', 00H		; `string'
CONST	ENDS
;	COMDAT ??_C@_0CL@PFEMPGNK@re?9allocating?5the?5IDC?5node?5tabl@
CONST	SEGMENT
??_C@_0CL@PFEMPGNK@re?9allocating?5the?5IDC?5node?5tabl@ DB 're-allocatin'
	DB	'g the IDC node table item list', 00H	; `string'
CONST	ENDS
;	COMDAT ??_C@_0CI@MOGKDPMG@allocating?5the?5IDC?5node?5table?5i@
CONST	SEGMENT
??_C@_0CI@MOGKDPMG@allocating?5the?5IDC?5node?5table?5i@ DB 'allocating t'
	DB	'he IDC node table item list', 00H		; `string'
CONST	ENDS
;	COMDAT ??_C@_0CD@HDBDLPGB@allocating?5a?5PSVI?5IDC?5binding?5i@
CONST	SEGMENT
??_C@_0CD@HDBDLPGB@allocating?5a?5PSVI?5IDC?5binding?5i@ DB 'allocating a'
	DB	' PSVI IDC binding item', 00H		; `string'
CONST	ENDS
;	COMDAT ??_C@_0DM@CAHAFNJE@xmlSchemaAugmentIDC?3?5allocating@
CONST	SEGMENT
??_C@_0DM@CAHAFNJE@xmlSchemaAugmentIDC?3?5allocating@ DB 'xmlSchemaAugmen'
	DB	'tIDC: allocating an augmented IDC definition', 00H ; `string'
CONST	ENDS
;	COMDAT ??_C@_0BK@IMJIJGNM@xmlSchemaValidateNotation@
CONST	SEGMENT
??_C@_0BK@IMJIJGNM@xmlSchemaValidateNotation@ DB 'xmlSchemaValidateNotati'
	DB	'on', 00H					; `string'
CONST	ENDS
;	COMDAT ??_C@_0CN@LAHJCGKC@a?5schema?5is?5needed?5on?5the?5valid@
CONST	SEGMENT
??_C@_0CN@LAHJCGKC@a?5schema?5is?5needed?5on?5the?5valid@ DB 'a schema is'
	DB	' needed on the validation context', 00H	; `string'
CONST	ENDS
;	COMDAT ??_C@_0BJ@NLHBOILD@xmlSchemaLookupNamespace@
CONST	SEGMENT
??_C@_0BJ@NLHBOILD@xmlSchemaLookupNamespace@ DB 'xmlSchemaLookupNamespace'
	DB	00H						; `string'
CONST	ENDS
;	COMDAT ??_C@_0CA@LAIFBHAE@no?5node?5or?5node?8s?5doc?5avaliable@
CONST	SEGMENT
??_C@_0CA@LAIFBHAE@no?5node?5or?5node?8s?5doc?5avaliable@ DB 'no node or '
	DB	'node''s doc avaliable', 00H			; `string'
CONST	ENDS
;	COMDAT ??_C@_0BH@DHODCNOI@xmlSchemaAssembleByXSI@
CONST	SEGMENT
??_C@_0BH@DHODCNOI@xmlSchemaAssembleByXSI@ DB 'xmlSchemaAssembleByXSI', 00H ; `string'
CONST	ENDS
;	COMDAT ??_C@_0BE@HNFEMNKO@assembling?5schemata@
CONST	SEGMENT
??_C@_0BE@HNFEMNKO@assembling?5schemata@ DB 'assembling schemata', 00H ; `string'
CONST	ENDS
;	COMDAT ??_C@_0FD@KDOLAGPK@The?5value?5must?5consist?5of?5tuple@
CONST	SEGMENT
??_C@_0FD@KDOLAGPK@The?5value?5must?5consist?5of?5tuple@ DB 'The value mu'
	DB	'st consist of tuples: the target namespace name and the docum'
	DB	'ent''s URI', 00H				; `string'
CONST	ENDS
;	COMDAT ??_C@_0DE@OFHLHGBG@The?5document?5at?5location?5?8?$CFs?8?5c@
CONST	SEGMENT
??_C@_0DE@OFHLHGBG@The?5document?5at?5location?5?8?$CFs?8?5c@ DB 'The doc'
	DB	'ument at location ''%s'' could not be acquired', 00H ; `string'
CONST	ENDS
;	COMDAT ??_C@_0BM@IPNOOOA@xmlSchemaAssembleByLocation@
CONST	SEGMENT
??_C@_0BM@IPNOOOA@xmlSchemaAssembleByLocation@ DB 'xmlSchemaAssembleByLoc'
	DB	'ation', 00H					; `string'
CONST	ENDS
;	COMDAT ??_C@_0BM@JLNHNHFO@no?5parser?5context?5available@
CONST	SEGMENT
??_C@_0BM@JLNHNHFO@no?5parser?5context?5available@ DB 'no parser context '
	DB	'available', 00H				; `string'
CONST	ENDS
;	COMDAT ??_C@_0P@DAONFGNJ@Internal?5Error@
CONST	SEGMENT
??_C@_0P@DAONFGNJ@Internal?5Error@ DB 'Internal Error', 00H ; `string'
CONST	ENDS
;	COMDAT ??_C@_0P@FJHIALID@xmlSchemaParse@
CONST	SEGMENT
??_C@_0P@FJHIALID@xmlSchemaParse@ DB 'xmlSchemaParse', 00H ; `string'
CONST	ENDS
;	COMDAT ??_C@_0BL@KBEKBABO@An?5internal?5error?5occurred@
CONST	SEGMENT
??_C@_0BL@KBEKBABO@An?5internal?5error?5occurred@ DB 'An internal error o'
	DB	'ccurred', 00H				; `string'
CONST	ENDS
;	COMDAT ??_C@_0CK@PCIDMOBP@Failed?5to?5locate?5the?5main?5schem@
CONST	SEGMENT
??_C@_0CK@PCIDMOBP@Failed?5to?5locate?5the?5main?5schem@ DB 'Failed to lo'
	DB	'cate the main schema resource', 00H		; `string'
CONST	ENDS
;	COMDAT ??_C@_0DC@HKCNLJOG@Failed?5to?5locate?5the?5main?5schem@
CONST	SEGMENT
??_C@_0DC@HKCNLJOG@Failed?5to?5locate?5the?5main?5schem@ DB 'Failed to lo'
	DB	'cate the main schema resource at ''%s''', 00H ; `string'
CONST	ENDS
;	COMDAT ??_C@_0CE@NEPGNBMH@A?5global?5?$CFs?5?8?$CFs?8?5does?5already?5e@
CONST	SEGMENT
??_C@_0CE@NEPGNBMH@A?5global?5?$CFs?5?8?$CFs?8?5does?5already?5e@ DB 'A g'
	DB	'lobal %s ''%s'' does already exist', 00H	; `string'
CONST	ENDS
;	COMDAT ??_C@_0CI@HOKAKPAF@failed?5to?5create?5a?5component?5ha@
CONST	SEGMENT
??_C@_0CI@HOKAKPAF@failed?5to?5create?5a?5component?5ha@ DB 'failed to cr'
	DB	'eate a component hash table', 00H		; `string'
CONST	ENDS
;	COMDAT ??_C@_0BH@KEIDDOOE@xmlSchemaAddComponents@
CONST	SEGMENT
??_C@_0BH@KEIDDOOE@xmlSchemaAddComponents@ DB 'xmlSchemaAddComponents', 00H ; `string'
CONST	ENDS
;	COMDAT ??_C@_0CB@EHOCOMPJ@Unexpected?5global?5component?5typ@
CONST	SEGMENT
??_C@_0CB@EHOCOMPJ@Unexpected?5global?5component?5typ@ DB 'Unexpected glo'
	DB	'bal component type', 00H			; `string'
CONST	ENDS
;	COMDAT ??_C@_0GG@OLGKEPPA@The?5referenced?5?$CFs?5was?5already?5r@
CONST	SEGMENT
??_C@_0GG@OLGKEPPA@The?5referenced?5?$CFs?5was?5already?5r@ DB 'The refer'
	DB	'enced %s was already redefined. Multiple redefinition of the '
	DB	'same component is not supported', 00H	; `string'
CONST	ENDS
;	COMDAT ??_C@_0CA@MJPJGEAA@xmlSchemaResolveRedefReferences@
CONST	SEGMENT
??_C@_0CA@MJPJGEAA@xmlSchemaResolveRedefReferences@ DB 'xmlSchemaResolveR'
	DB	'edefReferences', 00H			; `string'
CONST	ENDS
;	COMDAT ??_C@_0CE@NJALEOMP@Unexpected?5redefined?5component?5@
CONST	SEGMENT
??_C@_0CE@NJALEOMP@Unexpected?5redefined?5component?5@ DB 'Unexpected red'
	DB	'efined component type', 00H			; `string'
CONST	ENDS
;	COMDAT ??_C@_0EH@DMAILEC@The?5?$CFs?5?8?$CFs?8?5to?5be?5redefined?5cou@
CONST	SEGMENT
??_C@_0EH@DMAILEC@The?5?$CFs?5?8?$CFs?8?5to?5be?5redefined?5cou@ DB 'The '
	DB	'%s ''%s'' to be redefined could not be found in the redefined'
	DB	' schema', 00H				; `string'
CONST	ENDS
;	COMDAT ??_C@_0FN@FJLAHNCH@The?5cardinality?5of?5the?5keyref?5d@
CONST	SEGMENT
??_C@_0FN@FJLAHNCH@The?5cardinality?5of?5the?5keyref?5d@ DB 'The cardinal'
	DB	'ity of the keyref differs from the cardinality of the referen'
	DB	'ced key/unique ''%s''', 00H			; `string'
CONST	ENDS
;	COMDAT ??_C@_0BP@JCIFOLN@The?5keyref?5references?5a?5keyref@
CONST	SEGMENT
??_C@_0BP@JCIFOLN@The?5keyref?5references?5a?5keyref@ DB 'The keyref refe'
	DB	'rences a keyref', 00H			; `string'
CONST	ENDS
;	COMDAT ??_C@_0GP@GLBEFPEK@The?5?8fixed?8?5value?5constraint?5of@
CONST	SEGMENT
??_C@_0GP@GLBEFPEK@The?5?8fixed?8?5value?5constraint?5of@ DB 'The ''fixed'
	DB	''' value constraint of the attribute use must match the attri'
	DB	'bute declaration''s value constraint ''%s''', 00H ; `string'
CONST	ENDS
;	COMDAT ??_C@_0CC@FBIHIMFL@xmlSchemaCheckAttrUsePropsCorre@
CONST	SEGMENT
??_C@_0CC@FBIHIMFL@xmlSchemaCheckAttrUsePropsCorre@ DB 'xmlSchemaCheckAtt'
	DB	'rUsePropsCorrect', 00H			; `string'
CONST	ENDS
;	COMDAT ??_C@_0HM@EHFKHNMB@The?5attribute?5declaration?5has?5a@
CONST	SEGMENT
??_C@_0HM@EHFKHNMB@The?5attribute?5declaration?5has?5a@ DB 'The attribute'
	DB	' declaration has a ''fixed'' value constraint , thus the attr'
	DB	'ibute use must also have a ''fixed'' value constraint', 00H ; `string'
CONST	ENDS
;	COMDAT ??_C@_0HI@HIFFMALD@A?5model?5group?5definition?5is?5ref@
CONST	SEGMENT
??_C@_0HI@HIFFMALD@A?5model?5group?5definition?5is?5ref@ DB 'A model grou'
	DB	'p definition is referenced, but it contains an ''all'' model '
	DB	'group, which cannot be contained by model groups', 00H ; `string'
CONST	ENDS
;	COMDAT ??_C@_0BM@INOHADNA@xmlSchemaElemCheckValConstr@
CONST	SEGMENT
??_C@_0BM@INOHADNA@xmlSchemaElemCheckValConstr@ DB 'xmlSchemaElemCheckVal'
	DB	'Constr', 00H				; `string'
CONST	ENDS
;	COMDAT ??_C@_0EC@IFGBKADH@failed?5to?5validate?5the?5value?5co@
CONST	SEGMENT
??_C@_0EC@IFGBKADH@failed?5to?5validate?5the?5value?5co@ DB 'failed to va'
	DB	'lidate the value constraint of an element declaration', 00H ; `string'
CONST	ENDS
;	COMDAT ??_C@_0GP@ONEJGEGK@Internal?5error?3?5xmlSchemaCheckE@
CONST	SEGMENT
??_C@_0GP@ONEJGEGK@Internal?5error?3?5xmlSchemaCheckE@ DB 'Internal error'
	DB	': xmlSchemaCheckElemPropsCorrect, type is missing... skipping'
	DB	' validation of the value constraint', 00H	; `string'
CONST	ENDS
;	COMDAT ??_C@_0JP@GPCAONIJ@The?5type?5definition?5?$CIor?5type?5de@
CONST	SEGMENT
??_C@_0JP@GPCAONIJ@The?5type?5definition?5?$CIor?5type?5de@ DB 'The type '
	DB	'definition (or type definition''s content type) is or is deri'
	DB	'ved from ID; value constraints are not allowed in conjunction'
	DB	' with such a type definition', 00H		; `string'
CONST	ENDS
;	COMDAT ??_C@_0IO@OBKDAHJI@The?5type?5definition?5?8?$CFs?8?5was?5ei@
CONST	SEGMENT
??_C@_0IO@OBKDAHJI@The?5type?5definition?5?8?$CFs?8?5was?5ei@ DB 'The typ'
	DB	'e definition ''%s'' was either rejected by the substitution g'
	DB	'roup affiliation ''%s'', or not validly derived from its type'
	DB	' definition ''%s''', 00H			; `string'
CONST	ENDS
;	COMDAT ??_C@_0FP@ECMLFAOK@The?5element?5declaration?5?8?$CFs?8?5de@
CONST	SEGMENT
??_C@_0FP@ECMLFAOK@The?5element?5declaration?5?8?$CFs?8?5de@ DB 'The elem'
	DB	'ent declaration ''%s'' defines a circular substitution group '
	DB	'to element declaration ''%s''', 00H		; `string'
CONST	ENDS
;	COMDAT ??_C@_0EL@CIIJKFO@Only?5global?5element?5declaration@
CONST	SEGMENT
??_C@_0EL@CIIJKFO@Only?5global?5element?5declaration@ DB 'Only global ele'
	DB	'ment declarations can have a substitution group affiliation', 00H ; `string'
CONST	ENDS
;	COMDAT ??_C@_0CP@DMDDKJIO@The?5value?5of?5the?5value?5constrai@
CONST	SEGMENT
??_C@_0CP@DMDDKJIO@The?5value?5of?5the?5value?5constrai@ DB 'The value of'
	DB	' the value constraint is not valid', 00H	; `string'
CONST	ENDS
;	COMDAT ??_C@_0BP@KEKKKHHB@xmlSchemaCheckAttrPropsCorrect@
CONST	SEGMENT
??_C@_0BP@KEKKKHHB@xmlSchemaCheckAttrPropsCorrect@ DB 'xmlSchemaCheckAttr'
	DB	'PropsCorrect', 00H				; `string'
CONST	ENDS
;	COMDAT ??_C@_0FF@JBDCKHFC@Value?5constraints?5are?5not?5allow@
CONST	SEGMENT
??_C@_0FF@JBDCKHFC@Value?5constraints?5are?5not?5allow@ DB 'Value constra'
	DB	'ints are not allowed if the type definition is or is derived '
	DB	'from xs:ID', 00H				; `string'
CONST	ENDS
;	COMDAT ??_C@_0HN@PJGMJAIH@Skipping?5pointless?5attribute?5us@
CONST	SEGMENT
??_C@_0HN@PJGMJAIH@Skipping?5pointless?5attribute?5us@ DB 'Skipping point'
	DB	'less attribute use prohibition ''%s'', since a corresponding '
	DB	'attribute use exists already in the type definition', 00H ; `string'
CONST	ENDS
;	COMDAT ??_C@_0CC@NLBCMGHN@xmlSchemaExpandAttributeGroupRe@
CONST	SEGMENT
??_C@_0CC@NLBCMGHN@xmlSchemaExpandAttributeGroupRe@ DB 'xmlSchemaExpandAt'
	DB	'tributeGroupRefs', 00H			; `string'
CONST	ENDS
;	COMDAT ??_C@_0CC@JIEJECEC@unexpected?5attr?5prohibition?5fou@
CONST	SEGMENT
??_C@_0CC@JIEJECEC@unexpected?5attr?5prohibition?5fou@ DB 'unexpected att'
	DB	'r prohibition found', 00H			; `string'
CONST	ENDS
;	COMDAT ??_C@_0DH@FDECNJHO@Circular?5reference?5to?5the?5attri@
CONST	SEGMENT
??_C@_0DH@FDECNJHO@Circular?5reference?5to?5the?5attri@ DB 'Circular refe'
	DB	'rence to the attribute group ''%s'' defined', 00H ; `string'
CONST	ENDS
;	COMDAT ??_C@_0DO@EEBKKJHN@Circular?5reference?5to?5the?5model@
CONST	SEGMENT
??_C@_0DO@EEBKKJHN@Circular?5reference?5to?5the?5model@ DB 'Circular refe'
	DB	'rence to the model group definition ''%s'' defined', 00H ; `string'
CONST	ENDS
;	COMDAT ??_C@_0DG@BFJCEJH@The?5value?5?8?$CFs?8?5of?5the?5facet?5?8wh@
CONST	SEGMENT
??_C@_0DG@BFJCEJH@The?5value?5?8?$CFs?8?5of?5the?5facet?5?8wh@ DB 'The va'
	DB	'lue ''%s'' of the facet ''whitespace'' is not valid', 00H ; `string'
CONST	ENDS
;	COMDAT ??_C@_08MHKDLKBN@collapse@
CONST	SEGMENT
??_C@_08MHKDLKBN@collapse@ DB 'collapse', 00H		; `string'
CONST	ENDS
;	COMDAT ??_C@_07CLEHDIEJ@replace@
CONST	SEGMENT
??_C@_07CLEHDIEJ@replace@ DB 'replace', 00H		; `string'
CONST	ENDS
;	COMDAT ??_C@_08ILAKLJGO@preserve@
CONST	SEGMENT
??_C@_08ILAKLJGO@preserve@ DB 'preserve', 00H		; `string'
CONST	ENDS
;	COMDAT ??_C@_0DF@HPIINFD@The?5value?5?8?$CFs?8?5of?5the?5facet?5?8?$CFs@
CONST	SEGMENT
??_C@_0DF@HPIINFD@The?5value?5?8?$CFs?8?5of?5the?5facet?5?8?$CFs@ DB 'The'
	DB	' value ''%s'' of the facet ''%s'' is not a valid ''%s''', 00H ; `string'
CONST	ENDS
;	COMDAT ??_C@_0BA@PNFEGAHG@positiveInteger@
CONST	SEGMENT
??_C@_0BA@PNFEGAHG@positiveInteger@ DB 'positiveInteger', 00H ; `string'
CONST	ENDS
;	COMDAT ??_C@_0BD@IEOLADAC@nonNegativeInteger@
CONST	SEGMENT
??_C@_0BD@IEOLADAC@nonNegativeInteger@ DB 'nonNegativeInteger', 00H ; `string'
CONST	ENDS
;	COMDAT ??_C@_0BH@ODKMLHFB@validating?5facet?5value@
CONST	SEGMENT
??_C@_0BH@ODKMLHFB@validating?5facet?5value@ DB 'validating facet value', 00H ; `string'
CONST	ENDS
;	COMDAT ??_C@_0EI@FMIFFGFN@The?5value?5?8?$CFs?8?5of?5the?5facet?5?8pa@
CONST	SEGMENT
??_C@_0EI@FMIFFGFN@The?5value?5?8?$CFs?8?5of?5the?5facet?5?8pa@ DB 'The v'
	DB	'alue ''%s'' of the facet ''pattern'' is not a valid regular e'
	DB	'xpression', 00H				; `string'
CONST	ENDS
;	COMDAT ??_C@_0BH@DKKABPAP@value?5was?5not?5computed@
CONST	SEGMENT
??_C@_0BH@DKKABPAP@value?5was?5not?5computed@ DB 'value was not computed', 00H ; `string'
CONST	ENDS
;	COMDAT ??_C@_0EJ@BAMFGHGG@The?5value?5?8?$CFs?8?5of?5the?5facet?5doe@
CONST	SEGMENT
??_C@_0EJ@BAMFGHGG@The?5value?5?8?$CFs?8?5of?5the?5facet?5doe@ DB 'The va'
	DB	'lue ''%s'' of the facet does not validate against the base ty'
	DB	'pe ''%s''', 00H				; `string'
CONST	ENDS
;	COMDAT ??_C@_0GP@JDEDDDKD@Internal?5error?3?5xmlSchemaCheckF@
CONST	SEGMENT
??_C@_0GP@JDEDDDKD@Internal?5error?3?5xmlSchemaCheckF@ DB 'Internal error'
	DB	': xmlSchemaCheckFacet, failed to validate the value ''%s'' of'
	DB	' the facet ''%s'' against the base type', 00H ; `string'
CONST	ENDS
;	COMDAT ??_C@_0BE@GOHHCECA@xmlSchemaCheckFacet@
CONST	SEGMENT
??_C@_0BE@GOHHCECA@xmlSchemaCheckFacet@ DB 'xmlSchemaCheckFacet', 00H ; `string'
CONST	ENDS
;	COMDAT ??_C@_0CK@KJAODNIP@a?5type?5user?5derived?5type?5has?5no@
CONST	SEGMENT
??_C@_0CK@KJAODNIP@a?5type?5user?5derived?5type?5has?5no@ DB 'a type user'
	DB	' derived type has no base type', 00H	; `string'
CONST	ENDS
;	COMDAT ??_C@_0BD@JIKEDLJK@xmlSchemaTypeFixup@
CONST	SEGMENT
??_C@_0BD@JIKEDLJK@xmlSchemaTypeFixup@ DB 'xmlSchemaTypeFixup', 00H ; `string'
CONST	ENDS
;	COMDAT ??_C@_0CF@EHENJODP@this?5function?5needs?5a?5parser?5co@
CONST	SEGMENT
??_C@_0CF@EHENJODP@this?5function?5needs?5a?5parser?5co@ DB 'this functio'
	DB	'n needs a parser context', 00H		; `string'
CONST	ENDS
;	COMDAT ??_C@_0BAD@EONAGGAE@A?5type?5cannot?5be?5derived?5by?5ext@
CONST	SEGMENT
??_C@_0BAD@EONAGGAE@A?5type?5cannot?5be?5derived?5by?5ext@ DB 'A type can'
	DB	'not be derived by extension from a type which has an ''all'' '
	DB	'model group in its {content type}, since this would produce a'
	DB	' ''sequence'' model group containing the ''all'' model group;'
	DB	' ''all'' model groups are not allowed to appear inside other '
	DB	'model groups', 00H				; `string'
CONST	ENDS
;	COMDAT ??_C@_0BAF@GMDKHDD@The?5type?5has?5an?5?8all?8?5model?5gro@
CONST	SEGMENT
??_C@_0BAF@GMDKHDD@The?5type?5has?5an?5?8all?8?5model?5gro@ DB 'The type '
	DB	'has an ''all'' model group in its {content type} and thus can'
	DB	'not be derived from a non-empty type, since this would produc'
	DB	'e a ''sequence'' model group containing the ''all'' model gro'
	DB	'up; ''all'' model groups are not allowed to appear inside oth'
	DB	'er model groups', 00H			; `string'
CONST	ENDS
;	COMDAT ??_C@_0GG@NFAALECG@Internal?5error?3?5xmlSchemaTypeFi@
CONST	SEGMENT
??_C@_0GG@NFAALECG@Internal?5error?3?5xmlSchemaTypeFi@ DB 'Internal error'
	DB	': xmlSchemaTypeFixup, complex type ''%s'' with <simpleContent'
	DB	'>: unhandled derivation case', 00H		; `string'
CONST	ENDS
;	COMDAT ??_C@_0IB@IICIOIAO@Internal?5error?3?5xmlSchemaTypeFi@
CONST	SEGMENT
??_C@_0IB@IICIOIAO@Internal?5error?3?5xmlSchemaTypeFi@ DB 'Internal error'
	DB	': xmlSchemaTypeFixup, complex type ''%s'': the <extension>ed '
	DB	'base type is a complex type with no simple content type', 00H ; `string'
CONST	ENDS
;	COMDAT ??_C@_0KG@MFOLBCHA@Internal?5error?3?5xmlSchemaTypeFi@
CONST	SEGMENT
??_C@_0KG@MFOLBCHA@Internal?5error?3?5xmlSchemaTypeFi@ DB 'Internal error'
	DB	': xmlSchemaTypeFixup, complex type ''%s'': the <simpleContent'
	DB	'><restriction> is missing a <simpleType> child, but was not c'
	DB	'atched by xmlSchemaCheckSRCCT()', 00H	; `string'
CONST	ENDS
;	COMDAT ??_C@_0BK@JMGNNAEE@xmlSchemaFixupComplexType@
CONST	SEGMENT
??_C@_0BK@JMGNNAEE@xmlSchemaFixupComplexType@ DB 'xmlSchemaFixupComplexTy'
	DB	'pe', 00H					; `string'
CONST	ENDS
;	COMDAT ??_C@_0CB@NHIHEMOP@xmlSchemaFixupSimpleTypeStageTw@
CONST	SEGMENT
??_C@_0CB@NHIHEMOP@xmlSchemaFixupSimpleTypeStageTw@ DB 'xmlSchemaFixupSim'
	DB	'pleTypeStageTwo', 00H			; `string'
CONST	ENDS
;	COMDAT ??_C@_0BB@DAFLJMHA@missing?5baseType@
CONST	SEGMENT
??_C@_0BB@DAFLJMHA@missing?5baseType@ DB 'missing baseType', 00H ; `string'
CONST	ENDS
;	COMDAT ??_C@_0BP@EGJFJLNK@type?5has?5no?5base?9type?5assigned@
CONST	SEGMENT
??_C@_0BP@EGJFJLNK@type?5has?5no?5base?9type?5assigned@ DB 'type has no b'
	DB	'ase-type assigned', 00H			; `string'
CONST	ENDS
;	COMDAT ??_C@_0CI@HMJDLBFH@union?5type?5has?5no?5member?9types?5@
CONST	SEGMENT
??_C@_0CI@HMJDLBFH@union?5type?5has?5no?5member?9types?5@ DB 'union type '
	DB	'has no member-types assigned', 00H		; `string'
CONST	ENDS
;	COMDAT ??_C@_0CB@LJIHOMAE@xmlSchemaFixupSimpleTypeStageOn@
CONST	SEGMENT
??_C@_0CB@LJIHOMAE@xmlSchemaFixupSimpleTypeStageOn@ DB 'xmlSchemaFixupSim'
	DB	'pleTypeStageOne', 00H			; `string'
CONST	ENDS
;	COMDAT ??_C@_0CE@OOLPDECC@list?5type?5has?5no?5item?9type?5assi@
CONST	SEGMENT
??_C@_0CE@OOLPDECC@list?5type?5has?5no?5item?9type?5assi@ DB 'list type h'
	DB	'as no item-type assigned', 00H		; `string'
CONST	ENDS
;	COMDAT ??_C@_0CB@LPIBFCGM@xmlSchemaDeriveAndValidateFacet@
CONST	SEGMENT
??_C@_0CB@LPIBFCGM@xmlSchemaDeriveAndValidateFacet@ DB 'xmlSchemaDeriveAn'
	DB	'dValidateFacets', 00H			; `string'
CONST	ENDS
;	COMDAT ??_C@_0BC@JHOAJLMF@an?5error?5occurred@
CONST	SEGMENT
??_C@_0BC@JHOAJLMF@an?5error?5occurred@ DB 'an error occurred', 00H ; `string'
CONST	ENDS
;	COMDAT ??_C@_0CH@NFDGHLNP@deriving?5facets?0?5creating?5a?5fac@
CONST	SEGMENT
??_C@_0CH@NFDGHLNP@deriving?5facets?0?5creating?5a?5fac@ DB 'deriving fac'
	DB	'ets, creating a facet link', 00H		; `string'
CONST	ENDS
;	COMDAT ??_C@_0GD@BCLDHCAD@The?5?8whitespace?8?5value?5has?5to?5b@
CONST	SEGMENT
??_C@_0GD@BCLDHCAD@The?5?8whitespace?8?5value?5has?5to?5b@ DB 'The ''whit'
	DB	'espace'' value has to be equal to or stronger than the ''whit'
	DB	'espace'' value of the base type', 00H	; `string'
CONST	ENDS
;	COMDAT ??_C@_0EB@JECLPMKG@The?5base?5type?8s?5facet?5is?5?8fixed@
CONST	SEGMENT
??_C@_0EB@JECLPMKG@The?5base?5type?8s?5facet?5is?5?8fixed@ DB 'The base t'
	DB	'ype''s facet is ''fixed'', thus the value must not differ', 00H ; `string'
CONST	ENDS
;	COMDAT ??_C@_0FC@EFACGABJ@It?5is?5an?5error?5for?5both?5?8?$CFs?8?5an@
CONST	SEGMENT
??_C@_0FC@EFACGABJ@It?5is?5an?5error?5for?5both?5?8?$CFs?8?5an@ DB 'It is'
	DB	' an error for both ''%s'' and ''%s'' to be specified on the s'
	DB	'ame type definition', 00H			; `string'
CONST	ENDS
;	COMDAT ??_C@_0HG@KJDGAKFE@It?5is?5an?5error?5for?5both?5?8length@
CONST	SEGMENT
??_C@_0HG@KJDGAKFE@It?5is?5an?5error?5for?5both?5?8length@ DB 'It is an e'
	DB	'rror for both ''length'' and either of ''minLength'' or ''max'
	DB	'Length'' to be specified on the same type definition', 00H ; `string'
CONST	ENDS
;	COMDAT ??_C@_0BD@OGMOIDHN@?8?5of?5the?5base?5type@
CONST	SEGMENT
??_C@_0BD@OGMOIDHN@?8?5of?5the?5base?5type@ DB ''' of the base type', 00H ; `string'
CONST	ENDS
;	COMDAT ??_C@_0N@LGLLBNBD@?5or?5equal?5to@
CONST	SEGMENT
??_C@_0N@LGLLBNBD@?5or?5equal?5to@ DB ' or equal to', 00H ; `string'
CONST	ENDS
;	COMDAT ??_C@_0L@HHJDMGPP@?5less?5than@
CONST	SEGMENT
??_C@_0L@HHJDMGPP@?5less?5than@ DB ' less than', 00H	; `string'
CONST	ENDS
;	COMDAT ??_C@_0O@EOMDOOFG@?5greater?5than@
CONST	SEGMENT
??_C@_0O@EOMDOOFG@?5greater?5than@ DB ' greater than', 00H ; `string'
CONST	ENDS
;	COMDAT ??_C@_09BFLDGAFJ@?5equal?5to@
CONST	SEGMENT
??_C@_09BFLDGAFJ@?5equal?5to@ DB ' equal to', 00H	; `string'
CONST	ENDS
;	COMDAT ??_C@_0M@HCGPHKGF@?8?5has?5to?5be@
CONST	SEGMENT
??_C@_0M@HCGPHKGF@?8?5has?5to?5be@ DB ''' has to be', 00H ; `string'
CONST	ENDS
;	COMDAT ??_C@_0HG@CLNEKDGF@If?5?$DMsimpleContent?$DO?5and?5?$DMextensi@
CONST	SEGMENT
??_C@_0HG@CLNEKDGF@If?5?$DMsimpleContent?$DO?5and?5?$DMextensi@ DB 'If <s'
	DB	'impleContent> and <extension> is used, the base type must be '
	DB	'a simple type. The base type ''%s'' is a complex type', 00H ; `string'
CONST	ENDS
;	COMDAT ??_C@_0LD@GJIEKEIE@If?5?$DMsimpleContent?$DO?5and?5?$DMrestric@
CONST	SEGMENT
??_C@_0LD@GJIEKEIE@If?5?$DMsimpleContent?$DO?5and?5?$DMrestric@ DB 'If <s'
	DB	'impleContent> and <restriction> is used, the base type must b'
	DB	'e a simple type or a complex type with mixed content and part'
	DB	'icle emptiable. The base type ''%s'' is none of those', 00H ; `string'
CONST	ENDS
;	COMDAT ??_C@_0IE@LDPFNCJG@A?5?$DMsimpleType?$DO?5is?5expected?5amon@
CONST	SEGMENT
??_C@_0IE@LDPFNCJG@A?5?$DMsimpleType?$DO?5is?5expected?5amon@ DB 'A <simp'
	DB	'leType> is expected among the children of <restriction>, if <'
	DB	'simpleContent> is used and the base type ''%s'' is a complex '
	DB	'type', 00H					; `string'
CONST	ENDS
;	COMDAT ??_C@_0EJ@MGOOHGBI@Internal?5error?3?5xmlSchemaCheckS@
CONST	SEGMENT
??_C@_0EJ@MGOOHGBI@Internal?5error?3?5xmlSchemaCheckS@ DB 'Internal error'
	DB	': xmlSchemaCheckSRCCT, ''%s'', base type has no content type', 00H ; `string'
CONST	ENDS
;	COMDAT ??_C@_0HG@OCMJPANJ@If?5using?5?$DMsimpleContent?$DO?5and?5?$DMr@
CONST	SEGMENT
??_C@_0HG@OCMJPANJ@If?5using?5?$DMsimpleContent?$DO?5and?5?$DMr@ DB 'If u'
	DB	'sing <simpleContent> and <restriction>, the base type must be'
	DB	' a complex type. The base type ''%s'' is a simple type', 00H ; `string'
CONST	ENDS
;	COMDAT ??_C@_0GP@CNIJIED@If?5using?5?$DMcomplexContent?$DO?0?5the?5@
CONST	SEGMENT
??_C@_0GP@CNIJIED@If?5using?5?$DMcomplexContent?$DO?0?5the?5@ DB 'If usin'
	DB	'g <complexContent>, the base type is expected to be a complex'
	DB	' type. The base type ''%s'' is a simple type', 00H ; `string'
CONST	ENDS
;	COMDAT ??_C@_0DF@LCGEMILI@The?5type?5is?5not?5a?5valid?5restric@
CONST	SEGMENT
??_C@_0DF@LCGEMILI@The?5type?5is?5not?5a?5valid?5restric@ DB 'The type is'
	DB	' not a valid restriction of its base type', 00H ; `string'
CONST	ENDS
;	COMDAT ??_C@_0FM@PFEADGDA@If?5the?5content?5type?5is?5?8mixed?8?0@
CONST	SEGMENT
??_C@_0FM@PFEADGDA@If?5the?5content?5type?5is?5?8mixed?8?0@ DB 'If the co'
	DB	'ntent type is ''mixed'', then the content type of the base ty'
	DB	'pe must also be ''mixed''', 00H		; `string'
CONST	ENDS
;	COMDAT ??_C@_0HB@BKHGHMKG@The?5content?5type?5of?5the?5base?5ty@
CONST	SEGMENT
??_C@_0HB@BKHGHMKG@The?5content?5type?5of?5the?5base?5ty@ DB 'The content'
	DB	' type of the base type must be either empty or ''mixed'' (or '
	DB	'''elements-only'') and an emptiable particle', 00H ; `string'
CONST	ENDS
;	COMDAT ??_C@_0GE@JDFDINMM@The?5content?5type?5of?5the?5base?5ty@
CONST	SEGMENT
??_C@_0GE@JDFDINMM@The?5content?5type?5of?5the?5base?5ty@ DB 'The content'
	DB	' type of the base type must be either a simple type or ''mixe'
	DB	'd'' and an emptiable particle', 00H		; `string'
CONST	ENDS
;	COMDAT ??_C@_0FE@IHCAKODH@The?5?$HLcontent?5type?$HN?5?$CFs?5is?5not?5va@
CONST	SEGMENT
??_C@_0FE@IHCAKODH@The?5?$HLcontent?5type?$HN?5?$CFs?5is?5not?5va@ DB 'Th'
	DB	'e {content type} %s is not validly derived from the base type'
	DB	'''s {content type} %s', 00H			; `string'
CONST	ENDS
;	COMDAT ??_C@_0DP@BNGFOOBI@The?5?8final?8?5of?5the?5base?5type?5de@
CONST	SEGMENT
??_C@_0DP@BNGFOOBI@The?5?8final?8?5of?5the?5base?5type?5de@ DB 'The ''fin'
	DB	'al'' of the base type definition contains ''restriction''', 00H ; `string'
CONST	ENDS
;	COMDAT ??_C@_0CF@JAJFEDFA@The?5base?5type?5must?5be?5a?5complex@
CONST	SEGMENT
??_C@_0CF@JAJFEDFA@The?5base?5type?5must?5be?5a?5complex@ DB 'The base ty'
	DB	'pe must be a complex type', 00H		; `string'
CONST	ENDS
;	COMDAT ??_C@_0CO@EGFIFAEL@The?5content?5type?5must?5be?5the?5si@
CONST	SEGMENT
??_C@_0CO@EGFIFAEL@The?5content?5type?5must?5be?5the?5si@ DB 'The content'
	DB	' type must be the simple base type', 00H	; `string'
CONST	ENDS
;	COMDAT ??_C@_0FM@GPKINKDA@The?5content?5type?5of?5both?0?5the?5t@
CONST	SEGMENT
??_C@_0FM@GPKINKDA@The?5content?5type?5of?5both?0?5the?5t@ DB 'The conten'
	DB	't type of both, the type and its base type, must either ''mix'
	DB	'ed'' or ''element-only''', 00H		; `string'
CONST	ENDS
;	COMDAT ??_C@_0CJ@LMFNPNPH@The?5content?5type?5must?5specify?5a@
CONST	SEGMENT
??_C@_0CJ@LMFNPNPH@The?5content?5type?5must?5specify?5a@ DB 'The content '
	DB	'type must specify a particle', 00H		; `string'
CONST	ENDS
;	COMDAT ??_C@_0DN@CKGKOKMC@The?5?8final?8?5of?5the?5base?5type?5de@
CONST	SEGMENT
??_C@_0DN@CKGKOKMC@The?5?8final?8?5of?5the?5base?5type?5de@ DB 'The ''fin'
	DB	'al'' of the base type definition contains ''extension''', 00H ; `string'
CONST	ENDS
;	COMDAT ??_C@_0IE@LIFNGLDM@There?5must?5not?5exist?5more?5than?5@
CONST	SEGMENT
??_C@_0IE@LIFNGLDM@There?5must?5not?5exist?5more?5than?5@ DB 'There must '
	DB	'not exist more than one attribute declaration of type ''xs:ID'
	DB	''' (or derived from ''xs:ID''). The %s violates this constrai'
	DB	'nt', 00H					; `string'
CONST	ENDS
;	COMDAT ??_C@_0N@NMANGDLF@Duplicate?5?$CFs@
CONST	SEGMENT
??_C@_0N@NMANGDLF@Duplicate?5?$CFs@ DB 'Duplicate %s', 00H ; `string'
CONST	ENDS
;	COMDAT ??_C@_0EN@DHFNNJDJ@If?5the?5base?5type?5is?5a?5simple?5ty@
CONST	SEGMENT
??_C@_0EN@DHFNNJDJ@If?5the?5base?5type?5is?5a?5simple?5ty@ DB 'If the bas'
	DB	'e type is a simple type, the derivation method must be ''exte'
	DB	'nsion''', 00H				; `string'
CONST	ENDS
;	COMDAT ??_C@_0CD@MOGOJILI@xmlSchemaParseCheckCOSValidDefa@
CONST	SEGMENT
??_C@_0CD@MOGOJILI@xmlSchemaParseCheckCOSValidDefa@ DB 'xmlSchemaParseChe'
	DB	'ckCOSValidDefault', 00H			; `string'
CONST	ENDS
;	COMDAT ??_C@_0CH@HOPMNJDI@calling?5xmlSchemaVCheckCVCSimpl@
CONST	SEGMENT
??_C@_0CH@HOPMNJDI@calling?5xmlSchemaVCheckCVCSimpl@ DB 'calling xmlSchem'
	DB	'aVCheckCVCSimpleType()', 00H		; `string'
CONST	ENDS
;	COMDAT ??_C@_0IM@DDPGDFGG@For?5a?5string?5to?5be?5a?5valid?5defa@
CONST	SEGMENT
??_C@_0IM@DDPGDFGG@For?5a?5string?5to?5be?5a?5valid?5defa@ DB 'For a stri'
	DB	'ng to be a valid default, the type definition must be a simpl'
	DB	'e type or a complex type with mixed content and a particle em'
	DB	'ptiable', 00H				; `string'
CONST	ENDS
;	COMDAT ??_C@_0FL@FMHFMMBK@Internal?5error?3?5xmlSchemaCreate@
CONST	SEGMENT
??_C@_0FL@FMHFMMBK@Internal?5error?3?5xmlSchemaCreate@ DB 'Internal error'
	DB	': xmlSchemaCreateVCtxtOnPCtxt, failed to create a temp. valid'
	DB	'ation context.', 0aH, 00H			; `string'
CONST	ENDS
;	COMDAT ??_C@_0GE@MIEEABNE@The?5member?5type?5?$CFs?5is?5not?5valid@
CONST	SEGMENT
??_C@_0GE@MIEEABNE@The?5member?5type?5?$CFs?5is?5not?5valid@ DB 'The memb'
	DB	'er type %s is not validly derived from its corresponding memb'
	DB	'er type %s of the base type %s', 00H	; `string'
CONST	ENDS
;	COMDAT ??_C@_0CJ@HOHKAHOI@different?5number?5of?5member?5type@
CONST	SEGMENT
??_C@_0CJ@HOHKAHOI@different?5number?5of?5member?5type@ DB 'different num'
	DB	'ber of member types in base', 00H		; `string'
CONST	ENDS
;	COMDAT ??_C@_0CH@MIGLCPEH@The?5base?5type?5?8?$CFs?8?5is?5not?5a?5uni@
CONST	SEGMENT
??_C@_0CH@MIGLCPEH@The?5base?5type?5?8?$CFs?8?5is?5not?5a?5uni@ DB 'The b'
	DB	'ase type ''%s'' is not a union type', 00H	; `string'
CONST	ENDS
;	COMDAT ??_C@_0BC@LHNABEDG@No?5facets?5allowed@
CONST	SEGMENT
??_C@_0BC@LHNABEDG@No?5facets?5allowed@ DB 'No facets allowed', 00H ; `string'
CONST	ENDS
;	COMDAT ??_C@_0DB@GMGLNPMG@The?5?8final?8?5of?5member?5type?5?8?$CFs?8@
CONST	SEGMENT
??_C@_0DB@GMGLNPMG@The?5?8final?8?5of?5member?5type?5?8?$CFs?8@ DB 'The '''
	DB	'final'' of member type ''%s'' contains ''union''', 00H ; `string'
CONST	ENDS
;	COMDAT ??_C@_0DL@JIAIGPPB@The?5member?5type?5?8?$CFs?8?5is?5neither@
CONST	SEGMENT
??_C@_0DL@JIAIGPPB@The?5member?5type?5?8?$CFs?8?5is?5neither@ DB 'The mem'
	DB	'ber type ''%s'' is neither an atomic, nor a list type', 00H ; `string'
CONST	ENDS
;	COMDAT ??_C@_0FI@JBMOEDMD@The?5item?5type?5?8?$CFs?8?5is?5not?5valid@
CONST	SEGMENT
??_C@_0FI@JBMOEDMD@The?5item?5type?5?8?$CFs?8?5is?5not?5valid@ DB 'The it'
	DB	'em type ''%s'' is not validly derived from the item type ''%s'
	DB	''' of the base type ''%s''', 00H		; `string'
CONST	ENDS
;	COMDAT ??_C@_0CM@CKGJJDPM@failed?5to?5eval?5the?5item?5type?5of@
CONST	SEGMENT
??_C@_0CM@CKGJJDPM@failed?5to?5eval?5the?5item?5type?5of@ DB 'failed to e'
	DB	'val the item type of a base type', 00H	; `string'
CONST	ENDS
;	COMDAT ??_C@_0EB@DKPMMCLA@The?5?8final?8?5of?5the?5base?5type?5?8?$CF@
CONST	SEGMENT
??_C@_0EB@DKPMMCLA@The?5?8final?8?5of?5the?5base?5type?5?8?$CF@ DB 'The '''
	DB	'final'' of the base type ''%s'' must not contain ''restrictio'
	DB	'n''', 00H					; `string'
CONST	ENDS
;	COMDAT ??_C@_0CH@GNOCMONM@The?5base?5type?5?8?$CFs?8?5must?5be?5a?5li@
CONST	SEGMENT
??_C@_0CH@GNOCMONM@The?5base?5type?5?8?$CFs?8?5must?5be?5a?5li@ DB 'The b'
	DB	'ase type ''%s'' must be a list type', 00H	; `string'
CONST	ENDS
;	COMDAT ??_C@_0DI@HJPNFIBB@The?5final?5of?5its?5item?5type?5?8?$CFs?8@
CONST	SEGMENT
??_C@_0DI@HJPNFIBB@The?5final?5of?5its?5item?5type?5?8?$CFs?8@ DB 'The fi'
	DB	'nal of its item type ''%s'' must not contain ''list''', 00H ; `string'
CONST	ENDS
;	COMDAT ??_C@_0FI@NONGNEND@The?5item?5type?5is?5a?5union?5type?0?5@
CONST	SEGMENT
??_C@_0FI@NONGNEND@The?5item?5type?5is?5a?5union?5type?0?5@ DB 'The item '
	DB	'type is a union type, but the member type ''%s'' of this item'
	DB	' type is not atomic', 00H			; `string'
CONST	ENDS
;	COMDAT ??_C@_0DO@CNOGHMHL@The?5item?5type?5?8?$CFs?8?5does?5not?5hav@
CONST	SEGMENT
??_C@_0DO@CNOGHMHL@The?5item?5type?5?8?$CFs?8?5does?5not?5hav@ DB 'The it'
	DB	'em type ''%s'' does not have a variety of atomic or union', 00H ; `string'
CONST	ENDS
;	COMDAT ??_C@_0CB@HJDIBIBN@failed?5to?5evaluate?5the?5item?5typ@
CONST	SEGMENT
??_C@_0CB@HJDIBIBN@failed?5to?5evaluate?5the?5item?5typ@ DB 'failed to ev'
	DB	'aluate the item type', 00H			; `string'
CONST	ENDS
;	COMDAT ??_C@_0BN@KLLNOLEJ@failed?5to?5get?5primitive?5type@
CONST	SEGMENT
??_C@_0BN@KLLNOLEJ@failed?5to?5get?5primitive?5type@ DB 'failed to get pr'
	DB	'imitive type', 00H				; `string'
CONST	ENDS
;	COMDAT ??_C@_0DP@KJOCHNDL@The?5final?5of?5its?5base?5type?5?8?$CFs?8@
CONST	SEGMENT
??_C@_0DP@KJOCHNDL@The?5final?5of?5its?5base?5type?5?8?$CFs?8@ DB 'The fi'
	DB	'nal of its base type ''%s'' must not contain ''restriction''', 00H ; `string'
CONST	ENDS
;	COMDAT ??_C@_0DA@BHMFPHHO@The?5base?5type?5?8?$CFs?8?5is?5not?5an?5at@
CONST	SEGMENT
??_C@_0DA@BHMFPHHO@The?5base?5type?5?8?$CFs?8?5is?5not?5an?5at@ DB 'The b'
	DB	'ase type ''%s'' is not an atomic simple type', 00H ; `string'
CONST	ENDS
;	COMDAT ??_C@_0BN@JGCJPHDI@xmlSchemaCheckCOSSTRestricts@
CONST	SEGMENT
??_C@_0BN@JGCJPHDI@xmlSchemaCheckCOSSTRestricts@ DB 'xmlSchemaCheckCOSSTR'
	DB	'estricts', 00H				; `string'
CONST	ENDS
;	COMDAT ??_C@_0CM@LMHOOJIC@given?5type?5is?5not?5a?5user?9derive@
CONST	SEGMENT
??_C@_0CM@LMHOOJIC@given?5type?5is?5not?5a?5user?9derive@ DB 'given type '
	DB	'is not a user-derived simpleType', 00H	; `string'
CONST	ENDS
;	COMDAT ??_C@_0EB@JOOLHCHD@The?5?8final?8?5of?5its?5base?5type?5?8?$CF@
CONST	SEGMENT
??_C@_0EB@JOOLHCHD@The?5?8final?8?5of?5its?5base?5type?5?8?$CF@ DB 'The '''
	DB	'final'' of its base type ''%s'' must not contain ''restrictio'
	DB	'n''', 00H					; `string'
CONST	ENDS
;	COMDAT ??_C@_0BG@NAEJKMEI@The?5variety?5is?5absent@
CONST	SEGMENT
??_C@_0BG@NAEJKMEI@The?5variety?5is?5absent@ DB 'The variety is absent', 00H ; `string'
CONST	ENDS
;	COMDAT ??_C@_0GB@OJPAIDNO@A?5type?0?5derived?5by?5list?5or?5unio@
CONST	SEGMENT
??_C@_0GB@OJPAIDNO@A?5type?0?5derived?5by?5list?5or?5unio@ DB 'A type, de'
	DB	'rived by list or union, must have the simple ur-type definiti'
	DB	'on as base type, not ''%s''', 00H		; `string'
CONST	ENDS
;	COMDAT ??_C@_0CI@BABCEAKF@The?5base?5type?5?8?$CFs?8?5is?5not?5a?5sim@
CONST	SEGMENT
??_C@_0CI@BABCEAKF@The?5base?5type?5?8?$CFs?8?5is?5not?5a?5sim@ DB 'The b'
	DB	'ase type ''%s'' is not a simple type', 00H	; `string'
CONST	ENDS
;	COMDAT ??_C@_0BG@PPOHGOMN@No?5base?5type?5existent@
CONST	SEGMENT
??_C@_0BG@PPOHGOMN@No?5base?5type?5existent@ DB 'No base type existent', 00H ; `string'
CONST	ENDS
;	COMDAT ??_C@_0FM@NJGNMMEM@The?5particle?8s?5?$HLmax?5occurs?$HN?5mus@
CONST	SEGMENT
??_C@_0FM@NJGNMMEM@The?5particle?8s?5?$HLmax?5occurs?$HN?5mus@ DB 'The pa'
	DB	'rticle''s {max occurs} must be 1, since the reference resolve'
	DB	's to an ''all'' model group', 00H		; `string'
CONST	ENDS
;	COMDAT ??_C@_0CG@FDHFJMFM@The?5union?5type?5definition?5is?5ci@
CONST	SEGMENT
??_C@_0CG@FDHFJMFM@The?5union?5type?5definition?5is?5ci@ DB 'The union ty'
	DB	'pe definition is circular', 00H		; `string'
CONST	ENDS
;	COMDAT ??_C@_0BL@KGAFCIDP@The?5definition?5is?5circular@
CONST	SEGMENT
??_C@_0BL@KGAFCIDP@The?5definition?5is?5circular@ DB 'The definition is c'
	DB	'ircular', 00H				; `string'
CONST	ENDS
;	COMDAT ??_C@_0BM@FJOPIFJN@failed?5to?5expand?5attributes@
CONST	SEGMENT
??_C@_0BM@FJOPIFJN@failed?5to?5expand?5attributes@ DB 'failed to expand a'
	DB	'ttributes', 00H				; `string'
CONST	ENDS
;	COMDAT ??_C@_0CA@OFHPNPHI@xmlSchemaFixupTypeAttributeUses@
CONST	SEGMENT
??_C@_0CA@OFHPNPHI@xmlSchemaFixupTypeAttributeUses@ DB 'xmlSchemaFixupTyp'
	DB	'eAttributeUses', 00H			; `string'
CONST	ENDS
;	COMDAT ??_C@_0N@OMCNPMDL@no?5base?5type@
CONST	SEGMENT
??_C@_0N@OMCNPMDL@no?5base?5type@ DB 'no base type', 00H ; `string'
CONST	ENDS
;	COMDAT ??_C@_0FK@HDNJNNIO@The?5?$HLprocess?5contents?$HN?5of?5the?5a@
CONST	SEGMENT
??_C@_0FK@HDNJNNIO@The?5?$HLprocess?5contents?$HN?5of?5the?5a@ DB 'The {p'
	DB	'rocess contents} of the attribute wildcard is weaker than the'
	DB	' one in the %s %s ''%s''', 00H		; `string'
CONST	ENDS
;	COMDAT ??_C@_0EP@KINLKDD@The?5attribute?5wildcard?5is?5not?5a@
CONST	SEGMENT
??_C@_0EP@KINLKDD@The?5attribute?5wildcard?5is?5not?5a@ DB 'The attribute'
	DB	' wildcard is not a valid subset of the wildcard in the %s %s '
	DB	'''%s''', 00H				; `string'
CONST	ENDS
;	COMDAT ??_C@_0EH@LKDIOLEM@The?5?$CFs?5has?5an?5attribute?5wildcar@
CONST	SEGMENT
??_C@_0EH@LKDIOLEM@The?5?$CFs?5has?5an?5attribute?5wildcar@ DB 'The %s ha'
	DB	's an attribute wildcard, but the %s %s ''%s'' does not have o'
	DB	'ne', 00H					; `string'
CONST	ENDS
;	COMDAT ??_C@_0EH@JCFCIHDB@A?5matching?5attribute?5use?5for?5th@
CONST	SEGMENT
??_C@_0EH@JCFCIHDB@A?5matching?5attribute?5use?5for?5th@ DB 'A matching a'
	DB	'ttribute use for the ''required'' %s of the %s %s is missing', 00H ; `string'
CONST	ENDS
;	COMDAT ??_C@_0EO@EJIDKJHC@Neither?5a?5matching?5attribute?5us@
CONST	SEGMENT
??_C@_0EO@EJIDKJHC@Neither?5a?5matching?5attribute?5us@ DB 'Neither a mat'
	DB	'ching attribute use, nor a matching wildcard exists in the %s'
	DB	' %s', 00H					; `string'
CONST	ENDS
;	COMDAT ??_C@_0GI@OJPOJNKC@The?5effective?5value?5constraint?5@
CONST	SEGMENT
??_C@_0GI@OJPOJNKC@The?5effective?5value?5constraint?5@ DB 'The effective'
	DB	' value constraint of the attribute use is inconsistent with i'
	DB	'ts correspondent in the %s %s', 00H		; `string'
CONST	ENDS
;	COMDAT ??_C@_0HK@BBMHJBAP@The?5attribute?5declaration?8s?5?$CFs?5@
CONST	SEGMENT
??_C@_0HK@BBMHJBAP@The?5attribute?5declaration?8s?5?$CFs?5@ DB 'The attri'
	DB	'bute declaration''s %s is not validly derived from the corres'
	DB	'ponding %s of the attribute declaration in the %s %s', 00H ; `string'
CONST	ENDS
;	COMDAT ??_C@_0GK@JGCEGOAB@The?5?8optional?8?5attribute?5use?5is@
CONST	SEGMENT
??_C@_0GK@JGCEGOAB@The?5?8optional?8?5attribute?5use?5is@ DB 'The ''optio'
	DB	'nal'' attribute use is inconsistent with the corresponding '''
	DB	'required'' attribute use of the %s %s', 00H	; `string'
CONST	ENDS
;	COMDAT ??_C@_09KLOJBFOH@redefined@
CONST	SEGMENT
??_C@_09KLOJBFOH@redefined@ DB 'redefined', 00H		; `string'
CONST	ENDS
;	COMDAT ??_C@_0DF@DJLMCEFH@The?5intersection?5of?5the?5wilcard@
CONST	SEGMENT
??_C@_0DF@DJLMCEFH@The?5intersection?5of?5the?5wilcard@ DB 'The intersect'
	DB	'ion of the wilcard is not expressible.', 0aH, 00H ; `string'
CONST	ENDS
;	COMDAT ??_C@_0CO@HFHAKEB@The?5union?5of?5the?5wilcard?5is?5not@
CONST	SEGMENT
??_C@_0CO@HFHAKEB@The?5union?5of?5the?5wilcard?5is?5not@ DB 'The union of'
	DB	' the wilcard is not expressible.', 0aH, 00H	; `string'
CONST	ENDS
;	COMDAT ??_C@_0BH@ENHIIAOL@allocating?5a?5type?5link@
CONST	SEGMENT
??_C@_0BH@ENHIIAOL@allocating?5a?5type?5link@ DB 'allocating a type link', 00H ; `string'
CONST	ENDS
;	COMDAT ??_C@_0BA@LIFKLDKP@type?5definition@
CONST	SEGMENT
??_C@_0BA@LIFKLDKP@type?5definition@ DB 'type definition', 00H ; `string'
CONST	ENDS
;	COMDAT ??_C@_0CF@FHONPKDJ@The?5content?5model?5is?5not?5determ@
CONST	SEGMENT
??_C@_0CF@FHONPKDJ@The?5content?5model?5is?5not?5determ@ DB 'The content '
	DB	'model is not determinist', 00H		; `string'
CONST	ENDS
;	COMDAT ??_C@_0CE@GNJHIDLA@Failed?5to?5compile?5the?5content?5m@
CONST	SEGMENT
??_C@_0CE@GNJHIDLA@Failed?5to?5compile?5the?5content?5m@ DB 'Failed to co'
	DB	'mpile the content model', 00H		; `string'
CONST	ENDS
;	COMDAT ??_C@_0CM@ONMINIGJ@Cannot?5create?5automata?5for?5comp@
CONST	SEGMENT
??_C@_0CM@ONMINIGJ@Cannot?5create?5automata?5for?5comp@ DB 'Cannot create'
	DB	' automata for complex type %s', 0aH, 00H	; `string'
CONST	ENDS
;	COMDAT ??_C@_0DE@JHALJFOD@found?5unexpected?5term?5of?5type?5?8@
CONST	SEGMENT
??_C@_0DE@JHALJFOD@found?5unexpected?5term?5of?5type?5?8@ DB 'found unexp'
	DB	'ected term of type ''%s'' in content model', 00H ; `string'
CONST	ENDS
;	COMDAT ??_C@_0BP@LJGCIBKB@?$DMelement?$DO?5particle?5has?5no?5term@
CONST	SEGMENT
??_C@_0BP@LJGCIBKB@?$DMelement?$DO?5particle?5has?5no?5term@ DB '<element'
	DB	'> particle has no term', 00H		; `string'
CONST	ENDS
;	COMDAT ??_C@_0BM@HHPDPMCK@xmlSchemaBuildAContentModel@
CONST	SEGMENT
??_C@_0BM@HHPDPMCK@xmlSchemaBuildAContentModel@ DB 'xmlSchemaBuildAConten'
	DB	'tModel', 00H				; `string'
CONST	ENDS
;	COMDAT ??_C@_0BB@IKBLLFGH@particle?5is?5NULL@
CONST	SEGMENT
??_C@_0BB@IKBLLFGH@particle?5is?5NULL@ DB 'particle is NULL', 00H ; `string'
CONST	ENDS
;	COMDAT ??_C@_0HK@IHMHBPHC@Internal?5error?3?5xmlSchemaBuildC@
CONST	SEGMENT
??_C@_0HK@IHMHBPHC@Internal?5error?3?5xmlSchemaBuildC@ DB 'Internal error'
	DB	': xmlSchemaBuildContentModelForSubstGroup, declaration is mar'
	DB	'ked having a subst. group but none available.', 0aH, 00H ; `string'
CONST	ENDS
;	COMDAT ??_C@_0GE@BCLPNLHN@This?5is?5a?5redefinition?0?5thus?5th@
CONST	SEGMENT
??_C@_0GE@BCLPNLHN@This?5is?5a?5redefinition?0?5thus?5th@ DB 'This is a r'
	DB	'edefinition, thus the <complexType> must have a <restriction>'
	DB	' or <extension> grand-child', 00H		; `string'
CONST	ENDS
;	COMDAT ??_C@_0IH@OBLFEMHP@?$CIannotation?$DP?0?5?$CIsimpleContent?5?$HM?5@
CONST	SEGMENT
??_C@_0IH@OBLFEMHP@?$CIannotation?$DP?0?5?$CIsimpleContent?5?$HM?5@ DB '('
	DB	'annotation?, (simpleContent | complexContent | ((group | all '
	DB	'| choice | sequence)?, ((attribute | attributeGroup)*, anyAtt'
	DB	'ribute?))))', 00H				; `string'
CONST	ENDS
;	COMDAT ??_C@_0P@LGKPFEB@complexContent@
CONST	SEGMENT
??_C@_0P@LGKPFEB@complexContent@ DB 'complexContent', 00H ; `string'
CONST	ENDS
;	COMDAT ??_C@_0O@EFHOFDNO@simpleContent@
CONST	SEGMENT
??_C@_0O@EFHOFDNO@simpleContent@ DB 'simpleContent', 00H ; `string'
CONST	ENDS
;	COMDAT ??_C@_0CM@OCCOHGHC@?$CI?$CDall?5?$HM?5List?5of?5?$CIextension?5?$HM?5re@
CONST	SEGMENT
??_C@_0CM@OCCOHGHC@?$CI?$CDall?5?$HM?5List?5of?5?$CIextension?5?$HM?5re@ DB '('
	DB	'#all | List of (extension | restriction)) ', 00H ; `string'
CONST	ENDS
;	COMDAT ??_C@_05IPHDHIPP@mixed@
CONST	SEGMENT
??_C@_05IPHDHIPP@mixed@ DB 'mixed', 00H			; `string'
CONST	ENDS
;	COMDAT ??_C@_0CJ@BJCOBFBF@?$CIannotation?$DP?0?5?$CIrestriction?5?$HM?5ex@
CONST	SEGMENT
??_C@_0CJ@BJCOBFBF@?$CIannotation?$DP?0?5?$CIrestriction?5?$HM?5ex@ DB '('
	DB	'annotation?, (restriction | extension))', 00H ; `string'
CONST	ENDS
;	COMDAT ??_C@_0GE@NILNJLFH@?$CIannotation?$DP?0?5?$CI?$CIgroup?5?$HM?5all?5?$HM?5c@
CONST	SEGMENT
??_C@_0GE@NILNJLFH@?$CIannotation?$DP?0?5?$CI?$CIgroup?5?$HM?5all?5?$HM?5c@ DB '('
	DB	'annotation?, ((group | all | choice | sequence)?, ((attribute'
	DB	' | attributeGroup)*, anyAttribute?)))', 00H	; `string'
CONST	ENDS
;	COMDAT ??_C@_0MA@MDLOJGLL@?$CIannotation?$DP?0?5?$CIsimpleType?$DP?0?5?$CImi@
CONST	SEGMENT
??_C@_0MA@MDLOJGLL@?$CIannotation?$DP?0?5?$CIsimpleType?$DP?0?5?$CImi@ DB '('
	DB	'annotation?, (simpleType?, (minExclusive | minInclusive | max'
	DB	'Exclusive | maxInclusive | totalDigits | fractionDigits | len'
	DB	'gth | minLength | maxLength | enumeration | whiteSpace | patt'
	DB	'ern)*))', 00H				; `string'
CONST	ENDS
;	COMDAT ??_C@_0PB@MMDBBLJD@?$CIannotation?$DP?0?5?$CIsimpleType?$DP?0?5?$CImi@
CONST	SEGMENT
??_C@_0PB@MMDBBLJD@?$CIannotation?$DP?0?5?$CIsimpleType?$DP?0?5?$CImi@ DB '('
	DB	'annotation?, (simpleType?, (minExclusive | minInclusive | max'
	DB	'Exclusive | maxInclusive | totalDigits | fractionDigits | len'
	DB	'gth | minLength | maxLength | enumeration | whiteSpace | patt'
	DB	'ern)*)?, ((attribute | attributeGroup)*, anyAttribute?))', 00H ; `string'
CONST	ENDS
;	COMDAT ??_C@_0GB@CPHLEAHN@annotation?$DP?0?5?$CIgroup?5?$HM?5all?5?$HM?5cho@
CONST	SEGMENT
??_C@_0GB@CPHLEAHN@annotation?$DP?0?5?$CIgroup?5?$HM?5all?5?$HM?5cho@ DB 'a'
	DB	'nnotation?, (group | all | choice | sequence)?, ((attribute |'
	DB	' attributeGroup)*, anyAttribute?))', 00H	; `string'
CONST	ENDS
;	COMDAT ??_C@_0BI@BKMOEBCP@allocating?5a?5facet?5link@
CONST	SEGMENT
??_C@_0BI@BKMOEBCP@allocating?5a?5facet?5link@ DB 'allocating a facet lin'
	DB	'k', 00H					; `string'
CONST	ENDS
;	COMDAT ??_C@_0EE@KBNCPLAN@Either?5the?5attribute?5?8base?8?5or?5@
CONST	SEGMENT
??_C@_0EE@KBNCPLAN@Either?5the?5attribute?5?8base?8?5or?5@ DB 'Either the'
	DB	' attribute ''base'' or a <simpleType> child must be present', 00H ; `string'
CONST	ENDS
;	COMDAT ??_C@_0EH@NLLIFAIL@The?5attribute?5?8base?8?5and?5the?5?$DMs@
CONST	SEGMENT
??_C@_0EH@NLLIFAIL@The?5attribute?5?8base?8?5and?5the?5?$DMs@ DB 'The att'
	DB	'ribute ''base'' and the <simpleType> child are mutually exclu'
	DB	'sive', 00H					; `string'
CONST	ENDS
;	COMDAT ??_C@_0HE@HDNCABHM@This?5is?5a?5redefinition?0?5but?5the@
CONST	SEGMENT
??_C@_0HE@HDNCABHM@This?5is?5a?5redefinition?0?5but?5the@ DB 'This is a r'
	DB	'edefinition, but the QName value ''%s'' of the ''base'' attri'
	DB	'bute does not match the type''s designation ''%s''', 00H ; `string'
CONST	ENDS
;	COMDAT ??_C@_04BHIIPFEC@base@
CONST	SEGMENT
??_C@_04BHIIPFEC@base@ DB 'base', 00H			; `string'
CONST	ENDS
;	COMDAT ??_C@_0DM@EMLAMPJB@?$CIannotation?$DP?0?5?$CIelement?5?$HM?5group?5@
CONST	SEGMENT
??_C@_0DM@EMLAMPJB@?$CIannotation?$DP?0?5?$CIelement?5?$HM?5group?5@ DB '('
	DB	'annotation?, (element | group | choice | sequence | any)*)', 00H ; `string'
CONST	ENDS
;	COMDAT ??_C@_0IM@HPEJBILG@The?5redefining?5model?5group?5defi@
CONST	SEGMENT
??_C@_0IM@HPEJBILG@The?5redefining?5model?5group?5defi@ DB 'The redefinin'
	DB	'g model group definition ''%s'' must not contain a reference '
	DB	'to the redefined definition with a maxOccurs/minOccurs other '
	DB	'than 1', 00H				; `string'
CONST	ENDS
;	COMDAT ??_C@_0HA@PEPECPEK@The?5redefining?5model?5group?5defi@
CONST	SEGMENT
??_C@_0HA@PEPECPEK@The?5redefining?5model?5group?5defi@ DB 'The redefinin'
	DB	'g model group definition ''%s'' must not contain more than on'
	DB	'e reference to the redefined definition', 00H ; `string'
CONST	ENDS
;	COMDAT ??_C@_03OBJFJEBA@any@
CONST	SEGMENT
??_C@_03OBJFJEBA@any@ DB 'any', 00H			; `string'
CONST	ENDS
;	COMDAT ??_C@_0CG@DCDFMCOM@?$CIannotation?$DP?0?5?$CIannotation?$DP?0?5ele@
CONST	SEGMENT
??_C@_0CG@DCDFMCOM@?$CIannotation?$DP?0?5?$CIannotation?$DP?0?5ele@ DB '('
	DB	'annotation?, (annotation?, element*)', 00H	; `string'
CONST	ENDS
;	COMDAT ??_C@_0CN@JOJFLDM@Invalid?5value?5for?5maxOccurs?5?$CImu@
CONST	SEGMENT
??_C@_0CN@JOJFLDM@Invalid?5value?5for?5maxOccurs?5?$CImu@ DB 'Invalid val'
	DB	'ue for maxOccurs (must be 0 or 1)', 00H	; `string'
CONST	ENDS
;	COMDAT ??_C@_0CN@GPAMDNEI@Invalid?5value?5for?5minOccurs?5?$CImu@
CONST	SEGMENT
??_C@_0CN@GPAMDNEI@Invalid?5value?5for?5minOccurs?5?$CImu@ DB 'Invalid va'
	DB	'lue for minOccurs (must be 0 or 1)', 00H	; `string'
CONST	ENDS
;	COMDAT ??_C@_07OCHOELKN@?$CI0?5?$HM?51?$CJ@
CONST	SEGMENT
??_C@_07OCHOELKN@?$CI0?5?$HM?51?$CJ@ DB '(0 | 1)', 00H	; `string'
CONST	ENDS
;	COMDAT ??_C@_0EE@OHBEFOEM@?$CIannotation?5?$HM?5?$CIsimpleType?5?$HM?5com@
CONST	SEGMENT
??_C@_0EE@OHBEFOEM@?$CIannotation?5?$HM?5?$CIsimpleType?5?$HM?5com@ DB '('
	DB	'annotation | (simpleType | complexType | group | attributeGro'
	DB	'up))*', 00H					; `string'
CONST	ENDS
;	COMDAT ??_C@_0IO@MEKANAPF@The?5target?5namespace?5of?5the?5inc@
CONST	SEGMENT
??_C@_0IO@MEKANAPF@The?5target?5namespace?5of?5the?5inc@ DB 'The target n'
	DB	'amespace of the included/redefined schema ''%s'' has to be ab'
	DB	'sent or the same as the including/redefining schema''s target'
	DB	' namespace', 00H				; `string'
CONST	ENDS
;	COMDAT ??_C@_0HF@NFPCCAHE@The?5target?5namespace?5?8?$CFs?8?5of?5th@
CONST	SEGMENT
??_C@_0HF@NFPCCAHE@The?5target?5namespace?5?8?$CFs?8?5of?5th@ DB 'The tar'
	DB	'get namespace ''%s'' of the included/redefined schema ''%s'' '
	DB	'differs from ''%s'' of the including/redefining schema', 00H ; `string'
CONST	ENDS
;	COMDAT ??_C@_0IL@MIGJBHGC@The?5target?5namespace?5of?5the?5inc@
CONST	SEGMENT
??_C@_0IL@MIGJBHGC@The?5target?5namespace?5of?5the?5inc@ DB 'The target n'
	DB	'amespace of the included/redefined schema ''%s'' has to be ab'
	DB	'sent, since the including/redefining schema has no target nam'
	DB	'espace', 00H				; `string'
CONST	ENDS
;	COMDAT ??_C@_0DC@DJHEKCBE@Failed?5to?5load?5the?5document?5?8?$CFs@
CONST	SEGMENT
??_C@_0DC@DJHEKCBE@Failed?5to?5load?5the?5document?5?8?$CFs@ DB 'Failed t'
	DB	'o load the document ''%s'' for redefinition', 00H ; `string'
CONST	ENDS
;	COMDAT ??_C@_0CP@PKPHBKIC@Failed?5to?5load?5the?5document?5?8?$CFs@
CONST	SEGMENT
??_C@_0CP@PKPHBKIC@Failed?5to?5load?5the?5document?5?8?$CFs@ DB 'Failed t'
	DB	'o load the document ''%s'' for inclusion', 00H ; `string'
CONST	ENDS
;	COMDAT ??_C@_0DA@JGHKIBFN@The?5schema?5document?5?8?$CFs?8?5cannot@
CONST	SEGMENT
??_C@_0DA@JGHKIBFN@The?5schema?5document?5?8?$CFs?8?5cannot@ DB 'The sche'
	DB	'ma document ''%s'' cannot include itself.', 00H ; `string'
CONST	ENDS
;	COMDAT ??_C@_0DB@IGEPJIPN@The?5schema?5document?5?8?$CFs?8?5cannot@
CONST	SEGMENT
??_C@_0DB@IGEPJIPN@The?5schema?5document?5?8?$CFs?8?5cannot@ DB 'The sche'
	DB	'ma document ''%s'' cannot redefine itself.', 00H ; `string'
CONST	ENDS
;	COMDAT ??_C@_0CA@NKMDDHKI@xmlSchemaParseIncludeOrRedefine@
CONST	SEGMENT
??_C@_0CA@NKMDDHKI@xmlSchemaParseIncludeOrRedefine@ DB 'xmlSchemaParseInc'
	DB	'ludeOrRedefine', 00H			; `string'
CONST	ENDS
;	COMDAT ??_C@_0CP@EKIECFJN@could?5not?5build?5an?5URI?5from?5the@
CONST	SEGMENT
??_C@_0CP@EKIECFJN@could?5not?5build?5an?5URI?5from?5the@ DB 'could not b'
	DB	'uild an URI from the schemaLocation', 00H	; `string'
CONST	ENDS
;	COMDAT ??_C@_0EA@NKOOPGEC@Failed?5to?5locate?5a?5schema?5at?5lo@
CONST	SEGMENT
??_C@_0EA@NKOOPGEC@Failed?5to?5locate?5a?5schema?5at?5lo@ DB 'Failed to l'
	DB	'ocate a schema at location ''%s''. Skipping the import', 00H ; `string'
CONST	ENDS
;	COMDAT ??_C@_0FL@GDFMFMFB@The?5attribute?5?8namespace?8?5must?5@
CONST	SEGMENT
??_C@_0FL@GDFMFMFB@The?5attribute?5?8namespace?8?5must?5@ DB 'The attribu'
	DB	'te ''namespace'' must be existent if the importing schema has'
	DB	' no target namespace', 00H			; `string'
CONST	ENDS
;	COMDAT ??_C@_0GI@OLOMMMCB@The?5value?5of?5the?5attribute?5?8nam@
CONST	SEGMENT
??_C@_0GI@OLOMMMCB@The?5value?5of?5the?5attribute?5?8nam@ DB 'The value o'
	DB	'f the attribute ''namespace'' must not match the target names'
	DB	'pace ''%s'' of the importing schema', 00H	; `string'
CONST	ENDS
;	COMDAT ??_C@_0P@DEMHLMFE@schemaLocation@
CONST	SEGMENT
??_C@_0P@DEMHLMFE@schemaLocation@ DB 'schemaLocation', 00H ; `string'
CONST	ENDS
;	COMDAT ??_C@_0CP@HFPALNHL@The?5XML?5document?5?8?$CFs?8?5is?5not?5a?5@
CONST	SEGMENT
??_C@_0CP@HFPALNHL@The?5XML?5document?5?8?$CFs?8?5is?5not?5a?5@ DB 'The X'
	DB	'ML document ''%s'' is not a schema document', 00H ; `string'
CONST	ENDS
;	COMDAT ??_C@_06KICAKOOL@schema@
CONST	SEGMENT
??_C@_06KICAKOOL@schema@ DB 'schema', 00H		; `string'
CONST	ENDS
;	COMDAT ??_C@_0CK@LEAJAMEE@The?5document?5?8?$CFs?8?5has?5no?5docume@
CONST	SEGMENT
??_C@_0CK@LEAJAMEE@The?5document?5?8?$CFs?8?5has?5no?5docume@ DB 'The doc'
	DB	'ument ''%s'' has no document element', 00H	; `string'
CONST	ENDS
;	COMDAT ??_C@_0EP@KKBODFED@No?5information?5for?5parsing?5was?5@
CONST	SEGMENT
??_C@_0EP@KKBODFED@No?5information?5for?5parsing?5was?5@ DB 'No informati'
	DB	'on for parsing was provided with the given schema parser cont'
	DB	'ext.', 0aH, 00H				; `string'
CONST	ENDS
;	COMDAT ??_C@_0CG@MKFNOEJC@Failed?5to?5parse?5the?5XML?5resourc@
CONST	SEGMENT
??_C@_0CG@MKFNOEJC@Failed?5to?5parse?5the?5XML?5resourc@ DB 'Failed to pa'
	DB	'rse the XML resource ''%s''', 00H		; `string'
CONST	ENDS
;	COMDAT ??_C@_0CN@KMMHPBMO@xmlSchemaGetDoc?0?5allocating?5a?5p@
CONST	SEGMENT
??_C@_0CN@KMMHPBMO@xmlSchemaGetDoc?0?5allocating?5a?5p@ DB 'xmlSchemaGetD'
	DB	'oc, allocating a parser context', 00H	; `string'
CONST	ENDS
;	COMDAT ??_C@_0BG@PEDNHGDB@xmlSchemaAddSchemaDoc@
CONST	SEGMENT
??_C@_0BG@PEDNHGDB@xmlSchemaAddSchemaDoc@ DB 'xmlSchemaAddSchemaDoc', 00H ; `string'
CONST	ENDS
;	COMDAT ??_C@_0FA@FCNDNFNE@trying?5to?5load?5a?5schema?5doc?0?5bu@
CONST	SEGMENT
??_C@_0FA@FCNDNFNE@trying?5to?5load?5a?5schema?5doc?0?5bu@ DB 'trying to '
	DB	'load a schema doc, but a doc is already assigned to the schem'
	DB	'a bucket', 00H				; `string'
CONST	ENDS
;	COMDAT ??_C@_0IM@HCCFLAGC@Skipping?5import?5of?5schema?5locat@
CONST	SEGMENT
??_C@_0IM@HCCFLAGC@Skipping?5import?5of?5schema?5locat@ DB 'Skipping impo'
	DB	'rt of schema located at ''%s'' for the namespace ''%s'', sinc'
	DB	'e this namespace was already imported with the schema located'
	DB	' at ''%s''', 00H				; `string'
CONST	ENDS
;	COMDAT ??_C@_0FI@DIIKKJHP@The?5schema?5document?5?8?$CFs?8?5cannot@
CONST	SEGMENT
??_C@_0FI@DIIKKJHP@The?5schema?5document?5?8?$CFs?8?5cannot@ DB 'The sche'
	DB	'ma document ''%s'' cannot be included or redefined, since it '
	DB	'was already imported', 00H			; `string'
CONST	ENDS
;	COMDAT ??_C@_0FI@DLHCDBDL@The?5schema?5document?5?8?$CFs?8?5cannot@
CONST	SEGMENT
??_C@_0FI@DLHCDBDL@The?5schema?5document?5?8?$CFs?8?5cannot@ DB 'The sche'
	DB	'ma document ''%s'' cannot be imported, since it was already i'
	DB	'ncluded or redefined', 00H			; `string'
CONST	ENDS
;	COMDAT ??_C@_0BB@IEONCAEH@in_memory_buffer@
CONST	SEGMENT
??_C@_0BB@IEONCAEH@in_memory_buffer@ DB 'in_memory_buffer', 00H ; `string'
CONST	ENDS
;	COMDAT ??_C@_0DD@JJBMBON@The?5schema?5must?5not?5import?1incl@
CONST	SEGMENT
??_C@_0DD@JJBMBON@The?5schema?5must?5not?5import?1incl@ DB 'The schema mu'
	DB	'st not import/include/redefine itself', 00H	; `string'
CONST	ENDS
;	COMDAT ??_C@_0P@BIPJKJFE@no?5constructor@
CONST	SEGMENT
??_C@_0P@BIPJKJFE@no?5constructor@ DB 'no constructor', 00H ; `string'
CONST	ENDS
;	COMDAT ??_C@_0CJ@PEPIDOML@parsing?5a?5schema?5doc?0?5but?5there@
CONST	SEGMENT
??_C@_0CJ@PEPIDOML@parsing?5a?5schema?5doc?0?5but?5there@ DB 'parsing a s'
	DB	'chema doc, but there''s no doc', 00H	; `string'
CONST	ENDS
;	COMDAT ??_C@_0BF@DMMABNCK@xmlSchemaParseNewDoc@
CONST	SEGMENT
??_C@_0BF@DMMABNCK@xmlSchemaParseNewDoc@ DB 'xmlSchemaParseNewDoc', 00H ; `string'
CONST	ENDS
;	COMDAT ??_C@_0BH@IFNOMMON@reparsing?5a?5schema?5doc@
CONST	SEGMENT
??_C@_0BH@IFNOMMON@reparsing?5a?5schema?5doc@ DB 'reparsing a schema doc', 00H ; `string'
CONST	ENDS
;	COMDAT ??_C@_0BM@OJEBCMPM@xmlSchemaCreatePCtxtOnVCtxt@
CONST	SEGMENT
??_C@_0BM@OJEBCMPM@xmlSchemaCreatePCtxtOnVCtxt@ DB 'xmlSchemaCreatePCtxtO'
	DB	'nVCtxt', 00H				; `string'
CONST	ENDS
;	COMDAT ??_C@_0CI@GJEMMNOJ@failed?5to?5create?5a?5temp?4?5parser@
CONST	SEGMENT
??_C@_0CI@GJEMMNOJ@failed?5to?5create?5a?5temp?4?5parser@ DB 'failed to c'
	DB	'reate a temp. parser context', 00H		; `string'
CONST	ENDS
;	COMDAT ??_C@_0CB@NCMLFNIB@allocating?5schema?5parser?5contex@
CONST	SEGMENT
??_C@_0CB@NCMLFNIB@allocating?5schema?5parser?5contex@ DB 'allocating sch'
	DB	'ema parser context', 00H			; `string'
CONST	ENDS
;	COMDAT ??_C@_0CN@MGLOMDJH@allocating?5list?5of?5pending?5glob@
CONST	SEGMENT
??_C@_0CN@MGLOMDJH@allocating?5list?5of?5pending?5glob@ DB 'allocating li'
	DB	'st of pending global components', 00H	; `string'
CONST	ENDS
;	COMDAT ??_C@_0CC@KNCAMKIP@allocating?5list?5of?5schema?5bucke@
CONST	SEGMENT
??_C@_0CC@KNCAMKIP@allocating?5list?5of?5schema?5bucke@ DB 'allocating li'
	DB	'st of schema buckets', 00H			; `string'
CONST	ENDS
;	COMDAT ??_C@_0CH@HOMALJAM@allocating?5schema?5construction?5@
CONST	SEGMENT
??_C@_0CH@HOMALJAM@allocating?5schema?5construction?5@ DB 'allocating sch'
	DB	'ema construction context', 00H		; `string'
CONST	ENDS
;	COMDAT ??_C@_0BL@CHFLODC@allocating?5schema?5relation@
CONST	SEGMENT
??_C@_0BL@CHFLODC@allocating?5schema?5relation@ DB 'allocating schema rel'
	DB	'ation', 00H					; `string'
CONST	ENDS
;	COMDAT ??_C@_0JG@PPPAGMJA@?$CI?$CIinclude?5?$HM?5import?5?$HM?5redefine?5?$HM@
CONST	SEGMENT
??_C@_0JG@PPPAGMJA@?$CI?$CIinclude?5?$HM?5import?5?$HM?5redefine?5?$HM@ DB '('
	DB	'(include | import | redefine | annotation)*, (((simpleType | '
	DB	'complexType | group | attributeGroup) | element | attribute |'
	DB	' notation), annotation*)*)', 00H		; `string'
CONST	ENDS
;	COMDAT ??_C@_08KNJKBPAF@notation@
CONST	SEGMENT
??_C@_08KNJKBPAF@notation@ DB 'notation', 00H		; `string'
CONST	ENDS
;	COMDAT ??_C@_05MGJOOGAJ@group@
CONST	SEGMENT
??_C@_05MGJOOGAJ@group@ DB 'group', 00H			; `string'
CONST	ENDS
;	COMDAT ??_C@_07HCLJNICE@element@
CONST	SEGMENT
??_C@_07HCLJNICE@element@ DB 'element', 00H		; `string'
CONST	ENDS
;	COMDAT ??_C@_08HCPHBLGO@redefine@
CONST	SEGMENT
??_C@_08HCPHBLGO@redefine@ DB 'redefine', 00H		; `string'
CONST	ENDS
;	COMDAT ??_C@_06EOGGDCGF@import@
CONST	SEGMENT
??_C@_06EOGGDCGF@import@ DB 'import', 00H		; `string'
CONST	ENDS
;	COMDAT ??_C@_07FHOHOHLG@include@
CONST	SEGMENT
??_C@_07FHOHOHLG@include@ DB 'include', 00H		; `string'
CONST	ENDS
;	COMDAT ??_C@_0N@MMGPPGOC@blockDefault@
CONST	SEGMENT
??_C@_0N@MMGPPGOC@blockDefault@ DB 'blockDefault', 00H	; `string'
CONST	ENDS
;	COMDAT ??_C@_0DK@JHFKOEOC@?$CI?$CDall?5?$HM?5List?5of?5?$CIextension?5?$HM?5re@
CONST	SEGMENT
??_C@_0DK@JHFKOEOC@?$CI?$CDall?5?$HM?5List?5of?5?$CIextension?5?$HM?5re@ DB '('
	DB	'#all | List of (extension | restriction | list | union))', 00H ; `string'
CONST	ENDS
;	COMDAT ??_C@_0N@DFGPIJFA@finalDefault@
CONST	SEGMENT
??_C@_0N@DFGPIJFA@finalDefault@ DB 'finalDefault', 00H	; `string'
CONST	ENDS
;	COMDAT ??_C@_0BF@PMHAPIPB@attributeFormDefault@
CONST	SEGMENT
??_C@_0BF@PMHAPIPB@attributeFormDefault@ DB 'attributeFormDefault', 00H ; `string'
CONST	ENDS
;	COMDAT ??_C@_0BD@GLAKFDIM@elementFormDefault@
CONST	SEGMENT
??_C@_0BD@GLAKFDIM@elementFormDefault@ DB 'elementFormDefault', 00H ; `string'
CONST	ENDS
;	COMDAT ??_C@_0BA@JJLDNFDJ@targetNamespace@
CONST	SEGMENT
??_C@_0BA@JJLDNFDJ@targetNamespace@ DB 'targetNamespace', 00H ; `string'
CONST	ENDS
;	COMDAT ??_C@_0CK@IMPEKNJM@?$CIannotation?$DP?0?5?$CIall?5?$HM?5choice?5?$HM?5s@
CONST	SEGMENT
??_C@_0CK@IMPEKNJM@?$CIannotation?$DP?0?5?$CIall?5?$HM?5choice?5?$HM?5s@ DB '('
	DB	'annotation?, (all | choice | sequence)?)', 00H ; `string'
CONST	ENDS
;	COMDAT ??_C@_08IBBDGPOF@sequence@
CONST	SEGMENT
??_C@_08IBBDGPOF@sequence@ DB 'sequence', 00H		; `string'
CONST	ENDS
;	COMDAT ??_C@_06DDDNEJEA@choice@
CONST	SEGMENT
??_C@_06DDDNEJEA@choice@ DB 'choice', 00H		; `string'
CONST	ENDS
;	COMDAT ??_C@_03NFKEKGGK@all@
CONST	SEGMENT
??_C@_03NFKEKGGK@all@ DB 'all', 00H			; `string'
CONST	ENDS
;	COMDAT ??_C@_0EO@JDMIJKLB@This?5is?5a?5redefinition?0?5thus?5th@
CONST	SEGMENT
??_C@_0EO@JDMIJKLB@This?5is?5a?5redefinition?0?5thus?5th@ DB 'This is a r'
	DB	'edefinition, thus the <simpleType> must have a <restriction> '
	DB	'child', 00H					; `string'
CONST	ENDS
;	COMDAT ??_C@_0CM@MDINDAN@?$CIannotation?$DP?0?5?$CIrestriction?5?$HM?5li@
CONST	SEGMENT
??_C@_0CM@MDINDAN@?$CIannotation?$DP?0?5?$CIrestriction?5?$HM?5li@ DB '(a'
	DB	'nnotation?, (restriction | list | union))', 00H ; `string'
CONST	ENDS
;	COMDAT ??_C@_0CN@IJLHAKIE@?$CI?$CDall?5?$HM?5List?5of?5?$CIlist?5?$HM?5union?5?$HM@
CONST	SEGMENT
??_C@_0CN@IJLHAKIE@?$CI?$CDall?5?$HM?5List?5of?5?$CIlist?5?$HM?5union?5?$HM@ DB '('
	DB	'#all | List of (list | union | restriction)', 00H ; `string'
CONST	ENDS
;	COMDAT ??_C@_0DH@OIPDFCAL@Redefinition?5of?5built?9in?5simple@
CONST	SEGMENT
??_C@_0DH@OIPDFCAL@Redefinition?5of?5built?9in?5simple@ DB 'Redefinition '
	DB	'of built-in simple types is not supported', 00H ; `string'
CONST	ENDS
;	COMDAT ??_C@_0EK@BDPJPAFM@Either?5the?5attribute?5?8itemType?8@
CONST	SEGMENT
??_C@_0EK@BDPJPAFM@Either?5the?5attribute?5?8itemType?8@ DB 'Either the a'
	DB	'ttribute ''itemType'' or the <simpleType> child must be prese'
	DB	'nt', 00H					; `string'
CONST	ENDS
;	COMDAT ??_C@_0EL@LEHAHIHI@The?5attribute?5?8itemType?8?5and?5th@
CONST	SEGMENT
??_C@_0EL@LEHAHIHI@The?5attribute?5?8itemType?8?5and?5th@ DB 'The attribu'
	DB	'te ''itemType'' and the <simpleType> child are mutually exclu'
	DB	'sive', 00H					; `string'
CONST	ENDS
;	COMDAT ??_C@_08DLBHENKN@itemType@
CONST	SEGMENT
??_C@_08DLBHENKN@itemType@ DB 'itemType', 00H		; `string'
CONST	ENDS
;	COMDAT ??_C@_0FG@HHPGDCB@Either?5the?5attribute?5?8memberTyp@
CONST	SEGMENT
??_C@_0FG@HHPGDCB@Either?5the?5attribute?5?8memberTyp@ DB 'Either the att'
	DB	'ribute ''memberTypes'' or at least one <simpleType> child mus'
	DB	't be present', 00H				; `string'
CONST	ENDS
;	COMDAT ??_C@_0BL@BBOMAGGA@?$CIannotation?$DP?0?5simpleType?$CK?$CJ@
CONST	SEGMENT
??_C@_0BL@BBOMAGGA@?$CIannotation?$DP?0?5simpleType?$CK?$CJ@ DB '(annotat'
	DB	'ion?, simpleType*)', 00H			; `string'
CONST	ENDS
;	COMDAT ??_C@_0CM@CGPNFFK@xmlSchemaParseUnion?0?5allocating@
CONST	SEGMENT
??_C@_0CM@CGPNFFK@xmlSchemaParseUnion?0?5allocating@ DB 'xmlSchemaParseUn'
	DB	'ion, allocating a type link', 00H		; `string'
CONST	ENDS
;	COMDAT ??_C@_0M@OEMIGMAO@memberTypes@
CONST	SEGMENT
??_C@_0M@OEMIGMAO@memberTypes@ DB 'memberTypes', 00H	; `string'
CONST	ENDS
;	COMDAT ??_C@_0EH@NHLOCELP@?$CIannotation?$DP?0?5?$CI?$CIsimpleType?5?$HM?5co@
CONST	SEGMENT
??_C@_0EH@NHLOCELP@?$CIannotation?$DP?0?5?$CI?$CIsimpleType?5?$HM?5co@ DB '('
	DB	'annotation?, ((simpleType | complexType)?, (unique | key | ke'
	DB	'yref)*))', 00H				; `string'
CONST	ENDS
;	COMDAT ??_C@_06PLFEIJDE@keyref@
CONST	SEGMENT
??_C@_06PLFEIJDE@keyref@ DB 'keyref', 00H		; `string'
CONST	ENDS
;	COMDAT ??_C@_03ICHNJLJF@key@
CONST	SEGMENT
??_C@_03ICHNJLJF@key@ DB 'key', 00H			; `string'
CONST	ENDS
;	COMDAT ??_C@_06ODCMFGLL@unique@
CONST	SEGMENT
??_C@_06ODCMFGLL@unique@ DB 'unique', 00H		; `string'
CONST	ENDS
;	COMDAT ??_C@_0EI@DDMHFMFF@The?5attribute?5?8type?8?5and?5the?5?$DMc@
CONST	SEGMENT
??_C@_0EI@DDMHFMFF@The?5attribute?5?8type?8?5and?5the?5?$DMc@ DB 'The att'
	DB	'ribute ''type'' and the <complexType> child are mutually excl'
	DB	'usive', 00H					; `string'
CONST	ENDS
;	COMDAT ??_C@_0M@OCBEIBDG@complexType@
CONST	SEGMENT
??_C@_0M@OCBEIBDG@complexType@ DB 'complexType', 00H	; `string'
CONST	ENDS
;	COMDAT ??_C@_0DK@DDAOLEFB@?$CI?$CDall?5?$HM?5List?5of?5?$CIextension?5?$HM?5re@
CONST	SEGMENT
??_C@_0DK@DDAOLEFB@?$CI?$CDall?5?$HM?5List?5of?5?$CIextension?5?$HM?5re@ DB '('
	DB	'#all | List of (extension | restriction | substitution))', 00H ; `string'
CONST	ENDS
;	COMDAT ??_C@_0CL@KNGCEGAB@?$CI?$CDall?5?$HM?5List?5of?5?$CIextension?5?$HM?5re@
CONST	SEGMENT
??_C@_0CL@KNGCEGAB@?$CI?$CDall?5?$HM?5List?5of?5?$CIextension?5?$HM?5re@ DB '('
	DB	'#all | List of (extension | restriction))', 00H ; `string'
CONST	ENDS
;	COMDAT ??_C@_0BC@CGDMBFF@substitutionGroup@
CONST	SEGMENT
??_C@_0BC@CGDMBFF@substitutionGroup@ DB 'substitutionGroup', 00H ; `string'
CONST	ENDS
;	COMDAT ??_C@_08IMFJLGFD@abstract@
CONST	SEGMENT
??_C@_08IMFJLGFD@abstract@ DB 'abstract', 00H		; `string'
CONST	ENDS
;	COMDAT ??_C@_05FPBGKCKL@final@
CONST	SEGMENT
??_C@_05FPBGKCKL@final@ DB 'final', 00H			; `string'
CONST	ENDS
;	COMDAT ??_C@_08BNOJCPJE@nillable@
CONST	SEGMENT
??_C@_08BNOJCPJE@nillable@ DB 'nillable', 00H		; `string'
CONST	ENDS
;	COMDAT ??_C@_05PIBOEKAB@block@
CONST	SEGMENT
??_C@_05PIBOEKAB@block@ DB 'block', 00H			; `string'
CONST	ENDS
;	COMDAT ??_C@_0FH@LFNFLK@Only?5the?5attributes?5?8minOccurs?8@
CONST	SEGMENT
??_C@_0FH@LFNFLK@Only?5the?5attributes?5?8minOccurs?8@ DB 'Only the attri'
	DB	'butes ''minOccurs'', ''maxOccurs'' and ''id'' are allowed in '
	DB	'addition to ''ref''', 00H			; `string'
CONST	ENDS
;	COMDAT ??_C@_05EIBGDMPB@field@
CONST	SEGMENT
??_C@_05EIBGDMPB@field@ DB 'field', 00H			; `string'
CONST	ENDS
;	COMDAT ??_C@_08DILBKPNJ@selector@
CONST	SEGMENT
??_C@_08DILBKPNJ@selector@ DB 'selector', 00H		; `string'
CONST	ENDS
;	COMDAT ??_C@_0BL@HDFCKCKI@A?5child?5element?5is?5missing@
CONST	SEGMENT
??_C@_0BL@HDFCKCKI@A?5child?5element?5is?5missing@ DB 'A child element is'
	DB	' missing', 00H				; `string'
CONST	ENDS
;	COMDAT ??_C@_0CC@DEBKGIBF@?$CIannotation?$DP?0?5?$CIselector?0?5field?$CL@
CONST	SEGMENT
??_C@_0CC@DEBKGIBF@?$CIannotation?$DP?0?5?$CIselector?0?5field?$CL@ DB '('
	DB	'annotation?, (selector, field+))', 00H	; `string'
CONST	ENDS
;	COMDAT ??_C@_05BEFNLAML@refer@
CONST	SEGMENT
??_C@_05BEFNLAML@refer@ DB 'refer', 00H			; `string'
CONST	ENDS
;	COMDAT ??_C@_0GH@EOECGLHE@Internal?5error?3?5xmlSchemaParseI@
CONST	SEGMENT
??_C@_0GH@EOECGLHE@Internal?5error?3?5xmlSchemaParseI@ DB 'Internal error'
	DB	': xmlSchemaParseIDCSelectorAndField, validating the XPath exp'
	DB	'ression of a IDC selector.', 0aH, 00H	; `string'
CONST	ENDS
;	COMDAT ??_C@_0DN@GFJDOCKM@allocating?5a?5?8selector?8?5of?5an?5i@
CONST	SEGMENT
??_C@_0DN@GFJDOCKM@allocating?5a?5?8selector?8?5of?5an?5i@ DB 'allocating'
	DB	' a ''selector'' of an identity-constraint definition', 00H ; `string'
CONST	ENDS
;	COMDAT ??_C@_05CNNIIAHK@xpath@
CONST	SEGMENT
??_C@_05CNNIIAHK@xpath@ DB 'xpath', 00H			; `string'
CONST	ENDS
;	COMDAT ??_C@_0FF@CNICCNGM@Internal?5error?3?5xmlSchemaAddAnn@
CONST	SEGMENT
??_C@_0FF@CNICCNGM@Internal?5error?3?5xmlSchemaAddAnn@ DB 'Internal error'
	DB	': xmlSchemaAddAnnotation, The item is not a annotated schema '
	DB	'component', 00H				; `string'
CONST	ENDS
;	COMDAT ??_C@_0DA@MEAKINLE@The?5XPath?5expression?5?8?$CFs?8?5could@
CONST	SEGMENT
??_C@_0DA@MEAKINLE@The?5XPath?5expression?5?8?$CFs?8?5could@ DB 'The XPat'
	DB	'h expression ''%s'' could not be compiled', 00H ; `string'
CONST	ENDS
;	COMDAT ??_C@_0BN@LCFJGAGM@allocating?5a?5namespace?5array@
CONST	SEGMENT
??_C@_0BN@LCFJGAGM@allocating?5a?5namespace?5array@ DB 'allocating a name'
	DB	'space array', 00H				; `string'
CONST	ENDS
;	COMDAT ??_C@_0DC@LABDBLHI@The?5XPath?5expression?5of?5the?5sel@
CONST	SEGMENT
??_C@_0DC@LABDBLHI@The?5XPath?5expression?5of?5the?5sel@ DB 'The XPath ex'
	DB	'pression of the selector is not valid', 00H	; `string'
CONST	ENDS
;	COMDAT ??_C@_0EO@EIAADIEO@Internal?5error?3?5xmlSchemaCheckC@
CONST	SEGMENT
??_C@_0EO@EIAADIEO@Internal?5error?3?5xmlSchemaCheckC@ DB 'Internal error'
	DB	': xmlSchemaCheckCSelectorXPath, the selector is not specified'
	DB	'.', 0aH, 00H				; `string'
CONST	ENDS
;	COMDAT ??_C@_05MNALHJLP@union@
CONST	SEGMENT
??_C@_05MNALHJLP@union@ DB 'union', 00H			; `string'
CONST	ENDS
;	COMDAT ??_C@_04DONFEANM@list@
CONST	SEGMENT
??_C@_04DONFEANM@list@ DB 'list', 00H			; `string'
CONST	ENDS
;	COMDAT ??_C@_0N@INDADLAA@substitution@
CONST	SEGMENT
??_C@_0N@INDADLAA@substitution@ DB 'substitution', 00H	; `string'
CONST	ENDS
;	COMDAT ??_C@_0M@FBFLGGFO@restriction@
CONST	SEGMENT
??_C@_0M@FBFLGGFO@restriction@ DB 'restriction', 00H	; `string'
CONST	ENDS
;	COMDAT ??_C@_09ODADEDNA@extension@
CONST	SEGMENT
??_C@_09ODADEDNA@extension@ DB 'extension', 00H		; `string'
CONST	ENDS
;	COMDAT ??_C@_04LEKDNLLP@?$CDall@
CONST	SEGMENT
??_C@_04LEKDNLLP@?$CDall@ DB '#all', 00H		; `string'
CONST	ENDS
;	COMDAT ??_C@_0DO@PEEJHPPG@?$CIannotation?$DP?0?5?$CI?$CIattribute?5?$HM?5att@
CONST	SEGMENT
??_C@_0DO@PEEJHPPG@?$CIannotation?$DP?0?5?$CI?$CIattribute?5?$HM?5att@ DB '('
	DB	'annotation?, ((attribute | attributeGroup)*, anyAttribute?))', 00H ; `string'
CONST	ENDS
;	COMDAT ??_C@_0N@DDKCLMJG@anyAttribute@
CONST	SEGMENT
??_C@_0N@DDKCLMJG@anyAttribute@ DB 'anyAttribute', 00H	; `string'
CONST	ENDS
;	COMDAT ??_C@_0HE@EDEMIIKM@The?5redefining?5attribute?5group?5@
CONST	SEGMENT
??_C@_0HE@EDEMIIKM@The?5redefining?5attribute?5group?5@ DB 'The redefinin'
	DB	'g attribute group definition ''%s'' must not contain more tha'
	DB	'n one reference to the redefined definition', 00H ; `string'
CONST	ENDS
;	COMDAT ??_C@_0BL@LABGHPL@?$CIannotation?$DP?0?5simpleType?$DP?$CJ@
CONST	SEGMENT
??_C@_0BL@LABGHPL@?$CIannotation?$DP?0?5simpleType?$DP?$CJ@ DB '(annotati'
	DB	'on?, simpleType?)', 00H			; `string'
CONST	ENDS
;	COMDAT ??_C@_0EH@BAMMFMJA@The?5attribute?5?8type?8?5and?5the?5?$DMs@
CONST	SEGMENT
??_C@_0EH@BAMMFMJA@The?5attribute?5?8type?8?5and?5the?5?$DMs@ DB 'The att'
	DB	'ribute ''type'' and the <simpleType> child are mutually exclu'
	DB	'sive', 00H					; `string'
CONST	ENDS
;	COMDAT ??_C@_0L@FMMGGLOP@simpleType@
CONST	SEGMENT
??_C@_0L@FMMGGLOP@simpleType@ DB 'simpleType', 00H	; `string'
CONST	ENDS
;	COMDAT ??_C@_0DC@LIPHNCMP@Skipping?5duplicate?5attribute?5us@
CONST	SEGMENT
??_C@_0DC@LIPHNCMP@Skipping?5duplicate?5attribute?5us@ DB 'Skipping dupli'
	DB	'cate attribute use prohibition ''%s''', 00H	; `string'
CONST	ENDS
;	COMDAT ??_C@_0FA@EKEFODDF@Skipping?5attribute?5use?5prohibit@
CONST	SEGMENT
??_C@_0FA@EKEFODDF@Skipping?5attribute?5use?5prohibit@ DB 'Skipping attri'
	DB	'bute use prohibition, since it is pointless when extending a '
	DB	'type', 00H					; `string'
CONST	ENDS
;	COMDAT ??_C@_0FF@PAOOKLLP@Skipping?5attribute?5use?5prohibit@
CONST	SEGMENT
??_C@_0FF@PAOOKLLP@Skipping?5attribute?5use?5prohibit@ DB 'Skipping attri'
	DB	'bute use prohibition, since it is pointless inside an <attrib'
	DB	'uteGroup>', 00H				; `string'
CONST	ENDS
;	COMDAT ??_C@_0DC@IMLKIPJD@The?5value?5of?5the?5attribute?5must@
CONST	SEGMENT
??_C@_0DC@IMLKIPJD@The?5value?5of?5the?5attribute?5must@ DB 'The value of'
	DB	' the attribute must not match ''xmlns''', 00H ; `string'
CONST	ENDS
;	COMDAT ??_C@_05PPEFOGKI@xmlns@
CONST	SEGMENT
??_C@_05PPEFOGKI@xmlns@ DB 'xmlns', 00H			; `string'
CONST	ENDS
;	COMDAT ??_C@_0CJ@KHJHCHGN@The?5target?5namespace?5must?5not?5m@
CONST	SEGMENT
??_C@_0CJ@KHJHCHGN@The?5target?5namespace?5must?5not?5m@ DB 'The target n'
	DB	'amespace must not match ''%s''', 00H	; `string'
CONST	ENDS
;	COMDAT ??_C@_0FK@JMMMCAKL@The?5value?5of?5the?5attribute?5?8use@
CONST	SEGMENT
??_C@_0FK@JMMMCAKL@The?5value?5of?5the?5attribute?5?8use@ DB 'The value o'
	DB	'f the attribute ''use'' must be ''optional'' if the attribute'
	DB	' ''default'' is present', 00H		; `string'
CONST	ENDS
;	COMDAT ??_C@_07DLHCIBDH@default@
CONST	SEGMENT
??_C@_07DLHCIBDH@default@ DB 'default', 00H		; `string'
CONST	ENDS
;	COMDAT ??_C@_0CD@MEKFLEMO@?$CIoptional?5?$HM?5prohibited?5?$HM?5requir@
CONST	SEGMENT
??_C@_0CD@MEKFLEMO@?$CIoptional?5?$HM?5prohibited?5?$HM?5requir@ DB '(opt'
	DB	'ional | prohibited | required)', 00H	; `string'
CONST	ENDS
;	COMDAT ??_C@_08FEMBDDHD@required@
CONST	SEGMENT
??_C@_08FEMBDDHD@required@ DB 'required', 00H		; `string'
CONST	ENDS
;	COMDAT ??_C@_0L@HMNCJOMG@prohibited@
CONST	SEGMENT
??_C@_0L@HMNCJOMG@prohibited@ DB 'prohibited', 00H	; `string'
CONST	ENDS
;	COMDAT ??_C@_08EBGGHLAO@optional@
CONST	SEGMENT
??_C@_08EBGGHLAO@optional@ DB 'optional', 00H		; `string'
CONST	ENDS
;	COMDAT ??_C@_03MMGHDJKG@use@
CONST	SEGMENT
??_C@_03MMGHDJKG@use@ DB 'use', 00H			; `string'
CONST	ENDS
;	COMDAT ??_C@_0BK@IDHDHMBC@?$CIqualified?5?$HM?5unqualified?$CJ@
CONST	SEGMENT
??_C@_0BK@IDHDHMBC@?$CIqualified?5?$HM?5unqualified?$CJ@ DB '(qualified |'
	DB	' unqualified)', 00H				; `string'
CONST	ENDS
;	COMDAT ??_C@_0M@PJKDFPFM@unqualified@
CONST	SEGMENT
??_C@_0M@PJKDFPFM@unqualified@ DB 'unqualified', 00H	; `string'
CONST	ENDS
;	COMDAT ??_C@_09NPLHLKJP@qualified@
CONST	SEGMENT
??_C@_09NPLHLKJP@qualified@ DB 'qualified', 00H		; `string'
CONST	ENDS
;	COMDAT ??_C@_04MLMMMEIO@form@
CONST	SEGMENT
??_C@_04MLMMMEIO@form@ DB 'form', 00H			; `string'
CONST	ENDS
;	COMDAT ??_C@_04GPMDFGEJ@type@
CONST	SEGMENT
??_C@_04GPMDFGEJ@type@ DB 'type', 00H			; `string'
CONST	ENDS
;	COMDAT ??_C@_03GCDGINBO@ref@
CONST	SEGMENT
??_C@_03GCDGINBO@ref@ DB 'ref', 00H			; `string'
CONST	ENDS
;	COMDAT ??_C@_0BG@DHBIDCLH@Notation?5has?5no?5name?6@
CONST	SEGMENT
??_C@_0BG@DHBIDCLH@Notation?5has?5no?5name?6@ DB 'Notation has no name', 0aH
	DB	00H						; `string'
CONST	ENDS
;	COMDAT ??_C@_04MEMAJGDJ@name@
CONST	SEGMENT
??_C@_04MEMAJGDJ@name@ DB 'name', 00H			; `string'
CONST	ENDS
;	COMDAT ??_C@_0O@MNAJHLGE@?$CIannotation?$DP?$CJ@
CONST	SEGMENT
??_C@_0O@MNAJHLGE@?$CIannotation?$DP?$CJ@ DB '(annotation?)', 00H ; `string'
CONST	ENDS
;	COMDAT ??_C@_0BG@FKFDAFPO@xs?3nonNegativeInteger@
CONST	SEGMENT
??_C@_0BG@FKFDAFPO@xs?3nonNegativeInteger@ DB 'xs:nonNegativeInteger', 00H ; `string'
CONST	ENDS
;	COMDAT ??_C@_0CE@BEMOBFLH@?$CIxs?3nonNegativeInteger?5?$HM?5unboun@
CONST	SEGMENT
??_C@_0CE@BEMOBFLH@?$CIxs?3nonNegativeInteger?5?$HM?5unboun@ DB '(xs:nonN'
	DB	'egativeInteger | unbounded)', 00H		; `string'
CONST	ENDS
;	COMDAT ??_C@_0DM@MJPPLMBN@The?5value?5must?5not?5be?5greater?5t@
CONST	SEGMENT
??_C@_0DM@MJPPLMBN@The?5value?5must?5not?5be?5greater?5t@ DB 'The value m'
	DB	'ust not be greater than the value of ''maxOccurs''', 00H ; `string'
CONST	ENDS
;	COMDAT ??_C@_0CN@HPDJBJNO@The?5value?5must?5be?5greater?5than?5@
CONST	SEGMENT
??_C@_0CN@HPDJBJNO@The?5value?5must?5be?5greater?5than?5@ DB 'The value m'
	DB	'ust be greater than or equal to 1', 00H	; `string'
CONST	ENDS
;	COMDAT ??_C@_07NOOLJEMO@?$CD?$CDlocal@
CONST	SEGMENT
??_C@_07NOOLJEMO@?$CD?$CDlocal@ DB '##local', 00H	; `string'
CONST	ENDS
;	COMDAT ??_C@_0BC@NIOKFNAN@?$CD?$CDtargetNamespace@
CONST	SEGMENT
??_C@_0BC@NIOKFNAN@?$CD?$CDtargetNamespace@ DB '##targetNamespace', 00H ; `string'
CONST	ENDS
;	COMDAT ??_C@_0EK@HAPJOCKP@?$CI?$CI?$CD?$CDany?5?$HM?5?$CD?$CDother?$CJ?5?$HM?5List?5of?5?$CIx@
CONST	SEGMENT
??_C@_0EK@HAPJOCKP@?$CI?$CI?$CD?$CDany?5?$HM?5?$CD?$CDother?$CJ?5?$HM?5List?5of?5?$CIx@ DB '('
	DB	'(##any | ##other) | List of (xs:anyURI | (##targetNamespace |'
	DB	' ##local)))', 00H				; `string'
CONST	ENDS
;	COMDAT ??_C@_05HGEKMIOD@?$CD?$CDany@
CONST	SEGMENT
??_C@_05HGEKMIOD@?$CD?$CDany@ DB '##any', 00H		; `string'
CONST	ENDS
;	COMDAT ??_C@_09KPMGAFNI@namespace@
CONST	SEGMENT
??_C@_09KPMGAFNI@namespace@ DB 'namespace', 00H		; `string'
CONST	ENDS
;	COMDAT ??_C@_0BG@JONDLOPH@?$CIstrict?5?$HM?5skip?5?$HM?5lax?$CJ@
CONST	SEGMENT
??_C@_0BG@JONDLOPH@?$CIstrict?5?$HM?5skip?5?$HM?5lax?$CJ@ DB '(strict | s'
	DB	'kip | lax)', 00H				; `string'
CONST	ENDS
;	COMDAT ??_C@_0BA@LJOIJHLO@processContents@
CONST	SEGMENT
??_C@_0BA@LJOIJHLO@processContents@ DB 'processContents', 00H ; `string'
CONST	ENDS
;	COMDAT ??_C@_0CH@KGEOIBLP@Facet?5?$CFs?5has?5unexpected?5child?5c@
CONST	SEGMENT
??_C@_0CH@KGEOIBLP@Facet?5?$CFs?5has?5unexpected?5child?5c@ DB 'Facet %s '
	DB	'has unexpected child content', 0aH, 00H	; `string'
CONST	ENDS
;	COMDAT ??_C@_0L@HOGAMHHM@annotation@
CONST	SEGMENT
??_C@_0L@HOGAMHHM@annotation@ DB 'annotation', 00H	; `string'
CONST	ENDS
;	COMDAT ??_C@_05OFLEIIDM@fixed@
CONST	SEGMENT
??_C@_05OFLEIIDM@fixed@ DB 'fixed', 00H			; `string'
CONST	ENDS
;	COMDAT ??_C@_0BH@JGDFLELF@Unknown?5facet?5type?5?$CFs?6@
CONST	SEGMENT
??_C@_0BH@JGDFLELF@Unknown?5facet?5type?5?$CFs?6@ DB 'Unknown facet type '
	DB	'%s', 0aH, 00H				; `string'
CONST	ENDS
;	COMDAT ??_C@_09KIHADLGO@minLength@
CONST	SEGMENT
??_C@_09KIHADLGO@minLength@ DB 'minLength', 00H		; `string'
CONST	ENDS
;	COMDAT ??_C@_09KJHMKBNK@maxLength@
CONST	SEGMENT
??_C@_09KJHMKBNK@maxLength@ DB 'maxLength', 00H		; `string'
CONST	ENDS
;	COMDAT ??_C@_06IJDLPEM@length@
CONST	SEGMENT
??_C@_06IJDLPEM@length@ DB 'length', 00H		; `string'
CONST	ENDS
;	COMDAT ??_C@_0L@CCEMGGFL@whiteSpace@
CONST	SEGMENT
??_C@_0L@CCEMGGFL@whiteSpace@ DB 'whiteSpace', 00H	; `string'
CONST	ENDS
;	COMDAT ??_C@_0M@FJOIDAAJ@enumeration@
CONST	SEGMENT
??_C@_0M@FJOIDAAJ@enumeration@ DB 'enumeration', 00H	; `string'
CONST	ENDS
;	COMDAT ??_C@_07CHFOACKJ@pattern@
CONST	SEGMENT
??_C@_07CHFOACKJ@pattern@ DB 'pattern', 00H		; `string'
CONST	ENDS
;	COMDAT ??_C@_0P@EPJLKDGA@fractionDigits@
CONST	SEGMENT
??_C@_0P@EPJLKDGA@fractionDigits@ DB 'fractionDigits', 00H ; `string'
CONST	ENDS
;	COMDAT ??_C@_0M@PGNNBCIB@totalDigits@
CONST	SEGMENT
??_C@_0M@PGNNBCIB@totalDigits@ DB 'totalDigits', 00H	; `string'
CONST	ENDS
;	COMDAT ??_C@_0N@IEJNIJII@maxExclusive@
CONST	SEGMENT
??_C@_0N@IEJNIJII@maxExclusive@ DB 'maxExclusive', 00H	; `string'
CONST	ENDS
;	COMDAT ??_C@_0N@EBHLFCPN@maxInclusive@
CONST	SEGMENT
??_C@_0N@EBHLFCPN@maxInclusive@ DB 'maxInclusive', 00H	; `string'
CONST	ENDS
;	COMDAT ??_C@_0N@MENCPBPO@minExclusive@
CONST	SEGMENT
??_C@_0N@MENCPBPO@minExclusive@ DB 'minExclusive', 00H	; `string'
CONST	ENDS
;	COMDAT ??_C@_0N@BDECKIL@minInclusive@
CONST	SEGMENT
??_C@_0N@BDECKIL@minInclusive@ DB 'minInclusive', 00H	; `string'
CONST	ENDS
;	COMDAT ??_C@_0BH@LAHCBIKA@Facet?5?$CFs?5has?5no?5value?6@
CONST	SEGMENT
??_C@_0BH@LAHCBIKA@Facet?5?$CFs?5has?5no?5value?6@ DB 'Facet %s has no va'
	DB	'lue', 0aH, 00H				; `string'
CONST	ENDS
;	COMDAT ??_C@_05MFEJDJP@value@
CONST	SEGMENT
??_C@_05MFEJDJP@value@ DB 'value', 00H			; `string'
CONST	ENDS
;	COMDAT ??_C@_0BB@DFGEBGMC@allocating?5facet@
CONST	SEGMENT
??_C@_0BB@DFGEBGMC@allocating?5facet@ DB 'allocating facet', 00H ; `string'
CONST	ENDS
;	COMDAT ??_C@_0BL@CHHJOIII@?$CIappinfo?5?$HM?5documentation?$CJ?$CK@
CONST	SEGMENT
??_C@_0BL@CHHJOIII@?$CIappinfo?5?$HM?5documentation?$CJ?$CK@ DB '(appinfo'
	DB	' | documentation)*', 00H			; `string'
CONST	ENDS
;	COMDAT ??_C@_0CF@GLDAAHFK@http?3?1?1www?4w3?4org?1XML?11998?1name@
CONST	SEGMENT
??_C@_0CF@GLDAAHFK@http?3?1?1www?4w3?4org?1XML?11998?1name@ DB 'http://ww'
	DB	'w.w3.org/XML/1998/namespace', 00H		; `string'
CONST	ENDS
;	COMDAT ??_C@_04IOHABJIC@lang@
CONST	SEGMENT
??_C@_04IOHABJIC@lang@ DB 'lang', 00H			; `string'
CONST	ENDS
;	COMDAT ??_C@_0O@JMIFCMPP@documentation@
CONST	SEGMENT
??_C@_0O@JMIFCMPP@documentation@ DB 'documentation', 00H ; `string'
CONST	ENDS
;	COMDAT ??_C@_06OEKOLKIL@source@
CONST	SEGMENT
??_C@_06OEKOLKIL@source@ DB 'source', 00H		; `string'
CONST	ENDS
;	COMDAT ??_C@_07IADCAIKP@appinfo@
CONST	SEGMENT
??_C@_07IADCAIKP@appinfo@ DB 'appinfo', 00H		; `string'
CONST	ENDS
;	COMDAT ??_C@_02EGCJHIOB@id@
CONST	SEGMENT
??_C@_02EGCJHIOB@id@ DB 'id', 00H			; `string'
CONST	ENDS
;	COMDAT ??_C@_0P@KIDCOMBF@attributeGroup@
CONST	SEGMENT
??_C@_0P@KIDCOMBF@attributeGroup@ DB 'attributeGroup', 00H ; `string'
CONST	ENDS
;	COMDAT ??_C@_09HGIEBAJ@attribute@
CONST	SEGMENT
??_C@_09HGIEBAJ@attribute@ DB 'attribute', 00H		; `string'
CONST	ENDS
;	COMDAT ??_C@_0HM@PFGFDKAG@References?5from?5this?5schema?5to?5@
CONST	SEGMENT
??_C@_0HM@PFGFDKAG@References?5from?5this?5schema?5to?5@ DB 'References f'
	DB	'rom this schema to components in the namespace ''%s'' are not'
	DB	' allowed, since not indicated by an import statement', 00H ; `string'
CONST	ENDS
;	COMDAT ??_C@_0HG@LIIBNHFM@References?5from?5this?5schema?5to?5@
CONST	SEGMENT
??_C@_0HG@LIIBNHFM@References?5from?5this?5schema?5to?5@ DB 'References f'
	DB	'rom this schema to components in no namespace are not allowed'
	DB	', since not indicated by an import statement', 00H ; `string'
CONST	ENDS
;	COMDAT ??_C@_0FA@OJBBBDML@Internal?5error?3?5xmlSchemaPValAt@
CONST	SEGMENT
??_C@_0FA@OJBBBDML@Internal?5error?3?5xmlSchemaPValAt@ DB 'Internal error'
	DB	': xmlSchemaPValAttr, the given type ''%s'' is not a built-in '
	DB	'type.', 0aH, 00H				; `string'
CONST	ENDS
;	COMDAT ??_C@_0CM@DLDNHDND@failed?5to?5validate?5a?5schema?5att@
CONST	SEGMENT
??_C@_0CM@DLDNHDND@failed?5to?5validate?5a?5schema?5att@ DB 'failed to va'
	DB	'lidate a schema attribute value', 00H	; `string'
CONST	ENDS
;	COMDAT ??_C@_0EI@OLDONBHK@validation?5using?5the?5given?5type@
CONST	SEGMENT
??_C@_0EI@OLDONBHK@validation?5using?5the?5given?5type@ DB 'validation us'
	DB	'ing the given type is not supported while parsing a schema', 00H ; `string'
CONST	ENDS
;	COMDAT ??_C@_0BL@CNLGMFJP@xmlSchemaPValAttrNodeValue@
CONST	SEGMENT
??_C@_0BL@CNLGMFJP@xmlSchemaPValAttrNodeValue@ DB 'xmlSchemaPValAttrNodeV'
	DB	'alue', 00H					; `string'
CONST	ENDS
;	COMDAT ??_C@_0CG@JADIGFME@the?5given?5type?5is?5not?5a?5built?9i@
CONST	SEGMENT
??_C@_0CG@JADIGFME@the?5given?5type?5is?5not?5a?5built?9i@ DB 'the given '
	DB	'type is not a built-in type', 00H		; `string'
CONST	ENDS
;	COMDAT ??_C@_01GBGANLPD@0@
CONST	SEGMENT
??_C@_01GBGANLPD@0@ DB '0', 00H				; `string'
CONST	ENDS
;	COMDAT ??_C@_01HIHLOKLC@1@
CONST	SEGMENT
??_C@_01HIHLOKLC@1@ DB '1', 00H				; `string'
CONST	ENDS
;	COMDAT ??_C@_05LAPONLG@false@
CONST	SEGMENT
??_C@_05LAPONLG@false@ DB 'false', 00H			; `string'
CONST	ENDS
;	COMDAT ??_C@_04LOAJBDKD@true@
CONST	SEGMENT
??_C@_04LOAJBDKD@true@ DB 'true', 00H			; `string'
CONST	ENDS
;	COMDAT ??_C@_09OAPKCOGD@minOccurs@
CONST	SEGMENT
??_C@_09OAPKCOGD@minOccurs@ DB 'minOccurs', 00H		; `string'
CONST	ENDS
;	COMDAT ??_C@_09PBKAIKML@unbounded@
CONST	SEGMENT
??_C@_09PBKAIKML@unbounded@ DB 'unbounded', 00H		; `string'
CONST	ENDS
;	COMDAT ??_C@_09OBPGLENH@maxOccurs@
CONST	SEGMENT
??_C@_09OBPGLENH@maxOccurs@ DB 'maxOccurs', 00H		; `string'
CONST	ENDS
;	COMDAT ??_C@_0EB@BMJNLDB@The?5value?5?8?$CFs?8?5of?5simple?5type?5?8@
CONST	SEGMENT
??_C@_0EB@BMJNLDB@The?5value?5?8?$CFs?8?5of?5simple?5type?5?8@ DB 'The va'
	DB	'lue ''%s'' of simple type ''xs:ID'' is not a valid ''xs:NCNam'
	DB	'e''', 00H					; `string'
CONST	ENDS
;	COMDAT ??_C@_0CM@OMFMFEA@Duplicate?5value?5?8?$CFs?8?5of?5simple?5@
CONST	SEGMENT
??_C@_0CM@OMFMFEA@Duplicate?5value?5?8?$CFs?8?5of?5simple?5@ DB 'Duplicat'
	DB	'e value ''%s'' of simple type ''xs:ID''', 00H ; `string'
CONST	ENDS
;	COMDAT ??_C@_0FN@NHMNMJGI@The?5value?5?8?$CFs?8?5of?5simple?5type?5?8@
CONST	SEGMENT
??_C@_0FN@NHMNMJGI@The?5value?5?8?$CFs?8?5of?5simple?5type?5?8@ DB 'The v'
	DB	'alue ''%s'' of simple type ''xs:QName'' has no corresponding '
	DB	'namespace declaration in scope', 00H	; `string'
CONST	ENDS
;	COMDAT ??_C@_0BH@CHMIFAPN@xmlSchemaSubstGroupAdd@
CONST	SEGMENT
??_C@_0BH@CHMIFAPN@xmlSchemaSubstGroupAdd@ DB 'xmlSchemaSubstGroupAdd', 00H ; `string'
CONST	ENDS
;	COMDAT ??_C@_0CL@JADHFAI@failed?5to?5add?5a?5new?5substitutio@
CONST	SEGMENT
??_C@_0CL@JADHFAI@failed?5to?5add?5a?5new?5substitutio@ DB 'failed to add'
	DB	' a new substitution container', 00H		; `string'
CONST	ENDS
;	COMDAT ??_C@_0CK@NKPACKCN@allocating?5a?5substitution?5group@
CONST	SEGMENT
??_C@_0CK@NKPACKCN@allocating?5a?5substitution?5group@ DB 'allocating a s'
	DB	'ubstitution group container', 00H		; `string'
CONST	ENDS
;	COMDAT ??_C@_0BA@CIBAJGPC@adding?5wildcard@
CONST	SEGMENT
??_C@_0BA@CIBAJGPC@adding?5wildcard@ DB 'adding wildcard', 00H ; `string'
CONST	ENDS
;	COMDAT ??_C@_0CN@LEONOKAC@allocating?5an?5identity?9constrai@
CONST	SEGMENT
??_C@_0CN@LEONOKAC@allocating?5an?5identity?9constrai@ DB 'allocating an '
	DB	'identity-constraint definition', 00H	; `string'
CONST	ENDS
;	COMDAT ??_C@_0CH@KLLMMGAA@creating?5wildcard?5namespace?5con@
CONST	SEGMENT
??_C@_0CH@KLLMMGAA@creating?5wildcard?5namespace?5con@ DB 'creating wildc'
	DB	'ard namespace constraint', 00H		; `string'
CONST	ENDS
;	COMDAT ??_C@_0N@MMNEFFIM@adding?5group@
CONST	SEGMENT
??_C@_0N@MMNEFFIM@adding?5group@ DB 'adding group', 00H	; `string'
CONST	ENDS
;	COMDAT ??_C@_0BO@IIFFCFND@allocating?5particle?5component@
CONST	SEGMENT
??_C@_0BO@IIFFCFND@allocating?5particle?5component@ DB 'allocating partic'
	DB	'le component', 00H				; `string'
CONST	ENDS
;	COMDAT ??_C@_0CB@MIJFJDPK@allocating?5model?5group?5componen@
CONST	SEGMENT
??_C@_0CB@MIJFJDPK@allocating?5model?5group?5componen@ DB 'allocating mod'
	DB	'el group component', 00H			; `string'
CONST	ENDS
;	COMDAT ??_C@_0CF@BKCCIOBM@allocating?5attribute?5use?5prohib@
CONST	SEGMENT
??_C@_0CF@BKCCIOBM@allocating?5attribute?5use?5prohib@ DB 'allocating att'
	DB	'ribute use prohibition', 00H		; `string'
CONST	ENDS
;	COMDAT ??_C@_0CA@BENLLJIB@allocating?5QName?5reference?5item@
CONST	SEGMENT
??_C@_0CA@BENLLJIB@allocating?5QName?5reference?5item@ DB 'allocating QNa'
	DB	'me reference item', 00H			; `string'
CONST	ENDS
;	COMDAT ??_C@_0BA@BHDLCLLG@allocating?5type@
CONST	SEGMENT
??_C@_0BA@BHDLCLLG@allocating?5type@ DB 'allocating type', 00H ; `string'
CONST	ENDS
;	COMDAT ??_C@_0BD@OFNGJBCE@allocating?5element@
CONST	SEGMENT
??_C@_0BD@OFNGJBCE@allocating?5element@ DB 'allocating element', 00H ; `string'
CONST	ENDS
;	COMDAT ??_C@_0BL@LFEIBOLE@allocating?5attribute?5group@
CONST	SEGMENT
??_C@_0BL@LFEIBOLE@allocating?5attribute?5group@ DB 'allocating attribute'
	DB	' group', 00H				; `string'
CONST	ENDS
;	COMDAT ??_C@_0BN@DCKEMFJK@allocating?5redefinition?5info@
CONST	SEGMENT
??_C@_0BN@DCKEMFJK@allocating?5redefinition?5info@ DB 'allocating redefin'
	DB	'ition info', 00H				; `string'
CONST	ENDS
;	COMDAT ??_C@_0BF@IGICPFC@allocating?5attribute@
CONST	SEGMENT
??_C@_0BF@IGICPFC@allocating?5attribute@ DB 'allocating attribute', 00H ; `string'
CONST	ENDS
;	COMDAT ??_C@_0P@HKPLIAHO@add?5annotation@
CONST	SEGMENT
??_C@_0P@HKPLIAHO@add?5annotation@ DB 'add annotation', 00H ; `string'
CONST	ENDS
;	COMDAT ??_C@_0BE@HFGDBOPE@no?5target?5namespace@
CONST	SEGMENT
??_C@_0BE@HFGDBOPE@no?5target?5namespace@ DB 'no target namespace', 00H ; `string'
CONST	ENDS
;	COMDAT ??_C@_09HIFPELMF@no?5name?0?5@
CONST	SEGMENT
??_C@_09HIFPELMF@no?5name?0?5@ DB 'no name, ', 00H	; `string'
CONST	ENDS
;	COMDAT ??_C@_04ONKFDMMC@?$CFs?0?5@
CONST	SEGMENT
??_C@_04ONKFDMMC@?$CFs?0?5@ DB '%s, ', 00H		; `string'
CONST	ENDS
;	COMDAT ??_C@_09CEPCMGAA@Schemas?3?5@
CONST	SEGMENT
??_C@_09CEPCMGAA@Schemas?3?5@ DB 'Schemas: ', 00H	; `string'
CONST	ENDS
;	COMDAT ??_C@_0P@IDICKHMO@Schemas?3?5NULL?6@
CONST	SEGMENT
??_C@_0P@IDICKHMO@Schemas?3?5NULL?6@ DB 'Schemas: NULL', 0aH, 00H ; `string'
CONST	ENDS
;	COMDAT ??_C@_09IHAEEDOH@?5ns?5?8?$CFs?8?6@
CONST	SEGMENT
??_C@_09IHAEEDOH@?5ns?5?8?$CFs?8?6@ DB ' ns ''%s''', 0aH, 00H ; `string'
CONST	ENDS
;	COMDAT ??_C@_0BC@HMAJHNML@?5?5base?5type?3?5?8?$CFs?8@
CONST	SEGMENT
??_C@_0BC@HMAJHNML@?5?5base?5type?3?5?8?$CFs?8@ DB '  base type: ''%s''', 00H ; `string'
CONST	ENDS
;	COMDAT ??_C@_06EBDMPOEI@?$FLany?$FN?5@
CONST	SEGMENT
??_C@_06EBDMPOEI@?$FLany?$FN?5@ DB '[any] ', 00H	; `string'
CONST	ENDS
;	COMDAT ??_C@_08EPDGAGCC@?$FLmixed?$FN?5@
CONST	SEGMENT
??_C@_08EPDGAGCC@?$FLmixed?$FN?5@ DB '[mixed] ', 00H	; `string'
CONST	ENDS
;	COMDAT ??_C@_0L@FLJCNDEC@?$FLelement?$FN?5@
CONST	SEGMENT
??_C@_0L@FLJCNDEC@?$FLelement?$FN?5@ DB '[element] ', 00H ; `string'
CONST	ENDS
;	COMDAT ??_C@_08HLDMIKJJ@?$FLempty?$FN?5@
CONST	SEGMENT
??_C@_08HLDMIKJJ@?$FLempty?$FN?5@ DB '[empty] ', 00H	; `string'
CONST	ENDS
;	COMDAT ??_C@_0L@IFGHBDON@?$FLunknown?$FN?5@
CONST	SEGMENT
??_C@_0L@IFGHBDON@?$FLunknown?$FN?5@ DB '[unknown] ', 00H ; `string'
CONST	ENDS
;	COMDAT ??_C@_09FOCHAENE@content?3?5@
CONST	SEGMENT
??_C@_09FOCHAENE@content?3?5@ DB 'content: ', 00H	; `string'
CONST	ENDS
;	COMDAT ??_C@_0BD@MFKKFECO@?$FLunknown?5type?5?$CFd?$FN?5@
CONST	SEGMENT
??_C@_0BD@MFKKFECO@?$FLunknown?5type?5?$CFd?$FN?5@ DB '[unknown type %d] '
	DB	00H						; `string'
CONST	ENDS
;	COMDAT ??_C@_0N@FOPKHEI@?$FLextension?$FN?5@
CONST	SEGMENT
??_C@_0N@FOPKHEI@?$FLextension?$FN?5@ DB '[extension] ', 00H ; `string'
CONST	ENDS
;	COMDAT ??_C@_0P@CHAMEEEB@?$FLrestriction?$FN?5@
CONST	SEGMENT
??_C@_0P@CHAMEEEB@?$FLrestriction?$FN?5@ DB '[restriction] ', 00H ; `string'
CONST	ENDS
;	COMDAT ??_C@_05CJJADIIB@?$FLur?$FN?5@
CONST	SEGMENT
??_C@_05CJJADIIB@?$FLur?$FN?5@ DB '[ur] ', 00H		; `string'
CONST	ENDS
;	COMDAT ??_C@_06FMDLAKIF@?$FLall?$FN?5@
CONST	SEGMENT
??_C@_06FMDLAKIF@?$FLall?$FN?5@ DB '[all] ', 00H	; `string'
CONST	ENDS
;	COMDAT ??_C@_09EKOOBNCK@?$FLchoice?$FN?5@
CONST	SEGMENT
??_C@_09EKOOBNCK@?$FLchoice?$FN?5@ DB '[choice] ', 00H	; `string'
CONST	ENDS
;	COMDAT ??_C@_0M@FCFPOKLD@?$FLsequence?$FN?5@
CONST	SEGMENT
??_C@_0M@FCFPOKLD@?$FLsequence?$FN?5@ DB '[sequence] ', 00H ; `string'
CONST	ENDS
;	COMDAT ??_C@_0L@KAOEKGBK@?$FLcomplex?$FN?5@
CONST	SEGMENT
??_C@_0L@KAOEKGBK@?$FLcomplex?$FN?5@ DB '[complex] ', 00H ; `string'
CONST	ENDS
;	COMDAT ??_C@_09BLJCIKGO@?$FLsimple?$FN?5@
CONST	SEGMENT
??_C@_09BLJCIKGO@?$FLsimple?$FN?5@ DB '[simple] ', 00H	; `string'
CONST	ENDS
;	COMDAT ??_C@_08JHBJHPJC@?$FLbasic?$FN?5@
CONST	SEGMENT
??_C@_08JHBJHPJC@?$FLbasic?$FN?5@ DB '[basic] ', 00H	; `string'
CONST	ENDS
;	COMDAT ??_C@_08KCLBPAMH@ns?5?8?$CFs?8?5@
CONST	SEGMENT
??_C@_08KCLBPAMH@ns?5?8?$CFs?8?5@ DB 'ns ''%s'' ', 00H	; `string'
CONST	ENDS
;	COMDAT ??_C@_0L@MKMGDOCG@?$CIno?5name?$CJ?5@
CONST	SEGMENT
??_C@_0L@MKMGDOCG@?$CIno?5name?$CJ?5@ DB '(no name) ', 00H ; `string'
CONST	ENDS
;	COMDAT ??_C@_05IMLJLABD@?8?$CFs?8?5@
CONST	SEGMENT
??_C@_05IMLJLABD@?8?$CFs?8?5@ DB '''%s'' ', 00H		; `string'
CONST	ENDS
;	COMDAT ??_C@_06NAHGBCDG@Type?3?5@
CONST	SEGMENT
??_C@_06NAHGBCDG@Type?3?5@ DB 'Type: ', 00H		; `string'
CONST	ENDS
;	COMDAT ??_C@_0M@JCDJFDMD@Type?3?5NULL?6@
CONST	SEGMENT
??_C@_0M@JCDJFDMD@Type?3?5NULL?6@ DB 'Type: NULL', 0aH, 00H ; `string'
CONST	ENDS
;	COMDAT ??_C@_05ODNCHMDL@?8?$CFs?8?6@
CONST	SEGMENT
??_C@_05ODNCHMDL@?8?$CFs?8?6@ DB '''%s''', 0aH, 00H	; `string'
CONST	ENDS
;	COMDAT ??_C@_08FLCGCOPE@?5?5?$FLuse?$FN?5@
CONST	SEGMENT
??_C@_08FLCGCOPE@?5?5?$FLuse?$FN?5@ DB '  [use] ', 00H	; `string'
CONST	ENDS
;	COMDAT ??_C@_0P@IGLOKPCJ@?5?5?$FLreference?$FN?5@
CONST	SEGMENT
??_C@_0P@IGLOKPCJ@?5?5?$FLreference?$FN?5@ DB '  [reference] ', 00H ; `string'
CONST	ENDS
;	COMDAT ??_C@_0BB@EJJDJFMI@?5?5?$FLprohibition?$FN?5@
CONST	SEGMENT
??_C@_0BB@EJJDJFMI@?5?5?$FLprohibition?$FN?5@ DB '  [prohibition] ', 00H ; `string'
CONST	ENDS
;	COMDAT ??_C@_0P@JCEFCIDL@?5?5attributes?3?6@
CONST	SEGMENT
??_C@_0P@JCEFCIDL@?5?5attributes?3?6@ DB '  attributes:', 0aH, 00H ; `string'
CONST	ENDS
;	COMDAT ??_C@_08GOONDBNE@?5max?3?5?$CFd@
CONST	SEGMENT
??_C@_08GOONDBNE@?5max?3?5?$CFd@ DB ' max: %d', 00H	; `string'
CONST	ENDS
;	COMDAT ??_C@_0BA@NODJHFHO@?5max?3?5unbounded@
CONST	SEGMENT
??_C@_0BA@NODJHFHO@?5max?3?5unbounded@ DB ' max: unbounded', 00H ; `string'
CONST	ENDS
;	COMDAT ??_C@_08IIINJODF@?5min?3?5?$CFd@
CONST	SEGMENT
??_C@_08IIINJODF@?5min?3?5?$CFd@ DB ' min: %d', 00H	; `string'
CONST	ENDS
;	COMDAT ??_C@_08GCOIMFOL@UNKNOWN?6@
CONST	SEGMENT
??_C@_08GCOIMFOL@UNKNOWN?6@ DB 'UNKNOWN', 0aH, 00H	; `string'
CONST	ENDS
;	COMDAT ??_C@_03OMGOFJGM@ANY@
CONST	SEGMENT
??_C@_03OMGOFJGM@ANY@ DB 'ANY', 00H			; `string'
CONST	ENDS
;	COMDAT ??_C@_03NIFPGLBG@ALL@
CONST	SEGMENT
??_C@_03NIFPGLBG@ALL@ DB 'ALL', 00H			; `string'
CONST	ENDS
;	COMDAT ??_C@_06DHBGJHJC@CHOICE@
CONST	SEGMENT
??_C@_06DHBGJHJC@CHOICE@ DB 'CHOICE', 00H		; `string'
CONST	ENDS
;	COMDAT ??_C@_08POLPFBMC@SEQUENCE@
CONST	SEGMENT
??_C@_08POLPFBMC@SEQUENCE@ DB 'SEQUENCE', 00H		; `string'
CONST	ENDS
;	COMDAT ??_C@_09HHDCLOAM@ELEM?5?8?$CFs?8@
CONST	SEGMENT
??_C@_09HHDCLOAM@ELEM?5?8?$CFs?8@ DB 'ELEM ''%s''', 00H	; `string'
CONST	ENDS
;	COMDAT ??_C@_0BH@DPNPBLLK@MISSING?5particle?5term?6@
CONST	SEGMENT
??_C@_0BH@DPNPBLLK@MISSING?5particle?5term?6@ DB 'MISSING particle term', 0aH
	DB	00H						; `string'
CONST	ENDS
;	COMDAT ??_C@_02DKCKIIND@?$CFs@
CONST	SEGMENT
??_C@_02DKCKIIND@?$CFs@ DB '%s', 00H			; `string'
CONST	ENDS
;	COMDAT ??_C@_0BA@MKDNPCKH@?5?5Annot?3?5empty?6@
CONST	SEGMENT
??_C@_0BA@MKDNPCKH@?5?5Annot?3?5empty?6@ DB '  Annot: empty', 0aH, 00H ; `string'
CONST	ENDS
;	COMDAT ??_C@_0N@FJPFKNMF@?5?5Annot?3?5?$CFs?6@
CONST	SEGMENT
??_C@_0N@FJPFKNMF@?5?5Annot?3?5?$CFs?6@ DB '  Annot: %s', 0aH, 00H ; `string'
CONST	ENDS
;	COMDAT ??_C@_0BL@GHPOMFG@?5?5substitutionGroup?3?5?8?$CFs?8?5@
CONST	SEGMENT
??_C@_0BL@GHPOMFG@?5?5substitutionGroup?3?5?8?$CFs?8?5@ DB '  substitutio'
	DB	'nGroup: ''%s'' ', 00H			; `string'
CONST	ENDS
;	COMDAT ??_C@_08MNNKDMOP@ns?5?8?$CFs?8?6@
CONST	SEGMENT
??_C@_08MNNKDMOP@ns?5?8?$CFs?8?6@ DB 'ns ''%s''', 0aH, 00H ; `string'
CONST	ENDS
;	COMDAT ??_C@_0O@LPELKPN@?5?5type?3?5?8?$CFs?8?5@
CONST	SEGMENT
??_C@_0O@LPELKPN@?5?5type?3?5?8?$CFs?8?5@ DB '  type: ''%s'' ', 00H ; `string'
CONST	ENDS
;	COMDAT ??_C@_0P@OOGOODOG@?5?5value?3?5?8?$CFs?8?6@
CONST	SEGMENT
??_C@_0P@OOGOODOG@?5?5value?3?5?8?$CFs?8?6@ DB '  value: ''%s''', 0aH, 00H ; `string'
CONST	ENDS
;	COMDAT ??_C@_0M@BCKHHPGO@?$FLnillable?$FN?5@
CONST	SEGMENT
??_C@_0M@BCKHHPGO@?$FLnillable?$FN?5@ DB '[nillable] ', 00H ; `string'
CONST	ENDS
;	COMDAT ??_C@_0M@BPMPIELH@?$FLabstract?$FN?5@
CONST	SEGMENT
??_C@_0M@BPMPIELH@?$FLabstract?$FN?5@ DB '[abstract] ', 00H ; `string'
CONST	ENDS
;	COMDAT ??_C@_0L@CIMKDCEL@?$FLdefault?$FN?5@
CONST	SEGMENT
??_C@_0L@CIMKDCEL@?$FLdefault?$FN?5@ DB '[default] ', 00H ; `string'
CONST	ENDS
;	COMDAT ??_C@_08BCFMBKHE@?$FLfixed?$FN?5@
CONST	SEGMENT
??_C@_08BCFMBKHE@?$FLfixed?$FN?5@ DB '[fixed] ', 00H	; `string'
CONST	ENDS
;	COMDAT ??_C@_09MDPMFALO@?5?5props?3?5@
CONST	SEGMENT
??_C@_09MDPMFALO@?5?5props?3?5@ DB '  props: ', 00H	; `string'
CONST	ENDS
;	COMDAT ??_C@_07ONOPJFOL@ns?5?8?$CFs?8@
CONST	SEGMENT
??_C@_07ONOPJFOL@ns?5?8?$CFs?8@ DB 'ns ''%s''', 00H	; `string'
CONST	ENDS
;	COMDAT ??_C@_07IDOJLIPA@?3?5?8?$CFs?8?5@
CONST	SEGMENT
??_C@_07IDOJLIPA@?3?5?8?$CFs?8?5@ DB ': ''%s'' ', 00H	; `string'
CONST	ENDS
;	COMDAT ??_C@_09GAHIJPLK@?5?$CIglobal?$CJ@
CONST	SEGMENT
??_C@_09GAHIJPLK@?5?$CIglobal?$CJ@ DB ' (global)', 00H	; `string'
CONST	ENDS
;	COMDAT ??_C@_07ILMPLKHC@Element@
CONST	SEGMENT
??_C@_07ILMPLKHC@Element@ DB 'Element', 00H		; `string'
CONST	ENDS
;	COMDAT ??_C@_0EM@EBPFONFN@Internal?5error?3?5xmlSchemaCompon@
CONST	SEGMENT
??_C@_0EM@EBPFONFN@Internal?5error?3?5xmlSchemaCompon@ DB 'Internal error'
	DB	': xmlSchemaComponentListFree, unexpected component type ''%s'''
	DB	0aH, 00H					; `string'
CONST	ENDS
;	COMDAT ??_C@_0CM@PPHBJHEG@failed?5to?5add?5the?5schema?5bucket@
CONST	SEGMENT
??_C@_0CM@PPHBJHEG@failed?5to?5add?5the?5schema?5bucket@ DB 'failed to ad'
	DB	'd the schema bucket to the hash', 00H	; `string'
CONST	ENDS
;	COMDAT ??_C@_02IEBMKJDF@?$CD?$CD@
CONST	SEGMENT
??_C@_02IEBMKJDF@?$CD?$CD@ DB '##', 00H			; `string'
CONST	ENDS
;	COMDAT ??_C@_0CH@KFOKDOIL@main?5bucket?5but?5it?8s?5not?5the?5fi@
CONST	SEGMENT
??_C@_0CH@KFOKDOIL@main?5bucket?5but?5it?8s?5not?5the?5fi@ DB 'main bucke'
	DB	't but it''s not the first one', 00H		; `string'
CONST	ENDS
;	COMDAT ??_C@_0CN@IEDLEJJH@first?5bucket?5but?5it?8s?5an?5includ@
CONST	SEGMENT
??_C@_0CN@IEDLEJJH@first?5bucket?5but?5it?8s?5an?5includ@ DB 'first bucke'
	DB	't but it''s an include or redefine', 00H	; `string'
CONST	ENDS
;	COMDAT ??_C@_0BJ@CMBPIEML@allocating?5schema?5bucket@
CONST	SEGMENT
??_C@_0BJ@CMBPIEML@allocating?5schema?5bucket@ DB 'allocating schema buck'
	DB	'et', 00H					; `string'
CONST	ENDS
;	COMDAT ??_C@_0BG@KOPDJPPO@xmlSchemaBucketCreate@
CONST	SEGMENT
??_C@_0BG@KOPDJPPO@xmlSchemaBucketCreate@ DB 'xmlSchemaBucketCreate', 00H ; `string'
CONST	ENDS
;	COMDAT ??_C@_0BO@PGEEMOLL@no?5main?5schema?5on?5constructor@
CONST	SEGMENT
??_C@_0BO@PGEEMOLL@no?5main?5schema?5on?5constructor@ DB 'no main schema '
	DB	'on constructor', 00H			; `string'
CONST	ENDS
;	COMDAT ??_C@_0DH@PONCBEFB@Internal?5error?3?5xmlSchemaItemLi@
CONST	SEGMENT
??_C@_0DH@PONCBEFB@Internal?5error?3?5xmlSchemaItemLi@ DB 'Internal error'
	DB	': xmlSchemaItemListRemove, index error.', 0aH, 00H ; `string'
CONST	ENDS
;	COMDAT ??_C@_0BC@PKMEEMHP@growing?5item?5list@
CONST	SEGMENT
??_C@_0BC@PKMEEMHP@growing?5item?5list@ DB 'growing item list', 00H ; `string'
CONST	ENDS
;	COMDAT ??_C@_0BJ@JABJNCPJ@allocating?5new?5item?5list@
CONST	SEGMENT
??_C@_0BJ@JABJNCPJ@allocating?5new?5item?5list@ DB 'allocating new item l'
	DB	'ist', 00H					; `string'
CONST	ENDS
;	COMDAT ??_C@_0CC@BAFOADOL@allocating?5an?5item?5list?5structu@
CONST	SEGMENT
??_C@_0CC@BAFOADOL@allocating?5an?5item?5list?5structu@ DB 'allocating an'
	DB	' item list structure', 00H			; `string'
CONST	ENDS
;	COMDAT ??_C@_0BG@ICNGEPGO@allocating?5annotation@
CONST	SEGMENT
??_C@_0BG@ICNGEPGO@allocating?5annotation@ DB 'allocating annotation', 00H ; `string'
CONST	ENDS
;	COMDAT ??_C@_0BC@BFLACGOA@allocating?5schema@
CONST	SEGMENT
??_C@_0BC@BFLACGOA@allocating?5schema@ DB 'allocating schema', 00H ; `string'
CONST	ENDS
;	COMDAT ??_C@_0BP@IENIKLPP@?$CFs?3?5The?5content?5is?5not?5valid?4?6@
CONST	SEGMENT
??_C@_0BP@IENIKLPP@?$CFs?3?5The?5content?5is?5not?5valid?4?6@ DB '%s: The'
	DB	' content is not valid.', 0aH, 00H		; `string'
CONST	ENDS
;	COMDAT ??_C@_0CP@OEFNIPAD@?$CFs?3?5The?5content?5is?5not?5valid?4?5E@
CONST	SEGMENT
??_C@_0CP@OEFNIPAD@?$CFs?3?5The?5content?5is?5not?5valid?4?5E@ DB '%s: Th'
	DB	'e content is not valid. Expected is %s.', 0aH, 00H ; `string'
CONST	ENDS
;	COMDAT ??_C@_03CLGCDEAE@?8?4?6@
CONST	SEGMENT
??_C@_03CLGCDEAE@?8?4?6@ DB '''.', 0aH, 00H		; `string'
CONST	ENDS
;	COMDAT ??_C@_0P@PICMEPAD@?5Expected?5is?5?8@
CONST	SEGMENT
??_C@_0P@PICMEPAD@?5Expected?5is?5?8@ DB ' Expected is ''', 00H ; `string'
CONST	ENDS
;	COMDAT ??_C@_0CE@BMFBGFDE@The?5character?5content?5is?5not?5va@
CONST	SEGMENT
??_C@_0CE@BMFBGFDE@The?5character?5content?5is?5not?5va@ DB 'The characte'
	DB	'r content is not valid.', 00H		; `string'
CONST	ENDS
;	COMDAT ??_C@_0BN@HAAPLFMH@The?5value?5?8?$CFs?8?5is?5not?5valid?4@
CONST	SEGMENT
??_C@_0BN@HAAPLFMH@The?5value?5?8?$CFs?8?5is?5not?5valid?4@ DB 'The value'
	DB	' ''%s'' is not valid.', 00H			; `string'
CONST	ENDS
;	COMDAT ??_C@_02DGLLHPKE@?8?4@
CONST	SEGMENT
??_C@_02DGLLHPKE@?8?4@ DB '''.', 00H			; `string'
CONST	ENDS
;	COMDAT ??_C@_0DK@HPMJEOHA@?$CFs?3?5The?5attributes?5?8?$CFs?8?5and?5?8?$CFs@
CONST	SEGMENT
??_C@_0DK@HPMJEOHA@?$CFs?3?5The?5attributes?5?8?$CFs?8?5and?5?8?$CFs@ DB '%'
	DB	's: The attributes ''%s'' and ''%s'' are mutually exclusive.', 0aH
	DB	00H						; `string'
CONST	ENDS
;	COMDAT ??_C@_0CE@OEIFIFDF@?$CFs?3?5The?5facet?5?8?$CFs?8?5is?5not?5allow@
CONST	SEGMENT
??_C@_0CE@OEIFIFDF@?$CFs?3?5The?5facet?5?8?$CFs?8?5is?5not?5allow@ DB '%s'
	DB	': The facet ''%s'' is not allowed.', 0aH, 00H ; `string'
CONST	ENDS
;	COMDAT ??_C@_0EG@LINCPIFE@?$CFs?3?5The?5facet?5?8?$CFs?8?5is?5not?5allow@
CONST	SEGMENT
??_C@_0EG@LINCPIFE@?$CFs?3?5The?5facet?5?8?$CFs?8?5is?5not?5allow@ DB '%s'
	DB	': The facet ''%s'' is not allowed on types derived from the t'
	DB	'ype %s.', 0aH, 00H				; `string'
CONST	ENDS
;	COMDAT ??_C@_04PFAOODAA@?$CFs?3?5@
CONST	SEGMENT
??_C@_04PFAOODAA@?$CFs?3?5@ DB '%s: ', 00H		; `string'
CONST	ENDS
;	COMDAT ??_C@_0CG@GPHLIIIG@?$CFsThe?5attribute?5?8?$CFs?8?5is?5not?5all@
CONST	SEGMENT
??_C@_0CG@GPHLIIIG@?$CFsThe?5attribute?5?8?$CFs?8?5is?5not?5all@ DB '%sTh'
	DB	'e attribute ''%s'' is not allowed.', 0aH, 00H ; `string'
CONST	ENDS
;	COMDAT ??_C@_0BJ@EDCPEHIM@?$CFs?0?5attribute?5?8?$CFs?8?3?5?$CFs?4?6@
CONST	SEGMENT
??_C@_0BJ@EDCPEHIM@?$CFs?0?5attribute?5?8?$CFs?8?3?5?$CFs?4?6@ DB '%s, at'
	DB	'tribute ''%s'': %s.', 0aH, 00H		; `string'
CONST	ENDS
;	COMDAT ??_C@_07NBCGADJA@Unknown@
CONST	SEGMENT
??_C@_07NBCGADJA@Unknown@ DB 'Unknown', 00H		; `string'
CONST	ENDS
;	COMDAT ??_C@_0EH@GOOOKJLI@?$CFs?0?5attribute?5?8?$CFs?8?3?5The?5QName?5v@
CONST	SEGMENT
??_C@_0EH@GOOOKJLI@?$CFs?0?5attribute?5?8?$CFs?8?3?5The?5QName?5v@ DB '%s'
	DB	', attribute ''%s'': The QName value ''%s'' does not resolve t'
	DB	'o a(n) %s.', 0aH, 00H			; `string'
CONST	ENDS
;	COMDAT ??_C@_0DB@LLELCGPM@?$CFs?3?5The?5attribute?5?8?$CFs?8?5is?5requi@
CONST	SEGMENT
??_C@_0DB@LLELCGPM@?$CFs?3?5The?5attribute?5?8?$CFs?8?5is?5requi@ DB '%s:'
	DB	' The attribute ''%s'' is required but missing.', 0aH, 00H ; `string'
CONST	ENDS
;	COMDAT ??_C@_08EAGHGJIC@?$CFs?3?5?$CFs?4?6@
CONST	SEGMENT
??_C@_08EAGHGJIC@?$CFs?3?5?$CFs?4?6@ DB '%s: %s.', 0aH, 00H ; `string'
CONST	ENDS
;	COMDAT ??_C@_0BP@CKLMMNCB@The?5value?5is?5not?5facet?9valid?4?6@
CONST	SEGMENT
??_C@_0BP@CKLMMNCB@The?5value?5is?5not?5facet?9valid?4?6@ DB 'The value i'
	DB	's not facet-valid.', 0aH, 00H		; `string'
CONST	ENDS
;	COMDAT ??_C@_0CE@HKFPHOBG@The?5value?5?8?$CFs?8?5is?5not?5facet?9val@
CONST	SEGMENT
??_C@_0CE@HKFPHOBG@The?5value?5?8?$CFs?8?5is?5not?5facet?9val@ DB 'The va'
	DB	'lue ''%s'' is not facet-valid.', 0aH, 00H	; `string'
CONST	ENDS
;	COMDAT ??_C@_0EE@PPGDNELD@The?5value?5?8?$CFs?8?5has?5more?5fractio@
CONST	SEGMENT
??_C@_0EE@PPGDNELD@The?5value?5?8?$CFs?8?5has?5more?5fractio@ DB 'The val'
	DB	'ue ''%s'' has more fractional digits than are allowed (''%s'''
	DB	').', 0aH, 00H				; `string'
CONST	ENDS
;	COMDAT ??_C@_0DJ@CHBCAGLC@The?5value?5?8?$CFs?8?5has?5more?5digits?5@
CONST	SEGMENT
??_C@_0DJ@CHBCAGLC@The?5value?5?8?$CFs?8?5has?5more?5digits?5@ DB 'The va'
	DB	'lue ''%s'' has more digits than are allowed (''%s'').', 0aH, 00H ; `string'
CONST	ENDS
;	COMDAT ??_C@_0CI@DMBEGLJK@The?5value?5?8?$CFs?8?5must?5be?5less?5tha@
CONST	SEGMENT
??_C@_0CI@DMBEGLJK@The?5value?5?8?$CFs?8?5must?5be?5less?5tha@ DB 'The va'
	DB	'lue ''%s'' must be less than ''%s''.', 0aH, 00H ; `string'
CONST	ENDS
;	COMDAT ??_C@_0CL@CEDGHCDN@The?5value?5?8?$CFs?8?5must?5be?5greater?5@
CONST	SEGMENT
??_C@_0CL@CEDGHCDN@The?5value?5?8?$CFs?8?5must?5be?5greater?5@ DB 'The va'
	DB	'lue ''%s'' must be greater than ''%s''.', 0aH, 00H ; `string'
CONST	ENDS
;	COMDAT ??_C@_0EC@ODIEFLC@The?5value?5?8?$CFs?8?5is?5greater?5than?5@
CONST	SEGMENT
??_C@_0EC@ODIEFLC@The?5value?5?8?$CFs?8?5is?5greater?5than?5@ DB 'The val'
	DB	'ue ''%s'' is greater than the maximum value allowed (''%s'').'
	DB	0aH, 00H					; `string'
CONST	ENDS
;	COMDAT ??_C@_0DP@JKCFEDLM@The?5value?5?8?$CFs?8?5is?5less?5than?5the@
CONST	SEGMENT
??_C@_0DP@JKCFEDLM@The?5value?5?8?$CFs?8?5is?5less?5than?5the@ DB 'The va'
	DB	'lue ''%s'' is less than the minimum value allowed (''%s'').', 0aH
	DB	00H						; `string'
CONST	ENDS
;	COMDAT ??_C@_0DF@NEKJCLEF@The?5value?5?8?$CFs?8?5is?5not?5accepted?5@
CONST	SEGMENT
??_C@_0DF@NEKJCLEF@The?5value?5?8?$CFs?8?5is?5not?5accepted?5@ DB 'The va'
	DB	'lue ''%s'' is not accepted by the pattern ''%s''.', 0aH, 00H ; `string'
CONST	ENDS
;	COMDAT ??_C@_0DD@DOBLIGCG@The?5value?5?8?$CFs?8?5is?5not?5an?5elemen@
CONST	SEGMENT
??_C@_0DD@DOBLIGCG@The?5value?5?8?$CFs?8?5is?5not?5an?5elemen@ DB 'The va'
	DB	'lue ''%s'' is not an element of the set {%s}.', 0aH, 00H ; `string'
CONST	ENDS
;	COMDAT ??_C@_0DE@PEKKBPHG@this?5underruns?5the?5allowed?5mini@
CONST	SEGMENT
??_C@_0DE@PEKKBPHG@this?5underruns?5the?5allowed?5mini@ DB 'this underrun'
	DB	's the allowed minimum length of ''%s''.', 0aH, 00H ; `string'
CONST	ENDS
;	COMDAT ??_C@_0DC@OJNJPCCF@this?5exceeds?5the?5allowed?5maximu@
CONST	SEGMENT
??_C@_0DC@OJNJPCCF@this?5exceeds?5the?5allowed?5maximu@ DB 'this exceeds '
	DB	'the allowed maximum length of ''%s''.', 0aH, 00H ; `string'
CONST	ENDS
;	COMDAT ??_C@_0CP@IEDJOHDN@this?5differs?5from?5the?5allowed?5l@
CONST	SEGMENT
??_C@_0CP@IEDJOHDN@this?5differs?5from?5the?5allowed?5l@ DB 'this differs'
	DB	' from the allowed length of ''%s''.', 0aH, 00H ; `string'
CONST	ENDS
;	COMDAT ??_C@_03FKNCMABI@?$CFlu@
CONST	SEGMENT
??_C@_03FKNCMABI@?$CFlu@ DB '%lu', 00H			; `string'
CONST	ENDS
;	COMDAT ??_C@_0CB@KPGCMBDK@The?5value?5has?5a?5length?5of?5?8?$CFs?8?$DL@
CONST	SEGMENT
??_C@_0CB@KPGCMBDK@The?5value?5has?5a?5length?5of?5?8?$CFs?8?$DL@ DB 'The'
	DB	' value has a length of ''%s''; ', 00H	; `string'
CONST	ENDS
;	COMDAT ??_C@_0CG@GNANNDNL@The?5value?5?8?$CFs?8?5has?5a?5length?5of?5@
CONST	SEGMENT
??_C@_0CG@GNANNDNL@The?5value?5?8?$CFs?8?5has?5a?5length?5of?5@ DB 'The v'
	DB	'alue ''%s'' has a length of ''%s''; ', 00H	; `string'
CONST	ENDS
;	COMDAT ??_C@_03BCLOCOCF@?8?$FN?5@
CONST	SEGMENT
??_C@_03BCLOCOCF@?8?$FN?5@ DB '''] ', 00H		; `string'
CONST	ENDS
;	COMDAT ??_C@_01OHGJGJJP@?$FL@
CONST	SEGMENT
??_C@_01OHGJGJJP@?$FL@ DB '[', 00H			; `string'
CONST	ENDS
;	COMDAT ??_C@_01EEMJAFIK@?6@
CONST	SEGMENT
??_C@_01EEMJAFIK@?6@ DB 0aH, 00H			; `string'
CONST	ENDS
;	COMDAT ??_C@_04ONBKEEDC@?5?$CJ?4?6@
CONST	SEGMENT
??_C@_04ONBKEEDC@?5?$CJ?4?6@ DB ' ).', 0aH, 00H		; `string'
CONST	ENDS
;	COMDAT ??_C@_02KEGNLNML@?0?5@
CONST	SEGMENT
??_C@_02KEGNLNML@?0?5@ DB ', ', 00H			; `string'
CONST	ENDS
;	COMDAT ??_C@_09OEHCBIBE@?$HL?$CD?$CDother?3@
CONST	SEGMENT
??_C@_09OEHCBIBE@?$HL?$CD?$CDother?3@ DB '{##other:', 00H ; `string'
CONST	ENDS
;	COMDAT ??_C@_03MNMOMDPD@?$HL?$CK?$HN@
CONST	SEGMENT
??_C@_03MNMOMDPD@?$HL?$CK?$HN@ DB '{*}', 00H		; `string'
CONST	ENDS
;	COMDAT ??_C@_01NBENCBCI@?$CK@
CONST	SEGMENT
??_C@_01NBENCBCI@?$CK@ DB '*', 00H			; `string'
CONST	ENDS
;	COMDAT ??_C@_07ELAGFAPB@?$CD?$CDother@
CONST	SEGMENT
??_C@_07ELAGFAPB@?$CD?$CDother@ DB '##other', 00H	; `string'
CONST	ENDS
;	COMDAT ??_C@_0BA@HCJBOGK@?5Expected?5is?5?$CI?5@
CONST	SEGMENT
??_C@_0BA@HCJBOGK@?5Expected?5is?5?$CI?5@ DB ' Expected is ( ', 00H ; `string'
CONST	ENDS
;	COMDAT ??_C@_0BH@JGKEPFCF@?5Expected?5is?5one?5of?5?$CI?5@
CONST	SEGMENT
??_C@_0BH@JGKEPFCF@?5Expected?5is?5one?5of?5?$CI?5@ DB ' Expected is one '
	DB	'of ( ', 00H					; `string'
CONST	ENDS
;	COMDAT ??_C@_01LFCBOECM@?4@
CONST	SEGMENT
??_C@_01LFCBOECM@?4@ DB '.', 00H			; `string'
CONST	ENDS
;	COMDAT ??_C@_0CE@FELNOPMA@The?5attribute?5?8?$CFs?8?5is?5not?5allow@
CONST	SEGMENT
??_C@_0CE@FELNOPMA@The?5attribute?5?8?$CFs?8?5is?5not?5allow@ DB 'The att'
	DB	'ribute ''%s'' is not allowed.', 0aH, 00H	; `string'
CONST	ENDS
;	COMDAT ??_C@_03DCOKAOA@xs?3@
CONST	SEGMENT
??_C@_03DCOKAOA@xs?3@ DB 'xs:', 00H			; `string'
CONST	ENDS
;	COMDAT ??_C@_04BAIFLMGI@the?5@
CONST	SEGMENT
??_C@_04BAIFLMGI@the?5@ DB 'the ', 00H			; `string'
CONST	ENDS
;	COMDAT ??_C@_0L@MLMEJNFI@the?5local?5@
CONST	SEGMENT
??_C@_0L@MLMEJNFI@the?5local?5@ DB 'the local ', 00H	; `string'
CONST	ENDS
;	COMDAT ??_C@_0CP@NNGHIIKI@The?5character?5content?5is?5not?5a?5@
CONST	SEGMENT
??_C@_0CP@NNGHIIKI@The?5character?5content?5is?5not?5a?5@ DB 'The charact'
	DB	'er content is not a valid value of ', 00H	; `string'
CONST	ENDS
;	COMDAT ??_C@_0BO@ONHLDAAN@?8?$CFs?8?5is?5not?5a?5valid?5value?5of?5@
CONST	SEGMENT
??_C@_0BO@ONHLDAAN@?8?$CFs?8?5is?5not?5a?5valid?5value?5of?5@ DB '''%s'' '
	DB	'is not a valid value of ', 00H		; `string'
CONST	ENDS
;	COMDAT ??_C@_0P@KFJAHJM@Element?5?8?$CFs?8?3?5@
CONST	SEGMENT
??_C@_0P@KFJAHJM@Element?5?8?$CFs?8?3?5@ DB 'Element ''%s'': ', 00H ; `string'
CONST	ENDS
;	COMDAT ??_C@_02LMMGGCAJ@?3?5@
CONST	SEGMENT
??_C@_02LMMGGCAJ@?3?5@ DB ': ', 00H			; `string'
CONST	ENDS
;	COMDAT ??_C@_02MIICKFIN@?4?6@
CONST	SEGMENT
??_C@_02MIICKFIN@?4?6@ DB '.', 0aH, 00H			; `string'
CONST	ENDS
;	COMDAT ??_C@_0BF@EFOKBLAL@Internal?5error?3?5?$CFs?0?5@
CONST	SEGMENT
??_C@_0BF@EFOKBLAL@Internal?5error?3?5?$CFs?0?5@ DB 'Internal error: %s, '
	DB	00H						; `string'
CONST	ENDS
;	COMDAT ??_C@_03FPCGPDIA@?8?3?5@
CONST	SEGMENT
??_C@_03FPCGPDIA@?8?3?5@ DB ''': ', 00H			; `string'
CONST	ENDS
;	COMDAT ??_C@_0M@DCJBDJKC@attribute?5?8@
CONST	SEGMENT
??_C@_0M@DCJBDJKC@attribute?5?8@ DB 'attribute ''', 00H	; `string'
CONST	ENDS
;	COMDAT ??_C@_03EHINCMEC@?8?0?5@
CONST	SEGMENT
??_C@_03EHINCMEC@?8?0?5@ DB ''', ', 00H			; `string'
CONST	ENDS
;	COMDAT ??_C@_0BO@MDEMDPPE@Unimplemented?5block?5at?5?$CFs?3?$CFd?6@
CONST	SEGMENT
??_C@_0BO@MDEMDPPE@Unimplemented?5block?5at?5?$CFs?3?$CFd?6@ DB 'Unimplem'
	DB	'ented block at %s:%d', 0aH, 00H		; `string'
CONST	ENDS
;	COMDAT ??_C@_0GM@IJCDLDON@c?3?2users?2dag?2documents?2_clients@
CONST	SEGMENT
??_C@_0GM@IJCDLDON@c?3?2users?2dag?2documents?2_clients@ DB 'c:\users\dag'
	DB	'\documents\_clients\codeproject authors group\windows on arm\'
	DB	'libxml2\libxml2-2.9.9\xmlschemas.c', 00H	; `string'
CONST	ENDS
;	COMDAT ??_C@_03NGNHMEOA@?0?5?8@
CONST	SEGMENT
??_C@_03NGNHMEOA@?0?5?8@ DB ', ''', 00H			; `string'
CONST	ENDS
;	COMDAT ??_C@_0BM@OEBNECHE@xmlSchemaFormatFacetEnumSet@
CONST	SEGMENT
??_C@_0BM@OEBNECHE@xmlSchemaFormatFacetEnumSet@ DB 'xmlSchemaFormatFacetE'
	DB	'numSet', 00H				; `string'
CONST	ENDS
;	COMDAT ??_C@_0CN@FICFNABL@compute?5the?5canonical?5lexical?5r@
CONST	SEGMENT
??_C@_0CN@FICFNABL@compute?5the?5canonical?5lexical?5r@ DB 'compute the c'
	DB	'anonical lexical representation', 00H	; `string'
CONST	ENDS
;	COMDAT ??_C@_0O@MMBACEAK@?0?5attribute?5?8@
CONST	SEGMENT
??_C@_0O@MMBACEAK@?0?5attribute?5?8@ DB ', attribute ''', 00H ; `string'
CONST	ENDS
;	COMDAT ??_C@_09NEDFDOKM@Element?5?8@
CONST	SEGMENT
??_C@_09NEDFDOKM@Element?5?8@ DB 'Element ''', 00H	; `string'
CONST	ENDS
;	COMDAT ??_C@_0BB@IMEONDPK@model?5group?5def?4@
CONST	SEGMENT
??_C@_0BB@IMEONDPK@model?5group?5def?4@ DB 'model group def.', 00H ; `string'
CONST	ENDS
;	COMDAT ??_C@_07HIPPIIHM@facet?5?8@
CONST	SEGMENT
??_C@_07HIPPIIHM@facet?5?8@ DB 'facet ''', 00H		; `string'
CONST	ENDS
;	COMDAT ??_C@_09NMNBGFGO@?5wildcard@
CONST	SEGMENT
??_C@_09NMNBGFGO@?5wildcard@ DB ' wildcard', 00H	; `string'
CONST	ENDS
;	COMDAT ??_C@_08MKGKMCJE@keyRef?5?8@
CONST	SEGMENT
??_C@_08MKGKMCJE@keyRef?5?8@ DB 'keyRef ''', 00H	; `string'
CONST	ENDS
;	COMDAT ??_C@_05IJGDECGL@key?5?8@
CONST	SEGMENT
??_C@_05IJGDECGL@key?5?8@ DB 'key ''', 00H		; `string'
CONST	ENDS
;	COMDAT ??_C@_08GHLBJEBL@unique?5?8@
CONST	SEGMENT
??_C@_08GHLBJEBL@unique?5?8@ DB 'unique ''', 00H	; `string'
CONST	ENDS
;	COMDAT ??_C@_0O@HMOECBPO@element?5decl?4@
CONST	SEGMENT
??_C@_0O@HMOECBPO@element?5decl?4@ DB 'element decl.', 00H ; `string'
CONST	ENDS
;	COMDAT ??_C@_0BA@NHBCAGDA@attribute?5decl?4@
CONST	SEGMENT
??_C@_0BA@NHBCAGDA@attribute?5decl?4@ DB 'attribute decl.', 00H ; `string'
CONST	ENDS
;	COMDAT ??_C@_09GPGAJHPD@?$CIunknown?$CJ@
CONST	SEGMENT
??_C@_09GPGAJHPD@?$CIunknown?$CJ@ DB '(unknown)', 00H	; `string'
CONST	ENDS
;	COMDAT ??_C@_0P@LDLBBJOE@attribute?5use?5@
CONST	SEGMENT
??_C@_0P@LDLBBJOE@attribute?5use?5@ DB 'attribute use ', 00H ; `string'
CONST	ENDS
;	COMDAT ??_C@_0N@NIBELLIN@complex?5type@
CONST	SEGMENT
??_C@_0N@NIBELLIN@complex?5type@ DB 'complex type', 00H	; `string'
CONST	ENDS
;	COMDAT ??_C@_0M@CHKFADBH@simple?5type@
CONST	SEGMENT
??_C@_0M@CHKFADBH@simple?5type@ DB 'simple type', 00H	; `string'
CONST	ENDS
;	COMDAT ??_C@_0L@KHBDGNKM@union?5type@
CONST	SEGMENT
??_C@_0L@KHBDGNKM@union?5type@ DB 'union type', 00H	; `string'
CONST	ENDS
;	COMDAT ??_C@_09EMCEHNFO@list?5type@
CONST	SEGMENT
??_C@_09EMCEHNFO@list?5type@ DB 'list type', 00H	; `string'
CONST	ENDS
;	COMDAT ??_C@_0M@NAKOLHPN@atomic?5type@
CONST	SEGMENT
??_C@_0M@NAKOLHPN@atomic?5type@ DB 'atomic type', 00H	; `string'
CONST	ENDS
;	COMDAT ??_C@_06FOGGDAIC@local?5@
CONST	SEGMENT
??_C@_06FOGGDAIC@local?5@ DB 'local ', 00H		; `string'
CONST	ENDS
;	COMDAT ??_C@_0BB@GMNLLPLD@simple?5type?5?8xs?3@
CONST	SEGMENT
??_C@_0BB@GMNLLPLD@simple?5type?5?8xs?3@ DB 'simple type ''xs:', 00H ; `string'
CONST	ENDS
;	COMDAT ??_C@_0BA@CKGFBMGP@union?5type?5?8xs?3@
CONST	SEGMENT
??_C@_0BA@CKGFBMGP@union?5type?5?8xs?3@ DB 'union type ''xs:', 00H ; `string'
CONST	ENDS
;	COMDAT ??_C@_0P@NECGJBPP@list?5type?5?8xs?3@
CONST	SEGMENT
??_C@_0P@NECGJBPP@list?5type?5?8xs?3@ DB 'list type ''xs:', 00H ; `string'
CONST	ENDS
;	COMDAT ??_C@_0BB@MLAHCBJL@atomic?5type?5?8xs?3@
CONST	SEGMENT
??_C@_0BB@MLAHCBJL@atomic?5type?5?8xs?3@ DB 'atomic type ''xs:', 00H ; `string'
CONST	ENDS
;	COMDAT ??_C@_01CLKCMJKC@?5@
CONST	SEGMENT
??_C@_01CLKCMJKC@?5@ DB ' ', 00H			; `string'
CONST	ENDS
;	COMDAT ??_C@_00CNPNBAHC@@
CONST	SEGMENT
??_C@_00CNPNBAHC@@ DB 00H				; `string'
CONST	ENDS
;	COMDAT ??_C@_0BJ@IEOMLCDH@invalid?5process?5contents@
CONST	SEGMENT
??_C@_0BJ@IEOMLCDH@invalid?5process?5contents@ DB 'invalid process conten'
	DB	'ts', 00H					; `string'
CONST	ENDS
;	COMDAT ??_C@_06OLFOGHEN@strict@
CONST	SEGMENT
??_C@_06OLFOGHEN@strict@ DB 'strict', 00H		; `string'
CONST	ENDS
;	COMDAT ??_C@_03BLIDKLB@lax@
CONST	SEGMENT
??_C@_03BLIDKLB@lax@ DB 'lax', 00H			; `string'
CONST	ENDS
;	COMDAT ??_C@_04DLBGLKG@skip@
CONST	SEGMENT
??_C@_04DLBGLKG@skip@ DB 'skip', 00H			; `string'
CONST	ENDS
;	COMDAT ??_C@_01GEODFPGF@?8@
CONST	SEGMENT
??_C@_01GEODFPGF@?8@ DB '''', 00H			; `string'
CONST	ENDS
;	COMDAT ??_C@_02OCDGNCGI@?5?8@
CONST	SEGMENT
??_C@_02OCDGNCGI@?5?8@ DB ' ''', 00H			; `string'
CONST	ENDS
;	COMDAT ??_C@_06LHGEHABH@?$CINULL?$CJ@
CONST	SEGMENT
??_C@_06LHGEHABH@?$CINULL?$CJ@ DB '(NULL)', 00H		; `string'
CONST	ENDS
;	COMDAT ??_C@_01CELHOKLL@?$HN@
CONST	SEGMENT
??_C@_01CELHOKLL@?$HN@ DB '}', 00H			; `string'
CONST	ENDS
;	COMDAT ??_C@_01HCONENDN@?$HL@
CONST	SEGMENT
??_C@_01HCONENDN@?$HL@ DB '{', 00H			; `string'
CONST	ENDS
;	COMDAT ??_C@_0BH@CAFJLKIN@Not?5a?5schema?5component@
CONST	SEGMENT
??_C@_0BH@CAFJLKIN@Not?5a?5schema?5component@ DB 'Not a schema component', 00H ; `string'
CONST	ENDS
;	COMDAT ??_C@_0CN@OAJJPDIM@?$FLhelper?5component?$FN?5attribute?5us@
CONST	SEGMENT
??_C@_0CN@OAJJPDIM@?$FLhelper?5component?$FN?5attribute?5us@ DB '[helper '
	DB	'component] attribute use prohibition', 00H	; `string'
CONST	ENDS
;	COMDAT ??_C@_0CD@GEFKFDJJ@?$FLhelper?5component?$FN?5QName?5refere@
CONST	SEGMENT
??_C@_0CD@GEFKFDJJ@?$FLhelper?5component?$FN?5QName?5refere@ DB '[helper '
	DB	'component] QName reference', 00H		; `string'
CONST	ENDS
;	COMDAT ??_C@_0P@BBIPBLEO@wildcard?5?$CIany?$CJ@
CONST	SEGMENT
??_C@_0P@BBIPBLEO@wildcard?5?$CIany?$CJ@ DB 'wildcard (any)', 00H ; `string'
CONST	ENDS
;	COMDAT ??_C@_0BL@GKPNKMCM@keyref?5identity?9constraint@
CONST	SEGMENT
??_C@_0BL@GKPNKMCM@keyref?5identity?9constraint@ DB 'keyref identity-cons'
	DB	'traint', 00H				; `string'
CONST	ENDS
;	COMDAT ??_C@_0BI@LJCGFAMF@key?5identity?9constraint@
CONST	SEGMENT
??_C@_0BI@LJCGFAMF@key?5identity?9constraint@ DB 'key identity-constraint'
	DB	00H						; `string'
CONST	ENDS
;	COMDAT ??_C@_0BL@NFCPOJDK@unique?5identity?9constraint@
CONST	SEGMENT
??_C@_0BL@NFCPOJDK@unique?5identity?9constraint@ DB 'unique identity-cons'
	DB	'traint', 00H				; `string'
CONST	ENDS
;	COMDAT ??_C@_08PKKGOGAD@particle@
CONST	SEGMENT
??_C@_08PKKGOGAD@particle@ DB 'particle', 00H		; `string'
CONST	ENDS
;	COMDAT ??_C@_0BC@IIBLBPCH@model?5group?5?$CIall?$CJ@
CONST	SEGMENT
??_C@_0BC@IIBLBPCH@model?5group?5?$CIall?$CJ@ DB 'model group (all)', 00H ; `string'
CONST	ENDS
;	COMDAT ??_C@_0BF@DBPJFANL@model?5group?5?$CIchoice?$CJ@
CONST	SEGMENT
??_C@_0BF@DBPJFANL@model?5group?5?$CIchoice?$CJ@ DB 'model group (choice)'
	DB	00H						; `string'
CONST	ENDS
;	COMDAT ??_C@_0BH@EJHDDDLA@model?5group?5?$CIsequence?$CJ@
CONST	SEGMENT
??_C@_0BH@EJHDDDLA@model?5group?5?$CIsequence?$CJ@ DB 'model group (seque'
	DB	'nce)', 00H					; `string'
CONST	ENDS
;	COMDAT ??_C@_0BF@JHGFINH@notation?5declaration@
CONST	SEGMENT
??_C@_0BF@JHGFINH@notation?5declaration@ DB 'notation declaration', 00H ; `string'
CONST	ENDS
;	COMDAT ??_C@_0BL@LEHHANJP@attribute?5group?5definition@
CONST	SEGMENT
??_C@_0BL@LEHHANJP@attribute?5group?5definition@ DB 'attribute group defi'
	DB	'nition', 00H				; `string'
CONST	ENDS
;	COMDAT ??_C@_0BH@MMBLGEHA@model?5group?5definition@
CONST	SEGMENT
??_C@_0BH@MMBLGEHA@model?5group?5definition@ DB 'model group definition', 00H ; `string'
CONST	ENDS
;	COMDAT ??_C@_0BG@EDIHLHKC@attribute?5declaration@
CONST	SEGMENT
??_C@_0BG@EDIHLHKC@attribute?5declaration@ DB 'attribute declaration', 00H ; `string'
CONST	ENDS
;	COMDAT ??_C@_0O@OMANOKDA@attribute?5use@
CONST	SEGMENT
??_C@_0O@OMANOKDA@attribute?5use@ DB 'attribute use', 00H ; `string'
CONST	ENDS
;	COMDAT ??_C@_0BE@GNKEMAII@element?5declaration@
CONST	SEGMENT
??_C@_0BE@GNKEMAII@element?5declaration@ DB 'element declaration', 00H ; `string'
CONST	ENDS
;	COMDAT ??_C@_0BI@MHGDJJNC@complex?5type?5definition@
CONST	SEGMENT
??_C@_0BI@MHGDJJNC@complex?5type?5definition@ DB 'complex type definition'
	DB	00H						; `string'
CONST	ENDS
;	COMDAT ??_C@_0BH@BIKOCJPH@simple?5type?5definition@
CONST	SEGMENT
??_C@_0BH@BIKOCJPH@simple?5type?5definition@ DB 'simple type definition', 00H ; `string'
CONST	ENDS
_DATA	SEGMENT
_xmlSchemaNs DD	FLAT:??_C@_0CB@PJCCKICC@http?3?1?1www?4w3?4org?12001?1XMLSchem@
_xmlSchemaInstanceNs DD FLAT:??_C@_0CK@FAJBIKFJ@http?3?1?1www?4w3?4org?12001?1XMLSchem@
_xmlNamespaceNs DD FLAT:??_C@_0BO@GBJIDPIB@http?3?1?1www?4w3?4org?12000?1xmlns?1@
_DATA	ENDS
; Function compile flags: /Odt
;	COMDAT __JustMyCode_Default
_TEXT	SEGMENT
__JustMyCode_Default PROC				; COMDAT
	push	ebp
	mov	ebp, esp
	pop	ebp
	ret	0
__JustMyCode_Default ENDP
_TEXT	ENDS
; Function compile flags: /Odtp /RTCsu
; File c:\users\dag\documents\_clients\codeproject authors group\windows on arm\libxml2\libxml2-2.9.9\xmlschemas.c
;	COMDAT _xmlSchemaValidateStreamLocator
_TEXT	SEGMENT
_ctxt$ = -4						; size = 4
_ctx$ = 8						; size = 4
_file$ = 12						; size = 4
_line$ = 16						; size = 4
_xmlSchemaValidateStreamLocator PROC			; COMDAT

; 28826:                                unsigned long *line) {

	push	ebp
	mov	ebp, esp
	push	ecx
	mov	DWORD PTR [ebp-4], -858993460		; ccccccccH
	mov	ecx, OFFSET __7C094509_xmlschemas@c
	call	@__CheckForDebuggerJustMyCode@4

; 28827:     xmlParserCtxtPtr ctxt;
; 28828: 
; 28829:     if ((ctx == NULL) || ((file == NULL) && (line == NULL)))

	cmp	DWORD PTR _ctx$[ebp], 0
	je	SHORT $LN3@xmlSchemaV
	cmp	DWORD PTR _file$[ebp], 0
	jne	SHORT $LN2@xmlSchemaV
	cmp	DWORD PTR _line$[ebp], 0
	jne	SHORT $LN2@xmlSchemaV
$LN3@xmlSchemaV:

; 28830:         return(-1);

	or	eax, -1
	jmp	SHORT $LN1@xmlSchemaV
$LN2@xmlSchemaV:

; 28831: 
; 28832:     if (file != NULL)

	cmp	DWORD PTR _file$[ebp], 0
	je	SHORT $LN4@xmlSchemaV

; 28833:         *file = NULL;

	mov	eax, DWORD PTR _file$[ebp]
	mov	DWORD PTR [eax], 0
$LN4@xmlSchemaV:

; 28834:     if (line != NULL)

	cmp	DWORD PTR _line$[ebp], 0
	je	SHORT $LN5@xmlSchemaV

; 28835:         *line = 0;

	mov	ecx, DWORD PTR _line$[ebp]
	mov	DWORD PTR [ecx], 0
$LN5@xmlSchemaV:

; 28836: 
; 28837:     ctxt = (xmlParserCtxtPtr) ctx;

	mov	edx, DWORD PTR _ctx$[ebp]
	mov	DWORD PTR _ctxt$[ebp], edx

; 28838:     if (ctxt->input != NULL) {

	mov	eax, DWORD PTR _ctxt$[ebp]
	cmp	DWORD PTR [eax+36], 0
	je	SHORT $LN6@xmlSchemaV

; 28839:        if (file != NULL)

	cmp	DWORD PTR _file$[ebp], 0
	je	SHORT $LN7@xmlSchemaV

; 28840:            *file = ctxt->input->filename;

	mov	ecx, DWORD PTR _ctxt$[ebp]
	mov	edx, DWORD PTR [ecx+36]
	mov	eax, DWORD PTR _file$[ebp]
	mov	ecx, DWORD PTR [edx+4]
	mov	DWORD PTR [eax], ecx
$LN7@xmlSchemaV:

; 28841:        if (line != NULL)

	cmp	DWORD PTR _line$[ebp], 0
	je	SHORT $LN8@xmlSchemaV

; 28842:            *line = ctxt->input->line;

	mov	edx, DWORD PTR _ctxt$[ebp]
	mov	eax, DWORD PTR [edx+36]
	mov	ecx, DWORD PTR _line$[ebp]
	mov	edx, DWORD PTR [eax+28]
	mov	DWORD PTR [ecx], edx
$LN8@xmlSchemaV:

; 28843:        return(0);

	xor	eax, eax
	jmp	SHORT $LN1@xmlSchemaV
$LN6@xmlSchemaV:

; 28844:     }
; 28845:     return(-1);

	or	eax, -1
$LN1@xmlSchemaV:

; 28846: }

	add	esp, 4
	cmp	ebp, esp
	call	__RTC_CheckEsp
	mov	esp, ebp
	pop	ebp
	ret	0
_xmlSchemaValidateStreamLocator ENDP
_TEXT	ENDS
; Function compile flags: /Odtp /RTCsu
; File c:\users\dag\documents\_clients\codeproject authors group\windows on arm\libxml2\libxml2-2.9.9\xmlschemas.c
;	COMDAT _endElementNsSplit
_TEXT	SEGMENT
_ctxt$ = -4						; size = 4
_ctx$ = 8						; size = 4
_localname$ = 12					; size = 4
_prefix$ = 16						; size = 4
_URI$ = 20						; size = 4
_endElementNsSplit PROC					; COMDAT

; 28601: 		    const xmlChar * prefix, const xmlChar * URI) {

	push	ebp
	mov	ebp, esp
	push	ecx
	push	esi
	mov	DWORD PTR [ebp-4], -858993460		; ccccccccH
	mov	ecx, OFFSET __7C094509_xmlschemas@c
	call	@__CheckForDebuggerJustMyCode@4

; 28602:     xmlSchemaSAXPlugPtr ctxt = (xmlSchemaSAXPlugPtr) ctx;

	mov	eax, DWORD PTR _ctx$[ebp]
	mov	DWORD PTR _ctxt$[ebp], eax

; 28603:     if (ctxt == NULL)

	cmp	DWORD PTR _ctxt$[ebp], 0
	jne	SHORT $LN2@endElement

; 28604:         return;

	jmp	SHORT $LN1@endElement
$LN2@endElement:

; 28605:     if ((ctxt->user_sax != NULL) &&

	mov	ecx, DWORD PTR _ctxt$[ebp]
	cmp	DWORD PTR [ecx+8], 0
	je	SHORT $LN3@endElement
	mov	edx, DWORD PTR _ctxt$[ebp]
	mov	eax, DWORD PTR [edx+8]
	cmp	DWORD PTR [eax+120], 0
	je	SHORT $LN3@endElement

; 28606:         (ctxt->user_sax->endElementNs != NULL))
; 28607: 	ctxt->user_sax->endElementNs(ctxt->user_data, localname, prefix, URI);

	mov	esi, esp
	mov	ecx, DWORD PTR _URI$[ebp]
	push	ecx
	mov	edx, DWORD PTR _prefix$[ebp]
	push	edx
	mov	eax, DWORD PTR _localname$[ebp]
	push	eax
	mov	ecx, DWORD PTR _ctxt$[ebp]
	mov	edx, DWORD PTR [ecx+16]
	push	edx
	mov	eax, DWORD PTR _ctxt$[ebp]
	mov	ecx, DWORD PTR [eax+8]
	mov	edx, DWORD PTR [ecx+120]
	call	edx
	add	esp, 16					; 00000010H
	cmp	esi, esp
	call	__RTC_CheckEsp
$LN3@endElement:

; 28608:     if (ctxt->ctxt != NULL)

	mov	eax, DWORD PTR _ctxt$[ebp]
	cmp	DWORD PTR [eax+148], 0
	je	SHORT $LN1@endElement

; 28609: 	xmlSchemaSAXHandleEndElementNs(ctxt->ctxt, localname, prefix, URI);

	mov	ecx, DWORD PTR _URI$[ebp]
	push	ecx
	mov	edx, DWORD PTR _prefix$[ebp]
	push	edx
	mov	eax, DWORD PTR _localname$[ebp]
	push	eax
	mov	ecx, DWORD PTR _ctxt$[ebp]
	mov	edx, DWORD PTR [ecx+148]
	push	edx
	call	_xmlSchemaSAXHandleEndElementNs
	add	esp, 16					; 00000010H
$LN1@endElement:

; 28610: }

	pop	esi
	add	esp, 4
	cmp	ebp, esp
	call	__RTC_CheckEsp
	mov	esp, ebp
	pop	ebp
	ret	0
_endElementNsSplit ENDP
_TEXT	ENDS
; Function compile flags: /Odtp /RTCsu
; File c:\users\dag\documents\_clients\codeproject authors group\windows on arm\libxml2\libxml2-2.9.9\xmlschemas.c
;	COMDAT _startElementNsSplit
_TEXT	SEGMENT
_ctxt$ = -4						; size = 4
_ctx$ = 8						; size = 4
_localname$ = 12					; size = 4
_prefix$ = 16						; size = 4
_URI$ = 20						; size = 4
_nb_namespaces$ = 24					; size = 4
_namespaces$ = 28					; size = 4
_nb_attributes$ = 32					; size = 4
_nb_defaulted$ = 36					; size = 4
_attributes$ = 40					; size = 4
_startElementNsSplit PROC				; COMDAT

; 28582: 		    const xmlChar ** attributes) {

	push	ebp
	mov	ebp, esp
	push	ecx
	push	esi
	mov	DWORD PTR [ebp-4], -858993460		; ccccccccH
	mov	ecx, OFFSET __7C094509_xmlschemas@c
	call	@__CheckForDebuggerJustMyCode@4

; 28583:     xmlSchemaSAXPlugPtr ctxt = (xmlSchemaSAXPlugPtr) ctx;

	mov	eax, DWORD PTR _ctx$[ebp]
	mov	DWORD PTR _ctxt$[ebp], eax

; 28584:     if (ctxt == NULL)

	cmp	DWORD PTR _ctxt$[ebp], 0
	jne	SHORT $LN2@startEleme

; 28585:         return;

	jmp	$LN1@startEleme
$LN2@startEleme:

; 28586:     if ((ctxt->user_sax != NULL) &&

	mov	ecx, DWORD PTR _ctxt$[ebp]
	cmp	DWORD PTR [ecx+8], 0
	je	SHORT $LN3@startEleme
	mov	edx, DWORD PTR _ctxt$[ebp]
	mov	eax, DWORD PTR [edx+8]
	cmp	DWORD PTR [eax+116], 0
	je	SHORT $LN3@startEleme

; 28587:         (ctxt->user_sax->startElementNs != NULL))
; 28588: 	ctxt->user_sax->startElementNs(ctxt->user_data, localname, prefix,

	mov	esi, esp
	mov	ecx, DWORD PTR _attributes$[ebp]
	push	ecx
	mov	edx, DWORD PTR _nb_defaulted$[ebp]
	push	edx
	mov	eax, DWORD PTR _nb_attributes$[ebp]
	push	eax
	mov	ecx, DWORD PTR _namespaces$[ebp]
	push	ecx
	mov	edx, DWORD PTR _nb_namespaces$[ebp]
	push	edx
	mov	eax, DWORD PTR _URI$[ebp]
	push	eax
	mov	ecx, DWORD PTR _prefix$[ebp]
	push	ecx
	mov	edx, DWORD PTR _localname$[ebp]
	push	edx
	mov	eax, DWORD PTR _ctxt$[ebp]
	mov	ecx, DWORD PTR [eax+16]
	push	ecx
	mov	edx, DWORD PTR _ctxt$[ebp]
	mov	eax, DWORD PTR [edx+8]
	mov	ecx, DWORD PTR [eax+116]
	call	ecx
	add	esp, 36					; 00000024H
	cmp	esi, esp
	call	__RTC_CheckEsp
$LN3@startEleme:

; 28589: 	                               URI, nb_namespaces, namespaces,
; 28590: 				       nb_attributes, nb_defaulted,
; 28591: 				       attributes);
; 28592:     if (ctxt->ctxt != NULL)

	mov	edx, DWORD PTR _ctxt$[ebp]
	cmp	DWORD PTR [edx+148], 0
	je	SHORT $LN1@startEleme

; 28593: 	xmlSchemaSAXHandleStartElementNs(ctxt->ctxt, localname, prefix,

	mov	eax, DWORD PTR _attributes$[ebp]
	push	eax
	mov	ecx, DWORD PTR _nb_defaulted$[ebp]
	push	ecx
	mov	edx, DWORD PTR _nb_attributes$[ebp]
	push	edx
	mov	eax, DWORD PTR _namespaces$[ebp]
	push	eax
	mov	ecx, DWORD PTR _nb_namespaces$[ebp]
	push	ecx
	mov	edx, DWORD PTR _URI$[ebp]
	push	edx
	mov	eax, DWORD PTR _prefix$[ebp]
	push	eax
	mov	ecx, DWORD PTR _localname$[ebp]
	push	ecx
	mov	edx, DWORD PTR _ctxt$[ebp]
	mov	eax, DWORD PTR [edx+148]
	push	eax
	call	_xmlSchemaSAXHandleStartElementNs
	add	esp, 36					; 00000024H
$LN1@startEleme:

; 28594: 	                                 URI, nb_namespaces, namespaces,
; 28595: 					 nb_attributes, nb_defaulted,
; 28596: 					 attributes);
; 28597: }

	pop	esi
	add	esp, 4
	cmp	ebp, esp
	call	__RTC_CheckEsp
	mov	esp, ebp
	pop	ebp
	ret	0
_startElementNsSplit ENDP
_TEXT	ENDS
; Function compile flags: /Odtp /RTCsu
; File c:\users\dag\documents\_clients\codeproject authors group\windows on arm\libxml2\libxml2-2.9.9\xmlschemas.c
;	COMDAT _referenceSplit
_TEXT	SEGMENT
_ctxt$ = -4						; size = 4
_ctx$ = 8						; size = 4
_name$ = 12						; size = 4
_referenceSplit PROC					; COMDAT

; 28566: {

	push	ebp
	mov	ebp, esp
	push	ecx
	push	esi
	mov	DWORD PTR [ebp-4], -858993460		; ccccccccH
	mov	ecx, OFFSET __7C094509_xmlschemas@c
	call	@__CheckForDebuggerJustMyCode@4

; 28567:     xmlSchemaSAXPlugPtr ctxt = (xmlSchemaSAXPlugPtr) ctx;

	mov	eax, DWORD PTR _ctx$[ebp]
	mov	DWORD PTR _ctxt$[ebp], eax

; 28568:     if (ctxt == NULL)

	cmp	DWORD PTR _ctxt$[ebp], 0
	jne	SHORT $LN2@referenceS

; 28569:         return;

	jmp	SHORT $LN1@referenceS
$LN2@referenceS:

; 28570:     if ((ctxt != NULL) && (ctxt->user_sax != NULL) &&

	cmp	DWORD PTR _ctxt$[ebp], 0
	je	SHORT $LN3@referenceS
	mov	ecx, DWORD PTR _ctxt$[ebp]
	cmp	DWORD PTR [ecx+8], 0
	je	SHORT $LN3@referenceS
	mov	edx, DWORD PTR _ctxt$[ebp]
	mov	eax, DWORD PTR [edx+8]
	cmp	DWORD PTR [eax+64], 0
	je	SHORT $LN3@referenceS

; 28571:         (ctxt->user_sax->reference != NULL))
; 28572: 	ctxt->user_sax->reference(ctxt->user_data, name);

	mov	esi, esp
	mov	ecx, DWORD PTR _name$[ebp]
	push	ecx
	mov	edx, DWORD PTR _ctxt$[ebp]
	mov	eax, DWORD PTR [edx+16]
	push	eax
	mov	ecx, DWORD PTR _ctxt$[ebp]
	mov	edx, DWORD PTR [ecx+8]
	mov	eax, DWORD PTR [edx+64]
	call	eax
	add	esp, 8
	cmp	esi, esp
	call	__RTC_CheckEsp
$LN3@referenceS:

; 28573:     if (ctxt->ctxt != NULL)

	mov	ecx, DWORD PTR _ctxt$[ebp]
	cmp	DWORD PTR [ecx+148], 0
	je	SHORT $LN1@referenceS

; 28574:         xmlSchemaSAXHandleReference(ctxt->user_data, name);

	mov	edx, DWORD PTR _name$[ebp]
	push	edx
	mov	eax, DWORD PTR _ctxt$[ebp]
	mov	ecx, DWORD PTR [eax+16]
	push	ecx
	call	_xmlSchemaSAXHandleReference
	add	esp, 8
$LN1@referenceS:

; 28575: }

	pop	esi
	add	esp, 4
	cmp	ebp, esp
	call	__RTC_CheckEsp
	mov	esp, ebp
	pop	ebp
	ret	0
_referenceSplit ENDP
_TEXT	ENDS
; Function compile flags: /Odtp /RTCsu
; File c:\users\dag\documents\_clients\codeproject authors group\windows on arm\libxml2\libxml2-2.9.9\xmlschemas.c
;	COMDAT _cdataBlockSplit
_TEXT	SEGMENT
_ctxt$ = -4						; size = 4
_ctx$ = 8						; size = 4
_value$ = 12						; size = 4
_len$ = 16						; size = 4
_cdataBlockSplit PROC					; COMDAT

; 28553: {

	push	ebp
	mov	ebp, esp
	push	ecx
	push	esi
	mov	DWORD PTR [ebp-4], -858993460		; ccccccccH
	mov	ecx, OFFSET __7C094509_xmlschemas@c
	call	@__CheckForDebuggerJustMyCode@4

; 28554:     xmlSchemaSAXPlugPtr ctxt = (xmlSchemaSAXPlugPtr) ctx;

	mov	eax, DWORD PTR _ctx$[ebp]
	mov	DWORD PTR _ctxt$[ebp], eax

; 28555:     if (ctxt == NULL)

	cmp	DWORD PTR _ctxt$[ebp], 0
	jne	SHORT $LN2@cdataBlock

; 28556:         return;

	jmp	SHORT $LN1@cdataBlock
$LN2@cdataBlock:

; 28557:     if ((ctxt->user_sax != NULL) &&

	mov	ecx, DWORD PTR _ctxt$[ebp]
	cmp	DWORD PTR [ecx+8], 0
	je	SHORT $LN3@cdataBlock
	mov	edx, DWORD PTR _ctxt$[ebp]
	mov	eax, DWORD PTR [edx+8]
	cmp	DWORD PTR [eax+100], 0
	je	SHORT $LN3@cdataBlock

; 28558:         (ctxt->user_sax->cdataBlock != NULL))
; 28559: 	ctxt->user_sax->cdataBlock(ctxt->user_data, value, len);

	mov	esi, esp
	mov	ecx, DWORD PTR _len$[ebp]
	push	ecx
	mov	edx, DWORD PTR _value$[ebp]
	push	edx
	mov	eax, DWORD PTR _ctxt$[ebp]
	mov	ecx, DWORD PTR [eax+16]
	push	ecx
	mov	edx, DWORD PTR _ctxt$[ebp]
	mov	eax, DWORD PTR [edx+8]
	mov	ecx, DWORD PTR [eax+100]
	call	ecx
	add	esp, 12					; 0000000cH
	cmp	esi, esp
	call	__RTC_CheckEsp
$LN3@cdataBlock:

; 28560:     if (ctxt->ctxt != NULL)

	mov	edx, DWORD PTR _ctxt$[ebp]
	cmp	DWORD PTR [edx+148], 0
	je	SHORT $LN1@cdataBlock

; 28561: 	xmlSchemaSAXHandleCDataSection(ctxt->ctxt, value, len);

	mov	eax, DWORD PTR _len$[ebp]
	push	eax
	mov	ecx, DWORD PTR _value$[ebp]
	push	ecx
	mov	edx, DWORD PTR _ctxt$[ebp]
	mov	eax, DWORD PTR [edx+148]
	push	eax
	call	_xmlSchemaSAXHandleCDataSection
	add	esp, 12					; 0000000cH
$LN1@cdataBlock:

; 28562: }

	pop	esi
	add	esp, 4
	cmp	ebp, esp
	call	__RTC_CheckEsp
	mov	esp, ebp
	pop	ebp
	ret	0
_cdataBlockSplit ENDP
_TEXT	ENDS
; Function compile flags: /Odtp /RTCsu
; File c:\users\dag\documents\_clients\codeproject authors group\windows on arm\libxml2\libxml2-2.9.9\xmlschemas.c
;	COMDAT _ignorableWhitespaceSplit
_TEXT	SEGMENT
_ctxt$ = -4						; size = 4
_ctx$ = 8						; size = 4
_ch$ = 12						; size = 4
_len$ = 16						; size = 4
_ignorableWhitespaceSplit PROC				; COMDAT

; 28540: {

	push	ebp
	mov	ebp, esp
	push	ecx
	push	esi
	mov	DWORD PTR [ebp-4], -858993460		; ccccccccH
	mov	ecx, OFFSET __7C094509_xmlschemas@c
	call	@__CheckForDebuggerJustMyCode@4

; 28541:     xmlSchemaSAXPlugPtr ctxt = (xmlSchemaSAXPlugPtr) ctx;

	mov	eax, DWORD PTR _ctx$[ebp]
	mov	DWORD PTR _ctxt$[ebp], eax

; 28542:     if (ctxt == NULL)

	cmp	DWORD PTR _ctxt$[ebp], 0
	jne	SHORT $LN2@ignorableW

; 28543:         return;

	jmp	SHORT $LN1@ignorableW
$LN2@ignorableW:

; 28544:     if ((ctxt->user_sax != NULL) &&

	mov	ecx, DWORD PTR _ctxt$[ebp]
	cmp	DWORD PTR [ecx+8], 0
	je	SHORT $LN3@ignorableW
	mov	edx, DWORD PTR _ctxt$[ebp]
	mov	eax, DWORD PTR [edx+8]
	cmp	DWORD PTR [eax+72], 0
	je	SHORT $LN3@ignorableW

; 28545:         (ctxt->user_sax->ignorableWhitespace != NULL))
; 28546: 	ctxt->user_sax->ignorableWhitespace(ctxt->user_data, ch, len);

	mov	esi, esp
	mov	ecx, DWORD PTR _len$[ebp]
	push	ecx
	mov	edx, DWORD PTR _ch$[ebp]
	push	edx
	mov	eax, DWORD PTR _ctxt$[ebp]
	mov	ecx, DWORD PTR [eax+16]
	push	ecx
	mov	edx, DWORD PTR _ctxt$[ebp]
	mov	eax, DWORD PTR [edx+8]
	mov	ecx, DWORD PTR [eax+72]
	call	ecx
	add	esp, 12					; 0000000cH
	cmp	esi, esp
	call	__RTC_CheckEsp
$LN3@ignorableW:

; 28547:     if (ctxt->ctxt != NULL)

	mov	edx, DWORD PTR _ctxt$[ebp]
	cmp	DWORD PTR [edx+148], 0
	je	SHORT $LN1@ignorableW

; 28548: 	xmlSchemaSAXHandleText(ctxt->ctxt, ch, len);

	mov	eax, DWORD PTR _len$[ebp]
	push	eax
	mov	ecx, DWORD PTR _ch$[ebp]
	push	ecx
	mov	edx, DWORD PTR _ctxt$[ebp]
	mov	eax, DWORD PTR [edx+148]
	push	eax
	call	_xmlSchemaSAXHandleText
	add	esp, 12					; 0000000cH
$LN1@ignorableW:

; 28549: }

	pop	esi
	add	esp, 4
	cmp	ebp, esp
	call	__RTC_CheckEsp
	mov	esp, ebp
	pop	ebp
	ret	0
_ignorableWhitespaceSplit ENDP
_TEXT	ENDS
; Function compile flags: /Odtp /RTCsu
; File c:\users\dag\documents\_clients\codeproject authors group\windows on arm\libxml2\libxml2-2.9.9\xmlschemas.c
;	COMDAT _charactersSplit
_TEXT	SEGMENT
_ctxt$ = -4						; size = 4
_ctx$ = 8						; size = 4
_ch$ = 12						; size = 4
_len$ = 16						; size = 4
_charactersSplit PROC					; COMDAT

; 28528: {

	push	ebp
	mov	ebp, esp
	push	ecx
	push	esi
	mov	DWORD PTR [ebp-4], -858993460		; ccccccccH
	mov	ecx, OFFSET __7C094509_xmlschemas@c
	call	@__CheckForDebuggerJustMyCode@4

; 28529:     xmlSchemaSAXPlugPtr ctxt = (xmlSchemaSAXPlugPtr) ctx;

	mov	eax, DWORD PTR _ctx$[ebp]
	mov	DWORD PTR _ctxt$[ebp], eax

; 28530:     if (ctxt == NULL)

	cmp	DWORD PTR _ctxt$[ebp], 0
	jne	SHORT $LN2@characters

; 28531:         return;

	jmp	SHORT $LN1@characters
$LN2@characters:

; 28532:     if ((ctxt->user_sax != NULL) && (ctxt->user_sax->characters != NULL))

	mov	ecx, DWORD PTR _ctxt$[ebp]
	cmp	DWORD PTR [ecx+8], 0
	je	SHORT $LN3@characters
	mov	edx, DWORD PTR _ctxt$[ebp]
	mov	eax, DWORD PTR [edx+8]
	cmp	DWORD PTR [eax+68], 0
	je	SHORT $LN3@characters

; 28533: 	ctxt->user_sax->characters(ctxt->user_data, ch, len);

	mov	esi, esp
	mov	ecx, DWORD PTR _len$[ebp]
	push	ecx
	mov	edx, DWORD PTR _ch$[ebp]
	push	edx
	mov	eax, DWORD PTR _ctxt$[ebp]
	mov	ecx, DWORD PTR [eax+16]
	push	ecx
	mov	edx, DWORD PTR _ctxt$[ebp]
	mov	eax, DWORD PTR [edx+8]
	mov	ecx, DWORD PTR [eax+68]
	call	ecx
	add	esp, 12					; 0000000cH
	cmp	esi, esp
	call	__RTC_CheckEsp
$LN3@characters:

; 28534:     if (ctxt->ctxt != NULL)

	mov	edx, DWORD PTR _ctxt$[ebp]
	cmp	DWORD PTR [edx+148], 0
	je	SHORT $LN1@characters

; 28535: 	xmlSchemaSAXHandleText(ctxt->ctxt, ch, len);

	mov	eax, DWORD PTR _len$[ebp]
	push	eax
	mov	ecx, DWORD PTR _ch$[ebp]
	push	ecx
	mov	edx, DWORD PTR _ctxt$[ebp]
	mov	eax, DWORD PTR [edx+148]
	push	eax
	call	_xmlSchemaSAXHandleText
	add	esp, 12					; 0000000cH
$LN1@characters:

; 28536: }

	pop	esi
	add	esp, 4
	cmp	ebp, esp
	call	__RTC_CheckEsp
	mov	esp, ebp
	pop	ebp
	ret	0
_charactersSplit ENDP
_TEXT	ENDS
; Function compile flags: /Odtp /RTCsu
; File c:\users\dag\documents\_clients\codeproject authors group\windows on arm\libxml2\libxml2-2.9.9\xmlschemas.c
;	COMDAT _fatalErrorSplit
_TEXT	SEGMENT
_ctxt$ = -4						; size = 4
_ctx$ = 8						; size = 4
_msg$ = 12						; size = 4
_fatalErrorSplit PROC					; COMDAT

; 28514: fatalErrorSplit(void *ctx, const char *msg ATTRIBUTE_UNUSED, ...) {

	push	ebp
	mov	ebp, esp
	push	ecx
	push	esi
	mov	DWORD PTR [ebp-4], -858993460		; ccccccccH
	mov	ecx, OFFSET __7C094509_xmlschemas@c
	call	@__CheckForDebuggerJustMyCode@4

; 28515:     xmlSchemaSAXPlugPtr ctxt = (xmlSchemaSAXPlugPtr) ctx;

	mov	eax, DWORD PTR _ctx$[ebp]
	mov	DWORD PTR _ctxt$[ebp], eax

; 28516:     if ((ctxt != NULL) && (ctxt->user_sax != NULL) &&

	cmp	DWORD PTR _ctxt$[ebp], 0
	je	SHORT $LN1@fatalError
	mov	ecx, DWORD PTR _ctxt$[ebp]
	cmp	DWORD PTR [ecx+8], 0
	je	SHORT $LN1@fatalError
	mov	edx, DWORD PTR _ctxt$[ebp]
	mov	eax, DWORD PTR [edx+8]
	cmp	DWORD PTR [eax+92], 0
	je	SHORT $LN1@fatalError

; 28517:         (ctxt->user_sax->fatalError != NULL)) {
; 28518: 	TODO

	mov	esi, esp
	push	28518					; 00006f66H
	push	OFFSET ??_C@_0GM@IJCDLDON@c?3?2users?2dag?2documents?2_clients@
	push	OFFSET ??_C@_0BO@MDEMDPPE@Unimplemented?5block?5at?5?$CFs?3?$CFd?6@
	call	___xmlGenericErrorContext
	mov	ecx, DWORD PTR [eax]
	push	ecx
	call	___xmlGenericError
	mov	edx, DWORD PTR [eax]
	call	edx
	add	esp, 16					; 00000010H
	cmp	esi, esp
	call	__RTC_CheckEsp
$LN1@fatalError:

; 28519:     }
; 28520: }

	pop	esi
	add	esp, 4
	cmp	ebp, esp
	call	__RTC_CheckEsp
	mov	esp, ebp
	pop	ebp
	ret	0
_fatalErrorSplit ENDP
_TEXT	ENDS
; Function compile flags: /Odtp /RTCsu
; File c:\users\dag\documents\_clients\codeproject authors group\windows on arm\libxml2\libxml2-2.9.9\xmlschemas.c
;	COMDAT _errorSplit
_TEXT	SEGMENT
_ctxt$ = -4						; size = 4
_ctx$ = 8						; size = 4
_msg$ = 12						; size = 4
_errorSplit PROC					; COMDAT

; 28506: errorSplit(void *ctx, const char *msg ATTRIBUTE_UNUSED, ...) {

	push	ebp
	mov	ebp, esp
	push	ecx
	push	esi
	mov	DWORD PTR [ebp-4], -858993460		; ccccccccH
	mov	ecx, OFFSET __7C094509_xmlschemas@c
	call	@__CheckForDebuggerJustMyCode@4

; 28507:     xmlSchemaSAXPlugPtr ctxt = (xmlSchemaSAXPlugPtr) ctx;

	mov	eax, DWORD PTR _ctx$[ebp]
	mov	DWORD PTR _ctxt$[ebp], eax

; 28508:     if ((ctxt != NULL) && (ctxt->user_sax != NULL) &&

	cmp	DWORD PTR _ctxt$[ebp], 0
	je	SHORT $LN1@errorSplit
	mov	ecx, DWORD PTR _ctxt$[ebp]
	cmp	DWORD PTR [ecx+8], 0
	je	SHORT $LN1@errorSplit
	mov	edx, DWORD PTR _ctxt$[ebp]
	mov	eax, DWORD PTR [edx+8]
	cmp	DWORD PTR [eax+88], 0
	je	SHORT $LN1@errorSplit

; 28509:         (ctxt->user_sax->error != NULL)) {
; 28510: 	TODO

	mov	esi, esp
	push	28510					; 00006f5eH
	push	OFFSET ??_C@_0GM@IJCDLDON@c?3?2users?2dag?2documents?2_clients@
	push	OFFSET ??_C@_0BO@MDEMDPPE@Unimplemented?5block?5at?5?$CFs?3?$CFd?6@
	call	___xmlGenericErrorContext
	mov	ecx, DWORD PTR [eax]
	push	ecx
	call	___xmlGenericError
	mov	edx, DWORD PTR [eax]
	call	edx
	add	esp, 16					; 00000010H
	cmp	esi, esp
	call	__RTC_CheckEsp
$LN1@errorSplit:

; 28511:     }
; 28512: }

	pop	esi
	add	esp, 4
	cmp	ebp, esp
	call	__RTC_CheckEsp
	mov	esp, ebp
	pop	ebp
	ret	0
_errorSplit ENDP
_TEXT	ENDS
; Function compile flags: /Odtp /RTCsu
; File c:\users\dag\documents\_clients\codeproject authors group\windows on arm\libxml2\libxml2-2.9.9\xmlschemas.c
;	COMDAT _warningSplit
_TEXT	SEGMENT
_ctxt$ = -4						; size = 4
_ctx$ = 8						; size = 4
_msg$ = 12						; size = 4
_warningSplit PROC					; COMDAT

; 28498: warningSplit(void *ctx, const char *msg ATTRIBUTE_UNUSED, ...) {

	push	ebp
	mov	ebp, esp
	push	ecx
	push	esi
	mov	DWORD PTR [ebp-4], -858993460		; ccccccccH
	mov	ecx, OFFSET __7C094509_xmlschemas@c
	call	@__CheckForDebuggerJustMyCode@4

; 28499:     xmlSchemaSAXPlugPtr ctxt = (xmlSchemaSAXPlugPtr) ctx;

	mov	eax, DWORD PTR _ctx$[ebp]
	mov	DWORD PTR _ctxt$[ebp], eax

; 28500:     if ((ctxt != NULL) && (ctxt->user_sax != NULL) &&

	cmp	DWORD PTR _ctxt$[ebp], 0
	je	SHORT $LN1@warningSpl
	mov	ecx, DWORD PTR _ctxt$[ebp]
	cmp	DWORD PTR [ecx+8], 0
	je	SHORT $LN1@warningSpl
	mov	edx, DWORD PTR _ctxt$[ebp]
	mov	eax, DWORD PTR [edx+8]
	cmp	DWORD PTR [eax+84], 0
	je	SHORT $LN1@warningSpl

; 28501:         (ctxt->user_sax->warning != NULL)) {
; 28502: 	TODO

	mov	esi, esp
	push	28502					; 00006f56H
	push	OFFSET ??_C@_0GM@IJCDLDON@c?3?2users?2dag?2documents?2_clients@
	push	OFFSET ??_C@_0BO@MDEMDPPE@Unimplemented?5block?5at?5?$CFs?3?$CFd?6@
	call	___xmlGenericErrorContext
	mov	ecx, DWORD PTR [eax]
	push	ecx
	call	___xmlGenericError
	mov	edx, DWORD PTR [eax]
	call	edx
	add	esp, 16					; 00000010H
	cmp	esi, esp
	call	__RTC_CheckEsp
$LN1@warningSpl:

; 28503:     }
; 28504: }

	pop	esi
	add	esp, 4
	cmp	ebp, esp
	call	__RTC_CheckEsp
	mov	esp, ebp
	pop	ebp
	ret	0
_warningSplit ENDP
_TEXT	ENDS
; Function compile flags: /Odtp /RTCsu
; File c:\users\dag\documents\_clients\codeproject authors group\windows on arm\libxml2\libxml2-2.9.9\xmlschemas.c
;	COMDAT _commentSplit
_TEXT	SEGMENT
_ctxt$ = -4						; size = 4
_ctx$ = 8						; size = 4
_value$ = 12						; size = 4
_commentSplit PROC					; COMDAT

; 28486: {

	push	ebp
	mov	ebp, esp
	push	ecx
	push	esi
	mov	DWORD PTR [ebp-4], -858993460		; ccccccccH
	mov	ecx, OFFSET __7C094509_xmlschemas@c
	call	@__CheckForDebuggerJustMyCode@4

; 28487:     xmlSchemaSAXPlugPtr ctxt = (xmlSchemaSAXPlugPtr) ctx;

	mov	eax, DWORD PTR _ctx$[ebp]
	mov	DWORD PTR _ctxt$[ebp], eax

; 28488:     if ((ctxt != NULL) && (ctxt->user_sax != NULL) &&

	cmp	DWORD PTR _ctxt$[ebp], 0
	je	SHORT $LN1@commentSpl
	mov	ecx, DWORD PTR _ctxt$[ebp]
	cmp	DWORD PTR [ecx+8], 0
	je	SHORT $LN1@commentSpl
	mov	edx, DWORD PTR _ctxt$[ebp]
	mov	eax, DWORD PTR [edx+8]
	cmp	DWORD PTR [eax+80], 0
	je	SHORT $LN1@commentSpl

; 28489:         (ctxt->user_sax->comment != NULL))
; 28490: 	ctxt->user_sax->comment(ctxt->user_data, value);

	mov	esi, esp
	mov	ecx, DWORD PTR _value$[ebp]
	push	ecx
	mov	edx, DWORD PTR _ctxt$[ebp]
	mov	eax, DWORD PTR [edx+16]
	push	eax
	mov	ecx, DWORD PTR _ctxt$[ebp]
	mov	edx, DWORD PTR [ecx+8]
	mov	eax, DWORD PTR [edx+80]
	call	eax
	add	esp, 8
	cmp	esi, esp
	call	__RTC_CheckEsp
$LN1@commentSpl:

; 28491: }

	pop	esi
	add	esp, 4
	cmp	ebp, esp
	call	__RTC_CheckEsp
	mov	esp, ebp
	pop	ebp
	ret	0
_commentSplit ENDP
_TEXT	ENDS
; Function compile flags: /Odtp /RTCsu
; File c:\users\dag\documents\_clients\codeproject authors group\windows on arm\libxml2\libxml2-2.9.9\xmlschemas.c
;	COMDAT _processingInstructionSplit
_TEXT	SEGMENT
_ctxt$ = -4						; size = 4
_ctx$ = 8						; size = 4
_target$ = 12						; size = 4
_data$ = 16						; size = 4
_processingInstructionSplit PROC			; COMDAT

; 28477: {

	push	ebp
	mov	ebp, esp
	push	ecx
	push	esi
	mov	DWORD PTR [ebp-4], -858993460		; ccccccccH
	mov	ecx, OFFSET __7C094509_xmlschemas@c
	call	@__CheckForDebuggerJustMyCode@4

; 28478:     xmlSchemaSAXPlugPtr ctxt = (xmlSchemaSAXPlugPtr) ctx;

	mov	eax, DWORD PTR _ctx$[ebp]
	mov	DWORD PTR _ctxt$[ebp], eax

; 28479:     if ((ctxt != NULL) && (ctxt->user_sax != NULL) &&

	cmp	DWORD PTR _ctxt$[ebp], 0
	je	SHORT $LN1@processing
	mov	ecx, DWORD PTR _ctxt$[ebp]
	cmp	DWORD PTR [ecx+8], 0
	je	SHORT $LN1@processing
	mov	edx, DWORD PTR _ctxt$[ebp]
	mov	eax, DWORD PTR [edx+8]
	cmp	DWORD PTR [eax+76], 0
	je	SHORT $LN1@processing

; 28480:         (ctxt->user_sax->processingInstruction != NULL))
; 28481: 	ctxt->user_sax->processingInstruction(ctxt->user_data, target, data);

	mov	esi, esp
	mov	ecx, DWORD PTR _data$[ebp]
	push	ecx
	mov	edx, DWORD PTR _target$[ebp]
	push	edx
	mov	eax, DWORD PTR _ctxt$[ebp]
	mov	ecx, DWORD PTR [eax+16]
	push	ecx
	mov	edx, DWORD PTR _ctxt$[ebp]
	mov	eax, DWORD PTR [edx+8]
	mov	ecx, DWORD PTR [eax+76]
	call	ecx
	add	esp, 12					; 0000000cH
	cmp	esi, esp
	call	__RTC_CheckEsp
$LN1@processing:

; 28482: }

	pop	esi
	add	esp, 4
	cmp	ebp, esp
	call	__RTC_CheckEsp
	mov	esp, ebp
	pop	ebp
	ret	0
_processingInstructionSplit ENDP
_TEXT	ENDS
; Function compile flags: /Odtp /RTCsu
; File c:\users\dag\documents\_clients\codeproject authors group\windows on arm\libxml2\libxml2-2.9.9\xmlschemas.c
;	COMDAT _endDocumentSplit
_TEXT	SEGMENT
_ctxt$ = -4						; size = 4
_ctx$ = 8						; size = 4
_endDocumentSplit PROC					; COMDAT

; 28467: {

	push	ebp
	mov	ebp, esp
	push	ecx
	push	esi
	mov	DWORD PTR [ebp-4], -858993460		; ccccccccH
	mov	ecx, OFFSET __7C094509_xmlschemas@c
	call	@__CheckForDebuggerJustMyCode@4

; 28468:     xmlSchemaSAXPlugPtr ctxt = (xmlSchemaSAXPlugPtr) ctx;

	mov	eax, DWORD PTR _ctx$[ebp]
	mov	DWORD PTR _ctxt$[ebp], eax

; 28469:     if ((ctxt != NULL) && (ctxt->user_sax != NULL) &&

	cmp	DWORD PTR _ctxt$[ebp], 0
	je	SHORT $LN1@endDocumen
	mov	ecx, DWORD PTR _ctxt$[ebp]
	cmp	DWORD PTR [ecx+8], 0
	je	SHORT $LN1@endDocumen
	mov	edx, DWORD PTR _ctxt$[ebp]
	mov	eax, DWORD PTR [edx+8]
	cmp	DWORD PTR [eax+52], 0
	je	SHORT $LN1@endDocumen

; 28470:         (ctxt->user_sax->endDocument != NULL))
; 28471: 	ctxt->user_sax->endDocument(ctxt->user_data);

	mov	esi, esp
	mov	ecx, DWORD PTR _ctxt$[ebp]
	mov	edx, DWORD PTR [ecx+16]
	push	edx
	mov	eax, DWORD PTR _ctxt$[ebp]
	mov	ecx, DWORD PTR [eax+8]
	mov	edx, DWORD PTR [ecx+52]
	call	edx
	add	esp, 4
	cmp	esi, esp
	call	__RTC_CheckEsp
$LN1@endDocumen:

; 28472: }

	pop	esi
	add	esp, 4
	cmp	ebp, esp
	call	__RTC_CheckEsp
	mov	esp, ebp
	pop	ebp
	ret	0
_endDocumentSplit ENDP
_TEXT	ENDS
; Function compile flags: /Odtp /RTCsu
; File c:\users\dag\documents\_clients\codeproject authors group\windows on arm\libxml2\libxml2-2.9.9\xmlschemas.c
;	COMDAT _startDocumentSplit
_TEXT	SEGMENT
_ctxt$ = -4						; size = 4
_ctx$ = 8						; size = 4
_startDocumentSplit PROC				; COMDAT

; 28458: {

	push	ebp
	mov	ebp, esp
	push	ecx
	push	esi
	mov	DWORD PTR [ebp-4], -858993460		; ccccccccH
	mov	ecx, OFFSET __7C094509_xmlschemas@c
	call	@__CheckForDebuggerJustMyCode@4

; 28459:     xmlSchemaSAXPlugPtr ctxt = (xmlSchemaSAXPlugPtr) ctx;

	mov	eax, DWORD PTR _ctx$[ebp]
	mov	DWORD PTR _ctxt$[ebp], eax

; 28460:     if ((ctxt != NULL) && (ctxt->user_sax != NULL) &&

	cmp	DWORD PTR _ctxt$[ebp], 0
	je	SHORT $LN1@startDocum
	mov	ecx, DWORD PTR _ctxt$[ebp]
	cmp	DWORD PTR [ecx+8], 0
	je	SHORT $LN1@startDocum
	mov	edx, DWORD PTR _ctxt$[ebp]
	mov	eax, DWORD PTR [edx+8]
	cmp	DWORD PTR [eax+48], 0
	je	SHORT $LN1@startDocum

; 28461:         (ctxt->user_sax->startDocument != NULL))
; 28462: 	ctxt->user_sax->startDocument(ctxt->user_data);

	mov	esi, esp
	mov	ecx, DWORD PTR _ctxt$[ebp]
	mov	edx, DWORD PTR [ecx+16]
	push	edx
	mov	eax, DWORD PTR _ctxt$[ebp]
	mov	ecx, DWORD PTR [eax+8]
	mov	edx, DWORD PTR [ecx+48]
	call	edx
	add	esp, 4
	cmp	esi, esp
	call	__RTC_CheckEsp
$LN1@startDocum:

; 28463: }

	pop	esi
	add	esp, 4
	cmp	ebp, esp
	call	__RTC_CheckEsp
	mov	esp, ebp
	pop	ebp
	ret	0
_startDocumentSplit ENDP
_TEXT	ENDS
; Function compile flags: /Odtp /RTCsu
; File c:\users\dag\documents\_clients\codeproject authors group\windows on arm\libxml2\libxml2-2.9.9\xmlschemas.c
;	COMDAT _setDocumentLocatorSplit
_TEXT	SEGMENT
_ctxt$ = -4						; size = 4
_ctx$ = 8						; size = 4
_loc$ = 12						; size = 4
_setDocumentLocatorSplit PROC				; COMDAT

; 28449: {

	push	ebp
	mov	ebp, esp
	push	ecx
	push	esi
	mov	DWORD PTR [ebp-4], -858993460		; ccccccccH
	mov	ecx, OFFSET __7C094509_xmlschemas@c
	call	@__CheckForDebuggerJustMyCode@4

; 28450:     xmlSchemaSAXPlugPtr ctxt = (xmlSchemaSAXPlugPtr) ctx;

	mov	eax, DWORD PTR _ctx$[ebp]
	mov	DWORD PTR _ctxt$[ebp], eax

; 28451:     if ((ctxt != NULL) && (ctxt->user_sax != NULL) &&

	cmp	DWORD PTR _ctxt$[ebp], 0
	je	SHORT $LN1@setDocumen
	mov	ecx, DWORD PTR _ctxt$[ebp]
	cmp	DWORD PTR [ecx+8], 0
	je	SHORT $LN1@setDocumen
	mov	edx, DWORD PTR _ctxt$[ebp]
	mov	eax, DWORD PTR [edx+8]
	cmp	DWORD PTR [eax+44], 0
	je	SHORT $LN1@setDocumen

; 28452:         (ctxt->user_sax->setDocumentLocator != NULL))
; 28453: 	ctxt->user_sax->setDocumentLocator(ctxt->user_data, loc);

	mov	esi, esp
	mov	ecx, DWORD PTR _loc$[ebp]
	push	ecx
	mov	edx, DWORD PTR _ctxt$[ebp]
	mov	eax, DWORD PTR [edx+16]
	push	eax
	mov	ecx, DWORD PTR _ctxt$[ebp]
	mov	edx, DWORD PTR [ecx+8]
	mov	eax, DWORD PTR [edx+44]
	call	eax
	add	esp, 8
	cmp	esi, esp
	call	__RTC_CheckEsp
$LN1@setDocumen:

; 28454: }

	pop	esi
	add	esp, 4
	cmp	ebp, esp
	call	__RTC_CheckEsp
	mov	esp, ebp
	pop	ebp
	ret	0
_setDocumentLocatorSplit ENDP
_TEXT	ENDS
; Function compile flags: /Odtp /RTCsu
; File c:\users\dag\documents\_clients\codeproject authors group\windows on arm\libxml2\libxml2-2.9.9\xmlschemas.c
;	COMDAT _unparsedEntityDeclSplit
_TEXT	SEGMENT
_ctxt$ = -4						; size = 4
_ctx$ = 8						; size = 4
_name$ = 12						; size = 4
_publicId$ = 16						; size = 4
_systemId$ = 20						; size = 4
_notationName$ = 24					; size = 4
_unparsedEntityDeclSplit PROC				; COMDAT

; 28439: {

	push	ebp
	mov	ebp, esp
	push	ecx
	push	esi
	mov	DWORD PTR [ebp-4], -858993460		; ccccccccH
	mov	ecx, OFFSET __7C094509_xmlschemas@c
	call	@__CheckForDebuggerJustMyCode@4

; 28440:     xmlSchemaSAXPlugPtr ctxt = (xmlSchemaSAXPlugPtr) ctx;

	mov	eax, DWORD PTR _ctx$[ebp]
	mov	DWORD PTR _ctxt$[ebp], eax

; 28441:     if ((ctxt != NULL) && (ctxt->user_sax != NULL) &&

	cmp	DWORD PTR _ctxt$[ebp], 0
	je	SHORT $LN1@unparsedEn
	mov	ecx, DWORD PTR _ctxt$[ebp]
	cmp	DWORD PTR [ecx+8], 0
	je	SHORT $LN1@unparsedEn
	mov	edx, DWORD PTR _ctxt$[ebp]
	mov	eax, DWORD PTR [edx+8]
	cmp	DWORD PTR [eax+40], 0
	je	SHORT $LN1@unparsedEn

; 28442:         (ctxt->user_sax->unparsedEntityDecl != NULL))
; 28443: 	ctxt->user_sax->unparsedEntityDecl(ctxt->user_data, name, publicId,

	mov	esi, esp
	mov	ecx, DWORD PTR _notationName$[ebp]
	push	ecx
	mov	edx, DWORD PTR _systemId$[ebp]
	push	edx
	mov	eax, DWORD PTR _publicId$[ebp]
	push	eax
	mov	ecx, DWORD PTR _name$[ebp]
	push	ecx
	mov	edx, DWORD PTR _ctxt$[ebp]
	mov	eax, DWORD PTR [edx+16]
	push	eax
	mov	ecx, DWORD PTR _ctxt$[ebp]
	mov	edx, DWORD PTR [ecx+8]
	mov	eax, DWORD PTR [edx+40]
	call	eax
	add	esp, 20					; 00000014H
	cmp	esi, esp
	call	__RTC_CheckEsp
$LN1@unparsedEn:

; 28444: 	                                   systemId, notationName);
; 28445: }

	pop	esi
	add	esp, 4
	cmp	ebp, esp
	call	__RTC_CheckEsp
	mov	esp, ebp
	pop	ebp
	ret	0
_unparsedEntityDeclSplit ENDP
_TEXT	ENDS
; Function compile flags: /Odtp /RTCsu
; File c:\users\dag\documents\_clients\codeproject authors group\windows on arm\libxml2\libxml2-2.9.9\xmlschemas.c
;	COMDAT _notationDeclSplit
_TEXT	SEGMENT
_ctxt$ = -4						; size = 4
_ctx$ = 8						; size = 4
_name$ = 12						; size = 4
_publicId$ = 16						; size = 4
_systemId$ = 20						; size = 4
_notationDeclSplit PROC					; COMDAT

; 28427: {

	push	ebp
	mov	ebp, esp
	push	ecx
	push	esi
	mov	DWORD PTR [ebp-4], -858993460		; ccccccccH
	mov	ecx, OFFSET __7C094509_xmlschemas@c
	call	@__CheckForDebuggerJustMyCode@4

; 28428:     xmlSchemaSAXPlugPtr ctxt = (xmlSchemaSAXPlugPtr) ctx;

	mov	eax, DWORD PTR _ctx$[ebp]
	mov	DWORD PTR _ctxt$[ebp], eax

; 28429:     if ((ctxt != NULL) && (ctxt->user_sax != NULL) &&

	cmp	DWORD PTR _ctxt$[ebp], 0
	je	SHORT $LN1@notationDe
	mov	ecx, DWORD PTR _ctxt$[ebp]
	cmp	DWORD PTR [ecx+8], 0
	je	SHORT $LN1@notationDe
	mov	edx, DWORD PTR _ctxt$[ebp]
	mov	eax, DWORD PTR [edx+8]
	cmp	DWORD PTR [eax+28], 0
	je	SHORT $LN1@notationDe

; 28430:         (ctxt->user_sax->notationDecl != NULL))
; 28431: 	ctxt->user_sax->notationDecl(ctxt->user_data, name, publicId,

	mov	esi, esp
	mov	ecx, DWORD PTR _systemId$[ebp]
	push	ecx
	mov	edx, DWORD PTR _publicId$[ebp]
	push	edx
	mov	eax, DWORD PTR _name$[ebp]
	push	eax
	mov	ecx, DWORD PTR _ctxt$[ebp]
	mov	edx, DWORD PTR [ecx+16]
	push	edx
	mov	eax, DWORD PTR _ctxt$[ebp]
	mov	ecx, DWORD PTR [eax+8]
	mov	edx, DWORD PTR [ecx+28]
	call	edx
	add	esp, 16					; 00000010H
	cmp	esi, esp
	call	__RTC_CheckEsp
$LN1@notationDe:

; 28432: 	                             systemId);
; 28433: }

	pop	esi
	add	esp, 4
	cmp	ebp, esp
	call	__RTC_CheckEsp
	mov	esp, ebp
	pop	ebp
	ret	0
_notationDeclSplit ENDP
_TEXT	ENDS
; Function compile flags: /Odtp /RTCsu
; File c:\users\dag\documents\_clients\codeproject authors group\windows on arm\libxml2\libxml2-2.9.9\xmlschemas.c
;	COMDAT _elementDeclSplit
_TEXT	SEGMENT
_ctxt$ = -4						; size = 4
_ctx$ = 8						; size = 4
_name$ = 12						; size = 4
_type$ = 16						; size = 4
_content$ = 20						; size = 4
_elementDeclSplit PROC					; COMDAT

; 28417: {

	push	ebp
	mov	ebp, esp
	push	ecx
	push	esi
	mov	DWORD PTR [ebp-4], -858993460		; ccccccccH
	mov	ecx, OFFSET __7C094509_xmlschemas@c
	call	@__CheckForDebuggerJustMyCode@4

; 28418:     xmlSchemaSAXPlugPtr ctxt = (xmlSchemaSAXPlugPtr) ctx;

	mov	eax, DWORD PTR _ctx$[ebp]
	mov	DWORD PTR _ctxt$[ebp], eax

; 28419:     if ((ctxt != NULL) && (ctxt->user_sax != NULL) &&

	cmp	DWORD PTR _ctxt$[ebp], 0
	je	SHORT $LN1@elementDec
	mov	ecx, DWORD PTR _ctxt$[ebp]
	cmp	DWORD PTR [ecx+8], 0
	je	SHORT $LN1@elementDec
	mov	edx, DWORD PTR _ctxt$[ebp]
	mov	eax, DWORD PTR [edx+8]
	cmp	DWORD PTR [eax+36], 0
	je	SHORT $LN1@elementDec

; 28420:         (ctxt->user_sax->elementDecl != NULL))
; 28421: 	ctxt->user_sax->elementDecl(ctxt->user_data, name, type, content);

	mov	esi, esp
	mov	ecx, DWORD PTR _content$[ebp]
	push	ecx
	mov	edx, DWORD PTR _type$[ebp]
	push	edx
	mov	eax, DWORD PTR _name$[ebp]
	push	eax
	mov	ecx, DWORD PTR _ctxt$[ebp]
	mov	edx, DWORD PTR [ecx+16]
	push	edx
	mov	eax, DWORD PTR _ctxt$[ebp]
	mov	ecx, DWORD PTR [eax+8]
	mov	edx, DWORD PTR [ecx+36]
	call	edx
	add	esp, 16					; 00000010H
	cmp	esi, esp
	call	__RTC_CheckEsp
$LN1@elementDec:

; 28422: }

	pop	esi
	add	esp, 4
	cmp	ebp, esp
	call	__RTC_CheckEsp
	mov	esp, ebp
	pop	ebp
	ret	0
_elementDeclSplit ENDP
_TEXT	ENDS
; Function compile flags: /Odtp /RTCsu
; File c:\users\dag\documents\_clients\codeproject authors group\windows on arm\libxml2\libxml2-2.9.9\xmlschemas.c
;	COMDAT _attributeDeclSplit
_TEXT	SEGMENT
_ctxt$ = -4						; size = 4
_ctx$ = 8						; size = 4
_elem$ = 12						; size = 4
_name$ = 16						; size = 4
_type$ = 20						; size = 4
_def$ = 24						; size = 4
_defaultValue$ = 28					; size = 4
_tree$ = 32						; size = 4
_attributeDeclSplit PROC				; COMDAT

; 28403: {

	push	ebp
	mov	ebp, esp
	push	ecx
	push	esi
	mov	DWORD PTR [ebp-4], -858993460		; ccccccccH
	mov	ecx, OFFSET __7C094509_xmlschemas@c
	call	@__CheckForDebuggerJustMyCode@4

; 28404:     xmlSchemaSAXPlugPtr ctxt = (xmlSchemaSAXPlugPtr) ctx;

	mov	eax, DWORD PTR _ctx$[ebp]
	mov	DWORD PTR _ctxt$[ebp], eax

; 28405:     if ((ctxt != NULL) && (ctxt->user_sax != NULL) &&

	cmp	DWORD PTR _ctxt$[ebp], 0
	je	SHORT $LN2@attributeD
	mov	ecx, DWORD PTR _ctxt$[ebp]
	cmp	DWORD PTR [ecx+8], 0
	je	SHORT $LN2@attributeD
	mov	edx, DWORD PTR _ctxt$[ebp]
	mov	eax, DWORD PTR [edx+8]
	cmp	DWORD PTR [eax+32], 0
	je	SHORT $LN2@attributeD

; 28406:         (ctxt->user_sax->attributeDecl != NULL)) {
; 28407: 	ctxt->user_sax->attributeDecl(ctxt->user_data, elem, name, type,

	mov	esi, esp
	mov	ecx, DWORD PTR _tree$[ebp]
	push	ecx
	mov	edx, DWORD PTR _defaultValue$[ebp]
	push	edx
	mov	eax, DWORD PTR _def$[ebp]
	push	eax
	mov	ecx, DWORD PTR _type$[ebp]
	push	ecx
	mov	edx, DWORD PTR _name$[ebp]
	push	edx
	mov	eax, DWORD PTR _elem$[ebp]
	push	eax
	mov	ecx, DWORD PTR _ctxt$[ebp]
	mov	edx, DWORD PTR [ecx+16]
	push	edx
	mov	eax, DWORD PTR _ctxt$[ebp]
	mov	ecx, DWORD PTR [eax+8]
	mov	edx, DWORD PTR [ecx+32]
	call	edx
	add	esp, 28					; 0000001cH
	cmp	esi, esp
	call	__RTC_CheckEsp

; 28408: 	                              def, defaultValue, tree);
; 28409:     } else {

	jmp	SHORT $LN1@attributeD
$LN2@attributeD:

; 28410: 	xmlFreeEnumeration(tree);

	mov	eax, DWORD PTR _tree$[ebp]
	push	eax
	call	_xmlFreeEnumeration
	add	esp, 4
$LN1@attributeD:

; 28411:     }
; 28412: }

	pop	esi
	add	esp, 4
	cmp	ebp, esp
	call	__RTC_CheckEsp
	mov	esp, ebp
	pop	ebp
	ret	0
_attributeDeclSplit ENDP
_TEXT	ENDS
; Function compile flags: /Odtp /RTCsu
; File c:\users\dag\documents\_clients\codeproject authors group\windows on arm\libxml2\libxml2-2.9.9\xmlschemas.c
;	COMDAT _entityDeclSplit
_TEXT	SEGMENT
_ctxt$ = -4						; size = 4
_ctx$ = 8						; size = 4
_name$ = 12						; size = 4
_type$ = 16						; size = 4
_publicId$ = 20						; size = 4
_systemId$ = 24						; size = 4
_content$ = 28						; size = 4
_entityDeclSplit PROC					; COMDAT

; 28391: {

	push	ebp
	mov	ebp, esp
	push	ecx
	push	esi
	mov	DWORD PTR [ebp-4], -858993460		; ccccccccH
	mov	ecx, OFFSET __7C094509_xmlschemas@c
	call	@__CheckForDebuggerJustMyCode@4

; 28392:     xmlSchemaSAXPlugPtr ctxt = (xmlSchemaSAXPlugPtr) ctx;

	mov	eax, DWORD PTR _ctx$[ebp]
	mov	DWORD PTR _ctxt$[ebp], eax

; 28393:     if ((ctxt != NULL) && (ctxt->user_sax != NULL) &&

	cmp	DWORD PTR _ctxt$[ebp], 0
	je	SHORT $LN1@entityDecl
	mov	ecx, DWORD PTR _ctxt$[ebp]
	cmp	DWORD PTR [ecx+8], 0
	je	SHORT $LN1@entityDecl
	mov	edx, DWORD PTR _ctxt$[ebp]
	mov	eax, DWORD PTR [edx+8]
	cmp	DWORD PTR [eax+24], 0
	je	SHORT $LN1@entityDecl

; 28394:         (ctxt->user_sax->entityDecl != NULL))
; 28395: 	ctxt->user_sax->entityDecl(ctxt->user_data, name, type, publicId,

	mov	esi, esp
	mov	ecx, DWORD PTR _content$[ebp]
	push	ecx
	mov	edx, DWORD PTR _systemId$[ebp]
	push	edx
	mov	eax, DWORD PTR _publicId$[ebp]
	push	eax
	mov	ecx, DWORD PTR _type$[ebp]
	push	ecx
	mov	edx, DWORD PTR _name$[ebp]
	push	edx
	mov	eax, DWORD PTR _ctxt$[ebp]
	mov	ecx, DWORD PTR [eax+16]
	push	ecx
	mov	edx, DWORD PTR _ctxt$[ebp]
	mov	eax, DWORD PTR [edx+8]
	mov	ecx, DWORD PTR [eax+24]
	call	ecx
	add	esp, 24					; 00000018H
	cmp	esi, esp
	call	__RTC_CheckEsp
$LN1@entityDecl:

; 28396: 	                           systemId, content);
; 28397: }

	pop	esi
	add	esp, 4
	cmp	ebp, esp
	call	__RTC_CheckEsp
	mov	esp, ebp
	pop	ebp
	ret	0
_entityDeclSplit ENDP
_TEXT	ENDS
; Function compile flags: /Odtp /RTCsu
; File c:\users\dag\documents\_clients\codeproject authors group\windows on arm\libxml2\libxml2-2.9.9\xmlschemas.c
;	COMDAT _getParameterEntitySplit
_TEXT	SEGMENT
_ctxt$ = -4						; size = 4
_ctx$ = 8						; size = 4
_name$ = 12						; size = 4
_getParameterEntitySplit PROC				; COMDAT

; 28379: {

	push	ebp
	mov	ebp, esp
	push	ecx
	push	esi
	mov	DWORD PTR [ebp-4], -858993460		; ccccccccH
	mov	ecx, OFFSET __7C094509_xmlschemas@c
	call	@__CheckForDebuggerJustMyCode@4

; 28380:     xmlSchemaSAXPlugPtr ctxt = (xmlSchemaSAXPlugPtr) ctx;

	mov	eax, DWORD PTR _ctx$[ebp]
	mov	DWORD PTR _ctxt$[ebp], eax

; 28381:     if ((ctxt != NULL) && (ctxt->user_sax != NULL) &&

	cmp	DWORD PTR _ctxt$[ebp], 0
	je	SHORT $LN2@getParamet
	mov	ecx, DWORD PTR _ctxt$[ebp]
	cmp	DWORD PTR [ecx+8], 0
	je	SHORT $LN2@getParamet
	mov	edx, DWORD PTR _ctxt$[ebp]
	mov	eax, DWORD PTR [edx+8]
	cmp	DWORD PTR [eax+96], 0
	je	SHORT $LN2@getParamet

; 28382:         (ctxt->user_sax->getParameterEntity != NULL))
; 28383: 	return(ctxt->user_sax->getParameterEntity(ctxt->user_data, name));

	mov	esi, esp
	mov	ecx, DWORD PTR _name$[ebp]
	push	ecx
	mov	edx, DWORD PTR _ctxt$[ebp]
	mov	eax, DWORD PTR [edx+16]
	push	eax
	mov	ecx, DWORD PTR _ctxt$[ebp]
	mov	edx, DWORD PTR [ecx+8]
	mov	eax, DWORD PTR [edx+96]
	call	eax
	add	esp, 8
	cmp	esi, esp
	call	__RTC_CheckEsp
	jmp	SHORT $LN1@getParamet
$LN2@getParamet:

; 28384:     return(NULL);

	xor	eax, eax
$LN1@getParamet:

; 28385: }

	pop	esi
	add	esp, 4
	cmp	ebp, esp
	call	__RTC_CheckEsp
	mov	esp, ebp
	pop	ebp
	ret	0
_getParameterEntitySplit ENDP
_TEXT	ENDS
; Function compile flags: /Odtp /RTCsu
; File c:\users\dag\documents\_clients\codeproject authors group\windows on arm\libxml2\libxml2-2.9.9\xmlschemas.c
;	COMDAT _getEntitySplit
_TEXT	SEGMENT
_ctxt$ = -4						; size = 4
_ctx$ = 8						; size = 4
_name$ = 12						; size = 4
_getEntitySplit PROC					; COMDAT

; 28369: {

	push	ebp
	mov	ebp, esp
	push	ecx
	push	esi
	mov	DWORD PTR [ebp-4], -858993460		; ccccccccH
	mov	ecx, OFFSET __7C094509_xmlschemas@c
	call	@__CheckForDebuggerJustMyCode@4

; 28370:     xmlSchemaSAXPlugPtr ctxt = (xmlSchemaSAXPlugPtr) ctx;

	mov	eax, DWORD PTR _ctx$[ebp]
	mov	DWORD PTR _ctxt$[ebp], eax

; 28371:     if ((ctxt != NULL) && (ctxt->user_sax != NULL) &&

	cmp	DWORD PTR _ctxt$[ebp], 0
	je	SHORT $LN2@getEntityS
	mov	ecx, DWORD PTR _ctxt$[ebp]
	cmp	DWORD PTR [ecx+8], 0
	je	SHORT $LN2@getEntityS
	mov	edx, DWORD PTR _ctxt$[ebp]
	mov	eax, DWORD PTR [edx+8]
	cmp	DWORD PTR [eax+20], 0
	je	SHORT $LN2@getEntityS

; 28372:         (ctxt->user_sax->getEntity != NULL))
; 28373: 	return(ctxt->user_sax->getEntity(ctxt->user_data, name));

	mov	esi, esp
	mov	ecx, DWORD PTR _name$[ebp]
	push	ecx
	mov	edx, DWORD PTR _ctxt$[ebp]
	mov	eax, DWORD PTR [edx+16]
	push	eax
	mov	ecx, DWORD PTR _ctxt$[ebp]
	mov	edx, DWORD PTR [ecx+8]
	mov	eax, DWORD PTR [edx+20]
	call	eax
	add	esp, 8
	cmp	esi, esp
	call	__RTC_CheckEsp
	jmp	SHORT $LN1@getEntityS
$LN2@getEntityS:

; 28374:     return(NULL);

	xor	eax, eax
$LN1@getEntityS:

; 28375: }

	pop	esi
	add	esp, 4
	cmp	ebp, esp
	call	__RTC_CheckEsp
	mov	esp, ebp
	pop	ebp
	ret	0
_getEntitySplit ENDP
_TEXT	ENDS
; Function compile flags: /Odtp /RTCsu
; File c:\users\dag\documents\_clients\codeproject authors group\windows on arm\libxml2\libxml2-2.9.9\xmlschemas.c
;	COMDAT _resolveEntitySplit
_TEXT	SEGMENT
_ctxt$ = -4						; size = 4
_ctx$ = 8						; size = 4
_publicId$ = 12						; size = 4
_systemId$ = 16						; size = 4
_resolveEntitySplit PROC				; COMDAT

; 28358: {

	push	ebp
	mov	ebp, esp
	push	ecx
	push	esi
	mov	DWORD PTR [ebp-4], -858993460		; ccccccccH
	mov	ecx, OFFSET __7C094509_xmlschemas@c
	call	@__CheckForDebuggerJustMyCode@4

; 28359:     xmlSchemaSAXPlugPtr ctxt = (xmlSchemaSAXPlugPtr) ctx;

	mov	eax, DWORD PTR _ctx$[ebp]
	mov	DWORD PTR _ctxt$[ebp], eax

; 28360:     if ((ctxt != NULL) && (ctxt->user_sax != NULL) &&

	cmp	DWORD PTR _ctxt$[ebp], 0
	je	SHORT $LN2@resolveEnt
	mov	ecx, DWORD PTR _ctxt$[ebp]
	cmp	DWORD PTR [ecx+8], 0
	je	SHORT $LN2@resolveEnt
	mov	edx, DWORD PTR _ctxt$[ebp]
	mov	eax, DWORD PTR [edx+8]
	cmp	DWORD PTR [eax+16], 0
	je	SHORT $LN2@resolveEnt

; 28361:         (ctxt->user_sax->resolveEntity != NULL))
; 28362: 	return(ctxt->user_sax->resolveEntity(ctxt->user_data, publicId,

	mov	esi, esp
	mov	ecx, DWORD PTR _systemId$[ebp]
	push	ecx
	mov	edx, DWORD PTR _publicId$[ebp]
	push	edx
	mov	eax, DWORD PTR _ctxt$[ebp]
	mov	ecx, DWORD PTR [eax+16]
	push	ecx
	mov	edx, DWORD PTR _ctxt$[ebp]
	mov	eax, DWORD PTR [edx+8]
	mov	ecx, DWORD PTR [eax+16]
	call	ecx
	add	esp, 12					; 0000000cH
	cmp	esi, esp
	call	__RTC_CheckEsp
	jmp	SHORT $LN1@resolveEnt
$LN2@resolveEnt:

; 28363: 	                                     systemId));
; 28364:     return(NULL);

	xor	eax, eax
$LN1@resolveEnt:

; 28365: }

	pop	esi
	add	esp, 4
	cmp	ebp, esp
	call	__RTC_CheckEsp
	mov	esp, ebp
	pop	ebp
	ret	0
_resolveEntitySplit ENDP
_TEXT	ENDS
; Function compile flags: /Odtp /RTCsu
; File c:\users\dag\documents\_clients\codeproject authors group\windows on arm\libxml2\libxml2-2.9.9\xmlschemas.c
;	COMDAT _externalSubsetSplit
_TEXT	SEGMENT
_ctxt$ = -4						; size = 4
_ctx$ = 8						; size = 4
_name$ = 12						; size = 4
_ExternalID$ = 16					; size = 4
_SystemID$ = 20						; size = 4
_externalSubsetSplit PROC				; COMDAT

; 28348: {

	push	ebp
	mov	ebp, esp
	push	ecx
	push	esi
	mov	DWORD PTR [ebp-4], -858993460		; ccccccccH
	mov	ecx, OFFSET __7C094509_xmlschemas@c
	call	@__CheckForDebuggerJustMyCode@4

; 28349:     xmlSchemaSAXPlugPtr ctxt = (xmlSchemaSAXPlugPtr) ctx;

	mov	eax, DWORD PTR _ctx$[ebp]
	mov	DWORD PTR _ctxt$[ebp], eax

; 28350:     if ((ctxt != NULL) && (ctxt->user_sax != NULL) &&

	cmp	DWORD PTR _ctxt$[ebp], 0
	je	SHORT $LN1@externalSu
	mov	ecx, DWORD PTR _ctxt$[ebp]
	cmp	DWORD PTR [ecx+8], 0
	je	SHORT $LN1@externalSu
	mov	edx, DWORD PTR _ctxt$[ebp]
	mov	eax, DWORD PTR [edx+8]
	cmp	DWORD PTR [eax+104], 0
	je	SHORT $LN1@externalSu

; 28351:         (ctxt->user_sax->externalSubset != NULL))
; 28352: 	ctxt->user_sax->externalSubset(ctxt->user_data, name, ExternalID,

	mov	esi, esp
	mov	ecx, DWORD PTR _SystemID$[ebp]
	push	ecx
	mov	edx, DWORD PTR _ExternalID$[ebp]
	push	edx
	mov	eax, DWORD PTR _name$[ebp]
	push	eax
	mov	ecx, DWORD PTR _ctxt$[ebp]
	mov	edx, DWORD PTR [ecx+16]
	push	edx
	mov	eax, DWORD PTR _ctxt$[ebp]
	mov	ecx, DWORD PTR [eax+8]
	mov	edx, DWORD PTR [ecx+104]
	call	edx
	add	esp, 16					; 00000010H
	cmp	esi, esp
	call	__RTC_CheckEsp
$LN1@externalSu:

; 28353: 	                               SystemID);
; 28354: }

	pop	esi
	add	esp, 4
	cmp	ebp, esp
	call	__RTC_CheckEsp
	mov	esp, ebp
	pop	ebp
	ret	0
_externalSubsetSplit ENDP
_TEXT	ENDS
; Function compile flags: /Odtp /RTCsu
; File c:\users\dag\documents\_clients\codeproject authors group\windows on arm\libxml2\libxml2-2.9.9\xmlschemas.c
;	COMDAT _hasExternalSubsetSplit
_TEXT	SEGMENT
_ctxt$ = -4						; size = 4
_ctx$ = 8						; size = 4
_hasExternalSubsetSplit PROC				; COMDAT

; 28337: {

	push	ebp
	mov	ebp, esp
	push	ecx
	push	esi
	mov	DWORD PTR [ebp-4], -858993460		; ccccccccH
	mov	ecx, OFFSET __7C094509_xmlschemas@c
	call	@__CheckForDebuggerJustMyCode@4

; 28338:     xmlSchemaSAXPlugPtr ctxt = (xmlSchemaSAXPlugPtr) ctx;

	mov	eax, DWORD PTR _ctx$[ebp]
	mov	DWORD PTR _ctxt$[ebp], eax

; 28339:     if ((ctxt != NULL) && (ctxt->user_sax != NULL) &&

	cmp	DWORD PTR _ctxt$[ebp], 0
	je	SHORT $LN2@hasExterna
	mov	ecx, DWORD PTR _ctxt$[ebp]
	cmp	DWORD PTR [ecx+8], 0
	je	SHORT $LN2@hasExterna
	mov	edx, DWORD PTR _ctxt$[ebp]
	mov	eax, DWORD PTR [edx+8]
	cmp	DWORD PTR [eax+12], 0
	je	SHORT $LN2@hasExterna

; 28340:         (ctxt->user_sax->hasExternalSubset != NULL))
; 28341: 	return(ctxt->user_sax->hasExternalSubset(ctxt->user_data));

	mov	esi, esp
	mov	ecx, DWORD PTR _ctxt$[ebp]
	mov	edx, DWORD PTR [ecx+16]
	push	edx
	mov	eax, DWORD PTR _ctxt$[ebp]
	mov	ecx, DWORD PTR [eax+8]
	mov	edx, DWORD PTR [ecx+12]
	call	edx
	add	esp, 4
	cmp	esi, esp
	call	__RTC_CheckEsp
	jmp	SHORT $LN1@hasExterna
$LN2@hasExterna:

; 28342:     return(0);

	xor	eax, eax
$LN1@hasExterna:

; 28343: }

	pop	esi
	add	esp, 4
	cmp	ebp, esp
	call	__RTC_CheckEsp
	mov	esp, ebp
	pop	ebp
	ret	0
_hasExternalSubsetSplit ENDP
_TEXT	ENDS
; Function compile flags: /Odtp /RTCsu
; File c:\users\dag\documents\_clients\codeproject authors group\windows on arm\libxml2\libxml2-2.9.9\xmlschemas.c
;	COMDAT _hasInternalSubsetSplit
_TEXT	SEGMENT
_ctxt$ = -4						; size = 4
_ctx$ = 8						; size = 4
_hasInternalSubsetSplit PROC				; COMDAT

; 28327: {

	push	ebp
	mov	ebp, esp
	push	ecx
	push	esi
	mov	DWORD PTR [ebp-4], -858993460		; ccccccccH
	mov	ecx, OFFSET __7C094509_xmlschemas@c
	call	@__CheckForDebuggerJustMyCode@4

; 28328:     xmlSchemaSAXPlugPtr ctxt = (xmlSchemaSAXPlugPtr) ctx;

	mov	eax, DWORD PTR _ctx$[ebp]
	mov	DWORD PTR _ctxt$[ebp], eax

; 28329:     if ((ctxt != NULL) && (ctxt->user_sax != NULL) &&

	cmp	DWORD PTR _ctxt$[ebp], 0
	je	SHORT $LN2@hasInterna
	mov	ecx, DWORD PTR _ctxt$[ebp]
	cmp	DWORD PTR [ecx+8], 0
	je	SHORT $LN2@hasInterna
	mov	edx, DWORD PTR _ctxt$[ebp]
	mov	eax, DWORD PTR [edx+8]
	cmp	DWORD PTR [eax+8], 0
	je	SHORT $LN2@hasInterna

; 28330:         (ctxt->user_sax->hasInternalSubset != NULL))
; 28331: 	return(ctxt->user_sax->hasInternalSubset(ctxt->user_data));

	mov	esi, esp
	mov	ecx, DWORD PTR _ctxt$[ebp]
	mov	edx, DWORD PTR [ecx+16]
	push	edx
	mov	eax, DWORD PTR _ctxt$[ebp]
	mov	ecx, DWORD PTR [eax+8]
	mov	edx, DWORD PTR [ecx+8]
	call	edx
	add	esp, 4
	cmp	esi, esp
	call	__RTC_CheckEsp
	jmp	SHORT $LN1@hasInterna
$LN2@hasInterna:

; 28332:     return(0);

	xor	eax, eax
$LN1@hasInterna:

; 28333: }

	pop	esi
	add	esp, 4
	cmp	ebp, esp
	call	__RTC_CheckEsp
	mov	esp, ebp
	pop	ebp
	ret	0
_hasInternalSubsetSplit ENDP
_TEXT	ENDS
; Function compile flags: /Odtp /RTCsu
; File c:\users\dag\documents\_clients\codeproject authors group\windows on arm\libxml2\libxml2-2.9.9\xmlschemas.c
;	COMDAT _isStandaloneSplit
_TEXT	SEGMENT
_ctxt$ = -4						; size = 4
_ctx$ = 8						; size = 4
_isStandaloneSplit PROC					; COMDAT

; 28317: {

	push	ebp
	mov	ebp, esp
	push	ecx
	push	esi
	mov	DWORD PTR [ebp-4], -858993460		; ccccccccH
	mov	ecx, OFFSET __7C094509_xmlschemas@c
	call	@__CheckForDebuggerJustMyCode@4

; 28318:     xmlSchemaSAXPlugPtr ctxt = (xmlSchemaSAXPlugPtr) ctx;

	mov	eax, DWORD PTR _ctx$[ebp]
	mov	DWORD PTR _ctxt$[ebp], eax

; 28319:     if ((ctxt != NULL) && (ctxt->user_sax != NULL) &&

	cmp	DWORD PTR _ctxt$[ebp], 0
	je	SHORT $LN2@isStandalo
	mov	ecx, DWORD PTR _ctxt$[ebp]
	cmp	DWORD PTR [ecx+8], 0
	je	SHORT $LN2@isStandalo
	mov	edx, DWORD PTR _ctxt$[ebp]
	mov	eax, DWORD PTR [edx+8]
	cmp	DWORD PTR [eax+4], 0
	je	SHORT $LN2@isStandalo

; 28320:         (ctxt->user_sax->isStandalone != NULL))
; 28321: 	return(ctxt->user_sax->isStandalone(ctxt->user_data));

	mov	esi, esp
	mov	ecx, DWORD PTR _ctxt$[ebp]
	mov	edx, DWORD PTR [ecx+16]
	push	edx
	mov	eax, DWORD PTR _ctxt$[ebp]
	mov	ecx, DWORD PTR [eax+8]
	mov	edx, DWORD PTR [ecx+4]
	call	edx
	add	esp, 4
	cmp	esi, esp
	call	__RTC_CheckEsp
	jmp	SHORT $LN1@isStandalo
$LN2@isStandalo:

; 28322:     return(0);

	xor	eax, eax
$LN1@isStandalo:

; 28323: }

	pop	esi
	add	esp, 4
	cmp	ebp, esp
	call	__RTC_CheckEsp
	mov	esp, ebp
	pop	ebp
	ret	0
_isStandaloneSplit ENDP
_TEXT	ENDS
; Function compile flags: /Odtp /RTCsu
; File c:\users\dag\documents\_clients\codeproject authors group\windows on arm\libxml2\libxml2-2.9.9\xmlschemas.c
;	COMDAT _internalSubsetSplit
_TEXT	SEGMENT
_ctxt$ = -4						; size = 4
_ctx$ = 8						; size = 4
_name$ = 12						; size = 4
_ExternalID$ = 16					; size = 4
_SystemID$ = 20						; size = 4
_internalSubsetSplit PROC				; COMDAT

; 28307: {

	push	ebp
	mov	ebp, esp
	push	ecx
	push	esi
	mov	DWORD PTR [ebp-4], -858993460		; ccccccccH
	mov	ecx, OFFSET __7C094509_xmlschemas@c
	call	@__CheckForDebuggerJustMyCode@4

; 28308:     xmlSchemaSAXPlugPtr ctxt = (xmlSchemaSAXPlugPtr) ctx;

	mov	eax, DWORD PTR _ctx$[ebp]
	mov	DWORD PTR _ctxt$[ebp], eax

; 28309:     if ((ctxt != NULL) && (ctxt->user_sax != NULL) &&

	cmp	DWORD PTR _ctxt$[ebp], 0
	je	SHORT $LN1@internalSu
	mov	ecx, DWORD PTR _ctxt$[ebp]
	cmp	DWORD PTR [ecx+8], 0
	je	SHORT $LN1@internalSu
	mov	edx, DWORD PTR _ctxt$[ebp]
	mov	eax, DWORD PTR [edx+8]
	cmp	DWORD PTR [eax], 0
	je	SHORT $LN1@internalSu

; 28310:         (ctxt->user_sax->internalSubset != NULL))
; 28311: 	ctxt->user_sax->internalSubset(ctxt->user_data, name, ExternalID,

	mov	esi, esp
	mov	ecx, DWORD PTR _SystemID$[ebp]
	push	ecx
	mov	edx, DWORD PTR _ExternalID$[ebp]
	push	edx
	mov	eax, DWORD PTR _name$[ebp]
	push	eax
	mov	ecx, DWORD PTR _ctxt$[ebp]
	mov	edx, DWORD PTR [ecx+16]
	push	edx
	mov	eax, DWORD PTR _ctxt$[ebp]
	mov	ecx, DWORD PTR [eax+8]
	mov	edx, DWORD PTR [ecx]
	call	edx
	add	esp, 16					; 00000010H
	cmp	esi, esp
	call	__RTC_CheckEsp
$LN1@internalSu:

; 28312: 	                               SystemID);
; 28313: }

	pop	esi
	add	esp, 4
	cmp	ebp, esp
	call	__RTC_CheckEsp
	mov	esp, ebp
	pop	ebp
	ret	0
_internalSubsetSplit ENDP
_TEXT	ENDS
; Function compile flags: /Odtp /RTCsu
; File c:\users\dag\documents\_clients\codeproject authors group\windows on arm\libxml2\libxml2-2.9.9\xmlschemas.c
;	COMDAT _xmlSchemaVStart
_TEXT	SEGMENT
_ret$ = -4						; size = 4
_vctxt$ = 8						; size = 4
