; Listing generated by Microsoft (R) Optimizing Compiler Version 19.16.27027.1 

	TITLE	C:\Users\DAG\Documents\_Clients\CodeProject Authors Group\Windows on ARM\libxml2\libxml2-2.9.9\xmlunicode.c
	.686P
	.XMM
	include listing.inc
	.model	flat

INCLUDELIB MSVCRTD
INCLUDELIB OLDNAMES

PUBLIC	_xmlUCSIsAegeanNumbers
PUBLIC	_xmlUCSIsAlphabeticPresentationForms
PUBLIC	_xmlUCSIsArabic
PUBLIC	_xmlUCSIsArabicPresentationFormsA
PUBLIC	_xmlUCSIsArabicPresentationFormsB
PUBLIC	_xmlUCSIsArmenian
PUBLIC	_xmlUCSIsArrows
PUBLIC	_xmlUCSIsBasicLatin
PUBLIC	_xmlUCSIsBengali
PUBLIC	_xmlUCSIsBlockElements
PUBLIC	_xmlUCSIsBopomofo
PUBLIC	_xmlUCSIsBopomofoExtended
PUBLIC	_xmlUCSIsBoxDrawing
PUBLIC	_xmlUCSIsBraillePatterns
PUBLIC	_xmlUCSIsBuhid
PUBLIC	_xmlUCSIsByzantineMusicalSymbols
PUBLIC	_xmlUCSIsCJKCompatibility
PUBLIC	_xmlUCSIsCJKCompatibilityForms
PUBLIC	_xmlUCSIsCJKCompatibilityIdeographs
PUBLIC	_xmlUCSIsCJKCompatibilityIdeographsSupplement
PUBLIC	_xmlUCSIsCJKRadicalsSupplement
PUBLIC	_xmlUCSIsCJKSymbolsandPunctuation
PUBLIC	_xmlUCSIsCJKUnifiedIdeographs
PUBLIC	_xmlUCSIsCJKUnifiedIdeographsExtensionA
PUBLIC	_xmlUCSIsCJKUnifiedIdeographsExtensionB
PUBLIC	_xmlUCSIsCherokee
PUBLIC	_xmlUCSIsCombiningDiacriticalMarks
PUBLIC	_xmlUCSIsCombiningDiacriticalMarksforSymbols
PUBLIC	_xmlUCSIsCombiningHalfMarks
PUBLIC	_xmlUCSIsCombiningMarksforSymbols
PUBLIC	_xmlUCSIsControlPictures
PUBLIC	_xmlUCSIsCurrencySymbols
PUBLIC	_xmlUCSIsCypriotSyllabary
PUBLIC	_xmlUCSIsCyrillic
PUBLIC	_xmlUCSIsCyrillicSupplement
PUBLIC	_xmlUCSIsDeseret
PUBLIC	_xmlUCSIsDevanagari
PUBLIC	_xmlUCSIsDingbats
PUBLIC	_xmlUCSIsEnclosedAlphanumerics
PUBLIC	_xmlUCSIsEnclosedCJKLettersandMonths
PUBLIC	_xmlUCSIsEthiopic
PUBLIC	_xmlUCSIsGeneralPunctuation
PUBLIC	_xmlUCSIsGeometricShapes
PUBLIC	_xmlUCSIsGeorgian
PUBLIC	_xmlUCSIsGothic
PUBLIC	_xmlUCSIsGreek
PUBLIC	_xmlUCSIsGreekExtended
PUBLIC	_xmlUCSIsGreekandCoptic
PUBLIC	_xmlUCSIsGujarati
PUBLIC	_xmlUCSIsGurmukhi
PUBLIC	_xmlUCSIsHalfwidthandFullwidthForms
PUBLIC	_xmlUCSIsHangulCompatibilityJamo
PUBLIC	_xmlUCSIsHangulJamo
PUBLIC	_xmlUCSIsHangulSyllables
PUBLIC	_xmlUCSIsHanunoo
PUBLIC	_xmlUCSIsHebrew
PUBLIC	_xmlUCSIsHighPrivateUseSurrogates
PUBLIC	_xmlUCSIsHighSurrogates
PUBLIC	_xmlUCSIsHiragana
PUBLIC	_xmlUCSIsIPAExtensions
PUBLIC	_xmlUCSIsIdeographicDescriptionCharacters
PUBLIC	_xmlUCSIsKanbun
PUBLIC	_xmlUCSIsKangxiRadicals
PUBLIC	_xmlUCSIsKannada
PUBLIC	_xmlUCSIsKatakana
PUBLIC	_xmlUCSIsKatakanaPhoneticExtensions
PUBLIC	_xmlUCSIsKhmer
PUBLIC	_xmlUCSIsKhmerSymbols
PUBLIC	_xmlUCSIsLao
PUBLIC	_xmlUCSIsLatin1Supplement
PUBLIC	_xmlUCSIsLatinExtendedA
PUBLIC	_xmlUCSIsLatinExtendedB
PUBLIC	_xmlUCSIsLatinExtendedAdditional
PUBLIC	_xmlUCSIsLetterlikeSymbols
PUBLIC	_xmlUCSIsLimbu
PUBLIC	_xmlUCSIsLinearBIdeograms
PUBLIC	_xmlUCSIsLinearBSyllabary
PUBLIC	_xmlUCSIsLowSurrogates
PUBLIC	_xmlUCSIsMalayalam
PUBLIC	_xmlUCSIsMathematicalAlphanumericSymbols
PUBLIC	_xmlUCSIsMathematicalOperators
PUBLIC	_xmlUCSIsMiscellaneousMathematicalSymbolsA
PUBLIC	_xmlUCSIsMiscellaneousMathematicalSymbolsB
PUBLIC	_xmlUCSIsMiscellaneousSymbols
PUBLIC	_xmlUCSIsMiscellaneousSymbolsandArrows
PUBLIC	_xmlUCSIsMiscellaneousTechnical
PUBLIC	_xmlUCSIsMongolian
PUBLIC	_xmlUCSIsMusicalSymbols
PUBLIC	_xmlUCSIsMyanmar
PUBLIC	_xmlUCSIsNumberForms
PUBLIC	_xmlUCSIsOgham
PUBLIC	_xmlUCSIsOldItalic
PUBLIC	_xmlUCSIsOpticalCharacterRecognition
PUBLIC	_xmlUCSIsOriya
PUBLIC	_xmlUCSIsOsmanya
PUBLIC	_xmlUCSIsPhoneticExtensions
PUBLIC	_xmlUCSIsPrivateUse
PUBLIC	_xmlUCSIsPrivateUseArea
PUBLIC	_xmlUCSIsRunic
PUBLIC	_xmlUCSIsShavian
PUBLIC	_xmlUCSIsSinhala
PUBLIC	_xmlUCSIsSmallFormVariants
PUBLIC	_xmlUCSIsSpacingModifierLetters
PUBLIC	_xmlUCSIsSpecials
PUBLIC	_xmlUCSIsSuperscriptsandSubscripts
PUBLIC	_xmlUCSIsSupplementalArrowsA
PUBLIC	_xmlUCSIsSupplementalArrowsB
PUBLIC	_xmlUCSIsSupplementalMathematicalOperators
PUBLIC	_xmlUCSIsSupplementaryPrivateUseAreaA
PUBLIC	_xmlUCSIsSupplementaryPrivateUseAreaB
PUBLIC	_xmlUCSIsSyriac
PUBLIC	_xmlUCSIsTagalog
PUBLIC	_xmlUCSIsTagbanwa
PUBLIC	_xmlUCSIsTags
PUBLIC	_xmlUCSIsTaiLe
PUBLIC	_xmlUCSIsTaiXuanJingSymbols
PUBLIC	_xmlUCSIsTamil
PUBLIC	_xmlUCSIsTelugu
PUBLIC	_xmlUCSIsThaana
PUBLIC	_xmlUCSIsThai
PUBLIC	_xmlUCSIsTibetan
PUBLIC	_xmlUCSIsUgaritic
PUBLIC	_xmlUCSIsUnifiedCanadianAboriginalSyllabics
PUBLIC	_xmlUCSIsVariationSelectors
PUBLIC	_xmlUCSIsVariationSelectorsSupplement
PUBLIC	_xmlUCSIsYiRadicals
PUBLIC	_xmlUCSIsYiSyllables
PUBLIC	_xmlUCSIsYijingHexagramSymbols
PUBLIC	_xmlUCSIsCatC
PUBLIC	_xmlUCSIsCatCc
PUBLIC	_xmlUCSIsCatCf
PUBLIC	_xmlUCSIsCatCo
PUBLIC	_xmlUCSIsCatCs
PUBLIC	_xmlUCSIsCatL
PUBLIC	_xmlUCSIsCatLl
PUBLIC	_xmlUCSIsCatLm
PUBLIC	_xmlUCSIsCatLo
PUBLIC	_xmlUCSIsCatLt
PUBLIC	_xmlUCSIsCatLu
PUBLIC	_xmlUCSIsCatM
PUBLIC	_xmlUCSIsCatMc
PUBLIC	_xmlUCSIsCatMe
PUBLIC	_xmlUCSIsCatMn
PUBLIC	_xmlUCSIsCatN
PUBLIC	_xmlUCSIsCatNd
PUBLIC	_xmlUCSIsCatNl
PUBLIC	_xmlUCSIsCatNo
PUBLIC	_xmlUCSIsCatP
PUBLIC	_xmlUCSIsCatPc
PUBLIC	_xmlUCSIsCatPd
PUBLIC	_xmlUCSIsCatPe
PUBLIC	_xmlUCSIsCatPf
PUBLIC	_xmlUCSIsCatPi
PUBLIC	_xmlUCSIsCatPo
PUBLIC	_xmlUCSIsCatPs
PUBLIC	_xmlUCSIsCatS
PUBLIC	_xmlUCSIsCatSc
PUBLIC	_xmlUCSIsCatSk
PUBLIC	_xmlUCSIsCatSm
PUBLIC	_xmlUCSIsCatSo
PUBLIC	_xmlUCSIsCatZ
PUBLIC	_xmlUCSIsCatZl
PUBLIC	_xmlUCSIsCatZp
PUBLIC	_xmlUCSIsCatZs
PUBLIC	??_C@_0O@LMKDPFLH@AegeanNumbers@		; `string'
PUBLIC	??_C@_0BM@FHILPEHD@AlphabeticPresentationForms@	; `string'
PUBLIC	??_C@_06PKKOFLDI@Arabic@			; `string'
PUBLIC	??_C@_0BK@HLLEBDNG@ArabicPresentationForms?9A@	; `string'
PUBLIC	??_C@_0BK@FAJJEABF@ArabicPresentationForms?9B@	; `string'
PUBLIC	??_C@_08FOHFEPKP@Armenian@			; `string'
PUBLIC	??_C@_06HDPOPCJM@Arrows@			; `string'
PUBLIC	??_C@_0L@BMEAIGCM@BasicLatin@			; `string'
PUBLIC	??_C@_07EHGPDBPP@Bengali@			; `string'
PUBLIC	??_C@_0O@DEJDEMI@BlockElements@			; `string'
PUBLIC	??_C@_08FJELILDA@Bopomofo@			; `string'
PUBLIC	??_C@_0BB@CJCFBCMM@BopomofoExtended@		; `string'
PUBLIC	??_C@_0L@BGKJOPL@BoxDrawing@			; `string'
PUBLIC	??_C@_0BA@PMJEFOCM@BraillePatterns@		; `string'
PUBLIC	??_C@_05IFJKBLGE@Buhid@				; `string'
PUBLIC	??_C@_0BI@DCACHAG@ByzantineMusicalSymbols@	; `string'
PUBLIC	??_C@_0BB@HCHPCGJM@CJKCompatibility@		; `string'
PUBLIC	??_C@_0BG@JEEDBNFG@CJKCompatibilityForms@	; `string'
PUBLIC	??_C@_0BL@MLINLEIB@CJKCompatibilityIdeographs@	; `string'
PUBLIC	??_C@_0CF@MHMLFJAF@CJKCompatibilityIdeographsSuppl@ ; `string'
PUBLIC	??_C@_0BG@IKBGCED@CJKRadicalsSupplement@	; `string'
PUBLIC	??_C@_0BJ@EFEOOODB@CJKSymbolsandPunctuation@	; `string'
PUBLIC	??_C@_0BF@IHIIFJKH@CJKUnifiedIdeographs@	; `string'
PUBLIC	??_C@_0BP@CFKMMCIB@CJKUnifiedIdeographsExtensionA@ ; `string'
PUBLIC	??_C@_0BP@OIBJBEC@CJKUnifiedIdeographsExtensionB@ ; `string'
PUBLIC	??_C@_08MDFAKGKC@Cherokee@			; `string'
PUBLIC	??_C@_0BK@JLHHMODB@CombiningDiacriticalMarks@	; `string'
PUBLIC	??_C@_0CE@CJONMFBG@CombiningDiacriticalMarksforSym@ ; `string'
PUBLIC	??_C@_0BD@HICCDHNL@CombiningHalfMarks@		; `string'
PUBLIC	??_C@_0BJ@FMOJDMGL@CombiningMarksforSymbols@	; `string'
PUBLIC	??_C@_0BA@NCNIOCBD@ControlPictures@		; `string'
PUBLIC	??_C@_0BA@PHFIOGCJ@CurrencySymbols@		; `string'
PUBLIC	??_C@_0BB@GFOOOPJK@CypriotSyllabary@		; `string'
PUBLIC	??_C@_08DNBONLIE@Cyrillic@			; `string'
PUBLIC	??_C@_0BD@EJJGAMF@CyrillicSupplement@		; `string'
PUBLIC	??_C@_07PGJJNFLP@Deseret@			; `string'
PUBLIC	??_C@_0L@JDMENJM@Devanagari@			; `string'
PUBLIC	??_C@_08KMNGFEGC@Dingbats@			; `string'
PUBLIC	??_C@_0BG@DBKOIOFC@EnclosedAlphanumerics@	; `string'
PUBLIC	??_C@_0BM@CEMNPAPN@EnclosedCJKLettersandMonths@	; `string'
PUBLIC	??_C@_08ELMAOGKI@Ethiopic@			; `string'
PUBLIC	??_C@_0BD@MFMNMEDO@GeneralPunctuation@		; `string'
PUBLIC	??_C@_0BA@PDAHJMFL@GeometricShapes@		; `string'
PUBLIC	??_C@_08NPENEPGM@Georgian@			; `string'
PUBLIC	??_C@_06OBILIHNB@Gothic@			; `string'
PUBLIC	??_C@_05BLJPGLLB@Greek@				; `string'
PUBLIC	??_C@_0O@BOIIGEIP@GreekExtended@		; `string'
PUBLIC	??_C@_0P@MEDCMKCD@GreekandCoptic@		; `string'
PUBLIC	??_C@_08EMJEOGJE@Gujarati@			; `string'
PUBLIC	??_C@_08KHMGJCCG@Gurmukhi@			; `string'
PUBLIC	??_C@_0BL@FHCDEOHA@HalfwidthandFullwidthForms@	; `string'
PUBLIC	??_C@_0BI@ICEMECJJ@HangulCompatibilityJamo@	; `string'
PUBLIC	??_C@_0L@HKIMOFFL@HangulJamo@			; `string'
PUBLIC	??_C@_0BA@LJNIPPJH@HangulSyllables@		; `string'
PUBLIC	??_C@_07DELPMEEP@Hanunoo@			; `string'
PUBLIC	??_C@_06EBOICPLG@Hebrew@			; `string'
PUBLIC	??_C@_0BJ@HBDKBEJH@HighPrivateUseSurrogates@	; `string'
PUBLIC	??_C@_0P@PBBJDMBK@HighSurrogates@		; `string'
PUBLIC	??_C@_08JNGAGLNE@Hiragana@			; `string'
PUBLIC	??_C@_0O@PDCBHIAB@IPAExtensions@		; `string'
PUBLIC	??_C@_0CB@GLBDCFOE@IdeographicDescriptionCharacter@ ; `string'
PUBLIC	??_C@_06PJFOMHML@Kanbun@			; `string'
PUBLIC	??_C@_0P@OEANPKJK@KangxiRadicals@		; `string'
PUBLIC	??_C@_07GHLFLHAG@Kannada@			; `string'
PUBLIC	??_C@_08NBCIJEJP@Katakana@			; `string'
PUBLIC	??_C@_0BL@HDMJHNGP@KatakanaPhoneticExtensions@	; `string'
PUBLIC	??_C@_05BILJKFBO@Khmer@				; `string'
PUBLIC	??_C@_0N@CFBBNEIL@KhmerSymbols@			; `string'
PUBLIC	??_C@_03KEAJBBBJ@Lao@				; `string'
PUBLIC	??_C@_0BC@BEPAHCBP@Latin?91Supplement@		; `string'
PUBLIC	??_C@_0BA@NJFDFJMA@LatinExtended?9A@		; `string'
PUBLIC	??_C@_0BA@PCHOAKAD@LatinExtended?9B@		; `string'
PUBLIC	??_C@_0BI@IIJPGEML@LatinExtendedAdditional@	; `string'
PUBLIC	??_C@_0BC@GBDPOII@LetterlikeSymbols@		; `string'
PUBLIC	??_C@_05HCNCDMFE@Limbu@				; `string'
PUBLIC	??_C@_0BB@PPMGIAIO@LinearBIdeograms@		; `string'
PUBLIC	??_C@_0BB@OHEOENGH@LinearBSyllabary@		; `string'
PUBLIC	??_C@_0O@JPELEGJF@LowSurrogates@		; `string'
PUBLIC	??_C@_09PGGFICGJ@Malayalam@			; `string'
PUBLIC	??_C@_0CA@OFLLOOBF@MathematicalAlphanumericSymbols@ ; `string'
PUBLIC	??_C@_0BG@PCHNGHOP@MathematicalOperators@	; `string'
PUBLIC	??_C@_0CD@GAPBPBJA@MiscellaneousMathematicalSymbol@ ; `string'
PUBLIC	??_C@_0CD@ELNMKCFD@MiscellaneousMathematicalSymbol@ ; `string'
PUBLIC	??_C@_0BF@GBEKAJJD@MiscellaneousSymbols@	; `string'
PUBLIC	??_C@_0BO@CAMMNKDM@MiscellaneousSymbolsandArrows@ ; `string'
PUBLIC	??_C@_0BH@OJJKGJKB@MiscellaneousTechnical@	; `string'
PUBLIC	??_C@_09COLOONHK@Mongolian@			; `string'
PUBLIC	??_C@_0P@FMMPCFAF@MusicalSymbols@		; `string'
PUBLIC	??_C@_07CJEPOCDM@Myanmar@			; `string'
PUBLIC	??_C@_0M@CADFPJEM@NumberForms@			; `string'
PUBLIC	??_C@_05PMPFCGKJ@Ogham@				; `string'
PUBLIC	??_C@_09GGLGKF@OldItalic@			; `string'
PUBLIC	??_C@_0BM@MKILNNIL@OpticalCharacterRecognition@	; `string'
PUBLIC	??_C@_05FCMJOEPK@Oriya@				; `string'
PUBLIC	??_C@_07FLOHPBBB@Osmanya@			; `string'
PUBLIC	??_C@_0BD@ODJFALAH@PhoneticExtensions@		; `string'
PUBLIC	??_C@_0L@NKMLCPLK@PrivateUse@			; `string'
PUBLIC	??_C@_0P@JJIJNAKP@PrivateUseArea@		; `string'
PUBLIC	??_C@_05OMGGNAOE@Runic@				; `string'
PUBLIC	??_C@_07LIFCEABG@Shavian@			; `string'
PUBLIC	??_C@_07HKFHHHOH@Sinhala@			; `string'
PUBLIC	??_C@_0BC@BFGADBGB@SmallFormVariants@		; `string'
PUBLIC	??_C@_0BH@DMBOKNML@SpacingModifierLetters@	; `string'
PUBLIC	??_C@_08PLPAIEOP@Specials@			; `string'
PUBLIC	??_C@_0BK@LMFBJMHO@SuperscriptsandSubscripts@	; `string'
PUBLIC	??_C@_0BF@PLDLEEKL@SupplementalArrows?9A@	; `string'
PUBLIC	??_C@_0BF@NABGBHGI@SupplementalArrows?9B@	; `string'
PUBLIC	??_C@_0CC@MPJJEAJL@SupplementalMathematicalOperato@ ; `string'
PUBLIC	??_C@_0BO@FKALLKGE@SupplementaryPrivateUseArea?9A@ ; `string'
PUBLIC	??_C@_0BO@HBCGOJKH@SupplementaryPrivateUseArea?9B@ ; `string'
PUBLIC	??_C@_06JOHKBNPH@Syriac@			; `string'
PUBLIC	??_C@_07MPBEMCCC@Tagalog@			; `string'
PUBLIC	??_C@_08HDNHHNMK@Tagbanwa@			; `string'
PUBLIC	??_C@_04DOFOAGBP@Tags@				; `string'
PUBLIC	??_C@_05FKFEBJIP@TaiLe@				; `string'
PUBLIC	??_C@_0BD@DGPDEDFN@TaiXuanJingSymbols@		; `string'
PUBLIC	??_C@_05DKHCLBJK@Tamil@				; `string'
PUBLIC	??_C@_06PCMDOJDI@Telugu@			; `string'
PUBLIC	??_C@_06EIMJBCEF@Thaana@			; `string'
PUBLIC	??_C@_04PHPGMPPM@Thai@				; `string'
PUBLIC	??_C@_07BHEHFCAF@Tibetan@			; `string'
PUBLIC	??_C@_08OJJPEHGN@Ugaritic@			; `string'
PUBLIC	??_C@_0CD@ONMKCCHG@UnifiedCanadianAboriginalSyllab@ ; `string'
PUBLIC	??_C@_0BD@MLEDBAOK@VariationSelectors@		; `string'
PUBLIC	??_C@_0BN@DIKICAGH@VariationSelectorsSupplement@ ; `string'
PUBLIC	??_C@_0L@LCEJPIDD@YiRadicals@			; `string'
PUBLIC	??_C@_0M@NALELJIH@YiSyllables@			; `string'
PUBLIC	??_C@_0BG@LPBLNMOL@YijingHexagramSymbols@	; `string'
PUBLIC	??_C@_01GFHCPBMG@C@				; `string'
PUBLIC	??_C@_02DMLCCNBA@Cc@				; `string'
PUBLIC	??_C@_02EBMFNJFF@Cf@				; `string'
PUBLIC	??_C@_02JAAHGCBM@Co@				; `string'
PUBLIC	??_C@_02HGHADPEB@Cs@				; `string'
PUBLIC	??_C@_01OCOKONAJ@L@				; `string'
PUBLIC	??_C@_02LAHGHGOC@Ll@				; `string'
PUBLIC	??_C@_02KJGNEHKD@Lm@				; `string'
PUBLIC	??_C@_02JLFLCFCB@Lo@				; `string'
PUBLIC	??_C@_02DCGNOOLL@Lt@				; `string'
PUBLIC	??_C@_02CLHGNPPK@Lu@				; `string'
PUBLIC	??_C@_01PLPBNMEI@M@				; `string'
PUBLIC	??_C@_02DGCMAABK@Mc@				; `string'
PUBLIC	??_C@_02GAHGKHJM@Me@				; `string'
PUBLIC	??_C@_02IDICHOFH@Mn@				; `string'
PUBLIC	??_C@_01NANMIPIL@N@				; `string'
PUBLIC	??_C@_02HLCLCIIE@Nd@				; `string'
PUBLIC	??_C@_02LDPCKCIM@Nl@				; `string'
PUBLIC	??_C@_02JINPPBEP@No@				; `string'
PUBLIC	??_C@_01EJNLAFE@P@				; `string'
PUBLIC	??_C@_02CCNCDADJ@Pc@				; `string'
PUBLIC	??_C@_02GNJDKGPO@Pd@				; `string'
PUBLIC	??_C@_02HEIIJHLP@Pe@				; `string'
PUBLIC	??_C@_02FPKFMEHM@Pf@				; `string'
PUBLIC	??_C@_02NIDNNILD@Pi@				; `string'
PUBLIC	??_C@_02IOGHHPDF@Po@				; `string'
PUBLIC	??_C@_02GIBACCGI@Ps@				; `string'
PUBLIC	??_C@_01CPLAODJH@S@				; `string'
PUBLIC	??_C@_02CAJEIOGA@Sc@				; `string'
PUBLIC	??_C@_02OIENAEGI@Sk@				; `string'
PUBLIC	??_C@_02LOBHKDOO@Sm@				; `string'
PUBLIC	??_C@_02IMCBMBGM@So@				; `string'
PUBLIC	??_C@_01POHCFINO@Z@				; `string'
PUBLIC	??_C@_02KINNKJCA@Zl@				; `string'
PUBLIC	??_C@_02EOKKPEHN@Zp@				; `string'
PUBLIC	??_C@_02GFIHKHLO@Zs@				; `string'
_DATA	SEGMENT
COMM	_xmlIsBaseCharGroup:BYTE:010H
COMM	_xmlIsCharGroup:BYTE:010H
COMM	_xmlIsCombiningGroup:BYTE:010H
COMM	_xmlIsDigitGroup:BYTE:010H
COMM	_xmlIsExtenderGroup:BYTE:010H
COMM	_xmlIsIdeographicGroup:BYTE:010H
COMM	_xmlIsPubidChar_tab:BYTE:0100H
_DATA	ENDS
msvcjmc	SEGMENT
__188180DA_corecrt_math@h DB 01H
__2CC6E67D_corecrt_stdio_config@h DB 01H
__05476D76_corecrt_wstdio@h DB 01H
__A452D4A0_stdio@h DB 01H
__4384A2D9_corecrt_memcpy_s@h DB 01H
__4E51A221_corecrt_wstring@h DB 01H
__2140C079_string@h DB 01H
__B18DBD6B_xmlunicode@c DB 01H
msvcjmc	ENDS
;	COMDAT ??_C@_02GFIHKHLO@Zs@
CONST	SEGMENT
??_C@_02GFIHKHLO@Zs@ DB 'Zs', 00H			; `string'
CONST	ENDS
;	COMDAT ??_C@_02EOKKPEHN@Zp@
CONST	SEGMENT
??_C@_02EOKKPEHN@Zp@ DB 'Zp', 00H			; `string'
CONST	ENDS
;	COMDAT ??_C@_02KINNKJCA@Zl@
CONST	SEGMENT
??_C@_02KINNKJCA@Zl@ DB 'Zl', 00H			; `string'
CONST	ENDS
;	COMDAT ??_C@_01POHCFINO@Z@
CONST	SEGMENT
??_C@_01POHCFINO@Z@ DB 'Z', 00H				; `string'
CONST	ENDS
;	COMDAT ??_C@_02IMCBMBGM@So@
CONST	SEGMENT
??_C@_02IMCBMBGM@So@ DB 'So', 00H			; `string'
CONST	ENDS
;	COMDAT ??_C@_02LOBHKDOO@Sm@
CONST	SEGMENT
??_C@_02LOBHKDOO@Sm@ DB 'Sm', 00H			; `string'
CONST	ENDS
;	COMDAT ??_C@_02OIENAEGI@Sk@
CONST	SEGMENT
??_C@_02OIENAEGI@Sk@ DB 'Sk', 00H			; `string'
CONST	ENDS
;	COMDAT ??_C@_02CAJEIOGA@Sc@
CONST	SEGMENT
??_C@_02CAJEIOGA@Sc@ DB 'Sc', 00H			; `string'
CONST	ENDS
;	COMDAT ??_C@_01CPLAODJH@S@
CONST	SEGMENT
??_C@_01CPLAODJH@S@ DB 'S', 00H				; `string'
CONST	ENDS
;	COMDAT ??_C@_02GIBACCGI@Ps@
CONST	SEGMENT
??_C@_02GIBACCGI@Ps@ DB 'Ps', 00H			; `string'
CONST	ENDS
;	COMDAT ??_C@_02IOGHHPDF@Po@
CONST	SEGMENT
??_C@_02IOGHHPDF@Po@ DB 'Po', 00H			; `string'
CONST	ENDS
;	COMDAT ??_C@_02NIDNNILD@Pi@
CONST	SEGMENT
??_C@_02NIDNNILD@Pi@ DB 'Pi', 00H			; `string'
CONST	ENDS
;	COMDAT ??_C@_02FPKFMEHM@Pf@
CONST	SEGMENT
??_C@_02FPKFMEHM@Pf@ DB 'Pf', 00H			; `string'
CONST	ENDS
;	COMDAT ??_C@_02HEIIJHLP@Pe@
CONST	SEGMENT
??_C@_02HEIIJHLP@Pe@ DB 'Pe', 00H			; `string'
CONST	ENDS
;	COMDAT ??_C@_02GNJDKGPO@Pd@
CONST	SEGMENT
??_C@_02GNJDKGPO@Pd@ DB 'Pd', 00H			; `string'
CONST	ENDS
;	COMDAT ??_C@_02CCNCDADJ@Pc@
CONST	SEGMENT
??_C@_02CCNCDADJ@Pc@ DB 'Pc', 00H			; `string'
CONST	ENDS
;	COMDAT ??_C@_01EJNLAFE@P@
CONST	SEGMENT
??_C@_01EJNLAFE@P@ DB 'P', 00H				; `string'
CONST	ENDS
;	COMDAT ??_C@_02JINPPBEP@No@
CONST	SEGMENT
??_C@_02JINPPBEP@No@ DB 'No', 00H			; `string'
CONST	ENDS
;	COMDAT ??_C@_02LDPCKCIM@Nl@
CONST	SEGMENT
??_C@_02LDPCKCIM@Nl@ DB 'Nl', 00H			; `string'
CONST	ENDS
;	COMDAT ??_C@_02HLCLCIIE@Nd@
CONST	SEGMENT
??_C@_02HLCLCIIE@Nd@ DB 'Nd', 00H			; `string'
CONST	ENDS
;	COMDAT ??_C@_01NANMIPIL@N@
CONST	SEGMENT
??_C@_01NANMIPIL@N@ DB 'N', 00H				; `string'
CONST	ENDS
;	COMDAT ??_C@_02IDICHOFH@Mn@
CONST	SEGMENT
??_C@_02IDICHOFH@Mn@ DB 'Mn', 00H			; `string'
CONST	ENDS
;	COMDAT ??_C@_02GAHGKHJM@Me@
CONST	SEGMENT
??_C@_02GAHGKHJM@Me@ DB 'Me', 00H			; `string'
CONST	ENDS
;	COMDAT ??_C@_02DGCMAABK@Mc@
CONST	SEGMENT
??_C@_02DGCMAABK@Mc@ DB 'Mc', 00H			; `string'
CONST	ENDS
;	COMDAT ??_C@_01PLPBNMEI@M@
CONST	SEGMENT
??_C@_01PLPBNMEI@M@ DB 'M', 00H				; `string'
CONST	ENDS
;	COMDAT ??_C@_02CLHGNPPK@Lu@
CONST	SEGMENT
??_C@_02CLHGNPPK@Lu@ DB 'Lu', 00H			; `string'
CONST	ENDS
;	COMDAT ??_C@_02DCGNOOLL@Lt@
CONST	SEGMENT
??_C@_02DCGNOOLL@Lt@ DB 'Lt', 00H			; `string'
CONST	ENDS
;	COMDAT ??_C@_02JLFLCFCB@Lo@
CONST	SEGMENT
??_C@_02JLFLCFCB@Lo@ DB 'Lo', 00H			; `string'
CONST	ENDS
;	COMDAT ??_C@_02KJGNEHKD@Lm@
CONST	SEGMENT
??_C@_02KJGNEHKD@Lm@ DB 'Lm', 00H			; `string'
CONST	ENDS
;	COMDAT ??_C@_02LAHGHGOC@Ll@
CONST	SEGMENT
??_C@_02LAHGHGOC@Ll@ DB 'Ll', 00H			; `string'
CONST	ENDS
;	COMDAT ??_C@_01OCOKONAJ@L@
CONST	SEGMENT
??_C@_01OCOKONAJ@L@ DB 'L', 00H				; `string'
CONST	ENDS
;	COMDAT ??_C@_02HGHADPEB@Cs@
CONST	SEGMENT
??_C@_02HGHADPEB@Cs@ DB 'Cs', 00H			; `string'
CONST	ENDS
;	COMDAT ??_C@_02JAAHGCBM@Co@
CONST	SEGMENT
??_C@_02JAAHGCBM@Co@ DB 'Co', 00H			; `string'
CONST	ENDS
;	COMDAT ??_C@_02EBMFNJFF@Cf@
CONST	SEGMENT
??_C@_02EBMFNJFF@Cf@ DB 'Cf', 00H			; `string'
CONST	ENDS
;	COMDAT ??_C@_02DMLCCNBA@Cc@
CONST	SEGMENT
??_C@_02DMLCCNBA@Cc@ DB 'Cc', 00H			; `string'
CONST	ENDS
;	COMDAT ??_C@_01GFHCPBMG@C@
CONST	SEGMENT
??_C@_01GFHCPBMG@C@ DB 'C', 00H				; `string'
CONST	ENDS
_DATA	SEGMENT
_xmlUnicodeCats DD FLAT:??_C@_01GFHCPBMG@C@
	DD	FLAT:_xmlUCSIsCatC
	DD	FLAT:??_C@_02DMLCCNBA@Cc@
	DD	FLAT:_xmlUCSIsCatCc
	DD	FLAT:??_C@_02EBMFNJFF@Cf@
	DD	FLAT:_xmlUCSIsCatCf
	DD	FLAT:??_C@_02JAAHGCBM@Co@
	DD	FLAT:_xmlUCSIsCatCo
	DD	FLAT:??_C@_02HGHADPEB@Cs@
	DD	FLAT:_xmlUCSIsCatCs
	DD	FLAT:??_C@_01OCOKONAJ@L@
	DD	FLAT:_xmlUCSIsCatL
	DD	FLAT:??_C@_02LAHGHGOC@Ll@
	DD	FLAT:_xmlUCSIsCatLl
	DD	FLAT:??_C@_02KJGNEHKD@Lm@
	DD	FLAT:_xmlUCSIsCatLm
	DD	FLAT:??_C@_02JLFLCFCB@Lo@
	DD	FLAT:_xmlUCSIsCatLo
	DD	FLAT:??_C@_02DCGNOOLL@Lt@
	DD	FLAT:_xmlUCSIsCatLt
	DD	FLAT:??_C@_02CLHGNPPK@Lu@
	DD	FLAT:_xmlUCSIsCatLu
	DD	FLAT:??_C@_01PLPBNMEI@M@
	DD	FLAT:_xmlUCSIsCatM
	DD	FLAT:??_C@_02DGCMAABK@Mc@
	DD	FLAT:_xmlUCSIsCatMc
	DD	FLAT:??_C@_02GAHGKHJM@Me@
	DD	FLAT:_xmlUCSIsCatMe
	DD	FLAT:??_C@_02IDICHOFH@Mn@
	DD	FLAT:_xmlUCSIsCatMn
	DD	FLAT:??_C@_01NANMIPIL@N@
	DD	FLAT:_xmlUCSIsCatN
	DD	FLAT:??_C@_02HLCLCIIE@Nd@
	DD	FLAT:_xmlUCSIsCatNd
	DD	FLAT:??_C@_02LDPCKCIM@Nl@
	DD	FLAT:_xmlUCSIsCatNl
	DD	FLAT:??_C@_02JINPPBEP@No@
	DD	FLAT:_xmlUCSIsCatNo
	DD	FLAT:??_C@_01EJNLAFE@P@
	DD	FLAT:_xmlUCSIsCatP
	DD	FLAT:??_C@_02CCNCDADJ@Pc@
	DD	FLAT:_xmlUCSIsCatPc
	DD	FLAT:??_C@_02GNJDKGPO@Pd@
	DD	FLAT:_xmlUCSIsCatPd
	DD	FLAT:??_C@_02HEIIJHLP@Pe@
	DD	FLAT:_xmlUCSIsCatPe
	DD	FLAT:??_C@_02FPKFMEHM@Pf@
	DD	FLAT:_xmlUCSIsCatPf
	DD	FLAT:??_C@_02NIDNNILD@Pi@
	DD	FLAT:_xmlUCSIsCatPi
	DD	FLAT:??_C@_02IOGHHPDF@Po@
	DD	FLAT:_xmlUCSIsCatPo
	DD	FLAT:??_C@_02GIBACCGI@Ps@
	DD	FLAT:_xmlUCSIsCatPs
	DD	FLAT:??_C@_01CPLAODJH@S@
	DD	FLAT:_xmlUCSIsCatS
	DD	FLAT:??_C@_02CAJEIOGA@Sc@
	DD	FLAT:_xmlUCSIsCatSc
	DD	FLAT:??_C@_02OIENAEGI@Sk@
	DD	FLAT:_xmlUCSIsCatSk
	DD	FLAT:??_C@_02LOBHKDOO@Sm@
	DD	FLAT:_xmlUCSIsCatSm
	DD	FLAT:??_C@_02IMCBMBGM@So@
	DD	FLAT:_xmlUCSIsCatSo
	DD	FLAT:??_C@_01POHCFINO@Z@
	DD	FLAT:_xmlUCSIsCatZ
	DD	FLAT:??_C@_02KINNKJCA@Zl@
	DD	FLAT:_xmlUCSIsCatZl
	DD	FLAT:??_C@_02EOKKPEHN@Zp@
	DD	FLAT:_xmlUCSIsCatZp
	DD	FLAT:??_C@_02GFIHKHLO@Zs@
	DD	FLAT:_xmlUCSIsCatZs
_DATA	ENDS
;	COMDAT ??_C@_0BG@LPBLNMOL@YijingHexagramSymbols@
CONST	SEGMENT
??_C@_0BG@LPBLNMOL@YijingHexagramSymbols@ DB 'YijingHexagramSymbols', 00H ; `string'
CONST	ENDS
;	COMDAT ??_C@_0M@NALELJIH@YiSyllables@
CONST	SEGMENT
??_C@_0M@NALELJIH@YiSyllables@ DB 'YiSyllables', 00H	; `string'
CONST	ENDS
;	COMDAT ??_C@_0L@LCEJPIDD@YiRadicals@
CONST	SEGMENT
??_C@_0L@LCEJPIDD@YiRadicals@ DB 'YiRadicals', 00H	; `string'
CONST	ENDS
;	COMDAT ??_C@_0BN@DIKICAGH@VariationSelectorsSupplement@
CONST	SEGMENT
??_C@_0BN@DIKICAGH@VariationSelectorsSupplement@ DB 'VariationSelectorsSu'
	DB	'pplement', 00H				; `string'
CONST	ENDS
;	COMDAT ??_C@_0BD@MLEDBAOK@VariationSelectors@
CONST	SEGMENT
??_C@_0BD@MLEDBAOK@VariationSelectors@ DB 'VariationSelectors', 00H ; `string'
CONST	ENDS
;	COMDAT ??_C@_0CD@ONMKCCHG@UnifiedCanadianAboriginalSyllab@
CONST	SEGMENT
??_C@_0CD@ONMKCCHG@UnifiedCanadianAboriginalSyllab@ DB 'UnifiedCanadianAb'
	DB	'originalSyllabics', 00H			; `string'
CONST	ENDS
;	COMDAT ??_C@_08OJJPEHGN@Ugaritic@
CONST	SEGMENT
??_C@_08OJJPEHGN@Ugaritic@ DB 'Ugaritic', 00H		; `string'
CONST	ENDS
;	COMDAT ??_C@_07BHEHFCAF@Tibetan@
CONST	SEGMENT
??_C@_07BHEHFCAF@Tibetan@ DB 'Tibetan', 00H		; `string'
CONST	ENDS
;	COMDAT ??_C@_04PHPGMPPM@Thai@
CONST	SEGMENT
??_C@_04PHPGMPPM@Thai@ DB 'Thai', 00H			; `string'
CONST	ENDS
;	COMDAT ??_C@_06EIMJBCEF@Thaana@
CONST	SEGMENT
??_C@_06EIMJBCEF@Thaana@ DB 'Thaana', 00H		; `string'
CONST	ENDS
;	COMDAT ??_C@_06PCMDOJDI@Telugu@
CONST	SEGMENT
??_C@_06PCMDOJDI@Telugu@ DB 'Telugu', 00H		; `string'
CONST	ENDS
;	COMDAT ??_C@_05DKHCLBJK@Tamil@
CONST	SEGMENT
??_C@_05DKHCLBJK@Tamil@ DB 'Tamil', 00H			; `string'
CONST	ENDS
;	COMDAT ??_C@_0BD@DGPDEDFN@TaiXuanJingSymbols@
CONST	SEGMENT
??_C@_0BD@DGPDEDFN@TaiXuanJingSymbols@ DB 'TaiXuanJingSymbols', 00H ; `string'
CONST	ENDS
;	COMDAT ??_C@_05FKFEBJIP@TaiLe@
CONST	SEGMENT
??_C@_05FKFEBJIP@TaiLe@ DB 'TaiLe', 00H			; `string'
CONST	ENDS
;	COMDAT ??_C@_04DOFOAGBP@Tags@
CONST	SEGMENT
??_C@_04DOFOAGBP@Tags@ DB 'Tags', 00H			; `string'
CONST	ENDS
;	COMDAT ??_C@_08HDNHHNMK@Tagbanwa@
CONST	SEGMENT
??_C@_08HDNHHNMK@Tagbanwa@ DB 'Tagbanwa', 00H		; `string'
CONST	ENDS
;	COMDAT ??_C@_07MPBEMCCC@Tagalog@
CONST	SEGMENT
??_C@_07MPBEMCCC@Tagalog@ DB 'Tagalog', 00H		; `string'
CONST	ENDS
;	COMDAT ??_C@_06JOHKBNPH@Syriac@
CONST	SEGMENT
??_C@_06JOHKBNPH@Syriac@ DB 'Syriac', 00H		; `string'
CONST	ENDS
;	COMDAT ??_C@_0BO@HBCGOJKH@SupplementaryPrivateUseArea?9B@
CONST	SEGMENT
??_C@_0BO@HBCGOJKH@SupplementaryPrivateUseArea?9B@ DB 'SupplementaryPriva'
	DB	'teUseArea-B', 00H				; `string'
CONST	ENDS
;	COMDAT ??_C@_0BO@FKALLKGE@SupplementaryPrivateUseArea?9A@
CONST	SEGMENT
??_C@_0BO@FKALLKGE@SupplementaryPrivateUseArea?9A@ DB 'SupplementaryPriva'
	DB	'teUseArea-A', 00H				; `string'
CONST	ENDS
;	COMDAT ??_C@_0CC@MPJJEAJL@SupplementalMathematicalOperato@
CONST	SEGMENT
??_C@_0CC@MPJJEAJL@SupplementalMathematicalOperato@ DB 'SupplementalMathe'
	DB	'maticalOperators', 00H			; `string'
CONST	ENDS
;	COMDAT ??_C@_0BF@NABGBHGI@SupplementalArrows?9B@
CONST	SEGMENT
??_C@_0BF@NABGBHGI@SupplementalArrows?9B@ DB 'SupplementalArrows-B', 00H ; `string'
CONST	ENDS
;	COMDAT ??_C@_0BF@PLDLEEKL@SupplementalArrows?9A@
CONST	SEGMENT
??_C@_0BF@PLDLEEKL@SupplementalArrows?9A@ DB 'SupplementalArrows-A', 00H ; `string'
CONST	ENDS
;	COMDAT ??_C@_0BK@LMFBJMHO@SuperscriptsandSubscripts@
CONST	SEGMENT
??_C@_0BK@LMFBJMHO@SuperscriptsandSubscripts@ DB 'SuperscriptsandSubscrip'
	DB	'ts', 00H					; `string'
CONST	ENDS
;	COMDAT ??_C@_08PLPAIEOP@Specials@
CONST	SEGMENT
??_C@_08PLPAIEOP@Specials@ DB 'Specials', 00H		; `string'
CONST	ENDS
;	COMDAT ??_C@_0BH@DMBOKNML@SpacingModifierLetters@
CONST	SEGMENT
??_C@_0BH@DMBOKNML@SpacingModifierLetters@ DB 'SpacingModifierLetters', 00H ; `string'
CONST	ENDS
;	COMDAT ??_C@_0BC@BFGADBGB@SmallFormVariants@
CONST	SEGMENT
??_C@_0BC@BFGADBGB@SmallFormVariants@ DB 'SmallFormVariants', 00H ; `string'
CONST	ENDS
;	COMDAT ??_C@_07HKFHHHOH@Sinhala@
CONST	SEGMENT
??_C@_07HKFHHHOH@Sinhala@ DB 'Sinhala', 00H		; `string'
CONST	ENDS
;	COMDAT ??_C@_07LIFCEABG@Shavian@
CONST	SEGMENT
??_C@_07LIFCEABG@Shavian@ DB 'Shavian', 00H		; `string'
CONST	ENDS
;	COMDAT ??_C@_05OMGGNAOE@Runic@
CONST	SEGMENT
??_C@_05OMGGNAOE@Runic@ DB 'Runic', 00H			; `string'
CONST	ENDS
;	COMDAT ??_C@_0P@JJIJNAKP@PrivateUseArea@
CONST	SEGMENT
??_C@_0P@JJIJNAKP@PrivateUseArea@ DB 'PrivateUseArea', 00H ; `string'
CONST	ENDS
;	COMDAT ??_C@_0L@NKMLCPLK@PrivateUse@
CONST	SEGMENT
??_C@_0L@NKMLCPLK@PrivateUse@ DB 'PrivateUse', 00H	; `string'
CONST	ENDS
;	COMDAT ??_C@_0BD@ODJFALAH@PhoneticExtensions@
CONST	SEGMENT
??_C@_0BD@ODJFALAH@PhoneticExtensions@ DB 'PhoneticExtensions', 00H ; `string'
CONST	ENDS
;	COMDAT ??_C@_07FLOHPBBB@Osmanya@
CONST	SEGMENT
??_C@_07FLOHPBBB@Osmanya@ DB 'Osmanya', 00H		; `string'
CONST	ENDS
;	COMDAT ??_C@_05FCMJOEPK@Oriya@
CONST	SEGMENT
??_C@_05FCMJOEPK@Oriya@ DB 'Oriya', 00H			; `string'
CONST	ENDS
;	COMDAT ??_C@_0BM@MKILNNIL@OpticalCharacterRecognition@
CONST	SEGMENT
??_C@_0BM@MKILNNIL@OpticalCharacterRecognition@ DB 'OpticalCharacterRecog'
	DB	'nition', 00H				; `string'
CONST	ENDS
;	COMDAT ??_C@_09GGLGKF@OldItalic@
CONST	SEGMENT
??_C@_09GGLGKF@OldItalic@ DB 'OldItalic', 00H		; `string'
CONST	ENDS
;	COMDAT ??_C@_05PMPFCGKJ@Ogham@
CONST	SEGMENT
??_C@_05PMPFCGKJ@Ogham@ DB 'Ogham', 00H			; `string'
CONST	ENDS
;	COMDAT ??_C@_0M@CADFPJEM@NumberForms@
CONST	SEGMENT
??_C@_0M@CADFPJEM@NumberForms@ DB 'NumberForms', 00H	; `string'
CONST	ENDS
;	COMDAT ??_C@_07CJEPOCDM@Myanmar@
CONST	SEGMENT
??_C@_07CJEPOCDM@Myanmar@ DB 'Myanmar', 00H		; `string'
CONST	ENDS
;	COMDAT ??_C@_0P@FMMPCFAF@MusicalSymbols@
CONST	SEGMENT
??_C@_0P@FMMPCFAF@MusicalSymbols@ DB 'MusicalSymbols', 00H ; `string'
CONST	ENDS
;	COMDAT ??_C@_09COLOONHK@Mongolian@
CONST	SEGMENT
??_C@_09COLOONHK@Mongolian@ DB 'Mongolian', 00H		; `string'
CONST	ENDS
;	COMDAT ??_C@_0BH@OJJKGJKB@MiscellaneousTechnical@
CONST	SEGMENT
??_C@_0BH@OJJKGJKB@MiscellaneousTechnical@ DB 'MiscellaneousTechnical', 00H ; `string'
CONST	ENDS
;	COMDAT ??_C@_0BO@CAMMNKDM@MiscellaneousSymbolsandArrows@
CONST	SEGMENT
??_C@_0BO@CAMMNKDM@MiscellaneousSymbolsandArrows@ DB 'MiscellaneousSymbol'
	DB	'sandArrows', 00H				; `string'
CONST	ENDS
;	COMDAT ??_C@_0BF@GBEKAJJD@MiscellaneousSymbols@
CONST	SEGMENT
??_C@_0BF@GBEKAJJD@MiscellaneousSymbols@ DB 'MiscellaneousSymbols', 00H ; `string'
CONST	ENDS
;	COMDAT ??_C@_0CD@ELNMKCFD@MiscellaneousMathematicalSymbol@
CONST	SEGMENT
??_C@_0CD@ELNMKCFD@MiscellaneousMathematicalSymbol@ DB 'MiscellaneousMath'
	DB	'ematicalSymbols-B', 00H			; `string'
CONST	ENDS
;	COMDAT ??_C@_0CD@GAPBPBJA@MiscellaneousMathematicalSymbol@
CONST	SEGMENT
??_C@_0CD@GAPBPBJA@MiscellaneousMathematicalSymbol@ DB 'MiscellaneousMath'
	DB	'ematicalSymbols-A', 00H			; `string'
CONST	ENDS
;	COMDAT ??_C@_0BG@PCHNGHOP@MathematicalOperators@
CONST	SEGMENT
??_C@_0BG@PCHNGHOP@MathematicalOperators@ DB 'MathematicalOperators', 00H ; `string'
CONST	ENDS
;	COMDAT ??_C@_0CA@OFLLOOBF@MathematicalAlphanumericSymbols@
CONST	SEGMENT
??_C@_0CA@OFLLOOBF@MathematicalAlphanumericSymbols@ DB 'MathematicalAlpha'
	DB	'numericSymbols', 00H			; `string'
CONST	ENDS
;	COMDAT ??_C@_09PGGFICGJ@Malayalam@
CONST	SEGMENT
??_C@_09PGGFICGJ@Malayalam@ DB 'Malayalam', 00H		; `string'
CONST	ENDS
;	COMDAT ??_C@_0O@JPELEGJF@LowSurrogates@
CONST	SEGMENT
??_C@_0O@JPELEGJF@LowSurrogates@ DB 'LowSurrogates', 00H ; `string'
CONST	ENDS
;	COMDAT ??_C@_0BB@OHEOENGH@LinearBSyllabary@
CONST	SEGMENT
??_C@_0BB@OHEOENGH@LinearBSyllabary@ DB 'LinearBSyllabary', 00H ; `string'
CONST	ENDS
;	COMDAT ??_C@_0BB@PPMGIAIO@LinearBIdeograms@
CONST	SEGMENT
??_C@_0BB@PPMGIAIO@LinearBIdeograms@ DB 'LinearBIdeograms', 00H ; `string'
CONST	ENDS
;	COMDAT ??_C@_05HCNCDMFE@Limbu@
CONST	SEGMENT
??_C@_05HCNCDMFE@Limbu@ DB 'Limbu', 00H			; `string'
CONST	ENDS
;	COMDAT ??_C@_0BC@GBDPOII@LetterlikeSymbols@
CONST	SEGMENT
??_C@_0BC@GBDPOII@LetterlikeSymbols@ DB 'LetterlikeSymbols', 00H ; `string'
CONST	ENDS
;	COMDAT ??_C@_0BI@IIJPGEML@LatinExtendedAdditional@
CONST	SEGMENT
??_C@_0BI@IIJPGEML@LatinExtendedAdditional@ DB 'LatinExtendedAdditional', 00H ; `string'
CONST	ENDS
;	COMDAT ??_C@_0BA@PCHOAKAD@LatinExtended?9B@
CONST	SEGMENT
??_C@_0BA@PCHOAKAD@LatinExtended?9B@ DB 'LatinExtended-B', 00H ; `string'
CONST	ENDS
;	COMDAT ??_C@_0BA@NJFDFJMA@LatinExtended?9A@
CONST	SEGMENT
??_C@_0BA@NJFDFJMA@LatinExtended?9A@ DB 'LatinExtended-A', 00H ; `string'
CONST	ENDS
;	COMDAT ??_C@_0BC@BEPAHCBP@Latin?91Supplement@
CONST	SEGMENT
??_C@_0BC@BEPAHCBP@Latin?91Supplement@ DB 'Latin-1Supplement', 00H ; `string'
CONST	ENDS
;	COMDAT ??_C@_03KEAJBBBJ@Lao@
CONST	SEGMENT
??_C@_03KEAJBBBJ@Lao@ DB 'Lao', 00H			; `string'
CONST	ENDS
;	COMDAT ??_C@_0N@CFBBNEIL@KhmerSymbols@
CONST	SEGMENT
??_C@_0N@CFBBNEIL@KhmerSymbols@ DB 'KhmerSymbols', 00H	; `string'
CONST	ENDS
;	COMDAT ??_C@_05BILJKFBO@Khmer@
CONST	SEGMENT
??_C@_05BILJKFBO@Khmer@ DB 'Khmer', 00H			; `string'
CONST	ENDS
;	COMDAT ??_C@_0BL@HDMJHNGP@KatakanaPhoneticExtensions@
CONST	SEGMENT
??_C@_0BL@HDMJHNGP@KatakanaPhoneticExtensions@ DB 'KatakanaPhoneticExtens'
	DB	'ions', 00H					; `string'
CONST	ENDS
;	COMDAT ??_C@_08NBCIJEJP@Katakana@
CONST	SEGMENT
??_C@_08NBCIJEJP@Katakana@ DB 'Katakana', 00H		; `string'
CONST	ENDS
;	COMDAT ??_C@_07GHLFLHAG@Kannada@
CONST	SEGMENT
??_C@_07GHLFLHAG@Kannada@ DB 'Kannada', 00H		; `string'
CONST	ENDS
;	COMDAT ??_C@_0P@OEANPKJK@KangxiRadicals@
CONST	SEGMENT
??_C@_0P@OEANPKJK@KangxiRadicals@ DB 'KangxiRadicals', 00H ; `string'
CONST	ENDS
;	COMDAT ??_C@_06PJFOMHML@Kanbun@
CONST	SEGMENT
??_C@_06PJFOMHML@Kanbun@ DB 'Kanbun', 00H		; `string'
CONST	ENDS
;	COMDAT ??_C@_0CB@GLBDCFOE@IdeographicDescriptionCharacter@
CONST	SEGMENT
??_C@_0CB@GLBDCFOE@IdeographicDescriptionCharacter@ DB 'IdeographicDescri'
	DB	'ptionCharacters', 00H			; `string'
CONST	ENDS
;	COMDAT ??_C@_0O@PDCBHIAB@IPAExtensions@
CONST	SEGMENT
??_C@_0O@PDCBHIAB@IPAExtensions@ DB 'IPAExtensions', 00H ; `string'
CONST	ENDS
;	COMDAT ??_C@_08JNGAGLNE@Hiragana@
CONST	SEGMENT
??_C@_08JNGAGLNE@Hiragana@ DB 'Hiragana', 00H		; `string'
CONST	ENDS
;	COMDAT ??_C@_0P@PBBJDMBK@HighSurrogates@
CONST	SEGMENT
??_C@_0P@PBBJDMBK@HighSurrogates@ DB 'HighSurrogates', 00H ; `string'
CONST	ENDS
;	COMDAT ??_C@_0BJ@HBDKBEJH@HighPrivateUseSurrogates@
CONST	SEGMENT
??_C@_0BJ@HBDKBEJH@HighPrivateUseSurrogates@ DB 'HighPrivateUseSurrogates'
	DB	00H						; `string'
CONST	ENDS
;	COMDAT ??_C@_06EBOICPLG@Hebrew@
CONST	SEGMENT
??_C@_06EBOICPLG@Hebrew@ DB 'Hebrew', 00H		; `string'
CONST	ENDS
;	COMDAT ??_C@_07DELPMEEP@Hanunoo@
CONST	SEGMENT
??_C@_07DELPMEEP@Hanunoo@ DB 'Hanunoo', 00H		; `string'
CONST	ENDS
;	COMDAT ??_C@_0BA@LJNIPPJH@HangulSyllables@
CONST	SEGMENT
??_C@_0BA@LJNIPPJH@HangulSyllables@ DB 'HangulSyllables', 00H ; `string'
CONST	ENDS
;	COMDAT ??_C@_0L@HKIMOFFL@HangulJamo@
CONST	SEGMENT
??_C@_0L@HKIMOFFL@HangulJamo@ DB 'HangulJamo', 00H	; `string'
CONST	ENDS
;	COMDAT ??_C@_0BI@ICEMECJJ@HangulCompatibilityJamo@
CONST	SEGMENT
??_C@_0BI@ICEMECJJ@HangulCompatibilityJamo@ DB 'HangulCompatibilityJamo', 00H ; `string'
CONST	ENDS
;	COMDAT ??_C@_0BL@FHCDEOHA@HalfwidthandFullwidthForms@
CONST	SEGMENT
??_C@_0BL@FHCDEOHA@HalfwidthandFullwidthForms@ DB 'HalfwidthandFullwidthF'
	DB	'orms', 00H					; `string'
CONST	ENDS
;	COMDAT ??_C@_08KHMGJCCG@Gurmukhi@
CONST	SEGMENT
??_C@_08KHMGJCCG@Gurmukhi@ DB 'Gurmukhi', 00H		; `string'
CONST	ENDS
;	COMDAT ??_C@_08EMJEOGJE@Gujarati@
CONST	SEGMENT
??_C@_08EMJEOGJE@Gujarati@ DB 'Gujarati', 00H		; `string'
CONST	ENDS
;	COMDAT ??_C@_0P@MEDCMKCD@GreekandCoptic@
CONST	SEGMENT
??_C@_0P@MEDCMKCD@GreekandCoptic@ DB 'GreekandCoptic', 00H ; `string'
CONST	ENDS
;	COMDAT ??_C@_0O@BOIIGEIP@GreekExtended@
CONST	SEGMENT
??_C@_0O@BOIIGEIP@GreekExtended@ DB 'GreekExtended', 00H ; `string'
CONST	ENDS
;	COMDAT ??_C@_05BLJPGLLB@Greek@
CONST	SEGMENT
??_C@_05BLJPGLLB@Greek@ DB 'Greek', 00H			; `string'
CONST	ENDS
;	COMDAT ??_C@_06OBILIHNB@Gothic@
CONST	SEGMENT
??_C@_06OBILIHNB@Gothic@ DB 'Gothic', 00H		; `string'
CONST	ENDS
;	COMDAT ??_C@_08NPENEPGM@Georgian@
CONST	SEGMENT
??_C@_08NPENEPGM@Georgian@ DB 'Georgian', 00H		; `string'
CONST	ENDS
;	COMDAT ??_C@_0BA@PDAHJMFL@GeometricShapes@
CONST	SEGMENT
??_C@_0BA@PDAHJMFL@GeometricShapes@ DB 'GeometricShapes', 00H ; `string'
CONST	ENDS
;	COMDAT ??_C@_0BD@MFMNMEDO@GeneralPunctuation@
CONST	SEGMENT
??_C@_0BD@MFMNMEDO@GeneralPunctuation@ DB 'GeneralPunctuation', 00H ; `string'
CONST	ENDS
;	COMDAT ??_C@_08ELMAOGKI@Ethiopic@
CONST	SEGMENT
??_C@_08ELMAOGKI@Ethiopic@ DB 'Ethiopic', 00H		; `string'
CONST	ENDS
;	COMDAT ??_C@_0BM@CEMNPAPN@EnclosedCJKLettersandMonths@
CONST	SEGMENT
??_C@_0BM@CEMNPAPN@EnclosedCJKLettersandMonths@ DB 'EnclosedCJKLettersand'
	DB	'Months', 00H				; `string'
CONST	ENDS
;	COMDAT ??_C@_0BG@DBKOIOFC@EnclosedAlphanumerics@
CONST	SEGMENT
??_C@_0BG@DBKOIOFC@EnclosedAlphanumerics@ DB 'EnclosedAlphanumerics', 00H ; `string'
CONST	ENDS
;	COMDAT ??_C@_08KMNGFEGC@Dingbats@
CONST	SEGMENT
??_C@_08KMNGFEGC@Dingbats@ DB 'Dingbats', 00H		; `string'
CONST	ENDS
;	COMDAT ??_C@_0L@JDMENJM@Devanagari@
CONST	SEGMENT
??_C@_0L@JDMENJM@Devanagari@ DB 'Devanagari', 00H	; `string'
CONST	ENDS
;	COMDAT ??_C@_07PGJJNFLP@Deseret@
CONST	SEGMENT
??_C@_07PGJJNFLP@Deseret@ DB 'Deseret', 00H		; `string'
CONST	ENDS
;	COMDAT ??_C@_0BD@EJJGAMF@CyrillicSupplement@
CONST	SEGMENT
??_C@_0BD@EJJGAMF@CyrillicSupplement@ DB 'CyrillicSupplement', 00H ; `string'
CONST	ENDS
;	COMDAT ??_C@_08DNBONLIE@Cyrillic@
CONST	SEGMENT
??_C@_08DNBONLIE@Cyrillic@ DB 'Cyrillic', 00H		; `string'
CONST	ENDS
;	COMDAT ??_C@_0BB@GFOOOPJK@CypriotSyllabary@
CONST	SEGMENT
??_C@_0BB@GFOOOPJK@CypriotSyllabary@ DB 'CypriotSyllabary', 00H ; `string'
CONST	ENDS
;	COMDAT ??_C@_0BA@PHFIOGCJ@CurrencySymbols@
CONST	SEGMENT
??_C@_0BA@PHFIOGCJ@CurrencySymbols@ DB 'CurrencySymbols', 00H ; `string'
CONST	ENDS
;	COMDAT ??_C@_0BA@NCNIOCBD@ControlPictures@
CONST	SEGMENT
??_C@_0BA@NCNIOCBD@ControlPictures@ DB 'ControlPictures', 00H ; `string'
CONST	ENDS
;	COMDAT ??_C@_0BJ@FMOJDMGL@CombiningMarksforSymbols@
CONST	SEGMENT
??_C@_0BJ@FMOJDMGL@CombiningMarksforSymbols@ DB 'CombiningMarksforSymbols'
	DB	00H						; `string'
CONST	ENDS
;	COMDAT ??_C@_0BD@HICCDHNL@CombiningHalfMarks@
CONST	SEGMENT
??_C@_0BD@HICCDHNL@CombiningHalfMarks@ DB 'CombiningHalfMarks', 00H ; `string'
CONST	ENDS
;	COMDAT ??_C@_0CE@CJONMFBG@CombiningDiacriticalMarksforSym@
CONST	SEGMENT
??_C@_0CE@CJONMFBG@CombiningDiacriticalMarksforSym@ DB 'CombiningDiacriti'
	DB	'calMarksforSymbols', 00H			; `string'
CONST	ENDS
;	COMDAT ??_C@_0BK@JLHHMODB@CombiningDiacriticalMarks@
CONST	SEGMENT
??_C@_0BK@JLHHMODB@CombiningDiacriticalMarks@ DB 'CombiningDiacriticalMar'
	DB	'ks', 00H					; `string'
CONST	ENDS
;	COMDAT ??_C@_08MDFAKGKC@Cherokee@
CONST	SEGMENT
??_C@_08MDFAKGKC@Cherokee@ DB 'Cherokee', 00H		; `string'
CONST	ENDS
;	COMDAT ??_C@_0BP@OIBJBEC@CJKUnifiedIdeographsExtensionB@
CONST	SEGMENT
??_C@_0BP@OIBJBEC@CJKUnifiedIdeographsExtensionB@ DB 'CJKUnifiedIdeograph'
	DB	'sExtensionB', 00H				; `string'
CONST	ENDS
;	COMDAT ??_C@_0BP@CFKMMCIB@CJKUnifiedIdeographsExtensionA@
CONST	SEGMENT
??_C@_0BP@CFKMMCIB@CJKUnifiedIdeographsExtensionA@ DB 'CJKUnifiedIdeograp'
	DB	'hsExtensionA', 00H				; `string'
CONST	ENDS
;	COMDAT ??_C@_0BF@IHIIFJKH@CJKUnifiedIdeographs@
CONST	SEGMENT
??_C@_0BF@IHIIFJKH@CJKUnifiedIdeographs@ DB 'CJKUnifiedIdeographs', 00H ; `string'
CONST	ENDS
;	COMDAT ??_C@_0BJ@EFEOOODB@CJKSymbolsandPunctuation@
CONST	SEGMENT
??_C@_0BJ@EFEOOODB@CJKSymbolsandPunctuation@ DB 'CJKSymbolsandPunctuation'
	DB	00H						; `string'
CONST	ENDS
;	COMDAT ??_C@_0BG@IKBGCED@CJKRadicalsSupplement@
CONST	SEGMENT
??_C@_0BG@IKBGCED@CJKRadicalsSupplement@ DB 'CJKRadicalsSupplement', 00H ; `string'
CONST	ENDS
;	COMDAT ??_C@_0CF@MHMLFJAF@CJKCompatibilityIdeographsSuppl@
CONST	SEGMENT
??_C@_0CF@MHMLFJAF@CJKCompatibilityIdeographsSuppl@ DB 'CJKCompatibilityI'
	DB	'deographsSupplement', 00H			; `string'
CONST	ENDS
;	COMDAT ??_C@_0BL@MLINLEIB@CJKCompatibilityIdeographs@
CONST	SEGMENT
??_C@_0BL@MLINLEIB@CJKCompatibilityIdeographs@ DB 'CJKCompatibilityIdeogr'
	DB	'aphs', 00H					; `string'
CONST	ENDS
;	COMDAT ??_C@_0BG@JEEDBNFG@CJKCompatibilityForms@
CONST	SEGMENT
??_C@_0BG@JEEDBNFG@CJKCompatibilityForms@ DB 'CJKCompatibilityForms', 00H ; `string'
CONST	ENDS
;	COMDAT ??_C@_0BB@HCHPCGJM@CJKCompatibility@
CONST	SEGMENT
??_C@_0BB@HCHPCGJM@CJKCompatibility@ DB 'CJKCompatibility', 00H ; `string'
CONST	ENDS
;	COMDAT ??_C@_0BI@DCACHAG@ByzantineMusicalSymbols@
CONST	SEGMENT
??_C@_0BI@DCACHAG@ByzantineMusicalSymbols@ DB 'ByzantineMusicalSymbols', 00H ; `string'
CONST	ENDS
;	COMDAT ??_C@_05IFJKBLGE@Buhid@
CONST	SEGMENT
??_C@_05IFJKBLGE@Buhid@ DB 'Buhid', 00H			; `string'
CONST	ENDS
;	COMDAT ??_C@_0BA@PMJEFOCM@BraillePatterns@
CONST	SEGMENT
??_C@_0BA@PMJEFOCM@BraillePatterns@ DB 'BraillePatterns', 00H ; `string'
CONST	ENDS
;	COMDAT ??_C@_0L@BGKJOPL@BoxDrawing@
CONST	SEGMENT
??_C@_0L@BGKJOPL@BoxDrawing@ DB 'BoxDrawing', 00H	; `string'
CONST	ENDS
;	COMDAT ??_C@_0BB@CJCFBCMM@BopomofoExtended@
CONST	SEGMENT
??_C@_0BB@CJCFBCMM@BopomofoExtended@ DB 'BopomofoExtended', 00H ; `string'
CONST	ENDS
;	COMDAT ??_C@_08FJELILDA@Bopomofo@
CONST	SEGMENT
??_C@_08FJELILDA@Bopomofo@ DB 'Bopomofo', 00H		; `string'
CONST	ENDS
;	COMDAT ??_C@_0O@DEJDEMI@BlockElements@
CONST	SEGMENT
??_C@_0O@DEJDEMI@BlockElements@ DB 'BlockElements', 00H	; `string'
CONST	ENDS
;	COMDAT ??_C@_07EHGPDBPP@Bengali@
CONST	SEGMENT
??_C@_07EHGPDBPP@Bengali@ DB 'Bengali', 00H		; `string'
CONST	ENDS
;	COMDAT ??_C@_0L@BMEAIGCM@BasicLatin@
CONST	SEGMENT
??_C@_0L@BMEAIGCM@BasicLatin@ DB 'BasicLatin', 00H	; `string'
CONST	ENDS
;	COMDAT ??_C@_06HDPOPCJM@Arrows@
CONST	SEGMENT
??_C@_06HDPOPCJM@Arrows@ DB 'Arrows', 00H		; `string'
CONST	ENDS
;	COMDAT ??_C@_08FOHFEPKP@Armenian@
CONST	SEGMENT
??_C@_08FOHFEPKP@Armenian@ DB 'Armenian', 00H		; `string'
CONST	ENDS
;	COMDAT ??_C@_0BK@FAJJEABF@ArabicPresentationForms?9B@
CONST	SEGMENT
??_C@_0BK@FAJJEABF@ArabicPresentationForms?9B@ DB 'ArabicPresentationForm'
	DB	's-B', 00H					; `string'
CONST	ENDS
;	COMDAT ??_C@_0BK@HLLEBDNG@ArabicPresentationForms?9A@
CONST	SEGMENT
??_C@_0BK@HLLEBDNG@ArabicPresentationForms?9A@ DB 'ArabicPresentationForm'
	DB	's-A', 00H					; `string'
CONST	ENDS
;	COMDAT ??_C@_06PKKOFLDI@Arabic@
CONST	SEGMENT
??_C@_06PKKOFLDI@Arabic@ DB 'Arabic', 00H		; `string'
CONST	ENDS
;	COMDAT ??_C@_0BM@FHILPEHD@AlphabeticPresentationForms@
CONST	SEGMENT
??_C@_0BM@FHILPEHD@AlphabeticPresentationForms@ DB 'AlphabeticPresentatio'
	DB	'nForms', 00H				; `string'
CONST	ENDS
;	COMDAT ??_C@_0O@LMKDPFLH@AegeanNumbers@
CONST	SEGMENT
??_C@_0O@LMKDPFLH@AegeanNumbers@ DB 'AegeanNumbers', 00H ; `string'
CONST	ENDS
CONST	SEGMENT
_xmlUnicodeBlocks DD FLAT:??_C@_0O@LMKDPFLH@AegeanNumbers@
	DD	FLAT:_xmlUCSIsAegeanNumbers
	DD	FLAT:??_C@_0BM@FHILPEHD@AlphabeticPresentationForms@
	DD	FLAT:_xmlUCSIsAlphabeticPresentationForms
	DD	FLAT:??_C@_06PKKOFLDI@Arabic@
	DD	FLAT:_xmlUCSIsArabic
	DD	FLAT:??_C@_0BK@HLLEBDNG@ArabicPresentationForms?9A@
	DD	FLAT:_xmlUCSIsArabicPresentationFormsA
	DD	FLAT:??_C@_0BK@FAJJEABF@ArabicPresentationForms?9B@
	DD	FLAT:_xmlUCSIsArabicPresentationFormsB
	DD	FLAT:??_C@_08FOHFEPKP@Armenian@
	DD	FLAT:_xmlUCSIsArmenian
	DD	FLAT:??_C@_06HDPOPCJM@Arrows@
	DD	FLAT:_xmlUCSIsArrows
	DD	FLAT:??_C@_0L@BMEAIGCM@BasicLatin@
	DD	FLAT:_xmlUCSIsBasicLatin
	DD	FLAT:??_C@_07EHGPDBPP@Bengali@
	DD	FLAT:_xmlUCSIsBengali
	DD	FLAT:??_C@_0O@DEJDEMI@BlockElements@
	DD	FLAT:_xmlUCSIsBlockElements
	DD	FLAT:??_C@_08FJELILDA@Bopomofo@
	DD	FLAT:_xmlUCSIsBopomofo
	DD	FLAT:??_C@_0BB@CJCFBCMM@BopomofoExtended@
	DD	FLAT:_xmlUCSIsBopomofoExtended
	DD	FLAT:??_C@_0L@BGKJOPL@BoxDrawing@
	DD	FLAT:_xmlUCSIsBoxDrawing
	DD	FLAT:??_C@_0BA@PMJEFOCM@BraillePatterns@
	DD	FLAT:_xmlUCSIsBraillePatterns
	DD	FLAT:??_C@_05IFJKBLGE@Buhid@
	DD	FLAT:_xmlUCSIsBuhid
	DD	FLAT:??_C@_0BI@DCACHAG@ByzantineMusicalSymbols@
	DD	FLAT:_xmlUCSIsByzantineMusicalSymbols
	DD	FLAT:??_C@_0BB@HCHPCGJM@CJKCompatibility@
	DD	FLAT:_xmlUCSIsCJKCompatibility
	DD	FLAT:??_C@_0BG@JEEDBNFG@CJKCompatibilityForms@
	DD	FLAT:_xmlUCSIsCJKCompatibilityForms
	DD	FLAT:??_C@_0BL@MLINLEIB@CJKCompatibilityIdeographs@
	DD	FLAT:_xmlUCSIsCJKCompatibilityIdeographs
	DD	FLAT:??_C@_0CF@MHMLFJAF@CJKCompatibilityIdeographsSuppl@
	DD	FLAT:_xmlUCSIsCJKCompatibilityIdeographsSupplement
	DD	FLAT:??_C@_0BG@IKBGCED@CJKRadicalsSupplement@
	DD	FLAT:_xmlUCSIsCJKRadicalsSupplement
	DD	FLAT:??_C@_0BJ@EFEOOODB@CJKSymbolsandPunctuation@
	DD	FLAT:_xmlUCSIsCJKSymbolsandPunctuation
	DD	FLAT:??_C@_0BF@IHIIFJKH@CJKUnifiedIdeographs@
	DD	FLAT:_xmlUCSIsCJKUnifiedIdeographs
	DD	FLAT:??_C@_0BP@CFKMMCIB@CJKUnifiedIdeographsExtensionA@
	DD	FLAT:_xmlUCSIsCJKUnifiedIdeographsExtensionA
	DD	FLAT:??_C@_0BP@OIBJBEC@CJKUnifiedIdeographsExtensionB@
	DD	FLAT:_xmlUCSIsCJKUnifiedIdeographsExtensionB
	DD	FLAT:??_C@_08MDFAKGKC@Cherokee@
	DD	FLAT:_xmlUCSIsCherokee
	DD	FLAT:??_C@_0BK@JLHHMODB@CombiningDiacriticalMarks@
	DD	FLAT:_xmlUCSIsCombiningDiacriticalMarks
	DD	FLAT:??_C@_0CE@CJONMFBG@CombiningDiacriticalMarksforSym@
	DD	FLAT:_xmlUCSIsCombiningDiacriticalMarksforSymbols
	DD	FLAT:??_C@_0BD@HICCDHNL@CombiningHalfMarks@
	DD	FLAT:_xmlUCSIsCombiningHalfMarks
	DD	FLAT:??_C@_0BJ@FMOJDMGL@CombiningMarksforSymbols@
	DD	FLAT:_xmlUCSIsCombiningMarksforSymbols
	DD	FLAT:??_C@_0BA@NCNIOCBD@ControlPictures@
	DD	FLAT:_xmlUCSIsControlPictures
	DD	FLAT:??_C@_0BA@PHFIOGCJ@CurrencySymbols@
	DD	FLAT:_xmlUCSIsCurrencySymbols
	DD	FLAT:??_C@_0BB@GFOOOPJK@CypriotSyllabary@
	DD	FLAT:_xmlUCSIsCypriotSyllabary
	DD	FLAT:??_C@_08DNBONLIE@Cyrillic@
	DD	FLAT:_xmlUCSIsCyrillic
	DD	FLAT:??_C@_0BD@EJJGAMF@CyrillicSupplement@
	DD	FLAT:_xmlUCSIsCyrillicSupplement
	DD	FLAT:??_C@_07PGJJNFLP@Deseret@
	DD	FLAT:_xmlUCSIsDeseret
	DD	FLAT:??_C@_0L@JDMENJM@Devanagari@
	DD	FLAT:_xmlUCSIsDevanagari
	DD	FLAT:??_C@_08KMNGFEGC@Dingbats@
	DD	FLAT:_xmlUCSIsDingbats
	DD	FLAT:??_C@_0BG@DBKOIOFC@EnclosedAlphanumerics@
	DD	FLAT:_xmlUCSIsEnclosedAlphanumerics
	DD	FLAT:??_C@_0BM@CEMNPAPN@EnclosedCJKLettersandMonths@
	DD	FLAT:_xmlUCSIsEnclosedCJKLettersandMonths
	DD	FLAT:??_C@_08ELMAOGKI@Ethiopic@
	DD	FLAT:_xmlUCSIsEthiopic
	DD	FLAT:??_C@_0BD@MFMNMEDO@GeneralPunctuation@
	DD	FLAT:_xmlUCSIsGeneralPunctuation
	DD	FLAT:??_C@_0BA@PDAHJMFL@GeometricShapes@
	DD	FLAT:_xmlUCSIsGeometricShapes
	DD	FLAT:??_C@_08NPENEPGM@Georgian@
	DD	FLAT:_xmlUCSIsGeorgian
	DD	FLAT:??_C@_06OBILIHNB@Gothic@
	DD	FLAT:_xmlUCSIsGothic
	DD	FLAT:??_C@_05BLJPGLLB@Greek@
	DD	FLAT:_xmlUCSIsGreek
	DD	FLAT:??_C@_0O@BOIIGEIP@GreekExtended@
	DD	FLAT:_xmlUCSIsGreekExtended
	DD	FLAT:??_C@_0P@MEDCMKCD@GreekandCoptic@
	DD	FLAT:_xmlUCSIsGreekandCoptic
	DD	FLAT:??_C@_08EMJEOGJE@Gujarati@
	DD	FLAT:_xmlUCSIsGujarati
	DD	FLAT:??_C@_08KHMGJCCG@Gurmukhi@
	DD	FLAT:_xmlUCSIsGurmukhi
	DD	FLAT:??_C@_0BL@FHCDEOHA@HalfwidthandFullwidthForms@
	DD	FLAT:_xmlUCSIsHalfwidthandFullwidthForms
	DD	FLAT:??_C@_0BI@ICEMECJJ@HangulCompatibilityJamo@
	DD	FLAT:_xmlUCSIsHangulCompatibilityJamo
	DD	FLAT:??_C@_0L@HKIMOFFL@HangulJamo@
	DD	FLAT:_xmlUCSIsHangulJamo
	DD	FLAT:??_C@_0BA@LJNIPPJH@HangulSyllables@
	DD	FLAT:_xmlUCSIsHangulSyllables
	DD	FLAT:??_C@_07DELPMEEP@Hanunoo@
	DD	FLAT:_xmlUCSIsHanunoo
	DD	FLAT:??_C@_06EBOICPLG@Hebrew@
	DD	FLAT:_xmlUCSIsHebrew
	DD	FLAT:??_C@_0BJ@HBDKBEJH@HighPrivateUseSurrogates@
	DD	FLAT:_xmlUCSIsHighPrivateUseSurrogates
	DD	FLAT:??_C@_0P@PBBJDMBK@HighSurrogates@
	DD	FLAT:_xmlUCSIsHighSurrogates
	DD	FLAT:??_C@_08JNGAGLNE@Hiragana@
	DD	FLAT:_xmlUCSIsHiragana
	DD	FLAT:??_C@_0O@PDCBHIAB@IPAExtensions@
	DD	FLAT:_xmlUCSIsIPAExtensions
	DD	FLAT:??_C@_0CB@GLBDCFOE@IdeographicDescriptionCharacter@
	DD	FLAT:_xmlUCSIsIdeographicDescriptionCharacters
	DD	FLAT:??_C@_06PJFOMHML@Kanbun@
	DD	FLAT:_xmlUCSIsKanbun
	DD	FLAT:??_C@_0P@OEANPKJK@KangxiRadicals@
	DD	FLAT:_xmlUCSIsKangxiRadicals
	DD	FLAT:??_C@_07GHLFLHAG@Kannada@
	DD	FLAT:_xmlUCSIsKannada
	DD	FLAT:??_C@_08NBCIJEJP@Katakana@
	DD	FLAT:_xmlUCSIsKatakana
	DD	FLAT:??_C@_0BL@HDMJHNGP@KatakanaPhoneticExtensions@
	DD	FLAT:_xmlUCSIsKatakanaPhoneticExtensions
	DD	FLAT:??_C@_05BILJKFBO@Khmer@
	DD	FLAT:_xmlUCSIsKhmer
	DD	FLAT:??_C@_0N@CFBBNEIL@KhmerSymbols@
	DD	FLAT:_xmlUCSIsKhmerSymbols
	DD	FLAT:??_C@_03KEAJBBBJ@Lao@
	DD	FLAT:_xmlUCSIsLao
	DD	FLAT:??_C@_0BC@BEPAHCBP@Latin?91Supplement@
	DD	FLAT:_xmlUCSIsLatin1Supplement
	DD	FLAT:??_C@_0BA@NJFDFJMA@LatinExtended?9A@
	DD	FLAT:_xmlUCSIsLatinExtendedA
	DD	FLAT:??_C@_0BA@PCHOAKAD@LatinExtended?9B@
	DD	FLAT:_xmlUCSIsLatinExtendedB
	DD	FLAT:??_C@_0BI@IIJPGEML@LatinExtendedAdditional@
	DD	FLAT:_xmlUCSIsLatinExtendedAdditional
	DD	FLAT:??_C@_0BC@GBDPOII@LetterlikeSymbols@
	DD	FLAT:_xmlUCSIsLetterlikeSymbols
	DD	FLAT:??_C@_05HCNCDMFE@Limbu@
	DD	FLAT:_xmlUCSIsLimbu
	DD	FLAT:??_C@_0BB@PPMGIAIO@LinearBIdeograms@
	DD	FLAT:_xmlUCSIsLinearBIdeograms
	DD	FLAT:??_C@_0BB@OHEOENGH@LinearBSyllabary@
	DD	FLAT:_xmlUCSIsLinearBSyllabary
	DD	FLAT:??_C@_0O@JPELEGJF@LowSurrogates@
	DD	FLAT:_xmlUCSIsLowSurrogates
	DD	FLAT:??_C@_09PGGFICGJ@Malayalam@
	DD	FLAT:_xmlUCSIsMalayalam
	DD	FLAT:??_C@_0CA@OFLLOOBF@MathematicalAlphanumericSymbols@
	DD	FLAT:_xmlUCSIsMathematicalAlphanumericSymbols
	DD	FLAT:??_C@_0BG@PCHNGHOP@MathematicalOperators@
	DD	FLAT:_xmlUCSIsMathematicalOperators
	DD	FLAT:??_C@_0CD@GAPBPBJA@MiscellaneousMathematicalSymbol@
	DD	FLAT:_xmlUCSIsMiscellaneousMathematicalSymbolsA
	DD	FLAT:??_C@_0CD@ELNMKCFD@MiscellaneousMathematicalSymbol@
	DD	FLAT:_xmlUCSIsMiscellaneousMathematicalSymbolsB
	DD	FLAT:??_C@_0BF@GBEKAJJD@MiscellaneousSymbols@
	DD	FLAT:_xmlUCSIsMiscellaneousSymbols
	DD	FLAT:??_C@_0BO@CAMMNKDM@MiscellaneousSymbolsandArrows@
	DD	FLAT:_xmlUCSIsMiscellaneousSymbolsandArrows
	DD	FLAT:??_C@_0BH@OJJKGJKB@MiscellaneousTechnical@
	DD	FLAT:_xmlUCSIsMiscellaneousTechnical
	DD	FLAT:??_C@_09COLOONHK@Mongolian@
	DD	FLAT:_xmlUCSIsMongolian
	DD	FLAT:??_C@_0P@FMMPCFAF@MusicalSymbols@
	DD	FLAT:_xmlUCSIsMusicalSymbols
	DD	FLAT:??_C@_07CJEPOCDM@Myanmar@
	DD	FLAT:_xmlUCSIsMyanmar
	DD	FLAT:??_C@_0M@CADFPJEM@NumberForms@
	DD	FLAT:_xmlUCSIsNumberForms
	DD	FLAT:??_C@_05PMPFCGKJ@Ogham@
	DD	FLAT:_xmlUCSIsOgham
	DD	FLAT:??_C@_09GGLGKF@OldItalic@
	DD	FLAT:_xmlUCSIsOldItalic
	DD	FLAT:??_C@_0BM@MKILNNIL@OpticalCharacterRecognition@
	DD	FLAT:_xmlUCSIsOpticalCharacterRecognition
	DD	FLAT:??_C@_05FCMJOEPK@Oriya@
	DD	FLAT:_xmlUCSIsOriya
	DD	FLAT:??_C@_07FLOHPBBB@Osmanya@
	DD	FLAT:_xmlUCSIsOsmanya
	DD	FLAT:??_C@_0BD@ODJFALAH@PhoneticExtensions@
	DD	FLAT:_xmlUCSIsPhoneticExtensions
	DD	FLAT:??_C@_0L@NKMLCPLK@PrivateUse@
	DD	FLAT:_xmlUCSIsPrivateUse
	DD	FLAT:??_C@_0P@JJIJNAKP@PrivateUseArea@
	DD	FLAT:_xmlUCSIsPrivateUseArea
	DD	FLAT:??_C@_05OMGGNAOE@Runic@
	DD	FLAT:_xmlUCSIsRunic
	DD	FLAT:??_C@_07LIFCEABG@Shavian@
	DD	FLAT:_xmlUCSIsShavian
	DD	FLAT:??_C@_07HKFHHHOH@Sinhala@
	DD	FLAT:_xmlUCSIsSinhala
	DD	FLAT:??_C@_0BC@BFGADBGB@SmallFormVariants@
	DD	FLAT:_xmlUCSIsSmallFormVariants
	DD	FLAT:??_C@_0BH@DMBOKNML@SpacingModifierLetters@
	DD	FLAT:_xmlUCSIsSpacingModifierLetters
	DD	FLAT:??_C@_08PLPAIEOP@Specials@
	DD	FLAT:_xmlUCSIsSpecials
	DD	FLAT:??_C@_0BK@LMFBJMHO@SuperscriptsandSubscripts@
	DD	FLAT:_xmlUCSIsSuperscriptsandSubscripts
	DD	FLAT:??_C@_0BF@PLDLEEKL@SupplementalArrows?9A@
	DD	FLAT:_xmlUCSIsSupplementalArrowsA
	DD	FLAT:??_C@_0BF@NABGBHGI@SupplementalArrows?9B@
	DD	FLAT:_xmlUCSIsSupplementalArrowsB
	DD	FLAT:??_C@_0CC@MPJJEAJL@SupplementalMathematicalOperato@
	DD	FLAT:_xmlUCSIsSupplementalMathematicalOperators
	DD	FLAT:??_C@_0BO@FKALLKGE@SupplementaryPrivateUseArea?9A@
	DD	FLAT:_xmlUCSIsSupplementaryPrivateUseAreaA
	DD	FLAT:??_C@_0BO@HBCGOJKH@SupplementaryPrivateUseArea?9B@
	DD	FLAT:_xmlUCSIsSupplementaryPrivateUseAreaB
	DD	FLAT:??_C@_06JOHKBNPH@Syriac@
	DD	FLAT:_xmlUCSIsSyriac
	DD	FLAT:??_C@_07MPBEMCCC@Tagalog@
	DD	FLAT:_xmlUCSIsTagalog
	DD	FLAT:??_C@_08HDNHHNMK@Tagbanwa@
	DD	FLAT:_xmlUCSIsTagbanwa
	DD	FLAT:??_C@_04DOFOAGBP@Tags@
	DD	FLAT:_xmlUCSIsTags
	DD	FLAT:??_C@_05FKFEBJIP@TaiLe@
	DD	FLAT:_xmlUCSIsTaiLe
	DD	FLAT:??_C@_0BD@DGPDEDFN@TaiXuanJingSymbols@
	DD	FLAT:_xmlUCSIsTaiXuanJingSymbols
	DD	FLAT:??_C@_05DKHCLBJK@Tamil@
	DD	FLAT:_xmlUCSIsTamil
	DD	FLAT:??_C@_06PCMDOJDI@Telugu@
	DD	FLAT:_xmlUCSIsTelugu
	DD	FLAT:??_C@_06EIMJBCEF@Thaana@
	DD	FLAT:_xmlUCSIsThaana
	DD	FLAT:??_C@_04PHPGMPPM@Thai@
	DD	FLAT:_xmlUCSIsThai
	DD	FLAT:??_C@_07BHEHFCAF@Tibetan@
	DD	FLAT:_xmlUCSIsTibetan
	DD	FLAT:??_C@_08OJJPEHGN@Ugaritic@
	DD	FLAT:_xmlUCSIsUgaritic
	DD	FLAT:??_C@_0CD@ONMKCCHG@UnifiedCanadianAboriginalSyllab@
	DD	FLAT:_xmlUCSIsUnifiedCanadianAboriginalSyllabics
	DD	FLAT:??_C@_0BD@MLEDBAOK@VariationSelectors@
	DD	FLAT:_xmlUCSIsVariationSelectors
	DD	FLAT:??_C@_0BN@DIKICAGH@VariationSelectorsSupplement@
	DD	FLAT:_xmlUCSIsVariationSelectorsSupplement
	DD	FLAT:??_C@_0L@LCEJPIDD@YiRadicals@
	DD	FLAT:_xmlUCSIsYiRadicals
	DD	FLAT:??_C@_0M@NALELJIH@YiSyllables@
	DD	FLAT:_xmlUCSIsYiSyllables
	DD	FLAT:??_C@_0BG@LPBLNMOL@YijingHexagramSymbols@
	DD	FLAT:_xmlUCSIsYijingHexagramSymbols
_xmlCS	DW	00H
	DW	01fH
	DW	07fH
	DW	09fH
	DW	0adH
	DW	0adH
	DW	0600H
	DW	0603H
	DW	06ddH
	DW	06ddH
	DW	070fH
	DW	070fH
	DW	017b4H
	DW	017b5H
	DW	0200bH
	DW	0200fH
	DW	0202aH
	DW	0202eH
	DW	02060H
	DW	02063H
	DW	0206aH
	DW	0206fH
	DW	0d800H
	DW	0d800H
	DW	0db7fH
	DW	0db80H
	DW	0dbffH
	DW	0dc00H
	DW	0dfffH
	DW	0e000H
	DW	0f8ffH
	DW	0f8ffH
	DW	0feffH
	DW	0feffH
	DW	0fff9H
	DW	0fffbH
_xmlCL	DD	01d173H
	DD	01d17aH
	DD	0e0001H
	DD	0e0001H
	DD	0e0020H
	DD	0e007fH
	DD	0f0000H
	DD	0f0000H
	DD	0ffffdH
	DD	0ffffdH
	DD	0100000H
	DD	0100000H
	DD	010fffdH
	DD	010fffdH
_xmlCfS	DW	0adH
	DW	0adH
	DW	0600H
	DW	0603H
	DW	06ddH
	DW	06ddH
	DW	070fH
	DW	070fH
	DW	017b4H
	DW	017b5H
	DW	0200bH
	DW	0200fH
	DW	0202aH
	DW	0202eH
	DW	02060H
	DW	02063H
	DW	0206aH
	DW	0206fH
	DW	0feffH
	DW	0feffH
	DW	0fff9H
	DW	0fffbH
_xmlCfL	DD	01d173H
	DD	01d17aH
	DD	0e0001H
	DD	0e0001H
	DD	0e0020H
	DD	0e007fH
_xmlPdS	DW	02dH
	DW	02dH
	DW	058aH
	DW	058aH
	DW	01806H
	DW	01806H
	DW	02010H
	DW	02015H
	DW	0301cH
	DW	0301cH
	DW	03030H
	DW	03030H
	DW	030a0H
	DW	030a0H
	DW	0fe31H
	DW	0fe32H
	DW	0fe58H
	DW	0fe58H
	DW	0fe63H
	DW	0fe63H
	DW	0ff0dH
	DW	0ff0dH
_xmlLS	DW	041H
	DW	05aH
	DW	061H
	DW	07aH
	DW	0aaH
	DW	0aaH
	DW	0b5H
	DW	0b5H
	DW	0baH
	DW	0baH
	DW	0c0H
	DW	0d6H
	DW	0d8H
	DW	0f6H
	DW	0f8H
	DW	0236H
	DW	0250H
	DW	02c1H
	DW	02c6H
	DW	02d1H
	DW	02e0H
	DW	02e4H
	DW	02eeH
	DW	02eeH
	DW	037aH
	DW	037aH
	DW	0386H
	DW	0386H
	DW	0388H
	DW	038aH
	DW	038cH
	DW	038cH
	DW	038eH
	DW	03a1H
	DW	03a3H
	DW	03ceH
	DW	03d0H
	DW	03f5H
	DW	03f7H
	DW	03fbH
	DW	0400H
	DW	0481H
	DW	048aH
	DW	04ceH
	DW	04d0H
	DW	04f5H
	DW	04f8H
	DW	04f9H
	DW	0500H
	DW	050fH
	DW	0531H
	DW	0556H
	DW	0559H
	DW	0559H
	DW	0561H
	DW	0587H
	DW	05d0H
	DW	05eaH
	DW	05f0H
	DW	05f2H
	DW	0621H
	DW	063aH
	DW	0640H
	DW	064aH
	DW	066eH
	DW	066fH
	DW	0671H
	DW	06d3H
	DW	06d5H
	DW	06d5H
	DW	06e5H
	DW	06e6H
	DW	06eeH
	DW	06efH
	DW	06faH
	DW	06fcH
	DW	06ffH
	DW	06ffH
	DW	0710H
	DW	0710H
	DW	0712H
	DW	072fH
	DW	074dH
	DW	074fH
	DW	0780H
	DW	07a5H
	DW	07b1H
	DW	07b1H
	DW	0904H
	DW	0939H
	DW	093dH
	DW	093dH
	DW	0950H
	DW	0950H
	DW	0958H
	DW	0961H
	DW	0985H
	DW	098cH
	DW	098fH
	DW	0990H
	DW	0993H
	DW	09a8H
	DW	09aaH
	DW	09b0H
	DW	09b2H
	DW	09b2H
	DW	09b6H
	DW	09b9H
	DW	09bdH
	DW	09bdH
	DW	09dcH
	DW	09ddH
	DW	09dfH
	DW	09e1H
	DW	09f0H
	DW	09f1H
	DW	0a05H
	DW	0a0aH
	DW	0a0fH
	DW	0a10H
	DW	0a13H
	DW	0a28H
	DW	0a2aH
	DW	0a30H
	DW	0a32H
	DW	0a33H
	DW	0a35H
	DW	0a36H
	DW	0a38H
	DW	0a39H
	DW	0a59H
	DW	0a5cH
	DW	0a5eH
	DW	0a5eH
	DW	0a72H
	DW	0a74H
	DW	0a85H
	DW	0a8dH
	DW	0a8fH
	DW	0a91H
	DW	0a93H
	DW	0aa8H
	DW	0aaaH
	DW	0ab0H
	DW	0ab2H
	DW	0ab3H
	DW	0ab5H
	DW	0ab9H
	DW	0abdH
	DW	0abdH
	DW	0ad0H
	DW	0ad0H
	DW	0ae0H
	DW	0ae1H
	DW	0b05H
	DW	0b0cH
	DW	0b0fH
	DW	0b10H
	DW	0b13H
	DW	0b28H
	DW	0b2aH
	DW	0b30H
	DW	0b32H
	DW	0b33H
	DW	0b35H
	DW	0b39H
	DW	0b3dH
	DW	0b3dH
	DW	0b5cH
	DW	0b5dH
	DW	0b5fH
	DW	0b61H
	DW	0b71H
	DW	0b71H
	DW	0b83H
	DW	0b83H
	DW	0b85H
	DW	0b8aH
	DW	0b8eH
	DW	0b90H
	DW	0b92H
	DW	0b95H
	DW	0b99H
	DW	0b9aH
	DW	0b9cH
	DW	0b9cH
	DW	0b9eH
	DW	0b9fH
	DW	0ba3H
	DW	0ba4H
	DW	0ba8H
	DW	0baaH
	DW	0baeH
	DW	0bb5H
	DW	0bb7H
	DW	0bb9H
	DW	0c05H
	DW	0c0cH
	DW	0c0eH
	DW	0c10H
	DW	0c12H
	DW	0c28H
	DW	0c2aH
	DW	0c33H
	DW	0c35H
	DW	0c39H
	DW	0c60H
	DW	0c61H
	DW	0c85H
	DW	0c8cH
	DW	0c8eH
	DW	0c90H
	DW	0c92H
	DW	0ca8H
	DW	0caaH
	DW	0cb3H
	DW	0cb5H
	DW	0cb9H
	DW	0cbdH
	DW	0cbdH
	DW	0cdeH
	DW	0cdeH
	DW	0ce0H
	DW	0ce1H
	DW	0d05H
	DW	0d0cH
	DW	0d0eH
	DW	0d10H
	DW	0d12H
	DW	0d28H
	DW	0d2aH
	DW	0d39H
	DW	0d60H
	DW	0d61H
	DW	0d85H
	DW	0d96H
	DW	0d9aH
	DW	0db1H
	DW	0db3H
	DW	0dbbH
	DW	0dbdH
	DW	0dbdH
	DW	0dc0H
	DW	0dc6H
	DW	0e01H
	DW	0e30H
	DW	0e32H
	DW	0e33H
	DW	0e40H
	DW	0e46H
	DW	0e81H
	DW	0e82H
	DW	0e84H
	DW	0e84H
	DW	0e87H
	DW	0e88H
	DW	0e8aH
	DW	0e8aH
	DW	0e8dH
	DW	0e8dH
	DW	0e94H
	DW	0e97H
	DW	0e99H
	DW	0e9fH
	DW	0ea1H
	DW	0ea3H
	DW	0ea5H
	DW	0ea5H
	DW	0ea7H
	DW	0ea7H
	DW	0eaaH
	DW	0eabH
	DW	0eadH
	DW	0eb0H
	DW	0eb2H
	DW	0eb3H
	DW	0ebdH
	DW	0ebdH
	DW	0ec0H
	DW	0ec4H
	DW	0ec6H
	DW	0ec6H
	DW	0edcH
	DW	0eddH
	DW	0f00H
	DW	0f00H
	DW	0f40H
	DW	0f47H
	DW	0f49H
	DW	0f6aH
	DW	0f88H
	DW	0f8bH
	DW	01000H
	DW	01021H
	DW	01023H
	DW	01027H
	DW	01029H
	DW	0102aH
	DW	01050H
	DW	01055H
	DW	010a0H
	DW	010c5H
	DW	010d0H
	DW	010f8H
	DW	01100H
	DW	01159H
	DW	0115fH
	DW	011a2H
	DW	011a8H
	DW	011f9H
	DW	01200H
	DW	01206H
	DW	01208H
	DW	01246H
	DW	01248H
	DW	01248H
	DW	0124aH
	DW	0124dH
	DW	01250H
	DW	01256H
	DW	01258H
	DW	01258H
	DW	0125aH
	DW	0125dH
	DW	01260H
	DW	01286H
	DW	01288H
	DW	01288H
	DW	0128aH
	DW	0128dH
	DW	01290H
	DW	012aeH
	DW	012b0H
	DW	012b0H
	DW	012b2H
	DW	012b5H
	DW	012b8H
	DW	012beH
	DW	012c0H
	DW	012c0H
	DW	012c2H
	DW	012c5H
	DW	012c8H
	DW	012ceH
	DW	012d0H
	DW	012d6H
	DW	012d8H
	DW	012eeH
	DW	012f0H
	DW	0130eH
	DW	01310H
	DW	01310H
	DW	01312H
	DW	01315H
	DW	01318H
	DW	0131eH
	DW	01320H
	DW	01346H
	DW	01348H
	DW	0135aH
	DW	013a0H
	DW	013f4H
	DW	01401H
	DW	0166cH
	DW	0166fH
	DW	01676H
	DW	01681H
	DW	0169aH
	DW	016a0H
	DW	016eaH
	DW	01700H
	DW	0170cH
	DW	0170eH
	DW	01711H
	DW	01720H
	DW	01731H
	DW	01740H
	DW	01751H
	DW	01760H
	DW	0176cH
	DW	0176eH
	DW	01770H
	DW	01780H
	DW	017b3H
	DW	017d7H
	DW	017d7H
	DW	017dcH
	DW	017dcH
	DW	01820H
	DW	01877H
	DW	01880H
	DW	018a8H
	DW	01900H
	DW	0191cH
	DW	01950H
	DW	0196dH
	DW	01970H
	DW	01974H
	DW	01d00H
	DW	01d6bH
	DW	01e00H
	DW	01e9bH
	DW	01ea0H
	DW	01ef9H
	DW	01f00H
	DW	01f15H
	DW	01f18H
	DW	01f1dH
	DW	01f20H
	DW	01f45H
	DW	01f48H
	DW	01f4dH
	DW	01f50H
	DW	01f57H
	DW	01f59H
	DW	01f59H
	DW	01f5bH
	DW	01f5bH
	DW	01f5dH
	DW	01f5dH
	DW	01f5fH
	DW	01f7dH
	DW	01f80H
	DW	01fb4H
	DW	01fb6H
	DW	01fbcH
	DW	01fbeH
	DW	01fbeH
	DW	01fc2H
	DW	01fc4H
	DW	01fc6H
	DW	01fccH
	DW	01fd0H
	DW	01fd3H
	DW	01fd6H
	DW	01fdbH
	DW	01fe0H
	DW	01fecH
	DW	01ff2H
	DW	01ff4H
	DW	01ff6H
	DW	01ffcH
	DW	02071H
	DW	02071H
	DW	0207fH
	DW	0207fH
	DW	02102H
	DW	02102H
	DW	02107H
	DW	02107H
	DW	0210aH
	DW	02113H
	DW	02115H
	DW	02115H
	DW	02119H
	DW	0211dH
	DW	02124H
	DW	02124H
	DW	02126H
	DW	02126H
	DW	02128H
	DW	02128H
	DW	0212aH
	DW	0212dH
	DW	0212fH
	DW	02131H
	DW	02133H
	DW	02139H
	DW	0213dH
	DW	0213fH
	DW	02145H
	DW	02149H
	DW	03005H
	DW	03006H
	DW	03031H
	DW	03035H
	DW	0303bH
	DW	0303cH
	DW	03041H
	DW	03096H
	DW	0309dH
	DW	0309fH
	DW	030a1H
	DW	030faH
	DW	030fcH
	DW	030ffH
	DW	03105H
	DW	0312cH
	DW	03131H
	DW	0318eH
	DW	031a0H
	DW	031b7H
	DW	031f0H
	DW	031ffH
	DW	03400H
	DW	03400H
	DW	04db5H
	DW	04db5H
	DW	04e00H
	DW	04e00H
	DW	09fa5H
	DW	09fa5H
	DW	0a000H
	DW	0a48cH
	DW	0ac00H
	DW	0ac00H
	DW	0d7a3H
	DW	0d7a3H
	DW	0f900H
	DW	0fa2dH
	DW	0fa30H
	DW	0fa6aH
	DW	0fb00H
	DW	0fb06H
	DW	0fb13H
	DW	0fb17H
	DW	0fb1dH
	DW	0fb1dH
	DW	0fb1fH
	DW	0fb28H
	DW	0fb2aH
	DW	0fb36H
	DW	0fb38H
	DW	0fb3cH
	DW	0fb3eH
	DW	0fb3eH
	DW	0fb40H
	DW	0fb41H
	DW	0fb43H
	DW	0fb44H
	DW	0fb46H
	DW	0fbb1H
	DW	0fbd3H
	DW	0fd3dH
	DW	0fd50H
	DW	0fd8fH
	DW	0fd92H
	DW	0fdc7H
	DW	0fdf0H
	DW	0fdfbH
	DW	0fe70H
	DW	0fe74H
	DW	0fe76H
	DW	0fefcH
	DW	0ff21H
	DW	0ff3aH
	DW	0ff41H
	DW	0ff5aH
	DW	0ff66H
	DW	0ffbeH
	DW	0ffc2H
	DW	0ffc7H
	DW	0ffcaH
	DW	0ffcfH
	DW	0ffd2H
	DW	0ffd7H
	DW	0ffdaH
	DW	0ffdcH
_xmlScS	DW	024H
	DW	024H
	DW	0a2H
	DW	0a5H
	DW	09f2H
	DW	09f3H
	DW	0af1H
	DW	0af1H
	DW	0bf9H
	DW	0bf9H
	DW	0e3fH
	DW	0e3fH
	DW	017dbH
	DW	017dbH
	DW	020a0H
	DW	020b1H
	DW	0fdfcH
	DW	0fdfcH
	DW	0fe69H
	DW	0fe69H
	DW	0ff04H
	DW	0ff04H
	DW	0ffe0H
	DW	0ffe1H
	DW	0ffe5H
	DW	0ffe6H
_xmlLL	DD	010000H
	DD	01000bH
	DD	01000dH
	DD	010026H
	DD	010028H
	DD	01003aH
	DD	01003cH
	DD	01003dH
	DD	01003fH
	DD	01004dH
	DD	010050H
	DD	01005dH
	DD	010080H
	DD	0100faH
	DD	010300H
	DD	01031eH
	DD	010330H
	DD	010349H
	DD	010380H
	DD	01039dH
	DD	010400H
	DD	01049dH
	DD	010800H
	DD	010805H
	DD	010808H
	DD	010808H
	DD	01080aH
	DD	010835H
	DD	010837H
	DD	010838H
	DD	01083cH
	DD	01083cH
	DD	01083fH
	DD	01083fH
	DD	01d400H
	DD	01d454H
	DD	01d456H
	DD	01d49cH
	DD	01d49eH
	DD	01d49fH
	DD	01d4a2H
	DD	01d4a2H
	DD	01d4a5H
	DD	01d4a6H
	DD	01d4a9H
	DD	01d4acH
	DD	01d4aeH
	DD	01d4b9H
	DD	01d4bbH
	DD	01d4bbH
	DD	01d4bdH
	DD	01d4c3H
	DD	01d4c5H
	DD	01d505H
	DD	01d507H
	DD	01d50aH
	DD	01d50dH
	DD	01d514H
	DD	01d516H
	DD	01d51cH
	DD	01d51eH
	DD	01d539H
	DD	01d53bH
	DD	01d53eH
	DD	01d540H
	DD	01d544H
	DD	01d546H
	DD	01d546H
	DD	01d54aH
	DD	01d550H
	DD	01d552H
	DD	01d6a3H
	DD	01d6a8H
	DD	01d6c0H
	DD	01d6c2H
	DD	01d6daH
	DD	01d6dcH
	DD	01d6faH
	DD	01d6fcH
	DD	01d714H
	DD	01d716H
	DD	01d734H
	DD	01d736H
	DD	01d74eH
	DD	01d750H
	DD	01d76eH
	DD	01d770H
	DD	01d788H
	DD	01d78aH
	DD	01d7a8H
	DD	01d7aaH
	DD	01d7c2H
	DD	01d7c4H
	DD	01d7c9H
	DD	020000H
	DD	020000H
	DD	02a6d6H
	DD	02a6d6H
	DD	02f800H
	DD	02fa1dH
_xmlLlS	DW	061H
	DW	07aH
	DW	0aaH
	DW	0aaH
	DW	0b5H
	DW	0b5H
	DW	0baH
	DW	0baH
	DW	0dfH
	DW	0f6H
	DW	0f8H
	DW	0ffH
	DW	0101H
	DW	0101H
	DW	0103H
	DW	0103H
	DW	0105H
	DW	0105H
	DW	0107H
	DW	0107H
	DW	0109H
	DW	0109H
	DW	010bH
	DW	010bH
	DW	010dH
	DW	010dH
	DW	010fH
	DW	010fH
	DW	0111H
	DW	0111H
	DW	0113H
	DW	0113H
	DW	0115H
	DW	0115H
	DW	0117H
	DW	0117H
	DW	0119H
	DW	0119H
	DW	011bH
	DW	011bH
	DW	011dH
	DW	011dH
	DW	011fH
	DW	011fH
	DW	0121H
	DW	0121H
	DW	0123H
	DW	0123H
	DW	0125H
	DW	0125H
	DW	0127H
	DW	0127H
	DW	0129H
	DW	0129H
	DW	012bH
	DW	012bH
	DW	012dH
	DW	012dH
	DW	012fH
	DW	012fH
	DW	0131H
	DW	0131H
	DW	0133H
	DW	0133H
	DW	0135H
	DW	0135H
	DW	0137H
	DW	0138H
	DW	013aH
	DW	013aH
	DW	013cH
	DW	013cH
	DW	013eH
	DW	013eH
	DW	0140H
	DW	0140H
	DW	0142H
	DW	0142H
	DW	0144H
	DW	0144H
	DW	0146H
	DW	0146H
	DW	0148H
	DW	0149H
	DW	014bH
	DW	014bH
	DW	014dH
	DW	014dH
	DW	014fH
	DW	014fH
	DW	0151H
	DW	0151H
	DW	0153H
	DW	0153H
	DW	0155H
	DW	0155H
	DW	0157H
	DW	0157H
	DW	0159H
	DW	0159H
	DW	015bH
	DW	015bH
	DW	015dH
	DW	015dH
	DW	015fH
	DW	015fH
	DW	0161H
	DW	0161H
	DW	0163H
	DW	0163H
	DW	0165H
	DW	0165H
	DW	0167H
	DW	0167H
	DW	0169H
	DW	0169H
	DW	016bH
	DW	016bH
	DW	016dH
	DW	016dH
	DW	016fH
	DW	016fH
	DW	0171H
	DW	0171H
	DW	0173H
	DW	0173H
	DW	0175H
	DW	0175H
	DW	0177H
	DW	0177H
	DW	017aH
	DW	017aH
	DW	017cH
	DW	017cH
	DW	017eH
	DW	0180H
	DW	0183H
	DW	0183H
	DW	0185H
	DW	0185H
	DW	0188H
	DW	0188H
	DW	018cH
	DW	018dH
	DW	0192H
	DW	0192H
	DW	0195H
	DW	0195H
	DW	0199H
	DW	019bH
	DW	019eH
	DW	019eH
	DW	01a1H
	DW	01a1H
	DW	01a3H
	DW	01a3H
	DW	01a5H
	DW	01a5H
	DW	01a8H
	DW	01a8H
	DW	01aaH
	DW	01abH
	DW	01adH
	DW	01adH
	DW	01b0H
	DW	01b0H
	DW	01b4H
	DW	01b4H
	DW	01b6H
	DW	01b6H
	DW	01b9H
	DW	01baH
	DW	01bdH
	DW	01bfH
	DW	01c6H
	DW	01c6H
	DW	01c9H
	DW	01c9H
	DW	01ccH
	DW	01ccH
	DW	01ceH
	DW	01ceH
	DW	01d0H
	DW	01d0H
	DW	01d2H
	DW	01d2H
	DW	01d4H
	DW	01d4H
	DW	01d6H
	DW	01d6H
	DW	01d8H
	DW	01d8H
	DW	01daH
	DW	01daH
	DW	01dcH
	DW	01ddH
	DW	01dfH
	DW	01dfH
	DW	01e1H
	DW	01e1H
	DW	01e3H
	DW	01e3H
	DW	01e5H
	DW	01e5H
	DW	01e7H
	DW	01e7H
	DW	01e9H
	DW	01e9H
	DW	01ebH
	DW	01ebH
	DW	01edH
	DW	01edH
	DW	01efH
	DW	01f0H
	DW	01f3H
	DW	01f3H
	DW	01f5H
	DW	01f5H
	DW	01f9H
	DW	01f9H
	DW	01fbH
	DW	01fbH
	DW	01fdH
	DW	01fdH
	DW	01ffH
	DW	01ffH
	DW	0201H
	DW	0201H
	DW	0203H
	DW	0203H
	DW	0205H
	DW	0205H
	DW	0207H
	DW	0207H
	DW	0209H
	DW	0209H
	DW	020bH
	DW	020bH
	DW	020dH
	DW	020dH
	DW	020fH
	DW	020fH
	DW	0211H
	DW	0211H
	DW	0213H
	DW	0213H
	DW	0215H
	DW	0215H
	DW	0217H
	DW	0217H
	DW	0219H
	DW	0219H
	DW	021bH
	DW	021bH
	DW	021dH
	DW	021dH
	DW	021fH
	DW	021fH
	DW	0221H
	DW	0221H
	DW	0223H
	DW	0223H
	DW	0225H
	DW	0225H
	DW	0227H
	DW	0227H
	DW	0229H
	DW	0229H
	DW	022bH
	DW	022bH
	DW	022dH
	DW	022dH
	DW	022fH
	DW	022fH
	DW	0231H
	DW	0231H
	DW	0233H
	DW	0236H
	DW	0250H
	DW	02afH
	DW	0390H
	DW	0390H
	DW	03acH
	DW	03ceH
	DW	03d0H
	DW	03d1H
	DW	03d5H
	DW	03d7H
	DW	03d9H
	DW	03d9H
	DW	03dbH
	DW	03dbH
	DW	03ddH
	DW	03ddH
	DW	03dfH
	DW	03dfH
	DW	03e1H
	DW	03e1H
	DW	03e3H
	DW	03e3H
	DW	03e5H
	DW	03e5H
	DW	03e7H
	DW	03e7H
	DW	03e9H
	DW	03e9H
	DW	03ebH
	DW	03ebH
	DW	03edH
	DW	03edH
	DW	03efH
	DW	03f3H
	DW	03f5H
	DW	03f5H
	DW	03f8H
	DW	03f8H
	DW	03fbH
	DW	03fbH
	DW	0430H
	DW	045fH
	DW	0461H
	DW	0461H
	DW	0463H
	DW	0463H
	DW	0465H
	DW	0465H
	DW	0467H
	DW	0467H
	DW	0469H
	DW	0469H
	DW	046bH
	DW	046bH
	DW	046dH
	DW	046dH
	DW	046fH
	DW	046fH
	DW	0471H
	DW	0471H
	DW	0473H
	DW	0473H
	DW	0475H
	DW	0475H
	DW	0477H
	DW	0477H
	DW	0479H
	DW	0479H
	DW	047bH
	DW	047bH
	DW	047dH
	DW	047dH
	DW	047fH
	DW	047fH
	DW	0481H
	DW	0481H
	DW	048bH
	DW	048bH
	DW	048dH
	DW	048dH
	DW	048fH
	DW	048fH
	DW	0491H
	DW	0491H
	DW	0493H
	DW	0493H
	DW	0495H
	DW	0495H
	DW	0497H
	DW	0497H
	DW	0499H
	DW	0499H
	DW	049bH
	DW	049bH
	DW	049dH
	DW	049dH
	DW	049fH
	DW	049fH
	DW	04a1H
	DW	04a1H
	DW	04a3H
	DW	04a3H
	DW	04a5H
	DW	04a5H
	DW	04a7H
	DW	04a7H
	DW	04a9H
	DW	04a9H
	DW	04abH
	DW	04abH
	DW	04adH
	DW	04adH
	DW	04afH
	DW	04afH
	DW	04b1H
	DW	04b1H
	DW	04b3H
	DW	04b3H
	DW	04b5H
	DW	04b5H
	DW	04b7H
	DW	04b7H
	DW	04b9H
	DW	04b9H
	DW	04bbH
	DW	04bbH
	DW	04bdH
	DW	04bdH
	DW	04bfH
	DW	04bfH
	DW	04c2H
	DW	04c2H
	DW	04c4H
	DW	04c4H
	DW	04c6H
	DW	04c6H
	DW	04c8H
	DW	04c8H
	DW	04caH
	DW	04caH
	DW	04ccH
	DW	04ccH
	DW	04ceH
	DW	04ceH
	DW	04d1H
	DW	04d1H
	DW	04d3H
	DW	04d3H
	DW	04d5H
	DW	04d5H
	DW	04d7H
	DW	04d7H
	DW	04d9H
	DW	04d9H
	DW	04dbH
	DW	04dbH
	DW	04ddH
	DW	04ddH
	DW	04dfH
	DW	04dfH
	DW	04e1H
	DW	04e1H
	DW	04e3H
	DW	04e3H
	DW	04e5H
	DW	04e5H
	DW	04e7H
	DW	04e7H
	DW	04e9H
	DW	04e9H
	DW	04ebH
	DW	04ebH
	DW	04edH
	DW	04edH
	DW	04efH
	DW	04efH
	DW	04f1H
	DW	04f1H
	DW	04f3H
	DW	04f3H
	DW	04f5H
	DW	04f5H
	DW	04f9H
	DW	04f9H
	DW	0501H
	DW	0501H
	DW	0503H
	DW	0503H
	DW	0505H
	DW	0505H
	DW	0507H
	DW	0507H
	DW	0509H
	DW	0509H
	DW	050bH
	DW	050bH
	DW	050dH
	DW	050dH
	DW	050fH
	DW	050fH
	DW	0561H
	DW	0587H
	DW	01d00H
	DW	01d2bH
	DW	01d62H
	DW	01d6bH
	DW	01e01H
	DW	01e01H
	DW	01e03H
	DW	01e03H
	DW	01e05H
	DW	01e05H
	DW	01e07H
	DW	01e07H
	DW	01e09H
	DW	01e09H
	DW	01e0bH
	DW	01e0bH
	DW	01e0dH
	DW	01e0dH
	DW	01e0fH
	DW	01e0fH
	DW	01e11H
	DW	01e11H
	DW	01e13H
	DW	01e13H
	DW	01e15H
	DW	01e15H
	DW	01e17H
	DW	01e17H
	DW	01e19H
	DW	01e19H
	DW	01e1bH
	DW	01e1bH
	DW	01e1dH
	DW	01e1dH
	DW	01e1fH
	DW	01e1fH
	DW	01e21H
	DW	01e21H
	DW	01e23H
	DW	01e23H
	DW	01e25H
	DW	01e25H
	DW	01e27H
	DW	01e27H
	DW	01e29H
	DW	01e29H
	DW	01e2bH
	DW	01e2bH
	DW	01e2dH
	DW	01e2dH
	DW	01e2fH
	DW	01e2fH
	DW	01e31H
	DW	01e31H
	DW	01e33H
	DW	01e33H
	DW	01e35H
	DW	01e35H
	DW	01e37H
	DW	01e37H
	DW	01e39H
	DW	01e39H
	DW	01e3bH
	DW	01e3bH
	DW	01e3dH
	DW	01e3dH
	DW	01e3fH
	DW	01e3fH
	DW	01e41H
	DW	01e41H
	DW	01e43H
	DW	01e43H
	DW	01e45H
	DW	01e45H
	DW	01e47H
	DW	01e47H
	DW	01e49H
	DW	01e49H
	DW	01e4bH
	DW	01e4bH
	DW	01e4dH
	DW	01e4dH
	DW	01e4fH
	DW	01e4fH
	DW	01e51H
	DW	01e51H
	DW	01e53H
	DW	01e53H
	DW	01e55H
	DW	01e55H
	DW	01e57H
	DW	01e57H
	DW	01e59H
	DW	01e59H
	DW	01e5bH
	DW	01e5bH
	DW	01e5dH
	DW	01e5dH
	DW	01e5fH
	DW	01e5fH
	DW	01e61H
	DW	01e61H
	DW	01e63H
	DW	01e63H
	DW	01e65H
	DW	01e65H
	DW	01e67H
	DW	01e67H
	DW	01e69H
	DW	01e69H
	DW	01e6bH
	DW	01e6bH
	DW	01e6dH
	DW	01e6dH
	DW	01e6fH
	DW	01e6fH
	DW	01e71H
	DW	01e71H
	DW	01e73H
	DW	01e73H
	DW	01e75H
	DW	01e75H
	DW	01e77H
	DW	01e77H
	DW	01e79H
	DW	01e79H
	DW	01e7bH
	DW	01e7bH
	DW	01e7dH
	DW	01e7dH
	DW	01e7fH
	DW	01e7fH
	DW	01e81H
	DW	01e81H
	DW	01e83H
	DW	01e83H
	DW	01e85H
	DW	01e85H
	DW	01e87H
	DW	01e87H
	DW	01e89H
	DW	01e89H
	DW	01e8bH
	DW	01e8bH
	DW	01e8dH
	DW	01e8dH
	DW	01e8fH
	DW	01e8fH
	DW	01e91H
	DW	01e91H
	DW	01e93H
	DW	01e93H
	DW	01e95H
	DW	01e9bH
	DW	01ea1H
	DW	01ea1H
	DW	01ea3H
	DW	01ea3H
	DW	01ea5H
	DW	01ea5H
	DW	01ea7H
	DW	01ea7H
	DW	01ea9H
	DW	01ea9H
	DW	01eabH
	DW	01eabH
	DW	01eadH
	DW	01eadH
	DW	01eafH
	DW	01eafH
	DW	01eb1H
	DW	01eb1H
	DW	01eb3H
	DW	01eb3H
	DW	01eb5H
	DW	01eb5H
	DW	01eb7H
	DW	01eb7H
	DW	01eb9H
	DW	01eb9H
	DW	01ebbH
	DW	01ebbH
	DW	01ebdH
	DW	01ebdH
	DW	01ebfH
	DW	01ebfH
	DW	01ec1H
	DW	01ec1H
	DW	01ec3H
	DW	01ec3H
	DW	01ec5H
	DW	01ec5H
	DW	01ec7H
	DW	01ec7H
	DW	01ec9H
	DW	01ec9H
	DW	01ecbH
	DW	01ecbH
	DW	01ecdH
	DW	01ecdH
	DW	01ecfH
	DW	01ecfH
	DW	01ed1H
	DW	01ed1H
	DW	01ed3H
	DW	01ed3H
	DW	01ed5H
	DW	01ed5H
	DW	01ed7H
	DW	01ed7H
	DW	01ed9H
	DW	01ed9H
	DW	01edbH
	DW	01edbH
	DW	01eddH
	DW	01eddH
	DW	01edfH
	DW	01edfH
	DW	01ee1H
	DW	01ee1H
	DW	01ee3H
	DW	01ee3H
	DW	01ee5H
	DW	01ee5H
	DW	01ee7H
	DW	01ee7H
	DW	01ee9H
	DW	01ee9H
	DW	01eebH
	DW	01eebH
	DW	01eedH
	DW	01eedH
	DW	01eefH
	DW	01eefH
	DW	01ef1H
	DW	01ef1H
	DW	01ef3H
	DW	01ef3H
	DW	01ef5H
	DW	01ef5H
	DW	01ef7H
	DW	01ef7H
	DW	01ef9H
	DW	01ef9H
	DW	01f00H
	DW	01f07H
	DW	01f10H
	DW	01f15H
	DW	01f20H
	DW	01f27H
	DW	01f30H
	DW	01f37H
	DW	01f40H
	DW	01f45H
	DW	01f50H
	DW	01f57H
	DW	01f60H
	DW	01f67H
	DW	01f70H
	DW	01f7dH
	DW	01f80H
	DW	01f87H
	DW	01f90H
	DW	01f97H
	DW	01fa0H
	DW	01fa7H
	DW	01fb0H
	DW	01fb4H
	DW	01fb6H
	DW	01fb7H
	DW	01fbeH
	DW	01fbeH
	DW	01fc2H
	DW	01fc4H
	DW	01fc6H
	DW	01fc7H
	DW	01fd0H
	DW	01fd3H
	DW	01fd6H
	DW	01fd7H
	DW	01fe0H
	DW	01fe7H
	DW	01ff2H
	DW	01ff4H
	DW	01ff6H
	DW	01ff7H
	DW	02071H
	DW	02071H
	DW	0207fH
	DW	0207fH
	DW	0210aH
	DW	0210aH
	DW	0210eH
	DW	0210fH
	DW	02113H
	DW	02113H
	DW	0212fH
	DW	0212fH
	DW	02134H
	DW	02134H
	DW	02139H
	DW	02139H
	DW	0213dH
	DW	0213dH
	DW	02146H
	DW	02149H
	DW	0fb00H
	DW	0fb06H
	DW	0fb13H
	DW	0fb17H
	DW	0ff41H
	DW	0ff5aH
_xmlLlL	DD	010428H
	DD	01044fH
	DD	01d41aH
	DD	01d433H
	DD	01d44eH
	DD	01d454H
	DD	01d456H
	DD	01d467H
	DD	01d482H
	DD	01d49bH
	DD	01d4b6H
	DD	01d4b9H
	DD	01d4bbH
	DD	01d4bbH
	DD	01d4bdH
	DD	01d4c3H
	DD	01d4c5H
	DD	01d4cfH
	DD	01d4eaH
	DD	01d503H
	DD	01d51eH
	DD	01d537H
	DD	01d552H
	DD	01d56bH
	DD	01d586H
	DD	01d59fH
	DD	01d5baH
	DD	01d5d3H
	DD	01d5eeH
	DD	01d607H
	DD	01d622H
	DD	01d63bH
	DD	01d656H
	DD	01d66fH
	DD	01d68aH
	DD	01d6a3H
	DD	01d6c2H
	DD	01d6daH
	DD	01d6dcH
	DD	01d6e1H
	DD	01d6fcH
	DD	01d714H
	DD	01d716H
	DD	01d71bH
	DD	01d736H
	DD	01d74eH
	DD	01d750H
	DD	01d755H
	DD	01d770H
	DD	01d788H
	DD	01d78aH
	DD	01d78fH
	DD	01d7aaH
	DD	01d7c2H
	DD	01d7c4H
	DD	01d7c9H
_xmlLmS	DW	02b0H
	DW	02c1H
	DW	02c6H
	DW	02d1H
	DW	02e0H
	DW	02e4H
	DW	02eeH
	DW	02eeH
	DW	037aH
	DW	037aH
	DW	0559H
	DW	0559H
	DW	0640H
	DW	0640H
	DW	06e5H
	DW	06e6H
	DW	0e46H
	DW	0e46H
	DW	0ec6H
	DW	0ec6H
	DW	017d7H
	DW	017d7H
	DW	01843H
	DW	01843H
	DW	01d2cH
	DW	01d61H
	DW	03005H
	DW	03005H
	DW	03031H
	DW	03035H
	DW	0303bH
	DW	0303bH
	DW	0309dH
	DW	0309eH
	DW	030fcH
	DW	030feH
	DW	0ff70H
	DW	0ff70H
	DW	0ff9eH
	DW	0ff9fH
_xmlLoS	DW	01bbH
	DW	01bbH
	DW	01c0H
	DW	01c3H
	DW	05d0H
	DW	05eaH
	DW	05f0H
	DW	05f2H
	DW	0621H
	DW	063aH
	DW	0641H
	DW	064aH
	DW	066eH
	DW	066fH
	DW	0671H
	DW	06d3H
	DW	06d5H
	DW	06d5H
	DW	06eeH
	DW	06efH
	DW	06faH
	DW	06fcH
	DW	06ffH
	DW	06ffH
	DW	0710H
	DW	0710H
	DW	0712H
	DW	072fH
	DW	074dH
	DW	074fH
	DW	0780H
	DW	07a5H
	DW	07b1H
	DW	07b1H
	DW	0904H
	DW	0939H
	DW	093dH
	DW	093dH
	DW	0950H
	DW	0950H
	DW	0958H
	DW	0961H
	DW	0985H
	DW	098cH
	DW	098fH
	DW	0990H
	DW	0993H
	DW	09a8H
	DW	09aaH
	DW	09b0H
	DW	09b2H
	DW	09b2H
	DW	09b6H
	DW	09b9H
	DW	09bdH
	DW	09bdH
	DW	09dcH
	DW	09ddH
	DW	09dfH
	DW	09e1H
	DW	09f0H
	DW	09f1H
	DW	0a05H
	DW	0a0aH
	DW	0a0fH
	DW	0a10H
	DW	0a13H
	DW	0a28H
	DW	0a2aH
	DW	0a30H
	DW	0a32H
	DW	0a33H
	DW	0a35H
	DW	0a36H
	DW	0a38H
	DW	0a39H
	DW	0a59H
	DW	0a5cH
	DW	0a5eH
	DW	0a5eH
	DW	0a72H
	DW	0a74H
	DW	0a85H
	DW	0a8dH
	DW	0a8fH
	DW	0a91H
	DW	0a93H
	DW	0aa8H
	DW	0aaaH
	DW	0ab0H
	DW	0ab2H
	DW	0ab3H
	DW	0ab5H
	DW	0ab9H
	DW	0abdH
	DW	0abdH
	DW	0ad0H
	DW	0ad0H
	DW	0ae0H
	DW	0ae1H
	DW	0b05H
	DW	0b0cH
	DW	0b0fH
	DW	0b10H
	DW	0b13H
	DW	0b28H
	DW	0b2aH
	DW	0b30H
	DW	0b32H
	DW	0b33H
	DW	0b35H
	DW	0b39H
	DW	0b3dH
	DW	0b3dH
	DW	0b5cH
	DW	0b5dH
	DW	0b5fH
	DW	0b61H
	DW	0b71H
	DW	0b71H
	DW	0b83H
	DW	0b83H
	DW	0b85H
	DW	0b8aH
	DW	0b8eH
	DW	0b90H
	DW	0b92H
	DW	0b95H
	DW	0b99H
	DW	0b9aH
	DW	0b9cH
	DW	0b9cH
	DW	0b9eH
	DW	0b9fH
	DW	0ba3H
	DW	0ba4H
	DW	0ba8H
	DW	0baaH
	DW	0baeH
	DW	0bb5H
	DW	0bb7H
	DW	0bb9H
	DW	0c05H
	DW	0c0cH
	DW	0c0eH
	DW	0c10H
	DW	0c12H
	DW	0c28H
	DW	0c2aH
	DW	0c33H
	DW	0c35H
	DW	0c39H
	DW	0c60H
	DW	0c61H
	DW	0c85H
	DW	0c8cH
	DW	0c8eH
	DW	0c90H
	DW	0c92H
	DW	0ca8H
	DW	0caaH
	DW	0cb3H
	DW	0cb5H
	DW	0cb9H
	DW	0cbdH
	DW	0cbdH
	DW	0cdeH
	DW	0cdeH
	DW	0ce0H
	DW	0ce1H
	DW	0d05H
	DW	0d0cH
	DW	0d0eH
	DW	0d10H
	DW	0d12H
	DW	0d28H
	DW	0d2aH
	DW	0d39H
	DW	0d60H
	DW	0d61H
	DW	0d85H
	DW	0d96H
	DW	0d9aH
	DW	0db1H
	DW	0db3H
	DW	0dbbH
	DW	0dbdH
	DW	0dbdH
	DW	0dc0H
	DW	0dc6H
	DW	0e01H
	DW	0e30H
	DW	0e32H
	DW	0e33H
	DW	0e40H
	DW	0e45H
	DW	0e81H
	DW	0e82H
	DW	0e84H
	DW	0e84H
	DW	0e87H
	DW	0e88H
	DW	0e8aH
	DW	0e8aH
	DW	0e8dH
	DW	0e8dH
	DW	0e94H
	DW	0e97H
	DW	0e99H
	DW	0e9fH
	DW	0ea1H
	DW	0ea3H
	DW	0ea5H
	DW	0ea5H
	DW	0ea7H
	DW	0ea7H
	DW	0eaaH
	DW	0eabH
	DW	0eadH
	DW	0eb0H
	DW	0eb2H
	DW	0eb3H
	DW	0ebdH
	DW	0ebdH
	DW	0ec0H
	DW	0ec4H
	DW	0edcH
	DW	0eddH
	DW	0f00H
	DW	0f00H
	DW	0f40H
	DW	0f47H
	DW	0f49H
	DW	0f6aH
	DW	0f88H
	DW	0f8bH
	DW	01000H
	DW	01021H
	DW	01023H
	DW	01027H
	DW	01029H
	DW	0102aH
	DW	01050H
	DW	01055H
	DW	010d0H
	DW	010f8H
	DW	01100H
	DW	01159H
	DW	0115fH
	DW	011a2H
	DW	011a8H
	DW	011f9H
	DW	01200H
	DW	01206H
	DW	01208H
	DW	01246H
	DW	01248H
	DW	01248H
	DW	0124aH
	DW	0124dH
	DW	01250H
	DW	01256H
	DW	01258H
	DW	01258H
	DW	0125aH
	DW	0125dH
	DW	01260H
	DW	01286H
	DW	01288H
	DW	01288H
	DW	0128aH
	DW	0128dH
	DW	01290H
	DW	012aeH
	DW	012b0H
	DW	012b0H
	DW	012b2H
	DW	012b5H
	DW	012b8H
	DW	012beH
	DW	012c0H
	DW	012c0H
	DW	012c2H
	DW	012c5H
	DW	012c8H
	DW	012ceH
	DW	012d0H
	DW	012d6H
	DW	012d8H
	DW	012eeH
	DW	012f0H
	DW	0130eH
	DW	01310H
	DW	01310H
	DW	01312H
	DW	01315H
	DW	01318H
	DW	0131eH
	DW	01320H
	DW	01346H
	DW	01348H
	DW	0135aH
	DW	013a0H
	DW	013f4H
	DW	01401H
	DW	0166cH
	DW	0166fH
	DW	01676H
	DW	01681H
	DW	0169aH
	DW	016a0H
	DW	016eaH
	DW	01700H
	DW	0170cH
	DW	0170eH
	DW	01711H
	DW	01720H
	DW	01731H
	DW	01740H
	DW	01751H
	DW	01760H
	DW	0176cH
	DW	0176eH
	DW	01770H
	DW	01780H
	DW	017b3H
	DW	017dcH
	DW	017dcH
	DW	01820H
	DW	01842H
	DW	01844H
	DW	01877H
	DW	01880H
	DW	018a8H
	DW	01900H
	DW	0191cH
	DW	01950H
	DW	0196dH
	DW	01970H
	DW	01974H
	DW	02135H
	DW	02138H
	DW	03006H
	DW	03006H
	DW	0303cH
	DW	0303cH
	DW	03041H
	DW	03096H
	DW	0309fH
	DW	0309fH
	DW	030a1H
	DW	030faH
	DW	030ffH
	DW	030ffH
	DW	03105H
	DW	0312cH
	DW	03131H
	DW	0318eH
	DW	031a0H
	DW	031b7H
	DW	031f0H
	DW	031ffH
	DW	03400H
	DW	03400H
	DW	04db5H
	DW	04db5H
	DW	04e00H
	DW	04e00H
	DW	09fa5H
	DW	09fa5H
	DW	0a000H
	DW	0a48cH
	DW	0ac00H
	DW	0ac00H
	DW	0d7a3H
	DW	0d7a3H
	DW	0f900H
	DW	0fa2dH
	DW	0fa30H
	DW	0fa6aH
	DW	0fb1dH
	DW	0fb1dH
	DW	0fb1fH
	DW	0fb28H
	DW	0fb2aH
	DW	0fb36H
	DW	0fb38H
	DW	0fb3cH
	DW	0fb3eH
	DW	0fb3eH
	DW	0fb40H
	DW	0fb41H
	DW	0fb43H
	DW	0fb44H
	DW	0fb46H
	DW	0fbb1H
	DW	0fbd3H
	DW	0fd3dH
	DW	0fd50H
	DW	0fd8fH
	DW	0fd92H
	DW	0fdc7H
	DW	0fdf0H
	DW	0fdfbH
	DW	0fe70H
	DW	0fe74H
	DW	0fe76H
	DW	0fefcH
	DW	0ff66H
	DW	0ff6fH
	DW	0ff71H
	DW	0ff9dH
	DW	0ffa0H
	DW	0ffbeH
	DW	0ffc2H
	DW	0ffc7H
	DW	0ffcaH
	DW	0ffcfH
	DW	0ffd2H
	DW	0ffd7H
	DW	0ffdaH
	DW	0ffdcH
_xmlZS	DW	020H
	DW	020H
	DW	0a0H
	DW	0a0H
	DW	01680H
	DW	01680H
	DW	0180eH
	DW	0180eH
	DW	02000H
	DW	0200aH
	DW	02028H
	DW	02029H
	DW	0202fH
	DW	0202fH
	DW	0205fH
	DW	0205fH
	DW	03000H
	DW	03000H
_xmlLoL	DD	010000H
	DD	01000bH
	DD	01000dH
	DD	010026H
	DD	010028H
	DD	01003aH
	DD	01003cH
	DD	01003dH
	DD	01003fH
	DD	01004dH
	DD	010050H
	DD	01005dH
	DD	010080H
	DD	0100faH
	DD	010300H
	DD	01031eH
	DD	010330H
	DD	010349H
	DD	010380H
	DD	01039dH
	DD	010450H
	DD	01049dH
	DD	010800H
	DD	010805H
	DD	010808H
	DD	010808H
	DD	01080aH
	DD	010835H
	DD	010837H
	DD	010838H
	DD	01083cH
	DD	01083cH
	DD	01083fH
	DD	01083fH
	DD	020000H
	DD	020000H
	DD	02a6d6H
	DD	02a6d6H
	DD	02f800H
	DD	02fa1dH
_xmlLtS	DW	01c5H
	DW	01c5H
	DW	01c8H
	DW	01c8H
	DW	01cbH
	DW	01cbH
	DW	01f2H
	DW	01f2H
	DW	01f88H
	DW	01f8fH
	DW	01f98H
	DW	01f9fH
	DW	01fa8H
	DW	01fafH
	DW	01fbcH
	DW	01fbcH
	DW	01fccH
	DW	01fccH
	DW	01ffcH
	DW	01ffcH
_xmlLuS	DW	041H
	DW	05aH
	DW	0c0H
	DW	0d6H
	DW	0d8H
	DW	0deH
	DW	0100H
	DW	0100H
	DW	0102H
	DW	0102H
	DW	0104H
	DW	0104H
	DW	0106H
	DW	0106H
	DW	0108H
	DW	0108H
	DW	010aH
	DW	010aH
	DW	010cH
	DW	010cH
	DW	010eH
	DW	010eH
	DW	0110H
	DW	0110H
	DW	0112H
	DW	0112H
	DW	0114H
	DW	0114H
	DW	0116H
	DW	0116H
	DW	0118H
	DW	0118H
	DW	011aH
	DW	011aH
	DW	011cH
	DW	011cH
	DW	011eH
	DW	011eH
	DW	0120H
	DW	0120H
	DW	0122H
	DW	0122H
	DW	0124H
	DW	0124H
	DW	0126H
	DW	0126H
	DW	0128H
	DW	0128H
	DW	012aH
	DW	012aH
	DW	012cH
	DW	012cH
	DW	012eH
	DW	012eH
	DW	0130H
	DW	0130H
	DW	0132H
	DW	0132H
	DW	0134H
	DW	0134H
	DW	0136H
	DW	0136H
	DW	0139H
	DW	0139H
	DW	013bH
	DW	013bH
	DW	013dH
	DW	013dH
	DW	013fH
	DW	013fH
	DW	0141H
	DW	0141H
	DW	0143H
	DW	0143H
	DW	0145H
	DW	0145H
	DW	0147H
	DW	0147H
	DW	014aH
	DW	014aH
	DW	014cH
	DW	014cH
	DW	014eH
	DW	014eH
	DW	0150H
	DW	0150H
	DW	0152H
	DW	0152H
	DW	0154H
	DW	0154H
	DW	0156H
	DW	0156H
	DW	0158H
	DW	0158H
	DW	015aH
	DW	015aH
	DW	015cH
	DW	015cH
	DW	015eH
	DW	015eH
	DW	0160H
	DW	0160H
	DW	0162H
	DW	0162H
	DW	0164H
	DW	0164H
	DW	0166H
	DW	0166H
	DW	0168H
	DW	0168H
	DW	016aH
	DW	016aH
	DW	016cH
	DW	016cH
	DW	016eH
	DW	016eH
	DW	0170H
	DW	0170H
	DW	0172H
	DW	0172H
	DW	0174H
	DW	0174H
	DW	0176H
	DW	0176H
	DW	0178H
	DW	0179H
	DW	017bH
	DW	017bH
	DW	017dH
	DW	017dH
	DW	0181H
	DW	0182H
	DW	0184H
	DW	0184H
	DW	0186H
	DW	0187H
	DW	0189H
	DW	018bH
	DW	018eH
	DW	0191H
	DW	0193H
	DW	0194H
	DW	0196H
	DW	0198H
	DW	019cH
	DW	019dH
	DW	019fH
	DW	01a0H
	DW	01a2H
	DW	01a2H
	DW	01a4H
	DW	01a4H
	DW	01a6H
	DW	01a7H
	DW	01a9H
	DW	01a9H
	DW	01acH
	DW	01acH
	DW	01aeH
	DW	01afH
	DW	01b1H
	DW	01b3H
	DW	01b5H
	DW	01b5H
	DW	01b7H
	DW	01b8H
	DW	01bcH
	DW	01bcH
	DW	01c4H
	DW	01c4H
	DW	01c7H
	DW	01c7H
	DW	01caH
	DW	01caH
	DW	01cdH
	DW	01cdH
	DW	01cfH
	DW	01cfH
	DW	01d1H
	DW	01d1H
	DW	01d3H
	DW	01d3H
	DW	01d5H
	DW	01d5H
	DW	01d7H
	DW	01d7H
	DW	01d9H
	DW	01d9H
	DW	01dbH
	DW	01dbH
	DW	01deH
	DW	01deH
	DW	01e0H
	DW	01e0H
	DW	01e2H
	DW	01e2H
	DW	01e4H
	DW	01e4H
	DW	01e6H
	DW	01e6H
	DW	01e8H
	DW	01e8H
	DW	01eaH
	DW	01eaH
	DW	01ecH
	DW	01ecH
	DW	01eeH
	DW	01eeH
	DW	01f1H
	DW	01f1H
	DW	01f4H
	DW	01f4H
	DW	01f6H
	DW	01f8H
	DW	01faH
	DW	01faH
	DW	01fcH
	DW	01fcH
	DW	01feH
	DW	01feH
	DW	0200H
	DW	0200H
	DW	0202H
	DW	0202H
	DW	0204H
	DW	0204H
	DW	0206H
	DW	0206H
	DW	0208H
	DW	0208H
	DW	020aH
	DW	020aH
	DW	020cH
	DW	020cH
	DW	020eH
	DW	020eH
	DW	0210H
	DW	0210H
	DW	0212H
	DW	0212H
	DW	0214H
	DW	0214H
	DW	0216H
	DW	0216H
	DW	0218H
	DW	0218H
	DW	021aH
	DW	021aH
	DW	021cH
	DW	021cH
	DW	021eH
	DW	021eH
	DW	0220H
	DW	0220H
	DW	0222H
	DW	0222H
	DW	0224H
	DW	0224H
	DW	0226H
	DW	0226H
	DW	0228H
	DW	0228H
	DW	022aH
	DW	022aH
	DW	022cH
	DW	022cH
	DW	022eH
	DW	022eH
	DW	0230H
	DW	0230H
	DW	0232H
	DW	0232H
	DW	0386H
	DW	0386H
	DW	0388H
	DW	038aH
	DW	038cH
	DW	038cH
	DW	038eH
	DW	038fH
	DW	0391H
	DW	03a1H
	DW	03a3H
	DW	03abH
	DW	03d2H
	DW	03d4H
	DW	03d8H
	DW	03d8H
	DW	03daH
	DW	03daH
	DW	03dcH
	DW	03dcH
	DW	03deH
	DW	03deH
	DW	03e0H
	DW	03e0H
	DW	03e2H
	DW	03e2H
	DW	03e4H
	DW	03e4H
	DW	03e6H
	DW	03e6H
	DW	03e8H
	DW	03e8H
	DW	03eaH
	DW	03eaH
	DW	03ecH
	DW	03ecH
	DW	03eeH
	DW	03eeH
	DW	03f4H
	DW	03f4H
	DW	03f7H
	DW	03f7H
	DW	03f9H
	DW	03faH
	DW	0400H
	DW	042fH
	DW	0460H
	DW	0460H
	DW	0462H
	DW	0462H
	DW	0464H
	DW	0464H
	DW	0466H
	DW	0466H
	DW	0468H
	DW	0468H
	DW	046aH
	DW	046aH
	DW	046cH
	DW	046cH
	DW	046eH
	DW	046eH
	DW	0470H
	DW	0470H
	DW	0472H
	DW	0472H
	DW	0474H
	DW	0474H
	DW	0476H
	DW	0476H
	DW	0478H
	DW	0478H
	DW	047aH
	DW	047aH
	DW	047cH
	DW	047cH
	DW	047eH
	DW	047eH
	DW	0480H
	DW	0480H
	DW	048aH
	DW	048aH
	DW	048cH
	DW	048cH
	DW	048eH
	DW	048eH
	DW	0490H
	DW	0490H
	DW	0492H
	DW	0492H
	DW	0494H
	DW	0494H
	DW	0496H
	DW	0496H
	DW	0498H
	DW	0498H
	DW	049aH
	DW	049aH
	DW	049cH
	DW	049cH
	DW	049eH
	DW	049eH
	DW	04a0H
	DW	04a0H
	DW	04a2H
	DW	04a2H
	DW	04a4H
	DW	04a4H
	DW	04a6H
	DW	04a6H
	DW	04a8H
	DW	04a8H
	DW	04aaH
	DW	04aaH
	DW	04acH
	DW	04acH
	DW	04aeH
	DW	04aeH
	DW	04b0H
	DW	04b0H
	DW	04b2H
	DW	04b2H
	DW	04b4H
	DW	04b4H
	DW	04b6H
	DW	04b6H
	DW	04b8H
	DW	04b8H
	DW	04baH
	DW	04baH
	DW	04bcH
	DW	04bcH
	DW	04beH
	DW	04beH
	DW	04c0H
	DW	04c1H
	DW	04c3H
	DW	04c3H
	DW	04c5H
	DW	04c5H
	DW	04c7H
	DW	04c7H
	DW	04c9H
	DW	04c9H
	DW	04cbH
	DW	04cbH
	DW	04cdH
	DW	04cdH
	DW	04d0H
	DW	04d0H
	DW	04d2H
	DW	04d2H
	DW	04d4H
	DW	04d4H
	DW	04d6H
	DW	04d6H
	DW	04d8H
	DW	04d8H
	DW	04daH
	DW	04daH
	DW	04dcH
	DW	04dcH
	DW	04deH
	DW	04deH
	DW	04e0H
	DW	04e0H
	DW	04e2H
	DW	04e2H
	DW	04e4H
	DW	04e4H
	DW	04e6H
	DW	04e6H
	DW	04e8H
	DW	04e8H
	DW	04eaH
	DW	04eaH
	DW	04ecH
	DW	04ecH
	DW	04eeH
	DW	04eeH
	DW	04f0H
	DW	04f0H
	DW	04f2H
	DW	04f2H
	DW	04f4H
	DW	04f4H
	DW	04f8H
	DW	04f8H
	DW	0500H
	DW	0500H
	DW	0502H
	DW	0502H
	DW	0504H
	DW	0504H
	DW	0506H
	DW	0506H
	DW	0508H
	DW	0508H
	DW	050aH
	DW	050aH
	DW	050cH
	DW	050cH
	DW	050eH
	DW	050eH
	DW	0531H
	DW	0556H
	DW	010a0H
	DW	010c5H
	DW	01e00H
	DW	01e00H
	DW	01e02H
	DW	01e02H
	DW	01e04H
	DW	01e04H
	DW	01e06H
	DW	01e06H
	DW	01e08H
	DW	01e08H
	DW	01e0aH
	DW	01e0aH
	DW	01e0cH
	DW	01e0cH
	DW	01e0eH
	DW	01e0eH
	DW	01e10H
	DW	01e10H
	DW	01e12H
	DW	01e12H
	DW	01e14H
	DW	01e14H
	DW	01e16H
	DW	01e16H
	DW	01e18H
	DW	01e18H
	DW	01e1aH
	DW	01e1aH
	DW	01e1cH
	DW	01e1cH
	DW	01e1eH
	DW	01e1eH
	DW	01e20H
	DW	01e20H
	DW	01e22H
	DW	01e22H
	DW	01e24H
	DW	01e24H
	DW	01e26H
	DW	01e26H
	DW	01e28H
	DW	01e28H
	DW	01e2aH
	DW	01e2aH
	DW	01e2cH
	DW	01e2cH
	DW	01e2eH
	DW	01e2eH
	DW	01e30H
	DW	01e30H
	DW	01e32H
	DW	01e32H
	DW	01e34H
	DW	01e34H
	DW	01e36H
	DW	01e36H
	DW	01e38H
	DW	01e38H
	DW	01e3aH
	DW	01e3aH
	DW	01e3cH
	DW	01e3cH
	DW	01e3eH
	DW	01e3eH
	DW	01e40H
	DW	01e40H
	DW	01e42H
	DW	01e42H
	DW	01e44H
	DW	01e44H
	DW	01e46H
	DW	01e46H
	DW	01e48H
	DW	01e48H
	DW	01e4aH
	DW	01e4aH
	DW	01e4cH
	DW	01e4cH
	DW	01e4eH
	DW	01e4eH
	DW	01e50H
	DW	01e50H
	DW	01e52H
	DW	01e52H
	DW	01e54H
	DW	01e54H
	DW	01e56H
	DW	01e56H
	DW	01e58H
	DW	01e58H
	DW	01e5aH
	DW	01e5aH
	DW	01e5cH
	DW	01e5cH
	DW	01e5eH
	DW	01e5eH
	DW	01e60H
	DW	01e60H
	DW	01e62H
	DW	01e62H
	DW	01e64H
	DW	01e64H
	DW	01e66H
	DW	01e66H
	DW	01e68H
	DW	01e68H
	DW	01e6aH
	DW	01e6aH
	DW	01e6cH
	DW	01e6cH
	DW	01e6eH
	DW	01e6eH
	DW	01e70H
	DW	01e70H
	DW	01e72H
	DW	01e72H
	DW	01e74H
	DW	01e74H
	DW	01e76H
	DW	01e76H
	DW	01e78H
	DW	01e78H
	DW	01e7aH
	DW	01e7aH
	DW	01e7cH
	DW	01e7cH
	DW	01e7eH
	DW	01e7eH
	DW	01e80H
	DW	01e80H
	DW	01e82H
	DW	01e82H
	DW	01e84H
	DW	01e84H
	DW	01e86H
	DW	01e86H
	DW	01e88H
	DW	01e88H
	DW	01e8aH
	DW	01e8aH
	DW	01e8cH
	DW	01e8cH
	DW	01e8eH
	DW	01e8eH
	DW	01e90H
	DW	01e90H
	DW	01e92H
	DW	01e92H
	DW	01e94H
	DW	01e94H
	DW	01ea0H
	DW	01ea0H
	DW	01ea2H
	DW	01ea2H
	DW	01ea4H
	DW	01ea4H
	DW	01ea6H
	DW	01ea6H
	DW	01ea8H
	DW	01ea8H
	DW	01eaaH
	DW	01eaaH
	DW	01eacH
	DW	01eacH
	DW	01eaeH
	DW	01eaeH
	DW	01eb0H
	DW	01eb0H
	DW	01eb2H
	DW	01eb2H
	DW	01eb4H
	DW	01eb4H
	DW	01eb6H
	DW	01eb6H
	DW	01eb8H
	DW	01eb8H
	DW	01ebaH
	DW	01ebaH
	DW	01ebcH
	DW	01ebcH
	DW	01ebeH
	DW	01ebeH
	DW	01ec0H
	DW	01ec0H
	DW	01ec2H
	DW	01ec2H
	DW	01ec4H
	DW	01ec4H
	DW	01ec6H
	DW	01ec6H
	DW	01ec8H
	DW	01ec8H
	DW	01ecaH
	DW	01ecaH
	DW	01eccH
	DW	01eccH
	DW	01eceH
	DW	01eceH
	DW	01ed0H
	DW	01ed0H
	DW	01ed2H
	DW	01ed2H
	DW	01ed4H
	DW	01ed4H
	DW	01ed6H
	DW	01ed6H
	DW	01ed8H
	DW	01ed8H
	DW	01edaH
	DW	01edaH
	DW	01edcH
	DW	01edcH
	DW	01edeH
	DW	01edeH
	DW	01ee0H
	DW	01ee0H
	DW	01ee2H
	DW	01ee2H
	DW	01ee4H
	DW	01ee4H
	DW	01ee6H
	DW	01ee6H
	DW	01ee8H
	DW	01ee8H
	DW	01eeaH
	DW	01eeaH
	DW	01eecH
	DW	01eecH
	DW	01eeeH
	DW	01eeeH
	DW	01ef0H
	DW	01ef0H
	DW	01ef2H
	DW	01ef2H
	DW	01ef4H
	DW	01ef4H
	DW	01ef6H
	DW	01ef6H
	DW	01ef8H
	DW	01ef8H
	DW	01f08H
	DW	01f0fH
	DW	01f18H
	DW	01f1dH
	DW	01f28H
	DW	01f2fH
	DW	01f38H
	DW	01f3fH
	DW	01f48H
	DW	01f4dH
	DW	01f59H
	DW	01f59H
	DW	01f5bH
	DW	01f5bH
	DW	01f5dH
	DW	01f5dH
	DW	01f5fH
	DW	01f5fH
	DW	01f68H
	DW	01f6fH
	DW	01fb8H
	DW	01fbbH
	DW	01fc8H
	DW	01fcbH
	DW	01fd8H
	DW	01fdbH
	DW	01fe8H
	DW	01fecH
	DW	01ff8H
	DW	01ffbH
	DW	02102H
	DW	02102H
	DW	02107H
	DW	02107H
	DW	0210bH
	DW	0210dH
	DW	02110H
	DW	02112H
	DW	02115H
	DW	02115H
	DW	02119H
	DW	0211dH
	DW	02124H
	DW	02124H
	DW	02126H
	DW	02126H
	DW	02128H
	DW	02128H
	DW	0212aH
	DW	0212dH
	DW	02130H
	DW	02131H
	DW	02133H
	DW	02133H
	DW	0213eH
	DW	0213fH
	DW	02145H
	DW	02145H
	DW	0ff21H
	DW	0ff3aH
_xmlLuL	DD	010400H
	DD	010427H
	DD	01d400H
	DD	01d419H
	DD	01d434H
	DD	01d44dH
	DD	01d468H
	DD	01d481H
	DD	01d49cH
	DD	01d49cH
	DD	01d49eH
	DD	01d49fH
	DD	01d4a2H
	DD	01d4a2H
	DD	01d4a5H
	DD	01d4a6H
	DD	01d4a9H
	DD	01d4acH
	DD	01d4aeH
	DD	01d4b5H
	DD	01d4d0H
	DD	01d4e9H
	DD	01d504H
	DD	01d505H
	DD	01d507H
	DD	01d50aH
	DD	01d50dH
	DD	01d514H
	DD	01d516H
	DD	01d51cH
	DD	01d538H
	DD	01d539H
	DD	01d53bH
	DD	01d53eH
	DD	01d540H
	DD	01d544H
	DD	01d546H
	DD	01d546H
	DD	01d54aH
	DD	01d550H
	DD	01d56cH
	DD	01d585H
	DD	01d5a0H
	DD	01d5b9H
	DD	01d5d4H
	DD	01d5edH
	DD	01d608H
	DD	01d621H
	DD	01d63cH
	DD	01d655H
	DD	01d670H
	DD	01d689H
	DD	01d6a8H
	DD	01d6c0H
	DD	01d6e2H
	DD	01d6faH
	DD	01d71cH
	DD	01d734H
	DD	01d756H
	DD	01d76eH
	DD	01d790H
	DD	01d7a8H
_xmlMS	DW	0300H
	DW	0357H
	DW	035dH
	DW	036fH
	DW	0483H
	DW	0486H
	DW	0488H
	DW	0489H
	DW	0591H
	DW	05a1H
	DW	05a3H
	DW	05b9H
	DW	05bbH
	DW	05bdH
	DW	05bfH
	DW	05bfH
	DW	05c1H
	DW	05c2H
	DW	05c4H
	DW	05c4H
	DW	0610H
	DW	0615H
	DW	064bH
	DW	0658H
	DW	0670H
	DW	0670H
	DW	06d6H
	DW	06dcH
	DW	06deH
	DW	06e4H
	DW	06e7H
	DW	06e8H
	DW	06eaH
	DW	06edH
	DW	0711H
	DW	0711H
	DW	0730H
	DW	074aH
	DW	07a6H
	DW	07b0H
	DW	0901H
	DW	0903H
	DW	093cH
	DW	093cH
	DW	093eH
	DW	094dH
	DW	0951H
	DW	0954H
	DW	0962H
	DW	0963H
	DW	0981H
	DW	0983H
	DW	09bcH
	DW	09bcH
	DW	09beH
	DW	09c4H
	DW	09c7H
	DW	09c8H
	DW	09cbH
	DW	09cdH
	DW	09d7H
	DW	09d7H
	DW	09e2H
	DW	09e3H
	DW	0a01H
	DW	0a03H
	DW	0a3cH
	DW	0a3cH
	DW	0a3eH
	DW	0a42H
	DW	0a47H
	DW	0a48H
	DW	0a4bH
	DW	0a4dH
	DW	0a70H
	DW	0a71H
	DW	0a81H
	DW	0a83H
	DW	0abcH
	DW	0abcH
	DW	0abeH
	DW	0ac5H
	DW	0ac7H
	DW	0ac9H
	DW	0acbH
	DW	0acdH
	DW	0ae2H
	DW	0ae3H
	DW	0b01H
	DW	0b03H
	DW	0b3cH
	DW	0b3cH
	DW	0b3eH
	DW	0b43H
	DW	0b47H
	DW	0b48H
	DW	0b4bH
	DW	0b4dH
	DW	0b56H
	DW	0b57H
	DW	0b82H
	DW	0b82H
	DW	0bbeH
	DW	0bc2H
	DW	0bc6H
	DW	0bc8H
	DW	0bcaH
	DW	0bcdH
	DW	0bd7H
	DW	0bd7H
	DW	0c01H
	DW	0c03H
	DW	0c3eH
	DW	0c44H
	DW	0c46H
	DW	0c48H
	DW	0c4aH
	DW	0c4dH
	DW	0c55H
	DW	0c56H
	DW	0c82H
	DW	0c83H
	DW	0cbcH
	DW	0cbcH
	DW	0cbeH
	DW	0cc4H
	DW	0cc6H
	DW	0cc8H
	DW	0ccaH
	DW	0ccdH
	DW	0cd5H
	DW	0cd6H
	DW	0d02H
	DW	0d03H
	DW	0d3eH
	DW	0d43H
	DW	0d46H
	DW	0d48H
	DW	0d4aH
	DW	0d4dH
	DW	0d57H
	DW	0d57H
	DW	0d82H
	DW	0d83H
	DW	0dcaH
	DW	0dcaH
	DW	0dcfH
	DW	0dd4H
	DW	0dd6H
	DW	0dd6H
	DW	0dd8H
	DW	0ddfH
	DW	0df2H
	DW	0df3H
	DW	0e31H
	DW	0e31H
	DW	0e34H
	DW	0e3aH
	DW	0e47H
	DW	0e4eH
	DW	0eb1H
	DW	0eb1H
	DW	0eb4H
	DW	0eb9H
	DW	0ebbH
	DW	0ebcH
	DW	0ec8H
	DW	0ecdH
	DW	0f18H
	DW	0f19H
	DW	0f35H
	DW	0f35H
	DW	0f37H
	DW	0f37H
	DW	0f39H
	DW	0f39H
	DW	0f3eH
	DW	0f3fH
	DW	0f71H
	DW	0f84H
	DW	0f86H
	DW	0f87H
	DW	0f90H
	DW	0f97H
	DW	0f99H
	DW	0fbcH
	DW	0fc6H
	DW	0fc6H
	DW	0102cH
	DW	01032H
	DW	01036H
	DW	01039H
	DW	01056H
	DW	01059H
	DW	01712H
	DW	01714H
	DW	01732H
	DW	01734H
	DW	01752H
	DW	01753H
	DW	01772H
	DW	01773H
	DW	017b6H
	DW	017d3H
	DW	017ddH
	DW	017ddH
	DW	0180bH
	DW	0180dH
	DW	018a9H
	DW	018a9H
	DW	01920H
	DW	0192bH
	DW	01930H
	DW	0193bH
	DW	020d0H
	DW	020eaH
	DW	0302aH
	DW	0302fH
	DW	03099H
	DW	0309aH
	DW	0fb1eH
	DW	0fb1eH
	DW	0fe00H
	DW	0fe0fH
	DW	0fe20H
	DW	0fe23H
_xmlML	DD	01d165H
	DD	01d169H
	DD	01d16dH
	DD	01d172H
	DD	01d17bH
	DD	01d182H
	DD	01d185H
	DD	01d18bH
	DD	01d1aaH
	DD	01d1adH
	DD	0e0100H
	DD	0e01efH
	ORG $+4
_xmlMcS	DW	0903H
	DW	0903H
	DW	093eH
	DW	0940H
	DW	0949H
	DW	094cH
	DW	0982H
	DW	0983H
	DW	09beH
	DW	09c0H
	DW	09c7H
	DW	09c8H
	DW	09cbH
	DW	09ccH
	DW	09d7H
	DW	09d7H
	DW	0a03H
	DW	0a03H
	DW	0a3eH
	DW	0a40H
	DW	0a83H
	DW	0a83H
	DW	0abeH
	DW	0ac0H
	DW	0ac9H
	DW	0ac9H
	DW	0acbH
	DW	0accH
	DW	0b02H
	DW	0b03H
	DW	0b3eH
	DW	0b3eH
	DW	0b40H
	DW	0b40H
	DW	0b47H
	DW	0b48H
	DW	0b4bH
	DW	0b4cH
	DW	0b57H
	DW	0b57H
	DW	0bbeH
	DW	0bbfH
	DW	0bc1H
	DW	0bc2H
	DW	0bc6H
	DW	0bc8H
	DW	0bcaH
	DW	0bccH
	DW	0bd7H
	DW	0bd7H
	DW	0c01H
	DW	0c03H
	DW	0c41H
	DW	0c44H
	DW	0c82H
	DW	0c83H
	DW	0cbeH
	DW	0cbeH
	DW	0cc0H
	DW	0cc4H
	DW	0cc7H
	DW	0cc8H
	DW	0ccaH
	DW	0ccbH
	DW	0cd5H
	DW	0cd6H
	DW	0d02H
	DW	0d03H
	DW	0d3eH
	DW	0d40H
	DW	0d46H
	DW	0d48H
	DW	0d4aH
	DW	0d4cH
	DW	0d57H
	DW	0d57H
	DW	0d82H
	DW	0d83H
	DW	0dcfH
	DW	0dd1H
	DW	0dd8H
	DW	0ddfH
	DW	0df2H
	DW	0df3H
	DW	0f3eH
	DW	0f3fH
	DW	0f7fH
	DW	0f7fH
	DW	0102cH
	DW	0102cH
	DW	01031H
	DW	01031H
	DW	01038H
	DW	01038H
	DW	01056H
	DW	01057H
	DW	017b6H
	DW	017b6H
	DW	017beH
	DW	017c5H
	DW	017c7H
	DW	017c8H
	DW	01923H
	DW	01926H
	DW	01929H
	DW	0192bH
	DW	01930H
	DW	01931H
	DW	01933H
	DW	01938H
_xmlMcL	DD	01d165H
	DD	01d166H
	DD	01d16dH
	DD	01d172H
	ORG $+4
_xmlMnS	DW	0300H
	DW	0357H
	DW	035dH
	DW	036fH
	DW	0483H
	DW	0486H
	DW	0591H
	DW	05a1H
	DW	05a3H
	DW	05b9H
	DW	05bbH
	DW	05bdH
	DW	05bfH
	DW	05bfH
	DW	05c1H
	DW	05c2H
	DW	05c4H
	DW	05c4H
	DW	0610H
	DW	0615H
	DW	064bH
	DW	0658H
	DW	0670H
	DW	0670H
	DW	06d6H
	DW	06dcH
	DW	06dfH
	DW	06e4H
	DW	06e7H
	DW	06e8H
	DW	06eaH
	DW	06edH
	DW	0711H
	DW	0711H
	DW	0730H
	DW	074aH
	DW	07a6H
	DW	07b0H
	DW	0901H
	DW	0902H
	DW	093cH
	DW	093cH
	DW	0941H
	DW	0948H
	DW	094dH
	DW	094dH
	DW	0951H
	DW	0954H
	DW	0962H
	DW	0963H
	DW	0981H
	DW	0981H
	DW	09bcH
	DW	09bcH
	DW	09c1H
	DW	09c4H
	DW	09cdH
	DW	09cdH
	DW	09e2H
	DW	09e3H
	DW	0a01H
	DW	0a02H
	DW	0a3cH
	DW	0a3cH
	DW	0a41H
	DW	0a42H
	DW	0a47H
	DW	0a48H
	DW	0a4bH
	DW	0a4dH
	DW	0a70H
	DW	0a71H
	DW	0a81H
	DW	0a82H
	DW	0abcH
	DW	0abcH
	DW	0ac1H
	DW	0ac5H
	DW	0ac7H
	DW	0ac8H
	DW	0acdH
	DW	0acdH
	DW	0ae2H
	DW	0ae3H
	DW	0b01H
	DW	0b01H
	DW	0b3cH
	DW	0b3cH
	DW	0b3fH
	DW	0b3fH
	DW	0b41H
	DW	0b43H
	DW	0b4dH
	DW	0b4dH
	DW	0b56H
	DW	0b56H
	DW	0b82H
	DW	0b82H
	DW	0bc0H
	DW	0bc0H
	DW	0bcdH
	DW	0bcdH
	DW	0c3eH
	DW	0c40H
	DW	0c46H
	DW	0c48H
	DW	0c4aH
	DW	0c4dH
	DW	0c55H
	DW	0c56H
	DW	0cbcH
	DW	0cbcH
	DW	0cbfH
	DW	0cbfH
	DW	0cc6H
	DW	0cc6H
	DW	0cccH
	DW	0ccdH
	DW	0d41H
	DW	0d43H
	DW	0d4dH
	DW	0d4dH
	DW	0dcaH
	DW	0dcaH
	DW	0dd2H
	DW	0dd4H
	DW	0dd6H
	DW	0dd6H
	DW	0e31H
	DW	0e31H
	DW	0e34H
	DW	0e3aH
	DW	0e47H
	DW	0e4eH
	DW	0eb1H
	DW	0eb1H
	DW	0eb4H
	DW	0eb9H
	DW	0ebbH
	DW	0ebcH
	DW	0ec8H
	DW	0ecdH
	DW	0f18H
	DW	0f19H
	DW	0f35H
	DW	0f35H
	DW	0f37H
	DW	0f37H
	DW	0f39H
	DW	0f39H
	DW	0f71H
	DW	0f7eH
	DW	0f80H
	DW	0f84H
	DW	0f86H
	DW	0f87H
	DW	0f90H
	DW	0f97H
	DW	0f99H
	DW	0fbcH
	DW	0fc6H
	DW	0fc6H
	DW	0102dH
	DW	01030H
	DW	01032H
	DW	01032H
	DW	01036H
	DW	01037H
	DW	01039H
	DW	01039H
	DW	01058H
	DW	01059H
	DW	01712H
	DW	01714H
	DW	01732H
	DW	01734H
	DW	01752H
	DW	01753H
	DW	01772H
	DW	01773H
	DW	017b7H
	DW	017bdH
	DW	017c6H
	DW	017c6H
	DW	017c9H
	DW	017d3H
	DW	017ddH
	DW	017ddH
	DW	0180bH
	DW	0180dH
	DW	018a9H
	DW	018a9H
	DW	01920H
	DW	01922H
	DW	01927H
	DW	01928H
	DW	01932H
	DW	01932H
	DW	01939H
	DW	0193bH
	DW	020d0H
	DW	020dcH
	DW	020e1H
	DW	020e1H
	DW	020e5H
	DW	020eaH
	DW	0302aH
	DW	0302fH
	DW	03099H
	DW	0309aH
	DW	0fb1eH
	DW	0fb1eH
	DW	0fe00H
	DW	0fe0fH
	DW	0fe20H
	DW	0fe23H
_xmlMnL	DD	01d167H
	DD	01d169H
	DD	01d17bH
	DD	01d182H
	DD	01d185H
	DD	01d18bH
	DD	01d1aaH
	DD	01d1adH
	DD	0e0100H
	DD	0e01efH
_xmlNS	DW	030H
	DW	039H
	DW	0b2H
	DW	0b3H
	DW	0b9H
	DW	0b9H
	DW	0bcH
	DW	0beH
	DW	0660H
	DW	0669H
	DW	06f0H
	DW	06f9H
	DW	0966H
	DW	096fH
	DW	09e6H
	DW	09efH
	DW	09f4H
	DW	09f9H
	DW	0a66H
	DW	0a6fH
	DW	0ae6H
	DW	0aefH
	DW	0b66H
	DW	0b6fH
	DW	0be7H
	DW	0bf2H
	DW	0c66H
	DW	0c6fH
	DW	0ce6H
	DW	0cefH
	DW	0d66H
	DW	0d6fH
	DW	0e50H
	DW	0e59H
	DW	0ed0H
	DW	0ed9H
	DW	0f20H
	DW	0f33H
	DW	01040H
	DW	01049H
	DW	01369H
	DW	0137cH
	DW	016eeH
	DW	016f0H
	DW	017e0H
	DW	017e9H
	DW	017f0H
	DW	017f9H
	DW	01810H
	DW	01819H
	DW	01946H
	DW	0194fH
	DW	02070H
	DW	02070H
	DW	02074H
	DW	02079H
	DW	02080H
	DW	02089H
	DW	02153H
	DW	02183H
	DW	02460H
	DW	0249bH
	DW	024eaH
	DW	024ffH
	DW	02776H
	DW	02793H
	DW	03007H
	DW	03007H
	DW	03021H
	DW	03029H
	DW	03038H
	DW	0303aH
	DW	03192H
	DW	03195H
	DW	03220H
	DW	03229H
	DW	03251H
	DW	0325fH
	DW	03280H
	DW	03289H
	DW	032b1H
	DW	032bfH
	DW	0ff10H
	DW	0ff19H
_xmlNL	DD	010107H
	DD	010133H
	DD	010320H
	DD	010323H
	DD	01034aH
	DD	01034aH
	DD	0104a0H
	DD	0104a9H
	DD	01d7ceH
	DD	01d7ffH
_xmlNdS	DW	030H
	DW	039H
	DW	0660H
	DW	0669H
	DW	06f0H
	DW	06f9H
	DW	0966H
	DW	096fH
	DW	09e6H
	DW	09efH
	DW	0a66H
	DW	0a6fH
	DW	0ae6H
	DW	0aefH
	DW	0b66H
	DW	0b6fH
	DW	0be7H
	DW	0befH
	DW	0c66H
	DW	0c6fH
	DW	0ce6H
	DW	0cefH
	DW	0d66H
	DW	0d6fH
	DW	0e50H
	DW	0e59H
	DW	0ed0H
	DW	0ed9H
	DW	0f20H
	DW	0f29H
	DW	01040H
	DW	01049H
	DW	01369H
	DW	01371H
	DW	017e0H
	DW	017e9H
	DW	01810H
	DW	01819H
	DW	01946H
	DW	0194fH
	DW	0ff10H
	DW	0ff19H
_xmlNdL	DD	0104a0H
	DD	0104a9H
	DD	01d7ceH
	DD	01d7ffH
	ORG $+4
_xmlNoS	DW	0b2H
	DW	0b3H
	DW	0b9H
	DW	0b9H
	DW	0bcH
	DW	0beH
	DW	09f4H
	DW	09f9H
	DW	0bf0H
	DW	0bf2H
	DW	0f2aH
	DW	0f33H
	DW	01372H
	DW	0137cH
	DW	017f0H
	DW	017f9H
	DW	02070H
	DW	02070H
	DW	02074H
	DW	02079H
	DW	02080H
	DW	02089H
	DW	02153H
	DW	0215fH
	DW	02460H
	DW	0249bH
	DW	024eaH
	DW	024ffH
	DW	02776H
	DW	02793H
	DW	03192H
	DW	03195H
	DW	03220H
	DW	03229H
	DW	03251H
	DW	0325fH
	DW	03280H
	DW	03289H
	DW	032b1H
	DW	032bfH
_xmlNoL	DD	010107H
	DD	010133H
	DD	010320H
	DD	010323H
_xmlPS	DW	021H
	DW	023H
	DW	025H
	DW	02aH
	DW	02cH
	DW	02fH
	DW	03aH
	DW	03bH
	DW	03fH
	DW	040H
	DW	05bH
	DW	05dH
	DW	05fH
	DW	05fH
	DW	07bH
	DW	07bH
	DW	07dH
	DW	07dH
	DW	0a1H
	DW	0a1H
	DW	0abH
	DW	0abH
	DW	0b7H
	DW	0b7H
	DW	0bbH
	DW	0bbH
	DW	0bfH
	DW	0bfH
	DW	037eH
	DW	037eH
	DW	0387H
	DW	0387H
	DW	055aH
	DW	055fH
	DW	0589H
	DW	058aH
	DW	05beH
	DW	05beH
	DW	05c0H
	DW	05c0H
	DW	05c3H
	DW	05c3H
	DW	05f3H
	DW	05f4H
	DW	060cH
	DW	060dH
	DW	061bH
	DW	061bH
	DW	061fH
	DW	061fH
	DW	066aH
	DW	066dH
	DW	06d4H
	DW	06d4H
	DW	0700H
	DW	070dH
	DW	0964H
	DW	0965H
	DW	0970H
	DW	0970H
	DW	0df4H
	DW	0df4H
	DW	0e4fH
	DW	0e4fH
	DW	0e5aH
	DW	0e5bH
	DW	0f04H
	DW	0f12H
	DW	0f3aH
	DW	0f3dH
	DW	0f85H
	DW	0f85H
	DW	0104aH
	DW	0104fH
	DW	010fbH
	DW	010fbH
	DW	01361H
	DW	01368H
	DW	0166dH
	DW	0166eH
	DW	0169bH
	DW	0169cH
	DW	016ebH
	DW	016edH
	DW	01735H
	DW	01736H
	DW	017d4H
	DW	017d6H
	DW	017d8H
	DW	017daH
	DW	01800H
	DW	0180aH
	DW	01944H
	DW	01945H
	DW	02010H
	DW	02027H
	DW	02030H
	DW	02043H
	DW	02045H
	DW	02051H
	DW	02053H
	DW	02054H
	DW	02057H
	DW	02057H
	DW	0207dH
	DW	0207eH
	DW	0208dH
	DW	0208eH
	DW	02329H
	DW	0232aH
	DW	023b4H
	DW	023b6H
	DW	02768H
	DW	02775H
	DW	027e6H
	DW	027ebH
	DW	02983H
	DW	02998H
	DW	029d8H
	DW	029dbH
	DW	029fcH
	DW	029fdH
	DW	03001H
	DW	03003H
	DW	03008H
	DW	03011H
	DW	03014H
	DW	0301fH
	DW	03030H
	DW	03030H
	DW	0303dH
	DW	0303dH
	DW	030a0H
	DW	030a0H
	DW	030fbH
	DW	030fbH
	DW	0fd3eH
	DW	0fd3fH
	DW	0fe30H
	DW	0fe52H
	DW	0fe54H
	DW	0fe61H
	DW	0fe63H
	DW	0fe63H
	DW	0fe68H
	DW	0fe68H
	DW	0fe6aH
	DW	0fe6bH
	DW	0ff01H
	DW	0ff03H
	DW	0ff05H
	DW	0ff0aH
	DW	0ff0cH
	DW	0ff0fH
	DW	0ff1aH
	DW	0ff1bH
	DW	0ff1fH
	DW	0ff20H
	DW	0ff3bH
	DW	0ff3dH
	DW	0ff3fH
	DW	0ff3fH
	DW	0ff5bH
	DW	0ff5bH
	DW	0ff5dH
	DW	0ff5dH
	DW	0ff5fH
	DW	0ff65H
_xmlPL	DD	010100H
	DD	010101H
	DD	01039fH
	DD	01039fH
_xmlPeS	DW	029H
	DW	029H
	DW	05dH
	DW	05dH
	DW	07dH
	DW	07dH
	DW	0f3bH
	DW	0f3bH
	DW	0f3dH
	DW	0f3dH
	DW	0169cH
	DW	0169cH
	DW	02046H
	DW	02046H
	DW	0207eH
	DW	0207eH
	DW	0208eH
	DW	0208eH
	DW	0232aH
	DW	0232aH
	DW	023b5H
	DW	023b5H
	DW	02769H
	DW	02769H
	DW	0276bH
	DW	0276bH
	DW	0276dH
	DW	0276dH
	DW	0276fH
	DW	0276fH
	DW	02771H
	DW	02771H
	DW	02773H
	DW	02773H
	DW	02775H
	DW	02775H
	DW	027e7H
	DW	027e7H
	DW	027e9H
	DW	027e9H
	DW	027ebH
	DW	027ebH
	DW	02984H
	DW	02984H
	DW	02986H
	DW	02986H
	DW	02988H
	DW	02988H
	DW	0298aH
	DW	0298aH
	DW	0298cH
	DW	0298cH
	DW	0298eH
	DW	0298eH
	DW	02990H
	DW	02990H
	DW	02992H
	DW	02992H
	DW	02994H
	DW	02994H
	DW	02996H
	DW	02996H
	DW	02998H
	DW	02998H
	DW	029d9H
	DW	029d9H
	DW	029dbH
	DW	029dbH
	DW	029fdH
	DW	029fdH
	DW	03009H
	DW	03009H
	DW	0300bH
	DW	0300bH
	DW	0300dH
	DW	0300dH
	DW	0300fH
	DW	0300fH
	DW	03011H
	DW	03011H
	DW	03015H
	DW	03015H
	DW	03017H
	DW	03017H
	DW	03019H
	DW	03019H
	DW	0301bH
	DW	0301bH
	DW	0301eH
	DW	0301fH
	DW	0fd3fH
	DW	0fd3fH
	DW	0fe36H
	DW	0fe36H
	DW	0fe38H
	DW	0fe38H
	DW	0fe3aH
	DW	0fe3aH
	DW	0fe3cH
	DW	0fe3cH
	DW	0fe3eH
	DW	0fe3eH
	DW	0fe40H
	DW	0fe40H
	DW	0fe42H
	DW	0fe42H
	DW	0fe44H
	DW	0fe44H
	DW	0fe48H
	DW	0fe48H
	DW	0fe5aH
	DW	0fe5aH
	DW	0fe5cH
	DW	0fe5cH
	DW	0fe5eH
	DW	0fe5eH
	DW	0ff09H
	DW	0ff09H
	DW	0ff3dH
	DW	0ff3dH
	DW	0ff5dH
	DW	0ff5dH
	DW	0ff60H
	DW	0ff60H
	DW	0ff63H
	DW	0ff63H
	ORG $+4
_xmlPoS	DW	021H
	DW	023H
	DW	025H
	DW	027H
	DW	02aH
	DW	02aH
	DW	02cH
	DW	02cH
	DW	02eH
	DW	02fH
	DW	03aH
	DW	03bH
	DW	03fH
	DW	040H
	DW	05cH
	DW	05cH
	DW	0a1H
	DW	0a1H
	DW	0b7H
	DW	0b7H
	DW	0bfH
	DW	0bfH
	DW	037eH
	DW	037eH
	DW	0387H
	DW	0387H
	DW	055aH
	DW	055fH
	DW	0589H
	DW	0589H
	DW	05beH
	DW	05beH
	DW	05c0H
	DW	05c0H
	DW	05c3H
	DW	05c3H
	DW	05f3H
	DW	05f4H
	DW	060cH
	DW	060dH
	DW	061bH
	DW	061bH
	DW	061fH
	DW	061fH
	DW	066aH
	DW	066dH
	DW	06d4H
	DW	06d4H
	DW	0700H
	DW	070dH
	DW	0964H
	DW	0965H
	DW	0970H
	DW	0970H
	DW	0df4H
	DW	0df4H
	DW	0e4fH
	DW	0e4fH
	DW	0e5aH
	DW	0e5bH
	DW	0f04H
	DW	0f12H
	DW	0f85H
	DW	0f85H
	DW	0104aH
	DW	0104fH
	DW	010fbH
	DW	010fbH
	DW	01361H
	DW	01368H
	DW	0166dH
	DW	0166eH
	DW	016ebH
	DW	016edH
	DW	01735H
	DW	01736H
	DW	017d4H
	DW	017d6H
	DW	017d8H
	DW	017daH
	DW	01800H
	DW	01805H
	DW	01807H
	DW	0180aH
	DW	01944H
	DW	01945H
	DW	02016H
	DW	02017H
	DW	02020H
	DW	02027H
	DW	02030H
	DW	02038H
	DW	0203bH
	DW	0203eH
	DW	02041H
	DW	02043H
	DW	02047H
	DW	02051H
	DW	02053H
	DW	02053H
	DW	02057H
	DW	02057H
	DW	023b6H
	DW	023b6H
	DW	03001H
	DW	03003H
	DW	0303dH
	DW	0303dH
	DW	0fe30H
	DW	0fe30H
	DW	0fe45H
	DW	0fe46H
	DW	0fe49H
	DW	0fe4cH
	DW	0fe50H
	DW	0fe52H
	DW	0fe54H
	DW	0fe57H
	DW	0fe5fH
	DW	0fe61H
	DW	0fe68H
	DW	0fe68H
	DW	0fe6aH
	DW	0fe6bH
	DW	0ff01H
	DW	0ff03H
	DW	0ff05H
	DW	0ff07H
	DW	0ff0aH
	DW	0ff0aH
	DW	0ff0cH
	DW	0ff0cH
	DW	0ff0eH
	DW	0ff0fH
	DW	0ff1aH
	DW	0ff1bH
	DW	0ff1fH
	DW	0ff20H
	DW	0ff3cH
	DW	0ff3cH
	DW	0ff61H
	DW	0ff61H
	DW	0ff64H
	DW	0ff64H
_xmlPoL	DD	010100H
	DD	010101H
	DD	01039fH
	DD	01039fH
_xmlPsS	DW	028H
	DW	028H
	DW	05bH
	DW	05bH
	DW	07bH
	DW	07bH
	DW	0f3aH
	DW	0f3aH
	DW	0f3cH
	DW	0f3cH
	DW	0169bH
	DW	0169bH
	DW	0201aH
	DW	0201aH
	DW	0201eH
	DW	0201eH
	DW	02045H
	DW	02045H
	DW	0207dH
	DW	0207dH
	DW	0208dH
	DW	0208dH
	DW	02329H
	DW	02329H
	DW	023b4H
	DW	023b4H
	DW	02768H
	DW	02768H
	DW	0276aH
	DW	0276aH
	DW	0276cH
	DW	0276cH
	DW	0276eH
	DW	0276eH
	DW	02770H
	DW	02770H
	DW	02772H
	DW	02772H
	DW	02774H
	DW	02774H
	DW	027e6H
	DW	027e6H
	DW	027e8H
	DW	027e8H
	DW	027eaH
	DW	027eaH
	DW	02983H
	DW	02983H
	DW	02985H
	DW	02985H
	DW	02987H
	DW	02987H
	DW	02989H
	DW	02989H
	DW	0298bH
	DW	0298bH
	DW	0298dH
	DW	0298dH
	DW	0298fH
	DW	0298fH
	DW	02991H
	DW	02991H
	DW	02993H
	DW	02993H
	DW	02995H
	DW	02995H
	DW	02997H
	DW	02997H
	DW	029d8H
	DW	029d8H
	DW	029daH
	DW	029daH
	DW	029fcH
	DW	029fcH
	DW	03008H
	DW	03008H
	DW	0300aH
	DW	0300aH
	DW	0300cH
	DW	0300cH
	DW	0300eH
	DW	0300eH
	DW	03010H
	DW	03010H
	DW	03014H
	DW	03014H
	DW	03016H
	DW	03016H
	DW	03018H
	DW	03018H
	DW	0301aH
	DW	0301aH
	DW	0301dH
	DW	0301dH
	DW	0fd3eH
	DW	0fd3eH
	DW	0fe35H
	DW	0fe35H
	DW	0fe37H
	DW	0fe37H
	DW	0fe39H
	DW	0fe39H
	DW	0fe3bH
	DW	0fe3bH
	DW	0fe3dH
	DW	0fe3dH
	DW	0fe3fH
	DW	0fe3fH
	DW	0fe41H
	DW	0fe41H
	DW	0fe43H
	DW	0fe43H
	DW	0fe47H
	DW	0fe47H
	DW	0fe59H
	DW	0fe59H
	DW	0fe5bH
	DW	0fe5bH
	DW	0fe5dH
	DW	0fe5dH
	DW	0ff08H
	DW	0ff08H
	DW	0ff3bH
	DW	0ff3bH
	DW	0ff5bH
	DW	0ff5bH
	DW	0ff5fH
	DW	0ff5fH
	DW	0ff62H
	DW	0ff62H
	ORG $+4
_xmlSS	DW	024H
	DW	024H
	DW	02bH
	DW	02bH
	DW	03cH
	DW	03eH
	DW	05eH
	DW	05eH
	DW	060H
	DW	060H
	DW	07cH
	DW	07cH
	DW	07eH
	DW	07eH
	DW	0a2H
	DW	0a9H
	DW	0acH
	DW	0acH
	DW	0aeH
	DW	0b1H
	DW	0b4H
	DW	0b4H
	DW	0b6H
	DW	0b6H
	DW	0b8H
	DW	0b8H
	DW	0d7H
	DW	0d7H
	DW	0f7H
	DW	0f7H
	DW	02c2H
	DW	02c5H
	DW	02d2H
	DW	02dfH
	DW	02e5H
	DW	02edH
	DW	02efH
	DW	02ffH
	DW	0374H
	DW	0375H
	DW	0384H
	DW	0385H
	DW	03f6H
	DW	03f6H
	DW	0482H
	DW	0482H
	DW	060eH
	DW	060fH
	DW	06e9H
	DW	06e9H
	DW	06fdH
	DW	06feH
	DW	09f2H
	DW	09f3H
	DW	09faH
	DW	09faH
	DW	0af1H
	DW	0af1H
	DW	0b70H
	DW	0b70H
	DW	0bf3H
	DW	0bfaH
	DW	0e3fH
	DW	0e3fH
	DW	0f01H
	DW	0f03H
	DW	0f13H
	DW	0f17H
	DW	0f1aH
	DW	0f1fH
	DW	0f34H
	DW	0f34H
	DW	0f36H
	DW	0f36H
	DW	0f38H
	DW	0f38H
	DW	0fbeH
	DW	0fc5H
	DW	0fc7H
	DW	0fccH
	DW	0fcfH
	DW	0fcfH
	DW	017dbH
	DW	017dbH
	DW	01940H
	DW	01940H
	DW	019e0H
	DW	019ffH
	DW	01fbdH
	DW	01fbdH
	DW	01fbfH
	DW	01fc1H
	DW	01fcdH
	DW	01fcfH
	DW	01fddH
	DW	01fdfH
	DW	01fedH
	DW	01fefH
	DW	01ffdH
	DW	01ffeH
	DW	02044H
	DW	02044H
	DW	02052H
	DW	02052H
	DW	0207aH
	DW	0207cH
	DW	0208aH
	DW	0208cH
	DW	020a0H
	DW	020b1H
	DW	02100H
	DW	02101H
	DW	02103H
	DW	02106H
	DW	02108H
	DW	02109H
	DW	02114H
	DW	02114H
	DW	02116H
	DW	02118H
	DW	0211eH
	DW	02123H
	DW	02125H
	DW	02125H
	DW	02127H
	DW	02127H
	DW	02129H
	DW	02129H
	DW	0212eH
	DW	0212eH
	DW	02132H
	DW	02132H
	DW	0213aH
	DW	0213bH
	DW	02140H
	DW	02144H
	DW	0214aH
	DW	0214bH
	DW	02190H
	DW	02328H
	DW	0232bH
	DW	023b3H
	DW	023b7H
	DW	023d0H
	DW	02400H
	DW	02426H
	DW	02440H
	DW	0244aH
	DW	0249cH
	DW	024e9H
	DW	02500H
	DW	02617H
	DW	02619H
	DW	0267dH
	DW	02680H
	DW	02691H
	DW	026a0H
	DW	026a1H
	DW	02701H
	DW	02704H
	DW	02706H
	DW	02709H
	DW	0270cH
	DW	02727H
	DW	02729H
	DW	0274bH
	DW	0274dH
	DW	0274dH
	DW	0274fH
	DW	02752H
	DW	02756H
	DW	02756H
	DW	02758H
	DW	0275eH
	DW	02761H
	DW	02767H
	DW	02794H
	DW	02794H
	DW	02798H
	DW	027afH
	DW	027b1H
	DW	027beH
	DW	027d0H
	DW	027e5H
	DW	027f0H
	DW	02982H
	DW	02999H
	DW	029d7H
	DW	029dcH
	DW	029fbH
	DW	029feH
	DW	02b0dH
	DW	02e80H
	DW	02e99H
	DW	02e9bH
	DW	02ef3H
	DW	02f00H
	DW	02fd5H
	DW	02ff0H
	DW	02ffbH
	DW	03004H
	DW	03004H
	DW	03012H
	DW	03013H
	DW	03020H
	DW	03020H
	DW	03036H
	DW	03037H
	DW	0303eH
	DW	0303fH
	DW	0309bH
	DW	0309cH
	DW	03190H
	DW	03191H
	DW	03196H
	DW	0319fH
	DW	03200H
	DW	0321eH
	DW	0322aH
	DW	03243H
	DW	03250H
	DW	03250H
	DW	03260H
	DW	0327dH
	DW	0327fH
	DW	0327fH
	DW	0328aH
	DW	032b0H
	DW	032c0H
	DW	032feH
	DW	03300H
	DW	033ffH
	DW	04dc0H
	DW	04dffH
	DW	0a490H
	DW	0a4c6H
	DW	0fb29H
	DW	0fb29H
	DW	0fdfcH
	DW	0fdfdH
	DW	0fe62H
	DW	0fe62H
	DW	0fe64H
	DW	0fe66H
	DW	0fe69H
	DW	0fe69H
	DW	0ff04H
	DW	0ff04H
	DW	0ff0bH
	DW	0ff0bH
	DW	0ff1cH
	DW	0ff1eH
	DW	0ff3eH
	DW	0ff3eH
	DW	0ff40H
	DW	0ff40H
	DW	0ff5cH
	DW	0ff5cH
	DW	0ff5eH
	DW	0ff5eH
	DW	0ffe0H
	DW	0ffe6H
	DW	0ffe8H
	DW	0ffeeH
	DW	0fffcH
	DW	0fffdH
	ORG $+4
_xmlSL	DD	010102H
	DD	010102H
	DD	010137H
	DD	01013fH
	DD	01d000H
	DD	01d0f5H
	DD	01d100H
	DD	01d126H
	DD	01d12aH
	DD	01d164H
	DD	01d16aH
	DD	01d16cH
	DD	01d183H
	DD	01d184H
	DD	01d18cH
	DD	01d1a9H
	DD	01d1aeH
	DD	01d1ddH
	DD	01d300H
	DD	01d356H
	DD	01d6c1H
	DD	01d6c1H
	DD	01d6dbH
	DD	01d6dbH
	DD	01d6fbH
	DD	01d6fbH
	DD	01d715H
	DD	01d715H
	DD	01d735H
	DD	01d735H
	DD	01d74fH
	DD	01d74fH
	DD	01d76fH
	DD	01d76fH
	DD	01d789H
	DD	01d789H
	DD	01d7a9H
	DD	01d7a9H
	DD	01d7c3H
	DD	01d7c3H
_xmlSkS	DW	05eH
	DW	05eH
	DW	060H
	DW	060H
	DW	0a8H
	DW	0a8H
	DW	0afH
	DW	0afH
	DW	0b4H
	DW	0b4H
	DW	0b8H
	DW	0b8H
	DW	02c2H
	DW	02c5H
	DW	02d2H
	DW	02dfH
	DW	02e5H
	DW	02edH
	DW	02efH
	DW	02ffH
	DW	0374H
	DW	0375H
	DW	0384H
	DW	0385H
	DW	01fbdH
	DW	01fbdH
	DW	01fbfH
	DW	01fc1H
	DW	01fcdH
	DW	01fcfH
	DW	01fddH
	DW	01fdfH
	DW	01fedH
	DW	01fefH
	DW	01ffdH
	DW	01ffeH
	DW	0309bH
	DW	0309cH
	DW	0ff3eH
	DW	0ff3eH
	DW	0ff40H
	DW	0ff40H
	DW	0ffe3H
	DW	0ffe3H
_xmlSmS	DW	02bH
	DW	02bH
	DW	03cH
	DW	03eH
	DW	07cH
	DW	07cH
	DW	07eH
	DW	07eH
	DW	0acH
	DW	0acH
	DW	0b1H
	DW	0b1H
	DW	0d7H
	DW	0d7H
	DW	0f7H
	DW	0f7H
	DW	03f6H
	DW	03f6H
	DW	02044H
	DW	02044H
	DW	02052H
	DW	02052H
	DW	0207aH
	DW	0207cH
	DW	0208aH
	DW	0208cH
	DW	02140H
	DW	02144H
	DW	0214bH
	DW	0214bH
	DW	02190H
	DW	02194H
	DW	0219aH
	DW	0219bH
	DW	021a0H
	DW	021a0H
	DW	021a3H
	DW	021a3H
	DW	021a6H
	DW	021a6H
	DW	021aeH
	DW	021aeH
	DW	021ceH
	DW	021cfH
	DW	021d2H
	DW	021d2H
	DW	021d4H
	DW	021d4H
	DW	021f4H
	DW	022ffH
	DW	02308H
	DW	0230bH
	DW	02320H
	DW	02321H
	DW	0237cH
	DW	0237cH
	DW	0239bH
	DW	023b3H
	DW	025b7H
	DW	025b7H
	DW	025c1H
	DW	025c1H
	DW	025f8H
	DW	025ffH
	DW	0266fH
	DW	0266fH
	DW	027d0H
	DW	027e5H
	DW	027f0H
	DW	027ffH
	DW	02900H
	DW	02982H
	DW	02999H
	DW	029d7H
	DW	029dcH
	DW	029fbH
	DW	029feH
	DW	02affH
	DW	0fb29H
	DW	0fb29H
	DW	0fe62H
	DW	0fe62H
	DW	0fe64H
	DW	0fe66H
	DW	0ff0bH
	DW	0ff0bH
	DW	0ff1cH
	DW	0ff1eH
	DW	0ff5cH
	DW	0ff5cH
	DW	0ff5eH
	DW	0ff5eH
	DW	0ffe2H
	DW	0ffe2H
	DW	0ffe9H
	DW	0ffecH
_xmlSmL	DD	01d6c1H
	DD	01d6c1H
	DD	01d6dbH
	DD	01d6dbH
	DD	01d6fbH
	DD	01d6fbH
	DD	01d715H
	DD	01d715H
	DD	01d735H
	DD	01d735H
	DD	01d74fH
	DD	01d74fH
	DD	01d76fH
	DD	01d76fH
	DD	01d789H
	DD	01d789H
	DD	01d7a9H
	DD	01d7a9H
	DD	01d7c3H
	DD	01d7c3H
_xmlSoS	DW	0a6H
	DW	0a7H
	DW	0a9H
	DW	0a9H
	DW	0aeH
	DW	0aeH
	DW	0b0H
	DW	0b0H
	DW	0b6H
	DW	0b6H
	DW	0482H
	DW	0482H
	DW	060eH
	DW	060fH
	DW	06e9H
	DW	06e9H
	DW	06fdH
	DW	06feH
	DW	09faH
	DW	09faH
	DW	0b70H
	DW	0b70H
	DW	0bf3H
	DW	0bf8H
	DW	0bfaH
	DW	0bfaH
	DW	0f01H
	DW	0f03H
	DW	0f13H
	DW	0f17H
	DW	0f1aH
	DW	0f1fH
	DW	0f34H
	DW	0f34H
	DW	0f36H
	DW	0f36H
	DW	0f38H
	DW	0f38H
	DW	0fbeH
	DW	0fc5H
	DW	0fc7H
	DW	0fccH
	DW	0fcfH
	DW	0fcfH
	DW	01940H
	DW	01940H
	DW	019e0H
	DW	019ffH
	DW	02100H
	DW	02101H
	DW	02103H
	DW	02106H
	DW	02108H
	DW	02109H
	DW	02114H
	DW	02114H
	DW	02116H
	DW	02118H
	DW	0211eH
	DW	02123H
	DW	02125H
	DW	02125H
	DW	02127H
	DW	02127H
	DW	02129H
	DW	02129H
	DW	0212eH
	DW	0212eH
	DW	02132H
	DW	02132H
	DW	0213aH
	DW	0213bH
	DW	0214aH
	DW	0214aH
	DW	02195H
	DW	02199H
	DW	0219cH
	DW	0219fH
	DW	021a1H
	DW	021a2H
	DW	021a4H
	DW	021a5H
	DW	021a7H
	DW	021adH
	DW	021afH
	DW	021cdH
	DW	021d0H
	DW	021d1H
	DW	021d3H
	DW	021d3H
	DW	021d5H
	DW	021f3H
	DW	02300H
	DW	02307H
	DW	0230cH
	DW	0231fH
	DW	02322H
	DW	02328H
	DW	0232bH
	DW	0237bH
	DW	0237dH
	DW	0239aH
	DW	023b7H
	DW	023d0H
	DW	02400H
	DW	02426H
	DW	02440H
	DW	0244aH
	DW	0249cH
	DW	024e9H
	DW	02500H
	DW	025b6H
	DW	025b8H
	DW	025c0H
	DW	025c2H
	DW	025f7H
	DW	02600H
	DW	02617H
	DW	02619H
	DW	0266eH
	DW	02670H
	DW	0267dH
	DW	02680H
	DW	02691H
	DW	026a0H
	DW	026a1H
	DW	02701H
	DW	02704H
	DW	02706H
	DW	02709H
	DW	0270cH
	DW	02727H
	DW	02729H
	DW	0274bH
	DW	0274dH
	DW	0274dH
	DW	0274fH
	DW	02752H
	DW	02756H
	DW	02756H
	DW	02758H
	DW	0275eH
	DW	02761H
	DW	02767H
	DW	02794H
	DW	02794H
	DW	02798H
	DW	027afH
	DW	027b1H
	DW	027beH
	DW	02800H
	DW	028ffH
	DW	02b00H
	DW	02b0dH
	DW	02e80H
	DW	02e99H
	DW	02e9bH
	DW	02ef3H
	DW	02f00H
	DW	02fd5H
	DW	02ff0H
	DW	02ffbH
	DW	03004H
	DW	03004H
	DW	03012H
	DW	03013H
	DW	03020H
	DW	03020H
	DW	03036H
	DW	03037H
	DW	0303eH
	DW	0303fH
	DW	03190H
	DW	03191H
	DW	03196H
	DW	0319fH
	DW	03200H
	DW	0321eH
	DW	0322aH
	DW	03243H
	DW	03250H
	DW	03250H
	DW	03260H
	DW	0327dH
	DW	0327fH
	DW	0327fH
	DW	0328aH
	DW	032b0H
	DW	032c0H
	DW	032feH
	DW	03300H
	DW	033ffH
	DW	04dc0H
	DW	04dffH
	DW	0a490H
	DW	0a4c6H
	DW	0fdfdH
	DW	0fdfdH
	DW	0ffe4H
	DW	0ffe4H
	DW	0ffe8H
	DW	0ffe8H
	DW	0ffedH
	DW	0ffeeH
	DW	0fffcH
	DW	0fffdH
	ORG $+4
_xmlSoL	DD	010102H
	DD	010102H
	DD	010137H
	DD	01013fH
	DD	01d000H
	DD	01d0f5H
	DD	01d100H
	DD	01d126H
	DD	01d12aH
	DD	01d164H
	DD	01d16aH
	DD	01d16cH
	DD	01d183H
	DD	01d184H
	DD	01d18cH
	DD	01d1a9H
	DD	01d1aeH
	DD	01d1ddH
	DD	01d300H
	DD	01d356H
CONST	ENDS
PUBLIC	_xmlUCSIsBlock
PUBLIC	_xmlUCSIsCat
PUBLIC	__JustMyCode_Default
EXTRN	_xmlCharInRange:PROC
EXTRN	@__CheckForDebuggerJustMyCode@4:PROC
EXTRN	__RTC_CheckEsp:PROC
EXTRN	__RTC_InitBase:PROC
EXTRN	__RTC_Shutdown:PROC
;	COMDAT rtc$TMZ
rtc$TMZ	SEGMENT
__RTC_Shutdown.rtc$TMZ DD FLAT:__RTC_Shutdown
rtc$TMZ	ENDS
;	COMDAT rtc$IMZ
rtc$IMZ	SEGMENT
__RTC_InitBase.rtc$IMZ DD FLAT:__RTC_InitBase
rtc$IMZ	ENDS
_DATA	SEGMENT
_xmlCG	DD	012H
	DD	07H
	DD	FLAT:_xmlCS
	DD	FLAT:_xmlCL
_xmlCfG	DD	0bH
	DD	03H
	DD	FLAT:_xmlCfS
	DD	FLAT:_xmlCfL
_xmlLG	DD	0117H
	DD	032H
	DD	FLAT:_xmlLS
	DD	FLAT:_xmlLL
_xmlLlG	DD	018cH
	DD	01cH
	DD	FLAT:_xmlLlS
	DD	FLAT:_xmlLlL
_xmlLmG	DD	014H
	DD	00H
	DD	FLAT:_xmlLmS
	DD	00H
_xmlLoG	DD	0d3H
	DD	014H
	DD	FLAT:_xmlLoS
	DD	FLAT:_xmlLoL
_xmlLtG	DD	0aH
	DD	00H
	DD	FLAT:_xmlLtS
	DD	00H
_xmlLuG	DD	0186H
	DD	01fH
	DD	FLAT:_xmlLuS
	DD	FLAT:_xmlLuL
_xmlMG	DD	071H
	DD	06H
	DD	FLAT:_xmlMS
	DD	FLAT:_xmlML
_xmlMcG	DD	037H
	DD	02H
	DD	FLAT:_xmlMcS
	DD	FLAT:_xmlMcL
_xmlMnG	DD	06cH
	DD	05H
	DD	FLAT:_xmlMnS
	DD	FLAT:_xmlMnL
_xmlNG	DD	02aH
	DD	05H
	DD	FLAT:_xmlNS
	DD	FLAT:_xmlNL
_xmlNdG	DD	015H
	DD	02H
	DD	FLAT:_xmlNdS
	DD	FLAT:_xmlNdL
_xmlNoG	DD	014H
	DD	02H
	DD	FLAT:_xmlNoS
	DD	FLAT:_xmlNoL
_xmlPG	DD	054H
	DD	02H
	DD	FLAT:_xmlPS
	DD	FLAT:_xmlPL
_xmlPdG	DD	0bH
	DD	00H
	DD	FLAT:_xmlPdS
	DD	00H
_xmlPeG	DD	03fH
	DD	00H
	DD	FLAT:_xmlPeS
	DD	00H
_xmlPoG	DD	048H
	DD	02H
	DD	FLAT:_xmlPoS
	DD	FLAT:_xmlPoL
_xmlPsG	DD	041H
	DD	00H
	DD	FLAT:_xmlPsS
	DD	00H
_xmlSG	DD	085H
	DD	014H
	DD	FLAT:_xmlSS
	DD	FLAT:_xmlSL
_xmlScG	DD	0dH
	DD	00H
	DD	FLAT:_xmlScS
	DD	00H
_xmlSkG	DD	016H
	DD	00H
	DD	FLAT:_xmlSkS
	DD	00H
_xmlSmG	DD	030H
	DD	0aH
	DD	FLAT:_xmlSmS
	DD	FLAT:_xmlSmL
_xmlSoG	DD	067H
	DD	0aH
	DD	FLAT:_xmlSoS
	DD	FLAT:_xmlSoL
_xmlZG	DD	09H
	DD	00H
	DD	FLAT:_xmlZS
	DD	00H
_xmlUnicodeBlockTbl DD FLAT:_xmlUnicodeBlocks
	DD	080H
_xmlUnicodeCatTbl DD FLAT:_xmlUnicodeCats
	DD	024H
_DATA	ENDS
; Function compile flags: /Odt
;	COMDAT __JustMyCode_Default
_TEXT	SEGMENT
__JustMyCode_Default PROC				; COMDAT
	push	ebp
	mov	ebp, esp
	pop	ebp
	ret	0
__JustMyCode_Default ENDP
_TEXT	ENDS
; Function compile flags: /Odtp /RTCsu
; File c:\users\dag\documents\_clients\codeproject authors group\windows on arm\libxml2\libxml2-2.9.9\xmlunicode.c
;	COMDAT _xmlUnicodeLookup
_TEXT	SEGMENT
tv78 = -40						; size = 4
tv151 = -36						; size = 4
tv146 = -30						; size = 1
tv139 = -29						; size = 1
tv133 = -28						; size = 4
tv135 = -24						; size = 4
_sptr$ = -20						; size = 4
_cmp$ = -16						; size = 4
_mid$ = -12						; size = 4
_high$ = -8						; size = 4
_low$ = -4						; size = 4
_tptr$ = 8						; size = 4
_tname$ = 12						; size = 4
_xmlUnicodeLookup PROC					; COMDAT

; 946  : *xmlUnicodeLookup(xmlUnicodeNameTable *tptr, const char *tname) {

	push	ebp
	mov	ebp, esp
	sub	esp, 40					; 00000028H
	push	edi
	lea	edi, DWORD PTR [ebp-40]
	mov	ecx, 10					; 0000000aH
	mov	eax, -858993460				; ccccccccH
	rep stosd
	mov	ecx, OFFSET __B18DBD6B_xmlunicode@c
	call	@__CheckForDebuggerJustMyCode@4

; 947  :     int low, high, mid, cmp;
; 948  :     const xmlUnicodeRange *sptr;
; 949  : 
; 950  :     if ((tptr == NULL) || (tname == NULL)) return(NULL);

	cmp	DWORD PTR _tptr$[ebp], 0
	je	SHORT $LN5@xmlUnicode
	cmp	DWORD PTR _tname$[ebp], 0
	jne	SHORT $LN4@xmlUnicode
$LN5@xmlUnicode:
	xor	eax, eax
	jmp	$LN1@xmlUnicode
$LN4@xmlUnicode:

; 951  : 
; 952  :     low = 0;

	mov	DWORD PTR _low$[ebp], 0

; 953  :     high = tptr->numentries - 1;

	mov	eax, DWORD PTR _tptr$[ebp]
	mov	ecx, DWORD PTR [eax+4]
	sub	ecx, 1
	mov	DWORD PTR _high$[ebp], ecx

; 954  :     sptr = tptr->table;

	mov	edx, DWORD PTR _tptr$[ebp]
	mov	eax, DWORD PTR [edx]
	mov	DWORD PTR _sptr$[ebp], eax
$LN2@xmlUnicode:

; 955  :     while (low <= high) {

	mov	ecx, DWORD PTR _low$[ebp]
	cmp	ecx, DWORD PTR _high$[ebp]
	jg	$LN3@xmlUnicode

; 956  : 	mid = (low + high) / 2;

	mov	eax, DWORD PTR _low$[ebp]
	add	eax, DWORD PTR _high$[ebp]
	cdq
	sub	eax, edx
	sar	eax, 1
	mov	DWORD PTR _mid$[ebp], eax

; 957  : 	if ((cmp=strcmp(tname, sptr[mid].rangename)) == 0)

	mov	edx, DWORD PTR _mid$[ebp]
	mov	eax, DWORD PTR _sptr$[ebp]
	mov	ecx, DWORD PTR [eax+edx*8]
	mov	DWORD PTR tv135[ebp], ecx
	mov	edx, DWORD PTR _tname$[ebp]
	mov	DWORD PTR tv133[ebp], edx
$LL10@xmlUnicode:
	mov	eax, DWORD PTR tv133[ebp]
	mov	cl, BYTE PTR [eax]
	mov	BYTE PTR tv139[ebp], cl
	mov	edx, DWORD PTR tv135[ebp]
	cmp	cl, BYTE PTR [edx]
	jne	SHORT $LN11@xmlUnicode
	cmp	BYTE PTR tv139[ebp], 0
	je	SHORT $LN12@xmlUnicode
	mov	eax, DWORD PTR tv133[ebp]
	mov	cl, BYTE PTR [eax+1]
	mov	BYTE PTR tv146[ebp], cl
	mov	edx, DWORD PTR tv135[ebp]
	cmp	cl, BYTE PTR [edx+1]
	jne	SHORT $LN11@xmlUnicode
	add	DWORD PTR tv133[ebp], 2
	add	DWORD PTR tv135[ebp], 2
	cmp	BYTE PTR tv146[ebp], 0
	jne	SHORT $LL10@xmlUnicode
$LN12@xmlUnicode:
	mov	DWORD PTR tv151[ebp], 0
	jmp	SHORT $LN13@xmlUnicode
$LN11@xmlUnicode:
	sbb	eax, eax
	or	eax, 1
	mov	DWORD PTR tv151[ebp], eax
$LN13@xmlUnicode:
	mov	ecx, DWORD PTR tv151[ebp]
	mov	DWORD PTR tv78[ebp], ecx
	mov	edx, DWORD PTR tv78[ebp]
	mov	DWORD PTR _cmp$[ebp], edx
	cmp	DWORD PTR _cmp$[ebp], 0
	jne	SHORT $LN6@xmlUnicode

; 958  : 	    return (sptr[mid].func);

	mov	eax, DWORD PTR _mid$[ebp]
	mov	ecx, DWORD PTR _sptr$[ebp]
	mov	eax, DWORD PTR [ecx+eax*8+4]
	jmp	SHORT $LN1@xmlUnicode
$LN6@xmlUnicode:

; 959  : 	if (cmp < 0)

	cmp	DWORD PTR _cmp$[ebp], 0
	jge	SHORT $LN7@xmlUnicode

; 960  : 	    high = mid - 1;

	mov	edx, DWORD PTR _mid$[ebp]
	sub	edx, 1
	mov	DWORD PTR _high$[ebp], edx
	jmp	SHORT $LN8@xmlUnicode
$LN7@xmlUnicode:

; 961  : 	else
; 962  : 	    low = mid + 1;

	mov	eax, DWORD PTR _mid$[ebp]
	add	eax, 1
	mov	DWORD PTR _low$[ebp], eax
$LN8@xmlUnicode:

; 963  :     }

	jmp	$LN2@xmlUnicode
$LN3@xmlUnicode:

; 964  :     return (NULL);

	xor	eax, eax
$LN1@xmlUnicode:

; 965  : }

	pop	edi
	add	esp, 40					; 00000028H
	cmp	ebp, esp
	call	__RTC_CheckEsp
	mov	esp, ebp
	pop	ebp
	ret	0
_xmlUnicodeLookup ENDP
_TEXT	ENDS
; Function compile flags: /Odtp /RTCsu
; File c:\users\dag\documents\_clients\codeproject authors group\windows on arm\libxml2\libxml2-2.9.9\xmlunicode.c
;	COMDAT _xmlUCSIsCat
_TEXT	SEGMENT
_func$ = -4						; size = 4
_code$ = 8						; size = 4
_cat$ = 12						; size = 4
_xmlUCSIsCat PROC					; COMDAT

; 3168 : xmlUCSIsCat(int code, const char *cat) {

	push	ebp
	mov	ebp, esp
	push	ecx
	push	esi
	mov	DWORD PTR [ebp-4], -858993460		; ccccccccH
	mov	ecx, OFFSET __B18DBD6B_xmlunicode@c
	call	@__CheckForDebuggerJustMyCode@4

; 3169 :     xmlIntFunc *func;
; 3170 : 
; 3171 :     func = xmlUnicodeLookup(&xmlUnicodeCatTbl, cat);

	mov	eax, DWORD PTR _cat$[ebp]
	push	eax
	push	OFFSET _xmlUnicodeCatTbl
	call	_xmlUnicodeLookup
	add	esp, 8
	mov	DWORD PTR _func$[ebp], eax

; 3172 :     if (func == NULL)

	cmp	DWORD PTR _func$[ebp], 0
	jne	SHORT $LN2@xmlUCSIsCa

; 3173 : 	return (-1);

	or	eax, -1
	jmp	SHORT $LN1@xmlUCSIsCa
$LN2@xmlUCSIsCa:

; 3174 :     return (func(code));

	mov	esi, esp
	mov	ecx, DWORD PTR _code$[ebp]
	push	ecx
	call	DWORD PTR _func$[ebp]
	add	esp, 4
	cmp	esi, esp
	call	__RTC_CheckEsp
$LN1@xmlUCSIsCa:

; 3175 : }

	pop	esi
	add	esp, 4
	cmp	ebp, esp
	call	__RTC_CheckEsp
	mov	esp, ebp
	pop	ebp
	ret	0
_xmlUCSIsCat ENDP
_TEXT	ENDS
; Function compile flags: /Odtp /RTCsu
; File c:\users\dag\documents\_clients\codeproject authors group\windows on arm\libxml2\libxml2-2.9.9\xmlunicode.c
;	COMDAT _xmlUCSIsCatZs
_TEXT	SEGMENT
tv73 = -4						; size = 4
_code$ = 8						; size = 4
_xmlUCSIsCatZs PROC					; COMDAT

; 3147 : xmlUCSIsCatZs(int code) {

	push	ebp
	mov	ebp, esp
	push	ecx
	mov	DWORD PTR [ebp-4], -858993460		; ccccccccH
	mov	ecx, OFFSET __B18DBD6B_xmlunicode@c
	call	@__CheckForDebuggerJustMyCode@4

; 3148 :     return((code == 0x20) ||

	cmp	DWORD PTR _code$[ebp], 32		; 00000020H
	je	SHORT $LN3@xmlUCSIsCa
	cmp	DWORD PTR _code$[ebp], 160		; 000000a0H
	je	SHORT $LN3@xmlUCSIsCa
	cmp	DWORD PTR _code$[ebp], 5760		; 00001680H
	je	SHORT $LN3@xmlUCSIsCa
	cmp	DWORD PTR _code$[ebp], 6158		; 0000180eH
	je	SHORT $LN3@xmlUCSIsCa
	cmp	DWORD PTR _code$[ebp], 8192		; 00002000H
	jl	SHORT $LN4@xmlUCSIsCa
	cmp	DWORD PTR _code$[ebp], 8202		; 0000200aH
	jle	SHORT $LN3@xmlUCSIsCa
$LN4@xmlUCSIsCa:
	cmp	DWORD PTR _code$[ebp], 8239		; 0000202fH
	je	SHORT $LN3@xmlUCSIsCa
	cmp	DWORD PTR _code$[ebp], 8287		; 0000205fH
	je	SHORT $LN3@xmlUCSIsCa
	cmp	DWORD PTR _code$[ebp], 12288		; 00003000H
	je	SHORT $LN3@xmlUCSIsCa
	mov	DWORD PTR tv73[ebp], 0
	jmp	SHORT $LN5@xmlUCSIsCa
$LN3@xmlUCSIsCa:
	mov	DWORD PTR tv73[ebp], 1
$LN5@xmlUCSIsCa:
	mov	eax, DWORD PTR tv73[ebp]

; 3149 :            (code == 0xa0) ||
; 3150 :            (code == 0x1680) ||
; 3151 :            (code == 0x180e) ||
; 3152 :            ((code >= 0x2000) && (code <= 0x200a)) ||
; 3153 :            (code == 0x202f) ||
; 3154 :            (code == 0x205f) ||
; 3155 :            (code == 0x3000));
; 3156 : }

	add	esp, 4
	cmp	ebp, esp
	call	__RTC_CheckEsp
	mov	esp, ebp
	pop	ebp
	ret	0
_xmlUCSIsCatZs ENDP
_TEXT	ENDS
; Function compile flags: /Odtp /RTCsu
; File c:\users\dag\documents\_clients\codeproject authors group\windows on arm\libxml2\libxml2-2.9.9\xmlunicode.c
;	COMDAT _xmlUCSIsCatZp
_TEXT	SEGMENT
tv65 = -4						; size = 4
_code$ = 8						; size = 4
_xmlUCSIsCatZp PROC					; COMDAT

; 3134 : xmlUCSIsCatZp(int code) {

	push	ebp
	mov	ebp, esp
	push	ecx
	mov	DWORD PTR [ebp-4], -858993460		; ccccccccH
	mov	ecx, OFFSET __B18DBD6B_xmlunicode@c
	call	@__CheckForDebuggerJustMyCode@4

; 3135 :     return((code == 0x2029));

	cmp	DWORD PTR _code$[ebp], 8233		; 00002029H
	jne	SHORT $LN3@xmlUCSIsCa
	mov	DWORD PTR tv65[ebp], 1
	jmp	SHORT $LN4@xmlUCSIsCa
$LN3@xmlUCSIsCa:
	mov	DWORD PTR tv65[ebp], 0
$LN4@xmlUCSIsCa:
	mov	eax, DWORD PTR tv65[ebp]

; 3136 : }

	add	esp, 4
	cmp	ebp, esp
	call	__RTC_CheckEsp
	mov	esp, ebp
	pop	ebp
	ret	0
_xmlUCSIsCatZp ENDP
_TEXT	ENDS
; Function compile flags: /Odtp /RTCsu
; File c:\users\dag\documents\_clients\codeproject authors group\windows on arm\libxml2\libxml2-2.9.9\xmlunicode.c
;	COMDAT _xmlUCSIsCatZl
_TEXT	SEGMENT
tv65 = -4						; size = 4
_code$ = 8						; size = 4
_xmlUCSIsCatZl PROC					; COMDAT

; 3121 : xmlUCSIsCatZl(int code) {

	push	ebp
	mov	ebp, esp
	push	ecx
	mov	DWORD PTR [ebp-4], -858993460		; ccccccccH
	mov	ecx, OFFSET __B18DBD6B_xmlunicode@c
	call	@__CheckForDebuggerJustMyCode@4

; 3122 :     return((code == 0x2028));

	cmp	DWORD PTR _code$[ebp], 8232		; 00002028H
	jne	SHORT $LN3@xmlUCSIsCa
	mov	DWORD PTR tv65[ebp], 1
	jmp	SHORT $LN4@xmlUCSIsCa
$LN3@xmlUCSIsCa:
	mov	DWORD PTR tv65[ebp], 0
$LN4@xmlUCSIsCa:
	mov	eax, DWORD PTR tv65[ebp]

; 3123 : }

	add	esp, 4
	cmp	ebp, esp
	call	__RTC_CheckEsp
	mov	esp, ebp
	pop	ebp
	ret	0
_xmlUCSIsCatZl ENDP
_TEXT	ENDS
; Function compile flags: /Odtp /RTCsu
; File c:\users\dag\documents\_clients\codeproject authors group\windows on arm\libxml2\libxml2-2.9.9\xmlunicode.c
;	COMDAT _xmlUCSIsCatZ
_TEXT	SEGMENT
_code$ = 8						; size = 4
_xmlUCSIsCatZ PROC					; COMDAT

; 3108 : xmlUCSIsCatZ(int code) {

	push	ebp
	mov	ebp, esp
	mov	ecx, OFFSET __B18DBD6B_xmlunicode@c
	call	@__CheckForDebuggerJustMyCode@4

; 3109 :     return(xmlCharInRange((unsigned int)code, &xmlZG));

	push	OFFSET _xmlZG
	mov	eax, DWORD PTR _code$[ebp]
	push	eax
	call	_xmlCharInRange
	add	esp, 8

; 3110 : }

	cmp	ebp, esp
	call	__RTC_CheckEsp
	pop	ebp
	ret	0
_xmlUCSIsCatZ ENDP
_TEXT	ENDS
; Function compile flags: /Odtp /RTCsu
; File c:\users\dag\documents\_clients\codeproject authors group\windows on arm\libxml2\libxml2-2.9.9\xmlunicode.c
;	COMDAT _xmlUCSIsCatSo
_TEXT	SEGMENT
_code$ = 8						; size = 4
_xmlUCSIsCatSo PROC					; COMDAT

; 3095 : xmlUCSIsCatSo(int code) {

	push	ebp
	mov	ebp, esp
	mov	ecx, OFFSET __B18DBD6B_xmlunicode@c
	call	@__CheckForDebuggerJustMyCode@4

; 3096 :     return(xmlCharInRange((unsigned int)code, &xmlSoG));

	push	OFFSET _xmlSoG
	mov	eax, DWORD PTR _code$[ebp]
	push	eax
	call	_xmlCharInRange
	add	esp, 8

; 3097 : }

	cmp	ebp, esp
	call	__RTC_CheckEsp
	pop	ebp
	ret	0
_xmlUCSIsCatSo ENDP
_TEXT	ENDS
; Function compile flags: /Odtp /RTCsu
; File c:\users\dag\documents\_clients\codeproject authors group\windows on arm\libxml2\libxml2-2.9.9\xmlunicode.c
;	COMDAT _xmlUCSIsCatSm
_TEXT	SEGMENT
_code$ = 8						; size = 4
_xmlUCSIsCatSm PROC					; COMDAT

; 3082 : xmlUCSIsCatSm(int code) {

	push	ebp
	mov	ebp, esp
	mov	ecx, OFFSET __B18DBD6B_xmlunicode@c
	call	@__CheckForDebuggerJustMyCode@4

; 3083 :     return(xmlCharInRange((unsigned int)code, &xmlSmG));

	push	OFFSET _xmlSmG
	mov	eax, DWORD PTR _code$[ebp]
	push	eax
	call	_xmlCharInRange
	add	esp, 8

; 3084 : }

	cmp	ebp, esp
	call	__RTC_CheckEsp
	pop	ebp
	ret	0
_xmlUCSIsCatSm ENDP
_TEXT	ENDS
; Function compile flags: /Odtp /RTCsu
; File c:\users\dag\documents\_clients\codeproject authors group\windows on arm\libxml2\libxml2-2.9.9\xmlunicode.c
;	COMDAT _xmlUCSIsCatSk
_TEXT	SEGMENT
_code$ = 8						; size = 4
_xmlUCSIsCatSk PROC					; COMDAT

; 3069 : xmlUCSIsCatSk(int code) {

	push	ebp
	mov	ebp, esp
	mov	ecx, OFFSET __B18DBD6B_xmlunicode@c
	call	@__CheckForDebuggerJustMyCode@4

; 3070 :     return(xmlCharInRange((unsigned int)code, &xmlSkG));

	push	OFFSET _xmlSkG
	mov	eax, DWORD PTR _code$[ebp]
	push	eax
	call	_xmlCharInRange
	add	esp, 8

; 3071 : }

	cmp	ebp, esp
	call	__RTC_CheckEsp
	pop	ebp
	ret	0
_xmlUCSIsCatSk ENDP
_TEXT	ENDS
; Function compile flags: /Odtp /RTCsu
; File c:\users\dag\documents\_clients\codeproject authors group\windows on arm\libxml2\libxml2-2.9.9\xmlunicode.c
;	COMDAT _xmlUCSIsCatSc
_TEXT	SEGMENT
_code$ = 8						; size = 4
_xmlUCSIsCatSc PROC					; COMDAT

; 3056 : xmlUCSIsCatSc(int code) {

	push	ebp
	mov	ebp, esp
	mov	ecx, OFFSET __B18DBD6B_xmlunicode@c
	call	@__CheckForDebuggerJustMyCode@4

; 3057 :     return(xmlCharInRange((unsigned int)code, &xmlScG));

	push	OFFSET _xmlScG
	mov	eax, DWORD PTR _code$[ebp]
	push	eax
	call	_xmlCharInRange
	add	esp, 8

; 3058 : }

	cmp	ebp, esp
	call	__RTC_CheckEsp
	pop	ebp
	ret	0
_xmlUCSIsCatSc ENDP
_TEXT	ENDS
; Function compile flags: /Odtp /RTCsu
; File c:\users\dag\documents\_clients\codeproject authors group\windows on arm\libxml2\libxml2-2.9.9\xmlunicode.c
;	COMDAT _xmlUCSIsCatS
_TEXT	SEGMENT
_code$ = 8						; size = 4
_xmlUCSIsCatS PROC					; COMDAT

; 3043 : xmlUCSIsCatS(int code) {

	push	ebp
	mov	ebp, esp
	mov	ecx, OFFSET __B18DBD6B_xmlunicode@c
	call	@__CheckForDebuggerJustMyCode@4

; 3044 :     return(xmlCharInRange((unsigned int)code, &xmlSG));

	push	OFFSET _xmlSG
	mov	eax, DWORD PTR _code$[ebp]
	push	eax
	call	_xmlCharInRange
	add	esp, 8

; 3045 : }

	cmp	ebp, esp
	call	__RTC_CheckEsp
	pop	ebp
	ret	0
_xmlUCSIsCatS ENDP
_TEXT	ENDS
; Function compile flags: /Odtp /RTCsu
; File c:\users\dag\documents\_clients\codeproject authors group\windows on arm\libxml2\libxml2-2.9.9\xmlunicode.c
;	COMDAT _xmlUCSIsCatPs
_TEXT	SEGMENT
_code$ = 8						; size = 4
_xmlUCSIsCatPs PROC					; COMDAT

; 3030 : xmlUCSIsCatPs(int code) {

	push	ebp
	mov	ebp, esp
	mov	ecx, OFFSET __B18DBD6B_xmlunicode@c
	call	@__CheckForDebuggerJustMyCode@4

; 3031 :     return(xmlCharInRange((unsigned int)code, &xmlPsG));

	push	OFFSET _xmlPsG
	mov	eax, DWORD PTR _code$[ebp]
	push	eax
	call	_xmlCharInRange
	add	esp, 8

; 3032 : }

	cmp	ebp, esp
	call	__RTC_CheckEsp
	pop	ebp
	ret	0
_xmlUCSIsCatPs ENDP
_TEXT	ENDS
; Function compile flags: /Odtp /RTCsu
; File c:\users\dag\documents\_clients\codeproject authors group\windows on arm\libxml2\libxml2-2.9.9\xmlunicode.c
;	COMDAT _xmlUCSIsCatPo
_TEXT	SEGMENT
_code$ = 8						; size = 4
_xmlUCSIsCatPo PROC					; COMDAT

; 3017 : xmlUCSIsCatPo(int code) {

	push	ebp
	mov	ebp, esp
	mov	ecx, OFFSET __B18DBD6B_xmlunicode@c
	call	@__CheckForDebuggerJustMyCode@4

; 3018 :     return(xmlCharInRange((unsigned int)code, &xmlPoG));

	push	OFFSET _xmlPoG
	mov	eax, DWORD PTR _code$[ebp]
	push	eax
	call	_xmlCharInRange
	add	esp, 8

; 3019 : }

	cmp	ebp, esp
	call	__RTC_CheckEsp
	pop	ebp
	ret	0
_xmlUCSIsCatPo ENDP
_TEXT	ENDS
; Function compile flags: /Odtp /RTCsu
; File c:\users\dag\documents\_clients\codeproject authors group\windows on arm\libxml2\libxml2-2.9.9\xmlunicode.c
;	COMDAT _xmlUCSIsCatPi
_TEXT	SEGMENT
tv70 = -4						; size = 4
_code$ = 8						; size = 4
_xmlUCSIsCatPi PROC					; COMDAT

; 3000 : xmlUCSIsCatPi(int code) {

	push	ebp
	mov	ebp, esp
	push	ecx
	mov	DWORD PTR [ebp-4], -858993460		; ccccccccH
	mov	ecx, OFFSET __B18DBD6B_xmlunicode@c
	call	@__CheckForDebuggerJustMyCode@4

; 3001 :     return((code == 0xab) ||

	cmp	DWORD PTR _code$[ebp], 171		; 000000abH
	je	SHORT $LN3@xmlUCSIsCa
	cmp	DWORD PTR _code$[ebp], 8216		; 00002018H
	je	SHORT $LN3@xmlUCSIsCa
	cmp	DWORD PTR _code$[ebp], 8219		; 0000201bH
	jl	SHORT $LN4@xmlUCSIsCa
	cmp	DWORD PTR _code$[ebp], 8220		; 0000201cH
	jle	SHORT $LN3@xmlUCSIsCa
$LN4@xmlUCSIsCa:
	cmp	DWORD PTR _code$[ebp], 8223		; 0000201fH
	je	SHORT $LN3@xmlUCSIsCa
	cmp	DWORD PTR _code$[ebp], 8249		; 00002039H
	je	SHORT $LN3@xmlUCSIsCa
	mov	DWORD PTR tv70[ebp], 0
	jmp	SHORT $LN5@xmlUCSIsCa
$LN3@xmlUCSIsCa:
	mov	DWORD PTR tv70[ebp], 1
$LN5@xmlUCSIsCa:
	mov	eax, DWORD PTR tv70[ebp]

; 3002 :            (code == 0x2018) ||
; 3003 :            ((code >= 0x201b) && (code <= 0x201c)) ||
; 3004 :            (code == 0x201f) ||
; 3005 :            (code == 0x2039));
; 3006 : }

	add	esp, 4
	cmp	ebp, esp
	call	__RTC_CheckEsp
	mov	esp, ebp
	pop	ebp
	ret	0
_xmlUCSIsCatPi ENDP
_TEXT	ENDS
; Function compile flags: /Odtp /RTCsu
; File c:\users\dag\documents\_clients\codeproject authors group\windows on arm\libxml2\libxml2-2.9.9\xmlunicode.c
;	COMDAT _xmlUCSIsCatPf
_TEXT	SEGMENT
tv68 = -4						; size = 4
_code$ = 8						; size = 4
_xmlUCSIsCatPf PROC					; COMDAT

; 2984 : xmlUCSIsCatPf(int code) {

	push	ebp
	mov	ebp, esp
	push	ecx
	mov	DWORD PTR [ebp-4], -858993460		; ccccccccH
	mov	ecx, OFFSET __B18DBD6B_xmlunicode@c
	call	@__CheckForDebuggerJustMyCode@4

; 2985 :     return((code == 0xbb) ||

	cmp	DWORD PTR _code$[ebp], 187		; 000000bbH
	je	SHORT $LN3@xmlUCSIsCa
	cmp	DWORD PTR _code$[ebp], 8217		; 00002019H
	je	SHORT $LN3@xmlUCSIsCa
	cmp	DWORD PTR _code$[ebp], 8221		; 0000201dH
	je	SHORT $LN3@xmlUCSIsCa
	cmp	DWORD PTR _code$[ebp], 8250		; 0000203aH
	je	SHORT $LN3@xmlUCSIsCa
	mov	DWORD PTR tv68[ebp], 0
	jmp	SHORT $LN4@xmlUCSIsCa
$LN3@xmlUCSIsCa:
	mov	DWORD PTR tv68[ebp], 1
$LN4@xmlUCSIsCa:
	mov	eax, DWORD PTR tv68[ebp]

; 2986 :            (code == 0x2019) ||
; 2987 :            (code == 0x201d) ||
; 2988 :            (code == 0x203a));
; 2989 : }

	add	esp, 4
	cmp	ebp, esp
	call	__RTC_CheckEsp
	mov	esp, ebp
	pop	ebp
	ret	0
_xmlUCSIsCatPf ENDP
_TEXT	ENDS
; Function compile flags: /Odtp /RTCsu
; File c:\users\dag\documents\_clients\codeproject authors group\windows on arm\libxml2\libxml2-2.9.9\xmlunicode.c
;	COMDAT _xmlUCSIsCatPe
_TEXT	SEGMENT
_code$ = 8						; size = 4
_xmlUCSIsCatPe PROC					; COMDAT

; 2971 : xmlUCSIsCatPe(int code) {

	push	ebp
	mov	ebp, esp
	mov	ecx, OFFSET __B18DBD6B_xmlunicode@c
	call	@__CheckForDebuggerJustMyCode@4

; 2972 :     return(xmlCharInRange((unsigned int)code, &xmlPeG));

	push	OFFSET _xmlPeG
	mov	eax, DWORD PTR _code$[ebp]
	push	eax
	call	_xmlCharInRange
	add	esp, 8

; 2973 : }

	cmp	ebp, esp
	call	__RTC_CheckEsp
	pop	ebp
	ret	0
_xmlUCSIsCatPe ENDP
_TEXT	ENDS
; Function compile flags: /Odtp /RTCsu
; File c:\users\dag\documents\_clients\codeproject authors group\windows on arm\libxml2\libxml2-2.9.9\xmlunicode.c
;	COMDAT _xmlUCSIsCatPd
_TEXT	SEGMENT
_code$ = 8						; size = 4
_xmlUCSIsCatPd PROC					; COMDAT

; 2958 : xmlUCSIsCatPd(int code) {

	push	ebp
	mov	ebp, esp
	mov	ecx, OFFSET __B18DBD6B_xmlunicode@c
	call	@__CheckForDebuggerJustMyCode@4

; 2959 :     return(xmlCharInRange((unsigned int)code, &xmlPdG));

	push	OFFSET _xmlPdG
	mov	eax, DWORD PTR _code$[ebp]
	push	eax
	call	_xmlCharInRange
	add	esp, 8

; 2960 : }

	cmp	ebp, esp
	call	__RTC_CheckEsp
	pop	ebp
	ret	0
_xmlUCSIsCatPd ENDP
_TEXT	ENDS
; Function compile flags: /Odtp /RTCsu
; File c:\users\dag\documents\_clients\codeproject authors group\windows on arm\libxml2\libxml2-2.9.9\xmlunicode.c
;	COMDAT _xmlUCSIsCatPc
_TEXT	SEGMENT
tv75 = -4						; size = 4
_code$ = 8						; size = 4
_xmlUCSIsCatPc PROC					; COMDAT

; 2938 : xmlUCSIsCatPc(int code) {

	push	ebp
	mov	ebp, esp
	push	ecx
	mov	DWORD PTR [ebp-4], -858993460		; ccccccccH
	mov	ecx, OFFSET __B18DBD6B_xmlunicode@c
	call	@__CheckForDebuggerJustMyCode@4

; 2939 :     return((code == 0x5f) ||

	cmp	DWORD PTR _code$[ebp], 95		; 0000005fH
	je	SHORT $LN4@xmlUCSIsCa
	cmp	DWORD PTR _code$[ebp], 8255		; 0000203fH
	jl	SHORT $LN3@xmlUCSIsCa
	cmp	DWORD PTR _code$[ebp], 8256		; 00002040H
	jle	SHORT $LN4@xmlUCSIsCa
$LN3@xmlUCSIsCa:
	cmp	DWORD PTR _code$[ebp], 8276		; 00002054H
	je	SHORT $LN4@xmlUCSIsCa
	cmp	DWORD PTR _code$[ebp], 12539		; 000030fbH
	je	SHORT $LN4@xmlUCSIsCa
	cmp	DWORD PTR _code$[ebp], 65075		; 0000fe33H
	jl	SHORT $LN5@xmlUCSIsCa
	cmp	DWORD PTR _code$[ebp], 65076		; 0000fe34H
	jle	SHORT $LN4@xmlUCSIsCa
$LN5@xmlUCSIsCa:
	cmp	DWORD PTR _code$[ebp], 65101		; 0000fe4dH
	jl	SHORT $LN6@xmlUCSIsCa
	cmp	DWORD PTR _code$[ebp], 65103		; 0000fe4fH
	jle	SHORT $LN4@xmlUCSIsCa
$LN6@xmlUCSIsCa:
	cmp	DWORD PTR _code$[ebp], 65343		; 0000ff3fH
	je	SHORT $LN4@xmlUCSIsCa
	cmp	DWORD PTR _code$[ebp], 65381		; 0000ff65H
	je	SHORT $LN4@xmlUCSIsCa
	mov	DWORD PTR tv75[ebp], 0
	jmp	SHORT $LN7@xmlUCSIsCa
$LN4@xmlUCSIsCa:
	mov	DWORD PTR tv75[ebp], 1
$LN7@xmlUCSIsCa:
	mov	eax, DWORD PTR tv75[ebp]

; 2940 :            ((code >= 0x203f) && (code <= 0x2040)) ||
; 2941 :            (code == 0x2054) ||
; 2942 :            (code == 0x30fb) ||
; 2943 :            ((code >= 0xfe33) && (code <= 0xfe34)) ||
; 2944 :            ((code >= 0xfe4d) && (code <= 0xfe4f)) ||
; 2945 :            (code == 0xff3f) ||
; 2946 :            (code == 0xff65));
; 2947 : }

	add	esp, 4
	cmp	ebp, esp
	call	__RTC_CheckEsp
	mov	esp, ebp
	pop	ebp
	ret	0
_xmlUCSIsCatPc ENDP
_TEXT	ENDS
; Function compile flags: /Odtp /RTCsu
; File c:\users\dag\documents\_clients\codeproject authors group\windows on arm\libxml2\libxml2-2.9.9\xmlunicode.c
;	COMDAT _xmlUCSIsCatP
_TEXT	SEGMENT
_code$ = 8						; size = 4
_xmlUCSIsCatP PROC					; COMDAT

; 2925 : xmlUCSIsCatP(int code) {

	push	ebp
	mov	ebp, esp
	mov	ecx, OFFSET __B18DBD6B_xmlunicode@c
	call	@__CheckForDebuggerJustMyCode@4

; 2926 :     return(xmlCharInRange((unsigned int)code, &xmlPG));

	push	OFFSET _xmlPG
	mov	eax, DWORD PTR _code$[ebp]
	push	eax
	call	_xmlCharInRange
	add	esp, 8

; 2927 : }

	cmp	ebp, esp
	call	__RTC_CheckEsp
	pop	ebp
	ret	0
_xmlUCSIsCatP ENDP
_TEXT	ENDS
; Function compile flags: /Odtp /RTCsu
; File c:\users\dag\documents\_clients\codeproject authors group\windows on arm\libxml2\libxml2-2.9.9\xmlunicode.c
;	COMDAT _xmlUCSIsCatNo
_TEXT	SEGMENT
_code$ = 8						; size = 4
_xmlUCSIsCatNo PROC					; COMDAT

; 2912 : xmlUCSIsCatNo(int code) {

	push	ebp
	mov	ebp, esp
	mov	ecx, OFFSET __B18DBD6B_xmlunicode@c
	call	@__CheckForDebuggerJustMyCode@4

; 2913 :     return(xmlCharInRange((unsigned int)code, &xmlNoG));

	push	OFFSET _xmlNoG
	mov	eax, DWORD PTR _code$[ebp]
	push	eax
	call	_xmlCharInRange
	add	esp, 8

; 2914 : }

	cmp	ebp, esp
	call	__RTC_CheckEsp
	pop	ebp
	ret	0
_xmlUCSIsCatNo ENDP
_TEXT	ENDS
; Function compile flags: /Odtp /RTCsu
; File c:\users\dag\documents\_clients\codeproject authors group\windows on arm\libxml2\libxml2-2.9.9\xmlunicode.c
;	COMDAT _xmlUCSIsCatNl
_TEXT	SEGMENT
tv74 = -4						; size = 4
_code$ = 8						; size = 4
_xmlUCSIsCatNl PROC					; COMDAT

; 2894 : xmlUCSIsCatNl(int code) {

	push	ebp
	mov	ebp, esp
	push	ecx
	mov	DWORD PTR [ebp-4], -858993460		; ccccccccH
	mov	ecx, OFFSET __B18DBD6B_xmlunicode@c
	call	@__CheckForDebuggerJustMyCode@4

; 2895 :     return(((code >= 0x16ee) && (code <= 0x16f0)) ||

	cmp	DWORD PTR _code$[ebp], 5870		; 000016eeH
	jl	SHORT $LN3@xmlUCSIsCa
	cmp	DWORD PTR _code$[ebp], 5872		; 000016f0H
	jle	SHORT $LN5@xmlUCSIsCa
$LN3@xmlUCSIsCa:
	cmp	DWORD PTR _code$[ebp], 8544		; 00002160H
	jl	SHORT $LN4@xmlUCSIsCa
	cmp	DWORD PTR _code$[ebp], 8579		; 00002183H
	jle	SHORT $LN5@xmlUCSIsCa
$LN4@xmlUCSIsCa:
	cmp	DWORD PTR _code$[ebp], 12295		; 00003007H
	je	SHORT $LN5@xmlUCSIsCa
	cmp	DWORD PTR _code$[ebp], 12321		; 00003021H
	jl	SHORT $LN6@xmlUCSIsCa
	cmp	DWORD PTR _code$[ebp], 12329		; 00003029H
	jle	SHORT $LN5@xmlUCSIsCa
$LN6@xmlUCSIsCa:
	cmp	DWORD PTR _code$[ebp], 12344		; 00003038H
	jl	SHORT $LN7@xmlUCSIsCa
	cmp	DWORD PTR _code$[ebp], 12346		; 0000303aH
	jle	SHORT $LN5@xmlUCSIsCa
$LN7@xmlUCSIsCa:
	cmp	DWORD PTR _code$[ebp], 66378		; 0001034aH
	je	SHORT $LN5@xmlUCSIsCa
	mov	DWORD PTR tv74[ebp], 0
	jmp	SHORT $LN8@xmlUCSIsCa
$LN5@xmlUCSIsCa:
	mov	DWORD PTR tv74[ebp], 1
$LN8@xmlUCSIsCa:
	mov	eax, DWORD PTR tv74[ebp]

; 2896 :            ((code >= 0x2160) && (code <= 0x2183)) ||
; 2897 :            (code == 0x3007) ||
; 2898 :            ((code >= 0x3021) && (code <= 0x3029)) ||
; 2899 :            ((code >= 0x3038) && (code <= 0x303a)) ||
; 2900 :            (code == 0x1034a));
; 2901 : }

	add	esp, 4
	cmp	ebp, esp
	call	__RTC_CheckEsp
	mov	esp, ebp
	pop	ebp
	ret	0
_xmlUCSIsCatNl ENDP
_TEXT	ENDS
; Function compile flags: /Odtp /RTCsu
; File c:\users\dag\documents\_clients\codeproject authors group\windows on arm\libxml2\libxml2-2.9.9\xmlunicode.c
;	COMDAT _xmlUCSIsCatNd
_TEXT	SEGMENT
_code$ = 8						; size = 4
_xmlUCSIsCatNd PROC					; COMDAT

; 2881 : xmlUCSIsCatNd(int code) {

	push	ebp
	mov	ebp, esp
	mov	ecx, OFFSET __B18DBD6B_xmlunicode@c
	call	@__CheckForDebuggerJustMyCode@4

; 2882 :     return(xmlCharInRange((unsigned int)code, &xmlNdG));

	push	OFFSET _xmlNdG
	mov	eax, DWORD PTR _code$[ebp]
	push	eax
	call	_xmlCharInRange
	add	esp, 8

; 2883 : }

	cmp	ebp, esp
	call	__RTC_CheckEsp
	pop	ebp
	ret	0
_xmlUCSIsCatNd ENDP
_TEXT	ENDS
; Function compile flags: /Odtp /RTCsu
; File c:\users\dag\documents\_clients\codeproject authors group\windows on arm\libxml2\libxml2-2.9.9\xmlunicode.c
;	COMDAT _xmlUCSIsCatN
_TEXT	SEGMENT
_code$ = 8						; size = 4
_xmlUCSIsCatN PROC					; COMDAT

; 2868 : xmlUCSIsCatN(int code) {

	push	ebp
	mov	ebp, esp
	mov	ecx, OFFSET __B18DBD6B_xmlunicode@c
	call	@__CheckForDebuggerJustMyCode@4

; 2869 :     return(xmlCharInRange((unsigned int)code, &xmlNG));

	push	OFFSET _xmlNG
	mov	eax, DWORD PTR _code$[ebp]
	push	eax
	call	_xmlCharInRange
	add	esp, 8

; 2870 : }

	cmp	ebp, esp
	call	__RTC_CheckEsp
	pop	ebp
	ret	0
_xmlUCSIsCatN ENDP
_TEXT	ENDS
; Function compile flags: /Odtp /RTCsu
; File c:\users\dag\documents\_clients\codeproject authors group\windows on arm\libxml2\libxml2-2.9.9\xmlunicode.c
;	COMDAT _xmlUCSIsCatMn
_TEXT	SEGMENT
_code$ = 8						; size = 4
_xmlUCSIsCatMn PROC					; COMDAT

; 2855 : xmlUCSIsCatMn(int code) {

	push	ebp
	mov	ebp, esp
	mov	ecx, OFFSET __B18DBD6B_xmlunicode@c
	call	@__CheckForDebuggerJustMyCode@4

; 2856 :     return(xmlCharInRange((unsigned int)code, &xmlMnG));

	push	OFFSET _xmlMnG
	mov	eax, DWORD PTR _code$[ebp]
	push	eax
	call	_xmlCharInRange
	add	esp, 8

; 2857 : }

	cmp	ebp, esp
	call	__RTC_CheckEsp
	pop	ebp
	ret	0
_xmlUCSIsCatMn ENDP
_TEXT	ENDS
; Function compile flags: /Odtp /RTCsu
; File c:\users\dag\documents\_clients\codeproject authors group\windows on arm\libxml2\libxml2-2.9.9\xmlunicode.c
;	COMDAT _xmlUCSIsCatMe
_TEXT	SEGMENT
tv71 = -4						; size = 4
_code$ = 8						; size = 4
_xmlUCSIsCatMe PROC					; COMDAT

; 2839 : xmlUCSIsCatMe(int code) {

	push	ebp
	mov	ebp, esp
	push	ecx
	mov	DWORD PTR [ebp-4], -858993460		; ccccccccH
	mov	ecx, OFFSET __B18DBD6B_xmlunicode@c
	call	@__CheckForDebuggerJustMyCode@4

; 2840 :     return(((code >= 0x488) && (code <= 0x489)) ||

	cmp	DWORD PTR _code$[ebp], 1160		; 00000488H
	jl	SHORT $LN3@xmlUCSIsCa
	cmp	DWORD PTR _code$[ebp], 1161		; 00000489H
	jle	SHORT $LN4@xmlUCSIsCa
$LN3@xmlUCSIsCa:
	cmp	DWORD PTR _code$[ebp], 1758		; 000006deH
	je	SHORT $LN4@xmlUCSIsCa
	cmp	DWORD PTR _code$[ebp], 8413		; 000020ddH
	jl	SHORT $LN5@xmlUCSIsCa
	cmp	DWORD PTR _code$[ebp], 8416		; 000020e0H
	jle	SHORT $LN4@xmlUCSIsCa
$LN5@xmlUCSIsCa:
	cmp	DWORD PTR _code$[ebp], 8418		; 000020e2H
	jl	SHORT $LN6@xmlUCSIsCa
	cmp	DWORD PTR _code$[ebp], 8420		; 000020e4H
	jle	SHORT $LN4@xmlUCSIsCa
$LN6@xmlUCSIsCa:
	mov	DWORD PTR tv71[ebp], 0
	jmp	SHORT $LN7@xmlUCSIsCa
$LN4@xmlUCSIsCa:
	mov	DWORD PTR tv71[ebp], 1
$LN7@xmlUCSIsCa:
	mov	eax, DWORD PTR tv71[ebp]

; 2841 :            (code == 0x6de) ||
; 2842 :            ((code >= 0x20dd) && (code <= 0x20e0)) ||
; 2843 :            ((code >= 0x20e2) && (code <= 0x20e4)));
; 2844 : }

	add	esp, 4
	cmp	ebp, esp
	call	__RTC_CheckEsp
	mov	esp, ebp
	pop	ebp
	ret	0
_xmlUCSIsCatMe ENDP
_TEXT	ENDS
; Function compile flags: /Odtp /RTCsu
; File c:\users\dag\documents\_clients\codeproject authors group\windows on arm\libxml2\libxml2-2.9.9\xmlunicode.c
;	COMDAT _xmlUCSIsCatMc
_TEXT	SEGMENT
_code$ = 8						; size = 4
_xmlUCSIsCatMc PROC					; COMDAT

; 2826 : xmlUCSIsCatMc(int code) {

	push	ebp
	mov	ebp, esp
	mov	ecx, OFFSET __B18DBD6B_xmlunicode@c
	call	@__CheckForDebuggerJustMyCode@4

; 2827 :     return(xmlCharInRange((unsigned int)code, &xmlMcG));

	push	OFFSET _xmlMcG
	mov	eax, DWORD PTR _code$[ebp]
	push	eax
	call	_xmlCharInRange
	add	esp, 8

; 2828 : }

	cmp	ebp, esp
	call	__RTC_CheckEsp
	pop	ebp
	ret	0
_xmlUCSIsCatMc ENDP
_TEXT	ENDS
; Function compile flags: /Odtp /RTCsu
; File c:\users\dag\documents\_clients\codeproject authors group\windows on arm\libxml2\libxml2-2.9.9\xmlunicode.c
;	COMDAT _xmlUCSIsCatM
_TEXT	SEGMENT
_code$ = 8						; size = 4
_xmlUCSIsCatM PROC					; COMDAT

; 2813 : xmlUCSIsCatM(int code) {

	push	ebp
	mov	ebp, esp
	mov	ecx, OFFSET __B18DBD6B_xmlunicode@c
	call	@__CheckForDebuggerJustMyCode@4

; 2814 :     return(xmlCharInRange((unsigned int)code, &xmlMG));

	push	OFFSET _xmlMG
	mov	eax, DWORD PTR _code$[ebp]
	push	eax
	call	_xmlCharInRange
	add	esp, 8

; 2815 : }

	cmp	ebp, esp
	call	__RTC_CheckEsp
	pop	ebp
	ret	0
_xmlUCSIsCatM ENDP
_TEXT	ENDS
; Function compile flags: /Odtp /RTCsu
; File c:\users\dag\documents\_clients\codeproject authors group\windows on arm\libxml2\libxml2-2.9.9\xmlunicode.c
;	COMDAT _xmlUCSIsCatLu
_TEXT	SEGMENT
_code$ = 8						; size = 4
_xmlUCSIsCatLu PROC					; COMDAT

; 2800 : xmlUCSIsCatLu(int code) {

	push	ebp
	mov	ebp, esp
	mov	ecx, OFFSET __B18DBD6B_xmlunicode@c
	call	@__CheckForDebuggerJustMyCode@4

; 2801 :     return(xmlCharInRange((unsigned int)code, &xmlLuG));

	push	OFFSET _xmlLuG
	mov	eax, DWORD PTR _code$[ebp]
	push	eax
	call	_xmlCharInRange
	add	esp, 8

; 2802 : }

	cmp	ebp, esp
	call	__RTC_CheckEsp
	pop	ebp
	ret	0
_xmlUCSIsCatLu ENDP
_TEXT	ENDS
; Function compile flags: /Odtp /RTCsu
; File c:\users\dag\documents\_clients\codeproject authors group\windows on arm\libxml2\libxml2-2.9.9\xmlunicode.c
;	COMDAT _xmlUCSIsCatLt
_TEXT	SEGMENT
_code$ = 8						; size = 4
_xmlUCSIsCatLt PROC					; COMDAT

; 2787 : xmlUCSIsCatLt(int code) {

	push	ebp
	mov	ebp, esp
	mov	ecx, OFFSET __B18DBD6B_xmlunicode@c
	call	@__CheckForDebuggerJustMyCode@4

; 2788 :     return(xmlCharInRange((unsigned int)code, &xmlLtG));

	push	OFFSET _xmlLtG
	mov	eax, DWORD PTR _code$[ebp]
	push	eax
	call	_xmlCharInRange
	add	esp, 8

; 2789 : }

	cmp	ebp, esp
	call	__RTC_CheckEsp
	pop	ebp
	ret	0
_xmlUCSIsCatLt ENDP
_TEXT	ENDS
; Function compile flags: /Odtp /RTCsu
; File c:\users\dag\documents\_clients\codeproject authors group\windows on arm\libxml2\libxml2-2.9.9\xmlunicode.c
;	COMDAT _xmlUCSIsCatLo
_TEXT	SEGMENT
_code$ = 8						; size = 4
_xmlUCSIsCatLo PROC					; COMDAT

; 2774 : xmlUCSIsCatLo(int code) {

	push	ebp
	mov	ebp, esp
	mov	ecx, OFFSET __B18DBD6B_xmlunicode@c
	call	@__CheckForDebuggerJustMyCode@4

; 2775 :     return(xmlCharInRange((unsigned int)code, &xmlLoG));

	push	OFFSET _xmlLoG
	mov	eax, DWORD PTR _code$[ebp]
	push	eax
	call	_xmlCharInRange
	add	esp, 8

; 2776 : }

	cmp	ebp, esp
	call	__RTC_CheckEsp
	pop	ebp
	ret	0
_xmlUCSIsCatLo ENDP
_TEXT	ENDS
; Function compile flags: /Odtp /RTCsu
; File c:\users\dag\documents\_clients\codeproject authors group\windows on arm\libxml2\libxml2-2.9.9\xmlunicode.c
;	COMDAT _xmlUCSIsCatLm
_TEXT	SEGMENT
_code$ = 8						; size = 4
_xmlUCSIsCatLm PROC					; COMDAT

; 2761 : xmlUCSIsCatLm(int code) {

	push	ebp
	mov	ebp, esp
	mov	ecx, OFFSET __B18DBD6B_xmlunicode@c
	call	@__CheckForDebuggerJustMyCode@4

; 2762 :     return(xmlCharInRange((unsigned int)code, &xmlLmG));

	push	OFFSET _xmlLmG
	mov	eax, DWORD PTR _code$[ebp]
	push	eax
	call	_xmlCharInRange
	add	esp, 8

; 2763 : }

	cmp	ebp, esp
	call	__RTC_CheckEsp
	pop	ebp
	ret	0
_xmlUCSIsCatLm ENDP
_TEXT	ENDS
; Function compile flags: /Odtp /RTCsu
; File c:\users\dag\documents\_clients\codeproject authors group\windows on arm\libxml2\libxml2-2.9.9\xmlunicode.c
;	COMDAT _xmlUCSIsCatLl
_TEXT	SEGMENT
_code$ = 8						; size = 4
_xmlUCSIsCatLl PROC					; COMDAT

; 2748 : xmlUCSIsCatLl(int code) {

	push	ebp
	mov	ebp, esp
	mov	ecx, OFFSET __B18DBD6B_xmlunicode@c
	call	@__CheckForDebuggerJustMyCode@4

; 2749 :     return(xmlCharInRange((unsigned int)code, &xmlLlG));

	push	OFFSET _xmlLlG
	mov	eax, DWORD PTR _code$[ebp]
	push	eax
	call	_xmlCharInRange
	add	esp, 8

; 2750 : }

	cmp	ebp, esp
	call	__RTC_CheckEsp
	pop	ebp
	ret	0
_xmlUCSIsCatLl ENDP
_TEXT	ENDS
; Function compile flags: /Odtp /RTCsu
; File c:\users\dag\documents\_clients\codeproject authors group\windows on arm\libxml2\libxml2-2.9.9\xmlunicode.c
;	COMDAT _xmlUCSIsCatL
_TEXT	SEGMENT
_code$ = 8						; size = 4
_xmlUCSIsCatL PROC					; COMDAT

; 2735 : xmlUCSIsCatL(int code) {

	push	ebp
	mov	ebp, esp
	mov	ecx, OFFSET __B18DBD6B_xmlunicode@c
	call	@__CheckForDebuggerJustMyCode@4

; 2736 :     return(xmlCharInRange((unsigned int)code, &xmlLG));

	push	OFFSET _xmlLG
	mov	eax, DWORD PTR _code$[ebp]
	push	eax
	call	_xmlCharInRange
	add	esp, 8

; 2737 : }

	cmp	ebp, esp
	call	__RTC_CheckEsp
	pop	ebp
	ret	0
_xmlUCSIsCatL ENDP
_TEXT	ENDS
; Function compile flags: /Odtp /RTCsu
; File c:\users\dag\documents\_clients\codeproject authors group\windows on arm\libxml2\libxml2-2.9.9\xmlunicode.c
;	COMDAT _xmlUCSIsCatCs
_TEXT	SEGMENT
tv70 = -4						; size = 4
_code$ = 8						; size = 4
_xmlUCSIsCatCs PROC					; COMDAT

; 2719 : xmlUCSIsCatCs(int code) {

	push	ebp
	mov	ebp, esp
	push	ecx
	mov	DWORD PTR [ebp-4], -858993460		; ccccccccH
	mov	ecx, OFFSET __B18DBD6B_xmlunicode@c
	call	@__CheckForDebuggerJustMyCode@4

; 2720 :     return((code == 0xd800) ||

	cmp	DWORD PTR _code$[ebp], 55296		; 0000d800H
	je	SHORT $LN4@xmlUCSIsCa
	cmp	DWORD PTR _code$[ebp], 56191		; 0000db7fH
	jl	SHORT $LN3@xmlUCSIsCa
	cmp	DWORD PTR _code$[ebp], 56192		; 0000db80H
	jle	SHORT $LN4@xmlUCSIsCa
$LN3@xmlUCSIsCa:
	cmp	DWORD PTR _code$[ebp], 56319		; 0000dbffH
	jl	SHORT $LN5@xmlUCSIsCa
	cmp	DWORD PTR _code$[ebp], 56320		; 0000dc00H
	jle	SHORT $LN4@xmlUCSIsCa
$LN5@xmlUCSIsCa:
	cmp	DWORD PTR _code$[ebp], 57343		; 0000dfffH
	je	SHORT $LN4@xmlUCSIsCa
	mov	DWORD PTR tv70[ebp], 0
	jmp	SHORT $LN6@xmlUCSIsCa
$LN4@xmlUCSIsCa:
	mov	DWORD PTR tv70[ebp], 1
$LN6@xmlUCSIsCa:
	mov	eax, DWORD PTR tv70[ebp]

; 2721 :            ((code >= 0xdb7f) && (code <= 0xdb80)) ||
; 2722 :            ((code >= 0xdbff) && (code <= 0xdc00)) ||
; 2723 :            (code == 0xdfff));
; 2724 : }

	add	esp, 4
	cmp	ebp, esp
	call	__RTC_CheckEsp
	mov	esp, ebp
	pop	ebp
	ret	0
_xmlUCSIsCatCs ENDP
_TEXT	ENDS
; Function compile flags: /Odtp /RTCsu
; File c:\users\dag\documents\_clients\codeproject authors group\windows on arm\libxml2\libxml2-2.9.9\xmlunicode.c
;	COMDAT _xmlUCSIsCatCo
_TEXT	SEGMENT
tv70 = -4						; size = 4
_code$ = 8						; size = 4
_xmlUCSIsCatCo PROC					; COMDAT

; 2701 : xmlUCSIsCatCo(int code) {

	push	ebp
	mov	ebp, esp
	push	ecx
	mov	DWORD PTR [ebp-4], -858993460		; ccccccccH
	mov	ecx, OFFSET __B18DBD6B_xmlunicode@c
	call	@__CheckForDebuggerJustMyCode@4

; 2702 :     return((code == 0xe000) ||

	cmp	DWORD PTR _code$[ebp], 57344		; 0000e000H
	je	SHORT $LN3@xmlUCSIsCa
	cmp	DWORD PTR _code$[ebp], 63743		; 0000f8ffH
	je	SHORT $LN3@xmlUCSIsCa
	cmp	DWORD PTR _code$[ebp], 983040		; 000f0000H
	je	SHORT $LN3@xmlUCSIsCa
	cmp	DWORD PTR _code$[ebp], 1048573		; 000ffffdH
	je	SHORT $LN3@xmlUCSIsCa
	cmp	DWORD PTR _code$[ebp], 1048576		; 00100000H
	je	SHORT $LN3@xmlUCSIsCa
	cmp	DWORD PTR _code$[ebp], 1114109		; 0010fffdH
	je	SHORT $LN3@xmlUCSIsCa
	mov	DWORD PTR tv70[ebp], 0
	jmp	SHORT $LN4@xmlUCSIsCa
$LN3@xmlUCSIsCa:
	mov	DWORD PTR tv70[ebp], 1
$LN4@xmlUCSIsCa:
	mov	eax, DWORD PTR tv70[ebp]

; 2703 :            (code == 0xf8ff) ||
; 2704 :            (code == 0xf0000) ||
; 2705 :            (code == 0xffffd) ||
; 2706 :            (code == 0x100000) ||
; 2707 :            (code == 0x10fffd));
; 2708 : }

	add	esp, 4
	cmp	ebp, esp
	call	__RTC_CheckEsp
	mov	esp, ebp
	pop	ebp
	ret	0
_xmlUCSIsCatCo ENDP
_TEXT	ENDS
; Function compile flags: /Odtp /RTCsu
; File c:\users\dag\documents\_clients\codeproject authors group\windows on arm\libxml2\libxml2-2.9.9\xmlunicode.c
;	COMDAT _xmlUCSIsCatCf
_TEXT	SEGMENT
_code$ = 8						; size = 4
_xmlUCSIsCatCf PROC					; COMDAT

; 2688 : xmlUCSIsCatCf(int code) {

	push	ebp
	mov	ebp, esp
	mov	ecx, OFFSET __B18DBD6B_xmlunicode@c
	call	@__CheckForDebuggerJustMyCode@4

; 2689 :     return(xmlCharInRange((unsigned int)code, &xmlCfG));

	push	OFFSET _xmlCfG
	mov	eax, DWORD PTR _code$[ebp]
	push	eax
	call	_xmlCharInRange
	add	esp, 8

; 2690 : }

	cmp	ebp, esp
	call	__RTC_CheckEsp
	pop	ebp
	ret	0
_xmlUCSIsCatCf ENDP
_TEXT	ENDS
; Function compile flags: /Odtp /RTCsu
; File c:\users\dag\documents\_clients\codeproject authors group\windows on arm\libxml2\libxml2-2.9.9\xmlunicode.c
;	COMDAT _xmlUCSIsCatCc
_TEXT	SEGMENT
tv68 = -4						; size = 4
_code$ = 8						; size = 4
_xmlUCSIsCatCc PROC					; COMDAT

; 2674 : xmlUCSIsCatCc(int code) {

	push	ebp
	mov	ebp, esp
	push	ecx
	mov	DWORD PTR [ebp-4], -858993460		; ccccccccH
	mov	ecx, OFFSET __B18DBD6B_xmlunicode@c
	call	@__CheckForDebuggerJustMyCode@4

; 2675 :     return(((code >= 0x0) && (code <= 0x1f)) ||

	cmp	DWORD PTR _code$[ebp], 0
	jl	SHORT $LN3@xmlUCSIsCa
	cmp	DWORD PTR _code$[ebp], 31		; 0000001fH
	jle	SHORT $LN5@xmlUCSIsCa
$LN3@xmlUCSIsCa:
	cmp	DWORD PTR _code$[ebp], 127		; 0000007fH
	jl	SHORT $LN4@xmlUCSIsCa
	cmp	DWORD PTR _code$[ebp], 159		; 0000009fH
	jle	SHORT $LN5@xmlUCSIsCa
$LN4@xmlUCSIsCa:
	mov	DWORD PTR tv68[ebp], 0
	jmp	SHORT $LN6@xmlUCSIsCa
$LN5@xmlUCSIsCa:
	mov	DWORD PTR tv68[ebp], 1
$LN6@xmlUCSIsCa:
	mov	eax, DWORD PTR tv68[ebp]

; 2676 :            ((code >= 0x7f) && (code <= 0x9f)));
; 2677 : }

	add	esp, 4
	cmp	ebp, esp
	call	__RTC_CheckEsp
	mov	esp, ebp
	pop	ebp
	ret	0
_xmlUCSIsCatCc ENDP
_TEXT	ENDS
; Function compile flags: /Odtp /RTCsu
; File c:\users\dag\documents\_clients\codeproject authors group\windows on arm\libxml2\libxml2-2.9.9\xmlunicode.c
;	COMDAT _xmlUCSIsCatC
_TEXT	SEGMENT
_code$ = 8						; size = 4
_xmlUCSIsCatC PROC					; COMDAT

; 2661 : xmlUCSIsCatC(int code) {

	push	ebp
	mov	ebp, esp
	mov	ecx, OFFSET __B18DBD6B_xmlunicode@c
	call	@__CheckForDebuggerJustMyCode@4

; 2662 :     return(xmlCharInRange((unsigned int)code, &xmlCG));

	push	OFFSET _xmlCG
	mov	eax, DWORD PTR _code$[ebp]
	push	eax
	call	_xmlCharInRange
	add	esp, 8

; 2663 : }

	cmp	ebp, esp
	call	__RTC_CheckEsp
	pop	ebp
	ret	0
_xmlUCSIsCatC ENDP
_TEXT	ENDS
; Function compile flags: /Odtp /RTCsu
; File c:\users\dag\documents\_clients\codeproject authors group\windows on arm\libxml2\libxml2-2.9.9\xmlunicode.c
;	COMDAT _xmlUCSIsBlock
_TEXT	SEGMENT
_func$ = -4						; size = 4
_code$ = 8						; size = 4
_block$ = 12						; size = 4
_xmlUCSIsBlock PROC					; COMDAT

; 2643 : xmlUCSIsBlock(int code, const char *block) {

	push	ebp
	mov	ebp, esp
	push	ecx
	push	esi
	mov	DWORD PTR [ebp-4], -858993460		; ccccccccH
	mov	ecx, OFFSET __B18DBD6B_xmlunicode@c
	call	@__CheckForDebuggerJustMyCode@4

; 2644 :     xmlIntFunc *func;
; 2645 : 
; 2646 :     func = xmlUnicodeLookup(&xmlUnicodeBlockTbl, block);

	mov	eax, DWORD PTR _block$[ebp]
	push	eax
	push	OFFSET _xmlUnicodeBlockTbl
	call	_xmlUnicodeLookup
	add	esp, 8
	mov	DWORD PTR _func$[ebp], eax

; 2647 :     if (func == NULL)

	cmp	DWORD PTR _func$[ebp], 0
	jne	SHORT $LN2@xmlUCSIsBl

; 2648 : 	return (-1);

	or	eax, -1
	jmp	SHORT $LN1@xmlUCSIsBl
$LN2@xmlUCSIsBl:

; 2649 :     return (func(code));

	mov	esi, esp
	mov	ecx, DWORD PTR _code$[ebp]
	push	ecx
	call	DWORD PTR _func$[ebp]
	add	esp, 4
	cmp	esi, esp
	call	__RTC_CheckEsp
$LN1@xmlUCSIsBl:

; 2650 : }

	pop	esi
	add	esp, 4
	cmp	ebp, esp
	call	__RTC_CheckEsp
	mov	esp, ebp
	pop	ebp
	ret	0
_xmlUCSIsBlock ENDP
_TEXT	ENDS
; Function compile flags: /Odtp /RTCsu
; File c:\users\dag\documents\_clients\codeproject authors group\windows on arm\libxml2\libxml2-2.9.9\xmlunicode.c
;	COMDAT _xmlUCSIsYijingHexagramSymbols
_TEXT	SEGMENT
tv66 = -4						; size = 4
_code$ = 8						; size = 4
_xmlUCSIsYijingHexagramSymbols PROC			; COMDAT

; 2629 : xmlUCSIsYijingHexagramSymbols(int code) {

	push	ebp
	mov	ebp, esp
	push	ecx
	mov	DWORD PTR [ebp-4], -858993460		; ccccccccH
	mov	ecx, OFFSET __B18DBD6B_xmlunicode@c
	call	@__CheckForDebuggerJustMyCode@4

; 2630 :     return(((code >= 0x4DC0) && (code <= 0x4DFF)));

	cmp	DWORD PTR _code$[ebp], 19904		; 00004dc0H
	jl	SHORT $LN3@xmlUCSIsYi
	cmp	DWORD PTR _code$[ebp], 19967		; 00004dffH
	jg	SHORT $LN3@xmlUCSIsYi
	mov	DWORD PTR tv66[ebp], 1
	jmp	SHORT $LN4@xmlUCSIsYi
$LN3@xmlUCSIsYi:
	mov	DWORD PTR tv66[ebp], 0
$LN4@xmlUCSIsYi:
	mov	eax, DWORD PTR tv66[ebp]

; 2631 : }

	add	esp, 4
	cmp	ebp, esp
	call	__RTC_CheckEsp
	mov	esp, ebp
	pop	ebp
	ret	0
_xmlUCSIsYijingHexagramSymbols ENDP
_TEXT	ENDS
; Function compile flags: /Odtp /RTCsu
; File c:\users\dag\documents\_clients\codeproject authors group\windows on arm\libxml2\libxml2-2.9.9\xmlunicode.c
;	COMDAT _xmlUCSIsYiSyllables
_TEXT	SEGMENT
tv66 = -4						; size = 4
_code$ = 8						; size = 4
_xmlUCSIsYiSyllables PROC				; COMDAT

; 2616 : xmlUCSIsYiSyllables(int code) {

	push	ebp
	mov	ebp, esp
	push	ecx
	mov	DWORD PTR [ebp-4], -858993460		; ccccccccH
	mov	ecx, OFFSET __B18DBD6B_xmlunicode@c
	call	@__CheckForDebuggerJustMyCode@4

; 2617 :     return(((code >= 0xA000) && (code <= 0xA48F)));

	cmp	DWORD PTR _code$[ebp], 40960		; 0000a000H
	jl	SHORT $LN3@xmlUCSIsYi
	cmp	DWORD PTR _code$[ebp], 42127		; 0000a48fH
	jg	SHORT $LN3@xmlUCSIsYi
	mov	DWORD PTR tv66[ebp], 1
	jmp	SHORT $LN4@xmlUCSIsYi
$LN3@xmlUCSIsYi:
	mov	DWORD PTR tv66[ebp], 0
$LN4@xmlUCSIsYi:
	mov	eax, DWORD PTR tv66[ebp]

; 2618 : }

	add	esp, 4
	cmp	ebp, esp
	call	__RTC_CheckEsp
	mov	esp, ebp
	pop	ebp
	ret	0
_xmlUCSIsYiSyllables ENDP
_TEXT	ENDS
; Function compile flags: /Odtp /RTCsu
; File c:\users\dag\documents\_clients\codeproject authors group\windows on arm\libxml2\libxml2-2.9.9\xmlunicode.c
;	COMDAT _xmlUCSIsYiRadicals
_TEXT	SEGMENT
tv66 = -4						; size = 4
_code$ = 8						; size = 4
_xmlUCSIsYiRadicals PROC				; COMDAT

; 2603 : xmlUCSIsYiRadicals(int code) {

	push	ebp
	mov	ebp, esp
	push	ecx
	mov	DWORD PTR [ebp-4], -858993460		; ccccccccH
	mov	ecx, OFFSET __B18DBD6B_xmlunicode@c
	call	@__CheckForDebuggerJustMyCode@4

; 2604 :     return(((code >= 0xA490) && (code <= 0xA4CF)));

	cmp	DWORD PTR _code$[ebp], 42128		; 0000a490H
	jl	SHORT $LN3@xmlUCSIsYi
	cmp	DWORD PTR _code$[ebp], 42191		; 0000a4cfH
	jg	SHORT $LN3@xmlUCSIsYi
	mov	DWORD PTR tv66[ebp], 1
	jmp	SHORT $LN4@xmlUCSIsYi
$LN3@xmlUCSIsYi:
	mov	DWORD PTR tv66[ebp], 0
$LN4@xmlUCSIsYi:
	mov	eax, DWORD PTR tv66[ebp]

; 2605 : }

	add	esp, 4
	cmp	ebp, esp
	call	__RTC_CheckEsp
	mov	esp, ebp
	pop	ebp
	ret	0
_xmlUCSIsYiRadicals ENDP
_TEXT	ENDS
; Function compile flags: /Odtp /RTCsu
; File c:\users\dag\documents\_clients\codeproject authors group\windows on arm\libxml2\libxml2-2.9.9\xmlunicode.c
;	COMDAT _xmlUCSIsVariationSelectorsSupplement
_TEXT	SEGMENT
tv66 = -4						; size = 4
_code$ = 8						; size = 4
_xmlUCSIsVariationSelectorsSupplement PROC		; COMDAT

; 2590 : xmlUCSIsVariationSelectorsSupplement(int code) {

	push	ebp
	mov	ebp, esp
	push	ecx
	mov	DWORD PTR [ebp-4], -858993460		; ccccccccH
	mov	ecx, OFFSET __B18DBD6B_xmlunicode@c
	call	@__CheckForDebuggerJustMyCode@4

; 2591 :     return(((code >= 0xE0100) && (code <= 0xE01EF)));

	cmp	DWORD PTR _code$[ebp], 917760		; 000e0100H
	jl	SHORT $LN3@xmlUCSIsVa
	cmp	DWORD PTR _code$[ebp], 917999		; 000e01efH
	jg	SHORT $LN3@xmlUCSIsVa
	mov	DWORD PTR tv66[ebp], 1
	jmp	SHORT $LN4@xmlUCSIsVa
$LN3@xmlUCSIsVa:
	mov	DWORD PTR tv66[ebp], 0
$LN4@xmlUCSIsVa:
	mov	eax, DWORD PTR tv66[ebp]

; 2592 : }

	add	esp, 4
	cmp	ebp, esp
	call	__RTC_CheckEsp
	mov	esp, ebp
	pop	ebp
	ret	0
_xmlUCSIsVariationSelectorsSupplement ENDP
_TEXT	ENDS
; Function compile flags: /Odtp /RTCsu
; File c:\users\dag\documents\_clients\codeproject authors group\windows on arm\libxml2\libxml2-2.9.9\xmlunicode.c
;	COMDAT _xmlUCSIsVariationSelectors
_TEXT	SEGMENT
tv66 = -4						; size = 4
_code$ = 8						; size = 4
_xmlUCSIsVariationSelectors PROC			; COMDAT

; 2577 : xmlUCSIsVariationSelectors(int code) {

	push	ebp
	mov	ebp, esp
	push	ecx
	mov	DWORD PTR [ebp-4], -858993460		; ccccccccH
	mov	ecx, OFFSET __B18DBD6B_xmlunicode@c
	call	@__CheckForDebuggerJustMyCode@4

; 2578 :     return(((code >= 0xFE00) && (code <= 0xFE0F)));

	cmp	DWORD PTR _code$[ebp], 65024		; 0000fe00H
	jl	SHORT $LN3@xmlUCSIsVa
	cmp	DWORD PTR _code$[ebp], 65039		; 0000fe0fH
	jg	SHORT $LN3@xmlUCSIsVa
	mov	DWORD PTR tv66[ebp], 1
	jmp	SHORT $LN4@xmlUCSIsVa
$LN3@xmlUCSIsVa:
	mov	DWORD PTR tv66[ebp], 0
$LN4@xmlUCSIsVa:
	mov	eax, DWORD PTR tv66[ebp]

; 2579 : }

	add	esp, 4
	cmp	ebp, esp
	call	__RTC_CheckEsp
	mov	esp, ebp
	pop	ebp
	ret	0
_xmlUCSIsVariationSelectors ENDP
_TEXT	ENDS
; Function compile flags: /Odtp /RTCsu
; File c:\users\dag\documents\_clients\codeproject authors group\windows on arm\libxml2\libxml2-2.9.9\xmlunicode.c
;	COMDAT _xmlUCSIsUnifiedCanadianAboriginalSyllabics
_TEXT	SEGMENT
tv66 = -4						; size = 4
_code$ = 8						; size = 4
_xmlUCSIsUnifiedCanadianAboriginalSyllabics PROC	; COMDAT

; 2564 : xmlUCSIsUnifiedCanadianAboriginalSyllabics(int code) {

	push	ebp
	mov	ebp, esp
	push	ecx
	mov	DWORD PTR [ebp-4], -858993460		; ccccccccH
	mov	ecx, OFFSET __B18DBD6B_xmlunicode@c
	call	@__CheckForDebuggerJustMyCode@4

; 2565 :     return(((code >= 0x1400) && (code <= 0x167F)));

	cmp	DWORD PTR _code$[ebp], 5120		; 00001400H
	jl	SHORT $LN3@xmlUCSIsUn
	cmp	DWORD PTR _code$[ebp], 5759		; 0000167fH
	jg	SHORT $LN3@xmlUCSIsUn
	mov	DWORD PTR tv66[ebp], 1
	jmp	SHORT $LN4@xmlUCSIsUn
$LN3@xmlUCSIsUn:
	mov	DWORD PTR tv66[ebp], 0
$LN4@xmlUCSIsUn:
	mov	eax, DWORD PTR tv66[ebp]

; 2566 : }

	add	esp, 4
	cmp	ebp, esp
	call	__RTC_CheckEsp
	mov	esp, ebp
	pop	ebp
	ret	0
_xmlUCSIsUnifiedCanadianAboriginalSyllabics ENDP
_TEXT	ENDS
; Function compile flags: /Odtp /RTCsu
; File c:\users\dag\documents\_clients\codeproject authors group\windows on arm\libxml2\libxml2-2.9.9\xmlunicode.c
;	COMDAT _xmlUCSIsUgaritic
_TEXT	SEGMENT
tv66 = -4						; size = 4
_code$ = 8						; size = 4
_xmlUCSIsUgaritic PROC					; COMDAT

; 2551 : xmlUCSIsUgaritic(int code) {

	push	ebp
	mov	ebp, esp
	push	ecx
	mov	DWORD PTR [ebp-4], -858993460		; ccccccccH
	mov	ecx, OFFSET __B18DBD6B_xmlunicode@c
	call	@__CheckForDebuggerJustMyCode@4

; 2552 :     return(((code >= 0x10380) && (code <= 0x1039F)));

	cmp	DWORD PTR _code$[ebp], 66432		; 00010380H
	jl	SHORT $LN3@xmlUCSIsUg
	cmp	DWORD PTR _code$[ebp], 66463		; 0001039fH
	jg	SHORT $LN3@xmlUCSIsUg
	mov	DWORD PTR tv66[ebp], 1
	jmp	SHORT $LN4@xmlUCSIsUg
$LN3@xmlUCSIsUg:
	mov	DWORD PTR tv66[ebp], 0
$LN4@xmlUCSIsUg:
	mov	eax, DWORD PTR tv66[ebp]

; 2553 : }

	add	esp, 4
	cmp	ebp, esp
	call	__RTC_CheckEsp
	mov	esp, ebp
	pop	ebp
	ret	0
_xmlUCSIsUgaritic ENDP
_TEXT	ENDS
; Function compile flags: /Odtp /RTCsu
; File c:\users\dag\documents\_clients\codeproject authors group\windows on arm\libxml2\libxml2-2.9.9\xmlunicode.c
;	COMDAT _xmlUCSIsTibetan
_TEXT	SEGMENT
tv66 = -4						; size = 4
_code$ = 8						; size = 4
_xmlUCSIsTibetan PROC					; COMDAT

; 2538 : xmlUCSIsTibetan(int code) {

	push	ebp
	mov	ebp, esp
	push	ecx
	mov	DWORD PTR [ebp-4], -858993460		; ccccccccH
	mov	ecx, OFFSET __B18DBD6B_xmlunicode@c
	call	@__CheckForDebuggerJustMyCode@4

; 2539 :     return(((code >= 0x0F00) && (code <= 0x0FFF)));

	cmp	DWORD PTR _code$[ebp], 3840		; 00000f00H
	jl	SHORT $LN3@xmlUCSIsTi
	cmp	DWORD PTR _code$[ebp], 4095		; 00000fffH
	jg	SHORT $LN3@xmlUCSIsTi
	mov	DWORD PTR tv66[ebp], 1
	jmp	SHORT $LN4@xmlUCSIsTi
$LN3@xmlUCSIsTi:
	mov	DWORD PTR tv66[ebp], 0
$LN4@xmlUCSIsTi:
	mov	eax, DWORD PTR tv66[ebp]

; 2540 : }

	add	esp, 4
	cmp	ebp, esp
	call	__RTC_CheckEsp
	mov	esp, ebp
	pop	ebp
	ret	0
_xmlUCSIsTibetan ENDP
_TEXT	ENDS
; Function compile flags: /Odtp /RTCsu
; File c:\users\dag\documents\_clients\codeproject authors group\windows on arm\libxml2\libxml2-2.9.9\xmlunicode.c
;	COMDAT _xmlUCSIsThai
_TEXT	SEGMENT
tv66 = -4						; size = 4
_code$ = 8						; size = 4
_xmlUCSIsThai PROC					; COMDAT

; 2525 : xmlUCSIsThai(int code) {

	push	ebp
	mov	ebp, esp
	push	ecx
	mov	DWORD PTR [ebp-4], -858993460		; ccccccccH
	mov	ecx, OFFSET __B18DBD6B_xmlunicode@c
	call	@__CheckForDebuggerJustMyCode@4

; 2526 :     return(((code >= 0x0E00) && (code <= 0x0E7F)));

	cmp	DWORD PTR _code$[ebp], 3584		; 00000e00H
	jl	SHORT $LN3@xmlUCSIsTh
	cmp	DWORD PTR _code$[ebp], 3711		; 00000e7fH
	jg	SHORT $LN3@xmlUCSIsTh
	mov	DWORD PTR tv66[ebp], 1
	jmp	SHORT $LN4@xmlUCSIsTh
$LN3@xmlUCSIsTh:
	mov	DWORD PTR tv66[ebp], 0
$LN4@xmlUCSIsTh:
	mov	eax, DWORD PTR tv66[ebp]

; 2527 : }

	add	esp, 4
	cmp	ebp, esp
	call	__RTC_CheckEsp
	mov	esp, ebp
	pop	ebp
	ret	0
_xmlUCSIsThai ENDP
_TEXT	ENDS
; Function compile flags: /Odtp /RTCsu
; File c:\users\dag\documents\_clients\codeproject authors group\windows on arm\libxml2\libxml2-2.9.9\xmlunicode.c
;	COMDAT _xmlUCSIsThaana
_TEXT	SEGMENT
tv66 = -4						; size = 4
_code$ = 8						; size = 4
_xmlUCSIsThaana PROC					; COMDAT

; 2512 : xmlUCSIsThaana(int code) {

	push	ebp
	mov	ebp, esp
	push	ecx
	mov	DWORD PTR [ebp-4], -858993460		; ccccccccH
	mov	ecx, OFFSET __B18DBD6B_xmlunicode@c
	call	@__CheckForDebuggerJustMyCode@4

; 2513 :     return(((code >= 0x0780) && (code <= 0x07BF)));

	cmp	DWORD PTR _code$[ebp], 1920		; 00000780H
	jl	SHORT $LN3@xmlUCSIsTh
	cmp	DWORD PTR _code$[ebp], 1983		; 000007bfH
	jg	SHORT $LN3@xmlUCSIsTh
	mov	DWORD PTR tv66[ebp], 1
	jmp	SHORT $LN4@xmlUCSIsTh
$LN3@xmlUCSIsTh:
	mov	DWORD PTR tv66[ebp], 0
$LN4@xmlUCSIsTh:
	mov	eax, DWORD PTR tv66[ebp]

; 2514 : }

	add	esp, 4
	cmp	ebp, esp
	call	__RTC_CheckEsp
	mov	esp, ebp
	pop	ebp
	ret	0
_xmlUCSIsThaana ENDP
_TEXT	ENDS
; Function compile flags: /Odtp /RTCsu
; File c:\users\dag\documents\_clients\codeproject authors group\windows on arm\libxml2\libxml2-2.9.9\xmlunicode.c
;	COMDAT _xmlUCSIsTelugu
_TEXT	SEGMENT
tv66 = -4						; size = 4
_code$ = 8						; size = 4
_xmlUCSIsTelugu PROC					; COMDAT

; 2499 : xmlUCSIsTelugu(int code) {

	push	ebp
	mov	ebp, esp
	push	ecx
	mov	DWORD PTR [ebp-4], -858993460		; ccccccccH
	mov	ecx, OFFSET __B18DBD6B_xmlunicode@c
	call	@__CheckForDebuggerJustMyCode@4

; 2500 :     return(((code >= 0x0C00) && (code <= 0x0C7F)));

	cmp	DWORD PTR _code$[ebp], 3072		; 00000c00H
	jl	SHORT $LN3@xmlUCSIsTe
	cmp	DWORD PTR _code$[ebp], 3199		; 00000c7fH
	jg	SHORT $LN3@xmlUCSIsTe
	mov	DWORD PTR tv66[ebp], 1
	jmp	SHORT $LN4@xmlUCSIsTe
$LN3@xmlUCSIsTe:
	mov	DWORD PTR tv66[ebp], 0
$LN4@xmlUCSIsTe:
	mov	eax, DWORD PTR tv66[ebp]

; 2501 : }

	add	esp, 4
	cmp	ebp, esp
	call	__RTC_CheckEsp
	mov	esp, ebp
	pop	ebp
	ret	0
_xmlUCSIsTelugu ENDP
_TEXT	ENDS
; Function compile flags: /Odtp /RTCsu
; File c:\users\dag\documents\_clients\codeproject authors group\windows on arm\libxml2\libxml2-2.9.9\xmlunicode.c
;	COMDAT _xmlUCSIsTamil
_TEXT	SEGMENT
tv66 = -4						; size = 4
_code$ = 8						; size = 4
_xmlUCSIsTamil PROC					; COMDAT

; 2486 : xmlUCSIsTamil(int code) {

	push	ebp
	mov	ebp, esp
	push	ecx
	mov	DWORD PTR [ebp-4], -858993460		; ccccccccH
	mov	ecx, OFFSET __B18DBD6B_xmlunicode@c
	call	@__CheckForDebuggerJustMyCode@4

; 2487 :     return(((code >= 0x0B80) && (code <= 0x0BFF)));

	cmp	DWORD PTR _code$[ebp], 2944		; 00000b80H
	jl	SHORT $LN3@xmlUCSIsTa
	cmp	DWORD PTR _code$[ebp], 3071		; 00000bffH
	jg	SHORT $LN3@xmlUCSIsTa
	mov	DWORD PTR tv66[ebp], 1
	jmp	SHORT $LN4@xmlUCSIsTa
$LN3@xmlUCSIsTa:
	mov	DWORD PTR tv66[ebp], 0
$LN4@xmlUCSIsTa:
	mov	eax, DWORD PTR tv66[ebp]

; 2488 : }

	add	esp, 4
	cmp	ebp, esp
	call	__RTC_CheckEsp
	mov	esp, ebp
	pop	ebp
	ret	0
_xmlUCSIsTamil ENDP
_TEXT	ENDS
; Function compile flags: /Odtp /RTCsu
; File c:\users\dag\documents\_clients\codeproject authors group\windows on arm\libxml2\libxml2-2.9.9\xmlunicode.c
;	COMDAT _xmlUCSIsTaiXuanJingSymbols
_TEXT	SEGMENT
tv66 = -4						; size = 4
_code$ = 8						; size = 4
_xmlUCSIsTaiXuanJingSymbols PROC			; COMDAT

; 2473 : xmlUCSIsTaiXuanJingSymbols(int code) {

	push	ebp
	mov	ebp, esp
	push	ecx
	mov	DWORD PTR [ebp-4], -858993460		; ccccccccH
	mov	ecx, OFFSET __B18DBD6B_xmlunicode@c
	call	@__CheckForDebuggerJustMyCode@4

; 2474 :     return(((code >= 0x1D300) && (code <= 0x1D35F)));

	cmp	DWORD PTR _code$[ebp], 119552		; 0001d300H
	jl	SHORT $LN3@xmlUCSIsTa
	cmp	DWORD PTR _code$[ebp], 119647		; 0001d35fH
	jg	SHORT $LN3@xmlUCSIsTa
	mov	DWORD PTR tv66[ebp], 1
	jmp	SHORT $LN4@xmlUCSIsTa
$LN3@xmlUCSIsTa:
	mov	DWORD PTR tv66[ebp], 0
$LN4@xmlUCSIsTa:
	mov	eax, DWORD PTR tv66[ebp]

; 2475 : }

	add	esp, 4
	cmp	ebp, esp
	call	__RTC_CheckEsp
	mov	esp, ebp
	pop	ebp
	ret	0
_xmlUCSIsTaiXuanJingSymbols ENDP
_TEXT	ENDS
; Function compile flags: /Odtp /RTCsu
; File c:\users\dag\documents\_clients\codeproject authors group\windows on arm\libxml2\libxml2-2.9.9\xmlunicode.c
;	COMDAT _xmlUCSIsTaiLe
_TEXT	SEGMENT
tv66 = -4						; size = 4
_code$ = 8						; size = 4
_xmlUCSIsTaiLe PROC					; COMDAT

; 2460 : xmlUCSIsTaiLe(int code) {

	push	ebp
	mov	ebp, esp
	push	ecx
	mov	DWORD PTR [ebp-4], -858993460		; ccccccccH
	mov	ecx, OFFSET __B18DBD6B_xmlunicode@c
	call	@__CheckForDebuggerJustMyCode@4

; 2461 :     return(((code >= 0x1950) && (code <= 0x197F)));

	cmp	DWORD PTR _code$[ebp], 6480		; 00001950H
	jl	SHORT $LN3@xmlUCSIsTa
	cmp	DWORD PTR _code$[ebp], 6527		; 0000197fH
	jg	SHORT $LN3@xmlUCSIsTa
	mov	DWORD PTR tv66[ebp], 1
	jmp	SHORT $LN4@xmlUCSIsTa
$LN3@xmlUCSIsTa:
	mov	DWORD PTR tv66[ebp], 0
$LN4@xmlUCSIsTa:
	mov	eax, DWORD PTR tv66[ebp]

; 2462 : }

	add	esp, 4
	cmp	ebp, esp
	call	__RTC_CheckEsp
	mov	esp, ebp
	pop	ebp
	ret	0
_xmlUCSIsTaiLe ENDP
_TEXT	ENDS
; Function compile flags: /Odtp /RTCsu
; File c:\users\dag\documents\_clients\codeproject authors group\windows on arm\libxml2\libxml2-2.9.9\xmlunicode.c
;	COMDAT _xmlUCSIsTags
_TEXT	SEGMENT
tv66 = -4						; size = 4
_code$ = 8						; size = 4
_xmlUCSIsTags PROC					; COMDAT

; 2447 : xmlUCSIsTags(int code) {

	push	ebp
	mov	ebp, esp
	push	ecx
	mov	DWORD PTR [ebp-4], -858993460		; ccccccccH
	mov	ecx, OFFSET __B18DBD6B_xmlunicode@c
	call	@__CheckForDebuggerJustMyCode@4

; 2448 :     return(((code >= 0xE0000) && (code <= 0xE007F)));

	cmp	DWORD PTR _code$[ebp], 917504		; 000e0000H
	jl	SHORT $LN3@xmlUCSIsTa
	cmp	DWORD PTR _code$[ebp], 917631		; 000e007fH
	jg	SHORT $LN3@xmlUCSIsTa
	mov	DWORD PTR tv66[ebp], 1
	jmp	SHORT $LN4@xmlUCSIsTa
$LN3@xmlUCSIsTa:
	mov	DWORD PTR tv66[ebp], 0
$LN4@xmlUCSIsTa:
	mov	eax, DWORD PTR tv66[ebp]

; 2449 : }

	add	esp, 4
	cmp	ebp, esp
	call	__RTC_CheckEsp
	mov	esp, ebp
	pop	ebp
	ret	0
_xmlUCSIsTags ENDP
_TEXT	ENDS
; Function compile flags: /Odtp /RTCsu
; File c:\users\dag\documents\_clients\codeproject authors group\windows on arm\libxml2\libxml2-2.9.9\xmlunicode.c
;	COMDAT _xmlUCSIsTagbanwa
_TEXT	SEGMENT
tv66 = -4						; size = 4
_code$ = 8						; size = 4
_xmlUCSIsTagbanwa PROC					; COMDAT

; 2434 : xmlUCSIsTagbanwa(int code) {

	push	ebp
	mov	ebp, esp
	push	ecx
	mov	DWORD PTR [ebp-4], -858993460		; ccccccccH
	mov	ecx, OFFSET __B18DBD6B_xmlunicode@c
	call	@__CheckForDebuggerJustMyCode@4

; 2435 :     return(((code >= 0x1760) && (code <= 0x177F)));

	cmp	DWORD PTR _code$[ebp], 5984		; 00001760H
	jl	SHORT $LN3@xmlUCSIsTa
	cmp	DWORD PTR _code$[ebp], 6015		; 0000177fH
	jg	SHORT $LN3@xmlUCSIsTa
	mov	DWORD PTR tv66[ebp], 1
	jmp	SHORT $LN4@xmlUCSIsTa
$LN3@xmlUCSIsTa:
	mov	DWORD PTR tv66[ebp], 0
$LN4@xmlUCSIsTa:
	mov	eax, DWORD PTR tv66[ebp]

; 2436 : }

	add	esp, 4
	cmp	ebp, esp
	call	__RTC_CheckEsp
	mov	esp, ebp
	pop	ebp
	ret	0
_xmlUCSIsTagbanwa ENDP
_TEXT	ENDS
; Function compile flags: /Odtp /RTCsu
; File c:\users\dag\documents\_clients\codeproject authors group\windows on arm\libxml2\libxml2-2.9.9\xmlunicode.c
;	COMDAT _xmlUCSIsTagalog
_TEXT	SEGMENT
tv66 = -4						; size = 4
_code$ = 8						; size = 4
_xmlUCSIsTagalog PROC					; COMDAT

; 2421 : xmlUCSIsTagalog(int code) {

	push	ebp
	mov	ebp, esp
	push	ecx
	mov	DWORD PTR [ebp-4], -858993460		; ccccccccH
	mov	ecx, OFFSET __B18DBD6B_xmlunicode@c
	call	@__CheckForDebuggerJustMyCode@4

; 2422 :     return(((code >= 0x1700) && (code <= 0x171F)));

	cmp	DWORD PTR _code$[ebp], 5888		; 00001700H
	jl	SHORT $LN3@xmlUCSIsTa
	cmp	DWORD PTR _code$[ebp], 5919		; 0000171fH
	jg	SHORT $LN3@xmlUCSIsTa
	mov	DWORD PTR tv66[ebp], 1
	jmp	SHORT $LN4@xmlUCSIsTa
$LN3@xmlUCSIsTa:
	mov	DWORD PTR tv66[ebp], 0
$LN4@xmlUCSIsTa:
	mov	eax, DWORD PTR tv66[ebp]

; 2423 : }

	add	esp, 4
	cmp	ebp, esp
	call	__RTC_CheckEsp
	mov	esp, ebp
	pop	ebp
	ret	0
_xmlUCSIsTagalog ENDP
_TEXT	ENDS
; Function compile flags: /Odtp /RTCsu
; File c:\users\dag\documents\_clients\codeproject authors group\windows on arm\libxml2\libxml2-2.9.9\xmlunicode.c
;	COMDAT _xmlUCSIsSyriac
_TEXT	SEGMENT
tv66 = -4						; size = 4
_code$ = 8						; size = 4
_xmlUCSIsSyriac PROC					; COMDAT

; 2408 : xmlUCSIsSyriac(int code) {

	push	ebp
	mov	ebp, esp
	push	ecx
	mov	DWORD PTR [ebp-4], -858993460		; ccccccccH
	mov	ecx, OFFSET __B18DBD6B_xmlunicode@c
	call	@__CheckForDebuggerJustMyCode@4

; 2409 :     return(((code >= 0x0700) && (code <= 0x074F)));

	cmp	DWORD PTR _code$[ebp], 1792		; 00000700H
	jl	SHORT $LN3@xmlUCSIsSy
	cmp	DWORD PTR _code$[ebp], 1871		; 0000074fH
	jg	SHORT $LN3@xmlUCSIsSy
	mov	DWORD PTR tv66[ebp], 1
	jmp	SHORT $LN4@xmlUCSIsSy
$LN3@xmlUCSIsSy:
	mov	DWORD PTR tv66[ebp], 0
$LN4@xmlUCSIsSy:
	mov	eax, DWORD PTR tv66[ebp]

; 2410 : }

	add	esp, 4
	cmp	ebp, esp
	call	__RTC_CheckEsp
	mov	esp, ebp
	pop	ebp
	ret	0
_xmlUCSIsSyriac ENDP
_TEXT	ENDS
; Function compile flags: /Odtp /RTCsu
; File c:\users\dag\documents\_clients\codeproject authors group\windows on arm\libxml2\libxml2-2.9.9\xmlunicode.c
;	COMDAT _xmlUCSIsSupplementaryPrivateUseAreaB
_TEXT	SEGMENT
tv66 = -4						; size = 4
_code$ = 8						; size = 4
_xmlUCSIsSupplementaryPrivateUseAreaB PROC		; COMDAT

; 2395 : xmlUCSIsSupplementaryPrivateUseAreaB(int code) {

	push	ebp
	mov	ebp, esp
	push	ecx
	mov	DWORD PTR [ebp-4], -858993460		; ccccccccH
	mov	ecx, OFFSET __B18DBD6B_xmlunicode@c
	call	@__CheckForDebuggerJustMyCode@4

; 2396 :     return(((code >= 0x100000) && (code <= 0x10FFFF)));

	cmp	DWORD PTR _code$[ebp], 1048576		; 00100000H
	jl	SHORT $LN3@xmlUCSIsSu
	cmp	DWORD PTR _code$[ebp], 1114111		; 0010ffffH
	jg	SHORT $LN3@xmlUCSIsSu
	mov	DWORD PTR tv66[ebp], 1
	jmp	SHORT $LN4@xmlUCSIsSu
$LN3@xmlUCSIsSu:
	mov	DWORD PTR tv66[ebp], 0
$LN4@xmlUCSIsSu:
	mov	eax, DWORD PTR tv66[ebp]

; 2397 : }

	add	esp, 4
	cmp	ebp, esp
	call	__RTC_CheckEsp
	mov	esp, ebp
	pop	ebp
	ret	0
_xmlUCSIsSupplementaryPrivateUseAreaB ENDP
_TEXT	ENDS
; Function compile flags: /Odtp /RTCsu
; File c:\users\dag\documents\_clients\codeproject authors group\windows on arm\libxml2\libxml2-2.9.9\xmlunicode.c
;	COMDAT _xmlUCSIsSupplementaryPrivateUseAreaA
_TEXT	SEGMENT
tv66 = -4						; size = 4
_code$ = 8						; size = 4
_xmlUCSIsSupplementaryPrivateUseAreaA PROC		; COMDAT

; 2382 : xmlUCSIsSupplementaryPrivateUseAreaA(int code) {

	push	ebp
	mov	ebp, esp
	push	ecx
	mov	DWORD PTR [ebp-4], -858993460		; ccccccccH
	mov	ecx, OFFSET __B18DBD6B_xmlunicode@c
	call	@__CheckForDebuggerJustMyCode@4

; 2383 :     return(((code >= 0xF0000) && (code <= 0xFFFFF)));

	cmp	DWORD PTR _code$[ebp], 983040		; 000f0000H
	jl	SHORT $LN3@xmlUCSIsSu
	cmp	DWORD PTR _code$[ebp], 1048575		; 000fffffH
	jg	SHORT $LN3@xmlUCSIsSu
	mov	DWORD PTR tv66[ebp], 1
	jmp	SHORT $LN4@xmlUCSIsSu
$LN3@xmlUCSIsSu:
	mov	DWORD PTR tv66[ebp], 0
$LN4@xmlUCSIsSu:
	mov	eax, DWORD PTR tv66[ebp]

; 2384 : }

	add	esp, 4
	cmp	ebp, esp
	call	__RTC_CheckEsp
	mov	esp, ebp
	pop	ebp
	ret	0
_xmlUCSIsSupplementaryPrivateUseAreaA ENDP
_TEXT	ENDS
; Function compile flags: /Odtp /RTCsu
; File c:\users\dag\documents\_clients\codeproject authors group\windows on arm\libxml2\libxml2-2.9.9\xmlunicode.c
;	COMDAT _xmlUCSIsSupplementalMathematicalOperators
_TEXT	SEGMENT
tv66 = -4						; size = 4
_code$ = 8						; size = 4
_xmlUCSIsSupplementalMathematicalOperators PROC		; COMDAT

; 2369 : xmlUCSIsSupplementalMathematicalOperators(int code) {

	push	ebp
	mov	ebp, esp
	push	ecx
	mov	DWORD PTR [ebp-4], -858993460		; ccccccccH
	mov	ecx, OFFSET __B18DBD6B_xmlunicode@c
	call	@__CheckForDebuggerJustMyCode@4

; 2370 :     return(((code >= 0x2A00) && (code <= 0x2AFF)));

	cmp	DWORD PTR _code$[ebp], 10752		; 00002a00H
	jl	SHORT $LN3@xmlUCSIsSu
	cmp	DWORD PTR _code$[ebp], 11007		; 00002affH
	jg	SHORT $LN3@xmlUCSIsSu
	mov	DWORD PTR tv66[ebp], 1
	jmp	SHORT $LN4@xmlUCSIsSu
$LN3@xmlUCSIsSu:
	mov	DWORD PTR tv66[ebp], 0
$LN4@xmlUCSIsSu:
	mov	eax, DWORD PTR tv66[ebp]

; 2371 : }

	add	esp, 4
	cmp	ebp, esp
	call	__RTC_CheckEsp
	mov	esp, ebp
	pop	ebp
	ret	0
_xmlUCSIsSupplementalMathematicalOperators ENDP
_TEXT	ENDS
; Function compile flags: /Odtp /RTCsu
; File c:\users\dag\documents\_clients\codeproject authors group\windows on arm\libxml2\libxml2-2.9.9\xmlunicode.c
;	COMDAT _xmlUCSIsSupplementalArrowsB
_TEXT	SEGMENT
tv66 = -4						; size = 4
_code$ = 8						; size = 4
_xmlUCSIsSupplementalArrowsB PROC			; COMDAT

; 2356 : xmlUCSIsSupplementalArrowsB(int code) {

	push	ebp
	mov	ebp, esp
	push	ecx
	mov	DWORD PTR [ebp-4], -858993460		; ccccccccH
	mov	ecx, OFFSET __B18DBD6B_xmlunicode@c
	call	@__CheckForDebuggerJustMyCode@4

; 2357 :     return(((code >= 0x2900) && (code <= 0x297F)));

	cmp	DWORD PTR _code$[ebp], 10496		; 00002900H
	jl	SHORT $LN3@xmlUCSIsSu
	cmp	DWORD PTR _code$[ebp], 10623		; 0000297fH
	jg	SHORT $LN3@xmlUCSIsSu
	mov	DWORD PTR tv66[ebp], 1
	jmp	SHORT $LN4@xmlUCSIsSu
$LN3@xmlUCSIsSu:
	mov	DWORD PTR tv66[ebp], 0
$LN4@xmlUCSIsSu:
	mov	eax, DWORD PTR tv66[ebp]

; 2358 : }

	add	esp, 4
	cmp	ebp, esp
	call	__RTC_CheckEsp
	mov	esp, ebp
	pop	ebp
	ret	0
_xmlUCSIsSupplementalArrowsB ENDP
_TEXT	ENDS
; Function compile flags: /Odtp /RTCsu
; File c:\users\dag\documents\_clients\codeproject authors group\windows on arm\libxml2\libxml2-2.9.9\xmlunicode.c
;	COMDAT _xmlUCSIsSupplementalArrowsA
_TEXT	SEGMENT
tv66 = -4						; size = 4
_code$ = 8						; size = 4
_xmlUCSIsSupplementalArrowsA PROC			; COMDAT

; 2343 : xmlUCSIsSupplementalArrowsA(int code) {

	push	ebp
	mov	ebp, esp
	push	ecx
	mov	DWORD PTR [ebp-4], -858993460		; ccccccccH
	mov	ecx, OFFSET __B18DBD6B_xmlunicode@c
	call	@__CheckForDebuggerJustMyCode@4

; 2344 :     return(((code >= 0x27F0) && (code <= 0x27FF)));

	cmp	DWORD PTR _code$[ebp], 10224		; 000027f0H
	jl	SHORT $LN3@xmlUCSIsSu
	cmp	DWORD PTR _code$[ebp], 10239		; 000027ffH
	jg	SHORT $LN3@xmlUCSIsSu
	mov	DWORD PTR tv66[ebp], 1
	jmp	SHORT $LN4@xmlUCSIsSu
$LN3@xmlUCSIsSu:
	mov	DWORD PTR tv66[ebp], 0
$LN4@xmlUCSIsSu:
	mov	eax, DWORD PTR tv66[ebp]

; 2345 : }

	add	esp, 4
	cmp	ebp, esp
	call	__RTC_CheckEsp
	mov	esp, ebp
	pop	ebp
	ret	0
_xmlUCSIsSupplementalArrowsA ENDP
_TEXT	ENDS
; Function compile flags: /Odtp /RTCsu
; File c:\users\dag\documents\_clients\codeproject authors group\windows on arm\libxml2\libxml2-2.9.9\xmlunicode.c
;	COMDAT _xmlUCSIsSuperscriptsandSubscripts
_TEXT	SEGMENT
tv66 = -4						; size = 4
_code$ = 8						; size = 4
_xmlUCSIsSuperscriptsandSubscripts PROC			; COMDAT

; 2330 : xmlUCSIsSuperscriptsandSubscripts(int code) {

	push	ebp
	mov	ebp, esp
	push	ecx
	mov	DWORD PTR [ebp-4], -858993460		; ccccccccH
	mov	ecx, OFFSET __B18DBD6B_xmlunicode@c
	call	@__CheckForDebuggerJustMyCode@4

; 2331 :     return(((code >= 0x2070) && (code <= 0x209F)));

	cmp	DWORD PTR _code$[ebp], 8304		; 00002070H
	jl	SHORT $LN3@xmlUCSIsSu
	cmp	DWORD PTR _code$[ebp], 8351		; 0000209fH
	jg	SHORT $LN3@xmlUCSIsSu
	mov	DWORD PTR tv66[ebp], 1
	jmp	SHORT $LN4@xmlUCSIsSu
$LN3@xmlUCSIsSu:
	mov	DWORD PTR tv66[ebp], 0
$LN4@xmlUCSIsSu:
	mov	eax, DWORD PTR tv66[ebp]

; 2332 : }

	add	esp, 4
	cmp	ebp, esp
	call	__RTC_CheckEsp
	mov	esp, ebp
	pop	ebp
	ret	0
_xmlUCSIsSuperscriptsandSubscripts ENDP
_TEXT	ENDS
; Function compile flags: /Odtp /RTCsu
; File c:\users\dag\documents\_clients\codeproject authors group\windows on arm\libxml2\libxml2-2.9.9\xmlunicode.c
;	COMDAT _xmlUCSIsSpecials
_TEXT	SEGMENT
tv66 = -4						; size = 4
_code$ = 8						; size = 4
_xmlUCSIsSpecials PROC					; COMDAT

; 2317 : xmlUCSIsSpecials(int code) {

	push	ebp
	mov	ebp, esp
	push	ecx
	mov	DWORD PTR [ebp-4], -858993460		; ccccccccH
	mov	ecx, OFFSET __B18DBD6B_xmlunicode@c
	call	@__CheckForDebuggerJustMyCode@4

; 2318 :     return(((code >= 0xFFF0) && (code <= 0xFFFF)));

	cmp	DWORD PTR _code$[ebp], 65520		; 0000fff0H
	jl	SHORT $LN3@xmlUCSIsSp
	cmp	DWORD PTR _code$[ebp], 65535		; 0000ffffH
	jg	SHORT $LN3@xmlUCSIsSp
	mov	DWORD PTR tv66[ebp], 1
	jmp	SHORT $LN4@xmlUCSIsSp
$LN3@xmlUCSIsSp:
	mov	DWORD PTR tv66[ebp], 0
$LN4@xmlUCSIsSp:
	mov	eax, DWORD PTR tv66[ebp]

; 2319 : }

	add	esp, 4
	cmp	ebp, esp
	call	__RTC_CheckEsp
	mov	esp, ebp
	pop	ebp
	ret	0
_xmlUCSIsSpecials ENDP
_TEXT	ENDS
; Function compile flags: /Odtp /RTCsu
; File c:\users\dag\documents\_clients\codeproject authors group\windows on arm\libxml2\libxml2-2.9.9\xmlunicode.c
;	COMDAT _xmlUCSIsSpacingModifierLetters
_TEXT	SEGMENT
tv66 = -4						; size = 4
_code$ = 8						; size = 4
_xmlUCSIsSpacingModifierLetters PROC			; COMDAT

; 2304 : xmlUCSIsSpacingModifierLetters(int code) {

	push	ebp
	mov	ebp, esp
	push	ecx
	mov	DWORD PTR [ebp-4], -858993460		; ccccccccH
	mov	ecx, OFFSET __B18DBD6B_xmlunicode@c
	call	@__CheckForDebuggerJustMyCode@4

; 2305 :     return(((code >= 0x02B0) && (code <= 0x02FF)));

	cmp	DWORD PTR _code$[ebp], 688		; 000002b0H
	jl	SHORT $LN3@xmlUCSIsSp
	cmp	DWORD PTR _code$[ebp], 767		; 000002ffH
	jg	SHORT $LN3@xmlUCSIsSp
	mov	DWORD PTR tv66[ebp], 1
	jmp	SHORT $LN4@xmlUCSIsSp
$LN3@xmlUCSIsSp:
	mov	DWORD PTR tv66[ebp], 0
$LN4@xmlUCSIsSp:
	mov	eax, DWORD PTR tv66[ebp]

; 2306 : }

	add	esp, 4
	cmp	ebp, esp
	call	__RTC_CheckEsp
	mov	esp, ebp
	pop	ebp
	ret	0
_xmlUCSIsSpacingModifierLetters ENDP
_TEXT	ENDS
; Function compile flags: /Odtp /RTCsu
; File c:\users\dag\documents\_clients\codeproject authors group\windows on arm\libxml2\libxml2-2.9.9\xmlunicode.c
;	COMDAT _xmlUCSIsSmallFormVariants
_TEXT	SEGMENT
tv66 = -4						; size = 4
_code$ = 8						; size = 4
_xmlUCSIsSmallFormVariants PROC				; COMDAT

; 2291 : xmlUCSIsSmallFormVariants(int code) {

	push	ebp
	mov	ebp, esp
	push	ecx
	mov	DWORD PTR [ebp-4], -858993460		; ccccccccH
	mov	ecx, OFFSET __B18DBD6B_xmlunicode@c
	call	@__CheckForDebuggerJustMyCode@4

; 2292 :     return(((code >= 0xFE50) && (code <= 0xFE6F)));

	cmp	DWORD PTR _code$[ebp], 65104		; 0000fe50H
	jl	SHORT $LN3@xmlUCSIsSm
	cmp	DWORD PTR _code$[ebp], 65135		; 0000fe6fH
	jg	SHORT $LN3@xmlUCSIsSm
	mov	DWORD PTR tv66[ebp], 1
	jmp	SHORT $LN4@xmlUCSIsSm
$LN3@xmlUCSIsSm:
	mov	DWORD PTR tv66[ebp], 0
$LN4@xmlUCSIsSm:
	mov	eax, DWORD PTR tv66[ebp]

; 2293 : }

	add	esp, 4
	cmp	ebp, esp
	call	__RTC_CheckEsp
	mov	esp, ebp
	pop	ebp
	ret	0
_xmlUCSIsSmallFormVariants ENDP
_TEXT	ENDS
; Function compile flags: /Odtp /RTCsu
; File c:\users\dag\documents\_clients\codeproject authors group\windows on arm\libxml2\libxml2-2.9.9\xmlunicode.c
;	COMDAT _xmlUCSIsSinhala
_TEXT	SEGMENT
tv66 = -4						; size = 4
_code$ = 8						; size = 4
_xmlUCSIsSinhala PROC					; COMDAT

; 2278 : xmlUCSIsSinhala(int code) {

	push	ebp
	mov	ebp, esp
	push	ecx
	mov	DWORD PTR [ebp-4], -858993460		; ccccccccH
	mov	ecx, OFFSET __B18DBD6B_xmlunicode@c
	call	@__CheckForDebuggerJustMyCode@4

; 2279 :     return(((code >= 0x0D80) && (code <= 0x0DFF)));

	cmp	DWORD PTR _code$[ebp], 3456		; 00000d80H
	jl	SHORT $LN3@xmlUCSIsSi
	cmp	DWORD PTR _code$[ebp], 3583		; 00000dffH
	jg	SHORT $LN3@xmlUCSIsSi
	mov	DWORD PTR tv66[ebp], 1
	jmp	SHORT $LN4@xmlUCSIsSi
$LN3@xmlUCSIsSi:
	mov	DWORD PTR tv66[ebp], 0
$LN4@xmlUCSIsSi:
	mov	eax, DWORD PTR tv66[ebp]

; 2280 : }

	add	esp, 4
	cmp	ebp, esp
	call	__RTC_CheckEsp
	mov	esp, ebp
	pop	ebp
	ret	0
_xmlUCSIsSinhala ENDP
_TEXT	ENDS
; Function compile flags: /Odtp /RTCsu
; File c:\users\dag\documents\_clients\codeproject authors group\windows on arm\libxml2\libxml2-2.9.9\xmlunicode.c
;	COMDAT _xmlUCSIsShavian
_TEXT	SEGMENT
tv66 = -4						; size = 4
_code$ = 8						; size = 4
_xmlUCSIsShavian PROC					; COMDAT

; 2265 : xmlUCSIsShavian(int code) {

	push	ebp
	mov	ebp, esp
	push	ecx
	mov	DWORD PTR [ebp-4], -858993460		; ccccccccH
	mov	ecx, OFFSET __B18DBD6B_xmlunicode@c
	call	@__CheckForDebuggerJustMyCode@4

; 2266 :     return(((code >= 0x10450) && (code <= 0x1047F)));

	cmp	DWORD PTR _code$[ebp], 66640		; 00010450H
	jl	SHORT $LN3@xmlUCSIsSh
	cmp	DWORD PTR _code$[ebp], 66687		; 0001047fH
	jg	SHORT $LN3@xmlUCSIsSh
	mov	DWORD PTR tv66[ebp], 1
	jmp	SHORT $LN4@xmlUCSIsSh
$LN3@xmlUCSIsSh:
	mov	DWORD PTR tv66[ebp], 0
$LN4@xmlUCSIsSh:
	mov	eax, DWORD PTR tv66[ebp]

; 2267 : }

	add	esp, 4
	cmp	ebp, esp
	call	__RTC_CheckEsp
	mov	esp, ebp
	pop	ebp
	ret	0
_xmlUCSIsShavian ENDP
_TEXT	ENDS
; Function compile flags: /Odtp /RTCsu
; File c:\users\dag\documents\_clients\codeproject authors group\windows on arm\libxml2\libxml2-2.9.9\xmlunicode.c
;	COMDAT _xmlUCSIsRunic
_TEXT	SEGMENT
tv66 = -4						; size = 4
_code$ = 8						; size = 4
_xmlUCSIsRunic PROC					; COMDAT

; 2252 : xmlUCSIsRunic(int code) {

	push	ebp
	mov	ebp, esp
	push	ecx
	mov	DWORD PTR [ebp-4], -858993460		; ccccccccH
	mov	ecx, OFFSET __B18DBD6B_xmlunicode@c
	call	@__CheckForDebuggerJustMyCode@4

; 2253 :     return(((code >= 0x16A0) && (code <= 0x16FF)));

	cmp	DWORD PTR _code$[ebp], 5792		; 000016a0H
	jl	SHORT $LN3@xmlUCSIsRu
	cmp	DWORD PTR _code$[ebp], 5887		; 000016ffH
	jg	SHORT $LN3@xmlUCSIsRu
	mov	DWORD PTR tv66[ebp], 1
	jmp	SHORT $LN4@xmlUCSIsRu
$LN3@xmlUCSIsRu:
	mov	DWORD PTR tv66[ebp], 0
$LN4@xmlUCSIsRu:
	mov	eax, DWORD PTR tv66[ebp]

; 2254 : }

	add	esp, 4
	cmp	ebp, esp
	call	__RTC_CheckEsp
	mov	esp, ebp
	pop	ebp
	ret	0
_xmlUCSIsRunic ENDP
_TEXT	ENDS
; Function compile flags: /Odtp /RTCsu
; File c:\users\dag\documents\_clients\codeproject authors group\windows on arm\libxml2\libxml2-2.9.9\xmlunicode.c
;	COMDAT _xmlUCSIsPrivateUseArea
_TEXT	SEGMENT
tv66 = -4						; size = 4
_code$ = 8						; size = 4
_xmlUCSIsPrivateUseArea PROC				; COMDAT

; 2239 : xmlUCSIsPrivateUseArea(int code) {

	push	ebp
	mov	ebp, esp
	push	ecx
	mov	DWORD PTR [ebp-4], -858993460		; ccccccccH
	mov	ecx, OFFSET __B18DBD6B_xmlunicode@c
	call	@__CheckForDebuggerJustMyCode@4

; 2240 :     return(((code >= 0xE000) && (code <= 0xF8FF)));

	cmp	DWORD PTR _code$[ebp], 57344		; 0000e000H
	jl	SHORT $LN3@xmlUCSIsPr
	cmp	DWORD PTR _code$[ebp], 63743		; 0000f8ffH
	jg	SHORT $LN3@xmlUCSIsPr
	mov	DWORD PTR tv66[ebp], 1
	jmp	SHORT $LN4@xmlUCSIsPr
$LN3@xmlUCSIsPr:
	mov	DWORD PTR tv66[ebp], 0
$LN4@xmlUCSIsPr:
	mov	eax, DWORD PTR tv66[ebp]

; 2241 : }

	add	esp, 4
	cmp	ebp, esp
	call	__RTC_CheckEsp
	mov	esp, ebp
	pop	ebp
	ret	0
_xmlUCSIsPrivateUseArea ENDP
_TEXT	ENDS
; Function compile flags: /Odtp /RTCsu
; File c:\users\dag\documents\_clients\codeproject authors group\windows on arm\libxml2\libxml2-2.9.9\xmlunicode.c
;	COMDAT _xmlUCSIsPrivateUse
_TEXT	SEGMENT
tv70 = -4						; size = 4
_code$ = 8						; size = 4
_xmlUCSIsPrivateUse PROC				; COMDAT

; 2224 : xmlUCSIsPrivateUse(int code) {

	push	ebp
	mov	ebp, esp
	push	ecx
	mov	DWORD PTR [ebp-4], -858993460		; ccccccccH
	mov	ecx, OFFSET __B18DBD6B_xmlunicode@c
	call	@__CheckForDebuggerJustMyCode@4

; 2225 :     return(((code >= 0xE000) && (code <= 0xF8FF)) ||

	cmp	DWORD PTR _code$[ebp], 57344		; 0000e000H
	jl	SHORT $LN3@xmlUCSIsPr
	cmp	DWORD PTR _code$[ebp], 63743		; 0000f8ffH
	jle	SHORT $LN5@xmlUCSIsPr
$LN3@xmlUCSIsPr:
	cmp	DWORD PTR _code$[ebp], 983040		; 000f0000H
	jl	SHORT $LN4@xmlUCSIsPr
	cmp	DWORD PTR _code$[ebp], 1048575		; 000fffffH
	jle	SHORT $LN5@xmlUCSIsPr
$LN4@xmlUCSIsPr:
	cmp	DWORD PTR _code$[ebp], 1048576		; 00100000H
	jl	SHORT $LN6@xmlUCSIsPr
	cmp	DWORD PTR _code$[ebp], 1114111		; 0010ffffH
	jle	SHORT $LN5@xmlUCSIsPr
$LN6@xmlUCSIsPr:
	mov	DWORD PTR tv70[ebp], 0
	jmp	SHORT $LN7@xmlUCSIsPr
$LN5@xmlUCSIsPr:
	mov	DWORD PTR tv70[ebp], 1
$LN7@xmlUCSIsPr:
	mov	eax, DWORD PTR tv70[ebp]

; 2226 :            ((code >= 0xF0000) && (code <= 0xFFFFF)) ||
; 2227 :            ((code >= 0x100000) && (code <= 0x10FFFF)));
; 2228 : }

	add	esp, 4
	cmp	ebp, esp
	call	__RTC_CheckEsp
	mov	esp, ebp
	pop	ebp
	ret	0
_xmlUCSIsPrivateUse ENDP
_TEXT	ENDS
; Function compile flags: /Odtp /RTCsu
; File c:\users\dag\documents\_clients\codeproject authors group\windows on arm\libxml2\libxml2-2.9.9\xmlunicode.c
;	COMDAT _xmlUCSIsPhoneticExtensions
_TEXT	SEGMENT
tv66 = -4						; size = 4
_code$ = 8						; size = 4
_xmlUCSIsPhoneticExtensions PROC			; COMDAT

; 2211 : xmlUCSIsPhoneticExtensions(int code) {

	push	ebp
	mov	ebp, esp
	push	ecx
	mov	DWORD PTR [ebp-4], -858993460		; ccccccccH
	mov	ecx, OFFSET __B18DBD6B_xmlunicode@c
	call	@__CheckForDebuggerJustMyCode@4

; 2212 :     return(((code >= 0x1D00) && (code <= 0x1D7F)));

	cmp	DWORD PTR _code$[ebp], 7424		; 00001d00H
	jl	SHORT $LN3@xmlUCSIsPh
	cmp	DWORD PTR _code$[ebp], 7551		; 00001d7fH
	jg	SHORT $LN3@xmlUCSIsPh
	mov	DWORD PTR tv66[ebp], 1
	jmp	SHORT $LN4@xmlUCSIsPh
$LN3@xmlUCSIsPh:
	mov	DWORD PTR tv66[ebp], 0
$LN4@xmlUCSIsPh:
	mov	eax, DWORD PTR tv66[ebp]

; 2213 : }

	add	esp, 4
	cmp	ebp, esp
	call	__RTC_CheckEsp
	mov	esp, ebp
	pop	ebp
	ret	0
_xmlUCSIsPhoneticExtensions ENDP
_TEXT	ENDS
; Function compile flags: /Odtp /RTCsu
; File c:\users\dag\documents\_clients\codeproject authors group\windows on arm\libxml2\libxml2-2.9.9\xmlunicode.c
;	COMDAT _xmlUCSIsOsmanya
_TEXT	SEGMENT
tv66 = -4						; size = 4
_code$ = 8						; size = 4
_xmlUCSIsOsmanya PROC					; COMDAT

; 2198 : xmlUCSIsOsmanya(int code) {

	push	ebp
	mov	ebp, esp
	push	ecx
	mov	DWORD PTR [ebp-4], -858993460		; ccccccccH
	mov	ecx, OFFSET __B18DBD6B_xmlunicode@c
	call	@__CheckForDebuggerJustMyCode@4

; 2199 :     return(((code >= 0x10480) && (code <= 0x104AF)));

	cmp	DWORD PTR _code$[ebp], 66688		; 00010480H
	jl	SHORT $LN3@xmlUCSIsOs
	cmp	DWORD PTR _code$[ebp], 66735		; 000104afH
	jg	SHORT $LN3@xmlUCSIsOs
	mov	DWORD PTR tv66[ebp], 1
	jmp	SHORT $LN4@xmlUCSIsOs
$LN3@xmlUCSIsOs:
	mov	DWORD PTR tv66[ebp], 0
$LN4@xmlUCSIsOs:
	mov	eax, DWORD PTR tv66[ebp]

; 2200 : }

	add	esp, 4
	cmp	ebp, esp
	call	__RTC_CheckEsp
	mov	esp, ebp
	pop	ebp
	ret	0
_xmlUCSIsOsmanya ENDP
_TEXT	ENDS
; Function compile flags: /Odtp /RTCsu
; File c:\users\dag\documents\_clients\codeproject authors group\windows on arm\libxml2\libxml2-2.9.9\xmlunicode.c
;	COMDAT _xmlUCSIsOriya
_TEXT	SEGMENT
tv66 = -4						; size = 4
_code$ = 8						; size = 4
_xmlUCSIsOriya PROC					; COMDAT

; 2185 : xmlUCSIsOriya(int code) {

	push	ebp
	mov	ebp, esp
	push	ecx
	mov	DWORD PTR [ebp-4], -858993460		; ccccccccH
	mov	ecx, OFFSET __B18DBD6B_xmlunicode@c
	call	@__CheckForDebuggerJustMyCode@4

; 2186 :     return(((code >= 0x0B00) && (code <= 0x0B7F)));

	cmp	DWORD PTR _code$[ebp], 2816		; 00000b00H
	jl	SHORT $LN3@xmlUCSIsOr
	cmp	DWORD PTR _code$[ebp], 2943		; 00000b7fH
	jg	SHORT $LN3@xmlUCSIsOr
	mov	DWORD PTR tv66[ebp], 1
	jmp	SHORT $LN4@xmlUCSIsOr
$LN3@xmlUCSIsOr:
	mov	DWORD PTR tv66[ebp], 0
$LN4@xmlUCSIsOr:
	mov	eax, DWORD PTR tv66[ebp]

; 2187 : }

	add	esp, 4
	cmp	ebp, esp
	call	__RTC_CheckEsp
	mov	esp, ebp
	pop	ebp
	ret	0
_xmlUCSIsOriya ENDP
_TEXT	ENDS
; Function compile flags: /Odtp /RTCsu
; File c:\users\dag\documents\_clients\codeproject authors group\windows on arm\libxml2\libxml2-2.9.9\xmlunicode.c
;	COMDAT _xmlUCSIsOpticalCharacterRecognition
_TEXT	SEGMENT
tv66 = -4						; size = 4
_code$ = 8						; size = 4
_xmlUCSIsOpticalCharacterRecognition PROC		; COMDAT

; 2172 : xmlUCSIsOpticalCharacterRecognition(int code) {

	push	ebp
	mov	ebp, esp
	push	ecx
	mov	DWORD PTR [ebp-4], -858993460		; ccccccccH
	mov	ecx, OFFSET __B18DBD6B_xmlunicode@c
	call	@__CheckForDebuggerJustMyCode@4

; 2173 :     return(((code >= 0x2440) && (code <= 0x245F)));

	cmp	DWORD PTR _code$[ebp], 9280		; 00002440H
	jl	SHORT $LN3@xmlUCSIsOp
	cmp	DWORD PTR _code$[ebp], 9311		; 0000245fH
	jg	SHORT $LN3@xmlUCSIsOp
	mov	DWORD PTR tv66[ebp], 1
	jmp	SHORT $LN4@xmlUCSIsOp
$LN3@xmlUCSIsOp:
	mov	DWORD PTR tv66[ebp], 0
$LN4@xmlUCSIsOp:
	mov	eax, DWORD PTR tv66[ebp]

; 2174 : }

	add	esp, 4
	cmp	ebp, esp
	call	__RTC_CheckEsp
	mov	esp, ebp
	pop	ebp
	ret	0
_xmlUCSIsOpticalCharacterRecognition ENDP
_TEXT	ENDS
; Function compile flags: /Odtp /RTCsu
; File c:\users\dag\documents\_clients\codeproject authors group\windows on arm\libxml2\libxml2-2.9.9\xmlunicode.c
;	COMDAT _xmlUCSIsOldItalic
_TEXT	SEGMENT
tv66 = -4						; size = 4
_code$ = 8						; size = 4
_xmlUCSIsOldItalic PROC					; COMDAT

; 2159 : xmlUCSIsOldItalic(int code) {

	push	ebp
	mov	ebp, esp
	push	ecx
	mov	DWORD PTR [ebp-4], -858993460		; ccccccccH
	mov	ecx, OFFSET __B18DBD6B_xmlunicode@c
	call	@__CheckForDebuggerJustMyCode@4

; 2160 :     return(((code >= 0x10300) && (code <= 0x1032F)));

	cmp	DWORD PTR _code$[ebp], 66304		; 00010300H
	jl	SHORT $LN3@xmlUCSIsOl
	cmp	DWORD PTR _code$[ebp], 66351		; 0001032fH
	jg	SHORT $LN3@xmlUCSIsOl
	mov	DWORD PTR tv66[ebp], 1
	jmp	SHORT $LN4@xmlUCSIsOl
$LN3@xmlUCSIsOl:
	mov	DWORD PTR tv66[ebp], 0
$LN4@xmlUCSIsOl:
	mov	eax, DWORD PTR tv66[ebp]

; 2161 : }

	add	esp, 4
	cmp	ebp, esp
	call	__RTC_CheckEsp
	mov	esp, ebp
	pop	ebp
	ret	0
_xmlUCSIsOldItalic ENDP
_TEXT	ENDS
; Function compile flags: /Odtp /RTCsu
; File c:\users\dag\documents\_clients\codeproject authors group\windows on arm\libxml2\libxml2-2.9.9\xmlunicode.c
;	COMDAT _xmlUCSIsOgham
_TEXT	SEGMENT
tv66 = -4						; size = 4
_code$ = 8						; size = 4
_xmlUCSIsOgham PROC					; COMDAT

; 2146 : xmlUCSIsOgham(int code) {

	push	ebp
	mov	ebp, esp
	push	ecx
	mov	DWORD PTR [ebp-4], -858993460		; ccccccccH
	mov	ecx, OFFSET __B18DBD6B_xmlunicode@c
	call	@__CheckForDebuggerJustMyCode@4

; 2147 :     return(((code >= 0x1680) && (code <= 0x169F)));

	cmp	DWORD PTR _code$[ebp], 5760		; 00001680H
	jl	SHORT $LN3@xmlUCSIsOg
	cmp	DWORD PTR _code$[ebp], 5791		; 0000169fH
	jg	SHORT $LN3@xmlUCSIsOg
	mov	DWORD PTR tv66[ebp], 1
	jmp	SHORT $LN4@xmlUCSIsOg
$LN3@xmlUCSIsOg:
	mov	DWORD PTR tv66[ebp], 0
$LN4@xmlUCSIsOg:
	mov	eax, DWORD PTR tv66[ebp]

; 2148 : }

	add	esp, 4
	cmp	ebp, esp
	call	__RTC_CheckEsp
	mov	esp, ebp
	pop	ebp
	ret	0
_xmlUCSIsOgham ENDP
_TEXT	ENDS
; Function compile flags: /Odtp /RTCsu
; File c:\users\dag\documents\_clients\codeproject authors group\windows on arm\libxml2\libxml2-2.9.9\xmlunicode.c
;	COMDAT _xmlUCSIsNumberForms
_TEXT	SEGMENT
tv66 = -4						; size = 4
_code$ = 8						; size = 4
_xmlUCSIsNumberForms PROC				; COMDAT

; 2133 : xmlUCSIsNumberForms(int code) {

	push	ebp
	mov	ebp, esp
	push	ecx
	mov	DWORD PTR [ebp-4], -858993460		; ccccccccH
	mov	ecx, OFFSET __B18DBD6B_xmlunicode@c
	call	@__CheckForDebuggerJustMyCode@4

; 2134 :     return(((code >= 0x2150) && (code <= 0x218F)));

	cmp	DWORD PTR _code$[ebp], 8528		; 00002150H
	jl	SHORT $LN3@xmlUCSIsNu
	cmp	DWORD PTR _code$[ebp], 8591		; 0000218fH
	jg	SHORT $LN3@xmlUCSIsNu
	mov	DWORD PTR tv66[ebp], 1
	jmp	SHORT $LN4@xmlUCSIsNu
$LN3@xmlUCSIsNu:
	mov	DWORD PTR tv66[ebp], 0
$LN4@xmlUCSIsNu:
	mov	eax, DWORD PTR tv66[ebp]

; 2135 : }

	add	esp, 4
	cmp	ebp, esp
	call	__RTC_CheckEsp
	mov	esp, ebp
	pop	ebp
	ret	0
_xmlUCSIsNumberForms ENDP
_TEXT	ENDS
; Function compile flags: /Odtp /RTCsu
; File c:\users\dag\documents\_clients\codeproject authors group\windows on arm\libxml2\libxml2-2.9.9\xmlunicode.c
;	COMDAT _xmlUCSIsMyanmar
_TEXT	SEGMENT
tv66 = -4						; size = 4
_code$ = 8						; size = 4
_xmlUCSIsMyanmar PROC					; COMDAT

; 2120 : xmlUCSIsMyanmar(int code) {

	push	ebp
	mov	ebp, esp
	push	ecx
	mov	DWORD PTR [ebp-4], -858993460		; ccccccccH
	mov	ecx, OFFSET __B18DBD6B_xmlunicode@c
	call	@__CheckForDebuggerJustMyCode@4

; 2121 :     return(((code >= 0x1000) && (code <= 0x109F)));

	cmp	DWORD PTR _code$[ebp], 4096		; 00001000H
	jl	SHORT $LN3@xmlUCSIsMy
	cmp	DWORD PTR _code$[ebp], 4255		; 0000109fH
	jg	SHORT $LN3@xmlUCSIsMy
	mov	DWORD PTR tv66[ebp], 1
	jmp	SHORT $LN4@xmlUCSIsMy
$LN3@xmlUCSIsMy:
	mov	DWORD PTR tv66[ebp], 0
$LN4@xmlUCSIsMy:
	mov	eax, DWORD PTR tv66[ebp]

; 2122 : }

	add	esp, 4
	cmp	ebp, esp
	call	__RTC_CheckEsp
	mov	esp, ebp
	pop	ebp
	ret	0
_xmlUCSIsMyanmar ENDP
_TEXT	ENDS
; Function compile flags: /Odtp /RTCsu
; File c:\users\dag\documents\_clients\codeproject authors group\windows on arm\libxml2\libxml2-2.9.9\xmlunicode.c
;	COMDAT _xmlUCSIsMusicalSymbols
_TEXT	SEGMENT
tv66 = -4						; size = 4
_code$ = 8						; size = 4
_xmlUCSIsMusicalSymbols PROC				; COMDAT

; 2107 : xmlUCSIsMusicalSymbols(int code) {

	push	ebp
	mov	ebp, esp
	push	ecx
	mov	DWORD PTR [ebp-4], -858993460		; ccccccccH
	mov	ecx, OFFSET __B18DBD6B_xmlunicode@c
	call	@__CheckForDebuggerJustMyCode@4

; 2108 :     return(((code >= 0x1D100) && (code <= 0x1D1FF)));

	cmp	DWORD PTR _code$[ebp], 119040		; 0001d100H
	jl	SHORT $LN3@xmlUCSIsMu
	cmp	DWORD PTR _code$[ebp], 119295		; 0001d1ffH
	jg	SHORT $LN3@xmlUCSIsMu
	mov	DWORD PTR tv66[ebp], 1
	jmp	SHORT $LN4@xmlUCSIsMu
$LN3@xmlUCSIsMu:
	mov	DWORD PTR tv66[ebp], 0
$LN4@xmlUCSIsMu:
	mov	eax, DWORD PTR tv66[ebp]

; 2109 : }

	add	esp, 4
	cmp	ebp, esp
	call	__RTC_CheckEsp
	mov	esp, ebp
	pop	ebp
	ret	0
_xmlUCSIsMusicalSymbols ENDP
_TEXT	ENDS
; Function compile flags: /Odtp /RTCsu
; File c:\users\dag\documents\_clients\codeproject authors group\windows on arm\libxml2\libxml2-2.9.9\xmlunicode.c
;	COMDAT _xmlUCSIsMongolian
_TEXT	SEGMENT
tv66 = -4						; size = 4
_code$ = 8						; size = 4
_xmlUCSIsMongolian PROC					; COMDAT

; 2094 : xmlUCSIsMongolian(int code) {

	push	ebp
	mov	ebp, esp
	push	ecx
	mov	DWORD PTR [ebp-4], -858993460		; ccccccccH
	mov	ecx, OFFSET __B18DBD6B_xmlunicode@c
	call	@__CheckForDebuggerJustMyCode@4

; 2095 :     return(((code >= 0x1800) && (code <= 0x18AF)));

	cmp	DWORD PTR _code$[ebp], 6144		; 00001800H
	jl	SHORT $LN3@xmlUCSIsMo
	cmp	DWORD PTR _code$[ebp], 6319		; 000018afH
	jg	SHORT $LN3@xmlUCSIsMo
	mov	DWORD PTR tv66[ebp], 1
	jmp	SHORT $LN4@xmlUCSIsMo
$LN3@xmlUCSIsMo:
	mov	DWORD PTR tv66[ebp], 0
$LN4@xmlUCSIsMo:
	mov	eax, DWORD PTR tv66[ebp]

; 2096 : }

	add	esp, 4
	cmp	ebp, esp
	call	__RTC_CheckEsp
	mov	esp, ebp
	pop	ebp
	ret	0
_xmlUCSIsMongolian ENDP
_TEXT	ENDS
; Function compile flags: /Odtp /RTCsu
; File c:\users\dag\documents\_clients\codeproject authors group\windows on arm\libxml2\libxml2-2.9.9\xmlunicode.c
;	COMDAT _xmlUCSIsMiscellaneousTechnical
_TEXT	SEGMENT
tv66 = -4						; size = 4
_code$ = 8						; size = 4
_xmlUCSIsMiscellaneousTechnical PROC			; COMDAT

; 2081 : xmlUCSIsMiscellaneousTechnical(int code) {

	push	ebp
	mov	ebp, esp
	push	ecx
	mov	DWORD PTR [ebp-4], -858993460		; ccccccccH
	mov	ecx, OFFSET __B18DBD6B_xmlunicode@c
	call	@__CheckForDebuggerJustMyCode@4

; 2082 :     return(((code >= 0x2300) && (code <= 0x23FF)));

	cmp	DWORD PTR _code$[ebp], 8960		; 00002300H
	jl	SHORT $LN3@xmlUCSIsMi
	cmp	DWORD PTR _code$[ebp], 9215		; 000023ffH
	jg	SHORT $LN3@xmlUCSIsMi
	mov	DWORD PTR tv66[ebp], 1
	jmp	SHORT $LN4@xmlUCSIsMi
$LN3@xmlUCSIsMi:
	mov	DWORD PTR tv66[ebp], 0
$LN4@xmlUCSIsMi:
	mov	eax, DWORD PTR tv66[ebp]

; 2083 : }

	add	esp, 4
	cmp	ebp, esp
	call	__RTC_CheckEsp
	mov	esp, ebp
	pop	ebp
	ret	0
_xmlUCSIsMiscellaneousTechnical ENDP
_TEXT	ENDS
; Function compile flags: /Odtp /RTCsu
; File c:\users\dag\documents\_clients\codeproject authors group\windows on arm\libxml2\libxml2-2.9.9\xmlunicode.c
;	COMDAT _xmlUCSIsMiscellaneousSymbolsandArrows
_TEXT	SEGMENT
tv66 = -4						; size = 4
_code$ = 8						; size = 4
_xmlUCSIsMiscellaneousSymbolsandArrows PROC		; COMDAT

; 2068 : xmlUCSIsMiscellaneousSymbolsandArrows(int code) {

	push	ebp
	mov	ebp, esp
	push	ecx
	mov	DWORD PTR [ebp-4], -858993460		; ccccccccH
	mov	ecx, OFFSET __B18DBD6B_xmlunicode@c
	call	@__CheckForDebuggerJustMyCode@4

; 2069 :     return(((code >= 0x2B00) && (code <= 0x2BFF)));

	cmp	DWORD PTR _code$[ebp], 11008		; 00002b00H
	jl	SHORT $LN3@xmlUCSIsMi
	cmp	DWORD PTR _code$[ebp], 11263		; 00002bffH
	jg	SHORT $LN3@xmlUCSIsMi
	mov	DWORD PTR tv66[ebp], 1
	jmp	SHORT $LN4@xmlUCSIsMi
$LN3@xmlUCSIsMi:
	mov	DWORD PTR tv66[ebp], 0
$LN4@xmlUCSIsMi:
	mov	eax, DWORD PTR tv66[ebp]

; 2070 : }

	add	esp, 4
	cmp	ebp, esp
	call	__RTC_CheckEsp
	mov	esp, ebp
	pop	ebp
	ret	0
_xmlUCSIsMiscellaneousSymbolsandArrows ENDP
_TEXT	ENDS
; Function compile flags: /Odtp /RTCsu
; File c:\users\dag\documents\_clients\codeproject authors group\windows on arm\libxml2\libxml2-2.9.9\xmlunicode.c
;	COMDAT _xmlUCSIsMiscellaneousSymbols
_TEXT	SEGMENT
tv66 = -4						; size = 4
_code$ = 8						; size = 4
_xmlUCSIsMiscellaneousSymbols PROC			; COMDAT

; 2055 : xmlUCSIsMiscellaneousSymbols(int code) {

	push	ebp
	mov	ebp, esp
	push	ecx
	mov	DWORD PTR [ebp-4], -858993460		; ccccccccH
	mov	ecx, OFFSET __B18DBD6B_xmlunicode@c
	call	@__CheckForDebuggerJustMyCode@4

; 2056 :     return(((code >= 0x2600) && (code <= 0x26FF)));

	cmp	DWORD PTR _code$[ebp], 9728		; 00002600H
	jl	SHORT $LN3@xmlUCSIsMi
	cmp	DWORD PTR _code$[ebp], 9983		; 000026ffH
	jg	SHORT $LN3@xmlUCSIsMi
	mov	DWORD PTR tv66[ebp], 1
	jmp	SHORT $LN4@xmlUCSIsMi
$LN3@xmlUCSIsMi:
	mov	DWORD PTR tv66[ebp], 0
$LN4@xmlUCSIsMi:
	mov	eax, DWORD PTR tv66[ebp]

; 2057 : }

	add	esp, 4
	cmp	ebp, esp
	call	__RTC_CheckEsp
	mov	esp, ebp
	pop	ebp
	ret	0
_xmlUCSIsMiscellaneousSymbols ENDP
_TEXT	ENDS
; Function compile flags: /Odtp /RTCsu
; File c:\users\dag\documents\_clients\codeproject authors group\windows on arm\libxml2\libxml2-2.9.9\xmlunicode.c
;	COMDAT _xmlUCSIsMiscellaneousMathematicalSymbolsB
_TEXT	SEGMENT
tv66 = -4						; size = 4
_code$ = 8						; size = 4
_xmlUCSIsMiscellaneousMathematicalSymbolsB PROC		; COMDAT

; 2042 : xmlUCSIsMiscellaneousMathematicalSymbolsB(int code) {

	push	ebp
	mov	ebp, esp
	push	ecx
	mov	DWORD PTR [ebp-4], -858993460		; ccccccccH
	mov	ecx, OFFSET __B18DBD6B_xmlunicode@c
	call	@__CheckForDebuggerJustMyCode@4

; 2043 :     return(((code >= 0x2980) && (code <= 0x29FF)));

	cmp	DWORD PTR _code$[ebp], 10624		; 00002980H
	jl	SHORT $LN3@xmlUCSIsMi
	cmp	DWORD PTR _code$[ebp], 10751		; 000029ffH
	jg	SHORT $LN3@xmlUCSIsMi
	mov	DWORD PTR tv66[ebp], 1
	jmp	SHORT $LN4@xmlUCSIsMi
$LN3@xmlUCSIsMi:
	mov	DWORD PTR tv66[ebp], 0
$LN4@xmlUCSIsMi:
	mov	eax, DWORD PTR tv66[ebp]

; 2044 : }

	add	esp, 4
	cmp	ebp, esp
	call	__RTC_CheckEsp
	mov	esp, ebp
	pop	ebp
	ret	0
_xmlUCSIsMiscellaneousMathematicalSymbolsB ENDP
_TEXT	ENDS
; Function compile flags: /Odtp /RTCsu
; File c:\users\dag\documents\_clients\codeproject authors group\windows on arm\libxml2\libxml2-2.9.9\xmlunicode.c
;	COMDAT _xmlUCSIsMiscellaneousMathematicalSymbolsA
_TEXT	SEGMENT
tv66 = -4						; size = 4
_code$ = 8						; size = 4
_xmlUCSIsMiscellaneousMathematicalSymbolsA PROC		; COMDAT

; 2029 : xmlUCSIsMiscellaneousMathematicalSymbolsA(int code) {

	push	ebp
	mov	ebp, esp
	push	ecx
	mov	DWORD PTR [ebp-4], -858993460		; ccccccccH
	mov	ecx, OFFSET __B18DBD6B_xmlunicode@c
	call	@__CheckForDebuggerJustMyCode@4

; 2030 :     return(((code >= 0x27C0) && (code <= 0x27EF)));

	cmp	DWORD PTR _code$[ebp], 10176		; 000027c0H
	jl	SHORT $LN3@xmlUCSIsMi
	cmp	DWORD PTR _code$[ebp], 10223		; 000027efH
	jg	SHORT $LN3@xmlUCSIsMi
	mov	DWORD PTR tv66[ebp], 1
	jmp	SHORT $LN4@xmlUCSIsMi
$LN3@xmlUCSIsMi:
	mov	DWORD PTR tv66[ebp], 0
$LN4@xmlUCSIsMi:
	mov	eax, DWORD PTR tv66[ebp]

; 2031 : }

	add	esp, 4
	cmp	ebp, esp
	call	__RTC_CheckEsp
	mov	esp, ebp
	pop	ebp
	ret	0
_xmlUCSIsMiscellaneousMathematicalSymbolsA ENDP
_TEXT	ENDS
; Function compile flags: /Odtp /RTCsu
; File c:\users\dag\documents\_clients\codeproject authors group\windows on arm\libxml2\libxml2-2.9.9\xmlunicode.c
;	COMDAT _xmlUCSIsMathematicalOperators
_TEXT	SEGMENT
tv66 = -4						; size = 4
_code$ = 8						; size = 4
_xmlUCSIsMathematicalOperators PROC			; COMDAT

; 2016 : xmlUCSIsMathematicalOperators(int code) {

	push	ebp
	mov	ebp, esp
	push	ecx
	mov	DWORD PTR [ebp-4], -858993460		; ccccccccH
	mov	ecx, OFFSET __B18DBD6B_xmlunicode@c
	call	@__CheckForDebuggerJustMyCode@4

; 2017 :     return(((code >= 0x2200) && (code <= 0x22FF)));

	cmp	DWORD PTR _code$[ebp], 8704		; 00002200H
	jl	SHORT $LN3@xmlUCSIsMa
	cmp	DWORD PTR _code$[ebp], 8959		; 000022ffH
	jg	SHORT $LN3@xmlUCSIsMa
	mov	DWORD PTR tv66[ebp], 1
	jmp	SHORT $LN4@xmlUCSIsMa
$LN3@xmlUCSIsMa:
	mov	DWORD PTR tv66[ebp], 0
$LN4@xmlUCSIsMa:
	mov	eax, DWORD PTR tv66[ebp]

; 2018 : }

	add	esp, 4
	cmp	ebp, esp
	call	__RTC_CheckEsp
	mov	esp, ebp
	pop	ebp
	ret	0
_xmlUCSIsMathematicalOperators ENDP
_TEXT	ENDS
; Function compile flags: /Odtp /RTCsu
; File c:\users\dag\documents\_clients\codeproject authors group\windows on arm\libxml2\libxml2-2.9.9\xmlunicode.c
;	COMDAT _xmlUCSIsMathematicalAlphanumericSymbols
_TEXT	SEGMENT
tv66 = -4						; size = 4
_code$ = 8						; size = 4
_xmlUCSIsMathematicalAlphanumericSymbols PROC		; COMDAT

; 2003 : xmlUCSIsMathematicalAlphanumericSymbols(int code) {

	push	ebp
	mov	ebp, esp
	push	ecx
	mov	DWORD PTR [ebp-4], -858993460		; ccccccccH
	mov	ecx, OFFSET __B18DBD6B_xmlunicode@c
	call	@__CheckForDebuggerJustMyCode@4

; 2004 :     return(((code >= 0x1D400) && (code <= 0x1D7FF)));

	cmp	DWORD PTR _code$[ebp], 119808		; 0001d400H
	jl	SHORT $LN3@xmlUCSIsMa
	cmp	DWORD PTR _code$[ebp], 120831		; 0001d7ffH
	jg	SHORT $LN3@xmlUCSIsMa
	mov	DWORD PTR tv66[ebp], 1
	jmp	SHORT $LN4@xmlUCSIsMa
$LN3@xmlUCSIsMa:
	mov	DWORD PTR tv66[ebp], 0
$LN4@xmlUCSIsMa:
	mov	eax, DWORD PTR tv66[ebp]

; 2005 : }

	add	esp, 4
	cmp	ebp, esp
	call	__RTC_CheckEsp
	mov	esp, ebp
	pop	ebp
	ret	0
_xmlUCSIsMathematicalAlphanumericSymbols ENDP
_TEXT	ENDS
; Function compile flags: /Odtp /RTCsu
; File c:\users\dag\documents\_clients\codeproject authors group\windows on arm\libxml2\libxml2-2.9.9\xmlunicode.c
;	COMDAT _xmlUCSIsMalayalam
_TEXT	SEGMENT
tv66 = -4						; size = 4
_code$ = 8						; size = 4
_xmlUCSIsMalayalam PROC					; COMDAT

; 1990 : xmlUCSIsMalayalam(int code) {

	push	ebp
	mov	ebp, esp
	push	ecx
	mov	DWORD PTR [ebp-4], -858993460		; ccccccccH
	mov	ecx, OFFSET __B18DBD6B_xmlunicode@c
	call	@__CheckForDebuggerJustMyCode@4

; 1991 :     return(((code >= 0x0D00) && (code <= 0x0D7F)));

	cmp	DWORD PTR _code$[ebp], 3328		; 00000d00H
	jl	SHORT $LN3@xmlUCSIsMa
	cmp	DWORD PTR _code$[ebp], 3455		; 00000d7fH
	jg	SHORT $LN3@xmlUCSIsMa
	mov	DWORD PTR tv66[ebp], 1
	jmp	SHORT $LN4@xmlUCSIsMa
$LN3@xmlUCSIsMa:
	mov	DWORD PTR tv66[ebp], 0
$LN4@xmlUCSIsMa:
	mov	eax, DWORD PTR tv66[ebp]

; 1992 : }

	add	esp, 4
	cmp	ebp, esp
	call	__RTC_CheckEsp
	mov	esp, ebp
	pop	ebp
	ret	0
_xmlUCSIsMalayalam ENDP
_TEXT	ENDS
; Function compile flags: /Odtp /RTCsu
; File c:\users\dag\documents\_clients\codeproject authors group\windows on arm\libxml2\libxml2-2.9.9\xmlunicode.c
;	COMDAT _xmlUCSIsLowSurrogates
_TEXT	SEGMENT
tv66 = -4						; size = 4
_code$ = 8						; size = 4
_xmlUCSIsLowSurrogates PROC				; COMDAT

; 1977 : xmlUCSIsLowSurrogates(int code) {

	push	ebp
	mov	ebp, esp
	push	ecx
	mov	DWORD PTR [ebp-4], -858993460		; ccccccccH
	mov	ecx, OFFSET __B18DBD6B_xmlunicode@c
	call	@__CheckForDebuggerJustMyCode@4

; 1978 :     return(((code >= 0xDC00) && (code <= 0xDFFF)));

	cmp	DWORD PTR _code$[ebp], 56320		; 0000dc00H
	jl	SHORT $LN3@xmlUCSIsLo
	cmp	DWORD PTR _code$[ebp], 57343		; 0000dfffH
	jg	SHORT $LN3@xmlUCSIsLo
	mov	DWORD PTR tv66[ebp], 1
	jmp	SHORT $LN4@xmlUCSIsLo
$LN3@xmlUCSIsLo:
	mov	DWORD PTR tv66[ebp], 0
$LN4@xmlUCSIsLo:
	mov	eax, DWORD PTR tv66[ebp]

; 1979 : }

	add	esp, 4
	cmp	ebp, esp
	call	__RTC_CheckEsp
	mov	esp, ebp
	pop	ebp
	ret	0
_xmlUCSIsLowSurrogates ENDP
_TEXT	ENDS
; Function compile flags: /Odtp /RTCsu
; File c:\users\dag\documents\_clients\codeproject authors group\windows on arm\libxml2\libxml2-2.9.9\xmlunicode.c
;	COMDAT _xmlUCSIsLinearBSyllabary
_TEXT	SEGMENT
tv66 = -4						; size = 4
_code$ = 8						; size = 4
_xmlUCSIsLinearBSyllabary PROC				; COMDAT

; 1964 : xmlUCSIsLinearBSyllabary(int code) {

	push	ebp
	mov	ebp, esp
	push	ecx
	mov	DWORD PTR [ebp-4], -858993460		; ccccccccH
	mov	ecx, OFFSET __B18DBD6B_xmlunicode@c
	call	@__CheckForDebuggerJustMyCode@4

; 1965 :     return(((code >= 0x10000) && (code <= 0x1007F)));

	cmp	DWORD PTR _code$[ebp], 65536		; 00010000H
	jl	SHORT $LN3@xmlUCSIsLi
	cmp	DWORD PTR _code$[ebp], 65663		; 0001007fH
	jg	SHORT $LN3@xmlUCSIsLi
	mov	DWORD PTR tv66[ebp], 1
	jmp	SHORT $LN4@xmlUCSIsLi
$LN3@xmlUCSIsLi:
	mov	DWORD PTR tv66[ebp], 0
$LN4@xmlUCSIsLi:
	mov	eax, DWORD PTR tv66[ebp]

; 1966 : }

	add	esp, 4
	cmp	ebp, esp
	call	__RTC_CheckEsp
	mov	esp, ebp
	pop	ebp
	ret	0
_xmlUCSIsLinearBSyllabary ENDP
_TEXT	ENDS
; Function compile flags: /Odtp /RTCsu
; File c:\users\dag\documents\_clients\codeproject authors group\windows on arm\libxml2\libxml2-2.9.9\xmlunicode.c
;	COMDAT _xmlUCSIsLinearBIdeograms
_TEXT	SEGMENT
tv66 = -4						; size = 4
_code$ = 8						; size = 4
_xmlUCSIsLinearBIdeograms PROC				; COMDAT

; 1951 : xmlUCSIsLinearBIdeograms(int code) {

	push	ebp
	mov	ebp, esp
	push	ecx
	mov	DWORD PTR [ebp-4], -858993460		; ccccccccH
	mov	ecx, OFFSET __B18DBD6B_xmlunicode@c
	call	@__CheckForDebuggerJustMyCode@4

; 1952 :     return(((code >= 0x10080) && (code <= 0x100FF)));

	cmp	DWORD PTR _code$[ebp], 65664		; 00010080H
	jl	SHORT $LN3@xmlUCSIsLi
	cmp	DWORD PTR _code$[ebp], 65791		; 000100ffH
	jg	SHORT $LN3@xmlUCSIsLi
	mov	DWORD PTR tv66[ebp], 1
	jmp	SHORT $LN4@xmlUCSIsLi
$LN3@xmlUCSIsLi:
	mov	DWORD PTR tv66[ebp], 0
$LN4@xmlUCSIsLi:
	mov	eax, DWORD PTR tv66[ebp]

; 1953 : }

	add	esp, 4
	cmp	ebp, esp
	call	__RTC_CheckEsp
	mov	esp, ebp
	pop	ebp
	ret	0
_xmlUCSIsLinearBIdeograms ENDP
_TEXT	ENDS
; Function compile flags: /Odtp /RTCsu
; File c:\users\dag\documents\_clients\codeproject authors group\windows on arm\libxml2\libxml2-2.9.9\xmlunicode.c
;	COMDAT _xmlUCSIsLimbu
_TEXT	SEGMENT
tv66 = -4						; size = 4
_code$ = 8						; size = 4
_xmlUCSIsLimbu PROC					; COMDAT

; 1938 : xmlUCSIsLimbu(int code) {

	push	ebp
	mov	ebp, esp
	push	ecx
	mov	DWORD PTR [ebp-4], -858993460		; ccccccccH
	mov	ecx, OFFSET __B18DBD6B_xmlunicode@c
	call	@__CheckForDebuggerJustMyCode@4

; 1939 :     return(((code >= 0x1900) && (code <= 0x194F)));

	cmp	DWORD PTR _code$[ebp], 6400		; 00001900H
	jl	SHORT $LN3@xmlUCSIsLi
	cmp	DWORD PTR _code$[ebp], 6479		; 0000194fH
	jg	SHORT $LN3@xmlUCSIsLi
	mov	DWORD PTR tv66[ebp], 1
	jmp	SHORT $LN4@xmlUCSIsLi
$LN3@xmlUCSIsLi:
	mov	DWORD PTR tv66[ebp], 0
$LN4@xmlUCSIsLi:
	mov	eax, DWORD PTR tv66[ebp]

; 1940 : }

	add	esp, 4
	cmp	ebp, esp
	call	__RTC_CheckEsp
	mov	esp, ebp
	pop	ebp
	ret	0
_xmlUCSIsLimbu ENDP
_TEXT	ENDS
; Function compile flags: /Odtp /RTCsu
; File c:\users\dag\documents\_clients\codeproject authors group\windows on arm\libxml2\libxml2-2.9.9\xmlunicode.c
;	COMDAT _xmlUCSIsLetterlikeSymbols
_TEXT	SEGMENT
tv66 = -4						; size = 4
_code$ = 8						; size = 4
_xmlUCSIsLetterlikeSymbols PROC				; COMDAT

; 1925 : xmlUCSIsLetterlikeSymbols(int code) {

	push	ebp
	mov	ebp, esp
	push	ecx
	mov	DWORD PTR [ebp-4], -858993460		; ccccccccH
	mov	ecx, OFFSET __B18DBD6B_xmlunicode@c
	call	@__CheckForDebuggerJustMyCode@4

; 1926 :     return(((code >= 0x2100) && (code <= 0x214F)));

	cmp	DWORD PTR _code$[ebp], 8448		; 00002100H
	jl	SHORT $LN3@xmlUCSIsLe
	cmp	DWORD PTR _code$[ebp], 8527		; 0000214fH
	jg	SHORT $LN3@xmlUCSIsLe
	mov	DWORD PTR tv66[ebp], 1
	jmp	SHORT $LN4@xmlUCSIsLe
$LN3@xmlUCSIsLe:
	mov	DWORD PTR tv66[ebp], 0
$LN4@xmlUCSIsLe:
	mov	eax, DWORD PTR tv66[ebp]

; 1927 : }

	add	esp, 4
	cmp	ebp, esp
	call	__RTC_CheckEsp
	mov	esp, ebp
	pop	ebp
	ret	0
_xmlUCSIsLetterlikeSymbols ENDP
_TEXT	ENDS
; Function compile flags: /Odtp /RTCsu
; File c:\users\dag\documents\_clients\codeproject authors group\windows on arm\libxml2\libxml2-2.9.9\xmlunicode.c
;	COMDAT _xmlUCSIsLatinExtendedAdditional
_TEXT	SEGMENT
tv66 = -4						; size = 4
_code$ = 8						; size = 4
_xmlUCSIsLatinExtendedAdditional PROC			; COMDAT

; 1912 : xmlUCSIsLatinExtendedAdditional(int code) {

	push	ebp
	mov	ebp, esp
	push	ecx
	mov	DWORD PTR [ebp-4], -858993460		; ccccccccH
	mov	ecx, OFFSET __B18DBD6B_xmlunicode@c
	call	@__CheckForDebuggerJustMyCode@4

; 1913 :     return(((code >= 0x1E00) && (code <= 0x1EFF)));

	cmp	DWORD PTR _code$[ebp], 7680		; 00001e00H
	jl	SHORT $LN3@xmlUCSIsLa
	cmp	DWORD PTR _code$[ebp], 7935		; 00001effH
	jg	SHORT $LN3@xmlUCSIsLa
	mov	DWORD PTR tv66[ebp], 1
	jmp	SHORT $LN4@xmlUCSIsLa
$LN3@xmlUCSIsLa:
	mov	DWORD PTR tv66[ebp], 0
$LN4@xmlUCSIsLa:
	mov	eax, DWORD PTR tv66[ebp]

; 1914 : }

	add	esp, 4
	cmp	ebp, esp
	call	__RTC_CheckEsp
	mov	esp, ebp
	pop	ebp
	ret	0
_xmlUCSIsLatinExtendedAdditional ENDP
_TEXT	ENDS
; Function compile flags: /Odtp /RTCsu
; File c:\users\dag\documents\_clients\codeproject authors group\windows on arm\libxml2\libxml2-2.9.9\xmlunicode.c
;	COMDAT _xmlUCSIsLatinExtendedB
_TEXT	SEGMENT
tv66 = -4						; size = 4
_code$ = 8						; size = 4
_xmlUCSIsLatinExtendedB PROC				; COMDAT

; 1899 : xmlUCSIsLatinExtendedB(int code) {

	push	ebp
	mov	ebp, esp
	push	ecx
	mov	DWORD PTR [ebp-4], -858993460		; ccccccccH
	mov	ecx, OFFSET __B18DBD6B_xmlunicode@c
	call	@__CheckForDebuggerJustMyCode@4

; 1900 :     return(((code >= 0x0180) && (code <= 0x024F)));

	cmp	DWORD PTR _code$[ebp], 384		; 00000180H
	jl	SHORT $LN3@xmlUCSIsLa
	cmp	DWORD PTR _code$[ebp], 591		; 0000024fH
	jg	SHORT $LN3@xmlUCSIsLa
	mov	DWORD PTR tv66[ebp], 1
	jmp	SHORT $LN4@xmlUCSIsLa
$LN3@xmlUCSIsLa:
	mov	DWORD PTR tv66[ebp], 0
$LN4@xmlUCSIsLa:
	mov	eax, DWORD PTR tv66[ebp]

; 1901 : }

	add	esp, 4
	cmp	ebp, esp
	call	__RTC_CheckEsp
	mov	esp, ebp
	pop	ebp
	ret	0
_xmlUCSIsLatinExtendedB ENDP
_TEXT	ENDS
; Function compile flags: /Odtp /RTCsu
; File c:\users\dag\documents\_clients\codeproject authors group\windows on arm\libxml2\libxml2-2.9.9\xmlunicode.c
;	COMDAT _xmlUCSIsLatinExtendedA
_TEXT	SEGMENT
tv66 = -4						; size = 4
_code$ = 8						; size = 4
_xmlUCSIsLatinExtendedA PROC				; COMDAT

; 1886 : xmlUCSIsLatinExtendedA(int code) {

	push	ebp
	mov	ebp, esp
	push	ecx
	mov	DWORD PTR [ebp-4], -858993460		; ccccccccH
	mov	ecx, OFFSET __B18DBD6B_xmlunicode@c
	call	@__CheckForDebuggerJustMyCode@4

; 1887 :     return(((code >= 0x0100) && (code <= 0x017F)));

	cmp	DWORD PTR _code$[ebp], 256		; 00000100H
	jl	SHORT $LN3@xmlUCSIsLa
	cmp	DWORD PTR _code$[ebp], 383		; 0000017fH
	jg	SHORT $LN3@xmlUCSIsLa
	mov	DWORD PTR tv66[ebp], 1
	jmp	SHORT $LN4@xmlUCSIsLa
$LN3@xmlUCSIsLa:
	mov	DWORD PTR tv66[ebp], 0
$LN4@xmlUCSIsLa:
	mov	eax, DWORD PTR tv66[ebp]

; 1888 : }

	add	esp, 4
	cmp	ebp, esp
	call	__RTC_CheckEsp
	mov	esp, ebp
	pop	ebp
	ret	0
_xmlUCSIsLatinExtendedA ENDP
_TEXT	ENDS
; Function compile flags: /Odtp /RTCsu
; File c:\users\dag\documents\_clients\codeproject authors group\windows on arm\libxml2\libxml2-2.9.9\xmlunicode.c
;	COMDAT _xmlUCSIsLatin1Supplement
_TEXT	SEGMENT
tv66 = -4						; size = 4
_code$ = 8						; size = 4
_xmlUCSIsLatin1Supplement PROC				; COMDAT

; 1873 : xmlUCSIsLatin1Supplement(int code) {

	push	ebp
	mov	ebp, esp
	push	ecx
	mov	DWORD PTR [ebp-4], -858993460		; ccccccccH
	mov	ecx, OFFSET __B18DBD6B_xmlunicode@c
	call	@__CheckForDebuggerJustMyCode@4

; 1874 :     return(((code >= 0x0080) && (code <= 0x00FF)));

	cmp	DWORD PTR _code$[ebp], 128		; 00000080H
	jl	SHORT $LN3@xmlUCSIsLa
	cmp	DWORD PTR _code$[ebp], 255		; 000000ffH
	jg	SHORT $LN3@xmlUCSIsLa
	mov	DWORD PTR tv66[ebp], 1
	jmp	SHORT $LN4@xmlUCSIsLa
$LN3@xmlUCSIsLa:
	mov	DWORD PTR tv66[ebp], 0
$LN4@xmlUCSIsLa:
	mov	eax, DWORD PTR tv66[ebp]

; 1875 : }

	add	esp, 4
	cmp	ebp, esp
	call	__RTC_CheckEsp
	mov	esp, ebp
	pop	ebp
	ret	0
_xmlUCSIsLatin1Supplement ENDP
_TEXT	ENDS
; Function compile flags: /Odtp /RTCsu
; File c:\users\dag\documents\_clients\codeproject authors group\windows on arm\libxml2\libxml2-2.9.9\xmlunicode.c
;	COMDAT _xmlUCSIsLao
_TEXT	SEGMENT
tv66 = -4						; size = 4
_code$ = 8						; size = 4
_xmlUCSIsLao PROC					; COMDAT

; 1860 : xmlUCSIsLao(int code) {

	push	ebp
	mov	ebp, esp
	push	ecx
	mov	DWORD PTR [ebp-4], -858993460		; ccccccccH
	mov	ecx, OFFSET __B18DBD6B_xmlunicode@c
	call	@__CheckForDebuggerJustMyCode@4

; 1861 :     return(((code >= 0x0E80) && (code <= 0x0EFF)));

	cmp	DWORD PTR _code$[ebp], 3712		; 00000e80H
	jl	SHORT $LN3@xmlUCSIsLa
	cmp	DWORD PTR _code$[ebp], 3839		; 00000effH
	jg	SHORT $LN3@xmlUCSIsLa
	mov	DWORD PTR tv66[ebp], 1
	jmp	SHORT $LN4@xmlUCSIsLa
$LN3@xmlUCSIsLa:
	mov	DWORD PTR tv66[ebp], 0
$LN4@xmlUCSIsLa:
	mov	eax, DWORD PTR tv66[ebp]

; 1862 : }

	add	esp, 4
	cmp	ebp, esp
	call	__RTC_CheckEsp
	mov	esp, ebp
	pop	ebp
	ret	0
_xmlUCSIsLao ENDP
_TEXT	ENDS
; Function compile flags: /Odtp /RTCsu
; File c:\users\dag\documents\_clients\codeproject authors group\windows on arm\libxml2\libxml2-2.9.9\xmlunicode.c
;	COMDAT _xmlUCSIsKhmerSymbols
_TEXT	SEGMENT
tv66 = -4						; size = 4
_code$ = 8						; size = 4
_xmlUCSIsKhmerSymbols PROC				; COMDAT

; 1847 : xmlUCSIsKhmerSymbols(int code) {

	push	ebp
	mov	ebp, esp
	push	ecx
	mov	DWORD PTR [ebp-4], -858993460		; ccccccccH
	mov	ecx, OFFSET __B18DBD6B_xmlunicode@c
	call	@__CheckForDebuggerJustMyCode@4

; 1848 :     return(((code >= 0x19E0) && (code <= 0x19FF)));

	cmp	DWORD PTR _code$[ebp], 6624		; 000019e0H
	jl	SHORT $LN3@xmlUCSIsKh
	cmp	DWORD PTR _code$[ebp], 6655		; 000019ffH
	jg	SHORT $LN3@xmlUCSIsKh
	mov	DWORD PTR tv66[ebp], 1
	jmp	SHORT $LN4@xmlUCSIsKh
$LN3@xmlUCSIsKh:
	mov	DWORD PTR tv66[ebp], 0
$LN4@xmlUCSIsKh:
	mov	eax, DWORD PTR tv66[ebp]

; 1849 : }

	add	esp, 4
	cmp	ebp, esp
	call	__RTC_CheckEsp
	mov	esp, ebp
	pop	ebp
	ret	0
_xmlUCSIsKhmerSymbols ENDP
_TEXT	ENDS
; Function compile flags: /Odtp /RTCsu
; File c:\users\dag\documents\_clients\codeproject authors group\windows on arm\libxml2\libxml2-2.9.9\xmlunicode.c
;	COMDAT _xmlUCSIsKhmer
_TEXT	SEGMENT
tv66 = -4						; size = 4
_code$ = 8						; size = 4
_xmlUCSIsKhmer PROC					; COMDAT

; 1834 : xmlUCSIsKhmer(int code) {

	push	ebp
	mov	ebp, esp
	push	ecx
	mov	DWORD PTR [ebp-4], -858993460		; ccccccccH
	mov	ecx, OFFSET __B18DBD6B_xmlunicode@c
	call	@__CheckForDebuggerJustMyCode@4

; 1835 :     return(((code >= 0x1780) && (code <= 0x17FF)));

	cmp	DWORD PTR _code$[ebp], 6016		; 00001780H
	jl	SHORT $LN3@xmlUCSIsKh
	cmp	DWORD PTR _code$[ebp], 6143		; 000017ffH
	jg	SHORT $LN3@xmlUCSIsKh
	mov	DWORD PTR tv66[ebp], 1
	jmp	SHORT $LN4@xmlUCSIsKh
$LN3@xmlUCSIsKh:
	mov	DWORD PTR tv66[ebp], 0
$LN4@xmlUCSIsKh:
	mov	eax, DWORD PTR tv66[ebp]

; 1836 : }

	add	esp, 4
	cmp	ebp, esp
	call	__RTC_CheckEsp
	mov	esp, ebp
	pop	ebp
	ret	0
_xmlUCSIsKhmer ENDP
_TEXT	ENDS
; Function compile flags: /Odtp /RTCsu
; File c:\users\dag\documents\_clients\codeproject authors group\windows on arm\libxml2\libxml2-2.9.9\xmlunicode.c
;	COMDAT _xmlUCSIsKatakanaPhoneticExtensions
_TEXT	SEGMENT
tv66 = -4						; size = 4
_code$ = 8						; size = 4
_xmlUCSIsKatakanaPhoneticExtensions PROC		; COMDAT

; 1821 : xmlUCSIsKatakanaPhoneticExtensions(int code) {

	push	ebp
	mov	ebp, esp
	push	ecx
	mov	DWORD PTR [ebp-4], -858993460		; ccccccccH
	mov	ecx, OFFSET __B18DBD6B_xmlunicode@c
	call	@__CheckForDebuggerJustMyCode@4

; 1822 :     return(((code >= 0x31F0) && (code <= 0x31FF)));

	cmp	DWORD PTR _code$[ebp], 12784		; 000031f0H
	jl	SHORT $LN3@xmlUCSIsKa
	cmp	DWORD PTR _code$[ebp], 12799		; 000031ffH
	jg	SHORT $LN3@xmlUCSIsKa
	mov	DWORD PTR tv66[ebp], 1
	jmp	SHORT $LN4@xmlUCSIsKa
$LN3@xmlUCSIsKa:
	mov	DWORD PTR tv66[ebp], 0
$LN4@xmlUCSIsKa:
	mov	eax, DWORD PTR tv66[ebp]

; 1823 : }

	add	esp, 4
	cmp	ebp, esp
	call	__RTC_CheckEsp
	mov	esp, ebp
	pop	ebp
	ret	0
_xmlUCSIsKatakanaPhoneticExtensions ENDP
_TEXT	ENDS
; Function compile flags: /Odtp /RTCsu
; File c:\users\dag\documents\_clients\codeproject authors group\windows on arm\libxml2\libxml2-2.9.9\xmlunicode.c
;	COMDAT _xmlUCSIsKatakana
_TEXT	SEGMENT
tv66 = -4						; size = 4
_code$ = 8						; size = 4
_xmlUCSIsKatakana PROC					; COMDAT

; 1808 : xmlUCSIsKatakana(int code) {

	push	ebp
	mov	ebp, esp
	push	ecx
	mov	DWORD PTR [ebp-4], -858993460		; ccccccccH
	mov	ecx, OFFSET __B18DBD6B_xmlunicode@c
	call	@__CheckForDebuggerJustMyCode@4

; 1809 :     return(((code >= 0x30A0) && (code <= 0x30FF)));

	cmp	DWORD PTR _code$[ebp], 12448		; 000030a0H
	jl	SHORT $LN3@xmlUCSIsKa
	cmp	DWORD PTR _code$[ebp], 12543		; 000030ffH
	jg	SHORT $LN3@xmlUCSIsKa
	mov	DWORD PTR tv66[ebp], 1
	jmp	SHORT $LN4@xmlUCSIsKa
$LN3@xmlUCSIsKa:
	mov	DWORD PTR tv66[ebp], 0
$LN4@xmlUCSIsKa:
	mov	eax, DWORD PTR tv66[ebp]

; 1810 : }

	add	esp, 4
	cmp	ebp, esp
	call	__RTC_CheckEsp
	mov	esp, ebp
	pop	ebp
	ret	0
_xmlUCSIsKatakana ENDP
_TEXT	ENDS
; Function compile flags: /Odtp /RTCsu
; File c:\users\dag\documents\_clients\codeproject authors group\windows on arm\libxml2\libxml2-2.9.9\xmlunicode.c
;	COMDAT _xmlUCSIsKannada
_TEXT	SEGMENT
tv66 = -4						; size = 4
_code$ = 8						; size = 4
_xmlUCSIsKannada PROC					; COMDAT

; 1795 : xmlUCSIsKannada(int code) {

	push	ebp
	mov	ebp, esp
	push	ecx
	mov	DWORD PTR [ebp-4], -858993460		; ccccccccH
	mov	ecx, OFFSET __B18DBD6B_xmlunicode@c
	call	@__CheckForDebuggerJustMyCode@4

; 1796 :     return(((code >= 0x0C80) && (code <= 0x0CFF)));

	cmp	DWORD PTR _code$[ebp], 3200		; 00000c80H
	jl	SHORT $LN3@xmlUCSIsKa
	cmp	DWORD PTR _code$[ebp], 3327		; 00000cffH
	jg	SHORT $LN3@xmlUCSIsKa
	mov	DWORD PTR tv66[ebp], 1
	jmp	SHORT $LN4@xmlUCSIsKa
$LN3@xmlUCSIsKa:
	mov	DWORD PTR tv66[ebp], 0
$LN4@xmlUCSIsKa:
	mov	eax, DWORD PTR tv66[ebp]

; 1797 : }

	add	esp, 4
	cmp	ebp, esp
	call	__RTC_CheckEsp
	mov	esp, ebp
	pop	ebp
	ret	0
_xmlUCSIsKannada ENDP
_TEXT	ENDS
; Function compile flags: /Odtp /RTCsu
; File c:\users\dag\documents\_clients\codeproject authors group\windows on arm\libxml2\libxml2-2.9.9\xmlunicode.c
;	COMDAT _xmlUCSIsKangxiRadicals
_TEXT	SEGMENT
tv66 = -4						; size = 4
_code$ = 8						; size = 4
_xmlUCSIsKangxiRadicals PROC				; COMDAT

; 1782 : xmlUCSIsKangxiRadicals(int code) {

	push	ebp
	mov	ebp, esp
	push	ecx
	mov	DWORD PTR [ebp-4], -858993460		; ccccccccH
	mov	ecx, OFFSET __B18DBD6B_xmlunicode@c
	call	@__CheckForDebuggerJustMyCode@4

; 1783 :     return(((code >= 0x2F00) && (code <= 0x2FDF)));

	cmp	DWORD PTR _code$[ebp], 12032		; 00002f00H
	jl	SHORT $LN3@xmlUCSIsKa
	cmp	DWORD PTR _code$[ebp], 12255		; 00002fdfH
	jg	SHORT $LN3@xmlUCSIsKa
	mov	DWORD PTR tv66[ebp], 1
	jmp	SHORT $LN4@xmlUCSIsKa
$LN3@xmlUCSIsKa:
	mov	DWORD PTR tv66[ebp], 0
$LN4@xmlUCSIsKa:
	mov	eax, DWORD PTR tv66[ebp]

; 1784 : }

	add	esp, 4
	cmp	ebp, esp
	call	__RTC_CheckEsp
	mov	esp, ebp
	pop	ebp
	ret	0
_xmlUCSIsKangxiRadicals ENDP
_TEXT	ENDS
; Function compile flags: /Odtp /RTCsu
; File c:\users\dag\documents\_clients\codeproject authors group\windows on arm\libxml2\libxml2-2.9.9\xmlunicode.c
;	COMDAT _xmlUCSIsKanbun
_TEXT	SEGMENT
tv66 = -4						; size = 4
_code$ = 8						; size = 4
_xmlUCSIsKanbun PROC					; COMDAT

; 1769 : xmlUCSIsKanbun(int code) {

	push	ebp
	mov	ebp, esp
	push	ecx
	mov	DWORD PTR [ebp-4], -858993460		; ccccccccH
	mov	ecx, OFFSET __B18DBD6B_xmlunicode@c
	call	@__CheckForDebuggerJustMyCode@4

; 1770 :     return(((code >= 0x3190) && (code <= 0x319F)));

	cmp	DWORD PTR _code$[ebp], 12688		; 00003190H
	jl	SHORT $LN3@xmlUCSIsKa
	cmp	DWORD PTR _code$[ebp], 12703		; 0000319fH
	jg	SHORT $LN3@xmlUCSIsKa
	mov	DWORD PTR tv66[ebp], 1
	jmp	SHORT $LN4@xmlUCSIsKa
$LN3@xmlUCSIsKa:
	mov	DWORD PTR tv66[ebp], 0
$LN4@xmlUCSIsKa:
	mov	eax, DWORD PTR tv66[ebp]

; 1771 : }

	add	esp, 4
	cmp	ebp, esp
	call	__RTC_CheckEsp
	mov	esp, ebp
	pop	ebp
	ret	0
_xmlUCSIsKanbun ENDP
_TEXT	ENDS
; Function compile flags: /Odtp /RTCsu
; File c:\users\dag\documents\_clients\codeproject authors group\windows on arm\libxml2\libxml2-2.9.9\xmlunicode.c
;	COMDAT _xmlUCSIsIdeographicDescriptionCharacters
_TEXT	SEGMENT
tv66 = -4						; size = 4
_code$ = 8						; size = 4
_xmlUCSIsIdeographicDescriptionCharacters PROC		; COMDAT

; 1756 : xmlUCSIsIdeographicDescriptionCharacters(int code) {

	push	ebp
	mov	ebp, esp
	push	ecx
	mov	DWORD PTR [ebp-4], -858993460		; ccccccccH
	mov	ecx, OFFSET __B18DBD6B_xmlunicode@c
	call	@__CheckForDebuggerJustMyCode@4

; 1757 :     return(((code >= 0x2FF0) && (code <= 0x2FFF)));

	cmp	DWORD PTR _code$[ebp], 12272		; 00002ff0H
	jl	SHORT $LN3@xmlUCSIsId
	cmp	DWORD PTR _code$[ebp], 12287		; 00002fffH
	jg	SHORT $LN3@xmlUCSIsId
	mov	DWORD PTR tv66[ebp], 1
	jmp	SHORT $LN4@xmlUCSIsId
$LN3@xmlUCSIsId:
	mov	DWORD PTR tv66[ebp], 0
$LN4@xmlUCSIsId:
	mov	eax, DWORD PTR tv66[ebp]

; 1758 : }

	add	esp, 4
	cmp	ebp, esp
	call	__RTC_CheckEsp
	mov	esp, ebp
	pop	ebp
	ret	0
_xmlUCSIsIdeographicDescriptionCharacters ENDP
_TEXT	ENDS
; Function compile flags: /Odtp /RTCsu
; File c:\users\dag\documents\_clients\codeproject authors group\windows on arm\libxml2\libxml2-2.9.9\xmlunicode.c
;	COMDAT _xmlUCSIsIPAExtensions
_TEXT	SEGMENT
tv66 = -4						; size = 4
_code$ = 8						; size = 4
_xmlUCSIsIPAExtensions PROC				; COMDAT

; 1743 : xmlUCSIsIPAExtensions(int code) {

	push	ebp
	mov	ebp, esp
	push	ecx
	mov	DWORD PTR [ebp-4], -858993460		; ccccccccH
	mov	ecx, OFFSET __B18DBD6B_xmlunicode@c
	call	@__CheckForDebuggerJustMyCode@4

; 1744 :     return(((code >= 0x0250) && (code <= 0x02AF)));

	cmp	DWORD PTR _code$[ebp], 592		; 00000250H
	jl	SHORT $LN3@xmlUCSIsIP
	cmp	DWORD PTR _code$[ebp], 687		; 000002afH
	jg	SHORT $LN3@xmlUCSIsIP
	mov	DWORD PTR tv66[ebp], 1
	jmp	SHORT $LN4@xmlUCSIsIP
$LN3@xmlUCSIsIP:
	mov	DWORD PTR tv66[ebp], 0
$LN4@xmlUCSIsIP:
	mov	eax, DWORD PTR tv66[ebp]

; 1745 : }

	add	esp, 4
	cmp	ebp, esp
	call	__RTC_CheckEsp
	mov	esp, ebp
	pop	ebp
	ret	0
_xmlUCSIsIPAExtensions ENDP
_TEXT	ENDS
; Function compile flags: /Odtp /RTCsu
; File c:\users\dag\documents\_clients\codeproject authors group\windows on arm\libxml2\libxml2-2.9.9\xmlunicode.c
;	COMDAT _xmlUCSIsHiragana
_TEXT	SEGMENT
tv66 = -4						; size = 4
_code$ = 8						; size = 4
_xmlUCSIsHiragana PROC					; COMDAT

; 1730 : xmlUCSIsHiragana(int code) {

	push	ebp
	mov	ebp, esp
	push	ecx
	mov	DWORD PTR [ebp-4], -858993460		; ccccccccH
	mov	ecx, OFFSET __B18DBD6B_xmlunicode@c
	call	@__CheckForDebuggerJustMyCode@4

; 1731 :     return(((code >= 0x3040) && (code <= 0x309F)));

	cmp	DWORD PTR _code$[ebp], 12352		; 00003040H
	jl	SHORT $LN3@xmlUCSIsHi
	cmp	DWORD PTR _code$[ebp], 12447		; 0000309fH
	jg	SHORT $LN3@xmlUCSIsHi
	mov	DWORD PTR tv66[ebp], 1
	jmp	SHORT $LN4@xmlUCSIsHi
$LN3@xmlUCSIsHi:
	mov	DWORD PTR tv66[ebp], 0
$LN4@xmlUCSIsHi:
	mov	eax, DWORD PTR tv66[ebp]

; 1732 : }

	add	esp, 4
	cmp	ebp, esp
	call	__RTC_CheckEsp
	mov	esp, ebp
	pop	ebp
	ret	0
_xmlUCSIsHiragana ENDP
_TEXT	ENDS
; Function compile flags: /Odtp /RTCsu
; File c:\users\dag\documents\_clients\codeproject authors group\windows on arm\libxml2\libxml2-2.9.9\xmlunicode.c
;	COMDAT _xmlUCSIsHighSurrogates
_TEXT	SEGMENT
tv66 = -4						; size = 4
_code$ = 8						; size = 4
_xmlUCSIsHighSurrogates PROC				; COMDAT

; 1717 : xmlUCSIsHighSurrogates(int code) {

	push	ebp
	mov	ebp, esp
	push	ecx
	mov	DWORD PTR [ebp-4], -858993460		; ccccccccH
	mov	ecx, OFFSET __B18DBD6B_xmlunicode@c
	call	@__CheckForDebuggerJustMyCode@4

; 1718 :     return(((code >= 0xD800) && (code <= 0xDB7F)));

	cmp	DWORD PTR _code$[ebp], 55296		; 0000d800H
	jl	SHORT $LN3@xmlUCSIsHi
	cmp	DWORD PTR _code$[ebp], 56191		; 0000db7fH
	jg	SHORT $LN3@xmlUCSIsHi
	mov	DWORD PTR tv66[ebp], 1
	jmp	SHORT $LN4@xmlUCSIsHi
$LN3@xmlUCSIsHi:
	mov	DWORD PTR tv66[ebp], 0
$LN4@xmlUCSIsHi:
	mov	eax, DWORD PTR tv66[ebp]

; 1719 : }

	add	esp, 4
	cmp	ebp, esp
	call	__RTC_CheckEsp
	mov	esp, ebp
	pop	ebp
	ret	0
_xmlUCSIsHighSurrogates ENDP
_TEXT	ENDS
; Function compile flags: /Odtp /RTCsu
; File c:\users\dag\documents\_clients\codeproject authors group\windows on arm\libxml2\libxml2-2.9.9\xmlunicode.c
;	COMDAT _xmlUCSIsHighPrivateUseSurrogates
_TEXT	SEGMENT
tv66 = -4						; size = 4
_code$ = 8						; size = 4
_xmlUCSIsHighPrivateUseSurrogates PROC			; COMDAT

; 1704 : xmlUCSIsHighPrivateUseSurrogates(int code) {

	push	ebp
	mov	ebp, esp
	push	ecx
	mov	DWORD PTR [ebp-4], -858993460		; ccccccccH
	mov	ecx, OFFSET __B18DBD6B_xmlunicode@c
	call	@__CheckForDebuggerJustMyCode@4

; 1705 :     return(((code >= 0xDB80) && (code <= 0xDBFF)));

	cmp	DWORD PTR _code$[ebp], 56192		; 0000db80H
	jl	SHORT $LN3@xmlUCSIsHi
	cmp	DWORD PTR _code$[ebp], 56319		; 0000dbffH
	jg	SHORT $LN3@xmlUCSIsHi
	mov	DWORD PTR tv66[ebp], 1
	jmp	SHORT $LN4@xmlUCSIsHi
$LN3@xmlUCSIsHi:
	mov	DWORD PTR tv66[ebp], 0
$LN4@xmlUCSIsHi:
	mov	eax, DWORD PTR tv66[ebp]

; 1706 : }

	add	esp, 4
	cmp	ebp, esp
	call	__RTC_CheckEsp
	mov	esp, ebp
	pop	ebp
	ret	0
_xmlUCSIsHighPrivateUseSurrogates ENDP
_TEXT	ENDS
; Function compile flags: /Odtp /RTCsu
; File c:\users\dag\documents\_clients\codeproject authors group\windows on arm\libxml2\libxml2-2.9.9\xmlunicode.c
;	COMDAT _xmlUCSIsHebrew
_TEXT	SEGMENT
tv66 = -4						; size = 4
_code$ = 8						; size = 4
_xmlUCSIsHebrew PROC					; COMDAT

; 1691 : xmlUCSIsHebrew(int code) {

	push	ebp
	mov	ebp, esp
	push	ecx
	mov	DWORD PTR [ebp-4], -858993460		; ccccccccH
	mov	ecx, OFFSET __B18DBD6B_xmlunicode@c
	call	@__CheckForDebuggerJustMyCode@4

; 1692 :     return(((code >= 0x0590) && (code <= 0x05FF)));

	cmp	DWORD PTR _code$[ebp], 1424		; 00000590H
	jl	SHORT $LN3@xmlUCSIsHe
	cmp	DWORD PTR _code$[ebp], 1535		; 000005ffH
	jg	SHORT $LN3@xmlUCSIsHe
	mov	DWORD PTR tv66[ebp], 1
	jmp	SHORT $LN4@xmlUCSIsHe
$LN3@xmlUCSIsHe:
	mov	DWORD PTR tv66[ebp], 0
$LN4@xmlUCSIsHe:
	mov	eax, DWORD PTR tv66[ebp]

; 1693 : }

	add	esp, 4
	cmp	ebp, esp
	call	__RTC_CheckEsp
	mov	esp, ebp
	pop	ebp
	ret	0
_xmlUCSIsHebrew ENDP
_TEXT	ENDS
; Function compile flags: /Odtp /RTCsu
; File c:\users\dag\documents\_clients\codeproject authors group\windows on arm\libxml2\libxml2-2.9.9\xmlunicode.c
;	COMDAT _xmlUCSIsHanunoo
_TEXT	SEGMENT
tv66 = -4						; size = 4
_code$ = 8						; size = 4
_xmlUCSIsHanunoo PROC					; COMDAT

; 1678 : xmlUCSIsHanunoo(int code) {

	push	ebp
	mov	ebp, esp
	push	ecx
	mov	DWORD PTR [ebp-4], -858993460		; ccccccccH
	mov	ecx, OFFSET __B18DBD6B_xmlunicode@c
	call	@__CheckForDebuggerJustMyCode@4

; 1679 :     return(((code >= 0x1720) && (code <= 0x173F)));

	cmp	DWORD PTR _code$[ebp], 5920		; 00001720H
	jl	SHORT $LN3@xmlUCSIsHa
	cmp	DWORD PTR _code$[ebp], 5951		; 0000173fH
	jg	SHORT $LN3@xmlUCSIsHa
	mov	DWORD PTR tv66[ebp], 1
	jmp	SHORT $LN4@xmlUCSIsHa
$LN3@xmlUCSIsHa:
	mov	DWORD PTR tv66[ebp], 0
$LN4@xmlUCSIsHa:
	mov	eax, DWORD PTR tv66[ebp]

; 1680 : }

	add	esp, 4
	cmp	ebp, esp
	call	__RTC_CheckEsp
	mov	esp, ebp
	pop	ebp
	ret	0
_xmlUCSIsHanunoo ENDP
_TEXT	ENDS
; Function compile flags: /Odtp /RTCsu
; File c:\users\dag\documents\_clients\codeproject authors group\windows on arm\libxml2\libxml2-2.9.9\xmlunicode.c
;	COMDAT _xmlUCSIsHangulSyllables
_TEXT	SEGMENT
tv66 = -4						; size = 4
_code$ = 8						; size = 4
_xmlUCSIsHangulSyllables PROC				; COMDAT

; 1665 : xmlUCSIsHangulSyllables(int code) {

	push	ebp
	mov	ebp, esp
	push	ecx
	mov	DWORD PTR [ebp-4], -858993460		; ccccccccH
	mov	ecx, OFFSET __B18DBD6B_xmlunicode@c
	call	@__CheckForDebuggerJustMyCode@4

; 1666 :     return(((code >= 0xAC00) && (code <= 0xD7AF)));

	cmp	DWORD PTR _code$[ebp], 44032		; 0000ac00H
	jl	SHORT $LN3@xmlUCSIsHa
	cmp	DWORD PTR _code$[ebp], 55215		; 0000d7afH
	jg	SHORT $LN3@xmlUCSIsHa
	mov	DWORD PTR tv66[ebp], 1
	jmp	SHORT $LN4@xmlUCSIsHa
$LN3@xmlUCSIsHa:
	mov	DWORD PTR tv66[ebp], 0
$LN4@xmlUCSIsHa:
	mov	eax, DWORD PTR tv66[ebp]

; 1667 : }

	add	esp, 4
	cmp	ebp, esp
	call	__RTC_CheckEsp
	mov	esp, ebp
	pop	ebp
	ret	0
_xmlUCSIsHangulSyllables ENDP
_TEXT	ENDS
; Function compile flags: /Odtp /RTCsu
; File c:\users\dag\documents\_clients\codeproject authors group\windows on arm\libxml2\libxml2-2.9.9\xmlunicode.c
;	COMDAT _xmlUCSIsHangulJamo
_TEXT	SEGMENT
tv66 = -4						; size = 4
_code$ = 8						; size = 4
_xmlUCSIsHangulJamo PROC				; COMDAT

; 1652 : xmlUCSIsHangulJamo(int code) {

	push	ebp
	mov	ebp, esp
	push	ecx
	mov	DWORD PTR [ebp-4], -858993460		; ccccccccH
	mov	ecx, OFFSET __B18DBD6B_xmlunicode@c
	call	@__CheckForDebuggerJustMyCode@4

; 1653 :     return(((code >= 0x1100) && (code <= 0x11FF)));

	cmp	DWORD PTR _code$[ebp], 4352		; 00001100H
	jl	SHORT $LN3@xmlUCSIsHa
	cmp	DWORD PTR _code$[ebp], 4607		; 000011ffH
	jg	SHORT $LN3@xmlUCSIsHa
	mov	DWORD PTR tv66[ebp], 1
	jmp	SHORT $LN4@xmlUCSIsHa
$LN3@xmlUCSIsHa:
	mov	DWORD PTR tv66[ebp], 0
$LN4@xmlUCSIsHa:
	mov	eax, DWORD PTR tv66[ebp]

; 1654 : }

	add	esp, 4
	cmp	ebp, esp
	call	__RTC_CheckEsp
	mov	esp, ebp
	pop	ebp
	ret	0
_xmlUCSIsHangulJamo ENDP
_TEXT	ENDS
; Function compile flags: /Odtp /RTCsu
; File c:\users\dag\documents\_clients\codeproject authors group\windows on arm\libxml2\libxml2-2.9.9\xmlunicode.c
;	COMDAT _xmlUCSIsHangulCompatibilityJamo
_TEXT	SEGMENT
tv66 = -4						; size = 4
_code$ = 8						; size = 4
_xmlUCSIsHangulCompatibilityJamo PROC			; COMDAT

; 1639 : xmlUCSIsHangulCompatibilityJamo(int code) {

	push	ebp
	mov	ebp, esp
	push	ecx
	mov	DWORD PTR [ebp-4], -858993460		; ccccccccH
	mov	ecx, OFFSET __B18DBD6B_xmlunicode@c
	call	@__CheckForDebuggerJustMyCode@4

; 1640 :     return(((code >= 0x3130) && (code <= 0x318F)));

	cmp	DWORD PTR _code$[ebp], 12592		; 00003130H
	jl	SHORT $LN3@xmlUCSIsHa
	cmp	DWORD PTR _code$[ebp], 12687		; 0000318fH
	jg	SHORT $LN3@xmlUCSIsHa
	mov	DWORD PTR tv66[ebp], 1
	jmp	SHORT $LN4@xmlUCSIsHa
$LN3@xmlUCSIsHa:
	mov	DWORD PTR tv66[ebp], 0
$LN4@xmlUCSIsHa:
	mov	eax, DWORD PTR tv66[ebp]

; 1641 : }

	add	esp, 4
	cmp	ebp, esp
	call	__RTC_CheckEsp
	mov	esp, ebp
	pop	ebp
	ret	0
_xmlUCSIsHangulCompatibilityJamo ENDP
_TEXT	ENDS
; Function compile flags: /Odtp /RTCsu
; File c:\users\dag\documents\_clients\codeproject authors group\windows on arm\libxml2\libxml2-2.9.9\xmlunicode.c
;	COMDAT _xmlUCSIsHalfwidthandFullwidthForms
_TEXT	SEGMENT
tv66 = -4						; size = 4
_code$ = 8						; size = 4
_xmlUCSIsHalfwidthandFullwidthForms PROC		; COMDAT

; 1626 : xmlUCSIsHalfwidthandFullwidthForms(int code) {

	push	ebp
	mov	ebp, esp
	push	ecx
	mov	DWORD PTR [ebp-4], -858993460		; ccccccccH
	mov	ecx, OFFSET __B18DBD6B_xmlunicode@c
	call	@__CheckForDebuggerJustMyCode@4

; 1627 :     return(((code >= 0xFF00) && (code <= 0xFFEF)));

	cmp	DWORD PTR _code$[ebp], 65280		; 0000ff00H
	jl	SHORT $LN3@xmlUCSIsHa
	cmp	DWORD PTR _code$[ebp], 65519		; 0000ffefH
	jg	SHORT $LN3@xmlUCSIsHa
	mov	DWORD PTR tv66[ebp], 1
	jmp	SHORT $LN4@xmlUCSIsHa
$LN3@xmlUCSIsHa:
	mov	DWORD PTR tv66[ebp], 0
$LN4@xmlUCSIsHa:
	mov	eax, DWORD PTR tv66[ebp]

; 1628 : }

	add	esp, 4
	cmp	ebp, esp
	call	__RTC_CheckEsp
	mov	esp, ebp
	pop	ebp
	ret	0
_xmlUCSIsHalfwidthandFullwidthForms ENDP
_TEXT	ENDS
; Function compile flags: /Odtp /RTCsu
; File c:\users\dag\documents\_clients\codeproject authors group\windows on arm\libxml2\libxml2-2.9.9\xmlunicode.c
;	COMDAT _xmlUCSIsGurmukhi
_TEXT	SEGMENT
tv66 = -4						; size = 4
_code$ = 8						; size = 4
_xmlUCSIsGurmukhi PROC					; COMDAT

; 1613 : xmlUCSIsGurmukhi(int code) {

	push	ebp
	mov	ebp, esp
	push	ecx
	mov	DWORD PTR [ebp-4], -858993460		; ccccccccH
	mov	ecx, OFFSET __B18DBD6B_xmlunicode@c
	call	@__CheckForDebuggerJustMyCode@4

; 1614 :     return(((code >= 0x0A00) && (code <= 0x0A7F)));

	cmp	DWORD PTR _code$[ebp], 2560		; 00000a00H
	jl	SHORT $LN3@xmlUCSIsGu
	cmp	DWORD PTR _code$[ebp], 2687		; 00000a7fH
	jg	SHORT $LN3@xmlUCSIsGu
	mov	DWORD PTR tv66[ebp], 1
	jmp	SHORT $LN4@xmlUCSIsGu
$LN3@xmlUCSIsGu:
	mov	DWORD PTR tv66[ebp], 0
$LN4@xmlUCSIsGu:
	mov	eax, DWORD PTR tv66[ebp]

; 1615 : }

	add	esp, 4
	cmp	ebp, esp
	call	__RTC_CheckEsp
	mov	esp, ebp
	pop	ebp
	ret	0
_xmlUCSIsGurmukhi ENDP
_TEXT	ENDS
; Function compile flags: /Odtp /RTCsu
; File c:\users\dag\documents\_clients\codeproject authors group\windows on arm\libxml2\libxml2-2.9.9\xmlunicode.c
;	COMDAT _xmlUCSIsGujarati
_TEXT	SEGMENT
tv66 = -4						; size = 4
_code$ = 8						; size = 4
_xmlUCSIsGujarati PROC					; COMDAT

; 1600 : xmlUCSIsGujarati(int code) {

	push	ebp
	mov	ebp, esp
	push	ecx
	mov	DWORD PTR [ebp-4], -858993460		; ccccccccH
	mov	ecx, OFFSET __B18DBD6B_xmlunicode@c
	call	@__CheckForDebuggerJustMyCode@4

; 1601 :     return(((code >= 0x0A80) && (code <= 0x0AFF)));

	cmp	DWORD PTR _code$[ebp], 2688		; 00000a80H
	jl	SHORT $LN3@xmlUCSIsGu
	cmp	DWORD PTR _code$[ebp], 2815		; 00000affH
	jg	SHORT $LN3@xmlUCSIsGu
	mov	DWORD PTR tv66[ebp], 1
	jmp	SHORT $LN4@xmlUCSIsGu
$LN3@xmlUCSIsGu:
	mov	DWORD PTR tv66[ebp], 0
$LN4@xmlUCSIsGu:
	mov	eax, DWORD PTR tv66[ebp]

; 1602 : }

	add	esp, 4
	cmp	ebp, esp
	call	__RTC_CheckEsp
	mov	esp, ebp
	pop	ebp
	ret	0
_xmlUCSIsGujarati ENDP
_TEXT	ENDS
; Function compile flags: /Odtp /RTCsu
; File c:\users\dag\documents\_clients\codeproject authors group\windows on arm\libxml2\libxml2-2.9.9\xmlunicode.c
;	COMDAT _xmlUCSIsGreekandCoptic
_TEXT	SEGMENT
tv66 = -4						; size = 4
_code$ = 8						; size = 4
_xmlUCSIsGreekandCoptic PROC				; COMDAT

; 1587 : xmlUCSIsGreekandCoptic(int code) {

	push	ebp
	mov	ebp, esp
	push	ecx
	mov	DWORD PTR [ebp-4], -858993460		; ccccccccH
	mov	ecx, OFFSET __B18DBD6B_xmlunicode@c
	call	@__CheckForDebuggerJustMyCode@4

; 1588 :     return(((code >= 0x0370) && (code <= 0x03FF)));

	cmp	DWORD PTR _code$[ebp], 880		; 00000370H
	jl	SHORT $LN3@xmlUCSIsGr
	cmp	DWORD PTR _code$[ebp], 1023		; 000003ffH
	jg	SHORT $LN3@xmlUCSIsGr
	mov	DWORD PTR tv66[ebp], 1
	jmp	SHORT $LN4@xmlUCSIsGr
$LN3@xmlUCSIsGr:
	mov	DWORD PTR tv66[ebp], 0
$LN4@xmlUCSIsGr:
	mov	eax, DWORD PTR tv66[ebp]

; 1589 : }

	add	esp, 4
	cmp	ebp, esp
	call	__RTC_CheckEsp
	mov	esp, ebp
	pop	ebp
	ret	0
_xmlUCSIsGreekandCoptic ENDP
_TEXT	ENDS
; Function compile flags: /Odtp /RTCsu
; File c:\users\dag\documents\_clients\codeproject authors group\windows on arm\libxml2\libxml2-2.9.9\xmlunicode.c
;	COMDAT _xmlUCSIsGreekExtended
_TEXT	SEGMENT
tv66 = -4						; size = 4
_code$ = 8						; size = 4
_xmlUCSIsGreekExtended PROC				; COMDAT

; 1574 : xmlUCSIsGreekExtended(int code) {

	push	ebp
	mov	ebp, esp
	push	ecx
	mov	DWORD PTR [ebp-4], -858993460		; ccccccccH
	mov	ecx, OFFSET __B18DBD6B_xmlunicode@c
	call	@__CheckForDebuggerJustMyCode@4

; 1575 :     return(((code >= 0x1F00) && (code <= 0x1FFF)));

	cmp	DWORD PTR _code$[ebp], 7936		; 00001f00H
	jl	SHORT $LN3@xmlUCSIsGr
	cmp	DWORD PTR _code$[ebp], 8191		; 00001fffH
	jg	SHORT $LN3@xmlUCSIsGr
	mov	DWORD PTR tv66[ebp], 1
	jmp	SHORT $LN4@xmlUCSIsGr
$LN3@xmlUCSIsGr:
	mov	DWORD PTR tv66[ebp], 0
$LN4@xmlUCSIsGr:
	mov	eax, DWORD PTR tv66[ebp]

; 1576 : }

	add	esp, 4
	cmp	ebp, esp
	call	__RTC_CheckEsp
	mov	esp, ebp
	pop	ebp
	ret	0
_xmlUCSIsGreekExtended ENDP
_TEXT	ENDS
; Function compile flags: /Odtp /RTCsu
; File c:\users\dag\documents\_clients\codeproject authors group\windows on arm\libxml2\libxml2-2.9.9\xmlunicode.c
;	COMDAT _xmlUCSIsGreek
_TEXT	SEGMENT
tv66 = -4						; size = 4
_code$ = 8						; size = 4
_xmlUCSIsGreek PROC					; COMDAT

; 1561 : xmlUCSIsGreek(int code) {

	push	ebp
	mov	ebp, esp
	push	ecx
	mov	DWORD PTR [ebp-4], -858993460		; ccccccccH
	mov	ecx, OFFSET __B18DBD6B_xmlunicode@c
	call	@__CheckForDebuggerJustMyCode@4

; 1562 :     return(((code >= 0x0370) && (code <= 0x03FF)));

	cmp	DWORD PTR _code$[ebp], 880		; 00000370H
	jl	SHORT $LN3@xmlUCSIsGr
	cmp	DWORD PTR _code$[ebp], 1023		; 000003ffH
	jg	SHORT $LN3@xmlUCSIsGr
	mov	DWORD PTR tv66[ebp], 1
	jmp	SHORT $LN4@xmlUCSIsGr
$LN3@xmlUCSIsGr:
	mov	DWORD PTR tv66[ebp], 0
$LN4@xmlUCSIsGr:
	mov	eax, DWORD PTR tv66[ebp]

; 1563 : }

	add	esp, 4
	cmp	ebp, esp
	call	__RTC_CheckEsp
	mov	esp, ebp
	pop	ebp
	ret	0
_xmlUCSIsGreek ENDP
_TEXT	ENDS
; Function compile flags: /Odtp /RTCsu
; File c:\users\dag\documents\_clients\codeproject authors group\windows on arm\libxml2\libxml2-2.9.9\xmlunicode.c
;	COMDAT _xmlUCSIsGothic
_TEXT	SEGMENT
tv66 = -4						; size = 4
_code$ = 8						; size = 4
_xmlUCSIsGothic PROC					; COMDAT

; 1548 : xmlUCSIsGothic(int code) {

	push	ebp
	mov	ebp, esp
	push	ecx
	mov	DWORD PTR [ebp-4], -858993460		; ccccccccH
	mov	ecx, OFFSET __B18DBD6B_xmlunicode@c
	call	@__CheckForDebuggerJustMyCode@4

; 1549 :     return(((code >= 0x10330) && (code <= 0x1034F)));

	cmp	DWORD PTR _code$[ebp], 66352		; 00010330H
	jl	SHORT $LN3@xmlUCSIsGo
	cmp	DWORD PTR _code$[ebp], 66383		; 0001034fH
	jg	SHORT $LN3@xmlUCSIsGo
	mov	DWORD PTR tv66[ebp], 1
	jmp	SHORT $LN4@xmlUCSIsGo
$LN3@xmlUCSIsGo:
	mov	DWORD PTR tv66[ebp], 0
$LN4@xmlUCSIsGo:
	mov	eax, DWORD PTR tv66[ebp]

; 1550 : }

	add	esp, 4
	cmp	ebp, esp
	call	__RTC_CheckEsp
	mov	esp, ebp
	pop	ebp
	ret	0
_xmlUCSIsGothic ENDP
_TEXT	ENDS
; Function compile flags: /Odtp /RTCsu
; File c:\users\dag\documents\_clients\codeproject authors group\windows on arm\libxml2\libxml2-2.9.9\xmlunicode.c
;	COMDAT _xmlUCSIsGeorgian
_TEXT	SEGMENT
tv66 = -4						; size = 4
_code$ = 8						; size = 4
_xmlUCSIsGeorgian PROC					; COMDAT

; 1535 : xmlUCSIsGeorgian(int code) {

	push	ebp
	mov	ebp, esp
	push	ecx
	mov	DWORD PTR [ebp-4], -858993460		; ccccccccH
	mov	ecx, OFFSET __B18DBD6B_xmlunicode@c
	call	@__CheckForDebuggerJustMyCode@4

; 1536 :     return(((code >= 0x10A0) && (code <= 0x10FF)));

	cmp	DWORD PTR _code$[ebp], 4256		; 000010a0H
	jl	SHORT $LN3@xmlUCSIsGe
	cmp	DWORD PTR _code$[ebp], 4351		; 000010ffH
	jg	SHORT $LN3@xmlUCSIsGe
	mov	DWORD PTR tv66[ebp], 1
	jmp	SHORT $LN4@xmlUCSIsGe
$LN3@xmlUCSIsGe:
	mov	DWORD PTR tv66[ebp], 0
$LN4@xmlUCSIsGe:
	mov	eax, DWORD PTR tv66[ebp]

; 1537 : }

	add	esp, 4
	cmp	ebp, esp
	call	__RTC_CheckEsp
	mov	esp, ebp
	pop	ebp
	ret	0
_xmlUCSIsGeorgian ENDP
_TEXT	ENDS
; Function compile flags: /Odtp /RTCsu
; File c:\users\dag\documents\_clients\codeproject authors group\windows on arm\libxml2\libxml2-2.9.9\xmlunicode.c
;	COMDAT _xmlUCSIsGeometricShapes
_TEXT	SEGMENT
tv66 = -4						; size = 4
_code$ = 8						; size = 4
_xmlUCSIsGeometricShapes PROC				; COMDAT

; 1522 : xmlUCSIsGeometricShapes(int code) {

	push	ebp
	mov	ebp, esp
	push	ecx
	mov	DWORD PTR [ebp-4], -858993460		; ccccccccH
	mov	ecx, OFFSET __B18DBD6B_xmlunicode@c
	call	@__CheckForDebuggerJustMyCode@4

; 1523 :     return(((code >= 0x25A0) && (code <= 0x25FF)));

	cmp	DWORD PTR _code$[ebp], 9632		; 000025a0H
	jl	SHORT $LN3@xmlUCSIsGe
	cmp	DWORD PTR _code$[ebp], 9727		; 000025ffH
	jg	SHORT $LN3@xmlUCSIsGe
	mov	DWORD PTR tv66[ebp], 1
	jmp	SHORT $LN4@xmlUCSIsGe
$LN3@xmlUCSIsGe:
	mov	DWORD PTR tv66[ebp], 0
$LN4@xmlUCSIsGe:
	mov	eax, DWORD PTR tv66[ebp]

; 1524 : }

	add	esp, 4
	cmp	ebp, esp
	call	__RTC_CheckEsp
	mov	esp, ebp
	pop	ebp
	ret	0
_xmlUCSIsGeometricShapes ENDP
_TEXT	ENDS
; Function compile flags: /Odtp /RTCsu
; File c:\users\dag\documents\_clients\codeproject authors group\windows on arm\libxml2\libxml2-2.9.9\xmlunicode.c
;	COMDAT _xmlUCSIsGeneralPunctuation
_TEXT	SEGMENT
tv66 = -4						; size = 4
_code$ = 8						; size = 4
_xmlUCSIsGeneralPunctuation PROC			; COMDAT

; 1509 : xmlUCSIsGeneralPunctuation(int code) {

	push	ebp
	mov	ebp, esp
	push	ecx
	mov	DWORD PTR [ebp-4], -858993460		; ccccccccH
	mov	ecx, OFFSET __B18DBD6B_xmlunicode@c
	call	@__CheckForDebuggerJustMyCode@4

; 1510 :     return(((code >= 0x2000) && (code <= 0x206F)));

	cmp	DWORD PTR _code$[ebp], 8192		; 00002000H
	jl	SHORT $LN3@xmlUCSIsGe
	cmp	DWORD PTR _code$[ebp], 8303		; 0000206fH
	jg	SHORT $LN3@xmlUCSIsGe
	mov	DWORD PTR tv66[ebp], 1
	jmp	SHORT $LN4@xmlUCSIsGe
$LN3@xmlUCSIsGe:
	mov	DWORD PTR tv66[ebp], 0
$LN4@xmlUCSIsGe:
	mov	eax, DWORD PTR tv66[ebp]

; 1511 : }

	add	esp, 4
	cmp	ebp, esp
	call	__RTC_CheckEsp
	mov	esp, ebp
	pop	ebp
	ret	0
_xmlUCSIsGeneralPunctuation ENDP
_TEXT	ENDS
; Function compile flags: /Odtp /RTCsu
; File c:\users\dag\documents\_clients\codeproject authors group\windows on arm\libxml2\libxml2-2.9.9\xmlunicode.c
;	COMDAT _xmlUCSIsEthiopic
_TEXT	SEGMENT
tv66 = -4						; size = 4
_code$ = 8						; size = 4
_xmlUCSIsEthiopic PROC					; COMDAT

; 1496 : xmlUCSIsEthiopic(int code) {

	push	ebp
	mov	ebp, esp
	push	ecx
	mov	DWORD PTR [ebp-4], -858993460		; ccccccccH
	mov	ecx, OFFSET __B18DBD6B_xmlunicode@c
	call	@__CheckForDebuggerJustMyCode@4

; 1497 :     return(((code >= 0x1200) && (code <= 0x137F)));

	cmp	DWORD PTR _code$[ebp], 4608		; 00001200H
	jl	SHORT $LN3@xmlUCSIsEt
	cmp	DWORD PTR _code$[ebp], 4991		; 0000137fH
	jg	SHORT $LN3@xmlUCSIsEt
	mov	DWORD PTR tv66[ebp], 1
	jmp	SHORT $LN4@xmlUCSIsEt
$LN3@xmlUCSIsEt:
	mov	DWORD PTR tv66[ebp], 0
$LN4@xmlUCSIsEt:
	mov	eax, DWORD PTR tv66[ebp]

; 1498 : }

	add	esp, 4
	cmp	ebp, esp
	call	__RTC_CheckEsp
	mov	esp, ebp
	pop	ebp
	ret	0
_xmlUCSIsEthiopic ENDP
_TEXT	ENDS
; Function compile flags: /Odtp /RTCsu
; File c:\users\dag\documents\_clients\codeproject authors group\windows on arm\libxml2\libxml2-2.9.9\xmlunicode.c
;	COMDAT _xmlUCSIsEnclosedCJKLettersandMonths
_TEXT	SEGMENT
tv66 = -4						; size = 4
_code$ = 8						; size = 4
_xmlUCSIsEnclosedCJKLettersandMonths PROC		; COMDAT

; 1483 : xmlUCSIsEnclosedCJKLettersandMonths(int code) {

	push	ebp
	mov	ebp, esp
	push	ecx
	mov	DWORD PTR [ebp-4], -858993460		; ccccccccH
	mov	ecx, OFFSET __B18DBD6B_xmlunicode@c
	call	@__CheckForDebuggerJustMyCode@4

; 1484 :     return(((code >= 0x3200) && (code <= 0x32FF)));

	cmp	DWORD PTR _code$[ebp], 12800		; 00003200H
	jl	SHORT $LN3@xmlUCSIsEn
	cmp	DWORD PTR _code$[ebp], 13055		; 000032ffH
	jg	SHORT $LN3@xmlUCSIsEn
	mov	DWORD PTR tv66[ebp], 1
	jmp	SHORT $LN4@xmlUCSIsEn
$LN3@xmlUCSIsEn:
	mov	DWORD PTR tv66[ebp], 0
$LN4@xmlUCSIsEn:
	mov	eax, DWORD PTR tv66[ebp]

; 1485 : }

	add	esp, 4
	cmp	ebp, esp
	call	__RTC_CheckEsp
	mov	esp, ebp
	pop	ebp
	ret	0
_xmlUCSIsEnclosedCJKLettersandMonths ENDP
_TEXT	ENDS
; Function compile flags: /Odtp /RTCsu
; File c:\users\dag\documents\_clients\codeproject authors group\windows on arm\libxml2\libxml2-2.9.9\xmlunicode.c
;	COMDAT _xmlUCSIsEnclosedAlphanumerics
_TEXT	SEGMENT
tv66 = -4						; size = 4
_code$ = 8						; size = 4
_xmlUCSIsEnclosedAlphanumerics PROC			; COMDAT

; 1470 : xmlUCSIsEnclosedAlphanumerics(int code) {

	push	ebp
	mov	ebp, esp
	push	ecx
	mov	DWORD PTR [ebp-4], -858993460		; ccccccccH
	mov	ecx, OFFSET __B18DBD6B_xmlunicode@c
	call	@__CheckForDebuggerJustMyCode@4

; 1471 :     return(((code >= 0x2460) && (code <= 0x24FF)));

	cmp	DWORD PTR _code$[ebp], 9312		; 00002460H
	jl	SHORT $LN3@xmlUCSIsEn
	cmp	DWORD PTR _code$[ebp], 9471		; 000024ffH
	jg	SHORT $LN3@xmlUCSIsEn
	mov	DWORD PTR tv66[ebp], 1
	jmp	SHORT $LN4@xmlUCSIsEn
$LN3@xmlUCSIsEn:
	mov	DWORD PTR tv66[ebp], 0
$LN4@xmlUCSIsEn:
	mov	eax, DWORD PTR tv66[ebp]

; 1472 : }

	add	esp, 4
	cmp	ebp, esp
	call	__RTC_CheckEsp
	mov	esp, ebp
	pop	ebp
	ret	0
_xmlUCSIsEnclosedAlphanumerics ENDP
_TEXT	ENDS
; Function compile flags: /Odtp /RTCsu
; File c:\users\dag\documents\_clients\codeproject authors group\windows on arm\libxml2\libxml2-2.9.9\xmlunicode.c
;	COMDAT _xmlUCSIsDingbats
_TEXT	SEGMENT
tv66 = -4						; size = 4
_code$ = 8						; size = 4
_xmlUCSIsDingbats PROC					; COMDAT

; 1457 : xmlUCSIsDingbats(int code) {

	push	ebp
	mov	ebp, esp
	push	ecx
	mov	DWORD PTR [ebp-4], -858993460		; ccccccccH
	mov	ecx, OFFSET __B18DBD6B_xmlunicode@c
	call	@__CheckForDebuggerJustMyCode@4

; 1458 :     return(((code >= 0x2700) && (code <= 0x27BF)));

	cmp	DWORD PTR _code$[ebp], 9984		; 00002700H
	jl	SHORT $LN3@xmlUCSIsDi
	cmp	DWORD PTR _code$[ebp], 10175		; 000027bfH
	jg	SHORT $LN3@xmlUCSIsDi
	mov	DWORD PTR tv66[ebp], 1
	jmp	SHORT $LN4@xmlUCSIsDi
$LN3@xmlUCSIsDi:
	mov	DWORD PTR tv66[ebp], 0
$LN4@xmlUCSIsDi:
	mov	eax, DWORD PTR tv66[ebp]

; 1459 : }

	add	esp, 4
	cmp	ebp, esp
	call	__RTC_CheckEsp
	mov	esp, ebp
	pop	ebp
	ret	0
_xmlUCSIsDingbats ENDP
_TEXT	ENDS
; Function compile flags: /Odtp /RTCsu
; File c:\users\dag\documents\_clients\codeproject authors group\windows on arm\libxml2\libxml2-2.9.9\xmlunicode.c
;	COMDAT _xmlUCSIsDevanagari
_TEXT	SEGMENT
tv66 = -4						; size = 4
_code$ = 8						; size = 4
_xmlUCSIsDevanagari PROC				; COMDAT

; 1444 : xmlUCSIsDevanagari(int code) {

	push	ebp
	mov	ebp, esp
	push	ecx
	mov	DWORD PTR [ebp-4], -858993460		; ccccccccH
	mov	ecx, OFFSET __B18DBD6B_xmlunicode@c
	call	@__CheckForDebuggerJustMyCode@4

; 1445 :     return(((code >= 0x0900) && (code <= 0x097F)));

	cmp	DWORD PTR _code$[ebp], 2304		; 00000900H
	jl	SHORT $LN3@xmlUCSIsDe
	cmp	DWORD PTR _code$[ebp], 2431		; 0000097fH
	jg	SHORT $LN3@xmlUCSIsDe
	mov	DWORD PTR tv66[ebp], 1
	jmp	SHORT $LN4@xmlUCSIsDe
$LN3@xmlUCSIsDe:
	mov	DWORD PTR tv66[ebp], 0
$LN4@xmlUCSIsDe:
	mov	eax, DWORD PTR tv66[ebp]

; 1446 : }

	add	esp, 4
	cmp	ebp, esp
	call	__RTC_CheckEsp
	mov	esp, ebp
	pop	ebp
	ret	0
_xmlUCSIsDevanagari ENDP
_TEXT	ENDS
; Function compile flags: /Odtp /RTCsu
; File c:\users\dag\documents\_clients\codeproject authors group\windows on arm\libxml2\libxml2-2.9.9\xmlunicode.c
;	COMDAT _xmlUCSIsDeseret
_TEXT	SEGMENT
tv66 = -4						; size = 4
_code$ = 8						; size = 4
_xmlUCSIsDeseret PROC					; COMDAT

; 1431 : xmlUCSIsDeseret(int code) {

	push	ebp
	mov	ebp, esp
	push	ecx
	mov	DWORD PTR [ebp-4], -858993460		; ccccccccH
	mov	ecx, OFFSET __B18DBD6B_xmlunicode@c
	call	@__CheckForDebuggerJustMyCode@4

; 1432 :     return(((code >= 0x10400) && (code <= 0x1044F)));

	cmp	DWORD PTR _code$[ebp], 66560		; 00010400H
	jl	SHORT $LN3@xmlUCSIsDe
	cmp	DWORD PTR _code$[ebp], 66639		; 0001044fH
	jg	SHORT $LN3@xmlUCSIsDe
	mov	DWORD PTR tv66[ebp], 1
	jmp	SHORT $LN4@xmlUCSIsDe
$LN3@xmlUCSIsDe:
	mov	DWORD PTR tv66[ebp], 0
$LN4@xmlUCSIsDe:
	mov	eax, DWORD PTR tv66[ebp]

; 1433 : }

	add	esp, 4
	cmp	ebp, esp
	call	__RTC_CheckEsp
	mov	esp, ebp
	pop	ebp
	ret	0
_xmlUCSIsDeseret ENDP
_TEXT	ENDS
; Function compile flags: /Odtp /RTCsu
; File c:\users\dag\documents\_clients\codeproject authors group\windows on arm\libxml2\libxml2-2.9.9\xmlunicode.c
;	COMDAT _xmlUCSIsCyrillicSupplement
_TEXT	SEGMENT
tv66 = -4						; size = 4
_code$ = 8						; size = 4
_xmlUCSIsCyrillicSupplement PROC			; COMDAT

; 1418 : xmlUCSIsCyrillicSupplement(int code) {

	push	ebp
	mov	ebp, esp
	push	ecx
	mov	DWORD PTR [ebp-4], -858993460		; ccccccccH
	mov	ecx, OFFSET __B18DBD6B_xmlunicode@c
	call	@__CheckForDebuggerJustMyCode@4

; 1419 :     return(((code >= 0x0500) && (code <= 0x052F)));

	cmp	DWORD PTR _code$[ebp], 1280		; 00000500H
	jl	SHORT $LN3@xmlUCSIsCy
	cmp	DWORD PTR _code$[ebp], 1327		; 0000052fH
	jg	SHORT $LN3@xmlUCSIsCy
	mov	DWORD PTR tv66[ebp], 1
	jmp	SHORT $LN4@xmlUCSIsCy
$LN3@xmlUCSIsCy:
	mov	DWORD PTR tv66[ebp], 0
$LN4@xmlUCSIsCy:
	mov	eax, DWORD PTR tv66[ebp]

; 1420 : }

	add	esp, 4
	cmp	ebp, esp
	call	__RTC_CheckEsp
	mov	esp, ebp
	pop	ebp
	ret	0
_xmlUCSIsCyrillicSupplement ENDP
_TEXT	ENDS
; Function compile flags: /Odtp /RTCsu
; File c:\users\dag\documents\_clients\codeproject authors group\windows on arm\libxml2\libxml2-2.9.9\xmlunicode.c
;	COMDAT _xmlUCSIsCyrillic
_TEXT	SEGMENT
tv66 = -4						; size = 4
_code$ = 8						; size = 4
_xmlUCSIsCyrillic PROC					; COMDAT

; 1405 : xmlUCSIsCyrillic(int code) {

	push	ebp
	mov	ebp, esp
	push	ecx
	mov	DWORD PTR [ebp-4], -858993460		; ccccccccH
	mov	ecx, OFFSET __B18DBD6B_xmlunicode@c
	call	@__CheckForDebuggerJustMyCode@4

; 1406 :     return(((code >= 0x0400) && (code <= 0x04FF)));

	cmp	DWORD PTR _code$[ebp], 1024		; 00000400H
	jl	SHORT $LN3@xmlUCSIsCy
	cmp	DWORD PTR _code$[ebp], 1279		; 000004ffH
	jg	SHORT $LN3@xmlUCSIsCy
	mov	DWORD PTR tv66[ebp], 1
	jmp	SHORT $LN4@xmlUCSIsCy
$LN3@xmlUCSIsCy:
	mov	DWORD PTR tv66[ebp], 0
$LN4@xmlUCSIsCy:
	mov	eax, DWORD PTR tv66[ebp]

; 1407 : }

	add	esp, 4
	cmp	ebp, esp
	call	__RTC_CheckEsp
	mov	esp, ebp
	pop	ebp
	ret	0
_xmlUCSIsCyrillic ENDP
_TEXT	ENDS
; Function compile flags: /Odtp /RTCsu
; File c:\users\dag\documents\_clients\codeproject authors group\windows on arm\libxml2\libxml2-2.9.9\xmlunicode.c
;	COMDAT _xmlUCSIsCypriotSyllabary
_TEXT	SEGMENT
tv66 = -4						; size = 4
_code$ = 8						; size = 4
_xmlUCSIsCypriotSyllabary PROC				; COMDAT

; 1392 : xmlUCSIsCypriotSyllabary(int code) {

	push	ebp
	mov	ebp, esp
	push	ecx
	mov	DWORD PTR [ebp-4], -858993460		; ccccccccH
	mov	ecx, OFFSET __B18DBD6B_xmlunicode@c
	call	@__CheckForDebuggerJustMyCode@4

; 1393 :     return(((code >= 0x10800) && (code <= 0x1083F)));

	cmp	DWORD PTR _code$[ebp], 67584		; 00010800H
	jl	SHORT $LN3@xmlUCSIsCy
	cmp	DWORD PTR _code$[ebp], 67647		; 0001083fH
	jg	SHORT $LN3@xmlUCSIsCy
	mov	DWORD PTR tv66[ebp], 1
	jmp	SHORT $LN4@xmlUCSIsCy
$LN3@xmlUCSIsCy:
	mov	DWORD PTR tv66[ebp], 0
$LN4@xmlUCSIsCy:
	mov	eax, DWORD PTR tv66[ebp]

; 1394 : }

	add	esp, 4
	cmp	ebp, esp
	call	__RTC_CheckEsp
	mov	esp, ebp
	pop	ebp
	ret	0
_xmlUCSIsCypriotSyllabary ENDP
_TEXT	ENDS
; Function compile flags: /Odtp /RTCsu
; File c:\users\dag\documents\_clients\codeproject authors group\windows on arm\libxml2\libxml2-2.9.9\xmlunicode.c
;	COMDAT _xmlUCSIsCurrencySymbols
_TEXT	SEGMENT
tv66 = -4						; size = 4
_code$ = 8						; size = 4
_xmlUCSIsCurrencySymbols PROC				; COMDAT

; 1379 : xmlUCSIsCurrencySymbols(int code) {

	push	ebp
	mov	ebp, esp
	push	ecx
	mov	DWORD PTR [ebp-4], -858993460		; ccccccccH
	mov	ecx, OFFSET __B18DBD6B_xmlunicode@c
	call	@__CheckForDebuggerJustMyCode@4

; 1380 :     return(((code >= 0x20A0) && (code <= 0x20CF)));

	cmp	DWORD PTR _code$[ebp], 8352		; 000020a0H
	jl	SHORT $LN3@xmlUCSIsCu
	cmp	DWORD PTR _code$[ebp], 8399		; 000020cfH
	jg	SHORT $LN3@xmlUCSIsCu
	mov	DWORD PTR tv66[ebp], 1
	jmp	SHORT $LN4@xmlUCSIsCu
$LN3@xmlUCSIsCu:
	mov	DWORD PTR tv66[ebp], 0
$LN4@xmlUCSIsCu:
	mov	eax, DWORD PTR tv66[ebp]

; 1381 : }

	add	esp, 4
	cmp	ebp, esp
	call	__RTC_CheckEsp
	mov	esp, ebp
	pop	ebp
	ret	0
_xmlUCSIsCurrencySymbols ENDP
_TEXT	ENDS
; Function compile flags: /Odtp /RTCsu
; File c:\users\dag\documents\_clients\codeproject authors group\windows on arm\libxml2\libxml2-2.9.9\xmlunicode.c
;	COMDAT _xmlUCSIsControlPictures
_TEXT	SEGMENT
tv66 = -4						; size = 4
_code$ = 8						; size = 4
_xmlUCSIsControlPictures PROC				; COMDAT

; 1366 : xmlUCSIsControlPictures(int code) {

	push	ebp
	mov	ebp, esp
	push	ecx
	mov	DWORD PTR [ebp-4], -858993460		; ccccccccH
	mov	ecx, OFFSET __B18DBD6B_xmlunicode@c
	call	@__CheckForDebuggerJustMyCode@4

; 1367 :     return(((code >= 0x2400) && (code <= 0x243F)));

	cmp	DWORD PTR _code$[ebp], 9216		; 00002400H
	jl	SHORT $LN3@xmlUCSIsCo
	cmp	DWORD PTR _code$[ebp], 9279		; 0000243fH
	jg	SHORT $LN3@xmlUCSIsCo
	mov	DWORD PTR tv66[ebp], 1
	jmp	SHORT $LN4@xmlUCSIsCo
$LN3@xmlUCSIsCo:
	mov	DWORD PTR tv66[ebp], 0
$LN4@xmlUCSIsCo:
	mov	eax, DWORD PTR tv66[ebp]

; 1368 : }

	add	esp, 4
	cmp	ebp, esp
	call	__RTC_CheckEsp
	mov	esp, ebp
	pop	ebp
	ret	0
_xmlUCSIsControlPictures ENDP
_TEXT	ENDS
; Function compile flags: /Odtp /RTCsu
; File c:\users\dag\documents\_clients\codeproject authors group\windows on arm\libxml2\libxml2-2.9.9\xmlunicode.c
;	COMDAT _xmlUCSIsCombiningMarksforSymbols
_TEXT	SEGMENT
tv66 = -4						; size = 4
_code$ = 8						; size = 4
_xmlUCSIsCombiningMarksforSymbols PROC			; COMDAT

; 1353 : xmlUCSIsCombiningMarksforSymbols(int code) {

	push	ebp
	mov	ebp, esp
	push	ecx
	mov	DWORD PTR [ebp-4], -858993460		; ccccccccH
	mov	ecx, OFFSET __B18DBD6B_xmlunicode@c
	call	@__CheckForDebuggerJustMyCode@4

; 1354 :     return(((code >= 0x20D0) && (code <= 0x20FF)));

	cmp	DWORD PTR _code$[ebp], 8400		; 000020d0H
	jl	SHORT $LN3@xmlUCSIsCo
	cmp	DWORD PTR _code$[ebp], 8447		; 000020ffH
	jg	SHORT $LN3@xmlUCSIsCo
	mov	DWORD PTR tv66[ebp], 1
	jmp	SHORT $LN4@xmlUCSIsCo
$LN3@xmlUCSIsCo:
	mov	DWORD PTR tv66[ebp], 0
$LN4@xmlUCSIsCo:
	mov	eax, DWORD PTR tv66[ebp]

; 1355 : }

	add	esp, 4
	cmp	ebp, esp
	call	__RTC_CheckEsp
	mov	esp, ebp
	pop	ebp
	ret	0
_xmlUCSIsCombiningMarksforSymbols ENDP
_TEXT	ENDS
; Function compile flags: /Odtp /RTCsu
; File c:\users\dag\documents\_clients\codeproject authors group\windows on arm\libxml2\libxml2-2.9.9\xmlunicode.c
;	COMDAT _xmlUCSIsCombiningHalfMarks
_TEXT	SEGMENT
tv66 = -4						; size = 4
_code$ = 8						; size = 4
_xmlUCSIsCombiningHalfMarks PROC			; COMDAT

; 1340 : xmlUCSIsCombiningHalfMarks(int code) {

	push	ebp
	mov	ebp, esp
	push	ecx
	mov	DWORD PTR [ebp-4], -858993460		; ccccccccH
	mov	ecx, OFFSET __B18DBD6B_xmlunicode@c
	call	@__CheckForDebuggerJustMyCode@4

; 1341 :     return(((code >= 0xFE20) && (code <= 0xFE2F)));

	cmp	DWORD PTR _code$[ebp], 65056		; 0000fe20H
	jl	SHORT $LN3@xmlUCSIsCo
	cmp	DWORD PTR _code$[ebp], 65071		; 0000fe2fH
	jg	SHORT $LN3@xmlUCSIsCo
	mov	DWORD PTR tv66[ebp], 1
	jmp	SHORT $LN4@xmlUCSIsCo
$LN3@xmlUCSIsCo:
	mov	DWORD PTR tv66[ebp], 0
$LN4@xmlUCSIsCo:
	mov	eax, DWORD PTR tv66[ebp]

; 1342 : }

	add	esp, 4
	cmp	ebp, esp
	call	__RTC_CheckEsp
	mov	esp, ebp
	pop	ebp
	ret	0
_xmlUCSIsCombiningHalfMarks ENDP
_TEXT	ENDS
; Function compile flags: /Odtp /RTCsu
; File c:\users\dag\documents\_clients\codeproject authors group\windows on arm\libxml2\libxml2-2.9.9\xmlunicode.c
;	COMDAT _xmlUCSIsCombiningDiacriticalMarksforSymbols
_TEXT	SEGMENT
tv66 = -4						; size = 4
_code$ = 8						; size = 4
_xmlUCSIsCombiningDiacriticalMarksforSymbols PROC	; COMDAT

; 1327 : xmlUCSIsCombiningDiacriticalMarksforSymbols(int code) {

	push	ebp
	mov	ebp, esp
	push	ecx
	mov	DWORD PTR [ebp-4], -858993460		; ccccccccH
	mov	ecx, OFFSET __B18DBD6B_xmlunicode@c
	call	@__CheckForDebuggerJustMyCode@4

; 1328 :     return(((code >= 0x20D0) && (code <= 0x20FF)));

	cmp	DWORD PTR _code$[ebp], 8400		; 000020d0H
	jl	SHORT $LN3@xmlUCSIsCo
	cmp	DWORD PTR _code$[ebp], 8447		; 000020ffH
	jg	SHORT $LN3@xmlUCSIsCo
	mov	DWORD PTR tv66[ebp], 1
	jmp	SHORT $LN4@xmlUCSIsCo
$LN3@xmlUCSIsCo:
	mov	DWORD PTR tv66[ebp], 0
$LN4@xmlUCSIsCo:
	mov	eax, DWORD PTR tv66[ebp]

; 1329 : }

	add	esp, 4
	cmp	ebp, esp
	call	__RTC_CheckEsp
	mov	esp, ebp
	pop	ebp
	ret	0
_xmlUCSIsCombiningDiacriticalMarksforSymbols ENDP
_TEXT	ENDS
; Function compile flags: /Odtp /RTCsu
; File c:\users\dag\documents\_clients\codeproject authors group\windows on arm\libxml2\libxml2-2.9.9\xmlunicode.c
;	COMDAT _xmlUCSIsCombiningDiacriticalMarks
_TEXT	SEGMENT
tv66 = -4						; size = 4
_code$ = 8						; size = 4
_xmlUCSIsCombiningDiacriticalMarks PROC			; COMDAT

; 1314 : xmlUCSIsCombiningDiacriticalMarks(int code) {

	push	ebp
	mov	ebp, esp
	push	ecx
	mov	DWORD PTR [ebp-4], -858993460		; ccccccccH
	mov	ecx, OFFSET __B18DBD6B_xmlunicode@c
	call	@__CheckForDebuggerJustMyCode@4

; 1315 :     return(((code >= 0x0300) && (code <= 0x036F)));

	cmp	DWORD PTR _code$[ebp], 768		; 00000300H
	jl	SHORT $LN3@xmlUCSIsCo
	cmp	DWORD PTR _code$[ebp], 879		; 0000036fH
	jg	SHORT $LN3@xmlUCSIsCo
	mov	DWORD PTR tv66[ebp], 1
	jmp	SHORT $LN4@xmlUCSIsCo
$LN3@xmlUCSIsCo:
	mov	DWORD PTR tv66[ebp], 0
$LN4@xmlUCSIsCo:
	mov	eax, DWORD PTR tv66[ebp]

; 1316 : }

	add	esp, 4
	cmp	ebp, esp
	call	__RTC_CheckEsp
	mov	esp, ebp
	pop	ebp
	ret	0
_xmlUCSIsCombiningDiacriticalMarks ENDP
_TEXT	ENDS
; Function compile flags: /Odtp /RTCsu
; File c:\users\dag\documents\_clients\codeproject authors group\windows on arm\libxml2\libxml2-2.9.9\xmlunicode.c
;	COMDAT _xmlUCSIsCherokee
_TEXT	SEGMENT
tv66 = -4						; size = 4
_code$ = 8						; size = 4
_xmlUCSIsCherokee PROC					; COMDAT

; 1301 : xmlUCSIsCherokee(int code) {

	push	ebp
	mov	ebp, esp
	push	ecx
	mov	DWORD PTR [ebp-4], -858993460		; ccccccccH
	mov	ecx, OFFSET __B18DBD6B_xmlunicode@c
	call	@__CheckForDebuggerJustMyCode@4

; 1302 :     return(((code >= 0x13A0) && (code <= 0x13FF)));

	cmp	DWORD PTR _code$[ebp], 5024		; 000013a0H
	jl	SHORT $LN3@xmlUCSIsCh
	cmp	DWORD PTR _code$[ebp], 5119		; 000013ffH
	jg	SHORT $LN3@xmlUCSIsCh
	mov	DWORD PTR tv66[ebp], 1
	jmp	SHORT $LN4@xmlUCSIsCh
$LN3@xmlUCSIsCh:
	mov	DWORD PTR tv66[ebp], 0
$LN4@xmlUCSIsCh:
	mov	eax, DWORD PTR tv66[ebp]

; 1303 : }

	add	esp, 4
	cmp	ebp, esp
	call	__RTC_CheckEsp
	mov	esp, ebp
	pop	ebp
	ret	0
_xmlUCSIsCherokee ENDP
_TEXT	ENDS
; Function compile flags: /Odtp /RTCsu
; File c:\users\dag\documents\_clients\codeproject authors group\windows on arm\libxml2\libxml2-2.9.9\xmlunicode.c
;	COMDAT _xmlUCSIsCJKUnifiedIdeographsExtensionB
_TEXT	SEGMENT
tv66 = -4						; size = 4
_code$ = 8						; size = 4
_xmlUCSIsCJKUnifiedIdeographsExtensionB PROC		; COMDAT

; 1288 : xmlUCSIsCJKUnifiedIdeographsExtensionB(int code) {

	push	ebp
	mov	ebp, esp
	push	ecx
	mov	DWORD PTR [ebp-4], -858993460		; ccccccccH
	mov	ecx, OFFSET __B18DBD6B_xmlunicode@c
	call	@__CheckForDebuggerJustMyCode@4

; 1289 :     return(((code >= 0x20000) && (code <= 0x2A6DF)));

	cmp	DWORD PTR _code$[ebp], 131072		; 00020000H
	jl	SHORT $LN3@xmlUCSIsCJ
	cmp	DWORD PTR _code$[ebp], 173791		; 0002a6dfH
	jg	SHORT $LN3@xmlUCSIsCJ
	mov	DWORD PTR tv66[ebp], 1
	jmp	SHORT $LN4@xmlUCSIsCJ
$LN3@xmlUCSIsCJ:
	mov	DWORD PTR tv66[ebp], 0
$LN4@xmlUCSIsCJ:
	mov	eax, DWORD PTR tv66[ebp]

; 1290 : }

	add	esp, 4
	cmp	ebp, esp
	call	__RTC_CheckEsp
	mov	esp, ebp
	pop	ebp
	ret	0
_xmlUCSIsCJKUnifiedIdeographsExtensionB ENDP
_TEXT	ENDS
; Function compile flags: /Odtp /RTCsu
; File c:\users\dag\documents\_clients\codeproject authors group\windows on arm\libxml2\libxml2-2.9.9\xmlunicode.c
;	COMDAT _xmlUCSIsCJKUnifiedIdeographsExtensionA
_TEXT	SEGMENT
tv66 = -4						; size = 4
_code$ = 8						; size = 4
_xmlUCSIsCJKUnifiedIdeographsExtensionA PROC		; COMDAT

; 1275 : xmlUCSIsCJKUnifiedIdeographsExtensionA(int code) {

	push	ebp
	mov	ebp, esp
	push	ecx
	mov	DWORD PTR [ebp-4], -858993460		; ccccccccH
	mov	ecx, OFFSET __B18DBD6B_xmlunicode@c
	call	@__CheckForDebuggerJustMyCode@4

; 1276 :     return(((code >= 0x3400) && (code <= 0x4DBF)));

	cmp	DWORD PTR _code$[ebp], 13312		; 00003400H
	jl	SHORT $LN3@xmlUCSIsCJ
	cmp	DWORD PTR _code$[ebp], 19903		; 00004dbfH
	jg	SHORT $LN3@xmlUCSIsCJ
	mov	DWORD PTR tv66[ebp], 1
	jmp	SHORT $LN4@xmlUCSIsCJ
$LN3@xmlUCSIsCJ:
	mov	DWORD PTR tv66[ebp], 0
$LN4@xmlUCSIsCJ:
	mov	eax, DWORD PTR tv66[ebp]

; 1277 : }

	add	esp, 4
	cmp	ebp, esp
	call	__RTC_CheckEsp
	mov	esp, ebp
	pop	ebp
	ret	0
_xmlUCSIsCJKUnifiedIdeographsExtensionA ENDP
_TEXT	ENDS
; Function compile flags: /Odtp /RTCsu
; File c:\users\dag\documents\_clients\codeproject authors group\windows on arm\libxml2\libxml2-2.9.9\xmlunicode.c
;	COMDAT _xmlUCSIsCJKUnifiedIdeographs
_TEXT	SEGMENT
tv66 = -4						; size = 4
_code$ = 8						; size = 4
_xmlUCSIsCJKUnifiedIdeographs PROC			; COMDAT

; 1262 : xmlUCSIsCJKUnifiedIdeographs(int code) {

	push	ebp
	mov	ebp, esp
	push	ecx
	mov	DWORD PTR [ebp-4], -858993460		; ccccccccH
	mov	ecx, OFFSET __B18DBD6B_xmlunicode@c
	call	@__CheckForDebuggerJustMyCode@4

; 1263 :     return(((code >= 0x4E00) && (code <= 0x9FFF)));

	cmp	DWORD PTR _code$[ebp], 19968		; 00004e00H
	jl	SHORT $LN3@xmlUCSIsCJ
	cmp	DWORD PTR _code$[ebp], 40959		; 00009fffH
	jg	SHORT $LN3@xmlUCSIsCJ
	mov	DWORD PTR tv66[ebp], 1
	jmp	SHORT $LN4@xmlUCSIsCJ
$LN3@xmlUCSIsCJ:
	mov	DWORD PTR tv66[ebp], 0
$LN4@xmlUCSIsCJ:
	mov	eax, DWORD PTR tv66[ebp]

; 1264 : }

	add	esp, 4
	cmp	ebp, esp
	call	__RTC_CheckEsp
	mov	esp, ebp
	pop	ebp
	ret	0
_xmlUCSIsCJKUnifiedIdeographs ENDP
_TEXT	ENDS
; Function compile flags: /Odtp /RTCsu
; File c:\users\dag\documents\_clients\codeproject authors group\windows on arm\libxml2\libxml2-2.9.9\xmlunicode.c
;	COMDAT _xmlUCSIsCJKSymbolsandPunctuation
_TEXT	SEGMENT
tv66 = -4						; size = 4
_code$ = 8						; size = 4
_xmlUCSIsCJKSymbolsandPunctuation PROC			; COMDAT

; 1249 : xmlUCSIsCJKSymbolsandPunctuation(int code) {

	push	ebp
	mov	ebp, esp
	push	ecx
	mov	DWORD PTR [ebp-4], -858993460		; ccccccccH
	mov	ecx, OFFSET __B18DBD6B_xmlunicode@c
	call	@__CheckForDebuggerJustMyCode@4

; 1250 :     return(((code >= 0x3000) && (code <= 0x303F)));

	cmp	DWORD PTR _code$[ebp], 12288		; 00003000H
	jl	SHORT $LN3@xmlUCSIsCJ
	cmp	DWORD PTR _code$[ebp], 12351		; 0000303fH
	jg	SHORT $LN3@xmlUCSIsCJ
	mov	DWORD PTR tv66[ebp], 1
	jmp	SHORT $LN4@xmlUCSIsCJ
$LN3@xmlUCSIsCJ:
	mov	DWORD PTR tv66[ebp], 0
$LN4@xmlUCSIsCJ:
	mov	eax, DWORD PTR tv66[ebp]

; 1251 : }

	add	esp, 4
	cmp	ebp, esp
	call	__RTC_CheckEsp
	mov	esp, ebp
	pop	ebp
	ret	0
_xmlUCSIsCJKSymbolsandPunctuation ENDP
_TEXT	ENDS
; Function compile flags: /Odtp /RTCsu
; File c:\users\dag\documents\_clients\codeproject authors group\windows on arm\libxml2\libxml2-2.9.9\xmlunicode.c
;	COMDAT _xmlUCSIsCJKRadicalsSupplement
_TEXT	SEGMENT
tv66 = -4						; size = 4
_code$ = 8						; size = 4
_xmlUCSIsCJKRadicalsSupplement PROC			; COMDAT

; 1236 : xmlUCSIsCJKRadicalsSupplement(int code) {

	push	ebp
	mov	ebp, esp
	push	ecx
	mov	DWORD PTR [ebp-4], -858993460		; ccccccccH
	mov	ecx, OFFSET __B18DBD6B_xmlunicode@c
	call	@__CheckForDebuggerJustMyCode@4

; 1237 :     return(((code >= 0x2E80) && (code <= 0x2EFF)));

	cmp	DWORD PTR _code$[ebp], 11904		; 00002e80H
	jl	SHORT $LN3@xmlUCSIsCJ
	cmp	DWORD PTR _code$[ebp], 12031		; 00002effH
	jg	SHORT $LN3@xmlUCSIsCJ
	mov	DWORD PTR tv66[ebp], 1
	jmp	SHORT $LN4@xmlUCSIsCJ
$LN3@xmlUCSIsCJ:
	mov	DWORD PTR tv66[ebp], 0
$LN4@xmlUCSIsCJ:
	mov	eax, DWORD PTR tv66[ebp]

; 1238 : }

	add	esp, 4
	cmp	ebp, esp
	call	__RTC_CheckEsp
	mov	esp, ebp
	pop	ebp
	ret	0
_xmlUCSIsCJKRadicalsSupplement ENDP
_TEXT	ENDS
; Function compile flags: /Odtp /RTCsu
; File c:\users\dag\documents\_clients\codeproject authors group\windows on arm\libxml2\libxml2-2.9.9\xmlunicode.c
