; Listing generated by Microsoft (R) Optimizing Compiler Version 19.16.27027.1 

	TITLE	C:\Users\DAG\Documents\_Clients\CodeProject Authors Group\Windows on ARM\libxml2\libxml2-2.9.9\xpath.c
	.686P
	.XMM
	include listing.inc
	.model	flat

INCLUDELIB MSVCRTD
INCLUDELIB OLDNAMES

PUBLIC	??_C@_0CF@GLDAAHFK@http?3?1?1www?4w3?4org?1XML?11998?1name@ ; `string'
PUBLIC	??_C@_03PJHHNEEI@xml@				; `string'
PUBLIC	??_C@_03KDKBKEMD@Ok?6@				; `string'
PUBLIC	??_C@_0BB@OKMDJLIM@Number?5encoding?6@		; `string'
PUBLIC	??_C@_0BE@HEBMIFHL@Unfinished?5literal?6@	; `string'
PUBLIC	??_C@_0BC@KLADNOLA@Start?5of?5literal?6@	; `string'
PUBLIC	??_C@_0CD@PCDALDFN@Expected?5$?5for?5variable?5referen@ ; `string'
PUBLIC	??_C@_0BE@JIMEOEEA@Undefined?5variable?6@	; `string'
PUBLIC	??_C@_0BD@MFLBJOMG@Invalid?5predicate?6@	; `string'
PUBLIC	??_C@_0BE@CGBIHHBE@Invalid?5expression?6@	; `string'
PUBLIC	??_C@_0BN@DKJEIEAC@Missing?5closing?5curly?5brace?6@ ; `string'
PUBLIC	??_C@_0BH@FDADKKDC@Unregistered?5function?6@	; `string'
PUBLIC	??_C@_0BB@NCMBGCMG@Invalid?5operand?6@		; `string'
PUBLIC	??_C@_0O@HECJPNOD@Invalid?5type?6@		; `string'
PUBLIC	??_C@_0BN@CGCHLLOB@Invalid?5number?5of?5arguments?6@ ; `string'
PUBLIC	??_C@_0BG@JMBOPCAE@Invalid?5context?5size?6@	; `string'
PUBLIC	??_C@_0BK@CKPBPDPH@Invalid?5context?5position?6@ ; `string'
PUBLIC	??_C@_0BJ@OGCHFJAK@Memory?5allocation?5error?6@	; `string'
PUBLIC	??_C@_0O@JJFGCDGG@Syntax?5error?6@		; `string'
PUBLIC	??_C@_0BA@IPNFPAOO@Resource?5error?6@		; `string'
PUBLIC	??_C@_0BE@ILOLKABH@Sub?5resource?5error?6@	; `string'
PUBLIC	??_C@_0BM@FJPIKKBA@Undefined?5namespace?5prefix?6@ ; `string'
PUBLIC	??_C@_0BA@ONCPONLN@Encoding?5error?6@		; `string'
PUBLIC	??_C@_0BH@FAHNGONI@Char?5out?5of?5XML?5range?6@	; `string'
PUBLIC	??_C@_0BP@HNOPDOE@Invalid?5or?5incomplete?5context?6@ ; `string'
PUBLIC	??_C@_0BD@MEAKLJLB@Stack?5usage?5error?6@	; `string'
PUBLIC	??_C@_0BE@EKOADJON@Forbidden?5variable?6@	; `string'
PUBLIC	??_C@_0BF@NKLLLIIE@?$DP?$DP?5Unknown?5error?5?$DP?$DP?6@ ; `string'
_DATA	SEGMENT
COMM	_xmlMalloc:DWORD
COMM	_xmlMallocAtomic:DWORD
COMM	_xmlRealloc:DWORD
COMM	_xmlFree:DWORD
COMM	_xmlMemStrdup:DWORD
COMM	_xmlXPathNAN:QWORD
COMM	_xmlXPathPINF:QWORD
COMM	_xmlXPathNINF:QWORD
COMM	_xmlIsBaseCharGroup:BYTE:010H
COMM	_xmlIsCharGroup:BYTE:010H
COMM	_xmlIsCombiningGroup:BYTE:010H
COMM	_xmlIsDigitGroup:BYTE:010H
COMM	_xmlIsExtenderGroup:BYTE:010H
COMM	_xmlIsIdeographicGroup:BYTE:010H
COMM	_xmlIsPubidChar_tab:BYTE:0100H
COMM	_xmlParserMaxDepth:DWORD
COMM	_forbiddenExp:DWORD
COMM	_emptyExp:DWORD
_DATA	ENDS
;	COMDAT ??_C@_0BF@NKLLLIIE@?$DP?$DP?5Unknown?5error?5?$DP?$DP?6@
CONST	SEGMENT
??_C@_0BF@NKLLLIIE@?$DP?$DP?5Unknown?5error?5?$DP?$DP?6@ DB '?? Unknown e'
	DB	'rror ??', 0aH, 00H				; `string'
CONST	ENDS
;	COMDAT ??_C@_0BE@EKOADJON@Forbidden?5variable?6@
CONST	SEGMENT
??_C@_0BE@EKOADJON@Forbidden?5variable?6@ DB 'Forbidden variable', 0aH, 00H ; `string'
CONST	ENDS
;	COMDAT ??_C@_0BD@MEAKLJLB@Stack?5usage?5error?6@
CONST	SEGMENT
??_C@_0BD@MEAKLJLB@Stack?5usage?5error?6@ DB 'Stack usage error', 0aH, 00H ; `string'
CONST	ENDS
;	COMDAT ??_C@_0BP@HNOPDOE@Invalid?5or?5incomplete?5context?6@
CONST	SEGMENT
??_C@_0BP@HNOPDOE@Invalid?5or?5incomplete?5context?6@ DB 'Invalid or inco'
	DB	'mplete context', 0aH, 00H			; `string'
CONST	ENDS
;	COMDAT ??_C@_0BH@FAHNGONI@Char?5out?5of?5XML?5range?6@
CONST	SEGMENT
??_C@_0BH@FAHNGONI@Char?5out?5of?5XML?5range?6@ DB 'Char out of XML range'
	DB	0aH, 00H					; `string'
CONST	ENDS
;	COMDAT ??_C@_0BA@ONCPONLN@Encoding?5error?6@
CONST	SEGMENT
??_C@_0BA@ONCPONLN@Encoding?5error?6@ DB 'Encoding error', 0aH, 00H ; `string'
CONST	ENDS
;	COMDAT ??_C@_0BM@FJPIKKBA@Undefined?5namespace?5prefix?6@
CONST	SEGMENT
??_C@_0BM@FJPIKKBA@Undefined?5namespace?5prefix?6@ DB 'Undefined namespac'
	DB	'e prefix', 0aH, 00H				; `string'
CONST	ENDS
;	COMDAT ??_C@_0BE@ILOLKABH@Sub?5resource?5error?6@
CONST	SEGMENT
??_C@_0BE@ILOLKABH@Sub?5resource?5error?6@ DB 'Sub resource error', 0aH, 00H ; `string'
CONST	ENDS
;	COMDAT ??_C@_0BA@IPNFPAOO@Resource?5error?6@
CONST	SEGMENT
??_C@_0BA@IPNFPAOO@Resource?5error?6@ DB 'Resource error', 0aH, 00H ; `string'
CONST	ENDS
;	COMDAT ??_C@_0O@JJFGCDGG@Syntax?5error?6@
CONST	SEGMENT
??_C@_0O@JJFGCDGG@Syntax?5error?6@ DB 'Syntax error', 0aH, 00H ; `string'
CONST	ENDS
;	COMDAT ??_C@_0BJ@OGCHFJAK@Memory?5allocation?5error?6@
CONST	SEGMENT
??_C@_0BJ@OGCHFJAK@Memory?5allocation?5error?6@ DB 'Memory allocation err'
	DB	'or', 0aH, 00H				; `string'
CONST	ENDS
;	COMDAT ??_C@_0BK@CKPBPDPH@Invalid?5context?5position?6@
CONST	SEGMENT
??_C@_0BK@CKPBPDPH@Invalid?5context?5position?6@ DB 'Invalid context posi'
	DB	'tion', 0aH, 00H				; `string'
CONST	ENDS
;	COMDAT ??_C@_0BG@JMBOPCAE@Invalid?5context?5size?6@
CONST	SEGMENT
??_C@_0BG@JMBOPCAE@Invalid?5context?5size?6@ DB 'Invalid context size', 0aH
	DB	00H						; `string'
CONST	ENDS
;	COMDAT ??_C@_0BN@CGCHLLOB@Invalid?5number?5of?5arguments?6@
CONST	SEGMENT
??_C@_0BN@CGCHLLOB@Invalid?5number?5of?5arguments?6@ DB 'Invalid number o'
	DB	'f arguments', 0aH, 00H			; `string'
CONST	ENDS
;	COMDAT ??_C@_0O@HECJPNOD@Invalid?5type?6@
CONST	SEGMENT
??_C@_0O@HECJPNOD@Invalid?5type?6@ DB 'Invalid type', 0aH, 00H ; `string'
CONST	ENDS
;	COMDAT ??_C@_0BB@NCMBGCMG@Invalid?5operand?6@
CONST	SEGMENT
??_C@_0BB@NCMBGCMG@Invalid?5operand?6@ DB 'Invalid operand', 0aH, 00H ; `string'
CONST	ENDS
;	COMDAT ??_C@_0BH@FDADKKDC@Unregistered?5function?6@
CONST	SEGMENT
??_C@_0BH@FDADKKDC@Unregistered?5function?6@ DB 'Unregistered function', 0aH
	DB	00H						; `string'
CONST	ENDS
;	COMDAT ??_C@_0BN@DKJEIEAC@Missing?5closing?5curly?5brace?6@
CONST	SEGMENT
??_C@_0BN@DKJEIEAC@Missing?5closing?5curly?5brace?6@ DB 'Missing closing '
	DB	'curly brace', 0aH, 00H			; `string'
CONST	ENDS
;	COMDAT ??_C@_0BE@CGBIHHBE@Invalid?5expression?6@
CONST	SEGMENT
??_C@_0BE@CGBIHHBE@Invalid?5expression?6@ DB 'Invalid expression', 0aH, 00H ; `string'
CONST	ENDS
;	COMDAT ??_C@_0BD@MFLBJOMG@Invalid?5predicate?6@
CONST	SEGMENT
??_C@_0BD@MFLBJOMG@Invalid?5predicate?6@ DB 'Invalid predicate', 0aH, 00H ; `string'
CONST	ENDS
;	COMDAT ??_C@_0BE@JIMEOEEA@Undefined?5variable?6@
CONST	SEGMENT
??_C@_0BE@JIMEOEEA@Undefined?5variable?6@ DB 'Undefined variable', 0aH, 00H ; `string'
CONST	ENDS
;	COMDAT ??_C@_0CD@PCDALDFN@Expected?5$?5for?5variable?5referen@
CONST	SEGMENT
??_C@_0CD@PCDALDFN@Expected?5$?5for?5variable?5referen@ DB 'Expected $ fo'
	DB	'r variable reference', 0aH, 00H		; `string'
CONST	ENDS
;	COMDAT ??_C@_0BC@KLADNOLA@Start?5of?5literal?6@
CONST	SEGMENT
??_C@_0BC@KLADNOLA@Start?5of?5literal?6@ DB 'Start of literal', 0aH, 00H ; `string'
CONST	ENDS
;	COMDAT ??_C@_0BE@HEBMIFHL@Unfinished?5literal?6@
CONST	SEGMENT
??_C@_0BE@HEBMIFHL@Unfinished?5literal?6@ DB 'Unfinished literal', 0aH, 00H ; `string'
CONST	ENDS
;	COMDAT ??_C@_0BB@OKMDJLIM@Number?5encoding?6@
CONST	SEGMENT
??_C@_0BB@OKMDJLIM@Number?5encoding?6@ DB 'Number encoding', 0aH, 00H ; `string'
CONST	ENDS
;	COMDAT ??_C@_03KDKBKEMD@Ok?6@
CONST	SEGMENT
??_C@_03KDKBKEMD@Ok?6@ DB 'Ok', 0aH, 00H		; `string'
CONST	ENDS
;	COMDAT ??_C@_03PJHHNEEI@xml@
CONST	SEGMENT
??_C@_03PJHHNEEI@xml@ DB 'xml', 00H			; `string'
CONST	ENDS
;	COMDAT ??_C@_0CF@GLDAAHFK@http?3?1?1www?4w3?4org?1XML?11998?1name@
CONST	SEGMENT
??_C@_0CF@GLDAAHFK@http?3?1?1www?4w3?4org?1XML?11998?1name@ DB 'http://ww'
	DB	'w.w3.org/XML/1998/namespace', 00H		; `string'
CONST	ENDS
_DATA	SEGMENT
_xmlXPathXMLNamespaceStruct DD 00H
	DD	012H
	DD	FLAT:??_C@_0CF@GLDAAHFK@http?3?1?1www?4w3?4org?1XML?11998?1name@
	DD	FLAT:??_C@_03PJHHNEEI@xml@
	DD	00H
	DD	00H
_DATA	ENDS
msvcjmc	SEGMENT
__188180DA_corecrt_math@h DB 01H
__2CC6E67D_corecrt_stdio_config@h DB 01H
__05476D76_corecrt_wstdio@h DB 01H
__A452D4A0_stdio@h DB 01H
__4384A2D9_corecrt_memcpy_s@h DB 01H
__4E51A221_corecrt_wstring@h DB 01H
__2140C079_string@h DB 01H
__7B7A869E_ctype@h DB 01H
__C4BA4707_timsort@h DB 01H
__9DBA2A81_xpath@c DB 01H
msvcjmc	ENDS
PUBLIC	___local_stdio_printf_options
PUBLIC	_fprintf
PUBLIC	_snprintf
PUBLIC	_xmlXPathFreeObject
PUBLIC	_xmlXPathNodeSetCreate
PUBLIC	_xmlXPathFreeNodeSetList
PUBLIC	_xmlXPathFreeNodeSet
PUBLIC	_xmlXPathObjectCopy
PUBLIC	_xmlXPathCmpNodes
PUBLIC	_xmlXPathCastNumberToBoolean
PUBLIC	_xmlXPathCastStringToBoolean
PUBLIC	_xmlXPathCastNodeSetToBoolean
PUBLIC	_xmlXPathCastToBoolean
PUBLIC	_xmlXPathCastBooleanToNumber
PUBLIC	_xmlXPathCastStringToNumber
PUBLIC	_xmlXPathCastNodeToNumber
PUBLIC	_xmlXPathCastNodeSetToNumber
PUBLIC	_xmlXPathCastToNumber
PUBLIC	_xmlXPathCastBooleanToString
PUBLIC	_xmlXPathCastNumberToString
PUBLIC	_xmlXPathCastNodeToString
PUBLIC	_xmlXPathCastNodeSetToString
PUBLIC	_xmlXPathCastToString
PUBLIC	_xmlXPathConvertBoolean
PUBLIC	_xmlXPathConvertNumber
PUBLIC	_xmlXPathConvertString
PUBLIC	_xmlXPathNewContext
PUBLIC	_xmlXPathFreeContext
PUBLIC	_xmlXPathContextSetCache
PUBLIC	_xmlXPathOrderDocElems
PUBLIC	_xmlXPathSetContextNode
PUBLIC	_xmlXPathNodeEval
PUBLIC	_xmlXPathEval
PUBLIC	_xmlXPathEvalExpression
PUBLIC	_xmlXPathEvalPredicate
PUBLIC	_xmlXPathCompile
PUBLIC	_xmlXPathCtxtCompile
PUBLIC	_xmlXPathCompiledEval
PUBLIC	_xmlXPathCompiledEvalToBoolean
PUBLIC	_xmlXPathFreeCompExpr
PUBLIC	_xmlXPathInit
PUBLIC	_xmlXPathIsNaN
PUBLIC	_xmlXPathIsInf
PUBLIC	_xmlXPathPopBoolean
PUBLIC	_xmlXPathPopNumber
PUBLIC	_xmlXPathPopString
PUBLIC	_xmlXPathPopNodeSet
PUBLIC	_xmlXPathPopExternal
PUBLIC	_xmlXPathRegisterVariableLookup
PUBLIC	_xmlXPathRegisterFuncLookup
PUBLIC	_xmlXPatherror
PUBLIC	_xmlXPathErr
PUBLIC	_xmlXPathDebugDumpObject
PUBLIC	_xmlXPathDebugDumpCompExpr
PUBLIC	_xmlXPathNodeSetContains
PUBLIC	_xmlXPathDifference
PUBLIC	_xmlXPathIntersection
PUBLIC	_xmlXPathDistinctSorted
PUBLIC	_xmlXPathDistinct
PUBLIC	_xmlXPathHasSameNodes
PUBLIC	_xmlXPathNodeLeadingSorted
PUBLIC	_xmlXPathLeadingSorted
PUBLIC	_xmlXPathNodeLeading
PUBLIC	_xmlXPathLeading
PUBLIC	_xmlXPathNodeTrailingSorted
PUBLIC	_xmlXPathTrailingSorted
PUBLIC	_xmlXPathNodeTrailing
PUBLIC	_xmlXPathTrailing
PUBLIC	_xmlXPathRegisterNs
PUBLIC	_xmlXPathNsLookup
PUBLIC	_xmlXPathRegisteredNsCleanup
PUBLIC	_xmlXPathRegisterFunc
PUBLIC	_xmlXPathRegisterFuncNS
PUBLIC	_xmlXPathRegisterVariable
PUBLIC	_xmlXPathRegisterVariableNS
PUBLIC	_xmlXPathFunctionLookup
PUBLIC	_xmlXPathFunctionLookupNS
PUBLIC	_xmlXPathRegisteredFuncsCleanup
PUBLIC	_xmlXPathVariableLookup
PUBLIC	_xmlXPathVariableLookupNS
PUBLIC	_xmlXPathRegisteredVariablesCleanup
PUBLIC	_xmlXPathNewParserContext
PUBLIC	_xmlXPathFreeParserContext
PUBLIC	_valuePop
PUBLIC	_valuePush
PUBLIC	_xmlXPathNewString
PUBLIC	_xmlXPathNewCString
PUBLIC	_xmlXPathWrapString
PUBLIC	_xmlXPathWrapCString
PUBLIC	_xmlXPathNewFloat
PUBLIC	_xmlXPathNewBoolean
PUBLIC	_xmlXPathNewNodeSet
PUBLIC	_xmlXPathNewValueTree
PUBLIC	_xmlXPathNodeSetAdd
PUBLIC	_xmlXPathNodeSetAddUnique
PUBLIC	_xmlXPathNodeSetAddNs
PUBLIC	_xmlXPathNodeSetSort
PUBLIC	_xmlXPathRoot
PUBLIC	_xmlXPathEvalExpr
PUBLIC	_xmlXPathParseName
PUBLIC	_xmlXPathParseNCName
PUBLIC	_xmlXPathStringEvalNumber
PUBLIC	_xmlXPathEvaluatePredicateResult
PUBLIC	_xmlXPathRegisterAllFunctions
PUBLIC	_xmlXPathNodeSetMerge
PUBLIC	_xmlXPathNodeSetDel
PUBLIC	_xmlXPathNodeSetRemove
PUBLIC	_xmlXPathNewNodeSetList
PUBLIC	_xmlXPathWrapNodeSet
PUBLIC	_xmlXPathWrapExternal
PUBLIC	_xmlXPathEqualValues
PUBLIC	_xmlXPathNotEqualValues
PUBLIC	_xmlXPathCompareValues
PUBLIC	_xmlXPathValueFlipSign
PUBLIC	_xmlXPathAddValues
PUBLIC	_xmlXPathSubValues
PUBLIC	_xmlXPathMultValues
PUBLIC	_xmlXPathDivValues
PUBLIC	_xmlXPathModValues
PUBLIC	_xmlXPathIsNodeType
PUBLIC	_xmlXPathNextSelf
PUBLIC	_xmlXPathNextChild
PUBLIC	_xmlXPathNextDescendant
PUBLIC	_xmlXPathNextDescendantOrSelf
PUBLIC	_xmlXPathNextParent
PUBLIC	_xmlXPathNextAncestorOrSelf
PUBLIC	_xmlXPathNextFollowingSibling
PUBLIC	_xmlXPathNextFollowing
PUBLIC	_xmlXPathNextNamespace
PUBLIC	_xmlXPathNextAttribute
PUBLIC	_xmlXPathNextPreceding
PUBLIC	_xmlXPathNextAncestor
PUBLIC	_xmlXPathNextPrecedingSibling
PUBLIC	_xmlXPathLastFunction
PUBLIC	_xmlXPathPositionFunction
PUBLIC	_xmlXPathCountFunction
PUBLIC	_xmlXPathIdFunction
PUBLIC	_xmlXPathLocalNameFunction
PUBLIC	_xmlXPathNamespaceURIFunction
PUBLIC	_xmlXPathStringFunction
PUBLIC	_xmlXPathStringLengthFunction
PUBLIC	_xmlXPathConcatFunction
PUBLIC	_xmlXPathContainsFunction
PUBLIC	_xmlXPathStartsWithFunction
PUBLIC	_xmlXPathSubstringFunction
PUBLIC	_xmlXPathSubstringBeforeFunction
PUBLIC	_xmlXPathSubstringAfterFunction
PUBLIC	_xmlXPathNormalizeFunction
PUBLIC	_xmlXPathTranslateFunction
PUBLIC	_xmlXPathNotFunction
PUBLIC	_xmlXPathTrueFunction
PUBLIC	_xmlXPathFalseFunction
PUBLIC	_xmlXPathLangFunction
PUBLIC	_xmlXPathNumberFunction
PUBLIC	_xmlXPathSumFunction
PUBLIC	_xmlXPathFloorFunction
PUBLIC	_xmlXPathCeilingFunction
PUBLIC	_xmlXPathRoundFunction
PUBLIC	_xmlXPathBooleanFunction
PUBLIC	_xmlXPathNodeSetFreeNs
PUBLIC	_libxml_domnode_binary_insertion_sort
PUBLIC	_libxml_domnode_tim_sort
PUBLIC	__JustMyCode_Default
PUBLIC	??_C@_0EA@JENGBCEE@Error?5allocating?5temporary?5stor@ ; `string'
PUBLIC	??_C@_0BP@DJFHNAOK@Memory?5allocation?5failed?5?3?5?$CFs?6@ ; `string'
PUBLIC	??_C@_0BK@GDFDKGPJ@Memory?5allocation?5failed?6@ ; `string'
PUBLIC	??_C@_02DKCKIIND@?$CFs@				; `string'
PUBLIC	??_C@_0CH@GLHDGMAA@xmlPointerListCreate?3?5allocatin@ ; `string'
PUBLIC	??_C@_0CL@LEBBNDKO@xmlPointerListAddSize?3?5re?9alloc@ ; `string'
PUBLIC	??_C@_0BG@OMFEJMIL@allocating?5component?6@	; `string'
PUBLIC	??_C@_0BC@EIFELMJ@allocating?5steps?6@		; `string'
PUBLIC	??_C@_0N@GHHFFDFC@adding?5step?6@		; `string'
PUBLIC	??_C@_0BA@OKLFJGHE@Node?5is?5NULL?5?$CB?6@	; `string'
PUBLIC	??_C@_03LHHHGGIK@?5?1?6@			; `string'
PUBLIC	??_C@_0BD@CEACDENF@NodeSet?5is?5NULL?5?$CB?6@	; `string'
PUBLIC	??_C@_0BI@CGJHGOLK@Set?5contains?5?$CFd?5nodes?3?6@ ; `string'
PUBLIC	??_C@_02DPKJAMEF@?$CFd@				; `string'
PUBLIC	??_C@_0BG@ODIPEGMA@Value?5Tree?5is?5NULL?5?$CB?6@ ; `string'
PUBLIC	??_C@_0BH@OMGEHPOG@LocationSet?5is?5NULL?5?$CB?6@ ; `string'
PUBLIC	??_C@_05GJKEPAIO@?$CFd?5?3?5@			; `string'
PUBLIC	??_C@_0BI@CIBIAOEE@Object?5is?5empty?5?$CINULL?$CJ?6@ ; `string'
PUBLIC	??_C@_0BJ@EGAONLPM@Object?5is?5uninitialized?6@	; `string'
PUBLIC	??_C@_0BI@NCNINNMM@Object?5is?5a?5Node?5Set?5?3?6@ ; `string'
PUBLIC	??_C@_0CA@NNPHAPO@Object?5is?5an?5XSLT?5value?5tree?5?3?6@ ; `string'
PUBLIC	??_C@_0BH@GPCPEGOI@Object?5is?5a?5Boolean?5?3?5@ ; `string'
PUBLIC	??_C@_05LFIOBDML@true?6@			; `string'
PUBLIC	??_C@_06NIOGPBNO@false?6@			; `string'
PUBLIC	??_C@_0BP@DBNKIPBA@Object?5is?5a?5number?5?3?5Infinity?6@ ; `string'
PUBLIC	??_C@_0CA@CMBCDMBH@Object?5is?5a?5number?5?3?5?9Infinity?6@ ; `string'
PUBLIC	??_C@_0BK@JAENJFCB@Object?5is?5a?5number?5?3?5NaN?6@ ; `string'
PUBLIC	??_C@_0BI@KDLCNKPI@Object?5is?5a?5number?5?3?50?6@ ; `string'
PUBLIC	??_C@_0BK@DKICMGNF@Object?5is?5a?5number?5?3?5?$CF0g?6@ ; `string'
PUBLIC	??_C@_0BG@IHKNOBPJ@Object?5is?5a?5string?5?3?5@	; `string'
PUBLIC	??_C@_01EEMJAFIK@?6@				; `string'
PUBLIC	??_C@_0CF@IDHPHOMH@Object?5is?5a?5point?5?3?5index?5?$CFd?5in@ ; `string'
PUBLIC	??_C@_0BP@BGPHFANM@Object?5is?5a?5collapsed?5range?5?3?6@ ; `string'
PUBLIC	??_C@_0N@IDICPBLK@index?5?$CFd?5in?5@		; `string'
PUBLIC	??_C@_05GHBGFBPP@node?6@			; `string'
PUBLIC	??_C@_0BF@JIJMPGFP@Object?5is?5a?5range?5?3?6@	; `string'
PUBLIC	??_C@_05KCOAJPAG@From?5@			; `string'
PUBLIC	??_C@_03EMNLBAKJ@To?5@				; `string'
PUBLIC	??_C@_0BL@DOOMBINH@Object?5is?5a?5Location?5Set?3?6@ ; `string'
PUBLIC	??_C@_0BI@JJDBNCDG@Object?5is?5user?5defined?6@	; `string'
PUBLIC	??_C@_0O@IEEDPMEL@Step?5is?5NULL?6@		; `string'
PUBLIC	??_C@_03JMGAKCCH@END@				; `string'
PUBLIC	??_C@_03BDACDFHA@AND@				; `string'
PUBLIC	??_C@_02PDPFNDMG@OR@				; `string'
PUBLIC	??_C@_07MELFAPHK@EQUAL?5?$DN@			; `string'
PUBLIC	??_C@_08MPMADPIH@EQUAL?5?$CB?$DN@		; `string'
PUBLIC	??_C@_05OHCBIKNL@CMP?5?$DM@			; `string'
PUBLIC	??_C@_05NFBHOIFJ@CMP?5?$DO@			; `string'
PUBLIC	??_C@_01NEMOKFLO@?$DN@				; `string'
PUBLIC	??_C@_06IPAPPNJ@PLUS?5?9@			; `string'
PUBLIC	??_C@_06FOKKFIFP@PLUS?5?$CL@			; `string'
PUBLIC	??_C@_0N@GEIAIOPG@PLUS?5unary?5?9@		; `string'
PUBLIC	??_C@_0P@FAIBJAJD@PLUS?5unary?5?9?5?9@		; `string'
PUBLIC	??_C@_06JFEGAKAJ@MULT?5?$CK@			; `string'
PUBLIC	??_C@_08HELPMGMA@MULT?5div@			; `string'
PUBLIC	??_C@_08HFMOIFCL@MULT?5mod@			; `string'
PUBLIC	??_C@_05GJNJOPB@UNION@				; `string'
PUBLIC	??_C@_04BNGIIOIP@ROOT@				; `string'
PUBLIC	??_C@_04OHPEDIPN@NODE@				; `string'
PUBLIC	??_C@_04DEPGJHBM@SORT@				; `string'
PUBLIC	??_C@_08BCOGFDOM@COLLECT?5@			; `string'
PUBLIC	??_C@_0O@CBBIECFC@?5?8ancestors?8?5@		; `string'
PUBLIC	??_C@_0BG@IJDLJMNP@?5?8ancestors?9or?9self?8?5@	; `string'
PUBLIC	??_C@_0P@IMBNHOPA@?5?8attributes?8?5@		; `string'
PUBLIC	??_C@_09DMHOAOKE@?5?8child?8?5@			; `string'
PUBLIC	??_C@_0P@COPGHIIE@?5?8descendant?8?5@		; `string'
PUBLIC	??_C@_0BH@OLEEPEHL@?5?8descendant?9or?9self?8?5@ ; `string'
PUBLIC	??_C@_0O@HPGIPOGE@?5?8following?8?5@		; `string'
PUBLIC	??_C@_0BH@KMMFLMJK@?5?8following?9siblings?8?5@	; `string'
PUBLIC	??_C@_0O@DIAKOKEE@?5?8namespace?8?5@		; `string'
PUBLIC	??_C@_0L@BKJAGPFG@?5?8parent?8?5@		; `string'
PUBLIC	??_C@_0O@BNHFEBDE@?5?8preceding?8?5@		; `string'
PUBLIC	??_C@_0BG@LJHOBDKP@?5?8preceding?9sibling?8?5@	; `string'
PUBLIC	??_C@_08HAEBALG@?5?8self?8?5@			; `string'
PUBLIC	??_C@_07MJDJHLDE@?8none?8?5@			; `string'
PUBLIC	??_C@_07MIHANB@?8type?8?5@			; `string'
PUBLIC	??_C@_05CCBNMHGJ@?8PI?8?5@			; `string'
PUBLIC	??_C@_06COJFFNFM@?8all?8?5@			; `string'
PUBLIC	??_C@_0N@CLKBKNNJ@?8namespace?8?5@		; `string'
PUBLIC	??_C@_07LEJDGAJE@?8name?8?5@			; `string'
PUBLIC	??_C@_07IDIJGDJF@?8node?8?5@			; `string'
PUBLIC	??_C@_0L@BBLKKJMH@?8comment?8?5@		; `string'
PUBLIC	??_C@_07KMAJMJAK@?8text?8?5@			; `string'
PUBLIC	??_C@_03DKEJHHJP@?$CFs?3@			; `string'
PUBLIC	??_C@_05MNKHOCPF@ELEM?5@			; `string'
PUBLIC	??_C@_0P@MLBLHJNB@VARIABLE?5?$CFs?3?$CFs@	; `string'
PUBLIC	??_C@_0M@MLPGFJHH@VARIABLE?5?$CFs@		; `string'
PUBLIC	??_C@_0BI@JIAOIFFJ@FUNCTION?5?$CFs?3?$CFs?$CI?$CFd?5args?$CJ@ ; `string'
PUBLIC	??_C@_0BF@LKMAOONC@FUNCTION?5?$CFs?$CI?$CFd?5args?$CJ@ ; `string'
PUBLIC	??_C@_03CNBDDMKH@ARG@				; `string'
PUBLIC	??_C@_09NKOLJOJL@PREDICATE@			; `string'
PUBLIC	??_C@_06EKKPGGCG@FILTER@			; `string'
PUBLIC	??_C@_07LNDIAM@RANGETO@				; `string'
PUBLIC	??_C@_0M@BEEHJFLN@UNKNOWN?5?$CFd?6@		; `string'
PUBLIC	??_C@_0BG@FMDDAOLJ@Streaming?5Expression?6@	; `string'
PUBLIC	??_C@_0CD@DHBDACDN@Compiled?5Expression?5?3?5?$CFd?5elemen@ ; `string'
PUBLIC	??_C@_0BH@LJLEGFLD@creating?5object?5cache?6@	; `string'
PUBLIC	??_C@_00CNPNBAHC@@				; `string'
PUBLIC	??_C@_0GH@HIGHEHKE@c?3?2users?2dag?2documents?2_clients@ ; `string'
PUBLIC	??_C@_0BO@MDEMDPPE@Unimplemented?5block?5at?5?$CFs?3?$CFd?6@ ; `string'
PUBLIC	??_C@_0CB@EAFHACKN@XPath?5stack?5depth?5limit?5reached@ ; `string'
PUBLIC	??_C@_0P@LENPPBCI@pushing?5value?6@		; `string'
PUBLIC	??_C@_08KEBCLIFP@Infinity@			; `string'
PUBLIC	??_C@_09BLDCEMOH@?9Infinity@			; `string'
PUBLIC	??_C@_03ICJPMMHB@NaN@				; `string'
PUBLIC	??_C@_01GBGANLPD@0@				; `string'
PUBLIC	??_C@_05PPJAHJKF@?$CF?$CK?4?$CKe@		; `string'
PUBLIC	??_C@_05POONKFEF@?$CF0?4?$CKf@			; `string'
PUBLIC	??_C@_0BH@EHGBBAJH@duplicating?5namespace?6@	; `string'
PUBLIC	??_C@_0BC@LBLPMNCN@creating?5nodeset?6@		; `string'
PUBLIC	??_C@_0BB@HLDFGIFL@growing?5nodeset?6@		; `string'
PUBLIC	??_C@_0BL@JKBEHGK@growing?5nodeset?5hit?5limit?6@ ; `string'
PUBLIC	??_C@_0BB@IMBJKAMG@merging?5nodeset?6@		; `string'
PUBLIC	??_C@_0BL@DBOLJGCN@merging?5nodeset?5hit?5limit?6@ ; `string'
PUBLIC	??_C@_0BM@FFJIGPKH@creating?5result?5value?5tree?6@ ; `string'
PUBLIC	??_C@_0BK@DGDFHNNJ@creating?5node?5set?5object?6@ ; `string'
PUBLIC	??_C@_0BH@FGBKIIOK@creating?5float?5object?6@	; `string'
PUBLIC	??_C@_0BJ@ECLOGIHC@creating?5boolean?5object?6@	; `string'
PUBLIC	??_C@_0BI@BJAGDAFP@creating?5string?5object?6@	; `string'
PUBLIC	??_C@_0BG@ENIHPAML@creating?5user?5object?6@	; `string'
PUBLIC	??_C@_0BA@KJDNPDLE@copying?5object?6@		; `string'
PUBLIC	??_C@_0CJ@OPCFGEGG@xmlXPathObjectCopy?3?5unsupported@ ; `string'
PUBLIC	??_C@_04LOAJBDKD@true@				; `string'
PUBLIC	??_C@_05LAPONLG@false@				; `string'
PUBLIC	??_C@_0BC@GBNJEJGK@creating?5context?6@		; `string'
PUBLIC	??_C@_0BJ@KFGJCHDI@creating?5parser?5context?6@	; `string'
PUBLIC	??_C@_0BN@DLELJOPA@creating?5evaluation?5context?6@ ; `string'
PUBLIC	??_C@_0BE@EIMBPOMM@comparing?5nodesets?6@	; `string'
PUBLIC	??_C@_0EL@MECKCKJO@xmlXPathCompareNodeSetValue?3?5Ca@ ; `string'
PUBLIC	??_C@_0BC@MHFGEIED@fake?5node?5libxslt@		; `string'
PUBLIC	??_C@_0DA@NKGEEAEF@xmlXPathTranslateFunction?3?5Inva@ ; `string'
PUBLIC	??_C@_04CLMONKIF@node@				; `string'
PUBLIC	??_C@_04CIMGMMMG@text@				; `string'
PUBLIC	??_C@_07GJGNEJFD@comment@			; `string'
PUBLIC	??_C@_0BH@NNLCFMHO@processing?9instruction@	; `string'
PUBLIC	??_C@_05IOMEMJEC@count@				; `string'
PUBLIC	??_C@_02MOLJINC@?3?3@				; `string'
PUBLIC	??_C@_08KHINJAEH@range?9to@			; `string'
PUBLIC	??_C@_0BJ@DADKHPPP@Internal?5error?5at?5?$CFs?3?$CFd?6@ ; `string'
PUBLIC	??_C@_08HBEFDOBD@ancestor@			; `string'
PUBLIC	??_C@_0BB@OLBPNJCF@ancestor?9or?9self@		; `string'
PUBLIC	??_C@_09HGIEBAJ@attribute@			; `string'
PUBLIC	??_C@_05GPGNDLEK@child@				; `string'
PUBLIC	??_C@_0L@NJLDCKIO@descendant@			; `string'
PUBLIC	??_C@_0BD@EPJHOOIL@descendant?9or?9self@	; `string'
PUBLIC	??_C@_09BEIPBMDN@following@			; `string'
PUBLIC	??_C@_0BC@LMFKEKDG@following?9sibling@		; `string'
PUBLIC	??_C@_09KPMGAFNI@namespace@			; `string'
PUBLIC	??_C@_06MLKDMCBD@parent@			; `string'
PUBLIC	??_C@_09MGMONEC@preceding@			; `string'
PUBLIC	??_C@_0BC@MLGDENAI@preceding?9sibling@		; `string'
PUBLIC	??_C@_04PJDNGLKJ@self@				; `string'
PUBLIC	??_C@_04PLGBGIDD@last@				; `string'
PUBLIC	??_C@_0DO@IDAPNIMJ@xmlXPathCompOpEval?3?5variable?5?$CFs@ ; `string'
PUBLIC	??_C@_0CF@LMIGLEJC@xmlXPathCompOpEval?3?5parameter?5e@ ; `string'
PUBLIC	??_C@_0DO@MGJDMDIG@xmlXPathCompOpEval?3?5function?5?$CFs@ ; `string'
PUBLIC	??_C@_0CL@KAMILNDJ@xmlXPathCompOpEval?3?5function?5?$CFs@ ; `string'
PUBLIC	??_C@_0CJ@OFCEKGJC@XPath?3?5unknown?5precompiled?5oper@ ; `string'
PUBLIC	??_C@_0CJ@GKOHPKDK@xmlXPathRunEval?3?5last?5is?5less?5t@ ; `string'
PUBLIC	??_C@_0BN@BJKHBGFI@allocating?5namespaces?5array?6@ ; `string'
PUBLIC	??_C@_0CC@FJFLGALO@allocating?5streamable?5expressio@ ; `string'
PUBLIC	??_C@_0BG@PBKLCIKP@NULL?5context?5pointer?6@	; `string'
PUBLIC	??_C@_0CP@KKKCDCLL@xmlXPathCompiledEval?3?5No?5result@ ; `string'
PUBLIC	??_C@_0DH@OEPEKFKA@xmlXPathCompiledEval?3?5?$CFd?5object@ ; `string'
PUBLIC	??_C@_07GOBOHMJA@boolean@			; `string'
PUBLIC	??_C@_07EANFIDJB@ceiling@			; `string'
PUBLIC	??_C@_06CMLIEHFC@concat@			; `string'
PUBLIC	??_C@_08JKMOLGCD@contains@			; `string'
PUBLIC	??_C@_02EGCJHIOB@id@				; `string'
PUBLIC	??_C@_05PBJFFIGL@floor@				; `string'
PUBLIC	??_C@_04IOHABJIC@lang@				; `string'
PUBLIC	??_C@_0L@JNMMKGPH@local?9name@			; `string'
PUBLIC	??_C@_03NJKJADM@not@				; `string'
PUBLIC	??_C@_04MEMAJGDJ@name@				; `string'
PUBLIC	??_C@_0O@LIBIEKOH@namespace?9uri@		; `string'
PUBLIC	??_C@_0BA@GMCNNFIH@normalize?9space@		; `string'
PUBLIC	??_C@_06EBGNBFIA@number@			; `string'
PUBLIC	??_C@_08OAGMDKAF@position@			; `string'
PUBLIC	??_C@_05MIMAKCN@round@				; `string'
PUBLIC	??_C@_06ICGJLFIM@string@			; `string'
PUBLIC	??_C@_0O@NOLAIBIG@string?9length@		; `string'
PUBLIC	??_C@_0M@MENNCJLJ@starts?9with@			; `string'
PUBLIC	??_C@_09MJALBNED@substring@			; `string'
PUBLIC	??_C@_0BB@KKJFBMPK@substring?9before@		; `string'
PUBLIC	??_C@_0BA@JEDLCCAF@substring?9after@		; `string'
PUBLIC	??_C@_03CFFIJAMA@sum@				; `string'
PUBLIC	??_C@_09ODNGOEIO@translate@			; `string'
PUBLIC	??_C@_0CL@DABLMGPH@http?3?1?1www?4w3?4org?12002?108?1xquer@ ; `string'
PUBLIC	??_C@_0L@ODIBMOLP@escape?9uri@			; `string'
PUBLIC	__real@0000000000000000
PUBLIC	__real@3ee4f8b588e368f1
PUBLIC	__real@3fe0000000000000
PUBLIC	__real@3ff0000000000000
PUBLIC	__real@4024000000000000
PUBLIC	__real@41cdcd6500000000
PUBLIC	__real@41dfffffffc00000
PUBLIC	__real@7ff0000000000000
PUBLIC	__real@bfe0000000000000
PUBLIC	__real@c1e0000000000000
PUBLIC	__real@fff0000000000000
PUBLIC	__real@fff8000000000000
PUBLIC	__xmm@7fffffffffffffff7fffffffffffffff
PUBLIC	__xmm@80000000000000008000000000000000
EXTRN	_xmlStrdup:PROC
EXTRN	_xmlStrndup:PROC
EXTRN	_xmlStrchr:PROC
EXTRN	_xmlStrstr:PROC
EXTRN	_xmlStrncmp:PROC
EXTRN	_xmlStrEqual:PROC
EXTRN	_xmlStrlen:PROC
EXTRN	_xmlStrcat:PROC
EXTRN	_xmlStrPrintf:PROC
EXTRN	_xmlUTF8Strsize:PROC
EXTRN	_xmlUTF8Strpos:PROC
EXTRN	_xmlUTF8Strloc:PROC
EXTRN	_xmlUTF8Strsub:PROC
EXTRN	_xmlUTF8Strlen:PROC
EXTRN	__imp___dclass:PROC
EXTRN	__imp____acrt_iob_func:PROC
EXTRN	__imp____stdio_common_vfprintf:PROC
EXTRN	__imp____stdio_common_vsprintf:PROC
EXTRN	__imp__toupper:PROC
EXTRN	_xmlBufContent:PROC
EXTRN	_xmlDictReference:PROC
EXTRN	_xmlDictFree:PROC
EXTRN	_xmlDictLookup:PROC
EXTRN	_xmlBuildQName:PROC
EXTRN	_xmlDocGetRootElement:PROC
EXTRN	_xmlFreeNodeList:PROC
EXTRN	_xmlGetNsList:PROC
EXTRN	_xmlNodeGetContent:PROC
EXTRN	_xmlNodeGetLang:PROC
EXTRN	_xmlHashCreate:PROC
EXTRN	_xmlHashFree:PROC
EXTRN	_xmlHashDefaultDeallocator:PROC
EXTRN	_xmlHashAddEntry:PROC
EXTRN	_xmlHashUpdateEntry:PROC
EXTRN	_xmlHashAddEntry2:PROC
EXTRN	_xmlHashUpdateEntry2:PROC
EXTRN	_xmlHashRemoveEntry:PROC
EXTRN	_xmlHashRemoveEntry2:PROC
EXTRN	_xmlHashLookup:PROC
EXTRN	_xmlHashLookup2:PROC
EXTRN	_xmlResetError:PROC
EXTRN	___xmlRaiseError:PROC
EXTRN	_xmlGetID:PROC
EXTRN	__imp__free:PROC
EXTRN	__imp__realloc:PROC
EXTRN	__imp__exit:PROC
EXTRN	___xmlGenericError:PROC
EXTRN	___xmlGenericErrorContext:PROC
EXTRN	_xmlCharInRange:PROC
EXTRN	_xmlCopyChar:PROC
EXTRN	_xmlXPtrLocationSetCreate:PROC
EXTRN	_xmlXPtrFreeLocationSet:PROC
EXTRN	_xmlXPtrLocationSetMerge:PROC
EXTRN	_xmlXPtrNewRange:PROC
EXTRN	_xmlXPtrNewRangeNodeObject:PROC
EXTRN	_xmlXPtrLocationSetAdd:PROC
EXTRN	_xmlXPtrWrapLocationSet:PROC
EXTRN	_xmlDebugDumpString:PROC
EXTRN	_xmlDebugDumpAttr:PROC
EXTRN	_xmlDebugDumpOneNode:PROC
EXTRN	_xmlFreePattern:PROC
EXTRN	_xmlFreePatternList:PROC
EXTRN	_xmlPatterncompile:PROC
EXTRN	_xmlPatternStreamable:PROC
EXTRN	_xmlPatternMaxDepth:PROC
EXTRN	_xmlPatternMinDepth:PROC
EXTRN	_xmlPatternFromRoot:PROC
EXTRN	_xmlPatternGetStreamCtxt:PROC
EXTRN	_xmlFreeStreamCtxt:PROC
EXTRN	_xmlStreamPushNode:PROC
EXTRN	_xmlStreamPush:PROC
EXTRN	_xmlStreamPop:PROC
EXTRN	_xmlStreamWantsAnyNode:PROC
EXTRN	_xmlBufCreate:PROC
EXTRN	_xmlBufFree:PROC
EXTRN	_xmlBufAdd:PROC
EXTRN	@_RTC_CheckStackVars@8:PROC
EXTRN	@__CheckForDebuggerJustMyCode@4:PROC
EXTRN	__CIfmod:PROC
EXTRN	__RTC_CheckEsp:PROC
EXTRN	__RTC_InitBase:PROC
EXTRN	__RTC_Shutdown:PROC
EXTRN	__allshl:PROC
EXTRN	__aullshr:PROC
EXTRN	__libm_sse2_log10_precise:PROC
EXTRN	__libm_sse2_pow_precise:PROC
EXTRN	_ceil:PROC
EXTRN	_floor:PROC
EXTRN	_memcpy:PROC
EXTRN	_memmove:PROC
EXTRN	_memset:PROC
EXTRN	__fltused:DWORD
_DATA	SEGMENT
COMM	?_OptionsStorage@?1??__local_stdio_printf_options@@9@9:QWORD							; `__local_stdio_printf_options'::`2'::_OptionsStorage
_DATA	ENDS
;	COMDAT __xmm@80000000000000008000000000000000
CONST	SEGMENT
__xmm@80000000000000008000000000000000 DB 00H, 00H, 00H, 00H, 00H, 00H, 00H
	DB	080H, 00H, 00H, 00H, 00H, 00H, 00H, 00H, 080H
CONST	ENDS
;	COMDAT __xmm@7fffffffffffffff7fffffffffffffff
CONST	SEGMENT
__xmm@7fffffffffffffff7fffffffffffffff DB 0ffH, 0ffH, 0ffH, 0ffH, 0ffH, 0ffH
	DB	0ffH, 07fH, 0ffH, 0ffH, 0ffH, 0ffH, 0ffH, 0ffH, 0ffH, 07fH
CONST	ENDS
;	COMDAT __real@fff8000000000000
CONST	SEGMENT
__real@fff8000000000000 DQ 0fff8000000000000r	; -nan(ind)
CONST	ENDS
;	COMDAT __real@fff0000000000000
CONST	SEGMENT
__real@fff0000000000000 DQ 0fff0000000000000r	; -inf
CONST	ENDS
;	COMDAT __real@c1e0000000000000
CONST	SEGMENT
__real@c1e0000000000000 DQ 0c1e0000000000000r	; -2.14748e+09
CONST	ENDS
;	COMDAT __real@bfe0000000000000
CONST	SEGMENT
__real@bfe0000000000000 DQ 0bfe0000000000000r	; -0.5
CONST	ENDS
;	COMDAT __real@7ff0000000000000
CONST	SEGMENT
__real@7ff0000000000000 DQ 07ff0000000000000r	; inf
CONST	ENDS
;	COMDAT __real@41dfffffffc00000
CONST	SEGMENT
__real@41dfffffffc00000 DQ 041dfffffffc00000r	; 2.14748e+09
CONST	ENDS
;	COMDAT __real@41cdcd6500000000
CONST	SEGMENT
__real@41cdcd6500000000 DQ 041cdcd6500000000r	; 1e+09
CONST	ENDS
;	COMDAT __real@4024000000000000
CONST	SEGMENT
__real@4024000000000000 DQ 04024000000000000r	; 10
CONST	ENDS
;	COMDAT __real@3ff0000000000000
CONST	SEGMENT
__real@3ff0000000000000 DQ 03ff0000000000000r	; 1
CONST	ENDS
;	COMDAT __real@3fe0000000000000
CONST	SEGMENT
__real@3fe0000000000000 DQ 03fe0000000000000r	; 0.5
CONST	ENDS
;	COMDAT __real@3ee4f8b588e368f1
CONST	SEGMENT
__real@3ee4f8b588e368f1 DQ 03ee4f8b588e368f1r	; 1e-05
CONST	ENDS
;	COMDAT __real@0000000000000000
CONST	SEGMENT
__real@0000000000000000 DQ 00000000000000000r	; 0
CONST	ENDS
;	COMDAT rtc$TMZ
rtc$TMZ	SEGMENT
__RTC_Shutdown.rtc$TMZ DD FLAT:__RTC_Shutdown
rtc$TMZ	ENDS
;	COMDAT rtc$IMZ
rtc$IMZ	SEGMENT
__RTC_InitBase.rtc$IMZ DD FLAT:__RTC_InitBase
rtc$IMZ	ENDS
;	COMDAT ??_C@_0L@ODIBMOLP@escape?9uri@
CONST	SEGMENT
??_C@_0L@ODIBMOLP@escape?9uri@ DB 'escape-uri', 00H	; `string'
CONST	ENDS
;	COMDAT ??_C@_0CL@DABLMGPH@http?3?1?1www?4w3?4org?12002?108?1xquer@
CONST	SEGMENT
??_C@_0CL@DABLMGPH@http?3?1?1www?4w3?4org?12002?108?1xquer@ DB 'http://ww'
	DB	'w.w3.org/2002/08/xquery-functions', 00H	; `string'
CONST	ENDS
;	COMDAT ??_C@_09ODNGOEIO@translate@
CONST	SEGMENT
??_C@_09ODNGOEIO@translate@ DB 'translate', 00H		; `string'
CONST	ENDS
;	COMDAT ??_C@_03CFFIJAMA@sum@
CONST	SEGMENT
??_C@_03CFFIJAMA@sum@ DB 'sum', 00H			; `string'
CONST	ENDS
;	COMDAT ??_C@_0BA@JEDLCCAF@substring?9after@
CONST	SEGMENT
??_C@_0BA@JEDLCCAF@substring?9after@ DB 'substring-after', 00H ; `string'
CONST	ENDS
;	COMDAT ??_C@_0BB@KKJFBMPK@substring?9before@
CONST	SEGMENT
??_C@_0BB@KKJFBMPK@substring?9before@ DB 'substring-before', 00H ; `string'
CONST	ENDS
;	COMDAT ??_C@_09MJALBNED@substring@
CONST	SEGMENT
??_C@_09MJALBNED@substring@ DB 'substring', 00H		; `string'
CONST	ENDS
;	COMDAT ??_C@_0M@MENNCJLJ@starts?9with@
CONST	SEGMENT
??_C@_0M@MENNCJLJ@starts?9with@ DB 'starts-with', 00H	; `string'
CONST	ENDS
;	COMDAT ??_C@_0O@NOLAIBIG@string?9length@
CONST	SEGMENT
??_C@_0O@NOLAIBIG@string?9length@ DB 'string-length', 00H ; `string'
CONST	ENDS
;	COMDAT ??_C@_06ICGJLFIM@string@
CONST	SEGMENT
??_C@_06ICGJLFIM@string@ DB 'string', 00H		; `string'
CONST	ENDS
;	COMDAT ??_C@_05MIMAKCN@round@
CONST	SEGMENT
??_C@_05MIMAKCN@round@ DB 'round', 00H			; `string'
CONST	ENDS
;	COMDAT ??_C@_08OAGMDKAF@position@
CONST	SEGMENT
??_C@_08OAGMDKAF@position@ DB 'position', 00H		; `string'
CONST	ENDS
;	COMDAT ??_C@_06EBGNBFIA@number@
CONST	SEGMENT
??_C@_06EBGNBFIA@number@ DB 'number', 00H		; `string'
CONST	ENDS
;	COMDAT ??_C@_0BA@GMCNNFIH@normalize?9space@
CONST	SEGMENT
??_C@_0BA@GMCNNFIH@normalize?9space@ DB 'normalize-space', 00H ; `string'
CONST	ENDS
;	COMDAT ??_C@_0O@LIBIEKOH@namespace?9uri@
CONST	SEGMENT
??_C@_0O@LIBIEKOH@namespace?9uri@ DB 'namespace-uri', 00H ; `string'
CONST	ENDS
;	COMDAT ??_C@_04MEMAJGDJ@name@
CONST	SEGMENT
??_C@_04MEMAJGDJ@name@ DB 'name', 00H			; `string'
CONST	ENDS
;	COMDAT ??_C@_03NJKJADM@not@
CONST	SEGMENT
??_C@_03NJKJADM@not@ DB 'not', 00H			; `string'
CONST	ENDS
;	COMDAT ??_C@_0L@JNMMKGPH@local?9name@
CONST	SEGMENT
??_C@_0L@JNMMKGPH@local?9name@ DB 'local-name', 00H	; `string'
CONST	ENDS
;	COMDAT ??_C@_04IOHABJIC@lang@
CONST	SEGMENT
??_C@_04IOHABJIC@lang@ DB 'lang', 00H			; `string'
CONST	ENDS
;	COMDAT ??_C@_05PBJFFIGL@floor@
CONST	SEGMENT
??_C@_05PBJFFIGL@floor@ DB 'floor', 00H			; `string'
CONST	ENDS
;	COMDAT ??_C@_02EGCJHIOB@id@
CONST	SEGMENT
??_C@_02EGCJHIOB@id@ DB 'id', 00H			; `string'
CONST	ENDS
;	COMDAT ??_C@_08JKMOLGCD@contains@
CONST	SEGMENT
??_C@_08JKMOLGCD@contains@ DB 'contains', 00H		; `string'
CONST	ENDS
;	COMDAT ??_C@_06CMLIEHFC@concat@
CONST	SEGMENT
??_C@_06CMLIEHFC@concat@ DB 'concat', 00H		; `string'
CONST	ENDS
;	COMDAT ??_C@_07EANFIDJB@ceiling@
CONST	SEGMENT
??_C@_07EANFIDJB@ceiling@ DB 'ceiling', 00H		; `string'
CONST	ENDS
;	COMDAT ??_C@_07GOBOHMJA@boolean@
CONST	SEGMENT
??_C@_07GOBOHMJA@boolean@ DB 'boolean', 00H		; `string'
CONST	ENDS
;	COMDAT ??_C@_0DH@OEPEKFKA@xmlXPathCompiledEval?3?5?$CFd?5object@
CONST	SEGMENT
??_C@_0DH@OEPEKFKA@xmlXPathCompiledEval?3?5?$CFd?5object@ DB 'xmlXPathCom'
	DB	'piledEval: %d object(s) left on the stack.', 0aH, 00H ; `string'
CONST	ENDS
;	COMDAT ??_C@_0CP@KKKCDCLL@xmlXPathCompiledEval?3?5No?5result@
CONST	SEGMENT
??_C@_0CP@KKKCDCLL@xmlXPathCompiledEval?3?5No?5result@ DB 'xmlXPathCompil'
	DB	'edEval: No result on the stack.', 0aH, 00H	; `string'
CONST	ENDS
;	COMDAT ??_C@_0BG@PBKLCIKP@NULL?5context?5pointer?6@
CONST	SEGMENT
??_C@_0BG@PBKLCIKP@NULL?5context?5pointer?6@ DB 'NULL context pointer', 0aH
	DB	00H						; `string'
CONST	ENDS
;	COMDAT ??_C@_0CC@FJFLGALO@allocating?5streamable?5expressio@
CONST	SEGMENT
??_C@_0CC@FJFLGALO@allocating?5streamable?5expressio@ DB 'allocating stre'
	DB	'amable expression', 0aH, 00H		; `string'
CONST	ENDS
;	COMDAT ??_C@_0BN@BJKHBGFI@allocating?5namespaces?5array?6@
CONST	SEGMENT
??_C@_0BN@BJKHBGFI@allocating?5namespaces?5array?6@ DB 'allocating namesp'
	DB	'aces array', 0aH, 00H			; `string'
CONST	ENDS
;	COMDAT ??_C@_0CJ@GKOHPKDK@xmlXPathRunEval?3?5last?5is?5less?5t@
CONST	SEGMENT
??_C@_0CJ@GKOHPKDK@xmlXPathRunEval?3?5last?5is?5less?5t@ DB 'xmlXPathRunE'
	DB	'val: last is less than zero', 0aH, 00H	; `string'
CONST	ENDS
;	COMDAT ??_C@_0CJ@OFCEKGJC@XPath?3?5unknown?5precompiled?5oper@
CONST	SEGMENT
??_C@_0CJ@OFCEKGJC@XPath?3?5unknown?5precompiled?5oper@ DB 'XPath: unknow'
	DB	'n precompiled operation %d', 0aH, 00H	; `string'
CONST	ENDS
;	COMDAT ??_C@_0CL@KAMILNDJ@xmlXPathCompOpEval?3?5function?5?$CFs@
CONST	SEGMENT
??_C@_0CL@KAMILNDJ@xmlXPathCompOpEval?3?5function?5?$CFs@ DB 'xmlXPathCom'
	DB	'pOpEval: function %s not found', 0aH, 00H	; `string'
CONST	ENDS
;	COMDAT ??_C@_0DO@MGJDMDIG@xmlXPathCompOpEval?3?5function?5?$CFs@
CONST	SEGMENT
??_C@_0DO@MGJDMDIG@xmlXPathCompOpEval?3?5function?5?$CFs@ DB 'xmlXPathCom'
	DB	'pOpEval: function %s bound to undefined prefix %s', 0aH, 00H ; `string'
CONST	ENDS
;	COMDAT ??_C@_0CF@LMIGLEJC@xmlXPathCompOpEval?3?5parameter?5e@
CONST	SEGMENT
??_C@_0CF@LMIGLEJC@xmlXPathCompOpEval?3?5parameter?5e@ DB 'xmlXPathCompOp'
	DB	'Eval: parameter error', 0aH, 00H		; `string'
CONST	ENDS
;	COMDAT ??_C@_0DO@IDAPNIMJ@xmlXPathCompOpEval?3?5variable?5?$CFs@
CONST	SEGMENT
??_C@_0DO@IDAPNIMJ@xmlXPathCompOpEval?3?5variable?5?$CFs@ DB 'xmlXPathCom'
	DB	'pOpEval: variable %s bound to undefined prefix %s', 0aH, 00H ; `string'
CONST	ENDS
;	COMDAT ??_C@_04PLGBGIDD@last@
CONST	SEGMENT
??_C@_04PLGBGIDD@last@ DB 'last', 00H			; `string'
CONST	ENDS
;	COMDAT ??_C@_04PJDNGLKJ@self@
CONST	SEGMENT
??_C@_04PJDNGLKJ@self@ DB 'self', 00H			; `string'
CONST	ENDS
;	COMDAT ??_C@_0BC@MLGDENAI@preceding?9sibling@
CONST	SEGMENT
??_C@_0BC@MLGDENAI@preceding?9sibling@ DB 'preceding-sibling', 00H ; `string'
CONST	ENDS
;	COMDAT ??_C@_09MGMONEC@preceding@
CONST	SEGMENT
??_C@_09MGMONEC@preceding@ DB 'preceding', 00H		; `string'
CONST	ENDS
;	COMDAT ??_C@_06MLKDMCBD@parent@
CONST	SEGMENT
??_C@_06MLKDMCBD@parent@ DB 'parent', 00H		; `string'
CONST	ENDS
;	COMDAT ??_C@_09KPMGAFNI@namespace@
CONST	SEGMENT
??_C@_09KPMGAFNI@namespace@ DB 'namespace', 00H		; `string'
CONST	ENDS
;	COMDAT ??_C@_0BC@LMFKEKDG@following?9sibling@
CONST	SEGMENT
??_C@_0BC@LMFKEKDG@following?9sibling@ DB 'following-sibling', 00H ; `string'
CONST	ENDS
;	COMDAT ??_C@_09BEIPBMDN@following@
CONST	SEGMENT
??_C@_09BEIPBMDN@following@ DB 'following', 00H		; `string'
CONST	ENDS
;	COMDAT ??_C@_0BD@EPJHOOIL@descendant?9or?9self@
CONST	SEGMENT
??_C@_0BD@EPJHOOIL@descendant?9or?9self@ DB 'descendant-or-self', 00H ; `string'
CONST	ENDS
;	COMDAT ??_C@_0L@NJLDCKIO@descendant@
CONST	SEGMENT
??_C@_0L@NJLDCKIO@descendant@ DB 'descendant', 00H	; `string'
CONST	ENDS
;	COMDAT ??_C@_05GPGNDLEK@child@
CONST	SEGMENT
??_C@_05GPGNDLEK@child@ DB 'child', 00H			; `string'
CONST	ENDS
;	COMDAT ??_C@_09HGIEBAJ@attribute@
CONST	SEGMENT
??_C@_09HGIEBAJ@attribute@ DB 'attribute', 00H		; `string'
CONST	ENDS
;	COMDAT ??_C@_0BB@OLBPNJCF@ancestor?9or?9self@
CONST	SEGMENT
??_C@_0BB@OLBPNJCF@ancestor?9or?9self@ DB 'ancestor-or-self', 00H ; `string'
CONST	ENDS
;	COMDAT ??_C@_08HBEFDOBD@ancestor@
CONST	SEGMENT
??_C@_08HBEFDOBD@ancestor@ DB 'ancestor', 00H		; `string'
CONST	ENDS
;	COMDAT ??_C@_0BJ@DADKHPPP@Internal?5error?5at?5?$CFs?3?$CFd?6@
CONST	SEGMENT
??_C@_0BJ@DADKHPPP@Internal?5error?5at?5?$CFs?3?$CFd?6@ DB 'Internal erro'
	DB	'r at %s:%d', 0aH, 00H			; `string'
CONST	ENDS
;	COMDAT ??_C@_08KHINJAEH@range?9to@
CONST	SEGMENT
??_C@_08KHINJAEH@range?9to@ DB 'range-to', 00H		; `string'
CONST	ENDS
;	COMDAT ??_C@_02MOLJINC@?3?3@
CONST	SEGMENT
??_C@_02MOLJINC@?3?3@ DB '::', 00H			; `string'
CONST	ENDS
;	COMDAT ??_C@_05IOMEMJEC@count@
CONST	SEGMENT
??_C@_05IOMEMJEC@count@ DB 'count', 00H			; `string'
CONST	ENDS
;	COMDAT ??_C@_0BH@NNLCFMHO@processing?9instruction@
CONST	SEGMENT
??_C@_0BH@NNLCFMHO@processing?9instruction@ DB 'processing-instruction', 00H ; `string'
CONST	ENDS
;	COMDAT ??_C@_07GJGNEJFD@comment@
CONST	SEGMENT
??_C@_07GJGNEJFD@comment@ DB 'comment', 00H		; `string'
CONST	ENDS
;	COMDAT ??_C@_04CIMGMMMG@text@
CONST	SEGMENT
??_C@_04CIMGMMMG@text@ DB 'text', 00H			; `string'
CONST	ENDS
;	COMDAT ??_C@_04CLMONKIF@node@
CONST	SEGMENT
??_C@_04CLMONKIF@node@ DB 'node', 00H			; `string'
CONST	ENDS
;	COMDAT ??_C@_0DA@NKGEEAEF@xmlXPathTranslateFunction?3?5Inva@
CONST	SEGMENT
??_C@_0DA@NKGEEAEF@xmlXPathTranslateFunction?3?5Inva@ DB 'xmlXPathTransla'
	DB	'teFunction: Invalid UTF8 string', 0aH, 00H	; `string'
CONST	ENDS
;	COMDAT ??_C@_0BC@MHFGEIED@fake?5node?5libxslt@
CONST	SEGMENT
??_C@_0BC@MHFGEIED@fake?5node?5libxslt@ DB 'fake node libxslt', 00H ; `string'
CONST	ENDS
;	COMDAT ??_C@_0EL@MECKCKJO@xmlXPathCompareNodeSetValue?3?5Ca@
CONST	SEGMENT
??_C@_0EL@MECKCKJO@xmlXPathCompareNodeSetValue?3?5Ca@ DB 'xmlXPathCompare'
	DB	'NodeSetValue: Can''t compare node set and object of type %d', 0aH
	DB	00H						; `string'
CONST	ENDS
;	COMDAT ??_C@_0BE@EIMBPOMM@comparing?5nodesets?6@
CONST	SEGMENT
??_C@_0BE@EIMBPOMM@comparing?5nodesets?6@ DB 'comparing nodesets', 0aH, 00H ; `string'
CONST	ENDS
;	COMDAT ??_C@_0BN@DLELJOPA@creating?5evaluation?5context?6@
CONST	SEGMENT
??_C@_0BN@DLELJOPA@creating?5evaluation?5context?6@ DB 'creating evaluati'
	DB	'on context', 0aH, 00H			; `string'
CONST	ENDS
;	COMDAT ??_C@_0BJ@KFGJCHDI@creating?5parser?5context?6@
CONST	SEGMENT
??_C@_0BJ@KFGJCHDI@creating?5parser?5context?6@ DB 'creating parser conte'
	DB	'xt', 0aH, 00H				; `string'
CONST	ENDS
;	COMDAT ??_C@_0BC@GBNJEJGK@creating?5context?6@
CONST	SEGMENT
??_C@_0BC@GBNJEJGK@creating?5context?6@ DB 'creating context', 0aH, 00H ; `string'
CONST	ENDS
;	COMDAT ??_C@_05LAPONLG@false@
CONST	SEGMENT
??_C@_05LAPONLG@false@ DB 'false', 00H			; `string'
CONST	ENDS
;	COMDAT ??_C@_04LOAJBDKD@true@
CONST	SEGMENT
??_C@_04LOAJBDKD@true@ DB 'true', 00H			; `string'
CONST	ENDS
;	COMDAT ??_C@_0CJ@OPCFGEGG@xmlXPathObjectCopy?3?5unsupported@
CONST	SEGMENT
??_C@_0CJ@OPCFGEGG@xmlXPathObjectCopy?3?5unsupported@ DB 'xmlXPathObjectC'
	DB	'opy: unsupported type %d', 0aH, 00H		; `string'
CONST	ENDS
;	COMDAT ??_C@_0BA@KJDNPDLE@copying?5object?6@
CONST	SEGMENT
??_C@_0BA@KJDNPDLE@copying?5object?6@ DB 'copying object', 0aH, 00H ; `string'
CONST	ENDS
;	COMDAT ??_C@_0BG@ENIHPAML@creating?5user?5object?6@
CONST	SEGMENT
??_C@_0BG@ENIHPAML@creating?5user?5object?6@ DB 'creating user object', 0aH
	DB	00H						; `string'
CONST	ENDS
;	COMDAT ??_C@_0BI@BJAGDAFP@creating?5string?5object?6@
CONST	SEGMENT
??_C@_0BI@BJAGDAFP@creating?5string?5object?6@ DB 'creating string object'
	DB	0aH, 00H					; `string'
CONST	ENDS
;	COMDAT ??_C@_0BJ@ECLOGIHC@creating?5boolean?5object?6@
CONST	SEGMENT
??_C@_0BJ@ECLOGIHC@creating?5boolean?5object?6@ DB 'creating boolean obje'
	DB	'ct', 0aH, 00H				; `string'
CONST	ENDS
;	COMDAT ??_C@_0BH@FGBKIIOK@creating?5float?5object?6@
CONST	SEGMENT
??_C@_0BH@FGBKIIOK@creating?5float?5object?6@ DB 'creating float object', 0aH
	DB	00H						; `string'
CONST	ENDS
;	COMDAT ??_C@_0BK@DGDFHNNJ@creating?5node?5set?5object?6@
CONST	SEGMENT
??_C@_0BK@DGDFHNNJ@creating?5node?5set?5object?6@ DB 'creating node set o'
	DB	'bject', 0aH, 00H				; `string'
CONST	ENDS
;	COMDAT ??_C@_0BM@FFJIGPKH@creating?5result?5value?5tree?6@
CONST	SEGMENT
??_C@_0BM@FFJIGPKH@creating?5result?5value?5tree?6@ DB 'creating result v'
	DB	'alue tree', 0aH, 00H			; `string'
CONST	ENDS
;	COMDAT ??_C@_0BL@DBOLJGCN@merging?5nodeset?5hit?5limit?6@
CONST	SEGMENT
??_C@_0BL@DBOLJGCN@merging?5nodeset?5hit?5limit?6@ DB 'merging nodeset hi'
	DB	't limit', 0aH, 00H				; `string'
CONST	ENDS
;	COMDAT ??_C@_0BB@IMBJKAMG@merging?5nodeset?6@
CONST	SEGMENT
??_C@_0BB@IMBJKAMG@merging?5nodeset?6@ DB 'merging nodeset', 0aH, 00H ; `string'
CONST	ENDS
;	COMDAT ??_C@_0BL@JKBEHGK@growing?5nodeset?5hit?5limit?6@
CONST	SEGMENT
??_C@_0BL@JKBEHGK@growing?5nodeset?5hit?5limit?6@ DB 'growing nodeset hit'
	DB	' limit', 0aH, 00H				; `string'
CONST	ENDS
;	COMDAT ??_C@_0BB@HLDFGIFL@growing?5nodeset?6@
CONST	SEGMENT
??_C@_0BB@HLDFGIFL@growing?5nodeset?6@ DB 'growing nodeset', 0aH, 00H ; `string'
CONST	ENDS
;	COMDAT ??_C@_0BC@LBLPMNCN@creating?5nodeset?6@
CONST	SEGMENT
??_C@_0BC@LBLPMNCN@creating?5nodeset?6@ DB 'creating nodeset', 0aH, 00H ; `string'
CONST	ENDS
;	COMDAT ??_C@_0BH@EHGBBAJH@duplicating?5namespace?6@
CONST	SEGMENT
??_C@_0BH@EHGBBAJH@duplicating?5namespace?6@ DB 'duplicating namespace', 0aH
	DB	00H						; `string'
CONST	ENDS
;	COMDAT ??_C@_05POONKFEF@?$CF0?4?$CKf@
CONST	SEGMENT
??_C@_05POONKFEF@?$CF0?4?$CKf@ DB '%0.*f', 00H		; `string'
CONST	ENDS
;	COMDAT ??_C@_05PPJAHJKF@?$CF?$CK?4?$CKe@
CONST	SEGMENT
??_C@_05PPJAHJKF@?$CF?$CK?4?$CKe@ DB '%*.*e', 00H	; `string'
CONST	ENDS
;	COMDAT ??_C@_01GBGANLPD@0@
CONST	SEGMENT
??_C@_01GBGANLPD@0@ DB '0', 00H				; `string'
CONST	ENDS
;	COMDAT ??_C@_03ICJPMMHB@NaN@
CONST	SEGMENT
??_C@_03ICJPMMHB@NaN@ DB 'NaN', 00H			; `string'
CONST	ENDS
;	COMDAT ??_C@_09BLDCEMOH@?9Infinity@
CONST	SEGMENT
??_C@_09BLDCEMOH@?9Infinity@ DB '-Infinity', 00H	; `string'
CONST	ENDS
;	COMDAT ??_C@_08KEBCLIFP@Infinity@
CONST	SEGMENT
??_C@_08KEBCLIFP@Infinity@ DB 'Infinity', 00H		; `string'
CONST	ENDS
;	COMDAT ??_C@_0P@LENPPBCI@pushing?5value?6@
CONST	SEGMENT
??_C@_0P@LENPPBCI@pushing?5value?6@ DB 'pushing value', 0aH, 00H ; `string'
CONST	ENDS
;	COMDAT ??_C@_0CB@EAFHACKN@XPath?5stack?5depth?5limit?5reached@
CONST	SEGMENT
??_C@_0CB@EAFHACKN@XPath?5stack?5depth?5limit?5reached@ DB 'XPath stack d'
	DB	'epth limit reached', 0aH, 00H		; `string'
CONST	ENDS
;	COMDAT ??_C@_0BO@MDEMDPPE@Unimplemented?5block?5at?5?$CFs?3?$CFd?6@
CONST	SEGMENT
??_C@_0BO@MDEMDPPE@Unimplemented?5block?5at?5?$CFs?3?$CFd?6@ DB 'Unimplem'
	DB	'ented block at %s:%d', 0aH, 00H		; `string'
CONST	ENDS
;	COMDAT ??_C@_0GH@HIGHEHKE@c?3?2users?2dag?2documents?2_clients@
CONST	SEGMENT
??_C@_0GH@HIGHEHKE@c?3?2users?2dag?2documents?2_clients@ DB 'c:\users\dag'
	DB	'\documents\_clients\codeproject authors group\windows on arm\'
	DB	'libxml2\libxml2-2.9.9\xpath.c', 00H		; `string'
CONST	ENDS
;	COMDAT ??_C@_00CNPNBAHC@@
CONST	SEGMENT
??_C@_00CNPNBAHC@@ DB 00H				; `string'
CONST	ENDS
;	COMDAT ??_C@_0BH@LJLEGFLD@creating?5object?5cache?6@
CONST	SEGMENT
??_C@_0BH@LJLEGFLD@creating?5object?5cache?6@ DB 'creating object cache', 0aH
	DB	00H						; `string'
CONST	ENDS
;	COMDAT ??_C@_0CD@DHBDACDN@Compiled?5Expression?5?3?5?$CFd?5elemen@
CONST	SEGMENT
??_C@_0CD@DHBDACDN@Compiled?5Expression?5?3?5?$CFd?5elemen@ DB 'Compiled '
	DB	'Expression : %d elements', 0aH, 00H		; `string'
CONST	ENDS
;	COMDAT ??_C@_0BG@FMDDAOLJ@Streaming?5Expression?6@
CONST	SEGMENT
??_C@_0BG@FMDDAOLJ@Streaming?5Expression?6@ DB 'Streaming Expression', 0aH
	DB	00H						; `string'
CONST	ENDS
;	COMDAT ??_C@_0M@BEEHJFLN@UNKNOWN?5?$CFd?6@
CONST	SEGMENT
??_C@_0M@BEEHJFLN@UNKNOWN?5?$CFd?6@ DB 'UNKNOWN %d', 0aH, 00H ; `string'
CONST	ENDS
;	COMDAT ??_C@_07LNDIAM@RANGETO@
CONST	SEGMENT
??_C@_07LNDIAM@RANGETO@ DB 'RANGETO', 00H		; `string'
CONST	ENDS
;	COMDAT ??_C@_06EKKPGGCG@FILTER@
CONST	SEGMENT
??_C@_06EKKPGGCG@FILTER@ DB 'FILTER', 00H		; `string'
CONST	ENDS
;	COMDAT ??_C@_09NKOLJOJL@PREDICATE@
CONST	SEGMENT
??_C@_09NKOLJOJL@PREDICATE@ DB 'PREDICATE', 00H		; `string'
CONST	ENDS
;	COMDAT ??_C@_03CNBDDMKH@ARG@
CONST	SEGMENT
??_C@_03CNBDDMKH@ARG@ DB 'ARG', 00H			; `string'
CONST	ENDS
;	COMDAT ??_C@_0BF@LKMAOONC@FUNCTION?5?$CFs?$CI?$CFd?5args?$CJ@
CONST	SEGMENT
??_C@_0BF@LKMAOONC@FUNCTION?5?$CFs?$CI?$CFd?5args?$CJ@ DB 'FUNCTION %s(%d'
	DB	' args)', 00H				; `string'
CONST	ENDS
;	COMDAT ??_C@_0BI@JIAOIFFJ@FUNCTION?5?$CFs?3?$CFs?$CI?$CFd?5args?$CJ@
CONST	SEGMENT
??_C@_0BI@JIAOIFFJ@FUNCTION?5?$CFs?3?$CFs?$CI?$CFd?5args?$CJ@ DB 'FUNCTIO'
	DB	'N %s:%s(%d args)', 00H			; `string'
CONST	ENDS
;	COMDAT ??_C@_0M@MLPGFJHH@VARIABLE?5?$CFs@
CONST	SEGMENT
??_C@_0M@MLPGFJHH@VARIABLE?5?$CFs@ DB 'VARIABLE %s', 00H ; `string'
CONST	ENDS
;	COMDAT ??_C@_0P@MLBLHJNB@VARIABLE?5?$CFs?3?$CFs@
CONST	SEGMENT
??_C@_0P@MLBLHJNB@VARIABLE?5?$CFs?3?$CFs@ DB 'VARIABLE %s:%s', 00H ; `string'
CONST	ENDS
;	COMDAT ??_C@_05MNKHOCPF@ELEM?5@
CONST	SEGMENT
??_C@_05MNKHOCPF@ELEM?5@ DB 'ELEM ', 00H		; `string'
CONST	ENDS
;	COMDAT ??_C@_03DKEJHHJP@?$CFs?3@
CONST	SEGMENT
??_C@_03DKEJHHJP@?$CFs?3@ DB '%s:', 00H			; `string'
CONST	ENDS
;	COMDAT ??_C@_07KMAJMJAK@?8text?8?5@
CONST	SEGMENT
??_C@_07KMAJMJAK@?8text?8?5@ DB '''text'' ', 00H	; `string'
CONST	ENDS
;	COMDAT ??_C@_0L@BBLKKJMH@?8comment?8?5@
CONST	SEGMENT
??_C@_0L@BBLKKJMH@?8comment?8?5@ DB '''comment'' ', 00H	; `string'
CONST	ENDS
;	COMDAT ??_C@_07IDIJGDJF@?8node?8?5@
CONST	SEGMENT
??_C@_07IDIJGDJF@?8node?8?5@ DB '''node'' ', 00H	; `string'
CONST	ENDS
;	COMDAT ??_C@_07LEJDGAJE@?8name?8?5@
CONST	SEGMENT
??_C@_07LEJDGAJE@?8name?8?5@ DB '''name'' ', 00H	; `string'
CONST	ENDS
;	COMDAT ??_C@_0N@CLKBKNNJ@?8namespace?8?5@
CONST	SEGMENT
??_C@_0N@CLKBKNNJ@?8namespace?8?5@ DB '''namespace'' ', 00H ; `string'
CONST	ENDS
;	COMDAT ??_C@_06COJFFNFM@?8all?8?5@
CONST	SEGMENT
??_C@_06COJFFNFM@?8all?8?5@ DB '''all'' ', 00H		; `string'
CONST	ENDS
;	COMDAT ??_C@_05CCBNMHGJ@?8PI?8?5@
CONST	SEGMENT
??_C@_05CCBNMHGJ@?8PI?8?5@ DB '''PI'' ', 00H		; `string'
CONST	ENDS
;	COMDAT ??_C@_07MIHANB@?8type?8?5@
CONST	SEGMENT
??_C@_07MIHANB@?8type?8?5@ DB '''type'' ', 00H		; `string'
CONST	ENDS
;	COMDAT ??_C@_07MJDJHLDE@?8none?8?5@
CONST	SEGMENT
??_C@_07MJDJHLDE@?8none?8?5@ DB '''none'' ', 00H	; `string'
CONST	ENDS
;	COMDAT ??_C@_08HAEBALG@?5?8self?8?5@
CONST	SEGMENT
??_C@_08HAEBALG@?5?8self?8?5@ DB ' ''self'' ', 00H	; `string'
CONST	ENDS
;	COMDAT ??_C@_0BG@LJHOBDKP@?5?8preceding?9sibling?8?5@
CONST	SEGMENT
??_C@_0BG@LJHOBDKP@?5?8preceding?9sibling?8?5@ DB ' ''preceding-sibling'''
	DB	' ', 00H					; `string'
CONST	ENDS
;	COMDAT ??_C@_0O@BNHFEBDE@?5?8preceding?8?5@
CONST	SEGMENT
??_C@_0O@BNHFEBDE@?5?8preceding?8?5@ DB ' ''preceding'' ', 00H ; `string'
CONST	ENDS
;	COMDAT ??_C@_0L@BKJAGPFG@?5?8parent?8?5@
CONST	SEGMENT
??_C@_0L@BKJAGPFG@?5?8parent?8?5@ DB ' ''parent'' ', 00H ; `string'
CONST	ENDS
;	COMDAT ??_C@_0O@DIAKOKEE@?5?8namespace?8?5@
CONST	SEGMENT
??_C@_0O@DIAKOKEE@?5?8namespace?8?5@ DB ' ''namespace'' ', 00H ; `string'
CONST	ENDS
;	COMDAT ??_C@_0BH@KMMFLMJK@?5?8following?9siblings?8?5@
CONST	SEGMENT
??_C@_0BH@KMMFLMJK@?5?8following?9siblings?8?5@ DB ' ''following-siblings'
	DB	''' ', 00H					; `string'
CONST	ENDS
;	COMDAT ??_C@_0O@HPGIPOGE@?5?8following?8?5@
CONST	SEGMENT
??_C@_0O@HPGIPOGE@?5?8following?8?5@ DB ' ''following'' ', 00H ; `string'
CONST	ENDS
;	COMDAT ??_C@_0BH@OLEEPEHL@?5?8descendant?9or?9self?8?5@
CONST	SEGMENT
??_C@_0BH@OLEEPEHL@?5?8descendant?9or?9self?8?5@ DB ' ''descendant-or-sel'
	DB	'f'' ', 00H					; `string'
CONST	ENDS
;	COMDAT ??_C@_0P@COPGHIIE@?5?8descendant?8?5@
CONST	SEGMENT
??_C@_0P@COPGHIIE@?5?8descendant?8?5@ DB ' ''descendant'' ', 00H ; `string'
CONST	ENDS
;	COMDAT ??_C@_09DMHOAOKE@?5?8child?8?5@
CONST	SEGMENT
??_C@_09DMHOAOKE@?5?8child?8?5@ DB ' ''child'' ', 00H	; `string'
CONST	ENDS
;	COMDAT ??_C@_0P@IMBNHOPA@?5?8attributes?8?5@
CONST	SEGMENT
??_C@_0P@IMBNHOPA@?5?8attributes?8?5@ DB ' ''attributes'' ', 00H ; `string'
CONST	ENDS
;	COMDAT ??_C@_0BG@IJDLJMNP@?5?8ancestors?9or?9self?8?5@
CONST	SEGMENT
??_C@_0BG@IJDLJMNP@?5?8ancestors?9or?9self?8?5@ DB ' ''ancestors-or-self'''
	DB	' ', 00H					; `string'
CONST	ENDS
;	COMDAT ??_C@_0O@CBBIECFC@?5?8ancestors?8?5@
CONST	SEGMENT
??_C@_0O@CBBIECFC@?5?8ancestors?8?5@ DB ' ''ancestors'' ', 00H ; `string'
CONST	ENDS
;	COMDAT ??_C@_08BCOGFDOM@COLLECT?5@
CONST	SEGMENT
??_C@_08BCOGFDOM@COLLECT?5@ DB 'COLLECT ', 00H		; `string'
CONST	ENDS
;	COMDAT ??_C@_04DEPGJHBM@SORT@
CONST	SEGMENT
??_C@_04DEPGJHBM@SORT@ DB 'SORT', 00H			; `string'
CONST	ENDS
;	COMDAT ??_C@_04OHPEDIPN@NODE@
CONST	SEGMENT
??_C@_04OHPEDIPN@NODE@ DB 'NODE', 00H			; `string'
CONST	ENDS
;	COMDAT ??_C@_04BNGIIOIP@ROOT@
CONST	SEGMENT
??_C@_04BNGIIOIP@ROOT@ DB 'ROOT', 00H			; `string'
CONST	ENDS
;	COMDAT ??_C@_05GJNJOPB@UNION@
CONST	SEGMENT
??_C@_05GJNJOPB@UNION@ DB 'UNION', 00H			; `string'
CONST	ENDS
;	COMDAT ??_C@_08HFMOIFCL@MULT?5mod@
CONST	SEGMENT
??_C@_08HFMOIFCL@MULT?5mod@ DB 'MULT mod', 00H		; `string'
CONST	ENDS
;	COMDAT ??_C@_08HELPMGMA@MULT?5div@
CONST	SEGMENT
??_C@_08HELPMGMA@MULT?5div@ DB 'MULT div', 00H		; `string'
CONST	ENDS
;	COMDAT ??_C@_06JFEGAKAJ@MULT?5?$CK@
CONST	SEGMENT
??_C@_06JFEGAKAJ@MULT?5?$CK@ DB 'MULT *', 00H		; `string'
CONST	ENDS
;	COMDAT ??_C@_0P@FAIBJAJD@PLUS?5unary?5?9?5?9@
CONST	SEGMENT
??_C@_0P@FAIBJAJD@PLUS?5unary?5?9?5?9@ DB 'PLUS unary - -', 00H ; `string'
CONST	ENDS
;	COMDAT ??_C@_0N@GEIAIOPG@PLUS?5unary?5?9@
CONST	SEGMENT
??_C@_0N@GEIAIOPG@PLUS?5unary?5?9@ DB 'PLUS unary -', 00H ; `string'
CONST	ENDS
;	COMDAT ??_C@_06FOKKFIFP@PLUS?5?$CL@
CONST	SEGMENT
??_C@_06FOKKFIFP@PLUS?5?$CL@ DB 'PLUS +', 00H		; `string'
CONST	ENDS
;	COMDAT ??_C@_06IPAPPNJ@PLUS?5?9@
CONST	SEGMENT
??_C@_06IPAPPNJ@PLUS?5?9@ DB 'PLUS -', 00H		; `string'
CONST	ENDS
;	COMDAT ??_C@_01NEMOKFLO@?$DN@
CONST	SEGMENT
??_C@_01NEMOKFLO@?$DN@ DB '=', 00H			; `string'
CONST	ENDS
;	COMDAT ??_C@_05NFBHOIFJ@CMP?5?$DO@
CONST	SEGMENT
??_C@_05NFBHOIFJ@CMP?5?$DO@ DB 'CMP >', 00H		; `string'
CONST	ENDS
;	COMDAT ??_C@_05OHCBIKNL@CMP?5?$DM@
CONST	SEGMENT
??_C@_05OHCBIKNL@CMP?5?$DM@ DB 'CMP <', 00H		; `string'
CONST	ENDS
;	COMDAT ??_C@_08MPMADPIH@EQUAL?5?$CB?$DN@
CONST	SEGMENT
??_C@_08MPMADPIH@EQUAL?5?$CB?$DN@ DB 'EQUAL !=', 00H	; `string'
CONST	ENDS
;	COMDAT ??_C@_07MELFAPHK@EQUAL?5?$DN@
CONST	SEGMENT
??_C@_07MELFAPHK@EQUAL?5?$DN@ DB 'EQUAL =', 00H		; `string'
CONST	ENDS
;	COMDAT ??_C@_02PDPFNDMG@OR@
CONST	SEGMENT
??_C@_02PDPFNDMG@OR@ DB 'OR', 00H			; `string'
CONST	ENDS
;	COMDAT ??_C@_03BDACDFHA@AND@
CONST	SEGMENT
??_C@_03BDACDFHA@AND@ DB 'AND', 00H			; `string'
CONST	ENDS
;	COMDAT ??_C@_03JMGAKCCH@END@
CONST	SEGMENT
??_C@_03JMGAKCCH@END@ DB 'END', 00H			; `string'
CONST	ENDS
;	COMDAT ??_C@_0O@IEEDPMEL@Step?5is?5NULL?6@
CONST	SEGMENT
??_C@_0O@IEEDPMEL@Step?5is?5NULL?6@ DB 'Step is NULL', 0aH, 00H ; `string'
CONST	ENDS
;	COMDAT ??_C@_0BI@JJDBNCDG@Object?5is?5user?5defined?6@
CONST	SEGMENT
??_C@_0BI@JJDBNCDG@Object?5is?5user?5defined?6@ DB 'Object is user define'
	DB	'd', 0aH, 00H				; `string'
CONST	ENDS
;	COMDAT ??_C@_0BL@DOOMBINH@Object?5is?5a?5Location?5Set?3?6@
CONST	SEGMENT
??_C@_0BL@DOOMBINH@Object?5is?5a?5Location?5Set?3?6@ DB 'Object is a Loca'
	DB	'tion Set:', 0aH, 00H			; `string'
CONST	ENDS
;	COMDAT ??_C@_03EMNLBAKJ@To?5@
CONST	SEGMENT
??_C@_03EMNLBAKJ@To?5@ DB 'To ', 00H			; `string'
CONST	ENDS
;	COMDAT ??_C@_05KCOAJPAG@From?5@
CONST	SEGMENT
??_C@_05KCOAJPAG@From?5@ DB 'From ', 00H		; `string'
CONST	ENDS
;	COMDAT ??_C@_0BF@JIJMPGFP@Object?5is?5a?5range?5?3?6@
CONST	SEGMENT
??_C@_0BF@JIJMPGFP@Object?5is?5a?5range?5?3?6@ DB 'Object is a range :', 0aH
	DB	00H						; `string'
CONST	ENDS
;	COMDAT ??_C@_05GHBGFBPP@node?6@
CONST	SEGMENT
??_C@_05GHBGFBPP@node?6@ DB 'node', 0aH, 00H		; `string'
CONST	ENDS
;	COMDAT ??_C@_0N@IDICPBLK@index?5?$CFd?5in?5@
CONST	SEGMENT
??_C@_0N@IDICPBLK@index?5?$CFd?5in?5@ DB 'index %d in ', 00H ; `string'
CONST	ENDS
;	COMDAT ??_C@_0BP@BGPHFANM@Object?5is?5a?5collapsed?5range?5?3?6@
CONST	SEGMENT
??_C@_0BP@BGPHFANM@Object?5is?5a?5collapsed?5range?5?3?6@ DB 'Object is a'
	DB	' collapsed range :', 0aH, 00H		; `string'
CONST	ENDS
;	COMDAT ??_C@_0CF@IDHPHOMH@Object?5is?5a?5point?5?3?5index?5?$CFd?5in@
CONST	SEGMENT
??_C@_0CF@IDHPHOMH@Object?5is?5a?5point?5?3?5index?5?$CFd?5in@ DB 'Object'
	DB	' is a point : index %d in node', 00H	; `string'
CONST	ENDS
;	COMDAT ??_C@_01EEMJAFIK@?6@
CONST	SEGMENT
??_C@_01EEMJAFIK@?6@ DB 0aH, 00H			; `string'
CONST	ENDS
;	COMDAT ??_C@_0BG@IHKNOBPJ@Object?5is?5a?5string?5?3?5@
CONST	SEGMENT
??_C@_0BG@IHKNOBPJ@Object?5is?5a?5string?5?3?5@ DB 'Object is a string : '
	DB	00H						; `string'
CONST	ENDS
;	COMDAT ??_C@_0BK@DKICMGNF@Object?5is?5a?5number?5?3?5?$CF0g?6@
CONST	SEGMENT
??_C@_0BK@DKICMGNF@Object?5is?5a?5number?5?3?5?$CF0g?6@ DB 'Object is a n'
	DB	'umber : %0g', 0aH, 00H			; `string'
CONST	ENDS
;	COMDAT ??_C@_0BI@KDLCNKPI@Object?5is?5a?5number?5?3?50?6@
CONST	SEGMENT
??_C@_0BI@KDLCNKPI@Object?5is?5a?5number?5?3?50?6@ DB 'Object is a number'
	DB	' : 0', 0aH, 00H				; `string'
CONST	ENDS
;	COMDAT ??_C@_0BK@JAENJFCB@Object?5is?5a?5number?5?3?5NaN?6@
CONST	SEGMENT
??_C@_0BK@JAENJFCB@Object?5is?5a?5number?5?3?5NaN?6@ DB 'Object is a numb'
	DB	'er : NaN', 0aH, 00H				; `string'
CONST	ENDS
;	COMDAT ??_C@_0CA@CMBCDMBH@Object?5is?5a?5number?5?3?5?9Infinity?6@
CONST	SEGMENT
??_C@_0CA@CMBCDMBH@Object?5is?5a?5number?5?3?5?9Infinity?6@ DB 'Object is'
	DB	' a number : -Infinity', 0aH, 00H		; `string'
CONST	ENDS
;	COMDAT ??_C@_0BP@DBNKIPBA@Object?5is?5a?5number?5?3?5Infinity?6@
CONST	SEGMENT
??_C@_0BP@DBNKIPBA@Object?5is?5a?5number?5?3?5Infinity?6@ DB 'Object is a'
	DB	' number : Infinity', 0aH, 00H		; `string'
CONST	ENDS
;	COMDAT ??_C@_06NIOGPBNO@false?6@
CONST	SEGMENT
??_C@_06NIOGPBNO@false?6@ DB 'false', 0aH, 00H		; `string'
CONST	ENDS
;	COMDAT ??_C@_05LFIOBDML@true?6@
CONST	SEGMENT
??_C@_05LFIOBDML@true?6@ DB 'true', 0aH, 00H		; `string'
CONST	ENDS
;	COMDAT ??_C@_0BH@GPCPEGOI@Object?5is?5a?5Boolean?5?3?5@
CONST	SEGMENT
??_C@_0BH@GPCPEGOI@Object?5is?5a?5Boolean?5?3?5@ DB 'Object is a Boolean '
	DB	': ', 00H					; `string'
CONST	ENDS
;	COMDAT ??_C@_0CA@NNPHAPO@Object?5is?5an?5XSLT?5value?5tree?5?3?6@
CONST	SEGMENT
??_C@_0CA@NNPHAPO@Object?5is?5an?5XSLT?5value?5tree?5?3?6@ DB 'Object is '
	DB	'an XSLT value tree :', 0aH, 00H		; `string'
CONST	ENDS
;	COMDAT ??_C@_0BI@NCNINNMM@Object?5is?5a?5Node?5Set?5?3?6@
CONST	SEGMENT
??_C@_0BI@NCNINNMM@Object?5is?5a?5Node?5Set?5?3?6@ DB 'Object is a Node S'
	DB	'et :', 0aH, 00H				; `string'
CONST	ENDS
;	COMDAT ??_C@_0BJ@EGAONLPM@Object?5is?5uninitialized?6@
CONST	SEGMENT
??_C@_0BJ@EGAONLPM@Object?5is?5uninitialized?6@ DB 'Object is uninitializ'
	DB	'ed', 0aH, 00H				; `string'
CONST	ENDS
;	COMDAT ??_C@_0BI@CIBIAOEE@Object?5is?5empty?5?$CINULL?$CJ?6@
CONST	SEGMENT
??_C@_0BI@CIBIAOEE@Object?5is?5empty?5?$CINULL?$CJ?6@ DB 'Object is empty'
	DB	' (NULL)', 0aH, 00H				; `string'
CONST	ENDS
;	COMDAT ??_C@_05GJKEPAIO@?$CFd?5?3?5@
CONST	SEGMENT
??_C@_05GJKEPAIO@?$CFd?5?3?5@ DB '%d : ', 00H		; `string'
CONST	ENDS
;	COMDAT ??_C@_0BH@OMGEHPOG@LocationSet?5is?5NULL?5?$CB?6@
CONST	SEGMENT
??_C@_0BH@OMGEHPOG@LocationSet?5is?5NULL?5?$CB?6@ DB 'LocationSet is NULL'
	DB	' !', 0aH, 00H				; `string'
CONST	ENDS
;	COMDAT ??_C@_0BG@ODIPEGMA@Value?5Tree?5is?5NULL?5?$CB?6@
CONST	SEGMENT
??_C@_0BG@ODIPEGMA@Value?5Tree?5is?5NULL?5?$CB?6@ DB 'Value Tree is NULL '
	DB	'!', 0aH, 00H				; `string'
CONST	ENDS
;	COMDAT ??_C@_02DPKJAMEF@?$CFd@
CONST	SEGMENT
??_C@_02DPKJAMEF@?$CFd@ DB '%d', 00H			; `string'
CONST	ENDS
;	COMDAT ??_C@_0BI@CGJHGOLK@Set?5contains?5?$CFd?5nodes?3?6@
CONST	SEGMENT
??_C@_0BI@CGJHGOLK@Set?5contains?5?$CFd?5nodes?3?6@ DB 'Set contains %d n'
	DB	'odes:', 0aH, 00H				; `string'
CONST	ENDS
;	COMDAT ??_C@_0BD@CEACDENF@NodeSet?5is?5NULL?5?$CB?6@
CONST	SEGMENT
??_C@_0BD@CEACDENF@NodeSet?5is?5NULL?5?$CB?6@ DB 'NodeSet is NULL !', 0aH
	DB	00H						; `string'
CONST	ENDS
;	COMDAT ??_C@_03LHHHGGIK@?5?1?6@
CONST	SEGMENT
??_C@_03LHHHGGIK@?5?1?6@ DB ' /', 0aH, 00H		; `string'
CONST	ENDS
;	COMDAT ??_C@_0BA@OKLFJGHE@Node?5is?5NULL?5?$CB?6@
CONST	SEGMENT
??_C@_0BA@OKLFJGHE@Node?5is?5NULL?5?$CB?6@ DB 'Node is NULL !', 0aH, 00H ; `string'
CONST	ENDS
;	COMDAT ??_C@_0N@GHHFFDFC@adding?5step?6@
CONST	SEGMENT
??_C@_0N@GHHFFDFC@adding?5step?6@ DB 'adding step', 0aH, 00H ; `string'
CONST	ENDS
;	COMDAT ??_C@_0BC@EIFELMJ@allocating?5steps?6@
CONST	SEGMENT
??_C@_0BC@EIFELMJ@allocating?5steps?6@ DB 'allocating steps', 0aH, 00H ; `string'
CONST	ENDS
;	COMDAT ??_C@_0BG@OMFEJMIL@allocating?5component?6@
CONST	SEGMENT
??_C@_0BG@OMFEJMIL@allocating?5component?6@ DB 'allocating component', 0aH
	DB	00H						; `string'
CONST	ENDS
;	COMDAT ??_C@_0CL@LEBBNDKO@xmlPointerListAddSize?3?5re?9alloc@
CONST	SEGMENT
??_C@_0CL@LEBBNDKO@xmlPointerListAddSize?3?5re?9alloc@ DB 'xmlPointerList'
	DB	'AddSize: re-allocating item', 0aH, 00H	; `string'
CONST	ENDS
;	COMDAT ??_C@_0CH@GLHDGMAA@xmlPointerListCreate?3?5allocatin@
CONST	SEGMENT
??_C@_0CH@GLHDGMAA@xmlPointerListCreate?3?5allocatin@ DB 'xmlPointerListC'
	DB	'reate: allocating item', 0aH, 00H		; `string'
CONST	ENDS
;	COMDAT ??_C@_02DKCKIIND@?$CFs@
CONST	SEGMENT
??_C@_02DKCKIIND@?$CFs@ DB '%s', 00H			; `string'
CONST	ENDS
;	COMDAT ??_C@_0BK@GDFDKGPJ@Memory?5allocation?5failed?6@
CONST	SEGMENT
??_C@_0BK@GDFDKGPJ@Memory?5allocation?5failed?6@ DB 'Memory allocation fa'
	DB	'iled', 0aH, 00H				; `string'
CONST	ENDS
;	COMDAT ??_C@_0BP@DJFHNAOK@Memory?5allocation?5failed?5?3?5?$CFs?6@
CONST	SEGMENT
??_C@_0BP@DJFHNAOK@Memory?5allocation?5failed?5?3?5?$CFs?6@ DB 'Memory al'
	DB	'location failed : %s', 0aH, 00H		; `string'
CONST	ENDS
_DATA	SEGMENT
_xmlXPathXMLNamespace DD FLAT:_xmlXPathXMLNamespaceStruct
	ORG $+4
_xmlXPathErrorMessages DD FLAT:??_C@_03KDKBKEMD@Ok?6@
	DD	FLAT:??_C@_0BB@OKMDJLIM@Number?5encoding?6@
	DD	FLAT:??_C@_0BE@HEBMIFHL@Unfinished?5literal?6@
	DD	FLAT:??_C@_0BC@KLADNOLA@Start?5of?5literal?6@
	DD	FLAT:??_C@_0CD@PCDALDFN@Expected?5$?5for?5variable?5referen@
	DD	FLAT:??_C@_0BE@JIMEOEEA@Undefined?5variable?6@
	DD	FLAT:??_C@_0BD@MFLBJOMG@Invalid?5predicate?6@
	DD	FLAT:??_C@_0BE@CGBIHHBE@Invalid?5expression?6@
	DD	FLAT:??_C@_0BN@DKJEIEAC@Missing?5closing?5curly?5brace?6@
	DD	FLAT:??_C@_0BH@FDADKKDC@Unregistered?5function?6@
	DD	FLAT:??_C@_0BB@NCMBGCMG@Invalid?5operand?6@
	DD	FLAT:??_C@_0O@HECJPNOD@Invalid?5type?6@
	DD	FLAT:??_C@_0BN@CGCHLLOB@Invalid?5number?5of?5arguments?6@
	DD	FLAT:??_C@_0BG@JMBOPCAE@Invalid?5context?5size?6@
	DD	FLAT:??_C@_0BK@CKPBPDPH@Invalid?5context?5position?6@
	DD	FLAT:??_C@_0BJ@OGCHFJAK@Memory?5allocation?5error?6@
	DD	FLAT:??_C@_0O@JJFGCDGG@Syntax?5error?6@
	DD	FLAT:??_C@_0BA@IPNFPAOO@Resource?5error?6@
	DD	FLAT:??_C@_0BE@ILOLKABH@Sub?5resource?5error?6@
	DD	FLAT:??_C@_0BM@FJPIKKBA@Undefined?5namespace?5prefix?6@
	DD	FLAT:??_C@_0BA@ONCPONLN@Encoding?5error?6@
	DD	FLAT:??_C@_0BH@FAHNGONI@Char?5out?5of?5XML?5range?6@
	DD	FLAT:??_C@_0BP@HNOPDOE@Invalid?5or?5incomplete?5context?6@
	DD	FLAT:??_C@_0BD@MEAKLJLB@Stack?5usage?5error?6@
	DD	FLAT:??_C@_0BE@EKOADJON@Forbidden?5variable?6@
	DD	FLAT:??_C@_0BF@NKLLLIIE@?$DP?$DP?5Unknown?5error?5?$DP?$DP?6@
_DATA	ENDS
;	COMDAT ??_C@_0EA@JENGBCEE@Error?5allocating?5temporary?5stor@
CONST	SEGMENT
??_C@_0EA@JENGBCEE@Error?5allocating?5temporary?5stor@ DB 'Error allocati'
	DB	'ng temporary storage for tim sort: need %lu bytes', 00H ; `string'
CONST	ENDS
; Function compile flags: /Odt
;	COMDAT __JustMyCode_Default
_TEXT	SEGMENT
__JustMyCode_Default PROC				; COMDAT
	push	ebp
	mov	ebp, esp
	pop	ebp
	ret	0
__JustMyCode_Default ENDP
_TEXT	ENDS
; Function compile flags: /Odtp /RTCsu
; File c:\users\dag\documents\_clients\codeproject authors group\windows on arm\libxml2\libxml2-2.9.9\xpath.c
;	COMDAT _xmlXPathEscapeUriFunction
_TEXT	SEGMENT
_escape$ = -24						; size = 4
_cptr$ = -16						; size = 4
_target$ = -12						; size = 4
_escape_reserved$ = -8					; size = 4
_str$ = -4						; size = 4
_ctxt$ = 8						; size = 4
_nargs$ = 12						; size = 4
_xmlXPathEscapeUriFunction PROC				; COMDAT

; 15001: xmlXPathEscapeUriFunction(xmlXPathParserContextPtr ctxt, int nargs) {

	push	ebp
	mov	ebp, esp
	sub	esp, 28					; 0000001cH
	mov	eax, -858993460				; ccccccccH
	mov	DWORD PTR [ebp-28], eax
	mov	DWORD PTR [ebp-24], eax
	mov	DWORD PTR [ebp-20], eax
	mov	DWORD PTR [ebp-16], eax
	mov	DWORD PTR [ebp-12], eax
	mov	DWORD PTR [ebp-8], eax
	mov	DWORD PTR [ebp-4], eax
	mov	ecx, OFFSET __9DBA2A81_xpath@c
	call	@__CheckForDebuggerJustMyCode@4

; 15002:     xmlXPathObjectPtr str;
; 15003:     int escape_reserved;
; 15004:     xmlBufPtr target;
; 15005:     xmlChar *cptr;
; 15006:     xmlChar escape[4];
; 15007: 
; 15008:     CHECK_ARITY(2);

	cmp	DWORD PTR _ctxt$[ebp], 0
	jne	SHORT $LN5@xmlXPathEs
	jmp	$LN1@xmlXPathEs
$LN5@xmlXPathEs:
	cmp	DWORD PTR _nargs$[ebp], 2
	je	SHORT $LN6@xmlXPathEs
	push	12					; 0000000cH
	mov	eax, DWORD PTR _ctxt$[ebp]
	push	eax
	call	_xmlXPathErr
	add	esp, 8
	jmp	$LN1@xmlXPathEs
$LN6@xmlXPathEs:
	mov	ecx, DWORD PTR _ctxt$[ebp]
	mov	edx, DWORD PTR [ecx+44]
	add	edx, 2
	mov	eax, DWORD PTR _ctxt$[ebp]
	cmp	DWORD PTR [eax+20], edx
	jge	SHORT $LN7@xmlXPathEs
	push	23					; 00000017H
	mov	ecx, DWORD PTR _ctxt$[ebp]
	push	ecx
	call	_xmlXPathErr
	add	esp, 8
	jmp	$LN1@xmlXPathEs
$LN7@xmlXPathEs:

; 15009: 
; 15010:     escape_reserved = xmlXPathPopBoolean(ctxt);

	mov	edx, DWORD PTR _ctxt$[ebp]
	push	edx
	call	_xmlXPathPopBoolean
	add	esp, 4
	mov	DWORD PTR _escape_reserved$[ebp], eax

; 15011: 
; 15012:     CAST_TO_STRING;

	mov	eax, DWORD PTR _ctxt$[ebp]
	cmp	DWORD PTR [eax+16], 0
	je	SHORT $LN8@xmlXPathEs
	mov	ecx, DWORD PTR _ctxt$[ebp]
	mov	edx, DWORD PTR [ecx+16]
	cmp	DWORD PTR [edx], 4
	je	SHORT $LN8@xmlXPathEs
	push	1
	mov	eax, DWORD PTR _ctxt$[ebp]
	push	eax
	call	_xmlXPathStringFunction
	add	esp, 8
$LN8@xmlXPathEs:

; 15013:     str = valuePop(ctxt);

	mov	ecx, DWORD PTR _ctxt$[ebp]
	push	ecx
	call	_valuePop
	add	esp, 4
	mov	DWORD PTR _str$[ebp], eax

; 15014: 
; 15015:     target = xmlBufCreate();

	call	_xmlBufCreate
	mov	DWORD PTR _target$[ebp], eax

; 15016: 
; 15017:     escape[0] = '%';

	mov	edx, 1
	imul	eax, edx, 0
	mov	BYTE PTR _escape$[ebp+eax], 37		; 00000025H

; 15018:     escape[3] = 0;

	mov	ecx, 1
	imul	edx, ecx, 3
	mov	BYTE PTR _escape$[ebp+edx], 0

; 15019: 
; 15020:     if (target) {

	cmp	DWORD PTR _target$[ebp], 0
	je	$LN9@xmlXPathEs

; 15021: 	for (cptr = str->stringval; *cptr; cptr++) {

	mov	eax, DWORD PTR _str$[ebp]
	mov	ecx, DWORD PTR [eax+24]
	mov	DWORD PTR _cptr$[ebp], ecx
	jmp	SHORT $LN4@xmlXPathEs
$LN2@xmlXPathEs:
	mov	edx, DWORD PTR _cptr$[ebp]
	add	edx, 1
	mov	DWORD PTR _cptr$[ebp], edx
$LN4@xmlXPathEs:
	mov	eax, DWORD PTR _cptr$[ebp]
	movzx	ecx, BYTE PTR [eax]
	test	ecx, ecx
	je	$LN9@xmlXPathEs

; 15022: 	    if ((*cptr >= 'A' && *cptr <= 'Z') ||
; 15023: 		(*cptr >= 'a' && *cptr <= 'z') ||
; 15024: 		(*cptr >= '0' && *cptr <= '9') ||
; 15025: 		*cptr == '-' || *cptr == '_' || *cptr == '.' ||
; 15026: 		*cptr == '!' || *cptr == '~' || *cptr == '*' ||
; 15027: 		*cptr == '\''|| *cptr == '(' || *cptr == ')' ||
; 15028: 		(*cptr == '%' &&
; 15029: 		 ((cptr[1] >= 'A' && cptr[1] <= 'F') ||
; 15030: 		  (cptr[1] >= 'a' && cptr[1] <= 'f') ||
; 15031: 		  (cptr[1] >= '0' && cptr[1] <= '9')) &&
; 15032: 		 ((cptr[2] >= 'A' && cptr[2] <= 'F') ||
; 15033: 		  (cptr[2] >= 'a' && cptr[2] <= 'f') ||
; 15034: 		  (cptr[2] >= '0' && cptr[2] <= '9'))) ||

	mov	edx, DWORD PTR _cptr$[ebp]
	movzx	eax, BYTE PTR [edx]
	cmp	eax, 65					; 00000041H
	jl	SHORT $LN13@xmlXPathEs
	mov	ecx, DWORD PTR _cptr$[ebp]
	movzx	edx, BYTE PTR [ecx]
	cmp	edx, 90					; 0000005aH
	jle	$LN12@xmlXPathEs
$LN13@xmlXPathEs:
	mov	eax, DWORD PTR _cptr$[ebp]
	movzx	ecx, BYTE PTR [eax]
	cmp	ecx, 97					; 00000061H
	jl	SHORT $LN14@xmlXPathEs
	mov	edx, DWORD PTR _cptr$[ebp]
	movzx	eax, BYTE PTR [edx]
	cmp	eax, 122				; 0000007aH
	jle	$LN12@xmlXPathEs
$LN14@xmlXPathEs:
	mov	ecx, DWORD PTR _cptr$[ebp]
	movzx	edx, BYTE PTR [ecx]
	cmp	edx, 48					; 00000030H
	jl	SHORT $LN15@xmlXPathEs
	mov	eax, DWORD PTR _cptr$[ebp]
	movzx	ecx, BYTE PTR [eax]
	cmp	ecx, 57					; 00000039H
	jle	$LN12@xmlXPathEs
$LN15@xmlXPathEs:
	mov	edx, DWORD PTR _cptr$[ebp]
	movzx	eax, BYTE PTR [edx]
	cmp	eax, 45					; 0000002dH
	je	$LN12@xmlXPathEs
	mov	ecx, DWORD PTR _cptr$[ebp]
	movzx	edx, BYTE PTR [ecx]
	cmp	edx, 95					; 0000005fH
	je	$LN12@xmlXPathEs
	mov	eax, DWORD PTR _cptr$[ebp]
	movzx	ecx, BYTE PTR [eax]
	cmp	ecx, 46					; 0000002eH
	je	$LN12@xmlXPathEs
	mov	edx, DWORD PTR _cptr$[ebp]
	movzx	eax, BYTE PTR [edx]
	cmp	eax, 33					; 00000021H
	je	$LN12@xmlXPathEs
	mov	ecx, DWORD PTR _cptr$[ebp]
	movzx	edx, BYTE PTR [ecx]
	cmp	edx, 126				; 0000007eH
	je	$LN12@xmlXPathEs
	mov	eax, DWORD PTR _cptr$[ebp]
	movzx	ecx, BYTE PTR [eax]
	cmp	ecx, 42					; 0000002aH
	je	$LN12@xmlXPathEs
	mov	edx, DWORD PTR _cptr$[ebp]
	movzx	eax, BYTE PTR [edx]
	cmp	eax, 39					; 00000027H
	je	$LN12@xmlXPathEs
	mov	ecx, DWORD PTR _cptr$[ebp]
	movzx	edx, BYTE PTR [ecx]
	cmp	edx, 40					; 00000028H
	je	$LN12@xmlXPathEs
	mov	eax, DWORD PTR _cptr$[ebp]
	movzx	ecx, BYTE PTR [eax]
	cmp	ecx, 41					; 00000029H
	je	$LN12@xmlXPathEs
	mov	edx, DWORD PTR _cptr$[ebp]
	movzx	eax, BYTE PTR [edx]
	cmp	eax, 37					; 00000025H
	jne	$LN16@xmlXPathEs
	mov	ecx, 1
	shl	ecx, 0
	mov	edx, DWORD PTR _cptr$[ebp]
	movzx	eax, BYTE PTR [edx+ecx]
	cmp	eax, 65					; 00000041H
	jl	SHORT $LN18@xmlXPathEs
	mov	ecx, 1
	shl	ecx, 0
	mov	edx, DWORD PTR _cptr$[ebp]
	movzx	eax, BYTE PTR [edx+ecx]
	cmp	eax, 70					; 00000046H
	jle	SHORT $LN17@xmlXPathEs
$LN18@xmlXPathEs:
	mov	ecx, 1
	shl	ecx, 0
	mov	edx, DWORD PTR _cptr$[ebp]
	movzx	eax, BYTE PTR [edx+ecx]
	cmp	eax, 97					; 00000061H
	jl	SHORT $LN19@xmlXPathEs
	mov	ecx, 1
	shl	ecx, 0
	mov	edx, DWORD PTR _cptr$[ebp]
	movzx	eax, BYTE PTR [edx+ecx]
	cmp	eax, 102				; 00000066H
	jle	SHORT $LN17@xmlXPathEs
$LN19@xmlXPathEs:
	mov	ecx, 1
	shl	ecx, 0
	mov	edx, DWORD PTR _cptr$[ebp]
	movzx	eax, BYTE PTR [edx+ecx]
	cmp	eax, 48					; 00000030H
	jl	$LN16@xmlXPathEs
	mov	ecx, 1
	shl	ecx, 0
	mov	edx, DWORD PTR _cptr$[ebp]
	movzx	eax, BYTE PTR [edx+ecx]
	cmp	eax, 57					; 00000039H
	jg	SHORT $LN16@xmlXPathEs
$LN17@xmlXPathEs:
	mov	ecx, 1
	shl	ecx, 1
	mov	edx, DWORD PTR _cptr$[ebp]
	movzx	eax, BYTE PTR [edx+ecx]
	cmp	eax, 65					; 00000041H
	jl	SHORT $LN20@xmlXPathEs
	mov	ecx, 1
	shl	ecx, 1
	mov	edx, DWORD PTR _cptr$[ebp]
	movzx	eax, BYTE PTR [edx+ecx]
	cmp	eax, 70					; 00000046H
	jle	$LN12@xmlXPathEs
$LN20@xmlXPathEs:
	mov	ecx, 1
	shl	ecx, 1
	mov	edx, DWORD PTR _cptr$[ebp]
	movzx	eax, BYTE PTR [edx+ecx]
	cmp	eax, 97					; 00000061H
	jl	SHORT $LN21@xmlXPathEs
	mov	ecx, 1
	shl	ecx, 1
	mov	edx, DWORD PTR _cptr$[ebp]
	movzx	eax, BYTE PTR [edx+ecx]
	cmp	eax, 102				; 00000066H
	jle	$LN12@xmlXPathEs
$LN21@xmlXPathEs:
	mov	ecx, 1
	shl	ecx, 1
	mov	edx, DWORD PTR _cptr$[ebp]
	movzx	eax, BYTE PTR [edx+ecx]
	cmp	eax, 48					; 00000030H
	jl	SHORT $LN16@xmlXPathEs
	mov	ecx, 1
	shl	ecx, 1
	mov	edx, DWORD PTR _cptr$[ebp]
	movzx	eax, BYTE PTR [edx+ecx]
	cmp	eax, 57					; 00000039H
	jle	SHORT $LN12@xmlXPathEs
$LN16@xmlXPathEs:
	cmp	DWORD PTR _escape_reserved$[ebp], 0
	jne	$LN10@xmlXPathEs
	mov	ecx, DWORD PTR _cptr$[ebp]
	movzx	edx, BYTE PTR [ecx]
	cmp	edx, 59					; 0000003bH
	je	SHORT $LN12@xmlXPathEs
	mov	eax, DWORD PTR _cptr$[ebp]
	movzx	ecx, BYTE PTR [eax]
	cmp	ecx, 47					; 0000002fH
	je	SHORT $LN12@xmlXPathEs
	mov	edx, DWORD PTR _cptr$[ebp]
	movzx	eax, BYTE PTR [edx]
	cmp	eax, 63					; 0000003fH
	je	SHORT $LN12@xmlXPathEs
	mov	ecx, DWORD PTR _cptr$[ebp]
	movzx	edx, BYTE PTR [ecx]
	cmp	edx, 58					; 0000003aH
	je	SHORT $LN12@xmlXPathEs
	mov	eax, DWORD PTR _cptr$[ebp]
	movzx	ecx, BYTE PTR [eax]
	cmp	ecx, 64					; 00000040H
	je	SHORT $LN12@xmlXPathEs
	mov	edx, DWORD PTR _cptr$[ebp]
	movzx	eax, BYTE PTR [edx]
	cmp	eax, 38					; 00000026H
	je	SHORT $LN12@xmlXPathEs
	mov	ecx, DWORD PTR _cptr$[ebp]
	movzx	edx, BYTE PTR [ecx]
	cmp	edx, 61					; 0000003dH
	je	SHORT $LN12@xmlXPathEs
	mov	eax, DWORD PTR _cptr$[ebp]
	movzx	ecx, BYTE PTR [eax]
	cmp	ecx, 43					; 0000002bH
	je	SHORT $LN12@xmlXPathEs
	mov	edx, DWORD PTR _cptr$[ebp]
	movzx	eax, BYTE PTR [edx]
	cmp	eax, 36					; 00000024H
	je	SHORT $LN12@xmlXPathEs
	mov	ecx, DWORD PTR _cptr$[ebp]
	movzx	edx, BYTE PTR [ecx]
	cmp	edx, 44					; 0000002cH
	jne	SHORT $LN10@xmlXPathEs
$LN12@xmlXPathEs:

; 15035: 		(!escape_reserved &&
; 15036: 		 (*cptr == ';' || *cptr == '/' || *cptr == '?' ||
; 15037: 		  *cptr == ':' || *cptr == '@' || *cptr == '&' ||
; 15038: 		  *cptr == '=' || *cptr == '+' || *cptr == '$' ||
; 15039: 		  *cptr == ','))) {
; 15040: 		xmlBufAdd(target, cptr, 1);

	push	1
	mov	eax, DWORD PTR _cptr$[ebp]
	push	eax
	mov	ecx, DWORD PTR _target$[ebp]
	push	ecx
	call	_xmlBufAdd
	add	esp, 12					; 0000000cH

; 15041: 	    } else {

	jmp	$LN11@xmlXPathEs
$LN10@xmlXPathEs:

; 15042: 		if ((*cptr >> 4) < 10)

	mov	edx, DWORD PTR _cptr$[ebp]
	movzx	eax, BYTE PTR [edx]
	sar	eax, 4
	cmp	eax, 10					; 0000000aH
	jge	SHORT $LN24@xmlXPathEs

; 15043: 		    escape[1] = '0' + (*cptr >> 4);

	mov	ecx, DWORD PTR _cptr$[ebp]
	movzx	edx, BYTE PTR [ecx]
	sar	edx, 4
	add	edx, 48					; 00000030H
	mov	eax, 1
	shl	eax, 0
	mov	BYTE PTR _escape$[ebp+eax], dl
	jmp	SHORT $LN25@xmlXPathEs
$LN24@xmlXPathEs:

; 15044: 		else
; 15045: 		    escape[1] = 'A' - 10 + (*cptr >> 4);

	mov	ecx, DWORD PTR _cptr$[ebp]
	movzx	edx, BYTE PTR [ecx]
	sar	edx, 4
	add	edx, 55					; 00000037H
	mov	eax, 1
	shl	eax, 0
	mov	BYTE PTR _escape$[ebp+eax], dl
$LN25@xmlXPathEs:

; 15046: 		if ((*cptr & 0xF) < 10)

	mov	ecx, DWORD PTR _cptr$[ebp]
	movzx	edx, BYTE PTR [ecx]
	and	edx, 15					; 0000000fH
	cmp	edx, 10					; 0000000aH
	jge	SHORT $LN26@xmlXPathEs

; 15047: 		    escape[2] = '0' + (*cptr & 0xF);

	mov	eax, DWORD PTR _cptr$[ebp]
	movzx	ecx, BYTE PTR [eax]
	and	ecx, 15					; 0000000fH
	add	ecx, 48					; 00000030H
	mov	edx, 1
	shl	edx, 1
	mov	BYTE PTR _escape$[ebp+edx], cl
	jmp	SHORT $LN27@xmlXPathEs
$LN26@xmlXPathEs:

; 15048: 		else
; 15049: 		    escape[2] = 'A' - 10 + (*cptr & 0xF);

	mov	eax, DWORD PTR _cptr$[ebp]
	movzx	ecx, BYTE PTR [eax]
	and	ecx, 15					; 0000000fH
	add	ecx, 55					; 00000037H
	mov	edx, 1
	shl	edx, 1
	mov	BYTE PTR _escape$[ebp+edx], cl
$LN27@xmlXPathEs:

; 15050: 
; 15051: 		xmlBufAdd(target, &escape[0], 3);

	push	3
	mov	eax, 1
	imul	ecx, eax, 0
	lea	edx, DWORD PTR _escape$[ebp+ecx]
	push	edx
	mov	eax, DWORD PTR _target$[ebp]
	push	eax
	call	_xmlBufAdd
	add	esp, 12					; 0000000cH
$LN11@xmlXPathEs:

; 15052: 	    }
; 15053: 	}

	jmp	$LN2@xmlXPathEs
$LN9@xmlXPathEs:

; 15054:     }
; 15055:     valuePush(ctxt, xmlXPathCacheNewString(ctxt->context,

	mov	ecx, DWORD PTR _target$[ebp]
	push	ecx
	call	_xmlBufContent
	add	esp, 4
	push	eax
	mov	edx, DWORD PTR _ctxt$[ebp]
	mov	eax, DWORD PTR [edx+12]
	push	eax
	call	_xmlXPathCacheNewString
	add	esp, 8
	push	eax
	mov	ecx, DWORD PTR _ctxt$[ebp]
	push	ecx
	call	_valuePush
	add	esp, 8

; 15056: 	xmlBufContent(target)));
; 15057:     xmlBufFree(target);

	mov	edx, DWORD PTR _target$[ebp]
	push	edx
	call	_xmlBufFree
	add	esp, 4

; 15058:     xmlXPathReleaseObject(ctxt->context, str);

	mov	eax, DWORD PTR _str$[ebp]
	push	eax
	mov	ecx, DWORD PTR _ctxt$[ebp]
	mov	edx, DWORD PTR [ecx+12]
	push	edx
	call	_xmlXPathReleaseObject
	add	esp, 8
$LN1@xmlXPathEs:

; 15059: }

	push	edx
	mov	ecx, ebp
	push	eax
	lea	edx, DWORD PTR $LN31@xmlXPathEs
	call	@_RTC_CheckStackVars@8
	pop	eax
	pop	edx
	add	esp, 28					; 0000001cH
	cmp	ebp, esp
	call	__RTC_CheckEsp
	mov	esp, ebp
	pop	ebp
	ret	0
	npad	2
$LN31@xmlXPathEs:
	DD	1
	DD	$LN30@xmlXPathEs
$LN30@xmlXPathEs:
	DD	-24					; ffffffe8H
	DD	4
	DD	$LN29@xmlXPathEs
$LN29@xmlXPathEs:
	DB	101					; 00000065H
	DB	115					; 00000073H
	DB	99					; 00000063H
	DB	97					; 00000061H
	DB	112					; 00000070H
	DB	101					; 00000065H
	DB	0
_xmlXPathEscapeUriFunction ENDP
_TEXT	ENDS
; Function compile flags: /Odtp /RTCsu
; File c:\users\dag\documents\_clients\codeproject authors group\windows on arm\libxml2\libxml2-2.9.9\xpath.c
;	COMDAT _xmlXPathCompiledEvalInternal
_TEXT	SEGMENT
_res$ = -12						; size = 4
_resObj$ = -8						; size = 4
_pctxt$ = -4						; size = 4
_comp$ = 8						; size = 4
_ctxt$ = 12						; size = 4
_resObjPtr$ = 16					; size = 4
_toBool$ = 20						; size = 4
_xmlXPathCompiledEvalInternal PROC			; COMDAT

; 14712: {

	push	ebp
	mov	ebp, esp
	sub	esp, 12					; 0000000cH
	push	esi
	mov	DWORD PTR [ebp-12], -858993460		; ccccccccH
	mov	DWORD PTR [ebp-8], -858993460		; ccccccccH
	mov	DWORD PTR [ebp-4], -858993460		; ccccccccH
	mov	ecx, OFFSET __9DBA2A81_xpath@c
	call	@__CheckForDebuggerJustMyCode@4

; 14713:     xmlXPathParserContextPtr pctxt;
; 14714:     xmlXPathObjectPtr resObj;
; 14715: #ifndef LIBXML_THREAD_ENABLED
; 14716:     static int reentance = 0;
; 14717: #endif
; 14718:     int res;
; 14719: 
; 14720:     CHECK_CTXT_NEG(ctxt)

	cmp	DWORD PTR _ctxt$[ebp], 0
	jne	SHORT $LN2@xmlXPathCo
	push	OFFSET ??_C@_0BG@PBKLCIKP@NULL?5context?5pointer?6@
	push	0
	push	0
	push	0
	push	0
	push	0
	push	14720					; 00003980H
	push	OFFSET ??_C@_0GH@HIGHEHKE@c?3?2users?2dag?2documents?2_clients@
	push	3
	push	1
	push	12					; 0000000cH
	push	0
	push	0
	push	0
	push	0
	push	0
	call	___xmlRaiseError
	add	esp, 64					; 00000040H
	or	eax, -1
	jmp	$LN1@xmlXPathCo
$LN2@xmlXPathCo:

; 14721: 
; 14722:     if (comp == NULL)

	cmp	DWORD PTR _comp$[ebp], 0
	jne	SHORT $LN3@xmlXPathCo

; 14723: 	return(-1);

	or	eax, -1
	jmp	$LN1@xmlXPathCo
$LN3@xmlXPathCo:

; 14724:     xmlXPathInit();

	call	_xmlXPathInit

; 14725: 
; 14726: #ifndef LIBXML_THREAD_ENABLED
; 14727:     reentance++;
; 14728:     if (reentance > 1)
; 14729: 	xmlXPathDisableOptimizer = 1;
; 14730: #endif
; 14731: 
; 14732: #ifdef DEBUG_EVAL_COUNTS
; 14733:     comp->nb++;
; 14734:     if ((comp->string != NULL) && (comp->nb > 100)) {
; 14735: 	fprintf(stderr, "100 x %s\n", comp->string);
; 14736: 	comp->nb = 0;
; 14737:     }
; 14738: #endif
; 14739:     pctxt = xmlXPathCompParserContext(comp, ctxt);

	mov	eax, DWORD PTR _ctxt$[ebp]
	push	eax
	mov	ecx, DWORD PTR _comp$[ebp]
	push	ecx
	call	_xmlXPathCompParserContext
	add	esp, 8
	mov	DWORD PTR _pctxt$[ebp], eax

; 14740:     res = xmlXPathRunEval(pctxt, toBool);

	mov	edx, DWORD PTR _toBool$[ebp]
	push	edx
	mov	eax, DWORD PTR _pctxt$[ebp]
	push	eax
	call	_xmlXPathRunEval
	add	esp, 8
	mov	DWORD PTR _res$[ebp], eax

; 14741: 
; 14742:     if (pctxt->error != XPATH_EXPRESSION_OK) {

	mov	ecx, DWORD PTR _pctxt$[ebp]
	cmp	DWORD PTR [ecx+8], 0
	je	SHORT $LN4@xmlXPathCo

; 14743:         resObj = NULL;

	mov	DWORD PTR _resObj$[ebp], 0

; 14744:     } else {

	jmp	SHORT $LN5@xmlXPathCo
$LN4@xmlXPathCo:

; 14745:         resObj = valuePop(pctxt);

	mov	edx, DWORD PTR _pctxt$[ebp]
	push	edx
	call	_valuePop
	add	esp, 4
	mov	DWORD PTR _resObj$[ebp], eax

; 14746:         if (resObj == NULL) {

	cmp	DWORD PTR _resObj$[ebp], 0
	jne	SHORT $LN6@xmlXPathCo

; 14747:             if (!toBool)

	cmp	DWORD PTR _toBool$[ebp], 0
	jne	SHORT $LN8@xmlXPathCo

; 14748:                 xmlGenericError(xmlGenericErrorContext,

	mov	esi, esp
	push	OFFSET ??_C@_0CP@KKKCDCLL@xmlXPathCompiledEval?3?5No?5result@
	call	___xmlGenericErrorContext
	mov	eax, DWORD PTR [eax]
	push	eax
	call	___xmlGenericError
	mov	ecx, DWORD PTR [eax]
	call	ecx
	add	esp, 8
	cmp	esi, esp
	call	__RTC_CheckEsp
$LN8@xmlXPathCo:

; 14749:                     "xmlXPathCompiledEval: No result on the stack.\n");
; 14750:         } else if (pctxt->valueNr > 0) {

	jmp	SHORT $LN5@xmlXPathCo
$LN6@xmlXPathCo:
	mov	edx, DWORD PTR _pctxt$[ebp]
	cmp	DWORD PTR [edx+20], 0
	jle	SHORT $LN5@xmlXPathCo

; 14751:             xmlGenericError(xmlGenericErrorContext,

	mov	esi, esp
	mov	eax, DWORD PTR _pctxt$[ebp]
	mov	ecx, DWORD PTR [eax+20]
	push	ecx
	push	OFFSET ??_C@_0DH@OEPEKFKA@xmlXPathCompiledEval?3?5?$CFd?5object@
	call	___xmlGenericErrorContext
	mov	edx, DWORD PTR [eax]
	push	edx
	call	___xmlGenericError
	mov	eax, DWORD PTR [eax]
	call	eax
	add	esp, 12					; 0000000cH
	cmp	esi, esp
	call	__RTC_CheckEsp
$LN5@xmlXPathCo:

; 14752:                 "xmlXPathCompiledEval: %d object(s) left on the stack.\n",
; 14753:                 pctxt->valueNr);
; 14754:         }
; 14755:     }
; 14756: 
; 14757:     if (resObjPtr)

	cmp	DWORD PTR _resObjPtr$[ebp], 0
	je	SHORT $LN10@xmlXPathCo

; 14758:         *resObjPtr = resObj;

	mov	ecx, DWORD PTR _resObjPtr$[ebp]
	mov	edx, DWORD PTR _resObj$[ebp]
	mov	DWORD PTR [ecx], edx
	jmp	SHORT $LN11@xmlXPathCo
$LN10@xmlXPathCo:

; 14759:     else
; 14760:         xmlXPathReleaseObject(ctxt, resObj);

	mov	eax, DWORD PTR _resObj$[ebp]
	push	eax
	mov	ecx, DWORD PTR _ctxt$[ebp]
	push	ecx
	call	_xmlXPathReleaseObject
	add	esp, 8
$LN11@xmlXPathCo:

; 14761: 
; 14762:     pctxt->comp = NULL;

	mov	edx, DWORD PTR _pctxt$[ebp]
	mov	DWORD PTR [edx+32], 0

; 14763:     xmlXPathFreeParserContext(pctxt);

	mov	eax, DWORD PTR _pctxt$[ebp]
	push	eax
	call	_xmlXPathFreeParserContext
	add	esp, 4

; 14764: #ifndef LIBXML_THREAD_ENABLED
; 14765:     reentance--;
; 14766: #endif
; 14767: 
; 14768:     return(res);

	mov	eax, DWORD PTR _res$[ebp]
$LN1@xmlXPathCo:

; 14769: }

	pop	esi
	add	esp, 12					; 0000000cH
	cmp	ebp, esp
	call	__RTC_CheckEsp
	mov	esp, ebp
	pop	ebp
	ret	0
_xmlXPathCompiledEvalInternal ENDP
_TEXT	ENDS
; Function compile flags: /Odtp /RTCsu
; File c:\users\dag\documents\_clients\codeproject authors group\windows on arm\libxml2\libxml2-2.9.9\xpath.c
;	COMDAT _xmlXPathOptimizeExpression
_TEXT	SEGMENT
tv85 = -8						; size = 4
_prevop$1 = -4						; size = 4
_comp$ = 8						; size = 4
_op$ = 12						; size = 4
_xmlXPathOptimizeExpression PROC			; COMDAT

; 14556: {

	push	ebp
	mov	ebp, esp
	sub	esp, 8
	mov	DWORD PTR [ebp-8], -858993460		; ccccccccH
	mov	DWORD PTR [ebp-4], -858993460		; ccccccccH
	mov	ecx, OFFSET __9DBA2A81_xpath@c
	call	@__CheckForDebuggerJustMyCode@4

; 14557:     /*
; 14558:     * Try to rewrite "descendant-or-self::node()/foo" to an optimized
; 14559:     * internal representation.
; 14560:     */
; 14561: 
; 14562:     if ((op->op == XPATH_OP_COLLECT /* 11 */) &&
; 14563:         (op->ch1 != -1) &&

	mov	eax, DWORD PTR _op$[ebp]
	cmp	DWORD PTR [eax], 10			; 0000000aH
	jne	$LN4@xmlXPathOp
	mov	ecx, DWORD PTR _op$[ebp]
	cmp	DWORD PTR [ecx+4], -1
	je	$LN4@xmlXPathOp
	mov	edx, DWORD PTR _op$[ebp]
	cmp	DWORD PTR [edx+8], -1
	jne	$LN4@xmlXPathOp

; 14564:         (op->ch2 == -1 /* no predicate */))
; 14565:     {
; 14566:         xmlXPathStepOpPtr prevop = &comp->steps[op->ch1];

	mov	eax, DWORD PTR _op$[ebp]
	imul	ecx, DWORD PTR [eax+4], 40
	mov	edx, DWORD PTR _comp$[ebp]
	add	ecx, DWORD PTR [edx+8]
	mov	DWORD PTR _prevop$1[ebp], ecx

; 14567: 
; 14568:         if ((prevop->op == XPATH_OP_COLLECT /* 11 */) &&
; 14569:             ((xmlXPathAxisVal) prevop->value ==
; 14570:                 AXIS_DESCENDANT_OR_SELF) &&
; 14571:             (prevop->ch2 == -1) &&
; 14572:             ((xmlXPathTestVal) prevop->value2 == NODE_TEST_TYPE) &&

	mov	eax, DWORD PTR _prevop$1[ebp]
	cmp	DWORD PTR [eax], 10			; 0000000aH
	jne	SHORT $LN4@xmlXPathOp
	mov	ecx, DWORD PTR _prevop$1[ebp]
	cmp	DWORD PTR [ecx+12], 6
	jne	SHORT $LN4@xmlXPathOp
	mov	edx, DWORD PTR _prevop$1[ebp]
	cmp	DWORD PTR [edx+8], -1
	jne	SHORT $LN4@xmlXPathOp
	mov	eax, DWORD PTR _prevop$1[ebp]
	cmp	DWORD PTR [eax+16], 1
	jne	SHORT $LN4@xmlXPathOp
	mov	ecx, DWORD PTR _prevop$1[ebp]
	cmp	DWORD PTR [ecx+20], 0
	jne	SHORT $LN4@xmlXPathOp

; 14573:             ((xmlXPathTypeVal) prevop->value3 == NODE_TYPE_NODE))
; 14574:         {
; 14575:             /*
; 14576:             * This is a "descendant-or-self::node()" without predicates.
; 14577:             * Try to eliminate it.
; 14578:             */
; 14579: 
; 14580:             switch ((xmlXPathAxisVal) op->value) {

	mov	edx, DWORD PTR _op$[ebp]
	mov	eax, DWORD PTR [edx+12]
	mov	DWORD PTR tv85[ebp], eax
	mov	ecx, DWORD PTR tv85[ebp]
	sub	ecx, 4
	mov	DWORD PTR tv85[ebp], ecx
	cmp	DWORD PTR tv85[ebp], 9
	ja	SHORT $LN4@xmlXPathOp
	mov	edx, DWORD PTR tv85[ebp]
	movzx	eax, BYTE PTR $LN13@xmlXPathOp[edx]
	jmp	DWORD PTR $LN14@xmlXPathOp[eax*4]
$LN6@xmlXPathOp:

; 14581:                 case AXIS_CHILD:
; 14582:                 case AXIS_DESCENDANT:
; 14583:                     /*
; 14584:                     * Convert "descendant-or-self::node()/child::" or
; 14585:                     * "descendant-or-self::node()/descendant::" to
; 14586:                     * "descendant::"
; 14587:                     */
; 14588:                     op->ch1   = prevop->ch1;

	mov	ecx, DWORD PTR _op$[ebp]
	mov	edx, DWORD PTR _prevop$1[ebp]
	mov	eax, DWORD PTR [edx+4]
	mov	DWORD PTR [ecx+4], eax

; 14589:                     op->value = AXIS_DESCENDANT;

	mov	ecx, DWORD PTR _op$[ebp]
	mov	DWORD PTR [ecx+12], 5

; 14590:                     break;

	jmp	SHORT $LN4@xmlXPathOp
$LN7@xmlXPathOp:

; 14591:                 case AXIS_SELF:
; 14592:                 case AXIS_DESCENDANT_OR_SELF:
; 14593:                     /*
; 14594:                     * Convert "descendant-or-self::node()/self::" or
; 14595:                     * "descendant-or-self::node()/descendant-or-self::" to
; 14596:                     * to "descendant-or-self::"
; 14597:                     */
; 14598:                     op->ch1   = prevop->ch1;

	mov	edx, DWORD PTR _op$[ebp]
	mov	eax, DWORD PTR _prevop$1[ebp]
	mov	ecx, DWORD PTR [eax+4]
	mov	DWORD PTR [edx+4], ecx

; 14599:                     op->value = AXIS_DESCENDANT_OR_SELF;

	mov	edx, DWORD PTR _op$[ebp]
	mov	DWORD PTR [edx+12], 6
$LN4@xmlXPathOp:

; 14600:                     break;
; 14601:                 default:
; 14602:                     break;
; 14603:             }
; 14604: 	}
; 14605:     }
; 14606: 
; 14607:     /* OP_VALUE has invalid ch1. */
; 14608:     if (op->op == XPATH_OP_VALUE)

	mov	eax, DWORD PTR _op$[ebp]
	cmp	DWORD PTR [eax], 11			; 0000000bH
	jne	SHORT $LN9@xmlXPathOp

; 14609:         return;

	jmp	SHORT $LN1@xmlXPathOp
$LN9@xmlXPathOp:

; 14610: 
; 14611:     /* Recurse */
; 14612:     if (op->ch1 != -1)

	mov	ecx, DWORD PTR _op$[ebp]
	cmp	DWORD PTR [ecx+4], -1
	je	SHORT $LN10@xmlXPathOp

; 14613:         xmlXPathOptimizeExpression(comp, &comp->steps[op->ch1]);

	mov	edx, DWORD PTR _op$[ebp]
	imul	eax, DWORD PTR [edx+4], 40
	mov	ecx, DWORD PTR _comp$[ebp]
	add	eax, DWORD PTR [ecx+8]
	push	eax
	mov	edx, DWORD PTR _comp$[ebp]
	push	edx
	call	_xmlXPathOptimizeExpression
	add	esp, 8
$LN10@xmlXPathOp:

; 14614:     if (op->ch2 != -1)

	mov	eax, DWORD PTR _op$[ebp]
	cmp	DWORD PTR [eax+8], -1
	je	SHORT $LN1@xmlXPathOp

; 14615: 	xmlXPathOptimizeExpression(comp, &comp->steps[op->ch2]);

	mov	ecx, DWORD PTR _op$[ebp]
	imul	edx, DWORD PTR [ecx+8], 40
	mov	eax, DWORD PTR _comp$[ebp]
	add	edx, DWORD PTR [eax+8]
	push	edx
	mov	ecx, DWORD PTR _comp$[ebp]
	push	ecx
	call	_xmlXPathOptimizeExpression
	add	esp, 8
$LN1@xmlXPathOp:

; 14616: }

	add	esp, 8
	cmp	ebp, esp
	call	__RTC_CheckEsp
	mov	esp, ebp
	pop	ebp
	ret	0
	npad	3
$LN14@xmlXPathOp:
	DD	$LN6@xmlXPathOp
	DD	$LN7@xmlXPathOp
	DD	$LN4@xmlXPathOp
$LN13@xmlXPathOp:
	DB	0
	DB	0
	DB	1
	DB	2
	DB	2
	DB	2
	DB	2
	DB	2
	DB	2
	DB	1
_xmlXPathOptimizeExpression ENDP
_TEXT	ENDS
; Function compile flags: /Odtp /RTCsu
; File c:\users\dag\documents\_clients\codeproject authors group\windows on arm\libxml2\libxml2-2.9.9\xpath.c
;	COMDAT _xmlXPathTryStreamCompile
_TEXT	SEGMENT
_tmp$1 = -32						; size = 4
_j$ = -28						; size = 4
_i$ = -24						; size = 4
_ns$ = -20						; size = 4
_namespaces$ = -16					; size = 4
_dict$ = -12						; size = 4
_comp$ = -8						; size = 4
_stream$ = -4						; size = 4
_ctxt$ = 8						; size = 4
_str$ = 12						; size = 4
_xmlXPathTryStreamCompile PROC				; COMDAT

; 14483: xmlXPathTryStreamCompile(xmlXPathContextPtr ctxt, const xmlChar *str) {

	push	ebp
	mov	ebp, esp
	sub	esp, 32					; 00000020H
	push	esi
	mov	eax, -858993460				; ccccccccH
	mov	DWORD PTR [ebp-32], eax
	mov	DWORD PTR [ebp-28], eax
	mov	DWORD PTR [ebp-24], eax
	mov	DWORD PTR [ebp-20], eax
	mov	DWORD PTR [ebp-16], eax
	mov	DWORD PTR [ebp-12], eax
	mov	DWORD PTR [ebp-8], eax
	mov	DWORD PTR [ebp-4], eax
	mov	ecx, OFFSET __9DBA2A81_xpath@c
	call	@__CheckForDebuggerJustMyCode@4

; 14484:     /*
; 14485:      * Optimization: use streaming patterns when the XPath expression can
; 14486:      * be compiled to a stream lookup
; 14487:      */
; 14488:     xmlPatternPtr stream;
; 14489:     xmlXPathCompExprPtr comp;
; 14490:     xmlDictPtr dict = NULL;

	mov	DWORD PTR _dict$[ebp], 0

; 14491:     const xmlChar **namespaces = NULL;

	mov	DWORD PTR _namespaces$[ebp], 0

; 14492:     xmlNsPtr ns;
; 14493:     int i, j;
; 14494: 
; 14495:     if ((!xmlStrchr(str, '[')) && (!xmlStrchr(str, '(')) &&

	push	91					; 0000005bH
	mov	eax, DWORD PTR _str$[ebp]
	push	eax
	call	_xmlStrchr
	add	esp, 8
	test	eax, eax
	jne	$LN5@xmlXPathTr
	push	40					; 00000028H
	mov	ecx, DWORD PTR _str$[ebp]
	push	ecx
	call	_xmlStrchr
	add	esp, 8
	test	eax, eax
	jne	$LN5@xmlXPathTr
	push	64					; 00000040H
	mov	edx, DWORD PTR _str$[ebp]
	push	edx
	call	_xmlStrchr
	add	esp, 8
	test	eax, eax
	jne	$LN5@xmlXPathTr

; 14496:         (!xmlStrchr(str, '@'))) {
; 14497: 	const xmlChar *tmp;
; 14498: 
; 14499: 	/*
; 14500: 	 * We don't try to handle expressions using the verbose axis
; 14501: 	 * specifiers ("::"), just the simplied form at this point.
; 14502: 	 * Additionally, if there is no list of namespaces available and
; 14503: 	 *  there's a ":" in the expression, indicating a prefixed QName,
; 14504: 	 *  then we won't try to compile either. xmlPatterncompile() needs
; 14505: 	 *  to have a list of namespaces at compilation time in order to
; 14506: 	 *  compile prefixed name tests.
; 14507: 	 */
; 14508: 	tmp = xmlStrchr(str, ':');

	push	58					; 0000003aH
	mov	eax, DWORD PTR _str$[ebp]
	push	eax
	call	_xmlStrchr
	add	esp, 8
	mov	DWORD PTR _tmp$1[ebp], eax

; 14509: 	if ((tmp != NULL) &&

	cmp	DWORD PTR _tmp$1[ebp], 0
	je	SHORT $LN6@xmlXPathTr
	cmp	DWORD PTR _ctxt$[ebp], 0
	je	SHORT $LN7@xmlXPathTr
	mov	ecx, DWORD PTR _ctxt$[ebp]
	cmp	DWORD PTR [ecx+60], 0
	je	SHORT $LN7@xmlXPathTr
	mov	edx, 1
	shl	edx, 0
	mov	eax, DWORD PTR _tmp$1[ebp]
	movzx	ecx, BYTE PTR [eax+edx]
	cmp	ecx, 58					; 0000003aH
	jne	SHORT $LN6@xmlXPathTr
$LN7@xmlXPathTr:

; 14510: 	    ((ctxt == NULL) || (ctxt->nsNr == 0) || (tmp[1] == ':')))
; 14511: 	    return(NULL);

	xor	eax, eax
	jmp	$LN1@xmlXPathTr
$LN6@xmlXPathTr:

; 14512: 
; 14513: 	if (ctxt != NULL) {

	cmp	DWORD PTR _ctxt$[ebp], 0
	je	$LN8@xmlXPathTr

; 14514: 	    dict = ctxt->dict;

	mov	edx, DWORD PTR _ctxt$[ebp]
	mov	eax, DWORD PTR [edx+192]
	mov	DWORD PTR _dict$[ebp], eax

; 14515: 	    if (ctxt->nsNr > 0) {

	mov	ecx, DWORD PTR _ctxt$[ebp]
	cmp	DWORD PTR [ecx+60], 0
	jle	$LN8@xmlXPathTr

; 14516: 		namespaces = xmlMalloc(2 * (ctxt->nsNr + 1) * sizeof(xmlChar*));

	mov	edx, DWORD PTR _ctxt$[ebp]
	mov	eax, DWORD PTR [edx+60]
	lea	ecx, DWORD PTR [eax+eax+2]
	shl	ecx, 2
	mov	esi, esp
	push	ecx
	call	DWORD PTR _xmlMalloc
	add	esp, 4
	cmp	esi, esp
	call	__RTC_CheckEsp
	mov	DWORD PTR _namespaces$[ebp], eax

; 14517: 		if (namespaces == NULL) {

	cmp	DWORD PTR _namespaces$[ebp], 0
	jne	SHORT $LN10@xmlXPathTr

; 14518: 		    xmlXPathErrMemory(ctxt, "allocating namespaces array\n");

	push	OFFSET ??_C@_0BN@BJKHBGFI@allocating?5namespaces?5array?6@
	mov	edx, DWORD PTR _ctxt$[ebp]
	push	edx
	call	_xmlXPathErrMemory
	add	esp, 8

; 14519: 		    return(NULL);

	xor	eax, eax
	jmp	$LN1@xmlXPathTr
$LN10@xmlXPathTr:

; 14520: 		}
; 14521: 		for (i = 0, j = 0; (j < ctxt->nsNr); j++) {

	mov	DWORD PTR _i$[ebp], 0
	mov	DWORD PTR _j$[ebp], 0
	jmp	SHORT $LN4@xmlXPathTr
$LN2@xmlXPathTr:
	mov	eax, DWORD PTR _j$[ebp]
	add	eax, 1
	mov	DWORD PTR _j$[ebp], eax
$LN4@xmlXPathTr:
	mov	ecx, DWORD PTR _ctxt$[ebp]
	mov	edx, DWORD PTR _j$[ebp]
	cmp	edx, DWORD PTR [ecx+60]
	jge	SHORT $LN3@xmlXPathTr

; 14522: 		    ns = ctxt->namespaces[j];

	mov	eax, DWORD PTR _ctxt$[ebp]
	mov	ecx, DWORD PTR [eax+56]
	mov	edx, DWORD PTR _j$[ebp]
	mov	eax, DWORD PTR [ecx+edx*4]
	mov	DWORD PTR _ns$[ebp], eax

; 14523: 		    namespaces[i++] = ns->href;

	mov	ecx, DWORD PTR _i$[ebp]
	mov	edx, DWORD PTR _namespaces$[ebp]
	mov	eax, DWORD PTR _ns$[ebp]
	mov	eax, DWORD PTR [eax+8]
	mov	DWORD PTR [edx+ecx*4], eax
	mov	ecx, DWORD PTR _i$[ebp]
	add	ecx, 1
	mov	DWORD PTR _i$[ebp], ecx

; 14524: 		    namespaces[i++] = ns->prefix;

	mov	edx, DWORD PTR _i$[ebp]
	mov	eax, DWORD PTR _namespaces$[ebp]
	mov	ecx, DWORD PTR _ns$[ebp]
	mov	ecx, DWORD PTR [ecx+12]
	mov	DWORD PTR [eax+edx*4], ecx
	mov	edx, DWORD PTR _i$[ebp]
	add	edx, 1
	mov	DWORD PTR _i$[ebp], edx

; 14525: 		}

	jmp	SHORT $LN2@xmlXPathTr
$LN3@xmlXPathTr:

; 14526: 		namespaces[i++] = NULL;

	mov	eax, DWORD PTR _i$[ebp]
	mov	ecx, DWORD PTR _namespaces$[ebp]
	mov	DWORD PTR [ecx+eax*4], 0
	mov	edx, DWORD PTR _i$[ebp]
	add	edx, 1
	mov	DWORD PTR _i$[ebp], edx

; 14527: 		namespaces[i] = NULL;

	mov	eax, DWORD PTR _i$[ebp]
	mov	ecx, DWORD PTR _namespaces$[ebp]
	mov	DWORD PTR [ecx+eax*4], 0
$LN8@xmlXPathTr:

; 14528: 	    }
; 14529: 	}
; 14530: 
; 14531: 	stream = xmlPatterncompile(str, dict, XML_PATTERN_XPATH,

	mov	edx, 4
	imul	eax, edx, 0
	add	eax, DWORD PTR _namespaces$[ebp]
	push	eax
	push	1
	mov	ecx, DWORD PTR _dict$[ebp]
	push	ecx
	mov	edx, DWORD PTR _str$[ebp]
	push	edx
	call	_xmlPatterncompile
	add	esp, 16					; 00000010H
	mov	DWORD PTR _stream$[ebp], eax

; 14532: 			&namespaces[0]);
; 14533: 	if (namespaces != NULL) {

	cmp	DWORD PTR _namespaces$[ebp], 0
	je	SHORT $LN11@xmlXPathTr

; 14534: 	    xmlFree((xmlChar **)namespaces);

	mov	esi, esp
	mov	eax, DWORD PTR _namespaces$[ebp]
	push	eax
	call	DWORD PTR _xmlFree
	add	esp, 4
	cmp	esi, esp
	call	__RTC_CheckEsp
$LN11@xmlXPathTr:

; 14535: 	}
; 14536: 	if ((stream != NULL) && (xmlPatternStreamable(stream) == 1)) {

	cmp	DWORD PTR _stream$[ebp], 0
	je	SHORT $LN12@xmlXPathTr
	mov	ecx, DWORD PTR _stream$[ebp]
	push	ecx
	call	_xmlPatternStreamable
	add	esp, 4
	cmp	eax, 1
	jne	SHORT $LN12@xmlXPathTr

; 14537: 	    comp = xmlXPathNewCompExpr();

	call	_xmlXPathNewCompExpr
	mov	DWORD PTR _comp$[ebp], eax

; 14538: 	    if (comp == NULL) {

	cmp	DWORD PTR _comp$[ebp], 0
	jne	SHORT $LN13@xmlXPathTr

; 14539: 		xmlXPathErrMemory(ctxt, "allocating streamable expression\n");

	push	OFFSET ??_C@_0CC@FJFLGALO@allocating?5streamable?5expressio@
	mov	edx, DWORD PTR _ctxt$[ebp]
	push	edx
	call	_xmlXPathErrMemory
	add	esp, 8

; 14540: 		return(NULL);

	xor	eax, eax
	jmp	SHORT $LN1@xmlXPathTr
$LN13@xmlXPathTr:

; 14541: 	    }
; 14542: 	    comp->stream = stream;

	mov	eax, DWORD PTR _comp$[ebp]
	mov	ecx, DWORD PTR _stream$[ebp]
	mov	DWORD PTR [eax+24], ecx

; 14543: 	    comp->dict = dict;

	mov	edx, DWORD PTR _comp$[ebp]
	mov	eax, DWORD PTR _dict$[ebp]
	mov	DWORD PTR [edx+20], eax

; 14544: 	    if (comp->dict)

	mov	ecx, DWORD PTR _comp$[ebp]
	cmp	DWORD PTR [ecx+20], 0
	je	SHORT $LN14@xmlXPathTr

; 14545: 		xmlDictReference(comp->dict);

	mov	edx, DWORD PTR _comp$[ebp]
	mov	eax, DWORD PTR [edx+20]
	push	eax
	call	_xmlDictReference
	add	esp, 4
$LN14@xmlXPathTr:

; 14546: 	    return(comp);

	mov	eax, DWORD PTR _comp$[ebp]
	jmp	SHORT $LN1@xmlXPathTr
$LN12@xmlXPathTr:

; 14547: 	}
; 14548: 	xmlFreePattern(stream);

	mov	ecx, DWORD PTR _stream$[ebp]
	push	ecx
	call	_xmlFreePattern
	add	esp, 4
$LN5@xmlXPathTr:

; 14549:     }
; 14550:     return(NULL);

	xor	eax, eax
$LN1@xmlXPathTr:

; 14551: }

	pop	esi
	add	esp, 32					; 00000020H
	cmp	ebp, esp
	call	__RTC_CheckEsp
	mov	esp, ebp
	pop	ebp
	ret	0
_xmlXPathTryStreamCompile ENDP
_TEXT	ENDS
; Function compile flags: /Odtp /RTCsu
; File c:\users\dag\documents\_clients\codeproject authors group\windows on arm\libxml2\libxml2-2.9.9\xpath.c
;	COMDAT _xmlXPathRunEval
_TEXT	SEGMENT
_resObj$1 = -16						; size = 4
_res$2 = -8						; size = 4
_comp$ = -4						; size = 4
_ctxt$ = 8						; size = 4
_toBool$ = 12						; size = 4
_xmlXPathRunEval PROC					; COMDAT

; 14309: {

	push	ebp
	mov	ebp, esp
	sub	esp, 20					; 00000014H
	push	esi
	mov	eax, -858993460				; ccccccccH
	mov	DWORD PTR [ebp-20], eax
	mov	DWORD PTR [ebp-16], eax
	mov	DWORD PTR [ebp-12], eax
	mov	DWORD PTR [ebp-8], eax
	mov	DWORD PTR [ebp-4], eax
	mov	ecx, OFFSET __9DBA2A81_xpath@c
	call	@__CheckForDebuggerJustMyCode@4

; 14310:     xmlXPathCompExprPtr comp;
; 14311: 
; 14312:     if ((ctxt == NULL) || (ctxt->comp == NULL))

	cmp	DWORD PTR _ctxt$[ebp], 0
	je	SHORT $LN3@xmlXPathRu
	mov	eax, DWORD PTR _ctxt$[ebp]
	cmp	DWORD PTR [eax+32], 0
	jne	SHORT $LN2@xmlXPathRu
$LN3@xmlXPathRu:

; 14313: 	return(-1);

	or	eax, -1
	jmp	$LN1@xmlXPathRu
$LN2@xmlXPathRu:

; 14314: 
; 14315:     if (ctxt->valueTab == NULL) {

	mov	ecx, DWORD PTR _ctxt$[ebp]
	cmp	DWORD PTR [ecx+28], 0
	jne	SHORT $LN4@xmlXPathRu

; 14316: 	/* Allocate the value stack */
; 14317: 	ctxt->valueTab = (xmlXPathObjectPtr *)

	mov	esi, esp
	push	40					; 00000028H
	call	DWORD PTR _xmlMalloc
	add	esp, 4
	cmp	esi, esp
	call	__RTC_CheckEsp
	mov	edx, DWORD PTR _ctxt$[ebp]
	mov	DWORD PTR [edx+28], eax

; 14318: 			 xmlMalloc(10 * sizeof(xmlXPathObjectPtr));
; 14319: 	if (ctxt->valueTab == NULL) {

	mov	eax, DWORD PTR _ctxt$[ebp]
	cmp	DWORD PTR [eax+28], 0
	jne	SHORT $LN5@xmlXPathRu

; 14320: 	    xmlXPathPErrMemory(ctxt, "creating evaluation context\n");

	push	OFFSET ??_C@_0BN@DLELJOPA@creating?5evaluation?5context?6@
	mov	ecx, DWORD PTR _ctxt$[ebp]
	push	ecx
	call	_xmlXPathPErrMemory
	add	esp, 8

; 14321: 	    xmlFree(ctxt);

	mov	esi, esp
	mov	edx, DWORD PTR _ctxt$[ebp]
	push	edx
	call	DWORD PTR _xmlFree
	add	esp, 4
	cmp	esi, esp
	call	__RTC_CheckEsp
$LN5@xmlXPathRu:

; 14322: 	}
; 14323: 	ctxt->valueNr = 0;

	mov	eax, DWORD PTR _ctxt$[ebp]
	mov	DWORD PTR [eax+20], 0

; 14324: 	ctxt->valueMax = 10;

	mov	ecx, DWORD PTR _ctxt$[ebp]
	mov	DWORD PTR [ecx+24], 10			; 0000000aH

; 14325: 	ctxt->value = NULL;

	mov	edx, DWORD PTR _ctxt$[ebp]
	mov	DWORD PTR [edx+16], 0

; 14326:         ctxt->valueFrame = 0;

	mov	eax, DWORD PTR _ctxt$[ebp]
	mov	DWORD PTR [eax+44], 0
$LN4@xmlXPathRu:

; 14327:     }
; 14328: #ifdef XPATH_STREAMING
; 14329:     if (ctxt->comp->stream) {

	mov	ecx, DWORD PTR _ctxt$[ebp]
	mov	edx, DWORD PTR [ecx+32]
	cmp	DWORD PTR [edx+24], 0
	je	$LN6@xmlXPathRu

; 14330: 	int res;
; 14331: 
; 14332: 	if (toBool) {

	cmp	DWORD PTR _toBool$[ebp], 0
	je	SHORT $LN7@xmlXPathRu

; 14333: 	    /*
; 14334: 	    * Evaluation to boolean result.
; 14335: 	    */
; 14336: 	    res = xmlXPathRunStreamEval(ctxt->context,

	push	1
	push	0
	mov	eax, DWORD PTR _ctxt$[ebp]
	mov	ecx, DWORD PTR [eax+32]
	mov	edx, DWORD PTR [ecx+24]
	push	edx
	mov	eax, DWORD PTR _ctxt$[ebp]
	mov	ecx, DWORD PTR [eax+12]
	push	ecx
	call	_xmlXPathRunStreamEval
	add	esp, 16					; 00000010H
	mov	DWORD PTR _res$2[ebp], eax

; 14337: 		ctxt->comp->stream, NULL, 1);
; 14338: 	    if (res != -1)

	cmp	DWORD PTR _res$2[ebp], -1
	je	SHORT $LN9@xmlXPathRu

; 14339: 		return(res);

	mov	eax, DWORD PTR _res$2[ebp]
	jmp	$LN1@xmlXPathRu
$LN9@xmlXPathRu:

; 14340: 	} else {

	jmp	SHORT $LN6@xmlXPathRu
$LN7@xmlXPathRu:

; 14341: 	    xmlXPathObjectPtr resObj = NULL;

	mov	DWORD PTR _resObj$1[ebp], 0

; 14342: 
; 14343: 	    /*
; 14344: 	    * Evaluation to a sequence.
; 14345: 	    */
; 14346: 	    res = xmlXPathRunStreamEval(ctxt->context,

	push	0
	lea	edx, DWORD PTR _resObj$1[ebp]
	push	edx
	mov	eax, DWORD PTR _ctxt$[ebp]
	mov	ecx, DWORD PTR [eax+32]
	mov	edx, DWORD PTR [ecx+24]
	push	edx
	mov	eax, DWORD PTR _ctxt$[ebp]
	mov	ecx, DWORD PTR [eax+12]
	push	ecx
	call	_xmlXPathRunStreamEval
	add	esp, 16					; 00000010H
	mov	DWORD PTR _res$2[ebp], eax

; 14347: 		ctxt->comp->stream, &resObj, 0);
; 14348: 
; 14349: 	    if ((res != -1) && (resObj != NULL)) {

	cmp	DWORD PTR _res$2[ebp], -1
	je	SHORT $LN10@xmlXPathRu
	cmp	DWORD PTR _resObj$1[ebp], 0
	je	SHORT $LN10@xmlXPathRu

; 14350: 		valuePush(ctxt, resObj);

	mov	edx, DWORD PTR _resObj$1[ebp]
	push	edx
	mov	eax, DWORD PTR _ctxt$[ebp]
	push	eax
	call	_valuePush
	add	esp, 8

; 14351: 		return(0);

	xor	eax, eax
	jmp	$LN1@xmlXPathRu
$LN10@xmlXPathRu:

; 14352: 	    }
; 14353: 	    if (resObj != NULL)

	cmp	DWORD PTR _resObj$1[ebp], 0
	je	SHORT $LN6@xmlXPathRu

; 14354: 		xmlXPathReleaseObject(ctxt->context, resObj);

	mov	ecx, DWORD PTR _resObj$1[ebp]
	push	ecx
	mov	edx, DWORD PTR _ctxt$[ebp]
	mov	eax, DWORD PTR [edx+12]
	push	eax
	call	_xmlXPathReleaseObject
	add	esp, 8
$LN6@xmlXPathRu:

; 14355: 	}
; 14356: 	/*
; 14357: 	* QUESTION TODO: This falls back to normal XPath evaluation
; 14358: 	* if res == -1. Is this intended?
; 14359: 	*/
; 14360:     }
; 14361: #endif
; 14362:     comp = ctxt->comp;

	mov	ecx, DWORD PTR _ctxt$[ebp]
	mov	edx, DWORD PTR [ecx+32]
	mov	DWORD PTR _comp$[ebp], edx

; 14363:     if (comp->last < 0) {

	mov	eax, DWORD PTR _comp$[ebp]
	cmp	DWORD PTR [eax+12], 0
	jge	SHORT $LN12@xmlXPathRu

; 14364: 	xmlGenericError(xmlGenericErrorContext,

	mov	esi, esp
	push	OFFSET ??_C@_0CJ@GKOHPKDK@xmlXPathRunEval?3?5last?5is?5less?5t@
	call	___xmlGenericErrorContext
	mov	ecx, DWORD PTR [eax]
	push	ecx
	call	___xmlGenericError
	mov	edx, DWORD PTR [eax]
	call	edx
	add	esp, 8
	cmp	esi, esp
	call	__RTC_CheckEsp

; 14365: 	    "xmlXPathRunEval: last is less than zero\n");
; 14366: 	return(-1);

	or	eax, -1
	jmp	SHORT $LN1@xmlXPathRu
$LN12@xmlXPathRu:

; 14367:     }
; 14368:     if (toBool)

	cmp	DWORD PTR _toBool$[ebp], 0
	je	SHORT $LN13@xmlXPathRu

; 14369: 	return(xmlXPathCompOpEvalToBoolean(ctxt,

	push	0
	mov	eax, DWORD PTR _comp$[ebp]
	imul	ecx, DWORD PTR [eax+12], 40
	mov	edx, DWORD PTR _comp$[ebp]
	add	ecx, DWORD PTR [edx+8]
	push	ecx
	mov	eax, DWORD PTR _ctxt$[ebp]
	push	eax
	call	_xmlXPathCompOpEvalToBoolean
	add	esp, 12					; 0000000cH
	jmp	SHORT $LN1@xmlXPathRu
	jmp	SHORT $LN14@xmlXPathRu
$LN13@xmlXPathRu:

; 14370: 	    &comp->steps[comp->last], 0));
; 14371:     else
; 14372: 	xmlXPathCompOpEval(ctxt, &comp->steps[comp->last]);

	mov	ecx, DWORD PTR _comp$[ebp]
	imul	edx, DWORD PTR [ecx+12], 40
	mov	eax, DWORD PTR _comp$[ebp]
	add	edx, DWORD PTR [eax+8]
	push	edx
	mov	ecx, DWORD PTR _ctxt$[ebp]
	push	ecx
	call	_xmlXPathCompOpEval
	add	esp, 8
$LN14@xmlXPathRu:

; 14373: 
; 14374:     return(0);

	xor	eax, eax
$LN1@xmlXPathRu:

; 14375: }

	push	edx
	mov	ecx, ebp
	push	eax
	lea	edx, DWORD PTR $LN18@xmlXPathRu
	call	@_RTC_CheckStackVars@8
	pop	eax
	pop	edx
	pop	esi
	add	esp, 20					; 00000014H
	cmp	ebp, esp
	call	__RTC_CheckEsp
	mov	esp, ebp
	pop	ebp
	ret	0
	npad	3
$LN18@xmlXPathRu:
	DD	1
	DD	$LN17@xmlXPathRu
$LN17@xmlXPathRu:
	DD	-16					; fffffff0H
	DD	4
	DD	$LN16@xmlXPathRu
$LN16@xmlXPathRu:
	DB	114					; 00000072H
	DB	101					; 00000065H
	DB	115					; 00000073H
	DB	79					; 0000004fH
	DB	98					; 00000062H
	DB	106					; 0000006aH
	DB	0
_xmlXPathRunEval ENDP
_TEXT	ENDS
; Function compile flags: /Odtp /RTCsu
; File c:\users\dag\documents\_clients\codeproject authors group\windows on arm\libxml2\libxml2-2.9.9\xpath.c
;	COMDAT _xmlXPathRunStreamEval
_TEXT	SEGMENT
tv164 = -52						; size = 4
tv156 = -48						; size = 4
tv133 = -44						; size = 4
_nb_nodes$ = -40					; size = 4
_patstream$ = -36					; size = 4
_limit$ = -32						; size = 4
_cur$ = -28						; size = 4
_eval_all_nodes$ = -24					; size = 4
_depth$ = -20						; size = 4
_ret$ = -16						; size = 4
_from_root$ = -12					; size = 4
_min_depth$ = -8					; size = 4
_max_depth$ = -4					; size = 4
_ctxt$ = 8						; size = 4
_comp$ = 12						; size = 4
_resultSeq$ = 16					; size = 4
_toBool$ = 20						; size = 4
_xmlXPathRunStreamEval PROC				; COMDAT

; 14076: {

	push	ebp
	mov	ebp, esp
	sub	esp, 52					; 00000034H
	push	edi
	lea	edi, DWORD PTR [ebp-52]
	mov	ecx, 13					; 0000000dH
	mov	eax, -858993460				; ccccccccH
	rep stosd
	mov	ecx, OFFSET __9DBA2A81_xpath@c
	call	@__CheckForDebuggerJustMyCode@4

; 14077:     int max_depth, min_depth;
; 14078:     int from_root;
; 14079:     int ret, depth;
; 14080:     int eval_all_nodes;
; 14081:     xmlNodePtr cur = NULL, limit = NULL;

	mov	DWORD PTR _cur$[ebp], 0
	mov	DWORD PTR _limit$[ebp], 0

; 14082:     xmlStreamCtxtPtr patstream = NULL;

	mov	DWORD PTR _patstream$[ebp], 0

; 14083: 
; 14084:     int nb_nodes = 0;

	mov	DWORD PTR _nb_nodes$[ebp], 0

; 14085: 
; 14086:     if ((ctxt == NULL) || (comp == NULL))

	cmp	DWORD PTR _ctxt$[ebp], 0
	je	SHORT $LN17@xmlXPathRu
	cmp	DWORD PTR _comp$[ebp], 0
	jne	SHORT $LN16@xmlXPathRu
$LN17@xmlXPathRu:

; 14087:         return(-1);

	or	eax, -1
	jmp	$LN1@xmlXPathRu
$LN16@xmlXPathRu:

; 14088:     max_depth = xmlPatternMaxDepth(comp);

	mov	eax, DWORD PTR _comp$[ebp]
	push	eax
	call	_xmlPatternMaxDepth
	add	esp, 4
	mov	DWORD PTR _max_depth$[ebp], eax

; 14089:     if (max_depth == -1)

	cmp	DWORD PTR _max_depth$[ebp], -1
	jne	SHORT $LN18@xmlXPathRu

; 14090:         return(-1);

	or	eax, -1
	jmp	$LN1@xmlXPathRu
$LN18@xmlXPathRu:

; 14091:     if (max_depth == -2)

	cmp	DWORD PTR _max_depth$[ebp], -2		; fffffffeH
	jne	SHORT $LN19@xmlXPathRu

; 14092:         max_depth = 10000;

	mov	DWORD PTR _max_depth$[ebp], 10000	; 00002710H
$LN19@xmlXPathRu:

; 14093:     min_depth = xmlPatternMinDepth(comp);

	mov	ecx, DWORD PTR _comp$[ebp]
	push	ecx
	call	_xmlPatternMinDepth
	add	esp, 4
	mov	DWORD PTR _min_depth$[ebp], eax

; 14094:     if (min_depth == -1)

	cmp	DWORD PTR _min_depth$[ebp], -1
	jne	SHORT $LN20@xmlXPathRu

; 14095:         return(-1);

	or	eax, -1
	jmp	$LN1@xmlXPathRu
$LN20@xmlXPathRu:

; 14096:     from_root = xmlPatternFromRoot(comp);

	mov	edx, DWORD PTR _comp$[ebp]
	push	edx
	call	_xmlPatternFromRoot
	add	esp, 4
	mov	DWORD PTR _from_root$[ebp], eax

; 14097:     if (from_root < 0)

	cmp	DWORD PTR _from_root$[ebp], 0
	jge	SHORT $LN21@xmlXPathRu

; 14098:         return(-1);

	or	eax, -1
	jmp	$LN1@xmlXPathRu
$LN21@xmlXPathRu:

; 14099: #if 0
; 14100:     printf("stream eval: depth %d from root %d\n", max_depth, from_root);
; 14101: #endif
; 14102: 
; 14103:     if (! toBool) {

	cmp	DWORD PTR _toBool$[ebp], 0
	jne	SHORT $LN22@xmlXPathRu

; 14104: 	if (resultSeq == NULL)

	cmp	DWORD PTR _resultSeq$[ebp], 0
	jne	SHORT $LN23@xmlXPathRu

; 14105: 	    return(-1);

	or	eax, -1
	jmp	$LN1@xmlXPathRu
$LN23@xmlXPathRu:

; 14106: 	*resultSeq = xmlXPathCacheNewNodeSet(ctxt, NULL);

	push	0
	mov	eax, DWORD PTR _ctxt$[ebp]
	push	eax
	call	_xmlXPathCacheNewNodeSet
	add	esp, 8
	mov	ecx, DWORD PTR _resultSeq$[ebp]
	mov	DWORD PTR [ecx], eax

; 14107: 	if (*resultSeq == NULL)

	mov	edx, DWORD PTR _resultSeq$[ebp]
	cmp	DWORD PTR [edx], 0
	jne	SHORT $LN22@xmlXPathRu

; 14108: 	    return(-1);

	or	eax, -1
	jmp	$LN1@xmlXPathRu
$LN22@xmlXPathRu:

; 14109:     }
; 14110: 
; 14111:     /*
; 14112:      * handle the special cases of "/" amd "." being matched
; 14113:      */
; 14114:     if (min_depth == 0) {

	cmp	DWORD PTR _min_depth$[ebp], 0
	jne	SHORT $LN25@xmlXPathRu

; 14115: 	if (from_root) {

	cmp	DWORD PTR _from_root$[ebp], 0
	je	SHORT $LN26@xmlXPathRu

; 14116: 	    /* Select "/" */
; 14117: 	    if (toBool)

	cmp	DWORD PTR _toBool$[ebp], 0
	je	SHORT $LN28@xmlXPathRu

; 14118: 		return(1);

	mov	eax, 1
	jmp	$LN1@xmlXPathRu
$LN28@xmlXPathRu:

; 14119: 	    xmlXPathNodeSetAddUnique((*resultSeq)->nodesetval,

	mov	eax, DWORD PTR _ctxt$[ebp]
	mov	ecx, DWORD PTR [eax]
	push	ecx
	mov	edx, DWORD PTR _resultSeq$[ebp]
	mov	eax, DWORD PTR [edx]
	mov	ecx, DWORD PTR [eax+4]
	push	ecx
	call	_xmlXPathNodeSetAddUnique
	add	esp, 8

; 14120: 		                     (xmlNodePtr) ctxt->doc);
; 14121: 	} else {

	jmp	SHORT $LN25@xmlXPathRu
$LN26@xmlXPathRu:

; 14122: 	    /* Select "self::node()" */
; 14123: 	    if (toBool)

	cmp	DWORD PTR _toBool$[ebp], 0
	je	SHORT $LN29@xmlXPathRu

; 14124: 		return(1);

	mov	eax, 1
	jmp	$LN1@xmlXPathRu
$LN29@xmlXPathRu:

; 14125: 	    xmlXPathNodeSetAddUnique((*resultSeq)->nodesetval, ctxt->node);

	mov	edx, DWORD PTR _ctxt$[ebp]
	mov	eax, DWORD PTR [edx+4]
	push	eax
	mov	ecx, DWORD PTR _resultSeq$[ebp]
	mov	edx, DWORD PTR [ecx]
	mov	eax, DWORD PTR [edx+4]
	push	eax
	call	_xmlXPathNodeSetAddUnique
	add	esp, 8
$LN25@xmlXPathRu:

; 14126: 	}
; 14127:     }
; 14128:     if (max_depth == 0) {

	cmp	DWORD PTR _max_depth$[ebp], 0
	jne	SHORT $LN30@xmlXPathRu

; 14129: 	return(0);

	xor	eax, eax
	jmp	$LN1@xmlXPathRu
$LN30@xmlXPathRu:

; 14130:     }
; 14131: 
; 14132:     if (from_root) {

	cmp	DWORD PTR _from_root$[ebp], 0
	je	SHORT $LN31@xmlXPathRu

; 14133:         cur = (xmlNodePtr)ctxt->doc;

	mov	ecx, DWORD PTR _ctxt$[ebp]
	mov	edx, DWORD PTR [ecx]
	mov	DWORD PTR _cur$[ebp], edx
	jmp	SHORT $LN32@xmlXPathRu
$LN31@xmlXPathRu:

; 14134:     } else if (ctxt->node != NULL) {

	mov	eax, DWORD PTR _ctxt$[ebp]
	cmp	DWORD PTR [eax+4], 0
	je	SHORT $LN32@xmlXPathRu

; 14135:         switch (ctxt->node->type) {

	mov	ecx, DWORD PTR _ctxt$[ebp]
	mov	edx, DWORD PTR [ecx+4]
	mov	eax, DWORD PTR [edx+4]
	mov	DWORD PTR tv133[ebp], eax
	mov	ecx, DWORD PTR tv133[ebp]
	sub	ecx, 1
	mov	DWORD PTR tv133[ebp], ecx
	cmp	DWORD PTR tv133[ebp], 20		; 00000014H
	ja	SHORT $LN2@xmlXPathRu
	mov	edx, DWORD PTR tv133[ebp]
	movzx	eax, BYTE PTR $LN76@xmlXPathRu[edx]
	jmp	DWORD PTR $LN78@xmlXPathRu[eax*4]
$LN34@xmlXPathRu:

; 14136:             case XML_ELEMENT_NODE:
; 14137:             case XML_DOCUMENT_NODE:
; 14138:             case XML_DOCUMENT_FRAG_NODE:
; 14139:             case XML_HTML_DOCUMENT_NODE:
; 14140: #ifdef LIBXML_DOCB_ENABLED
; 14141:             case XML_DOCB_DOCUMENT_NODE:
; 14142: #endif
; 14143: 	        cur = ctxt->node;

	mov	ecx, DWORD PTR _ctxt$[ebp]
	mov	edx, DWORD PTR [ecx+4]
	mov	DWORD PTR _cur$[ebp], edx
$LN2@xmlXPathRu:

; 14144: 		break;
; 14145:             case XML_ATTRIBUTE_NODE:
; 14146:             case XML_TEXT_NODE:
; 14147:             case XML_CDATA_SECTION_NODE:
; 14148:             case XML_ENTITY_REF_NODE:
; 14149:             case XML_ENTITY_NODE:
; 14150:             case XML_PI_NODE:
; 14151:             case XML_COMMENT_NODE:
; 14152:             case XML_NOTATION_NODE:
; 14153:             case XML_DTD_NODE:
; 14154:             case XML_DOCUMENT_TYPE_NODE:
; 14155:             case XML_ELEMENT_DECL:
; 14156:             case XML_ATTRIBUTE_DECL:
; 14157:             case XML_ENTITY_DECL:
; 14158:             case XML_NAMESPACE_DECL:
; 14159:             case XML_XINCLUDE_START:
; 14160:             case XML_XINCLUDE_END:
; 14161: 		break;
; 14162: 	}
; 14163: 	limit = cur;

	mov	eax, DWORD PTR _cur$[ebp]
	mov	DWORD PTR _limit$[ebp], eax
$LN32@xmlXPathRu:

; 14164:     }
; 14165:     if (cur == NULL) {

	cmp	DWORD PTR _cur$[ebp], 0
	jne	SHORT $LN36@xmlXPathRu

; 14166:         return(0);

	xor	eax, eax
	jmp	$LN1@xmlXPathRu
$LN36@xmlXPathRu:

; 14167:     }
; 14168: 
; 14169:     patstream = xmlPatternGetStreamCtxt(comp);

	mov	ecx, DWORD PTR _comp$[ebp]
	push	ecx
	call	_xmlPatternGetStreamCtxt
	add	esp, 4
	mov	DWORD PTR _patstream$[ebp], eax

; 14170:     if (patstream == NULL) {

	cmp	DWORD PTR _patstream$[ebp], 0
	jne	SHORT $LN37@xmlXPathRu

; 14171: 	/*
; 14172: 	* QUESTION TODO: Is this an error?
; 14173: 	*/
; 14174: 	return(0);

	xor	eax, eax
	jmp	$LN1@xmlXPathRu
$LN37@xmlXPathRu:

; 14175:     }
; 14176: 
; 14177:     eval_all_nodes = xmlStreamWantsAnyNode(patstream);

	mov	edx, DWORD PTR _patstream$[ebp]
	push	edx
	call	_xmlStreamWantsAnyNode
	add	esp, 4
	mov	DWORD PTR _eval_all_nodes$[ebp], eax

; 14178: 
; 14179:     if (from_root) {

	cmp	DWORD PTR _from_root$[ebp], 0
	je	SHORT $LN38@xmlXPathRu

; 14180: 	ret = xmlStreamPush(patstream, NULL, NULL);

	push	0
	push	0
	mov	eax, DWORD PTR _patstream$[ebp]
	push	eax
	call	_xmlStreamPush
	add	esp, 12					; 0000000cH
	mov	DWORD PTR _ret$[ebp], eax

; 14181: 	if (ret < 0) {

	cmp	DWORD PTR _ret$[ebp], 0
	jge	SHORT $LN39@xmlXPathRu
	jmp	SHORT $LN38@xmlXPathRu
$LN39@xmlXPathRu:

; 14182: 	} else if (ret == 1) {

	cmp	DWORD PTR _ret$[ebp], 1
	jne	SHORT $LN38@xmlXPathRu

; 14183: 	    if (toBool)

	cmp	DWORD PTR _toBool$[ebp], 0
	je	SHORT $LN42@xmlXPathRu

; 14184: 		goto return_1;

	jmp	$return_1$80
$LN42@xmlXPathRu:

; 14185: 	    xmlXPathNodeSetAddUnique((*resultSeq)->nodesetval, cur);

	mov	ecx, DWORD PTR _cur$[ebp]
	push	ecx
	mov	edx, DWORD PTR _resultSeq$[ebp]
	mov	eax, DWORD PTR [edx]
	mov	ecx, DWORD PTR [eax+4]
	push	ecx
	call	_xmlXPathNodeSetAddUnique
	add	esp, 8
$LN38@xmlXPathRu:

; 14186: 	}
; 14187:     }
; 14188:     depth = 0;

	mov	DWORD PTR _depth$[ebp], 0

; 14189:     goto scan_children;

	jmp	$scan_children$81
$next_node$82:

; 14190: next_node:
; 14191:     do {
; 14192:         nb_nodes++;

	mov	edx, DWORD PTR _nb_nodes$[ebp]
	add	edx, 1
	mov	DWORD PTR _nb_nodes$[ebp], edx

; 14193: 
; 14194: 	switch (cur->type) {

	mov	eax, DWORD PTR _cur$[ebp]
	mov	ecx, DWORD PTR [eax+4]
	mov	DWORD PTR tv156[ebp], ecx
	mov	edx, DWORD PTR tv156[ebp]
	sub	edx, 1
	mov	DWORD PTR tv156[ebp], edx
	cmp	DWORD PTR tv156[ebp], 7
	ja	$scan_children$81
	mov	eax, DWORD PTR tv156[ebp]
	movzx	ecx, BYTE PTR $LN77@xmlXPathRu[eax]
	jmp	DWORD PTR $LN79@xmlXPathRu[ecx*4]
$LN43@xmlXPathRu:

; 14195: 	    case XML_ELEMENT_NODE:
; 14196: 	    case XML_TEXT_NODE:
; 14197: 	    case XML_CDATA_SECTION_NODE:
; 14198: 	    case XML_COMMENT_NODE:
; 14199: 	    case XML_PI_NODE:
; 14200: 		if (cur->type == XML_ELEMENT_NODE) {

	mov	edx, DWORD PTR _cur$[ebp]
	cmp	DWORD PTR [edx+4], 1
	jne	SHORT $LN44@xmlXPathRu

; 14201: 		    ret = xmlStreamPush(patstream, cur->name,

	mov	eax, DWORD PTR _cur$[ebp]
	cmp	DWORD PTR [eax+36], 0
	je	SHORT $LN74@xmlXPathRu
	mov	ecx, DWORD PTR _cur$[ebp]
	mov	edx, DWORD PTR [ecx+36]
	mov	eax, DWORD PTR [edx+8]
	mov	DWORD PTR tv164[ebp], eax
	jmp	SHORT $LN75@xmlXPathRu
$LN74@xmlXPathRu:
	mov	DWORD PTR tv164[ebp], 0
$LN75@xmlXPathRu:
	mov	ecx, DWORD PTR tv164[ebp]
	push	ecx
	mov	edx, DWORD PTR _cur$[ebp]
	mov	eax, DWORD PTR [edx+8]
	push	eax
	mov	ecx, DWORD PTR _patstream$[ebp]
	push	ecx
	call	_xmlStreamPush
	add	esp, 12					; 0000000cH
	mov	DWORD PTR _ret$[ebp], eax
	jmp	SHORT $LN45@xmlXPathRu
$LN44@xmlXPathRu:

; 14202: 				(cur->ns ? cur->ns->href : NULL));
; 14203: 		} else if (eval_all_nodes)

	cmp	DWORD PTR _eval_all_nodes$[ebp], 0
	je	SHORT $LN46@xmlXPathRu

; 14204: 		    ret = xmlStreamPushNode(patstream, NULL, NULL, cur->type);

	mov	edx, DWORD PTR _cur$[ebp]
	mov	eax, DWORD PTR [edx+4]
	push	eax
	push	0
	push	0
	mov	ecx, DWORD PTR _patstream$[ebp]
	push	ecx
	call	_xmlStreamPushNode
	add	esp, 16					; 00000010H
	mov	DWORD PTR _ret$[ebp], eax
	jmp	SHORT $LN45@xmlXPathRu
$LN46@xmlXPathRu:

; 14205: 		else
; 14206: 		    break;

	jmp	$scan_children$81
$LN45@xmlXPathRu:

; 14207: 
; 14208: 		if (ret < 0) {

	cmp	DWORD PTR _ret$[ebp], 0
	jge	SHORT $LN48@xmlXPathRu
	jmp	SHORT $LN49@xmlXPathRu
$LN48@xmlXPathRu:

; 14209: 		    /* NOP. */
; 14210: 		} else if (ret == 1) {

	cmp	DWORD PTR _ret$[ebp], 1
	jne	SHORT $LN49@xmlXPathRu

; 14211: 		    if (toBool)

	cmp	DWORD PTR _toBool$[ebp], 0
	je	SHORT $LN51@xmlXPathRu

; 14212: 			goto return_1;

	jmp	$return_1$80
$LN51@xmlXPathRu:

; 14213: 		    if (xmlXPathNodeSetAddUnique((*resultSeq)->nodesetval, cur)
; 14214: 		        < 0) {

	mov	edx, DWORD PTR _cur$[ebp]
	push	edx
	mov	eax, DWORD PTR _resultSeq$[ebp]
	mov	ecx, DWORD PTR [eax]
	mov	edx, DWORD PTR [ecx+4]
	push	edx
	call	_xmlXPathNodeSetAddUnique
	add	esp, 8
	test	eax, eax
	jge	SHORT $LN49@xmlXPathRu

; 14215: 			ctxt->lastError.domain = XML_FROM_XPATH;

	mov	eax, DWORD PTR _ctxt$[ebp]
	mov	DWORD PTR [eax+136], 12			; 0000000cH

; 14216: 			ctxt->lastError.code = XML_ERR_NO_MEMORY;

	mov	ecx, DWORD PTR _ctxt$[ebp]
	mov	DWORD PTR [ecx+140], 2
$LN49@xmlXPathRu:

; 14217: 		    }
; 14218: 		}
; 14219: 		if ((cur->children == NULL) || (depth >= max_depth)) {

	mov	edx, DWORD PTR _cur$[ebp]
	cmp	DWORD PTR [edx+12], 0
	je	SHORT $LN54@xmlXPathRu
	mov	eax, DWORD PTR _depth$[ebp]
	cmp	eax, DWORD PTR _max_depth$[ebp]
	jl	SHORT $scan_children$81
$LN54@xmlXPathRu:

; 14220: 		    ret = xmlStreamPop(patstream);

	mov	ecx, DWORD PTR _patstream$[ebp]
	push	ecx
	call	_xmlStreamPop
	add	esp, 4
	mov	DWORD PTR _ret$[ebp], eax
$LN9@xmlXPathRu:

; 14221: 		    while (cur->next != NULL) {

	mov	edx, DWORD PTR _cur$[ebp]
	cmp	DWORD PTR [edx+24], 0
	je	SHORT $scan_children$81

; 14222: 			cur = cur->next;

	mov	eax, DWORD PTR _cur$[ebp]
	mov	ecx, DWORD PTR [eax+24]
	mov	DWORD PTR _cur$[ebp], ecx

; 14223: 			if ((cur->type != XML_ENTITY_DECL) &&

	mov	edx, DWORD PTR _cur$[ebp]
	cmp	DWORD PTR [edx+4], 17			; 00000011H
	je	SHORT $LN55@xmlXPathRu
	mov	eax, DWORD PTR _cur$[ebp]
	cmp	DWORD PTR [eax+4], 14			; 0000000eH
	je	SHORT $LN55@xmlXPathRu

; 14224: 			    (cur->type != XML_DTD_NODE))
; 14225: 			    goto next_node;

	jmp	$next_node$82
$LN55@xmlXPathRu:

; 14226: 		    }

	jmp	SHORT $LN9@xmlXPathRu
$scan_children$81:

; 14227: 		}
; 14228: 	    default:
; 14229: 		break;
; 14230: 	}
; 14231: 
; 14232: scan_children:
; 14233: 	if (cur->type == XML_NAMESPACE_DECL) break;

	mov	ecx, DWORD PTR _cur$[ebp]
	cmp	DWORD PTR [ecx+4], 18			; 00000012H
	jne	SHORT $LN57@xmlXPathRu
	jmp	$done$83
$LN57@xmlXPathRu:

; 14234: 	if ((cur->children != NULL) && (depth < max_depth)) {

	mov	edx, DWORD PTR _cur$[ebp]
	cmp	DWORD PTR [edx+12], 0
	je	SHORT $LN58@xmlXPathRu
	mov	eax, DWORD PTR _depth$[ebp]
	cmp	eax, DWORD PTR _max_depth$[ebp]
	jge	SHORT $LN58@xmlXPathRu

; 14235: 	    /*
; 14236: 	     * Do not descend on entities declarations
; 14237: 	     */
; 14238: 	    if (cur->children->type != XML_ENTITY_DECL) {

	mov	ecx, DWORD PTR _cur$[ebp]
	mov	edx, DWORD PTR [ecx+12]
	cmp	DWORD PTR [edx+4], 17			; 00000011H
	je	SHORT $LN58@xmlXPathRu

; 14239: 		cur = cur->children;

	mov	eax, DWORD PTR _cur$[ebp]
	mov	ecx, DWORD PTR [eax+12]
	mov	DWORD PTR _cur$[ebp], ecx

; 14240: 		depth++;

	mov	edx, DWORD PTR _depth$[ebp]
	add	edx, 1
	mov	DWORD PTR _depth$[ebp], edx

; 14241: 		/*
; 14242: 		 * Skip DTDs
; 14243: 		 */
; 14244: 		if (cur->type != XML_DTD_NODE)

	mov	eax, DWORD PTR _cur$[ebp]
	cmp	DWORD PTR [eax+4], 14			; 0000000eH
	je	SHORT $LN58@xmlXPathRu

; 14245: 		    continue;

	jmp	$LN4@xmlXPathRu
$LN58@xmlXPathRu:

; 14246: 	    }
; 14247: 	}
; 14248: 
; 14249: 	if (cur == limit)

	mov	ecx, DWORD PTR _cur$[ebp]
	cmp	ecx, DWORD PTR _limit$[ebp]
	jne	SHORT $LN11@xmlXPathRu

; 14250: 	    break;

	jmp	$done$83
$LN11@xmlXPathRu:

; 14251: 
; 14252: 	while (cur->next != NULL) {

	mov	edx, DWORD PTR _cur$[ebp]
	cmp	DWORD PTR [edx+24], 0
	je	SHORT $LN15@xmlXPathRu

; 14253: 	    cur = cur->next;

	mov	eax, DWORD PTR _cur$[ebp]
	mov	ecx, DWORD PTR [eax+24]
	mov	DWORD PTR _cur$[ebp], ecx

; 14254: 	    if ((cur->type != XML_ENTITY_DECL) &&

	mov	edx, DWORD PTR _cur$[ebp]
	cmp	DWORD PTR [edx+4], 17			; 00000011H
	je	SHORT $LN62@xmlXPathRu
	mov	eax, DWORD PTR _cur$[ebp]
	cmp	DWORD PTR [eax+4], 14			; 0000000eH
	je	SHORT $LN62@xmlXPathRu

; 14255: 		(cur->type != XML_DTD_NODE))
; 14256: 		goto next_node;

	jmp	$next_node$82
$LN62@xmlXPathRu:

; 14257: 	}

	jmp	SHORT $LN11@xmlXPathRu
$LN15@xmlXPathRu:

; 14258: 
; 14259: 	do {
; 14260: 	    cur = cur->parent;

	mov	ecx, DWORD PTR _cur$[ebp]
	mov	edx, DWORD PTR [ecx+20]
	mov	DWORD PTR _cur$[ebp], edx

; 14261: 	    depth--;

	mov	eax, DWORD PTR _depth$[ebp]
	sub	eax, 1
	mov	DWORD PTR _depth$[ebp], eax

; 14262: 	    if ((cur == NULL) || (cur == limit))

	cmp	DWORD PTR _cur$[ebp], 0
	je	SHORT $LN64@xmlXPathRu
	mov	ecx, DWORD PTR _cur$[ebp]
	cmp	ecx, DWORD PTR _limit$[ebp]
	jne	SHORT $LN63@xmlXPathRu
$LN64@xmlXPathRu:

; 14263: 	        goto done;

	jmp	$done$83
$LN63@xmlXPathRu:

; 14264: 	    if (cur->type == XML_ELEMENT_NODE) {

	mov	edx, DWORD PTR _cur$[ebp]
	cmp	DWORD PTR [edx+4], 1
	jne	SHORT $LN65@xmlXPathRu

; 14265: 		ret = xmlStreamPop(patstream);

	mov	eax, DWORD PTR _patstream$[ebp]
	push	eax
	call	_xmlStreamPop
	add	esp, 4
	mov	DWORD PTR _ret$[ebp], eax
	jmp	SHORT $LN66@xmlXPathRu
$LN65@xmlXPathRu:

; 14266: 	    } else if ((eval_all_nodes) &&

	cmp	DWORD PTR _eval_all_nodes$[ebp], 0
	je	SHORT $LN66@xmlXPathRu
	mov	ecx, DWORD PTR _cur$[ebp]
	cmp	DWORD PTR [ecx+4], 3
	je	SHORT $LN68@xmlXPathRu
	mov	edx, DWORD PTR _cur$[ebp]
	cmp	DWORD PTR [edx+4], 4
	je	SHORT $LN68@xmlXPathRu
	mov	eax, DWORD PTR _cur$[ebp]
	cmp	DWORD PTR [eax+4], 8
	je	SHORT $LN68@xmlXPathRu
	mov	ecx, DWORD PTR _cur$[ebp]
	cmp	DWORD PTR [ecx+4], 7
	jne	SHORT $LN66@xmlXPathRu
$LN68@xmlXPathRu:

; 14267: 		((cur->type == XML_TEXT_NODE) ||
; 14268: 		 (cur->type == XML_CDATA_SECTION_NODE) ||
; 14269: 		 (cur->type == XML_COMMENT_NODE) ||
; 14270: 		 (cur->type == XML_PI_NODE)))
; 14271: 	    {
; 14272: 		ret = xmlStreamPop(patstream);

	mov	edx, DWORD PTR _patstream$[ebp]
	push	edx
	call	_xmlStreamPop
	add	esp, 4
	mov	DWORD PTR _ret$[ebp], eax
$LN66@xmlXPathRu:

; 14273: 	    }
; 14274: 	    if (cur->next != NULL) {

	mov	eax, DWORD PTR _cur$[ebp]
	cmp	DWORD PTR [eax+24], 0
	je	SHORT $LN13@xmlXPathRu

; 14275: 		cur = cur->next;

	mov	ecx, DWORD PTR _cur$[ebp]
	mov	edx, DWORD PTR [ecx+24]
	mov	DWORD PTR _cur$[ebp], edx

; 14276: 		break;

	jmp	SHORT $LN4@xmlXPathRu
$LN13@xmlXPathRu:

; 14277: 	    }
; 14278: 	} while (cur != NULL);

	cmp	DWORD PTR _cur$[ebp], 0
	jne	$LN15@xmlXPathRu
$LN4@xmlXPathRu:

; 14279: 
; 14280:     } while ((cur != NULL) && (depth >= 0));

	cmp	DWORD PTR _cur$[ebp], 0
	je	SHORT $done$83
	cmp	DWORD PTR _depth$[ebp], 0
	jge	$next_node$82
$done$83:

; 14281: 
; 14282: done:
; 14283: 
; 14284: #if 0
; 14285:     printf("stream eval: checked %d nodes selected %d\n",
; 14286:            nb_nodes, retObj->nodesetval->nodeNr);
; 14287: #endif
; 14288: 
; 14289:     if (patstream)

	cmp	DWORD PTR _patstream$[ebp], 0
	je	SHORT $LN71@xmlXPathRu

; 14290: 	xmlFreeStreamCtxt(patstream);

	mov	eax, DWORD PTR _patstream$[ebp]
	push	eax
	call	_xmlFreeStreamCtxt
	add	esp, 4
$LN71@xmlXPathRu:

; 14291:     return(0);

	xor	eax, eax
	jmp	SHORT $LN1@xmlXPathRu
$return_1$80:

; 14292: 
; 14293: return_1:
; 14294:     if (patstream)

	cmp	DWORD PTR _patstream$[ebp], 0
	je	SHORT $LN72@xmlXPathRu

; 14295: 	xmlFreeStreamCtxt(patstream);

	mov	ecx, DWORD PTR _patstream$[ebp]
	push	ecx
	call	_xmlFreeStreamCtxt
	add	esp, 4
$LN72@xmlXPathRu:

; 14296:     return(1);

	mov	eax, 1
$LN1@xmlXPathRu:

; 14297: }

	pop	edi
	add	esp, 52					; 00000034H
	cmp	ebp, esp
	call	__RTC_CheckEsp
	mov	esp, ebp
	pop	ebp
	ret	0
$LN78@xmlXPathRu:
	DD	$LN34@xmlXPathRu
	DD	$LN2@xmlXPathRu
$LN76@xmlXPathRu:
	DB	0
	DB	1
	DB	1
	DB	1
	DB	1
	DB	1
	DB	1
	DB	1
	DB	0
	DB	1
	DB	0
	DB	1
	DB	0
	DB	1
	DB	1
	DB	1
	DB	1
	DB	1
	DB	1
	DB	1
	DB	0
	npad	3
$LN79@xmlXPathRu:
	DD	$LN43@xmlXPathRu
	DD	$scan_children$81
$LN77@xmlXPathRu:
	DB	0
	DB	1
	DB	0
	DB	0
	DB	1
	DB	1
	DB	0
	DB	0
_xmlXPathRunStreamEval ENDP
_TEXT	ENDS
; Function compile flags: /Odtp /RTCsu
; File c:\users\dag\documents\_clients\codeproject authors group\windows on arm\libxml2\libxml2-2.9.9\xpath.c
;	COMDAT _xmlXPathCompOpEvalLast
_TEXT	SEGMENT
tv68 = -24						; size = 4
_arg2$ = -20						; size = 4
_arg1$ = -16						; size = 4
_comp$ = -12						; size = 4
_cur$ = -8						; size = 4
_total$ = -4						; size = 4
_ctxt$ = 8						; size = 4
_op$ = 12						; size = 4
_last$ = 16						; size = 4
_xmlXPathCompOpEvalLast PROC				; COMDAT

; 12834: {

	push	ebp
	mov	ebp, esp
	sub	esp, 24					; 00000018H
	mov	eax, -858993460				; ccccccccH
	mov	DWORD PTR [ebp-24], eax
	mov	DWORD PTR [ebp-20], eax
	mov	DWORD PTR [ebp-16], eax
	mov	DWORD PTR [ebp-12], eax
	mov	DWORD PTR [ebp-8], eax
	mov	DWORD PTR [ebp-4], eax
	mov	ecx, OFFSET __9DBA2A81_xpath@c
	call	@__CheckForDebuggerJustMyCode@4

; 12835:     int total = 0, cur;

	mov	DWORD PTR _total$[ebp], 0

; 12836:     xmlXPathCompExprPtr comp;
; 12837:     xmlXPathObjectPtr arg1, arg2;
; 12838: 
; 12839:     CHECK_ERROR0;

	mov	eax, DWORD PTR _ctxt$[ebp]
	cmp	DWORD PTR [eax+8], 0
	je	SHORT $LN4@xmlXPathCo
	xor	eax, eax
	jmp	$LN1@xmlXPathCo
$LN4@xmlXPathCo:

; 12840:     comp = ctxt->comp;

	mov	ecx, DWORD PTR _ctxt$[ebp]
	mov	edx, DWORD PTR [ecx+32]
	mov	DWORD PTR _comp$[ebp], edx

; 12841:     switch (op->op) {

	mov	eax, DWORD PTR _op$[ebp]
	mov	ecx, DWORD PTR [eax]
	mov	DWORD PTR tv68[ebp], ecx
	cmp	DWORD PTR tv68[ebp], 17			; 00000011H
	ja	$LN29@xmlXPathCo
	mov	edx, DWORD PTR tv68[ebp]
	movzx	eax, BYTE PTR $LN31@xmlXPathCo[edx]
	jmp	DWORD PTR $LN32@xmlXPathCo[eax*4]
$LN5@xmlXPathCo:

; 12842:         case XPATH_OP_END:
; 12843:             return (0);

	xor	eax, eax
	jmp	$LN1@xmlXPathCo
$LN6@xmlXPathCo:

; 12844:         case XPATH_OP_UNION:
; 12845:             total =

	mov	ecx, DWORD PTR _last$[ebp]
	push	ecx
	mov	edx, DWORD PTR _op$[ebp]
	imul	eax, DWORD PTR [edx+4], 40
	mov	ecx, DWORD PTR _comp$[ebp]
	add	eax, DWORD PTR [ecx+8]
	push	eax
	mov	edx, DWORD PTR _ctxt$[ebp]
	push	edx
	call	_xmlXPathCompOpEvalLast
	add	esp, 12					; 0000000cH
	mov	DWORD PTR _total$[ebp], eax

; 12846:                 xmlXPathCompOpEvalLast(ctxt, &comp->steps[op->ch1], last);
; 12847: 	    CHECK_ERROR0;

	mov	eax, DWORD PTR _ctxt$[ebp]
	cmp	DWORD PTR [eax+8], 0
	je	SHORT $LN7@xmlXPathCo
	xor	eax, eax
	jmp	$LN1@xmlXPathCo
$LN7@xmlXPathCo:

; 12848:             if ((ctxt->value != NULL)
; 12849:                 && (ctxt->value->type == XPATH_NODESET)
; 12850:                 && (ctxt->value->nodesetval != NULL)
; 12851:                 && (ctxt->value->nodesetval->nodeNr >= 1)) {

	mov	ecx, DWORD PTR _ctxt$[ebp]
	cmp	DWORD PTR [ecx+16], 0
	je	SHORT $LN8@xmlXPathCo
	mov	edx, DWORD PTR _ctxt$[ebp]
	mov	eax, DWORD PTR [edx+16]
	cmp	DWORD PTR [eax], 1
	jne	SHORT $LN8@xmlXPathCo
	mov	ecx, DWORD PTR _ctxt$[ebp]
	mov	edx, DWORD PTR [ecx+16]
	cmp	DWORD PTR [edx+4], 0
	je	SHORT $LN8@xmlXPathCo
	mov	eax, DWORD PTR _ctxt$[ebp]
	mov	ecx, DWORD PTR [eax+16]
	mov	edx, DWORD PTR [ecx+4]
	cmp	DWORD PTR [edx], 1
	jl	SHORT $LN8@xmlXPathCo

; 12852:                 /*
; 12853:                  * limit tree traversing to first node in the result
; 12854:                  */
; 12855: 		if (ctxt->value->nodesetval->nodeNr > 1)

	mov	eax, DWORD PTR _ctxt$[ebp]
	mov	ecx, DWORD PTR [eax+16]
	mov	edx, DWORD PTR [ecx+4]
	cmp	DWORD PTR [edx], 1
	jle	SHORT $LN9@xmlXPathCo

; 12856: 		    xmlXPathNodeSetSort(ctxt->value->nodesetval);

	mov	eax, DWORD PTR _ctxt$[ebp]
	mov	ecx, DWORD PTR [eax+16]
	mov	edx, DWORD PTR [ecx+4]
	push	edx
	call	_xmlXPathNodeSetSort
	add	esp, 4
$LN9@xmlXPathCo:

; 12857:                 *last =

	mov	eax, DWORD PTR _ctxt$[ebp]
	mov	ecx, DWORD PTR [eax+16]
	mov	edx, DWORD PTR [ecx+4]
	mov	eax, DWORD PTR _ctxt$[ebp]
	mov	ecx, DWORD PTR [eax+16]
	mov	eax, DWORD PTR [ecx+4]
	mov	ecx, DWORD PTR [eax]
	mov	edx, DWORD PTR [edx+8]
	mov	eax, DWORD PTR _last$[ebp]
	mov	ecx, DWORD PTR [edx+ecx*4-4]
	mov	DWORD PTR [eax], ecx
$LN8@xmlXPathCo:

; 12858:                     ctxt->value->nodesetval->nodeTab[ctxt->value->
; 12859:                                                      nodesetval->nodeNr -
; 12860:                                                      1];
; 12861:             }
; 12862:             cur =

	mov	edx, DWORD PTR _last$[ebp]
	push	edx
	mov	eax, DWORD PTR _op$[ebp]
	imul	ecx, DWORD PTR [eax+8], 40
	mov	edx, DWORD PTR _comp$[ebp]
	add	ecx, DWORD PTR [edx+8]
	push	ecx
	mov	eax, DWORD PTR _ctxt$[ebp]
	push	eax
	call	_xmlXPathCompOpEvalLast
	add	esp, 12					; 0000000cH
	mov	DWORD PTR _cur$[ebp], eax

; 12863:                 xmlXPathCompOpEvalLast(ctxt, &comp->steps[op->ch2], last);
; 12864: 	    CHECK_ERROR0;

	mov	ecx, DWORD PTR _ctxt$[ebp]
	cmp	DWORD PTR [ecx+8], 0
	je	SHORT $LN11@xmlXPathCo
	xor	eax, eax
	jmp	$LN1@xmlXPathCo
$LN11@xmlXPathCo:

; 12865:             if ((ctxt->value != NULL)
; 12866:                 && (ctxt->value->type == XPATH_NODESET)
; 12867:                 && (ctxt->value->nodesetval != NULL)
; 12868:                 && (ctxt->value->nodesetval->nodeNr >= 1)) { /* TODO: NOP ? */
; 12869:             }
; 12870: 
; 12871:             arg2 = valuePop(ctxt);

	mov	ecx, DWORD PTR _ctxt$[ebp]
	push	ecx
	call	_valuePop
	add	esp, 4
	mov	DWORD PTR _arg2$[ebp], eax

; 12872:             arg1 = valuePop(ctxt);

	mov	edx, DWORD PTR _ctxt$[ebp]
	push	edx
	call	_valuePop
	add	esp, 4
	mov	DWORD PTR _arg1$[ebp], eax

; 12873:             if ((arg1 == NULL) || (arg1->type != XPATH_NODESET) ||
; 12874:                 (arg2 == NULL) || (arg2->type != XPATH_NODESET)) {

	cmp	DWORD PTR _arg1$[ebp], 0
	je	SHORT $LN13@xmlXPathCo
	mov	eax, DWORD PTR _arg1$[ebp]
	cmp	DWORD PTR [eax], 1
	jne	SHORT $LN13@xmlXPathCo
	cmp	DWORD PTR _arg2$[ebp], 0
	je	SHORT $LN13@xmlXPathCo
	mov	ecx, DWORD PTR _arg2$[ebp]
	cmp	DWORD PTR [ecx], 1
	je	SHORT $LN12@xmlXPathCo
$LN13@xmlXPathCo:

; 12875: 	        xmlXPathReleaseObject(ctxt->context, arg1);

	mov	edx, DWORD PTR _arg1$[ebp]
	push	edx
	mov	eax, DWORD PTR _ctxt$[ebp]
	mov	ecx, DWORD PTR [eax+12]
	push	ecx
	call	_xmlXPathReleaseObject
	add	esp, 8

; 12876: 	        xmlXPathReleaseObject(ctxt->context, arg2);

	mov	edx, DWORD PTR _arg2$[ebp]
	push	edx
	mov	eax, DWORD PTR _ctxt$[ebp]
	mov	ecx, DWORD PTR [eax+12]
	push	ecx
	call	_xmlXPathReleaseObject
	add	esp, 8

; 12877:                 XP_ERROR0(XPATH_INVALID_TYPE);

	push	11					; 0000000bH
	mov	edx, DWORD PTR _ctxt$[ebp]
	push	edx
	call	_xmlXPathErr
	add	esp, 8
	xor	eax, eax
	jmp	$LN1@xmlXPathCo
$LN12@xmlXPathCo:

; 12878:             }
; 12879: 
; 12880:             arg1->nodesetval = xmlXPathNodeSetMerge(arg1->nodesetval,

	mov	eax, DWORD PTR _arg2$[ebp]
	mov	ecx, DWORD PTR [eax+4]
	push	ecx
	mov	edx, DWORD PTR _arg1$[ebp]
	mov	eax, DWORD PTR [edx+4]
	push	eax
	call	_xmlXPathNodeSetMerge
	add	esp, 8
	mov	ecx, DWORD PTR _arg1$[ebp]
	mov	DWORD PTR [ecx+4], eax

; 12881:                                                     arg2->nodesetval);
; 12882:             valuePush(ctxt, arg1);

	mov	edx, DWORD PTR _arg1$[ebp]
	push	edx
	mov	eax, DWORD PTR _ctxt$[ebp]
	push	eax
	call	_valuePush
	add	esp, 8

; 12883: 	    xmlXPathReleaseObject(ctxt->context, arg2);

	mov	ecx, DWORD PTR _arg2$[ebp]
	push	ecx
	mov	edx, DWORD PTR _ctxt$[ebp]
	mov	eax, DWORD PTR [edx+12]
	push	eax
	call	_xmlXPathReleaseObject
	add	esp, 8

; 12884:             /* optimizer */
; 12885: 	    if (total > cur)

	mov	ecx, DWORD PTR _total$[ebp]
	cmp	ecx, DWORD PTR _cur$[ebp]
	jle	SHORT $LN14@xmlXPathCo

; 12886: 		xmlXPathCompSwap(op);

	mov	edx, DWORD PTR _op$[ebp]
	push	edx
	call	_xmlXPathCompSwap
	add	esp, 4
$LN14@xmlXPathCo:

; 12887:             return (total + cur);

	mov	eax, DWORD PTR _total$[ebp]
	add	eax, DWORD PTR _cur$[ebp]
	jmp	$LN1@xmlXPathCo
$LN15@xmlXPathCo:

; 12888:         case XPATH_OP_ROOT:
; 12889:             xmlXPathRoot(ctxt);

	mov	eax, DWORD PTR _ctxt$[ebp]
	push	eax
	call	_xmlXPathRoot
	add	esp, 4

; 12890:             return (0);

	xor	eax, eax
	jmp	$LN1@xmlXPathCo
$LN16@xmlXPathCo:

; 12891:         case XPATH_OP_NODE:
; 12892:             if (op->ch1 != -1)

	mov	ecx, DWORD PTR _op$[ebp]
	cmp	DWORD PTR [ecx+4], -1
	je	SHORT $LN17@xmlXPathCo

; 12893:                 total += xmlXPathCompOpEval(ctxt, &comp->steps[op->ch1]);

	mov	edx, DWORD PTR _op$[ebp]
	imul	eax, DWORD PTR [edx+4], 40
	mov	ecx, DWORD PTR _comp$[ebp]
	add	eax, DWORD PTR [ecx+8]
	push	eax
	mov	edx, DWORD PTR _ctxt$[ebp]
	push	edx
	call	_xmlXPathCompOpEval
	add	esp, 8
	add	eax, DWORD PTR _total$[ebp]
	mov	DWORD PTR _total$[ebp], eax
$LN17@xmlXPathCo:

; 12894: 	    CHECK_ERROR0;

	mov	eax, DWORD PTR _ctxt$[ebp]
	cmp	DWORD PTR [eax+8], 0
	je	SHORT $LN18@xmlXPathCo
	xor	eax, eax
	jmp	$LN1@xmlXPathCo
$LN18@xmlXPathCo:

; 12895:             if (op->ch2 != -1)

	mov	ecx, DWORD PTR _op$[ebp]
	cmp	DWORD PTR [ecx+8], -1
	je	SHORT $LN19@xmlXPathCo

; 12896:                 total += xmlXPathCompOpEval(ctxt, &comp->steps[op->ch2]);

	mov	edx, DWORD PTR _op$[ebp]
	imul	eax, DWORD PTR [edx+8], 40
	mov	ecx, DWORD PTR _comp$[ebp]
	add	eax, DWORD PTR [ecx+8]
	push	eax
	mov	edx, DWORD PTR _ctxt$[ebp]
	push	edx
	call	_xmlXPathCompOpEval
	add	esp, 8
	add	eax, DWORD PTR _total$[ebp]
	mov	DWORD PTR _total$[ebp], eax
$LN19@xmlXPathCo:

; 12897: 	    CHECK_ERROR0;

	mov	eax, DWORD PTR _ctxt$[ebp]
	cmp	DWORD PTR [eax+8], 0
	je	SHORT $LN20@xmlXPathCo
	xor	eax, eax
	jmp	$LN1@xmlXPathCo
$LN20@xmlXPathCo:

; 12898: 	    valuePush(ctxt, xmlXPathCacheNewNodeSet(ctxt->context,

	mov	ecx, DWORD PTR _ctxt$[ebp]
	mov	edx, DWORD PTR [ecx+12]
	mov	eax, DWORD PTR [edx+4]
	push	eax
	mov	ecx, DWORD PTR _ctxt$[ebp]
	mov	edx, DWORD PTR [ecx+12]
	push	edx
	call	_xmlXPathCacheNewNodeSet
	add	esp, 8
	push	eax
	mov	eax, DWORD PTR _ctxt$[ebp]
	push	eax
	call	_valuePush
	add	esp, 8

; 12899: 		ctxt->context->node));
; 12900:             return (total);

	mov	eax, DWORD PTR _total$[ebp]
	jmp	$LN1@xmlXPathCo
$LN21@xmlXPathCo:

; 12901:         case XPATH_OP_COLLECT:{
; 12902:                 if (op->ch1 == -1)

	mov	ecx, DWORD PTR _op$[ebp]
	cmp	DWORD PTR [ecx+4], -1
	jne	SHORT $LN22@xmlXPathCo

; 12903:                     return (0);

	xor	eax, eax
	jmp	$LN1@xmlXPathCo
$LN22@xmlXPathCo:

; 12904: 
; 12905:                 total += xmlXPathCompOpEval(ctxt, &comp->steps[op->ch1]);

	mov	edx, DWORD PTR _op$[ebp]
	imul	eax, DWORD PTR [edx+4], 40
	mov	ecx, DWORD PTR _comp$[ebp]
	add	eax, DWORD PTR [ecx+8]
	push	eax
	mov	edx, DWORD PTR _ctxt$[ebp]
	push	edx
	call	_xmlXPathCompOpEval
	add	esp, 8
	add	eax, DWORD PTR _total$[ebp]
	mov	DWORD PTR _total$[ebp], eax

; 12906: 		CHECK_ERROR0;

	mov	eax, DWORD PTR _ctxt$[ebp]
	cmp	DWORD PTR [eax+8], 0
	je	SHORT $LN23@xmlXPathCo
	xor	eax, eax
	jmp	$LN1@xmlXPathCo
$LN23@xmlXPathCo:

; 12907: 
; 12908:                 total += xmlXPathNodeCollectAndTest(ctxt, op, NULL, last, 0);

	push	0
	mov	ecx, DWORD PTR _last$[ebp]
	push	ecx
	push	0
	mov	edx, DWORD PTR _op$[ebp]
	push	edx
	mov	eax, DWORD PTR _ctxt$[ebp]
	push	eax
	call	_xmlXPathNodeCollectAndTest
	add	esp, 20					; 00000014H
	add	eax, DWORD PTR _total$[ebp]
	mov	DWORD PTR _total$[ebp], eax

; 12909:                 return (total);

	mov	eax, DWORD PTR _total$[ebp]
	jmp	$LN1@xmlXPathCo
$LN24@xmlXPathCo:

; 12910:             }
; 12911:         case XPATH_OP_VALUE:
; 12912:             valuePush(ctxt,

	mov	ecx, DWORD PTR _op$[ebp]
	mov	edx, DWORD PTR [ecx+24]
	push	edx
	mov	eax, DWORD PTR _ctxt$[ebp]
	mov	ecx, DWORD PTR [eax+12]
	push	ecx
	call	_xmlXPathCacheObjectCopy
	add	esp, 8
	push	eax
	mov	edx, DWORD PTR _ctxt$[ebp]
	push	edx
	call	_valuePush
	add	esp, 8

; 12913:                       xmlXPathCacheObjectCopy(ctxt->context,
; 12914: 			(xmlXPathObjectPtr) op->value4));
; 12915:             return (0);

	xor	eax, eax
	jmp	$LN1@xmlXPathCo
$LN25@xmlXPathCo:

; 12916:         case XPATH_OP_SORT:
; 12917:             if (op->ch1 != -1)

	mov	eax, DWORD PTR _op$[ebp]
	cmp	DWORD PTR [eax+4], -1
	je	SHORT $LN26@xmlXPathCo

; 12918:                 total +=

	mov	ecx, DWORD PTR _last$[ebp]
	push	ecx
	mov	edx, DWORD PTR _op$[ebp]
	imul	eax, DWORD PTR [edx+4], 40
	mov	ecx, DWORD PTR _comp$[ebp]
	add	eax, DWORD PTR [ecx+8]
	push	eax
	mov	edx, DWORD PTR _ctxt$[ebp]
	push	edx
	call	_xmlXPathCompOpEvalLast
	add	esp, 12					; 0000000cH
	add	eax, DWORD PTR _total$[ebp]
	mov	DWORD PTR _total$[ebp], eax
$LN26@xmlXPathCo:

; 12919:                     xmlXPathCompOpEvalLast(ctxt, &comp->steps[op->ch1],
; 12920:                                            last);
; 12921: 	    CHECK_ERROR0;

	mov	eax, DWORD PTR _ctxt$[ebp]
	cmp	DWORD PTR [eax+8], 0
	je	SHORT $LN27@xmlXPathCo
	xor	eax, eax
	jmp	SHORT $LN1@xmlXPathCo
$LN27@xmlXPathCo:

; 12922:             if ((ctxt->value != NULL)
; 12923:                 && (ctxt->value->type == XPATH_NODESET)
; 12924:                 && (ctxt->value->nodesetval != NULL)
; 12925: 		&& (ctxt->value->nodesetval->nodeNr > 1))

	mov	ecx, DWORD PTR _ctxt$[ebp]
	cmp	DWORD PTR [ecx+16], 0
	je	SHORT $LN28@xmlXPathCo
	mov	edx, DWORD PTR _ctxt$[ebp]
	mov	eax, DWORD PTR [edx+16]
	cmp	DWORD PTR [eax], 1
	jne	SHORT $LN28@xmlXPathCo
	mov	ecx, DWORD PTR _ctxt$[ebp]
	mov	edx, DWORD PTR [ecx+16]
	cmp	DWORD PTR [edx+4], 0
	je	SHORT $LN28@xmlXPathCo
	mov	eax, DWORD PTR _ctxt$[ebp]
	mov	ecx, DWORD PTR [eax+16]
	mov	edx, DWORD PTR [ecx+4]
	cmp	DWORD PTR [edx], 1
	jle	SHORT $LN28@xmlXPathCo

; 12926:                 xmlXPathNodeSetSort(ctxt->value->nodesetval);

	mov	eax, DWORD PTR _ctxt$[ebp]
	mov	ecx, DWORD PTR [eax+16]
	mov	edx, DWORD PTR [ecx+4]
	push	edx
	call	_xmlXPathNodeSetSort
	add	esp, 4
$LN28@xmlXPathCo:

; 12927:             return (total);

	mov	eax, DWORD PTR _total$[ebp]
	jmp	SHORT $LN1@xmlXPathCo
$LN29@xmlXPathCo:

; 12928:         default:
; 12929:             return (xmlXPathCompOpEval(ctxt, op));

	mov	eax, DWORD PTR _op$[ebp]
	push	eax
	mov	ecx, DWORD PTR _ctxt$[ebp]
	push	ecx
	call	_xmlXPathCompOpEval
	add	esp, 8
$LN1@xmlXPathCo:

; 12930:     }
; 12931: }

	add	esp, 24					; 00000018H
	cmp	ebp, esp
	call	__RTC_CheckEsp
	mov	esp, ebp
	pop	ebp
	ret	0
$LN32@xmlXPathCo:
	DD	$LN5@xmlXPathCo
	DD	$LN6@xmlXPathCo
	DD	$LN15@xmlXPathCo
	DD	$LN16@xmlXPathCo
	DD	$LN21@xmlXPathCo
	DD	$LN24@xmlXPathCo
	DD	$LN25@xmlXPathCo
	DD	$LN29@xmlXPathCo
$LN31@xmlXPathCo:
	DB	0
	DB	7
	DB	7
	DB	7
	DB	7
	DB	7
	DB	7
	DB	1
	DB	2
	DB	3
	DB	4
	DB	5
	DB	7
	DB	7
	DB	7
	DB	7
	DB	7
	DB	6
_xmlXPathCompOpEvalLast ENDP
_TEXT	ENDS
; Function compile flags: /Odtp /RTCsu
; File c:\users\dag\documents\_clients\codeproject authors group\windows on arm\libxml2\libxml2-2.9.9\xpath.c
;	COMDAT _xmlXPathCompOpEvalFilterFirst
_TEXT	SEGMENT
_tmp$1 = -76						; size = 4
_newset$2 = -72						; size = 4
_oldlocset$3 = -68					; size = 4
_newlocset$4 = -64					; size = 4
_tmp$5 = -60						; size = 4
_last$6 = -52						; size = 4
_f$7 = -44						; size = 4
_i$ = -40						; size = 4
_oldpp$ = -36						; size = 4
_oldcs$ = -32						; size = 4
_oldDoc$ = -28						; size = 4
_oldnode$ = -24						; size = 4
_oldset$ = -20						; size = 4
_obj$ = -16						; size = 4
_res$ = -12						; size = 4
_comp$ = -8						; size = 4
_total$ = -4						; size = 4
_ctxt$ = 8						; size = 4
_op$ = 12						; size = 4
_first$ = 16						; size = 4
_xmlXPathCompOpEvalFilterFirst PROC			; COMDAT

; 12937: {

	push	ebp
	mov	ebp, esp
	sub	esp, 76					; 0000004cH
	push	edi
	lea	edi, DWORD PTR [ebp-76]
	mov	ecx, 19					; 00000013H
	mov	eax, -858993460				; ccccccccH
	rep stosd
	mov	ecx, OFFSET __9DBA2A81_xpath@c
	call	@__CheckForDebuggerJustMyCode@4

; 12938:     int total = 0;

	mov	DWORD PTR _total$[ebp], 0

; 12939:     xmlXPathCompExprPtr comp;
; 12940:     xmlXPathObjectPtr res;
; 12941:     xmlXPathObjectPtr obj;
; 12942:     xmlNodeSetPtr oldset;
; 12943:     xmlNodePtr oldnode;
; 12944:     xmlDocPtr oldDoc;
; 12945:     int oldcs, oldpp;
; 12946:     int i;
; 12947: 
; 12948:     CHECK_ERROR0;

	mov	eax, DWORD PTR _ctxt$[ebp]
	cmp	DWORD PTR [eax+8], 0
	je	SHORT $LN8@xmlXPathCo
	xor	eax, eax
	jmp	$LN1@xmlXPathCo
$LN8@xmlXPathCo:

; 12949:     comp = ctxt->comp;

	mov	ecx, DWORD PTR _ctxt$[ebp]
	mov	edx, DWORD PTR [ecx+32]
	mov	DWORD PTR _comp$[ebp], edx

; 12950:     /*
; 12951:     * Optimization for ()[last()] selection i.e. the last elem
; 12952:     */
; 12953:     if ((op->ch1 != -1) && (op->ch2 != -1) &&
; 12954: 	(comp->steps[op->ch1].op == XPATH_OP_SORT) &&

	mov	eax, DWORD PTR _op$[ebp]
	cmp	DWORD PTR [eax+4], -1
	je	$LN9@xmlXPathCo
	mov	ecx, DWORD PTR _op$[ebp]
	cmp	DWORD PTR [ecx+8], -1
	je	$LN9@xmlXPathCo
	mov	edx, DWORD PTR _op$[ebp]
	imul	eax, DWORD PTR [edx+4], 40
	mov	ecx, DWORD PTR _comp$[ebp]
	mov	edx, DWORD PTR [ecx+8]
	cmp	DWORD PTR [edx+eax], 17			; 00000011H
	jne	$LN9@xmlXPathCo
	mov	eax, DWORD PTR _op$[ebp]
	imul	ecx, DWORD PTR [eax+8], 40
	mov	edx, DWORD PTR _comp$[ebp]
	mov	eax, DWORD PTR [edx+8]
	cmp	DWORD PTR [eax+ecx], 17			; 00000011H
	jne	$LN9@xmlXPathCo

; 12955: 	(comp->steps[op->ch2].op == XPATH_OP_SORT)) {
; 12956: 	int f = comp->steps[op->ch2].ch1;

	mov	ecx, DWORD PTR _op$[ebp]
	imul	edx, DWORD PTR [ecx+8], 40
	mov	eax, DWORD PTR _comp$[ebp]
	mov	ecx, DWORD PTR [eax+8]
	mov	edx, DWORD PTR [ecx+edx+4]
	mov	DWORD PTR _f$7[ebp], edx

; 12957: 
; 12958: 	if ((f != -1) &&
; 12959: 	    (comp->steps[f].op == XPATH_OP_FUNCTION) &&
; 12960: 	    (comp->steps[f].value5 == NULL) &&
; 12961: 	    (comp->steps[f].value == 0) &&
; 12962: 	    (comp->steps[f].value4 != NULL) &&

	cmp	DWORD PTR _f$7[ebp], -1
	je	$LN9@xmlXPathCo
	imul	eax, DWORD PTR _f$7[ebp], 40
	mov	ecx, DWORD PTR _comp$[ebp]
	mov	edx, DWORD PTR [ecx+8]
	cmp	DWORD PTR [edx+eax], 13			; 0000000dH
	jne	$LN9@xmlXPathCo
	imul	eax, DWORD PTR _f$7[ebp], 40
	mov	ecx, DWORD PTR _comp$[ebp]
	mov	edx, DWORD PTR [ecx+8]
	cmp	DWORD PTR [edx+eax+28], 0
	jne	$LN9@xmlXPathCo
	imul	eax, DWORD PTR _f$7[ebp], 40
	mov	ecx, DWORD PTR _comp$[ebp]
	mov	edx, DWORD PTR [ecx+8]
	cmp	DWORD PTR [edx+eax+12], 0
	jne	$LN9@xmlXPathCo
	imul	eax, DWORD PTR _f$7[ebp], 40
	mov	ecx, DWORD PTR _comp$[ebp]
	mov	edx, DWORD PTR [ecx+8]
	cmp	DWORD PTR [edx+eax+24], 0
	je	$LN9@xmlXPathCo
	push	OFFSET ??_C@_04PLGBGIDD@last@
	imul	eax, DWORD PTR _f$7[ebp], 40
	mov	ecx, DWORD PTR _comp$[ebp]
	mov	edx, DWORD PTR [ecx+8]
	mov	eax, DWORD PTR [edx+eax+24]
	push	eax
	call	_xmlStrEqual
	add	esp, 8
	test	eax, eax
	je	$LN9@xmlXPathCo

; 12963: 	    (xmlStrEqual
; 12964: 	    (comp->steps[f].value4, BAD_CAST "last"))) {
; 12965: 	    xmlNodePtr last = NULL;

	mov	DWORD PTR _last$6[ebp], 0

; 12966: 
; 12967: 	    total +=

	lea	ecx, DWORD PTR _last$6[ebp]
	push	ecx
	mov	edx, DWORD PTR _op$[ebp]
	imul	eax, DWORD PTR [edx+4], 40
	mov	ecx, DWORD PTR _comp$[ebp]
	add	eax, DWORD PTR [ecx+8]
	push	eax
	mov	edx, DWORD PTR _ctxt$[ebp]
	push	edx
	call	_xmlXPathCompOpEvalLast
	add	esp, 12					; 0000000cH
	add	eax, DWORD PTR _total$[ebp]
	mov	DWORD PTR _total$[ebp], eax

; 12968: 		xmlXPathCompOpEvalLast(ctxt,
; 12969: 		    &comp->steps[op->ch1],
; 12970: 		    &last);
; 12971: 	    CHECK_ERROR0;

	mov	eax, DWORD PTR _ctxt$[ebp]
	cmp	DWORD PTR [eax+8], 0
	je	SHORT $LN11@xmlXPathCo
	xor	eax, eax
	jmp	$LN1@xmlXPathCo
$LN11@xmlXPathCo:

; 12972: 	    /*
; 12973: 	    * The nodeset should be in document order,
; 12974: 	    * Keep only the last value
; 12975: 	    */
; 12976: 	    if ((ctxt->value != NULL) &&
; 12977: 		(ctxt->value->type == XPATH_NODESET) &&
; 12978: 		(ctxt->value->nodesetval != NULL) &&
; 12979: 		(ctxt->value->nodesetval->nodeTab != NULL) &&

	mov	ecx, DWORD PTR _ctxt$[ebp]
	cmp	DWORD PTR [ecx+16], 0
	je	SHORT $LN12@xmlXPathCo
	mov	edx, DWORD PTR _ctxt$[ebp]
	mov	eax, DWORD PTR [edx+16]
	cmp	DWORD PTR [eax], 1
	jne	SHORT $LN12@xmlXPathCo
	mov	ecx, DWORD PTR _ctxt$[ebp]
	mov	edx, DWORD PTR [ecx+16]
	cmp	DWORD PTR [edx+4], 0
	je	SHORT $LN12@xmlXPathCo
	mov	eax, DWORD PTR _ctxt$[ebp]
	mov	ecx, DWORD PTR [eax+16]
	mov	edx, DWORD PTR [ecx+4]
	cmp	DWORD PTR [edx+8], 0
	je	SHORT $LN12@xmlXPathCo
	mov	eax, DWORD PTR _ctxt$[ebp]
	mov	ecx, DWORD PTR [eax+16]
	mov	edx, DWORD PTR [ecx+4]
	cmp	DWORD PTR [edx], 1
	jle	SHORT $LN12@xmlXPathCo

; 12980: 		(ctxt->value->nodesetval->nodeNr > 1)) {
; 12981:                 xmlXPathNodeSetKeepLast(ctxt->value->nodesetval);

	mov	eax, DWORD PTR _ctxt$[ebp]
	mov	ecx, DWORD PTR [eax+16]
	mov	edx, DWORD PTR [ecx+4]
	push	edx
	call	_xmlXPathNodeSetKeepLast
	add	esp, 4

; 12982: 		*first = *(ctxt->value->nodesetval->nodeTab);

	mov	eax, DWORD PTR _ctxt$[ebp]
	mov	ecx, DWORD PTR [eax+16]
	mov	edx, DWORD PTR [ecx+4]
	mov	eax, DWORD PTR [edx+8]
	mov	ecx, DWORD PTR _first$[ebp]
	mov	edx, DWORD PTR [eax]
	mov	DWORD PTR [ecx], edx
$LN12@xmlXPathCo:

; 12983: 	    }
; 12984: 	    return (total);

	mov	eax, DWORD PTR _total$[ebp]
	jmp	$LN1@xmlXPathCo
$LN9@xmlXPathCo:

; 12985: 	}
; 12986:     }
; 12987: 
; 12988:     if (op->ch1 != -1)

	mov	eax, DWORD PTR _op$[ebp]
	cmp	DWORD PTR [eax+4], -1
	je	SHORT $LN13@xmlXPathCo

; 12989: 	total += xmlXPathCompOpEval(ctxt, &comp->steps[op->ch1]);

	mov	ecx, DWORD PTR _op$[ebp]
	imul	edx, DWORD PTR [ecx+4], 40
	mov	eax, DWORD PTR _comp$[ebp]
	add	edx, DWORD PTR [eax+8]
	push	edx
	mov	ecx, DWORD PTR _ctxt$[ebp]
	push	ecx
	call	_xmlXPathCompOpEval
	add	esp, 8
	add	eax, DWORD PTR _total$[ebp]
	mov	DWORD PTR _total$[ebp], eax
$LN13@xmlXPathCo:

; 12990:     CHECK_ERROR0;

	mov	edx, DWORD PTR _ctxt$[ebp]
	cmp	DWORD PTR [edx+8], 0
	je	SHORT $LN14@xmlXPathCo
	xor	eax, eax
	jmp	$LN1@xmlXPathCo
$LN14@xmlXPathCo:

; 12991:     if (op->ch2 == -1)

	mov	eax, DWORD PTR _op$[ebp]
	cmp	DWORD PTR [eax+8], -1
	jne	SHORT $LN15@xmlXPathCo

; 12992: 	return (total);

	mov	eax, DWORD PTR _total$[ebp]
	jmp	$LN1@xmlXPathCo
$LN15@xmlXPathCo:

; 12993:     if (ctxt->value == NULL)

	mov	ecx, DWORD PTR _ctxt$[ebp]
	cmp	DWORD PTR [ecx+16], 0
	jne	SHORT $LN16@xmlXPathCo

; 12994: 	return (total);

	mov	eax, DWORD PTR _total$[ebp]
	jmp	$LN1@xmlXPathCo
$LN16@xmlXPathCo:

; 12995: 
; 12996: #ifdef LIBXML_XPTR_ENABLED
; 12997:     /*
; 12998:     * Hum are we filtering the result of an XPointer expression
; 12999:     */
; 13000:     if (ctxt->value->type == XPATH_LOCATIONSET) {

	mov	edx, DWORD PTR _ctxt$[ebp]
	mov	eax, DWORD PTR [edx+16]
	cmp	DWORD PTR [eax], 7
	jne	$LN17@xmlXPathCo

; 13001: 	xmlXPathObjectPtr tmp = NULL;

	mov	DWORD PTR _tmp$5[ebp], 0

; 13002: 	xmlLocationSetPtr newlocset = NULL;

	mov	DWORD PTR _newlocset$4[ebp], 0

; 13003: 	xmlLocationSetPtr oldlocset;
; 13004: 
; 13005: 	/*
; 13006: 	* Extract the old locset, and then evaluate the result of the
; 13007: 	* expression for all the element in the locset. use it to grow
; 13008: 	* up a new locset.
; 13009: 	*/
; 13010: 	CHECK_TYPE0(XPATH_LOCATIONSET);

	mov	ecx, DWORD PTR _ctxt$[ebp]
	cmp	DWORD PTR [ecx+16], 0
	je	SHORT $LN19@xmlXPathCo
	mov	edx, DWORD PTR _ctxt$[ebp]
	mov	eax, DWORD PTR [edx+16]
	cmp	DWORD PTR [eax], 7
	je	SHORT $LN18@xmlXPathCo
$LN19@xmlXPathCo:
	push	11					; 0000000bH
	mov	ecx, DWORD PTR _ctxt$[ebp]
	push	ecx
	call	_xmlXPathErr
	add	esp, 8
	xor	eax, eax
	jmp	$LN1@xmlXPathCo
$LN18@xmlXPathCo:

; 13011: 
; 13012: 	if ((ctxt->value->user == NULL) ||

	mov	edx, DWORD PTR _ctxt$[ebp]
	mov	eax, DWORD PTR [edx+16]
	cmp	DWORD PTR [eax+28], 0
	je	SHORT $LN21@xmlXPathCo
	mov	ecx, DWORD PTR _ctxt$[ebp]
	mov	edx, DWORD PTR [ecx+16]
	mov	eax, DWORD PTR [edx+28]
	cmp	DWORD PTR [eax], 0
	jne	SHORT $LN20@xmlXPathCo
$LN21@xmlXPathCo:

; 13013:             (((xmlLocationSetPtr) ctxt->value->user)->locNr == 0))
; 13014: 	    return (total);

	mov	eax, DWORD PTR _total$[ebp]
	jmp	$LN1@xmlXPathCo
$LN20@xmlXPathCo:

; 13015: 
; 13016: 	obj = valuePop(ctxt);

	mov	ecx, DWORD PTR _ctxt$[ebp]
	push	ecx
	call	_valuePop
	add	esp, 4
	mov	DWORD PTR _obj$[ebp], eax

; 13017: 	oldlocset = obj->user;

	mov	edx, DWORD PTR _obj$[ebp]
	mov	eax, DWORD PTR [edx+28]
	mov	DWORD PTR _oldlocset$3[ebp], eax

; 13018:         oldnode = ctxt->context->node;

	mov	ecx, DWORD PTR _ctxt$[ebp]
	mov	edx, DWORD PTR [ecx+12]
	mov	eax, DWORD PTR [edx+4]
	mov	DWORD PTR _oldnode$[ebp], eax

; 13019:         oldcs = ctxt->context->contextSize;

	mov	ecx, DWORD PTR _ctxt$[ebp]
	mov	edx, DWORD PTR [ecx+12]
	mov	eax, DWORD PTR [edx+68]
	mov	DWORD PTR _oldcs$[ebp], eax

; 13020:         oldpp = ctxt->context->proximityPosition;

	mov	ecx, DWORD PTR _ctxt$[ebp]
	mov	edx, DWORD PTR [ecx+12]
	mov	eax, DWORD PTR [edx+72]
	mov	DWORD PTR _oldpp$[ebp], eax

; 13021: 
; 13022: 	newlocset = xmlXPtrLocationSetCreate(NULL);

	push	0
	call	_xmlXPtrLocationSetCreate
	add	esp, 4
	mov	DWORD PTR _newlocset$4[ebp], eax

; 13023: 
; 13024: 	for (i = 0; i < oldlocset->locNr; i++) {

	mov	DWORD PTR _i$[ebp], 0
	jmp	SHORT $LN4@xmlXPathCo
$LN2@xmlXPathCo:
	mov	ecx, DWORD PTR _i$[ebp]
	add	ecx, 1
	mov	DWORD PTR _i$[ebp], ecx
$LN4@xmlXPathCo:
	mov	edx, DWORD PTR _oldlocset$3[ebp]
	mov	eax, DWORD PTR _i$[ebp]
	cmp	eax, DWORD PTR [edx]
	jge	$LN3@xmlXPathCo

; 13025: 	    /*
; 13026: 	    * Run the evaluation with a node list made of a
; 13027: 	    * single item in the nodelocset.
; 13028: 	    */
; 13029: 	    ctxt->context->node = oldlocset->locTab[i]->user;

	mov	ecx, DWORD PTR _oldlocset$3[ebp]
	mov	edx, DWORD PTR [ecx+8]
	mov	eax, DWORD PTR _i$[ebp]
	mov	ecx, DWORD PTR [edx+eax*4]
	mov	edx, DWORD PTR _ctxt$[ebp]
	mov	eax, DWORD PTR [edx+12]
	mov	ecx, DWORD PTR [ecx+28]
	mov	DWORD PTR [eax+4], ecx

; 13030: 	    ctxt->context->contextSize = oldlocset->locNr;

	mov	edx, DWORD PTR _ctxt$[ebp]
	mov	eax, DWORD PTR [edx+12]
	mov	ecx, DWORD PTR _oldlocset$3[ebp]
	mov	edx, DWORD PTR [ecx]
	mov	DWORD PTR [eax+68], edx

; 13031: 	    ctxt->context->proximityPosition = i + 1;

	mov	eax, DWORD PTR _i$[ebp]
	add	eax, 1
	mov	ecx, DWORD PTR _ctxt$[ebp]
	mov	edx, DWORD PTR [ecx+12]
	mov	DWORD PTR [edx+72], eax

; 13032: 	    if (tmp == NULL) {

	cmp	DWORD PTR _tmp$5[ebp], 0
	jne	SHORT $LN22@xmlXPathCo

; 13033: 		tmp = xmlXPathCacheNewNodeSet(ctxt->context,

	mov	eax, DWORD PTR _ctxt$[ebp]
	mov	ecx, DWORD PTR [eax+12]
	mov	edx, DWORD PTR [ecx+4]
	push	edx
	mov	eax, DWORD PTR _ctxt$[ebp]
	mov	ecx, DWORD PTR [eax+12]
	push	ecx
	call	_xmlXPathCacheNewNodeSet
	add	esp, 8
	mov	DWORD PTR _tmp$5[ebp], eax

; 13034: 		    ctxt->context->node);
; 13035: 	    } else {

	jmp	SHORT $LN23@xmlXPathCo
$LN22@xmlXPathCo:

; 13036: 		if (xmlXPathNodeSetAddUnique(tmp->nodesetval,
; 13037: 		                             ctxt->context->node) < 0) {

	mov	edx, DWORD PTR _ctxt$[ebp]
	mov	eax, DWORD PTR [edx+12]
	mov	ecx, DWORD PTR [eax+4]
	push	ecx
	mov	edx, DWORD PTR _tmp$5[ebp]
	mov	eax, DWORD PTR [edx+4]
	push	eax
	call	_xmlXPathNodeSetAddUnique
	add	esp, 8
	test	eax, eax
	jge	SHORT $LN23@xmlXPathCo

; 13038: 		    ctxt->error = XPATH_MEMORY_ERROR;

	mov	ecx, DWORD PTR _ctxt$[ebp]
	mov	DWORD PTR [ecx+8], 15			; 0000000fH
$LN23@xmlXPathCo:

; 13039: 		}
; 13040: 	    }
; 13041: 	    valuePush(ctxt, tmp);

	mov	edx, DWORD PTR _tmp$5[ebp]
	push	edx
	mov	eax, DWORD PTR _ctxt$[ebp]
	push	eax
	call	_valuePush
	add	esp, 8

; 13042: 	    if (op->ch2 != -1)

	mov	ecx, DWORD PTR _op$[ebp]
	cmp	DWORD PTR [ecx+8], -1
	je	SHORT $LN25@xmlXPathCo

; 13043: 		total += xmlXPathCompOpEval(ctxt, &comp->steps[op->ch2]);

	mov	edx, DWORD PTR _op$[ebp]
	imul	eax, DWORD PTR [edx+8], 40
	mov	ecx, DWORD PTR _comp$[ebp]
	add	eax, DWORD PTR [ecx+8]
	push	eax
	mov	edx, DWORD PTR _ctxt$[ebp]
	push	edx
	call	_xmlXPathCompOpEval
	add	esp, 8
	add	eax, DWORD PTR _total$[ebp]
	mov	DWORD PTR _total$[ebp], eax
$LN25@xmlXPathCo:

; 13044: 	    if (ctxt->error != XPATH_EXPRESSION_OK) {

	mov	eax, DWORD PTR _ctxt$[ebp]
	cmp	DWORD PTR [eax+8], 0
	je	SHORT $LN26@xmlXPathCo

; 13045:                 xmlXPtrFreeLocationSet(newlocset);

	mov	ecx, DWORD PTR _newlocset$4[ebp]
	push	ecx
	call	_xmlXPtrFreeLocationSet
	add	esp, 4

; 13046:                 goto xptr_error;

	jmp	$xptr_error$53
$LN26@xmlXPathCo:

; 13047: 	    }
; 13048: 	    /*
; 13049: 	    * The result of the evaluation need to be tested to
; 13050: 	    * decided whether the filter succeeded or not
; 13051: 	    */
; 13052: 	    res = valuePop(ctxt);

	mov	edx, DWORD PTR _ctxt$[ebp]
	push	edx
	call	_valuePop
	add	esp, 4
	mov	DWORD PTR _res$[ebp], eax

; 13053: 	    if (xmlXPathEvaluatePredicateResult(ctxt, res)) {

	mov	eax, DWORD PTR _res$[ebp]
	push	eax
	mov	ecx, DWORD PTR _ctxt$[ebp]
	push	ecx
	call	_xmlXPathEvaluatePredicateResult
	add	esp, 8
	test	eax, eax
	je	SHORT $LN27@xmlXPathCo

; 13054: 		xmlXPtrLocationSetAdd(newlocset,

	mov	edx, DWORD PTR _oldlocset$3[ebp]
	mov	eax, DWORD PTR [edx+8]
	mov	ecx, DWORD PTR _i$[ebp]
	mov	edx, DWORD PTR [eax+ecx*4]
	push	edx
	mov	eax, DWORD PTR _ctxt$[ebp]
	mov	ecx, DWORD PTR [eax+12]
	push	ecx
	call	_xmlXPathCacheObjectCopy
	add	esp, 8
	push	eax
	mov	edx, DWORD PTR _newlocset$4[ebp]
	push	edx
	call	_xmlXPtrLocationSetAdd
	add	esp, 8
$LN27@xmlXPathCo:

; 13055: 		    xmlXPathCacheObjectCopy(ctxt->context,
; 13056: 			oldlocset->locTab[i]));
; 13057: 	    }
; 13058: 	    /*
; 13059: 	    * Cleanup
; 13060: 	    */
; 13061: 	    if (res != NULL) {

	cmp	DWORD PTR _res$[ebp], 0
	je	SHORT $LN28@xmlXPathCo

; 13062: 		xmlXPathReleaseObject(ctxt->context, res);

	mov	eax, DWORD PTR _res$[ebp]
	push	eax
	mov	ecx, DWORD PTR _ctxt$[ebp]
	mov	edx, DWORD PTR [ecx+12]
	push	edx
	call	_xmlXPathReleaseObject
	add	esp, 8
$LN28@xmlXPathCo:

; 13063: 	    }
; 13064: 	    if (ctxt->value == tmp) {

	mov	eax, DWORD PTR _ctxt$[ebp]
	mov	ecx, DWORD PTR [eax+16]
	cmp	ecx, DWORD PTR _tmp$5[ebp]
	jne	SHORT $LN29@xmlXPathCo

; 13065: 		valuePop(ctxt);

	mov	edx, DWORD PTR _ctxt$[ebp]
	push	edx
	call	_valuePop
	add	esp, 4

; 13066: 		xmlXPathNodeSetClear(tmp->nodesetval, 1);

	push	1
	mov	eax, DWORD PTR _tmp$5[ebp]
	mov	ecx, DWORD PTR [eax+4]
	push	ecx
	call	_xmlXPathNodeSetClear
	add	esp, 8

; 13067: 		/*
; 13068: 		* REVISIT TODO: Don't create a temporary nodeset
; 13069: 		* for everly iteration.
; 13070: 		*/
; 13071: 		/* OLD: xmlXPathFreeObject(res); */
; 13072: 	    } else

	jmp	SHORT $LN30@xmlXPathCo
$LN29@xmlXPathCo:

; 13073: 		tmp = NULL;

	mov	DWORD PTR _tmp$5[ebp], 0
$LN30@xmlXPathCo:

; 13074: 	    /*
; 13075: 	    * Only put the first node in the result, then leave.
; 13076: 	    */
; 13077: 	    if (newlocset->locNr > 0) {

	mov	edx, DWORD PTR _newlocset$4[ebp]
	cmp	DWORD PTR [edx], 0
	jle	SHORT $LN31@xmlXPathCo

; 13078: 		*first = (xmlNodePtr) oldlocset->locTab[i]->user;

	mov	eax, DWORD PTR _oldlocset$3[ebp]
	mov	ecx, DWORD PTR [eax+8]
	mov	edx, DWORD PTR _i$[ebp]
	mov	eax, DWORD PTR [ecx+edx*4]
	mov	ecx, DWORD PTR _first$[ebp]
	mov	edx, DWORD PTR [eax+28]
	mov	DWORD PTR [ecx], edx

; 13079: 		break;

	jmp	SHORT $LN3@xmlXPathCo
$LN31@xmlXPathCo:

; 13080: 	    }
; 13081: 	}

	jmp	$LN2@xmlXPathCo
$LN3@xmlXPathCo:

; 13082: 	if (tmp != NULL) {

	cmp	DWORD PTR _tmp$5[ebp], 0
	je	SHORT $LN32@xmlXPathCo

; 13083: 	    xmlXPathReleaseObject(ctxt->context, tmp);

	mov	eax, DWORD PTR _tmp$5[ebp]
	push	eax
	mov	ecx, DWORD PTR _ctxt$[ebp]
	mov	edx, DWORD PTR [ecx+12]
	push	edx
	call	_xmlXPathReleaseObject
	add	esp, 8
$LN32@xmlXPathCo:

; 13084: 	}
; 13085: 	/*
; 13086: 	* The result is used as the new evaluation locset.
; 13087: 	*/
; 13088: 	valuePush(ctxt, xmlXPtrWrapLocationSet(newlocset));

	mov	eax, DWORD PTR _newlocset$4[ebp]
	push	eax
	call	_xmlXPtrWrapLocationSet
	add	esp, 4
	push	eax
	mov	ecx, DWORD PTR _ctxt$[ebp]
	push	ecx
	call	_valuePush
	add	esp, 8
$xptr_error$53:

; 13089: xptr_error:
; 13090: 	xmlXPathReleaseObject(ctxt->context, obj);

	mov	edx, DWORD PTR _obj$[ebp]
	push	edx
	mov	eax, DWORD PTR _ctxt$[ebp]
	mov	ecx, DWORD PTR [eax+12]
	push	ecx
	call	_xmlXPathReleaseObject
	add	esp, 8

; 13091: 	ctxt->context->node = oldnode;

	mov	edx, DWORD PTR _ctxt$[ebp]
	mov	eax, DWORD PTR [edx+12]
	mov	ecx, DWORD PTR _oldnode$[ebp]
	mov	DWORD PTR [eax+4], ecx

; 13092: 	ctxt->context->contextSize = oldcs;

	mov	edx, DWORD PTR _ctxt$[ebp]
	mov	eax, DWORD PTR [edx+12]
	mov	ecx, DWORD PTR _oldcs$[ebp]
	mov	DWORD PTR [eax+68], ecx

; 13093: 	ctxt->context->proximityPosition = oldpp;

	mov	edx, DWORD PTR _ctxt$[ebp]
	mov	eax, DWORD PTR [edx+12]
	mov	ecx, DWORD PTR _oldpp$[ebp]
	mov	DWORD PTR [eax+72], ecx

; 13094: 	return (total);

	mov	eax, DWORD PTR _total$[ebp]
	jmp	$LN1@xmlXPathCo
$LN17@xmlXPathCo:

; 13095:     }
; 13096: #endif /* LIBXML_XPTR_ENABLED */
; 13097: 
; 13098:     /*
; 13099:     * Extract the old set, and then evaluate the result of the
; 13100:     * expression for all the element in the set. use it to grow
; 13101:     * up a new set.
; 13102:     */
; 13103:     CHECK_TYPE0(XPATH_NODESET);

	mov	edx, DWORD PTR _ctxt$[ebp]
	cmp	DWORD PTR [edx+16], 0
	je	SHORT $LN34@xmlXPathCo
	mov	eax, DWORD PTR _ctxt$[ebp]
	mov	ecx, DWORD PTR [eax+16]
	cmp	DWORD PTR [ecx], 1
	je	SHORT $LN33@xmlXPathCo
$LN34@xmlXPathCo:
	push	11					; 0000000bH
	mov	edx, DWORD PTR _ctxt$[ebp]
	push	edx
	call	_xmlXPathErr
	add	esp, 8
	xor	eax, eax
	jmp	$LN1@xmlXPathCo
$LN33@xmlXPathCo:

; 13104: 
; 13105:     if ((ctxt->value->nodesetval != NULL) &&

	mov	eax, DWORD PTR _ctxt$[ebp]
	mov	ecx, DWORD PTR [eax+16]
	cmp	DWORD PTR [ecx+4], 0
	je	$LN35@xmlXPathCo
	mov	edx, DWORD PTR _ctxt$[ebp]
	mov	eax, DWORD PTR [edx+16]
	mov	ecx, DWORD PTR [eax+4]
	cmp	DWORD PTR [ecx], 0
	je	$LN35@xmlXPathCo

; 13106:         (ctxt->value->nodesetval->nodeNr != 0)) {
; 13107: 	xmlNodeSetPtr newset;
; 13108: 	xmlXPathObjectPtr tmp = NULL;

	mov	DWORD PTR _tmp$1[ebp], 0

; 13109: 
; 13110:         obj = valuePop(ctxt);

	mov	edx, DWORD PTR _ctxt$[ebp]
	push	edx
	call	_valuePop
	add	esp, 4
	mov	DWORD PTR _obj$[ebp], eax

; 13111:         oldset = obj->nodesetval;

	mov	eax, DWORD PTR _obj$[ebp]
	mov	ecx, DWORD PTR [eax+4]
	mov	DWORD PTR _oldset$[ebp], ecx

; 13112:         oldnode = ctxt->context->node;

	mov	edx, DWORD PTR _ctxt$[ebp]
	mov	eax, DWORD PTR [edx+12]
	mov	ecx, DWORD PTR [eax+4]
	mov	DWORD PTR _oldnode$[ebp], ecx

; 13113:         oldDoc = ctxt->context->doc;

	mov	edx, DWORD PTR _ctxt$[ebp]
	mov	eax, DWORD PTR [edx+12]
	mov	ecx, DWORD PTR [eax]
	mov	DWORD PTR _oldDoc$[ebp], ecx

; 13114:         oldcs = ctxt->context->contextSize;

	mov	edx, DWORD PTR _ctxt$[ebp]
	mov	eax, DWORD PTR [edx+12]
	mov	ecx, DWORD PTR [eax+68]
	mov	DWORD PTR _oldcs$[ebp], ecx

; 13115:         oldpp = ctxt->context->proximityPosition;

	mov	edx, DWORD PTR _ctxt$[ebp]
	mov	eax, DWORD PTR [edx+12]
	mov	ecx, DWORD PTR [eax+72]
	mov	DWORD PTR _oldpp$[ebp], ecx

; 13116: 
; 13117: 	/*
; 13118: 	* Initialize the new set.
; 13119: 	* Also set the xpath document in case things like
; 13120: 	* key() evaluation are attempted on the predicate
; 13121: 	*/
; 13122: 	newset = xmlXPathNodeSetCreate(NULL);

	push	0
	call	_xmlXPathNodeSetCreate
	add	esp, 4
	mov	DWORD PTR _newset$2[ebp], eax

; 13123:         /* XXX what if xmlXPathNodeSetCreate returned NULL? */
; 13124: 
; 13125: 	for (i = 0; i < oldset->nodeNr; i++) {

	mov	DWORD PTR _i$[ebp], 0
	jmp	SHORT $LN7@xmlXPathCo
$LN5@xmlXPathCo:
	mov	edx, DWORD PTR _i$[ebp]
	add	edx, 1
	mov	DWORD PTR _i$[ebp], edx
$LN7@xmlXPathCo:
	mov	eax, DWORD PTR _oldset$[ebp]
	mov	ecx, DWORD PTR _i$[ebp]
	cmp	ecx, DWORD PTR [eax]
	jge	$LN6@xmlXPathCo

; 13126: 	    /*
; 13127: 	    * Run the evaluation with a node list made of
; 13128: 	    * a single item in the nodeset.
; 13129: 	    */
; 13130: 	    ctxt->context->node = oldset->nodeTab[i];

	mov	edx, DWORD PTR _oldset$[ebp]
	mov	eax, DWORD PTR [edx+8]
	mov	ecx, DWORD PTR _ctxt$[ebp]
	mov	edx, DWORD PTR [ecx+12]
	mov	ecx, DWORD PTR _i$[ebp]
	mov	eax, DWORD PTR [eax+ecx*4]
	mov	DWORD PTR [edx+4], eax

; 13131: 	    if ((oldset->nodeTab[i]->type != XML_NAMESPACE_DECL) &&

	mov	ecx, DWORD PTR _oldset$[ebp]
	mov	edx, DWORD PTR [ecx+8]
	mov	eax, DWORD PTR _i$[ebp]
	mov	ecx, DWORD PTR [edx+eax*4]
	cmp	DWORD PTR [ecx+4], 18			; 00000012H
	je	SHORT $LN36@xmlXPathCo
	mov	edx, DWORD PTR _oldset$[ebp]
	mov	eax, DWORD PTR [edx+8]
	mov	ecx, DWORD PTR _i$[ebp]
	mov	edx, DWORD PTR [eax+ecx*4]
	cmp	DWORD PTR [edx+32], 0
	je	SHORT $LN36@xmlXPathCo

; 13132: 		(oldset->nodeTab[i]->doc != NULL))
; 13133: 		ctxt->context->doc = oldset->nodeTab[i]->doc;

	mov	eax, DWORD PTR _oldset$[ebp]
	mov	ecx, DWORD PTR [eax+8]
	mov	edx, DWORD PTR _i$[ebp]
	mov	eax, DWORD PTR [ecx+edx*4]
	mov	ecx, DWORD PTR _ctxt$[ebp]
	mov	edx, DWORD PTR [ecx+12]
	mov	eax, DWORD PTR [eax+32]
	mov	DWORD PTR [edx], eax
$LN36@xmlXPathCo:

; 13134: 	    if (tmp == NULL) {

	cmp	DWORD PTR _tmp$1[ebp], 0
	jne	SHORT $LN37@xmlXPathCo

; 13135: 		tmp = xmlXPathCacheNewNodeSet(ctxt->context,

	mov	ecx, DWORD PTR _ctxt$[ebp]
	mov	edx, DWORD PTR [ecx+12]
	mov	eax, DWORD PTR [edx+4]
	push	eax
	mov	ecx, DWORD PTR _ctxt$[ebp]
	mov	edx, DWORD PTR [ecx+12]
	push	edx
	call	_xmlXPathCacheNewNodeSet
	add	esp, 8
	mov	DWORD PTR _tmp$1[ebp], eax

; 13136: 		    ctxt->context->node);
; 13137: 	    } else {

	jmp	SHORT $LN38@xmlXPathCo
$LN37@xmlXPathCo:

; 13138: 		if (xmlXPathNodeSetAddUnique(tmp->nodesetval,
; 13139: 		                             ctxt->context->node) < 0) {

	mov	eax, DWORD PTR _ctxt$[ebp]
	mov	ecx, DWORD PTR [eax+12]
	mov	edx, DWORD PTR [ecx+4]
	push	edx
	mov	eax, DWORD PTR _tmp$1[ebp]
	mov	ecx, DWORD PTR [eax+4]
	push	ecx
	call	_xmlXPathNodeSetAddUnique
	add	esp, 8
	test	eax, eax
	jge	SHORT $LN38@xmlXPathCo

; 13140: 		    ctxt->error = XPATH_MEMORY_ERROR;

	mov	edx, DWORD PTR _ctxt$[ebp]
	mov	DWORD PTR [edx+8], 15			; 0000000fH
$LN38@xmlXPathCo:

; 13141: 		}
; 13142: 	    }
; 13143: 	    valuePush(ctxt, tmp);

	mov	eax, DWORD PTR _tmp$1[ebp]
	push	eax
	mov	ecx, DWORD PTR _ctxt$[ebp]
	push	ecx
	call	_valuePush
	add	esp, 8

; 13144: 	    ctxt->context->contextSize = oldset->nodeNr;

	mov	edx, DWORD PTR _ctxt$[ebp]
	mov	eax, DWORD PTR [edx+12]
	mov	ecx, DWORD PTR _oldset$[ebp]
	mov	edx, DWORD PTR [ecx]
	mov	DWORD PTR [eax+68], edx

; 13145: 	    ctxt->context->proximityPosition = i + 1;

	mov	eax, DWORD PTR _i$[ebp]
	add	eax, 1
	mov	ecx, DWORD PTR _ctxt$[ebp]
	mov	edx, DWORD PTR [ecx+12]
	mov	DWORD PTR [edx+72], eax

; 13146: 	    if (op->ch2 != -1)

	mov	eax, DWORD PTR _op$[ebp]
	cmp	DWORD PTR [eax+8], -1
	je	SHORT $LN40@xmlXPathCo

; 13147: 		total += xmlXPathCompOpEval(ctxt, &comp->steps[op->ch2]);

	mov	ecx, DWORD PTR _op$[ebp]
	imul	edx, DWORD PTR [ecx+8], 40
	mov	eax, DWORD PTR _comp$[ebp]
	add	edx, DWORD PTR [eax+8]
	push	edx
	mov	ecx, DWORD PTR _ctxt$[ebp]
	push	ecx
	call	_xmlXPathCompOpEval
	add	esp, 8
	add	eax, DWORD PTR _total$[ebp]
	mov	DWORD PTR _total$[ebp], eax
$LN40@xmlXPathCo:

; 13148: 	    if (ctxt->error != XPATH_EXPRESSION_OK) {

	mov	edx, DWORD PTR _ctxt$[ebp]
	cmp	DWORD PTR [edx+8], 0
	je	SHORT $LN41@xmlXPathCo

; 13149: 		xmlXPathFreeNodeSet(newset);

	mov	eax, DWORD PTR _newset$2[ebp]
	push	eax
	call	_xmlXPathFreeNodeSet
	add	esp, 4

; 13150:                 goto error;

	jmp	$error$54
$LN41@xmlXPathCo:

; 13151: 	    }
; 13152: 	    /*
; 13153: 	    * The result of the evaluation needs to be tested to
; 13154: 	    * decide whether the filter succeeded or not
; 13155: 	    */
; 13156: 	    res = valuePop(ctxt);

	mov	ecx, DWORD PTR _ctxt$[ebp]
	push	ecx
	call	_valuePop
	add	esp, 4
	mov	DWORD PTR _res$[ebp], eax

; 13157: 	    if (xmlXPathEvaluatePredicateResult(ctxt, res)) {

	mov	edx, DWORD PTR _res$[ebp]
	push	edx
	mov	eax, DWORD PTR _ctxt$[ebp]
	push	eax
	call	_xmlXPathEvaluatePredicateResult
	add	esp, 8
	test	eax, eax
	je	SHORT $LN42@xmlXPathCo

; 13158: 		if (xmlXPathNodeSetAdd(newset, oldset->nodeTab[i]) < 0)

	mov	ecx, DWORD PTR _oldset$[ebp]
	mov	edx, DWORD PTR [ecx+8]
	mov	eax, DWORD PTR _i$[ebp]
	mov	ecx, DWORD PTR [edx+eax*4]
	push	ecx
	mov	edx, DWORD PTR _newset$2[ebp]
	push	edx
	call	_xmlXPathNodeSetAdd
	add	esp, 8
	test	eax, eax
	jge	SHORT $LN42@xmlXPathCo

; 13159: 		    ctxt->error = XPATH_MEMORY_ERROR;

	mov	eax, DWORD PTR _ctxt$[ebp]
	mov	DWORD PTR [eax+8], 15			; 0000000fH
$LN42@xmlXPathCo:

; 13160: 	    }
; 13161: 	    /*
; 13162: 	    * Cleanup
; 13163: 	    */
; 13164: 	    if (res != NULL) {

	cmp	DWORD PTR _res$[ebp], 0
	je	SHORT $LN44@xmlXPathCo

; 13165: 		xmlXPathReleaseObject(ctxt->context, res);

	mov	ecx, DWORD PTR _res$[ebp]
	push	ecx
	mov	edx, DWORD PTR _ctxt$[ebp]
	mov	eax, DWORD PTR [edx+12]
	push	eax
	call	_xmlXPathReleaseObject
	add	esp, 8
$LN44@xmlXPathCo:

; 13166: 	    }
; 13167: 	    if (ctxt->value == tmp) {

	mov	ecx, DWORD PTR _ctxt$[ebp]
	mov	edx, DWORD PTR [ecx+16]
	cmp	edx, DWORD PTR _tmp$1[ebp]
	jne	SHORT $LN45@xmlXPathCo

; 13168: 		valuePop(ctxt);

	mov	eax, DWORD PTR _ctxt$[ebp]
	push	eax
	call	_valuePop
	add	esp, 4

; 13169: 		/*
; 13170: 		* Don't free the temporary nodeset
; 13171: 		* in order to avoid massive recreation inside this
; 13172: 		* loop.
; 13173: 		*/
; 13174: 		xmlXPathNodeSetClear(tmp->nodesetval, 1);

	push	1
	mov	ecx, DWORD PTR _tmp$1[ebp]
	mov	edx, DWORD PTR [ecx+4]
	push	edx
	call	_xmlXPathNodeSetClear
	add	esp, 8

; 13175: 	    } else

	jmp	SHORT $LN46@xmlXPathCo
$LN45@xmlXPathCo:

; 13176: 		tmp = NULL;

	mov	DWORD PTR _tmp$1[ebp], 0
$LN46@xmlXPathCo:

; 13177: 	    /*
; 13178: 	    * Only put the first node in the result, then leave.
; 13179: 	    */
; 13180: 	    if (newset->nodeNr > 0) {

	mov	eax, DWORD PTR _newset$2[ebp]
	cmp	DWORD PTR [eax], 0
	jle	SHORT $LN47@xmlXPathCo

; 13181: 		*first = *(newset->nodeTab);

	mov	ecx, DWORD PTR _newset$2[ebp]
	mov	edx, DWORD PTR [ecx+8]
	mov	eax, DWORD PTR _first$[ebp]
	mov	ecx, DWORD PTR [edx]
	mov	DWORD PTR [eax], ecx

; 13182: 		break;

	jmp	SHORT $LN6@xmlXPathCo
$LN47@xmlXPathCo:

; 13183: 	    }
; 13184: 	}

	jmp	$LN5@xmlXPathCo
$LN6@xmlXPathCo:

; 13185: 	if (tmp != NULL) {

	cmp	DWORD PTR _tmp$1[ebp], 0
	je	SHORT $LN48@xmlXPathCo

; 13186: 	    xmlXPathReleaseObject(ctxt->context, tmp);

	mov	edx, DWORD PTR _tmp$1[ebp]
	push	edx
	mov	eax, DWORD PTR _ctxt$[ebp]
	mov	ecx, DWORD PTR [eax+12]
	push	ecx
	call	_xmlXPathReleaseObject
	add	esp, 8
$LN48@xmlXPathCo:

; 13187: 	}
; 13188: 	/*
; 13189: 	* The result is used as the new evaluation set.
; 13190: 	*/
; 13191: 	valuePush(ctxt, xmlXPathCacheWrapNodeSet(ctxt->context, newset));

	mov	edx, DWORD PTR _newset$2[ebp]
	push	edx
	mov	eax, DWORD PTR _ctxt$[ebp]
	mov	ecx, DWORD PTR [eax+12]
	push	ecx
	call	_xmlXPathCacheWrapNodeSet
	add	esp, 8
	push	eax
	mov	edx, DWORD PTR _ctxt$[ebp]
	push	edx
	call	_valuePush
	add	esp, 8
$error$54:

; 13192: error:
; 13193: 	xmlXPathReleaseObject(ctxt->context, obj);

	mov	eax, DWORD PTR _obj$[ebp]
	push	eax
	mov	ecx, DWORD PTR _ctxt$[ebp]
	mov	edx, DWORD PTR [ecx+12]
	push	edx
	call	_xmlXPathReleaseObject
	add	esp, 8

; 13194: 	ctxt->context->node = oldnode;

	mov	eax, DWORD PTR _ctxt$[ebp]
	mov	ecx, DWORD PTR [eax+12]
	mov	edx, DWORD PTR _oldnode$[ebp]
	mov	DWORD PTR [ecx+4], edx

; 13195: 	ctxt->context->doc = oldDoc;

	mov	eax, DWORD PTR _ctxt$[ebp]
	mov	ecx, DWORD PTR [eax+12]
	mov	edx, DWORD PTR _oldDoc$[ebp]
	mov	DWORD PTR [ecx], edx

; 13196: 	ctxt->context->contextSize = oldcs;

	mov	eax, DWORD PTR _ctxt$[ebp]
	mov	ecx, DWORD PTR [eax+12]
	mov	edx, DWORD PTR _oldcs$[ebp]
	mov	DWORD PTR [ecx+68], edx

; 13197: 	ctxt->context->proximityPosition = oldpp;

	mov	eax, DWORD PTR _ctxt$[ebp]
	mov	ecx, DWORD PTR [eax+12]
	mov	edx, DWORD PTR _oldpp$[ebp]
	mov	DWORD PTR [ecx+72], edx
$LN35@xmlXPathCo:

; 13198:     }
; 13199:     return(total);

	mov	eax, DWORD PTR _total$[ebp]
$LN1@xmlXPathCo:

; 13200: }

	push	edx
	mov	ecx, ebp
	push	eax
	lea	edx, DWORD PTR $LN52@xmlXPathCo
	call	@_RTC_CheckStackVars@8
	pop	eax
	pop	edx
	pop	edi
	add	esp, 76					; 0000004cH
	cmp	ebp, esp
	call	__RTC_CheckEsp
	mov	esp, ebp
	pop	ebp
	ret	0
	npad	2
$LN52@xmlXPathCo:
	DD	1
	DD	$LN51@xmlXPathCo
$LN51@xmlXPathCo:
	DD	-52					; ffffffccH
	DD	4
	DD	$LN50@xmlXPathCo
$LN50@xmlXPathCo:
	DB	108					; 0000006cH
	DB	97					; 00000061H
	DB	115					; 00000073H
	DB	116					; 00000074H
	DB	0
_xmlXPathCompOpEvalFilterFirst ENDP
_TEXT	ENDS
; Function compile flags: /Odtp /RTCsu
; File c:\users\dag\documents\_clients\codeproject authors group\windows on arm\libxml2\libxml2-2.9.9\xpath.c
;	COMDAT _xmlXPathNodeCollectAndTest
_TEXT	SEGMENT
tv655 = -152						; size = 4
tv449 = -148						; size = 4
tv209 = -144						; size = 4
tv200 = -140						; size = 4
tv161 = -136						; size = 4
tv88 = -132						; size = 4
_ns$1 = -128						; size = 4
_attr$2 = -124						; size = 4
_xpctxt$ = -120						; size = 4
_oldContextNode$ = -116					; size = 4
_mergeAndClear$ = -112					; size = 4
_addNode$ = -108					; size = 4
_next$ = -104						; size = 4
_breakOnFirstHit$ = -100				; size = 4
_newSize$ = -96						; size = 4
_size$ = -92						; size = 4
_pos$ = -88						; size = 4
_hasAxisRange$ = -84					; size = 4
_hasPredicateRange$ = -80				; size = 4
_maxPos$ = -72						; size = 4
_predOp$ = -64						; size = 4
_cur$ = -60						; size = 4
_seq$ = -56						; size = 4
_outSeq$ = -52						; size = 4
_contextNode$ = -48					; size = 4
_contextIdx$ = -44					; size = 4
_contextSeq$ = -40					; size = 4
_obj$ = -36						; size = 4
_hasNsNodes$ = -32					; size = 4
_total$ = -28						; size = 4
_URI$ = -24						; size = 4
_name$ = -20						; size = 4
_prefix$ = -16						; size = 4
_type$ = -12						; size = 4
_test$ = -8						; size = 4
_axis$ = -4						; size = 4
_ctxt$ = 8						; size = 4
_op$ = 12						; size = 4
_first$ = 16						; size = 4
_last$ = 20						; size = 4
_toBool$ = 24						; size = 4
_xmlXPathNodeCollectAndTest PROC			; COMDAT

; 12060: {

	push	ebp
	mov	ebp, esp
	sub	esp, 152				; 00000098H
	push	esi
	push	edi
	lea	edi, DWORD PTR [ebp-152]
	mov	ecx, 38					; 00000026H
	mov	eax, -858993460				; ccccccccH
	rep stosd
	mov	ecx, OFFSET __9DBA2A81_xpath@c
	call	@__CheckForDebuggerJustMyCode@4

; 12061: 
; 12062: #define XP_TEST_HIT \
; 12063:     if (hasAxisRange != 0) { \
; 12064: 	if (++pos == maxPos) { \
; 12065: 	    if (addNode(seq, cur) < 0) \
; 12066: 	        ctxt->error = XPATH_MEMORY_ERROR; \
; 12067: 	    goto axis_range_end; } \
; 12068:     } else { \
; 12069: 	if (addNode(seq, cur) < 0) \
; 12070: 	    ctxt->error = XPATH_MEMORY_ERROR; \
; 12071: 	if (breakOnFirstHit) goto first_hit; }
; 12072: 
; 12073: #define XP_TEST_HIT_NS \
; 12074:     if (hasAxisRange != 0) { \
; 12075: 	if (++pos == maxPos) { \
; 12076: 	    hasNsNodes = 1; \
; 12077: 	    if (xmlXPathNodeSetAddNs(seq, xpctxt->node, (xmlNsPtr) cur) < 0) \
; 12078: 	        ctxt->error = XPATH_MEMORY_ERROR; \
; 12079: 	goto axis_range_end; } \
; 12080:     } else { \
; 12081: 	hasNsNodes = 1; \
; 12082: 	if (xmlXPathNodeSetAddNs(seq, xpctxt->node, (xmlNsPtr) cur) < 0) \
; 12083: 	    ctxt->error = XPATH_MEMORY_ERROR; \
; 12084: 	if (breakOnFirstHit) goto first_hit; }
; 12085: 
; 12086:     xmlXPathAxisVal axis = (xmlXPathAxisVal) op->value;

	mov	eax, DWORD PTR _op$[ebp]
	mov	ecx, DWORD PTR [eax+12]
	mov	DWORD PTR _axis$[ebp], ecx

; 12087:     xmlXPathTestVal test = (xmlXPathTestVal) op->value2;

	mov	edx, DWORD PTR _op$[ebp]
	mov	eax, DWORD PTR [edx+16]
	mov	DWORD PTR _test$[ebp], eax

; 12088:     xmlXPathTypeVal type = (xmlXPathTypeVal) op->value3;

	mov	ecx, DWORD PTR _op$[ebp]
	mov	edx, DWORD PTR [ecx+20]
	mov	DWORD PTR _type$[ebp], edx

; 12089:     const xmlChar *prefix = op->value4;

	mov	eax, DWORD PTR _op$[ebp]
	mov	ecx, DWORD PTR [eax+24]
	mov	DWORD PTR _prefix$[ebp], ecx

; 12090:     const xmlChar *name = op->value5;

	mov	edx, DWORD PTR _op$[ebp]
	mov	eax, DWORD PTR [edx+28]
	mov	DWORD PTR _name$[ebp], eax

; 12091:     const xmlChar *URI = NULL;

	mov	DWORD PTR _URI$[ebp], 0

; 12092: 
; 12093: #ifdef DEBUG_STEP
; 12094:     int nbMatches = 0, prevMatches = 0;
; 12095: #endif
; 12096:     int total = 0, hasNsNodes = 0;

	mov	DWORD PTR _total$[ebp], 0
	mov	DWORD PTR _hasNsNodes$[ebp], 0

; 12097:     /* The popped object holding the context nodes */
; 12098:     xmlXPathObjectPtr obj;
; 12099:     /* The set of context nodes for the node tests */
; 12100:     xmlNodeSetPtr contextSeq;
; 12101:     int contextIdx;
; 12102:     xmlNodePtr contextNode;
; 12103:     /* The final resulting node set wrt to all context nodes */
; 12104:     xmlNodeSetPtr outSeq;
; 12105:     /*
; 12106:     * The temporary resulting node set wrt 1 context node.
; 12107:     * Used to feed predicate evaluation.
; 12108:     */
; 12109:     xmlNodeSetPtr seq;
; 12110:     xmlNodePtr cur;
; 12111:     /* First predicate operator */
; 12112:     xmlXPathStepOpPtr predOp;
; 12113:     int maxPos; /* The requested position() (when a "[n]" predicate) */
; 12114:     int hasPredicateRange, hasAxisRange, pos, size, newSize;
; 12115:     int breakOnFirstHit;
; 12116: 
; 12117:     xmlXPathTraversalFunction next = NULL;

	mov	DWORD PTR _next$[ebp], 0

; 12118:     int (*addNode) (xmlNodeSetPtr, xmlNodePtr);
; 12119:     xmlXPathNodeSetMergeFunction mergeAndClear;
; 12120:     xmlNodePtr oldContextNode;
; 12121:     xmlXPathContextPtr xpctxt = ctxt->context;

	mov	ecx, DWORD PTR _ctxt$[ebp]
	mov	edx, DWORD PTR [ecx+12]
	mov	DWORD PTR _xpctxt$[ebp], edx

; 12122: 
; 12123: 
; 12124:     CHECK_TYPE0(XPATH_NODESET);

	mov	eax, DWORD PTR _ctxt$[ebp]
	cmp	DWORD PTR [eax+16], 0
	je	SHORT $LN16@xmlXPathNo
	mov	ecx, DWORD PTR _ctxt$[ebp]
	mov	edx, DWORD PTR [ecx+16]
	cmp	DWORD PTR [edx], 1
	je	SHORT $LN15@xmlXPathNo
$LN16@xmlXPathNo:
	push	11					; 0000000bH
	mov	eax, DWORD PTR _ctxt$[ebp]
	push	eax
	call	_xmlXPathErr
	add	esp, 8
	xor	eax, eax
	jmp	$LN1@xmlXPathNo
$LN15@xmlXPathNo:

; 12125:     obj = valuePop(ctxt);

	mov	ecx, DWORD PTR _ctxt$[ebp]
	push	ecx
	call	_valuePop
	add	esp, 4
	mov	DWORD PTR _obj$[ebp], eax

; 12126:     /*
; 12127:     * Setup namespaces.
; 12128:     */
; 12129:     if (prefix != NULL) {

	cmp	DWORD PTR _prefix$[ebp], 0
	je	SHORT $LN17@xmlXPathNo

; 12130:         URI = xmlXPathNsLookup(xpctxt, prefix);

	mov	edx, DWORD PTR _prefix$[ebp]
	push	edx
	mov	eax, DWORD PTR _xpctxt$[ebp]
	push	eax
	call	_xmlXPathNsLookup
	add	esp, 8
	mov	DWORD PTR _URI$[ebp], eax

; 12131:         if (URI == NULL) {

	cmp	DWORD PTR _URI$[ebp], 0
	jne	SHORT $LN17@xmlXPathNo

; 12132: 	    xmlXPathReleaseObject(xpctxt, obj);

	mov	ecx, DWORD PTR _obj$[ebp]
	push	ecx
	mov	edx, DWORD PTR _xpctxt$[ebp]
	push	edx
	call	_xmlXPathReleaseObject
	add	esp, 8

; 12133:             XP_ERROR0(XPATH_UNDEF_PREFIX_ERROR);

	push	19					; 00000013H
	mov	eax, DWORD PTR _ctxt$[ebp]
	push	eax
	call	_xmlXPathErr
	add	esp, 8
	xor	eax, eax
	jmp	$LN1@xmlXPathNo
$LN17@xmlXPathNo:

; 12134: 	}
; 12135:     }
; 12136:     /*
; 12137:     * Setup axis.
; 12138:     *
; 12139:     * MAYBE FUTURE TODO: merging optimizations:
; 12140:     * - If the nodes to be traversed wrt to the initial nodes and
; 12141:     *   the current axis cannot overlap, then we could avoid searching
; 12142:     *   for duplicates during the merge.
; 12143:     *   But the question is how/when to evaluate if they cannot overlap.
; 12144:     *   Example: if we know that for two initial nodes, the one is
; 12145:     *   not in the ancestor-or-self axis of the other, then we could safely
; 12146:     *   avoid a duplicate-aware merge, if the axis to be traversed is e.g.
; 12147:     *   the descendant-or-self axis.
; 12148:     */
; 12149:     mergeAndClear = xmlXPathNodeSetMergeAndClear;

	mov	DWORD PTR _mergeAndClear$[ebp], OFFSET _xmlXPathNodeSetMergeAndClear

; 12150:     switch (axis) {

	mov	ecx, DWORD PTR _axis$[ebp]
	mov	DWORD PTR tv88[ebp], ecx
	mov	edx, DWORD PTR tv88[ebp]
	sub	edx, 1
	mov	DWORD PTR tv88[ebp], edx
	cmp	DWORD PTR tv88[ebp], 12			; 0000000cH
	ja	$LN2@xmlXPathNo
	mov	eax, DWORD PTR tv88[ebp]
	jmp	DWORD PTR $LN252@xmlXPathNo[eax*4]
$LN19@xmlXPathNo:

; 12151:         case AXIS_ANCESTOR:
; 12152:             first = NULL;

	mov	DWORD PTR _first$[ebp], 0

; 12153:             next = xmlXPathNextAncestor;

	mov	DWORD PTR _next$[ebp], OFFSET _xmlXPathNextAncestor

; 12154:             break;

	jmp	$LN2@xmlXPathNo
$LN20@xmlXPathNo:

; 12155:         case AXIS_ANCESTOR_OR_SELF:
; 12156:             first = NULL;

	mov	DWORD PTR _first$[ebp], 0

; 12157:             next = xmlXPathNextAncestorOrSelf;

	mov	DWORD PTR _next$[ebp], OFFSET _xmlXPathNextAncestorOrSelf

; 12158:             break;

	jmp	$LN2@xmlXPathNo
$LN21@xmlXPathNo:

; 12159:         case AXIS_ATTRIBUTE:
; 12160:             first = NULL;

	mov	DWORD PTR _first$[ebp], 0

; 12161: 	    last = NULL;

	mov	DWORD PTR _last$[ebp], 0

; 12162:             next = xmlXPathNextAttribute;

	mov	DWORD PTR _next$[ebp], OFFSET _xmlXPathNextAttribute

; 12163: 	    mergeAndClear = xmlXPathNodeSetMergeAndClearNoDupls;

	mov	DWORD PTR _mergeAndClear$[ebp], OFFSET _xmlXPathNodeSetMergeAndClearNoDupls

; 12164:             break;

	jmp	$LN2@xmlXPathNo
$LN22@xmlXPathNo:

; 12165:         case AXIS_CHILD:
; 12166: 	    last = NULL;

	mov	DWORD PTR _last$[ebp], 0

; 12167: 	    if (((test == NODE_TEST_NAME) || (test == NODE_TEST_ALL)) &&

	cmp	DWORD PTR _test$[ebp], 5
	je	SHORT $LN25@xmlXPathNo
	cmp	DWORD PTR _test$[ebp], 3
	jne	SHORT $LN23@xmlXPathNo
$LN25@xmlXPathNo:
	cmp	DWORD PTR _type$[ebp], 0
	jne	SHORT $LN23@xmlXPathNo

; 12168: 		(type == NODE_TYPE_NODE))
; 12169: 	    {
; 12170: 		/*
; 12171: 		* Optimization if an element node type is 'element'.
; 12172: 		*/
; 12173: 		next = xmlXPathNextChildElement;

	mov	DWORD PTR _next$[ebp], OFFSET _xmlXPathNextChildElement

; 12174: 	    } else

	jmp	SHORT $LN24@xmlXPathNo
$LN23@xmlXPathNo:

; 12175: 		next = xmlXPathNextChild;

	mov	DWORD PTR _next$[ebp], OFFSET _xmlXPathNextChild
$LN24@xmlXPathNo:

; 12176: 	    mergeAndClear = xmlXPathNodeSetMergeAndClearNoDupls;

	mov	DWORD PTR _mergeAndClear$[ebp], OFFSET _xmlXPathNodeSetMergeAndClearNoDupls

; 12177:             break;

	jmp	$LN2@xmlXPathNo
$LN26@xmlXPathNo:

; 12178:         case AXIS_DESCENDANT:
; 12179: 	    last = NULL;

	mov	DWORD PTR _last$[ebp], 0

; 12180:             next = xmlXPathNextDescendant;

	mov	DWORD PTR _next$[ebp], OFFSET _xmlXPathNextDescendant

; 12181:             break;

	jmp	$LN2@xmlXPathNo
$LN27@xmlXPathNo:

; 12182:         case AXIS_DESCENDANT_OR_SELF:
; 12183: 	    last = NULL;

	mov	DWORD PTR _last$[ebp], 0

; 12184:             next = xmlXPathNextDescendantOrSelf;

	mov	DWORD PTR _next$[ebp], OFFSET _xmlXPathNextDescendantOrSelf

; 12185:             break;

	jmp	$LN2@xmlXPathNo
$LN28@xmlXPathNo:

; 12186:         case AXIS_FOLLOWING:
; 12187: 	    last = NULL;

	mov	DWORD PTR _last$[ebp], 0

; 12188:             next = xmlXPathNextFollowing;

	mov	DWORD PTR _next$[ebp], OFFSET _xmlXPathNextFollowing

; 12189:             break;

	jmp	SHORT $LN2@xmlXPathNo
$LN29@xmlXPathNo:

; 12190:         case AXIS_FOLLOWING_SIBLING:
; 12191: 	    last = NULL;

	mov	DWORD PTR _last$[ebp], 0

; 12192:             next = xmlXPathNextFollowingSibling;

	mov	DWORD PTR _next$[ebp], OFFSET _xmlXPathNextFollowingSibling

; 12193:             break;

	jmp	SHORT $LN2@xmlXPathNo
$LN30@xmlXPathNo:

; 12194:         case AXIS_NAMESPACE:
; 12195:             first = NULL;

	mov	DWORD PTR _first$[ebp], 0

; 12196: 	    last = NULL;

	mov	DWORD PTR _last$[ebp], 0

; 12197:             next = (xmlXPathTraversalFunction) xmlXPathNextNamespace;

	mov	DWORD PTR _next$[ebp], OFFSET _xmlXPathNextNamespace

; 12198: 	    mergeAndClear = xmlXPathNodeSetMergeAndClearNoDupls;

	mov	DWORD PTR _mergeAndClear$[ebp], OFFSET _xmlXPathNodeSetMergeAndClearNoDupls

; 12199:             break;

	jmp	SHORT $LN2@xmlXPathNo
$LN31@xmlXPathNo:

; 12200:         case AXIS_PARENT:
; 12201:             first = NULL;

	mov	DWORD PTR _first$[ebp], 0

; 12202:             next = xmlXPathNextParent;

	mov	DWORD PTR _next$[ebp], OFFSET _xmlXPathNextParent

; 12203:             break;

	jmp	SHORT $LN2@xmlXPathNo
$LN32@xmlXPathNo:

; 12204:         case AXIS_PRECEDING:
; 12205:             first = NULL;

	mov	DWORD PTR _first$[ebp], 0

; 12206:             next = xmlXPathNextPrecedingInternal;

	mov	DWORD PTR _next$[ebp], OFFSET _xmlXPathNextPrecedingInternal

; 12207:             break;

	jmp	SHORT $LN2@xmlXPathNo
$LN33@xmlXPathNo:

; 12208:         case AXIS_PRECEDING_SIBLING:
; 12209:             first = NULL;

	mov	DWORD PTR _first$[ebp], 0

; 12210:             next = xmlXPathNextPrecedingSibling;

	mov	DWORD PTR _next$[ebp], OFFSET _xmlXPathNextPrecedingSibling

; 12211:             break;

	jmp	SHORT $LN2@xmlXPathNo
$LN34@xmlXPathNo:

; 12212:         case AXIS_SELF:
; 12213:             first = NULL;

	mov	DWORD PTR _first$[ebp], 0

; 12214: 	    last = NULL;

	mov	DWORD PTR _last$[ebp], 0

; 12215:             next = xmlXPathNextSelf;

	mov	DWORD PTR _next$[ebp], OFFSET _xmlXPathNextSelf

; 12216: 	    mergeAndClear = xmlXPathNodeSetMergeAndClearNoDupls;

	mov	DWORD PTR _mergeAndClear$[ebp], OFFSET _xmlXPathNodeSetMergeAndClearNoDupls
$LN2@xmlXPathNo:

; 12217:             break;
; 12218:     }
; 12219: 
; 12220: #ifdef DEBUG_STEP
; 12221:     xmlXPathDebugDumpStepAxis(op,
; 12222: 	(obj->nodesetval != NULL) ? obj->nodesetval->nodeNr : 0);
; 12223: #endif
; 12224: 
; 12225:     if (next == NULL) {

	cmp	DWORD PTR _next$[ebp], 0
	jne	SHORT $LN35@xmlXPathNo

; 12226: 	xmlXPathReleaseObject(xpctxt, obj);

	mov	ecx, DWORD PTR _obj$[ebp]
	push	ecx
	mov	edx, DWORD PTR _xpctxt$[ebp]
	push	edx
	call	_xmlXPathReleaseObject
	add	esp, 8

; 12227:         return(0);

	xor	eax, eax
	jmp	$LN1@xmlXPathNo
$LN35@xmlXPathNo:

; 12228:     }
; 12229:     contextSeq = obj->nodesetval;

	mov	eax, DWORD PTR _obj$[ebp]
	mov	ecx, DWORD PTR [eax+4]
	mov	DWORD PTR _contextSeq$[ebp], ecx

; 12230:     if ((contextSeq == NULL) || (contextSeq->nodeNr <= 0)) {

	cmp	DWORD PTR _contextSeq$[ebp], 0
	je	SHORT $LN37@xmlXPathNo
	mov	edx, DWORD PTR _contextSeq$[ebp]
	cmp	DWORD PTR [edx], 0
	jg	SHORT $LN36@xmlXPathNo
$LN37@xmlXPathNo:

; 12231: 	xmlXPathReleaseObject(xpctxt, obj);

	mov	eax, DWORD PTR _obj$[ebp]
	push	eax
	mov	ecx, DWORD PTR _xpctxt$[ebp]
	push	ecx
	call	_xmlXPathReleaseObject
	add	esp, 8

; 12232:         valuePush(ctxt, xmlXPathCacheWrapNodeSet(xpctxt, NULL));

	push	0
	mov	edx, DWORD PTR _xpctxt$[ebp]
	push	edx
	call	_xmlXPathCacheWrapNodeSet
	add	esp, 8
	push	eax
	mov	eax, DWORD PTR _ctxt$[ebp]
	push	eax
	call	_valuePush
	add	esp, 8

; 12233:         return(0);

	xor	eax, eax
	jmp	$LN1@xmlXPathNo
$LN36@xmlXPathNo:

; 12234:     }
; 12235:     /*
; 12236:     * Predicate optimization ---------------------------------------------
; 12237:     * If this step has a last predicate, which contains a position(),
; 12238:     * then we'll optimize (although not exactly "position()", but only
; 12239:     * the  short-hand form, i.e., "[n]".
; 12240:     *
; 12241:     * Example - expression "/foo[parent::bar][1]":
; 12242:     *
; 12243:     * COLLECT 'child' 'name' 'node' foo    -- op (we are here)
; 12244:     *   ROOT                               -- op->ch1
; 12245:     *   PREDICATE                          -- op->ch2 (predOp)
; 12246:     *     PREDICATE                          -- predOp->ch1 = [parent::bar]
; 12247:     *       SORT
; 12248:     *         COLLECT  'parent' 'name' 'node' bar
; 12249:     *           NODE
; 12250:     *     ELEM Object is a number : 1        -- predOp->ch2 = [1]
; 12251:     *
; 12252:     */
; 12253:     maxPos = 0;

	mov	DWORD PTR _maxPos$[ebp], 0

; 12254:     predOp = NULL;

	mov	DWORD PTR _predOp$[ebp], 0

; 12255:     hasPredicateRange = 0;

	mov	DWORD PTR _hasPredicateRange$[ebp], 0

; 12256:     hasAxisRange = 0;

	mov	DWORD PTR _hasAxisRange$[ebp], 0

; 12257:     if (op->ch2 != -1) {

	mov	ecx, DWORD PTR _op$[ebp]
	cmp	DWORD PTR [ecx+8], -1
	je	SHORT $LN38@xmlXPathNo

; 12258: 	/*
; 12259: 	* There's at least one predicate. 16 == XPATH_OP_PREDICATE
; 12260: 	*/
; 12261: 	predOp = &ctxt->comp->steps[op->ch2];

	mov	edx, DWORD PTR _ctxt$[ebp]
	mov	eax, DWORD PTR [edx+32]
	mov	ecx, DWORD PTR _op$[ebp]
	imul	edx, DWORD PTR [ecx+8], 40
	add	edx, DWORD PTR [eax+8]
	mov	DWORD PTR _predOp$[ebp], edx

; 12262: 	if (xmlXPathIsPositionalPredicate(ctxt, predOp, &maxPos)) {

	lea	eax, DWORD PTR _maxPos$[ebp]
	push	eax
	mov	ecx, DWORD PTR _predOp$[ebp]
	push	ecx
	mov	edx, DWORD PTR _ctxt$[ebp]
	push	edx
	call	_xmlXPathIsPositionalPredicate
	add	esp, 12					; 0000000cH
	test	eax, eax
	je	SHORT $LN38@xmlXPathNo

; 12263: 	    if (predOp->ch1 != -1) {

	mov	eax, DWORD PTR _predOp$[ebp]
	cmp	DWORD PTR [eax+4], -1
	je	SHORT $LN40@xmlXPathNo

; 12264: 		/*
; 12265: 		* Use the next inner predicate operator.
; 12266: 		*/
; 12267: 		predOp = &ctxt->comp->steps[predOp->ch1];

	mov	ecx, DWORD PTR _ctxt$[ebp]
	mov	edx, DWORD PTR [ecx+32]
	mov	eax, DWORD PTR _predOp$[ebp]
	imul	ecx, DWORD PTR [eax+4], 40
	add	ecx, DWORD PTR [edx+8]
	mov	DWORD PTR _predOp$[ebp], ecx

; 12268: 		hasPredicateRange = 1;

	mov	DWORD PTR _hasPredicateRange$[ebp], 1

; 12269: 	    } else {

	jmp	SHORT $LN38@xmlXPathNo
$LN40@xmlXPathNo:

; 12270: 		/*
; 12271: 		* There's no other predicate than the [n] predicate.
; 12272: 		*/
; 12273: 		predOp = NULL;

	mov	DWORD PTR _predOp$[ebp], 0

; 12274: 		hasAxisRange = 1;

	mov	DWORD PTR _hasAxisRange$[ebp], 1
$LN38@xmlXPathNo:

; 12275: 	    }
; 12276: 	}
; 12277:     }
; 12278:     breakOnFirstHit = ((toBool) && (predOp == NULL)) ? 1 : 0;

	cmp	DWORD PTR _toBool$[ebp], 0
	je	SHORT $LN241@xmlXPathNo
	cmp	DWORD PTR _predOp$[ebp], 0
	jne	SHORT $LN241@xmlXPathNo
	mov	DWORD PTR tv161[ebp], 1
	jmp	SHORT $LN242@xmlXPathNo
$LN241@xmlXPathNo:
	mov	DWORD PTR tv161[ebp], 0
$LN242@xmlXPathNo:
	mov	edx, DWORD PTR tv161[ebp]
	mov	DWORD PTR _breakOnFirstHit$[ebp], edx

; 12279:     /*
; 12280:     * Axis traversal -----------------------------------------------------
; 12281:     */
; 12282:     /*
; 12283:      * 2.3 Node Tests
; 12284:      *  - For the attribute axis, the principal node type is attribute.
; 12285:      *  - For the namespace axis, the principal node type is namespace.
; 12286:      *  - For other axes, the principal node type is element.
; 12287:      *
; 12288:      * A node test * is true for any node of the
; 12289:      * principal node type. For example, child::* will
; 12290:      * select all element children of the context node
; 12291:      */
; 12292:     oldContextNode = xpctxt->node;

	mov	eax, DWORD PTR _xpctxt$[ebp]
	mov	ecx, DWORD PTR [eax+4]
	mov	DWORD PTR _oldContextNode$[ebp], ecx

; 12293:     addNode = xmlXPathNodeSetAddUnique;

	mov	DWORD PTR _addNode$[ebp], OFFSET _xmlXPathNodeSetAddUnique

; 12294:     outSeq = NULL;

	mov	DWORD PTR _outSeq$[ebp], 0

; 12295:     seq = NULL;

	mov	DWORD PTR _seq$[ebp], 0

; 12296:     contextNode = NULL;

	mov	DWORD PTR _contextNode$[ebp], 0

; 12297:     contextIdx = 0;

	mov	DWORD PTR _contextIdx$[ebp], 0
$LN4@xmlXPathNo:

; 12298: 
; 12299: 
; 12300:     while (((contextIdx < contextSeq->nodeNr) || (contextNode != NULL)) &&

	mov	edx, DWORD PTR _contextSeq$[ebp]
	mov	eax, DWORD PTR _contextIdx$[ebp]
	cmp	eax, DWORD PTR [edx]
	jl	SHORT $LN42@xmlXPathNo
	cmp	DWORD PTR _contextNode$[ebp], 0
	je	$error$255
$LN42@xmlXPathNo:
	mov	ecx, DWORD PTR _ctxt$[ebp]
	cmp	DWORD PTR [ecx+8], 0
	jne	$error$255

; 12301:            (ctxt->error == XPATH_EXPRESSION_OK)) {
; 12302: 	xpctxt->node = contextSeq->nodeTab[contextIdx++];

	mov	edx, DWORD PTR _contextSeq$[ebp]
	mov	eax, DWORD PTR [edx+8]
	mov	ecx, DWORD PTR _xpctxt$[ebp]
	mov	edx, DWORD PTR _contextIdx$[ebp]
	mov	eax, DWORD PTR [eax+edx*4]
	mov	DWORD PTR [ecx+4], eax
	mov	ecx, DWORD PTR _contextIdx$[ebp]
	add	ecx, 1
	mov	DWORD PTR _contextIdx$[ebp], ecx

; 12303: 
; 12304: 	if (seq == NULL) {

	cmp	DWORD PTR _seq$[ebp], 0
	jne	SHORT $LN43@xmlXPathNo

; 12305: 	    seq = xmlXPathNodeSetCreate(NULL);

	push	0
	call	_xmlXPathNodeSetCreate
	add	esp, 4
	mov	DWORD PTR _seq$[ebp], eax

; 12306: 	    if (seq == NULL) {

	cmp	DWORD PTR _seq$[ebp], 0
	jne	SHORT $LN43@xmlXPathNo

; 12307: 		total = 0;

	mov	DWORD PTR _total$[ebp], 0

; 12308: 		goto error;

	jmp	$error$255
$LN43@xmlXPathNo:

; 12309: 	    }
; 12310: 	}
; 12311: 	/*
; 12312: 	* Traverse the axis and test the nodes.
; 12313: 	*/
; 12314: 	pos = 0;

	mov	DWORD PTR _pos$[ebp], 0

; 12315: 	cur = NULL;

	mov	DWORD PTR _cur$[ebp], 0

; 12316: 	hasNsNodes = 0;

	mov	DWORD PTR _hasNsNodes$[ebp], 0
$LN8@xmlXPathNo:

; 12317:         do {
; 12318:             cur = next(ctxt, cur);

	mov	esi, esp
	mov	edx, DWORD PTR _cur$[ebp]
	push	edx
	mov	eax, DWORD PTR _ctxt$[ebp]
	push	eax
	call	DWORD PTR _next$[ebp]
	add	esp, 8
	cmp	esi, esp
	call	__RTC_CheckEsp
	mov	DWORD PTR _cur$[ebp], eax

; 12319:             if (cur == NULL)

	cmp	DWORD PTR _cur$[ebp], 0
	jne	SHORT $LN45@xmlXPathNo

; 12320:                 break;

	jmp	$LN7@xmlXPathNo
$LN45@xmlXPathNo:

; 12321: 
; 12322: 	    /*
; 12323: 	    * QUESTION TODO: What does the "first" and "last" stuff do?
; 12324: 	    */
; 12325:             if ((first != NULL) && (*first != NULL)) {

	cmp	DWORD PTR _first$[ebp], 0
	je	SHORT $LN46@xmlXPathNo
	mov	ecx, DWORD PTR _first$[ebp]
	cmp	DWORD PTR [ecx], 0
	je	SHORT $LN46@xmlXPathNo

; 12326: 		if (*first == cur)

	mov	edx, DWORD PTR _first$[ebp]
	mov	eax, DWORD PTR [edx]
	cmp	eax, DWORD PTR _cur$[ebp]
	jne	SHORT $LN47@xmlXPathNo

; 12327: 		    break;

	jmp	$LN7@xmlXPathNo
$LN47@xmlXPathNo:

; 12328: 		if (((total % 256) == 0) &&

	mov	ecx, DWORD PTR _total$[ebp]
	and	ecx, -2147483393			; 800000ffH
	jns	SHORT $LN250@xmlXPathNo
	dec	ecx
	or	ecx, -256				; ffffff00H
	inc	ecx
$LN250@xmlXPathNo:
	test	ecx, ecx
	jne	SHORT $LN46@xmlXPathNo
	mov	edx, DWORD PTR _cur$[ebp]
	push	edx
	mov	eax, DWORD PTR _first$[ebp]
	mov	ecx, DWORD PTR [eax]
	push	ecx
	call	_xmlXPathCmpNodesExt
	add	esp, 8
	test	eax, eax
	jl	SHORT $LN46@xmlXPathNo

; 12329: #ifdef XP_OPTIMIZED_NON_ELEM_COMPARISON
; 12330: 		    (xmlXPathCmpNodesExt(*first, cur) >= 0))
; 12331: #else
; 12332: 		    (xmlXPathCmpNodes(*first, cur) >= 0))
; 12333: #endif
; 12334: 		{
; 12335: 		    break;

	jmp	$LN7@xmlXPathNo
$LN46@xmlXPathNo:

; 12336: 		}
; 12337: 	    }
; 12338: 	    if ((last != NULL) && (*last != NULL)) {

	cmp	DWORD PTR _last$[ebp], 0
	je	SHORT $LN49@xmlXPathNo
	mov	edx, DWORD PTR _last$[ebp]
	cmp	DWORD PTR [edx], 0
	je	SHORT $LN49@xmlXPathNo

; 12339: 		if (*last == cur)

	mov	eax, DWORD PTR _last$[ebp]
	mov	ecx, DWORD PTR [eax]
	cmp	ecx, DWORD PTR _cur$[ebp]
	jne	SHORT $LN50@xmlXPathNo

; 12340: 		    break;

	jmp	$LN7@xmlXPathNo
$LN50@xmlXPathNo:

; 12341: 		if (((total % 256) == 0) &&

	mov	edx, DWORD PTR _total$[ebp]
	and	edx, -2147483393			; 800000ffH
	jns	SHORT $LN251@xmlXPathNo
	dec	edx
	or	edx, -256				; ffffff00H
	inc	edx
$LN251@xmlXPathNo:
	test	edx, edx
	jne	SHORT $LN49@xmlXPathNo
	mov	eax, DWORD PTR _last$[ebp]
	mov	ecx, DWORD PTR [eax]
	push	ecx
	mov	edx, DWORD PTR _cur$[ebp]
	push	edx
	call	_xmlXPathCmpNodesExt
	add	esp, 8
	test	eax, eax
	jl	SHORT $LN49@xmlXPathNo

; 12342: #ifdef XP_OPTIMIZED_NON_ELEM_COMPARISON
; 12343: 		    (xmlXPathCmpNodesExt(cur, *last) >= 0))
; 12344: #else
; 12345: 		    (xmlXPathCmpNodes(cur, *last) >= 0))
; 12346: #endif
; 12347: 		{
; 12348: 		    break;

	jmp	$LN7@xmlXPathNo
$LN49@xmlXPathNo:

; 12349: 		}
; 12350: 	    }
; 12351: 
; 12352:             total++;

	mov	eax, DWORD PTR _total$[ebp]
	add	eax, 1
	mov	DWORD PTR _total$[ebp], eax

; 12353: 
; 12354: #ifdef DEBUG_STEP
; 12355:             xmlGenericError(xmlGenericErrorContext, " %s", cur->name);
; 12356: #endif
; 12357: 
; 12358: 	    switch (test) {

	mov	ecx, DWORD PTR _test$[ebp]
	mov	DWORD PTR tv200[ebp], ecx
	cmp	DWORD PTR tv200[ebp], 5
	ja	$LN6@xmlXPathNo
	mov	edx, DWORD PTR tv200[ebp]
	jmp	DWORD PTR $LN253@xmlXPathNo[edx*4]
$LN52@xmlXPathNo:

; 12359:                 case NODE_TEST_NONE:
; 12360: 		    total = 0;

	mov	DWORD PTR _total$[ebp], 0

; 12361:                     STRANGE

	mov	esi, esp
	push	12361					; 00003049H
	push	OFFSET ??_C@_0GH@HIGHEHKE@c?3?2users?2dag?2documents?2_clients@
	push	OFFSET ??_C@_0BJ@DADKHPPP@Internal?5error?5at?5?$CFs?3?$CFd?6@
	call	___xmlGenericErrorContext
	mov	eax, DWORD PTR [eax]
	push	eax
	call	___xmlGenericError
	mov	ecx, DWORD PTR [eax]
	call	ecx
	add	esp, 16					; 00000010H
	cmp	esi, esp
	call	__RTC_CheckEsp

; 12362: 		    goto error;

	jmp	$error$255
$LN53@xmlXPathNo:

; 12363:                 case NODE_TEST_TYPE:
; 12364: 		    if (type == NODE_TYPE_NODE) {

	cmp	DWORD PTR _type$[ebp], 0
	jne	$LN54@xmlXPathNo

; 12365: 			switch (cur->type) {

	mov	edx, DWORD PTR _cur$[ebp]
	mov	eax, DWORD PTR [edx+4]
	mov	DWORD PTR tv209[ebp], eax
	mov	ecx, DWORD PTR tv209[ebp]
	sub	ecx, 1
	mov	DWORD PTR tv209[ebp], ecx
	cmp	DWORD PTR tv209[ebp], 20		; 00000014H
	ja	$LN11@xmlXPathNo
	mov	edx, DWORD PTR tv209[ebp]
	movzx	eax, BYTE PTR $LN246@xmlXPathNo[edx]
	jmp	DWORD PTR $LN254@xmlXPathNo[eax*4]
$LN56@xmlXPathNo:

; 12366: 			    case XML_DOCUMENT_NODE:
; 12367: 			    case XML_HTML_DOCUMENT_NODE:
; 12368: #ifdef LIBXML_DOCB_ENABLED
; 12369: 			    case XML_DOCB_DOCUMENT_NODE:
; 12370: #endif
; 12371: 			    case XML_ELEMENT_NODE:
; 12372: 			    case XML_ATTRIBUTE_NODE:
; 12373: 			    case XML_PI_NODE:
; 12374: 			    case XML_COMMENT_NODE:
; 12375: 			    case XML_CDATA_SECTION_NODE:
; 12376: 			    case XML_TEXT_NODE:
; 12377: 				XP_TEST_HIT

	cmp	DWORD PTR _hasAxisRange$[ebp], 0
	je	SHORT $LN57@xmlXPathNo
	mov	ecx, DWORD PTR _pos$[ebp]
	add	ecx, 1
	mov	DWORD PTR _pos$[ebp], ecx
	mov	edx, DWORD PTR _pos$[ebp]
	cmp	edx, DWORD PTR _maxPos$[ebp]
	jne	SHORT $LN59@xmlXPathNo
	mov	esi, esp
	mov	eax, DWORD PTR _cur$[ebp]
	push	eax
	mov	ecx, DWORD PTR _seq$[ebp]
	push	ecx
	call	DWORD PTR _addNode$[ebp]
	add	esp, 8
	cmp	esi, esp
	call	__RTC_CheckEsp
	test	eax, eax
	jge	SHORT $LN60@xmlXPathNo
	mov	edx, DWORD PTR _ctxt$[ebp]
	mov	DWORD PTR [edx+8], 15			; 0000000fH
$LN60@xmlXPathNo:
	jmp	$axis_range_end$256
$LN59@xmlXPathNo:
	jmp	SHORT $LN58@xmlXPathNo
$LN57@xmlXPathNo:
	mov	esi, esp
	mov	eax, DWORD PTR _cur$[ebp]
	push	eax
	mov	ecx, DWORD PTR _seq$[ebp]
	push	ecx
	call	DWORD PTR _addNode$[ebp]
	add	esp, 8
	cmp	esi, esp
	call	__RTC_CheckEsp
	test	eax, eax
	jge	SHORT $LN61@xmlXPathNo
	mov	edx, DWORD PTR _ctxt$[ebp]
	mov	DWORD PTR [edx+8], 15			; 0000000fH
$LN61@xmlXPathNo:
	cmp	DWORD PTR _breakOnFirstHit$[ebp], 0
	je	SHORT $LN58@xmlXPathNo
	jmp	$first_hit$257
$LN58@xmlXPathNo:

; 12378: 				break;

	jmp	$LN11@xmlXPathNo
$LN63@xmlXPathNo:

; 12379: 			    case XML_NAMESPACE_DECL: {
; 12380: 				if (axis == AXIS_NAMESPACE) {

	cmp	DWORD PTR _axis$[ebp], 9
	jne	$LN64@xmlXPathNo

; 12381: 				    XP_TEST_HIT_NS

	cmp	DWORD PTR _hasAxisRange$[ebp], 0
	je	SHORT $LN66@xmlXPathNo
	mov	eax, DWORD PTR _pos$[ebp]
	add	eax, 1
	mov	DWORD PTR _pos$[ebp], eax
	mov	ecx, DWORD PTR _pos$[ebp]
	cmp	ecx, DWORD PTR _maxPos$[ebp]
	jne	SHORT $LN68@xmlXPathNo
	mov	DWORD PTR _hasNsNodes$[ebp], 1
	mov	edx, DWORD PTR _cur$[ebp]
	push	edx
	mov	eax, DWORD PTR _xpctxt$[ebp]
	mov	ecx, DWORD PTR [eax+4]
	push	ecx
	mov	edx, DWORD PTR _seq$[ebp]
	push	edx
	call	_xmlXPathNodeSetAddNs
	add	esp, 12					; 0000000cH
	test	eax, eax
	jge	SHORT $LN69@xmlXPathNo
	mov	eax, DWORD PTR _ctxt$[ebp]
	mov	DWORD PTR [eax+8], 15			; 0000000fH
$LN69@xmlXPathNo:
	jmp	$axis_range_end$256
$LN68@xmlXPathNo:
	jmp	SHORT $LN67@xmlXPathNo
$LN66@xmlXPathNo:
	mov	DWORD PTR _hasNsNodes$[ebp], 1
	mov	ecx, DWORD PTR _cur$[ebp]
	push	ecx
	mov	edx, DWORD PTR _xpctxt$[ebp]
	mov	eax, DWORD PTR [edx+4]
	push	eax
	mov	ecx, DWORD PTR _seq$[ebp]
	push	ecx
	call	_xmlXPathNodeSetAddNs
	add	esp, 12					; 0000000cH
	test	eax, eax
	jge	SHORT $LN70@xmlXPathNo
	mov	edx, DWORD PTR _ctxt$[ebp]
	mov	DWORD PTR [edx+8], 15			; 0000000fH
$LN70@xmlXPathNo:
	cmp	DWORD PTR _breakOnFirstHit$[ebp], 0
	je	SHORT $LN67@xmlXPathNo
	jmp	$first_hit$257
$LN67@xmlXPathNo:

; 12382: 				} else {

	jmp	SHORT $LN11@xmlXPathNo
$LN64@xmlXPathNo:

; 12383: 	                            hasNsNodes = 1;

	mov	DWORD PTR _hasNsNodes$[ebp], 1

; 12384: 				    XP_TEST_HIT

	cmp	DWORD PTR _hasAxisRange$[ebp], 0
	je	SHORT $LN72@xmlXPathNo
	mov	eax, DWORD PTR _pos$[ebp]
	add	eax, 1
	mov	DWORD PTR _pos$[ebp], eax
	mov	ecx, DWORD PTR _pos$[ebp]
	cmp	ecx, DWORD PTR _maxPos$[ebp]
	jne	SHORT $LN74@xmlXPathNo
	mov	esi, esp
	mov	edx, DWORD PTR _cur$[ebp]
	push	edx
	mov	eax, DWORD PTR _seq$[ebp]
	push	eax
	call	DWORD PTR _addNode$[ebp]
	add	esp, 8
	cmp	esi, esp
	call	__RTC_CheckEsp
	test	eax, eax
	jge	SHORT $LN75@xmlXPathNo
	mov	ecx, DWORD PTR _ctxt$[ebp]
	mov	DWORD PTR [ecx+8], 15			; 0000000fH
$LN75@xmlXPathNo:
	jmp	$axis_range_end$256
$LN74@xmlXPathNo:
	jmp	SHORT $LN11@xmlXPathNo
$LN72@xmlXPathNo:
	mov	esi, esp
	mov	edx, DWORD PTR _cur$[ebp]
	push	edx
	mov	eax, DWORD PTR _seq$[ebp]
	push	eax
	call	DWORD PTR _addNode$[ebp]
	add	esp, 8
	cmp	esi, esp
	call	__RTC_CheckEsp
	test	eax, eax
	jge	SHORT $LN76@xmlXPathNo
	mov	ecx, DWORD PTR _ctxt$[ebp]
	mov	DWORD PTR [ecx+8], 15			; 0000000fH
$LN76@xmlXPathNo:
	cmp	DWORD PTR _breakOnFirstHit$[ebp], 0
	je	SHORT $LN11@xmlXPathNo
	jmp	$first_hit$257
$LN11@xmlXPathNo:

; 12385: 				}
; 12386: 				break;
; 12387:                             }
; 12388: 			    default:
; 12389: 				break;
; 12390: 			}
; 12391: 		    } else if (cur->type == (xmlElementType) type) {

	jmp	$LN55@xmlXPathNo
$LN54@xmlXPathNo:
	mov	edx, DWORD PTR _cur$[ebp]
	mov	eax, DWORD PTR [edx+4]
	cmp	eax, DWORD PTR _type$[ebp]
	jne	$LN79@xmlXPathNo

; 12392: 			if (cur->type == XML_NAMESPACE_DECL)

	mov	ecx, DWORD PTR _cur$[ebp]
	cmp	DWORD PTR [ecx+4], 18			; 00000012H
	jne	$LN81@xmlXPathNo

; 12393: 			    XP_TEST_HIT_NS

	cmp	DWORD PTR _hasAxisRange$[ebp], 0
	je	SHORT $LN83@xmlXPathNo
	mov	edx, DWORD PTR _pos$[ebp]
	add	edx, 1
	mov	DWORD PTR _pos$[ebp], edx
	mov	eax, DWORD PTR _pos$[ebp]
	cmp	eax, DWORD PTR _maxPos$[ebp]
	jne	SHORT $LN85@xmlXPathNo
	mov	DWORD PTR _hasNsNodes$[ebp], 1
	mov	ecx, DWORD PTR _cur$[ebp]
	push	ecx
	mov	edx, DWORD PTR _xpctxt$[ebp]
	mov	eax, DWORD PTR [edx+4]
	push	eax
	mov	ecx, DWORD PTR _seq$[ebp]
	push	ecx
	call	_xmlXPathNodeSetAddNs
	add	esp, 12					; 0000000cH
	test	eax, eax
	jge	SHORT $LN86@xmlXPathNo
	mov	edx, DWORD PTR _ctxt$[ebp]
	mov	DWORD PTR [edx+8], 15			; 0000000fH
$LN86@xmlXPathNo:
	jmp	$axis_range_end$256
$LN85@xmlXPathNo:
	jmp	SHORT $LN84@xmlXPathNo
$LN83@xmlXPathNo:
	mov	DWORD PTR _hasNsNodes$[ebp], 1
	mov	eax, DWORD PTR _cur$[ebp]
	push	eax
	mov	ecx, DWORD PTR _xpctxt$[ebp]
	mov	edx, DWORD PTR [ecx+4]
	push	edx
	mov	eax, DWORD PTR _seq$[ebp]
	push	eax
	call	_xmlXPathNodeSetAddNs
	add	esp, 12					; 0000000cH
	test	eax, eax
	jge	SHORT $LN87@xmlXPathNo
	mov	ecx, DWORD PTR _ctxt$[ebp]
	mov	DWORD PTR [ecx+8], 15			; 0000000fH
$LN87@xmlXPathNo:
	cmp	DWORD PTR _breakOnFirstHit$[ebp], 0
	je	SHORT $LN84@xmlXPathNo
	jmp	$first_hit$257
$LN84@xmlXPathNo:
	jmp	SHORT $LN82@xmlXPathNo
$LN81@xmlXPathNo:

; 12394: 			else
; 12395: 			    XP_TEST_HIT

	cmp	DWORD PTR _hasAxisRange$[ebp], 0
	je	SHORT $LN89@xmlXPathNo
	mov	edx, DWORD PTR _pos$[ebp]
	add	edx, 1
	mov	DWORD PTR _pos$[ebp], edx
	mov	eax, DWORD PTR _pos$[ebp]
	cmp	eax, DWORD PTR _maxPos$[ebp]
	jne	SHORT $LN91@xmlXPathNo
	mov	esi, esp
	mov	ecx, DWORD PTR _cur$[ebp]
	push	ecx
	mov	edx, DWORD PTR _seq$[ebp]
	push	edx
	call	DWORD PTR _addNode$[ebp]
	add	esp, 8
	cmp	esi, esp
	call	__RTC_CheckEsp
	test	eax, eax
	jge	SHORT $LN92@xmlXPathNo
	mov	eax, DWORD PTR _ctxt$[ebp]
	mov	DWORD PTR [eax+8], 15			; 0000000fH
$LN92@xmlXPathNo:
	jmp	$axis_range_end$256
$LN91@xmlXPathNo:
	jmp	SHORT $LN82@xmlXPathNo
$LN89@xmlXPathNo:
	mov	esi, esp
	mov	ecx, DWORD PTR _cur$[ebp]
	push	ecx
	mov	edx, DWORD PTR _seq$[ebp]
	push	edx
	call	DWORD PTR _addNode$[ebp]
	add	esp, 8
	cmp	esi, esp
	call	__RTC_CheckEsp
	test	eax, eax
	jge	SHORT $LN93@xmlXPathNo
	mov	eax, DWORD PTR _ctxt$[ebp]
	mov	DWORD PTR [eax+8], 15			; 0000000fH
$LN93@xmlXPathNo:
	cmp	DWORD PTR _breakOnFirstHit$[ebp], 0
	je	SHORT $LN82@xmlXPathNo
	jmp	$first_hit$257
$LN82@xmlXPathNo:
	jmp	$LN55@xmlXPathNo
$LN79@xmlXPathNo:

; 12396: 		    } else if ((type == NODE_TYPE_TEXT) &&

	cmp	DWORD PTR _type$[ebp], 3
	jne	SHORT $LN55@xmlXPathNo
	mov	ecx, DWORD PTR _cur$[ebp]
	cmp	DWORD PTR [ecx+4], 4
	jne	SHORT $LN55@xmlXPathNo

; 12397: 			 (cur->type == XML_CDATA_SECTION_NODE))
; 12398: 		    {
; 12399: 			XP_TEST_HIT

	cmp	DWORD PTR _hasAxisRange$[ebp], 0
	je	SHORT $LN96@xmlXPathNo
	mov	edx, DWORD PTR _pos$[ebp]
	add	edx, 1
	mov	DWORD PTR _pos$[ebp], edx
	mov	eax, DWORD PTR _pos$[ebp]
	cmp	eax, DWORD PTR _maxPos$[ebp]
	jne	SHORT $LN98@xmlXPathNo
	mov	esi, esp
	mov	ecx, DWORD PTR _cur$[ebp]
	push	ecx
	mov	edx, DWORD PTR _seq$[ebp]
	push	edx
	call	DWORD PTR _addNode$[ebp]
	add	esp, 8
	cmp	esi, esp
	call	__RTC_CheckEsp
	test	eax, eax
	jge	SHORT $LN99@xmlXPathNo
	mov	eax, DWORD PTR _ctxt$[ebp]
	mov	DWORD PTR [eax+8], 15			; 0000000fH
$LN99@xmlXPathNo:
	jmp	$axis_range_end$256
$LN98@xmlXPathNo:
	jmp	SHORT $LN55@xmlXPathNo
$LN96@xmlXPathNo:
	mov	esi, esp
	mov	ecx, DWORD PTR _cur$[ebp]
	push	ecx
	mov	edx, DWORD PTR _seq$[ebp]
	push	edx
	call	DWORD PTR _addNode$[ebp]
	add	esp, 8
	cmp	esi, esp
	call	__RTC_CheckEsp
	test	eax, eax
	jge	SHORT $LN100@xmlXPathNo
	mov	eax, DWORD PTR _ctxt$[ebp]
	mov	DWORD PTR [eax+8], 15			; 0000000fH
$LN100@xmlXPathNo:
	cmp	DWORD PTR _breakOnFirstHit$[ebp], 0
	je	SHORT $LN55@xmlXPathNo
	jmp	$first_hit$257
$LN55@xmlXPathNo:

; 12400: 		    }
; 12401: 		    break;

	jmp	$LN6@xmlXPathNo
$LN102@xmlXPathNo:

; 12402:                 case NODE_TEST_PI:
; 12403:                     if ((cur->type == XML_PI_NODE) &&

	mov	ecx, DWORD PTR _cur$[ebp]
	cmp	DWORD PTR [ecx+4], 7
	jne	$LN103@xmlXPathNo
	cmp	DWORD PTR _name$[ebp], 0
	je	SHORT $LN104@xmlXPathNo
	mov	edx, DWORD PTR _cur$[ebp]
	mov	eax, DWORD PTR [edx+8]
	push	eax
	mov	ecx, DWORD PTR _name$[ebp]
	push	ecx
	call	_xmlStrEqual
	add	esp, 8
	test	eax, eax
	je	SHORT $LN103@xmlXPathNo
$LN104@xmlXPathNo:

; 12404:                         ((name == NULL) || xmlStrEqual(name, cur->name)))
; 12405: 		    {
; 12406: 			XP_TEST_HIT

	cmp	DWORD PTR _hasAxisRange$[ebp], 0
	je	SHORT $LN105@xmlXPathNo
	mov	edx, DWORD PTR _pos$[ebp]
	add	edx, 1
	mov	DWORD PTR _pos$[ebp], edx
	mov	eax, DWORD PTR _pos$[ebp]
	cmp	eax, DWORD PTR _maxPos$[ebp]
	jne	SHORT $LN107@xmlXPathNo
	mov	esi, esp
	mov	ecx, DWORD PTR _cur$[ebp]
	push	ecx
	mov	edx, DWORD PTR _seq$[ebp]
	push	edx
	call	DWORD PTR _addNode$[ebp]
	add	esp, 8
	cmp	esi, esp
	call	__RTC_CheckEsp
	test	eax, eax
	jge	SHORT $LN108@xmlXPathNo
	mov	eax, DWORD PTR _ctxt$[ebp]
	mov	DWORD PTR [eax+8], 15			; 0000000fH
$LN108@xmlXPathNo:
	jmp	$axis_range_end$256
$LN107@xmlXPathNo:
	jmp	SHORT $LN103@xmlXPathNo
$LN105@xmlXPathNo:
	mov	esi, esp
	mov	ecx, DWORD PTR _cur$[ebp]
	push	ecx
	mov	edx, DWORD PTR _seq$[ebp]
	push	edx
	call	DWORD PTR _addNode$[ebp]
	add	esp, 8
	cmp	esi, esp
	call	__RTC_CheckEsp
	test	eax, eax
	jge	SHORT $LN109@xmlXPathNo
	mov	eax, DWORD PTR _ctxt$[ebp]
	mov	DWORD PTR [eax+8], 15			; 0000000fH
$LN109@xmlXPathNo:
	cmp	DWORD PTR _breakOnFirstHit$[ebp], 0
	je	SHORT $LN103@xmlXPathNo
	jmp	$first_hit$257
$LN103@xmlXPathNo:

; 12407:                     }
; 12408:                     break;

	jmp	$LN6@xmlXPathNo
$LN111@xmlXPathNo:

; 12409:                 case NODE_TEST_ALL:
; 12410:                     if (axis == AXIS_ATTRIBUTE) {

	cmp	DWORD PTR _axis$[ebp], 3
	jne	$LN112@xmlXPathNo

; 12411:                         if (cur->type == XML_ATTRIBUTE_NODE)

	mov	ecx, DWORD PTR _cur$[ebp]
	cmp	DWORD PTR [ecx+4], 2
	jne	$LN114@xmlXPathNo

; 12412: 			{
; 12413:                             if (prefix == NULL)

	cmp	DWORD PTR _prefix$[ebp], 0
	jne	SHORT $LN115@xmlXPathNo

; 12414: 			    {
; 12415: 				XP_TEST_HIT

	cmp	DWORD PTR _hasAxisRange$[ebp], 0
	je	SHORT $LN117@xmlXPathNo
	mov	edx, DWORD PTR _pos$[ebp]
	add	edx, 1
	mov	DWORD PTR _pos$[ebp], edx
	mov	eax, DWORD PTR _pos$[ebp]
	cmp	eax, DWORD PTR _maxPos$[ebp]
	jne	SHORT $LN119@xmlXPathNo
	mov	esi, esp
	mov	ecx, DWORD PTR _cur$[ebp]
	push	ecx
	mov	edx, DWORD PTR _seq$[ebp]
	push	edx
	call	DWORD PTR _addNode$[ebp]
	add	esp, 8
	cmp	esi, esp
	call	__RTC_CheckEsp
	test	eax, eax
	jge	SHORT $LN120@xmlXPathNo
	mov	eax, DWORD PTR _ctxt$[ebp]
	mov	DWORD PTR [eax+8], 15			; 0000000fH
$LN120@xmlXPathNo:
	jmp	$axis_range_end$256
$LN119@xmlXPathNo:
	jmp	SHORT $LN118@xmlXPathNo
$LN117@xmlXPathNo:
	mov	esi, esp
	mov	ecx, DWORD PTR _cur$[ebp]
	push	ecx
	mov	edx, DWORD PTR _seq$[ebp]
	push	edx
	call	DWORD PTR _addNode$[ebp]
	add	esp, 8
	cmp	esi, esp
	call	__RTC_CheckEsp
	test	eax, eax
	jge	SHORT $LN121@xmlXPathNo
	mov	eax, DWORD PTR _ctxt$[ebp]
	mov	DWORD PTR [eax+8], 15			; 0000000fH
$LN121@xmlXPathNo:
	cmp	DWORD PTR _breakOnFirstHit$[ebp], 0
	je	SHORT $LN118@xmlXPathNo
	jmp	$first_hit$257
$LN118@xmlXPathNo:
	jmp	$LN114@xmlXPathNo
$LN115@xmlXPathNo:

; 12416:                             } else if ((cur->ns != NULL) &&

	mov	ecx, DWORD PTR _cur$[ebp]
	cmp	DWORD PTR [ecx+36], 0
	je	$LN114@xmlXPathNo
	mov	edx, DWORD PTR _cur$[ebp]
	mov	eax, DWORD PTR [edx+36]
	mov	ecx, DWORD PTR [eax+8]
	push	ecx
	mov	edx, DWORD PTR _URI$[ebp]
	push	edx
	call	_xmlStrEqual
	add	esp, 8
	test	eax, eax
	je	SHORT $LN114@xmlXPathNo

; 12417: 				(xmlStrEqual(URI, cur->ns->href)))
; 12418: 			    {
; 12419: 				XP_TEST_HIT

	cmp	DWORD PTR _hasAxisRange$[ebp], 0
	je	SHORT $LN124@xmlXPathNo
	mov	eax, DWORD PTR _pos$[ebp]
	add	eax, 1
	mov	DWORD PTR _pos$[ebp], eax
	mov	ecx, DWORD PTR _pos$[ebp]
	cmp	ecx, DWORD PTR _maxPos$[ebp]
	jne	SHORT $LN126@xmlXPathNo
	mov	esi, esp
	mov	edx, DWORD PTR _cur$[ebp]
	push	edx
	mov	eax, DWORD PTR _seq$[ebp]
	push	eax
	call	DWORD PTR _addNode$[ebp]
	add	esp, 8
	cmp	esi, esp
	call	__RTC_CheckEsp
	test	eax, eax
	jge	SHORT $LN127@xmlXPathNo
	mov	ecx, DWORD PTR _ctxt$[ebp]
	mov	DWORD PTR [ecx+8], 15			; 0000000fH
$LN127@xmlXPathNo:
	jmp	$axis_range_end$256
$LN126@xmlXPathNo:
	jmp	SHORT $LN114@xmlXPathNo
$LN124@xmlXPathNo:
	mov	esi, esp
	mov	edx, DWORD PTR _cur$[ebp]
	push	edx
	mov	eax, DWORD PTR _seq$[ebp]
	push	eax
	call	DWORD PTR _addNode$[ebp]
	add	esp, 8
	cmp	esi, esp
	call	__RTC_CheckEsp
	test	eax, eax
	jge	SHORT $LN128@xmlXPathNo
	mov	ecx, DWORD PTR _ctxt$[ebp]
	mov	DWORD PTR [ecx+8], 15			; 0000000fH
$LN128@xmlXPathNo:
	cmp	DWORD PTR _breakOnFirstHit$[ebp], 0
	je	SHORT $LN114@xmlXPathNo
	jmp	$first_hit$257
$LN114@xmlXPathNo:

; 12420:                             }
; 12421:                         }

	jmp	$LN113@xmlXPathNo
$LN112@xmlXPathNo:

; 12422:                     } else if (axis == AXIS_NAMESPACE) {

	cmp	DWORD PTR _axis$[ebp], 9
	jne	$LN130@xmlXPathNo

; 12423:                         if (cur->type == XML_NAMESPACE_DECL)

	mov	edx, DWORD PTR _cur$[ebp]
	cmp	DWORD PTR [edx+4], 18			; 00000012H
	jne	$LN132@xmlXPathNo

; 12424: 			{
; 12425: 			    XP_TEST_HIT_NS

	cmp	DWORD PTR _hasAxisRange$[ebp], 0
	je	SHORT $LN133@xmlXPathNo
	mov	eax, DWORD PTR _pos$[ebp]
	add	eax, 1
	mov	DWORD PTR _pos$[ebp], eax
	mov	ecx, DWORD PTR _pos$[ebp]
	cmp	ecx, DWORD PTR _maxPos$[ebp]
	jne	SHORT $LN135@xmlXPathNo
	mov	DWORD PTR _hasNsNodes$[ebp], 1
	mov	edx, DWORD PTR _cur$[ebp]
	push	edx
	mov	eax, DWORD PTR _xpctxt$[ebp]
	mov	ecx, DWORD PTR [eax+4]
	push	ecx
	mov	edx, DWORD PTR _seq$[ebp]
	push	edx
	call	_xmlXPathNodeSetAddNs
	add	esp, 12					; 0000000cH
	test	eax, eax
	jge	SHORT $LN136@xmlXPathNo
	mov	eax, DWORD PTR _ctxt$[ebp]
	mov	DWORD PTR [eax+8], 15			; 0000000fH
$LN136@xmlXPathNo:
	jmp	$axis_range_end$256
$LN135@xmlXPathNo:
	jmp	SHORT $LN132@xmlXPathNo
$LN133@xmlXPathNo:
	mov	DWORD PTR _hasNsNodes$[ebp], 1
	mov	ecx, DWORD PTR _cur$[ebp]
	push	ecx
	mov	edx, DWORD PTR _xpctxt$[ebp]
	mov	eax, DWORD PTR [edx+4]
	push	eax
	mov	ecx, DWORD PTR _seq$[ebp]
	push	ecx
	call	_xmlXPathNodeSetAddNs
	add	esp, 12					; 0000000cH
	test	eax, eax
	jge	SHORT $LN137@xmlXPathNo
	mov	edx, DWORD PTR _ctxt$[ebp]
	mov	DWORD PTR [edx+8], 15			; 0000000fH
$LN137@xmlXPathNo:
	cmp	DWORD PTR _breakOnFirstHit$[ebp], 0
	je	SHORT $LN132@xmlXPathNo
	jmp	$first_hit$257
$LN132@xmlXPathNo:

; 12426:                         }
; 12427:                     } else {

	jmp	$LN113@xmlXPathNo
$LN130@xmlXPathNo:

; 12428:                         if (cur->type == XML_ELEMENT_NODE) {

	mov	eax, DWORD PTR _cur$[ebp]
	cmp	DWORD PTR [eax+4], 1
	jne	$LN113@xmlXPathNo

; 12429:                             if (prefix == NULL)

	cmp	DWORD PTR _prefix$[ebp], 0
	jne	SHORT $LN140@xmlXPathNo

; 12430: 			    {
; 12431: 				XP_TEST_HIT

	cmp	DWORD PTR _hasAxisRange$[ebp], 0
	je	SHORT $LN142@xmlXPathNo
	mov	ecx, DWORD PTR _pos$[ebp]
	add	ecx, 1
	mov	DWORD PTR _pos$[ebp], ecx
	mov	edx, DWORD PTR _pos$[ebp]
	cmp	edx, DWORD PTR _maxPos$[ebp]
	jne	SHORT $LN144@xmlXPathNo
	mov	esi, esp
	mov	eax, DWORD PTR _cur$[ebp]
	push	eax
	mov	ecx, DWORD PTR _seq$[ebp]
	push	ecx
	call	DWORD PTR _addNode$[ebp]
	add	esp, 8
	cmp	esi, esp
	call	__RTC_CheckEsp
	test	eax, eax
	jge	SHORT $LN145@xmlXPathNo
	mov	edx, DWORD PTR _ctxt$[ebp]
	mov	DWORD PTR [edx+8], 15			; 0000000fH
$LN145@xmlXPathNo:
	jmp	$axis_range_end$256
$LN144@xmlXPathNo:
	jmp	SHORT $LN143@xmlXPathNo
$LN142@xmlXPathNo:
	mov	esi, esp
	mov	eax, DWORD PTR _cur$[ebp]
	push	eax
	mov	ecx, DWORD PTR _seq$[ebp]
	push	ecx
	call	DWORD PTR _addNode$[ebp]
	add	esp, 8
	cmp	esi, esp
	call	__RTC_CheckEsp
	test	eax, eax
	jge	SHORT $LN146@xmlXPathNo
	mov	edx, DWORD PTR _ctxt$[ebp]
	mov	DWORD PTR [edx+8], 15			; 0000000fH
$LN146@xmlXPathNo:
	cmp	DWORD PTR _breakOnFirstHit$[ebp], 0
	je	SHORT $LN143@xmlXPathNo
	jmp	$first_hit$257
$LN143@xmlXPathNo:
	jmp	$LN113@xmlXPathNo
$LN140@xmlXPathNo:

; 12432: 
; 12433:                             } else if ((cur->ns != NULL) &&

	mov	eax, DWORD PTR _cur$[ebp]
	cmp	DWORD PTR [eax+36], 0
	je	$LN113@xmlXPathNo
	mov	ecx, DWORD PTR _cur$[ebp]
	mov	edx, DWORD PTR [ecx+36]
	mov	eax, DWORD PTR [edx+8]
	push	eax
	mov	ecx, DWORD PTR _URI$[ebp]
	push	ecx
	call	_xmlStrEqual
	add	esp, 8
	test	eax, eax
	je	SHORT $LN113@xmlXPathNo

; 12434: 				(xmlStrEqual(URI, cur->ns->href)))
; 12435: 			    {
; 12436: 				XP_TEST_HIT

	cmp	DWORD PTR _hasAxisRange$[ebp], 0
	je	SHORT $LN149@xmlXPathNo
	mov	edx, DWORD PTR _pos$[ebp]
	add	edx, 1
	mov	DWORD PTR _pos$[ebp], edx
	mov	eax, DWORD PTR _pos$[ebp]
	cmp	eax, DWORD PTR _maxPos$[ebp]
	jne	SHORT $LN151@xmlXPathNo
	mov	esi, esp
	mov	ecx, DWORD PTR _cur$[ebp]
	push	ecx
	mov	edx, DWORD PTR _seq$[ebp]
	push	edx
	call	DWORD PTR _addNode$[ebp]
	add	esp, 8
	cmp	esi, esp
	call	__RTC_CheckEsp
	test	eax, eax
	jge	SHORT $LN152@xmlXPathNo
	mov	eax, DWORD PTR _ctxt$[ebp]
	mov	DWORD PTR [eax+8], 15			; 0000000fH
$LN152@xmlXPathNo:
	jmp	$axis_range_end$256
$LN151@xmlXPathNo:
	jmp	SHORT $LN113@xmlXPathNo
$LN149@xmlXPathNo:
	mov	esi, esp
	mov	ecx, DWORD PTR _cur$[ebp]
	push	ecx
	mov	edx, DWORD PTR _seq$[ebp]
	push	edx
	call	DWORD PTR _addNode$[ebp]
	add	esp, 8
	cmp	esi, esp
	call	__RTC_CheckEsp
	test	eax, eax
	jge	SHORT $LN153@xmlXPathNo
	mov	eax, DWORD PTR _ctxt$[ebp]
	mov	DWORD PTR [eax+8], 15			; 0000000fH
$LN153@xmlXPathNo:
	cmp	DWORD PTR _breakOnFirstHit$[ebp], 0
	je	SHORT $LN113@xmlXPathNo
	jmp	$first_hit$257
$LN113@xmlXPathNo:

; 12437:                             }
; 12438:                         }
; 12439:                     }
; 12440:                     break;

	jmp	$LN6@xmlXPathNo
$LN155@xmlXPathNo:

; 12441:                 case NODE_TEST_NS:{
; 12442:                         TODO;

	mov	esi, esp
	push	12442					; 0000309aH
	push	OFFSET ??_C@_0GH@HIGHEHKE@c?3?2users?2dag?2documents?2_clients@
	push	OFFSET ??_C@_0BO@MDEMDPPE@Unimplemented?5block?5at?5?$CFs?3?$CFd?6@
	call	___xmlGenericErrorContext
	mov	ecx, DWORD PTR [eax]
	push	ecx
	call	___xmlGenericError
	mov	edx, DWORD PTR [eax]
	call	edx
	add	esp, 16					; 00000010H
	cmp	esi, esp
	call	__RTC_CheckEsp

; 12443:                         break;

	jmp	$LN6@xmlXPathNo
$LN156@xmlXPathNo:

; 12444:                     }
; 12445:                 case NODE_TEST_NAME:
; 12446:                     if (axis == AXIS_ATTRIBUTE) {

	cmp	DWORD PTR _axis$[ebp], 3
	jne	SHORT $LN157@xmlXPathNo

; 12447:                         if (cur->type != XML_ATTRIBUTE_NODE)

	mov	eax, DWORD PTR _cur$[ebp]
	cmp	DWORD PTR [eax+4], 2
	je	SHORT $LN159@xmlXPathNo

; 12448: 			    break;

	jmp	$LN6@xmlXPathNo
$LN159@xmlXPathNo:

; 12449: 		    } else if (axis == AXIS_NAMESPACE) {

	jmp	SHORT $LN158@xmlXPathNo
$LN157@xmlXPathNo:
	cmp	DWORD PTR _axis$[ebp], 9
	jne	SHORT $LN160@xmlXPathNo

; 12450:                         if (cur->type != XML_NAMESPACE_DECL)

	mov	ecx, DWORD PTR _cur$[ebp]
	cmp	DWORD PTR [ecx+4], 18			; 00000012H
	je	SHORT $LN162@xmlXPathNo

; 12451: 			    break;

	jmp	$LN6@xmlXPathNo
$LN162@xmlXPathNo:

; 12452: 		    } else {

	jmp	SHORT $LN158@xmlXPathNo
$LN160@xmlXPathNo:

; 12453: 		        if (cur->type != XML_ELEMENT_NODE)

	mov	edx, DWORD PTR _cur$[ebp]
	cmp	DWORD PTR [edx+4], 1
	je	SHORT $LN158@xmlXPathNo

; 12454: 			    break;

	jmp	$LN6@xmlXPathNo
$LN158@xmlXPathNo:

; 12455: 		    }
; 12456:                     switch (cur->type) {

	mov	eax, DWORD PTR _cur$[ebp]
	mov	ecx, DWORD PTR [eax+4]
	mov	DWORD PTR tv449[ebp], ecx
	cmp	DWORD PTR tv449[ebp], 1
	je	SHORT $LN164@xmlXPathNo
	cmp	DWORD PTR tv449[ebp], 2
	je	$LN182@xmlXPathNo
	cmp	DWORD PTR tv449[ebp], 18		; 00000012H
	je	$LN201@xmlXPathNo
	jmp	$LN6@xmlXPathNo
$LN164@xmlXPathNo:

; 12457:                         case XML_ELEMENT_NODE:
; 12458:                             if (xmlStrEqual(name, cur->name)) {

	mov	edx, DWORD PTR _cur$[ebp]
	mov	eax, DWORD PTR [edx+8]
	push	eax
	mov	ecx, DWORD PTR _name$[ebp]
	push	ecx
	call	_xmlStrEqual
	add	esp, 8
	test	eax, eax
	je	$LN165@xmlXPathNo

; 12459:                                 if (prefix == NULL) {

	cmp	DWORD PTR _prefix$[ebp], 0
	jne	$LN166@xmlXPathNo

; 12460:                                     if (cur->ns == NULL)

	mov	edx, DWORD PTR _cur$[ebp]
	cmp	DWORD PTR [edx+36], 0
	jne	SHORT $LN168@xmlXPathNo

; 12461: 				    {
; 12462: 					XP_TEST_HIT

	cmp	DWORD PTR _hasAxisRange$[ebp], 0
	je	SHORT $LN169@xmlXPathNo
	mov	eax, DWORD PTR _pos$[ebp]
	add	eax, 1
	mov	DWORD PTR _pos$[ebp], eax
	mov	ecx, DWORD PTR _pos$[ebp]
	cmp	ecx, DWORD PTR _maxPos$[ebp]
	jne	SHORT $LN171@xmlXPathNo
	mov	esi, esp
	mov	edx, DWORD PTR _cur$[ebp]
	push	edx
	mov	eax, DWORD PTR _seq$[ebp]
	push	eax
	call	DWORD PTR _addNode$[ebp]
	add	esp, 8
	cmp	esi, esp
	call	__RTC_CheckEsp
	test	eax, eax
	jge	SHORT $LN172@xmlXPathNo
	mov	ecx, DWORD PTR _ctxt$[ebp]
	mov	DWORD PTR [ecx+8], 15			; 0000000fH
$LN172@xmlXPathNo:
	jmp	$axis_range_end$256
$LN171@xmlXPathNo:
	jmp	SHORT $LN168@xmlXPathNo
$LN169@xmlXPathNo:
	mov	esi, esp
	mov	edx, DWORD PTR _cur$[ebp]
	push	edx
	mov	eax, DWORD PTR _seq$[ebp]
	push	eax
	call	DWORD PTR _addNode$[ebp]
	add	esp, 8
	cmp	esi, esp
	call	__RTC_CheckEsp
	test	eax, eax
	jge	SHORT $LN173@xmlXPathNo
	mov	ecx, DWORD PTR _ctxt$[ebp]
	mov	DWORD PTR [ecx+8], 15			; 0000000fH
$LN173@xmlXPathNo:
	cmp	DWORD PTR _breakOnFirstHit$[ebp], 0
	je	SHORT $LN168@xmlXPathNo
	jmp	$first_hit$257
$LN168@xmlXPathNo:

; 12463:                                     }
; 12464:                                 } else {

	jmp	$LN165@xmlXPathNo
$LN166@xmlXPathNo:

; 12465:                                     if ((cur->ns != NULL) &&

	mov	edx, DWORD PTR _cur$[ebp]
	cmp	DWORD PTR [edx+36], 0
	je	$LN165@xmlXPathNo
	mov	eax, DWORD PTR _cur$[ebp]
	mov	ecx, DWORD PTR [eax+36]
	mov	edx, DWORD PTR [ecx+8]
	push	edx
	mov	eax, DWORD PTR _URI$[ebp]
	push	eax
	call	_xmlStrEqual
	add	esp, 8
	test	eax, eax
	je	SHORT $LN165@xmlXPathNo

; 12466:                                         (xmlStrEqual(URI, cur->ns->href)))
; 12467: 				    {
; 12468: 					XP_TEST_HIT

	cmp	DWORD PTR _hasAxisRange$[ebp], 0
	je	SHORT $LN176@xmlXPathNo
	mov	ecx, DWORD PTR _pos$[ebp]
	add	ecx, 1
	mov	DWORD PTR _pos$[ebp], ecx
	mov	edx, DWORD PTR _pos$[ebp]
	cmp	edx, DWORD PTR _maxPos$[ebp]
	jne	SHORT $LN178@xmlXPathNo
	mov	esi, esp
	mov	eax, DWORD PTR _cur$[ebp]
	push	eax
	mov	ecx, DWORD PTR _seq$[ebp]
	push	ecx
	call	DWORD PTR _addNode$[ebp]
	add	esp, 8
	cmp	esi, esp
	call	__RTC_CheckEsp
	test	eax, eax
	jge	SHORT $LN179@xmlXPathNo
	mov	edx, DWORD PTR _ctxt$[ebp]
	mov	DWORD PTR [edx+8], 15			; 0000000fH
$LN179@xmlXPathNo:
	jmp	$axis_range_end$256
$LN178@xmlXPathNo:
	jmp	SHORT $LN165@xmlXPathNo
$LN176@xmlXPathNo:
	mov	esi, esp
	mov	eax, DWORD PTR _cur$[ebp]
	push	eax
	mov	ecx, DWORD PTR _seq$[ebp]
	push	ecx
	call	DWORD PTR _addNode$[ebp]
	add	esp, 8
	cmp	esi, esp
	call	__RTC_CheckEsp
	test	eax, eax
	jge	SHORT $LN180@xmlXPathNo
	mov	edx, DWORD PTR _ctxt$[ebp]
	mov	DWORD PTR [edx+8], 15			; 0000000fH
$LN180@xmlXPathNo:
	cmp	DWORD PTR _breakOnFirstHit$[ebp], 0
	je	SHORT $LN165@xmlXPathNo
	jmp	$first_hit$257
$LN165@xmlXPathNo:

; 12469:                                     }
; 12470:                                 }
; 12471:                             }
; 12472:                             break;

	jmp	$LN6@xmlXPathNo
$LN182@xmlXPathNo:

; 12473:                         case XML_ATTRIBUTE_NODE:{
; 12474:                                 xmlAttrPtr attr = (xmlAttrPtr) cur;

	mov	eax, DWORD PTR _cur$[ebp]
	mov	DWORD PTR _attr$2[ebp], eax

; 12475: 
; 12476:                                 if (xmlStrEqual(name, attr->name)) {

	mov	ecx, DWORD PTR _attr$2[ebp]
	mov	edx, DWORD PTR [ecx+8]
	push	edx
	mov	eax, DWORD PTR _name$[ebp]
	push	eax
	call	_xmlStrEqual
	add	esp, 8
	test	eax, eax
	je	$LN183@xmlXPathNo

; 12477:                                     if (prefix == NULL) {

	cmp	DWORD PTR _prefix$[ebp], 0
	jne	$LN184@xmlXPathNo

; 12478:                                         if ((attr->ns == NULL) ||

	mov	ecx, DWORD PTR _attr$2[ebp]
	cmp	DWORD PTR [ecx+36], 0
	je	SHORT $LN187@xmlXPathNo
	mov	edx, DWORD PTR _attr$2[ebp]
	mov	eax, DWORD PTR [edx+36]
	cmp	DWORD PTR [eax+12], 0
	jne	SHORT $LN186@xmlXPathNo
$LN187@xmlXPathNo:

; 12479:                                             (attr->ns->prefix == NULL))
; 12480: 					{
; 12481: 					    XP_TEST_HIT

	cmp	DWORD PTR _hasAxisRange$[ebp], 0
	je	SHORT $LN188@xmlXPathNo
	mov	ecx, DWORD PTR _pos$[ebp]
	add	ecx, 1
	mov	DWORD PTR _pos$[ebp], ecx
	mov	edx, DWORD PTR _pos$[ebp]
	cmp	edx, DWORD PTR _maxPos$[ebp]
	jne	SHORT $LN190@xmlXPathNo
	mov	esi, esp
	mov	eax, DWORD PTR _cur$[ebp]
	push	eax
	mov	ecx, DWORD PTR _seq$[ebp]
	push	ecx
	call	DWORD PTR _addNode$[ebp]
	add	esp, 8
	cmp	esi, esp
	call	__RTC_CheckEsp
	test	eax, eax
	jge	SHORT $LN191@xmlXPathNo
	mov	edx, DWORD PTR _ctxt$[ebp]
	mov	DWORD PTR [edx+8], 15			; 0000000fH
$LN191@xmlXPathNo:
	jmp	$axis_range_end$256
$LN190@xmlXPathNo:
	jmp	SHORT $LN186@xmlXPathNo
$LN188@xmlXPathNo:
	mov	esi, esp
	mov	eax, DWORD PTR _cur$[ebp]
	push	eax
	mov	ecx, DWORD PTR _seq$[ebp]
	push	ecx
	call	DWORD PTR _addNode$[ebp]
	add	esp, 8
	cmp	esi, esp
	call	__RTC_CheckEsp
	test	eax, eax
	jge	SHORT $LN192@xmlXPathNo
	mov	edx, DWORD PTR _ctxt$[ebp]
	mov	DWORD PTR [edx+8], 15			; 0000000fH
$LN192@xmlXPathNo:
	cmp	DWORD PTR _breakOnFirstHit$[ebp], 0
	je	SHORT $LN186@xmlXPathNo
	jmp	$first_hit$257
$LN186@xmlXPathNo:

; 12482:                                         }
; 12483:                                     } else {

	jmp	$LN183@xmlXPathNo
$LN184@xmlXPathNo:

; 12484:                                         if ((attr->ns != NULL) &&

	mov	eax, DWORD PTR _attr$2[ebp]
	cmp	DWORD PTR [eax+36], 0
	je	$LN183@xmlXPathNo
	mov	ecx, DWORD PTR _attr$2[ebp]
	mov	edx, DWORD PTR [ecx+36]
	mov	eax, DWORD PTR [edx+8]
	push	eax
	mov	ecx, DWORD PTR _URI$[ebp]
	push	ecx
	call	_xmlStrEqual
	add	esp, 8
	test	eax, eax
	je	SHORT $LN183@xmlXPathNo

; 12485:                                             (xmlStrEqual(URI,
; 12486: 					      attr->ns->href)))
; 12487: 					{
; 12488: 					    XP_TEST_HIT

	cmp	DWORD PTR _hasAxisRange$[ebp], 0
	je	SHORT $LN195@xmlXPathNo
	mov	edx, DWORD PTR _pos$[ebp]
	add	edx, 1
	mov	DWORD PTR _pos$[ebp], edx
	mov	eax, DWORD PTR _pos$[ebp]
	cmp	eax, DWORD PTR _maxPos$[ebp]
	jne	SHORT $LN197@xmlXPathNo
	mov	esi, esp
	mov	ecx, DWORD PTR _cur$[ebp]
	push	ecx
	mov	edx, DWORD PTR _seq$[ebp]
	push	edx
	call	DWORD PTR _addNode$[ebp]
	add	esp, 8
	cmp	esi, esp
	call	__RTC_CheckEsp
	test	eax, eax
	jge	SHORT $LN198@xmlXPathNo
	mov	eax, DWORD PTR _ctxt$[ebp]
	mov	DWORD PTR [eax+8], 15			; 0000000fH
$LN198@xmlXPathNo:
	jmp	$axis_range_end$256
$LN197@xmlXPathNo:
	jmp	SHORT $LN183@xmlXPathNo
$LN195@xmlXPathNo:
	mov	esi, esp
	mov	ecx, DWORD PTR _cur$[ebp]
	push	ecx
	mov	edx, DWORD PTR _seq$[ebp]
	push	edx
	call	DWORD PTR _addNode$[ebp]
	add	esp, 8
	cmp	esi, esp
	call	__RTC_CheckEsp
	test	eax, eax
	jge	SHORT $LN199@xmlXPathNo
	mov	eax, DWORD PTR _ctxt$[ebp]
	mov	DWORD PTR [eax+8], 15			; 0000000fH
$LN199@xmlXPathNo:
	cmp	DWORD PTR _breakOnFirstHit$[ebp], 0
	je	SHORT $LN183@xmlXPathNo
	jmp	$first_hit$257
$LN183@xmlXPathNo:

; 12489:                                         }
; 12490:                                     }
; 12491:                                 }
; 12492:                                 break;

	jmp	$LN6@xmlXPathNo
$LN201@xmlXPathNo:

; 12493:                             }
; 12494:                         case XML_NAMESPACE_DECL:
; 12495:                             if (cur->type == XML_NAMESPACE_DECL) {

	mov	ecx, DWORD PTR _cur$[ebp]
	cmp	DWORD PTR [ecx+4], 18			; 00000012H
	jne	$LN6@xmlXPathNo

; 12496:                                 xmlNsPtr ns = (xmlNsPtr) cur;

	mov	edx, DWORD PTR _cur$[ebp]
	mov	DWORD PTR _ns$1[ebp], edx

; 12497: 
; 12498:                                 if ((ns->prefix != NULL) && (name != NULL)
; 12499:                                     && (xmlStrEqual(ns->prefix, name)))

	mov	eax, DWORD PTR _ns$1[ebp]
	cmp	DWORD PTR [eax+12], 0
	je	$LN6@xmlXPathNo
	cmp	DWORD PTR _name$[ebp], 0
	je	$LN6@xmlXPathNo
	mov	ecx, DWORD PTR _name$[ebp]
	push	ecx
	mov	edx, DWORD PTR _ns$1[ebp]
	mov	eax, DWORD PTR [edx+12]
	push	eax
	call	_xmlStrEqual
	add	esp, 8
	test	eax, eax
	je	SHORT $LN6@xmlXPathNo

; 12500: 				{
; 12501: 				    XP_TEST_HIT_NS

	cmp	DWORD PTR _hasAxisRange$[ebp], 0
	je	SHORT $LN204@xmlXPathNo
	mov	ecx, DWORD PTR _pos$[ebp]
	add	ecx, 1
	mov	DWORD PTR _pos$[ebp], ecx
	mov	edx, DWORD PTR _pos$[ebp]
	cmp	edx, DWORD PTR _maxPos$[ebp]
	jne	SHORT $LN206@xmlXPathNo
	mov	DWORD PTR _hasNsNodes$[ebp], 1
	mov	eax, DWORD PTR _cur$[ebp]
	push	eax
	mov	ecx, DWORD PTR _xpctxt$[ebp]
	mov	edx, DWORD PTR [ecx+4]
	push	edx
	mov	eax, DWORD PTR _seq$[ebp]
	push	eax
	call	_xmlXPathNodeSetAddNs
	add	esp, 12					; 0000000cH
	test	eax, eax
	jge	SHORT $LN207@xmlXPathNo
	mov	ecx, DWORD PTR _ctxt$[ebp]
	mov	DWORD PTR [ecx+8], 15			; 0000000fH
$LN207@xmlXPathNo:
	jmp	SHORT $axis_range_end$256
$LN206@xmlXPathNo:
	jmp	SHORT $LN6@xmlXPathNo
$LN204@xmlXPathNo:
	mov	DWORD PTR _hasNsNodes$[ebp], 1
	mov	edx, DWORD PTR _cur$[ebp]
	push	edx
	mov	eax, DWORD PTR _xpctxt$[ebp]
	mov	ecx, DWORD PTR [eax+4]
	push	ecx
	mov	edx, DWORD PTR _seq$[ebp]
	push	edx
	call	_xmlXPathNodeSetAddNs
	add	esp, 12					; 0000000cH
	test	eax, eax
	jge	SHORT $LN208@xmlXPathNo
	mov	eax, DWORD PTR _ctxt$[ebp]
	mov	DWORD PTR [eax+8], 15			; 0000000fH
$LN208@xmlXPathNo:
	cmp	DWORD PTR _breakOnFirstHit$[ebp], 0
	je	SHORT $LN6@xmlXPathNo
	jmp	SHORT $first_hit$257
$LN6@xmlXPathNo:

; 12502:                                 }
; 12503:                             }
; 12504:                             break;
; 12505:                         default:
; 12506:                             break;
; 12507:                     }
; 12508:                     break;
; 12509: 	    } /* switch(test) */
; 12510:         } while ((cur != NULL) && (ctxt->error == XPATH_EXPRESSION_OK));

	cmp	DWORD PTR _cur$[ebp], 0
	je	SHORT $LN7@xmlXPathNo
	mov	ecx, DWORD PTR _ctxt$[ebp]
	cmp	DWORD PTR [ecx+8], 0
	je	$LN8@xmlXPathNo
$LN7@xmlXPathNo:

; 12511: 
; 12512: 	goto apply_predicates;

	jmp	SHORT $apply_predicates$258
$axis_range_end$256:

; 12513: 
; 12514: axis_range_end: /* ----------------------------------------------------- */
; 12515: 	/*
; 12516: 	* We have a "/foo[n]", and position() = n was reached.
; 12517: 	* Note that we can have as well "/foo/::parent::foo[1]", so
; 12518: 	* a duplicate-aware merge is still needed.
; 12519: 	* Merge with the result.
; 12520: 	*/
; 12521: 	if (outSeq == NULL) {

	cmp	DWORD PTR _outSeq$[ebp], 0
	jne	SHORT $LN212@xmlXPathNo

; 12522: 	    outSeq = seq;

	mov	edx, DWORD PTR _seq$[ebp]
	mov	DWORD PTR _outSeq$[ebp], edx

; 12523: 	    seq = NULL;

	mov	DWORD PTR _seq$[ebp], 0

; 12524: 	} else

	jmp	SHORT $LN213@xmlXPathNo
$LN212@xmlXPathNo:

; 12525: 	    outSeq = mergeAndClear(outSeq, seq, 0);

	mov	esi, esp
	push	0
	mov	eax, DWORD PTR _seq$[ebp]
	push	eax
	mov	ecx, DWORD PTR _outSeq$[ebp]
	push	ecx
	call	DWORD PTR _mergeAndClear$[ebp]
	add	esp, 12					; 0000000cH
	cmp	esi, esp
	call	__RTC_CheckEsp
	mov	DWORD PTR _outSeq$[ebp], eax
$LN213@xmlXPathNo:

; 12526: 	/*
; 12527: 	* Break if only a true/false result was requested.
; 12528: 	*/
; 12529: 	if (toBool)

	cmp	DWORD PTR _toBool$[ebp], 0
	je	SHORT $LN214@xmlXPathNo

; 12530: 	    break;

	jmp	$error$255
$LN214@xmlXPathNo:

; 12531: 	continue;

	jmp	$LN4@xmlXPathNo
$first_hit$257:

; 12532: 
; 12533: first_hit: /* ---------------------------------------------------------- */
; 12534: 	/*
; 12535: 	* Break if only a true/false result was requested and
; 12536: 	* no predicates existed and a node test succeeded.
; 12537: 	*/
; 12538: 	if (outSeq == NULL) {

	cmp	DWORD PTR _outSeq$[ebp], 0
	jne	SHORT $LN215@xmlXPathNo

; 12539: 	    outSeq = seq;

	mov	edx, DWORD PTR _seq$[ebp]
	mov	DWORD PTR _outSeq$[ebp], edx

; 12540: 	    seq = NULL;

	mov	DWORD PTR _seq$[ebp], 0

; 12541: 	} else

	jmp	SHORT $LN216@xmlXPathNo
$LN215@xmlXPathNo:

; 12542: 	    outSeq = mergeAndClear(outSeq, seq, 0);

	mov	esi, esp
	push	0
	mov	eax, DWORD PTR _seq$[ebp]
	push	eax
	mov	ecx, DWORD PTR _outSeq$[ebp]
	push	ecx
	call	DWORD PTR _mergeAndClear$[ebp]
	add	esp, 12					; 0000000cH
	cmp	esi, esp
	call	__RTC_CheckEsp
	mov	DWORD PTR _outSeq$[ebp], eax
$LN216@xmlXPathNo:

; 12543: 	break;

	jmp	$error$255
$apply_predicates$258:

; 12544: 
; 12545: #ifdef DEBUG_STEP
; 12546: 	if (seq != NULL)
; 12547: 	    nbMatches += seq->nodeNr;
; 12548: #endif
; 12549: 
; 12550: apply_predicates: /* --------------------------------------------------- */
; 12551:         if (ctxt->error != XPATH_EXPRESSION_OK)

	mov	edx, DWORD PTR _ctxt$[ebp]
	cmp	DWORD PTR [edx+8], 0
	je	SHORT $LN217@xmlXPathNo

; 12552: 	    goto error;

	jmp	$error$255
$LN217@xmlXPathNo:

; 12553: 
; 12554:         /*
; 12555: 	* Apply predicates.
; 12556: 	*/
; 12557:         if ((predOp != NULL) && (seq->nodeNr > 0)) {

	cmp	DWORD PTR _predOp$[ebp], 0
	je	$LN218@xmlXPathNo
	mov	eax, DWORD PTR _seq$[ebp]
	cmp	DWORD PTR [eax], 0
	jle	$LN218@xmlXPathNo

; 12558: 	    /*
; 12559: 	    * E.g. when we have a "/foo[some expression][n]".
; 12560: 	    */
; 12561: 	    /*
; 12562: 	    * QUESTION TODO: The old predicate evaluation took into
; 12563: 	    *  account location-sets.
; 12564: 	    *  (E.g. ctxt->value->type == XPATH_LOCATIONSET)
; 12565: 	    *  Do we expect such a set here?
; 12566: 	    *  All what I learned now from the evaluation semantics
; 12567: 	    *  does not indicate that a location-set will be processed
; 12568: 	    *  here, so this looks OK.
; 12569: 	    */
; 12570: 	    /*
; 12571: 	    * Iterate over all predicates, starting with the outermost
; 12572: 	    * predicate.
; 12573: 	    * TODO: Problem: we cannot execute the inner predicates first
; 12574: 	    *  since we cannot go back *up* the operator tree!
; 12575: 	    *  Options we have:
; 12576: 	    *  1) Use of recursive functions (like is it currently done
; 12577: 	    *     via xmlXPathCompOpEval())
; 12578: 	    *  2) Add a predicate evaluation information stack to the
; 12579: 	    *     context struct
; 12580: 	    *  3) Change the way the operators are linked; we need a
; 12581: 	    *     "parent" field on xmlXPathStepOp
; 12582: 	    *
; 12583: 	    * For the moment, I'll try to solve this with a recursive
; 12584: 	    * function: xmlXPathCompOpEvalPredicate().
; 12585: 	    */
; 12586: 	    size = seq->nodeNr;

	mov	ecx, DWORD PTR _seq$[ebp]
	mov	edx, DWORD PTR [ecx]
	mov	DWORD PTR _size$[ebp], edx

; 12587: 	    if (hasPredicateRange != 0)

	cmp	DWORD PTR _hasPredicateRange$[ebp], 0
	je	SHORT $LN220@xmlXPathNo

; 12588: 		newSize = xmlXPathCompOpEvalPositionalPredicate(ctxt,

	mov	eax, DWORD PTR _hasNsNodes$[ebp]
	push	eax
	mov	ecx, DWORD PTR _maxPos$[ebp]
	push	ecx
	mov	edx, DWORD PTR _maxPos$[ebp]
	push	edx
	mov	eax, DWORD PTR _size$[ebp]
	push	eax
	mov	ecx, DWORD PTR _seq$[ebp]
	push	ecx
	mov	edx, DWORD PTR _predOp$[ebp]
	push	edx
	mov	eax, DWORD PTR _ctxt$[ebp]
	push	eax
	call	_xmlXPathCompOpEvalPositionalPredicate
	add	esp, 28					; 0000001cH
	mov	DWORD PTR _newSize$[ebp], eax
	jmp	SHORT $LN221@xmlXPathNo
$LN220@xmlXPathNo:

; 12589: 		    predOp, seq, size, maxPos, maxPos, hasNsNodes);
; 12590: 	    else
; 12591: 		newSize = xmlXPathCompOpEvalPredicate(ctxt,

	mov	ecx, DWORD PTR _hasNsNodes$[ebp]
	push	ecx
	mov	edx, DWORD PTR _size$[ebp]
	push	edx
	mov	eax, DWORD PTR _seq$[ebp]
	push	eax
	mov	ecx, DWORD PTR _predOp$[ebp]
	push	ecx
	mov	edx, DWORD PTR _ctxt$[ebp]
	push	edx
	call	_xmlXPathCompOpEvalPredicate
	add	esp, 20					; 00000014H
	mov	DWORD PTR _newSize$[ebp], eax
$LN221@xmlXPathNo:

; 12592: 		    predOp, seq, size, hasNsNodes);
; 12593: 
; 12594: 	    if (ctxt->error != XPATH_EXPRESSION_OK) {

	mov	eax, DWORD PTR _ctxt$[ebp]
	cmp	DWORD PTR [eax+8], 0
	je	SHORT $LN222@xmlXPathNo

; 12595: 		total = 0;

	mov	DWORD PTR _total$[ebp], 0

; 12596: 		goto error;

	jmp	$error$255
$LN222@xmlXPathNo:

; 12597: 	    }
; 12598: 	    /*
; 12599: 	    * Add the filtered set of nodes to the result node set.
; 12600: 	    */
; 12601: 	    if (newSize == 0) {

	cmp	DWORD PTR _newSize$[ebp], 0
	jne	SHORT $LN223@xmlXPathNo

; 12602: 		/*
; 12603: 		* The predicates filtered all nodes out.
; 12604: 		*/
; 12605: 		xmlXPathNodeSetClear(seq, hasNsNodes);

	mov	ecx, DWORD PTR _hasNsNodes$[ebp]
	push	ecx
	mov	edx, DWORD PTR _seq$[ebp]
	push	edx
	call	_xmlXPathNodeSetClear
	add	esp, 8
	jmp	$LN224@xmlXPathNo
$LN223@xmlXPathNo:

; 12606: 	    } else if (seq->nodeNr > 0) {

	mov	eax, DWORD PTR _seq$[ebp]
	cmp	DWORD PTR [eax], 0
	jle	$LN224@xmlXPathNo

; 12607: 		/*
; 12608: 		* Add to result set.
; 12609: 		*/
; 12610: 		if (outSeq == NULL) {

	cmp	DWORD PTR _outSeq$[ebp], 0
	jne	SHORT $LN226@xmlXPathNo

; 12611: 		    if (size != newSize) {

	mov	ecx, DWORD PTR _size$[ebp]
	cmp	ecx, DWORD PTR _newSize$[ebp]
	je	SHORT $LN228@xmlXPathNo

; 12612: 			/*
; 12613: 			* We need to merge and clear here, since
; 12614: 			* the sequence will contained NULLed entries.
; 12615: 			*/
; 12616: 			outSeq = mergeAndClear(NULL, seq, 1);

	mov	esi, esp
	push	1
	mov	edx, DWORD PTR _seq$[ebp]
	push	edx
	push	0
	call	DWORD PTR _mergeAndClear$[ebp]
	add	esp, 12					; 0000000cH
	cmp	esi, esp
	call	__RTC_CheckEsp
	mov	DWORD PTR _outSeq$[ebp], eax

; 12617: 		    } else {

	jmp	SHORT $LN229@xmlXPathNo
$LN228@xmlXPathNo:

; 12618: 			outSeq = seq;

	mov	eax, DWORD PTR _seq$[ebp]
	mov	DWORD PTR _outSeq$[ebp], eax

; 12619: 			seq = NULL;

	mov	DWORD PTR _seq$[ebp], 0
$LN229@xmlXPathNo:

; 12620: 		    }
; 12621: 		} else

	jmp	SHORT $LN227@xmlXPathNo
$LN226@xmlXPathNo:

; 12622: 		    outSeq = mergeAndClear(outSeq, seq,

	mov	ecx, DWORD PTR _size$[ebp]
	cmp	ecx, DWORD PTR _newSize$[ebp]
	je	SHORT $LN243@xmlXPathNo
	mov	DWORD PTR tv655[ebp], 1
	jmp	SHORT $LN244@xmlXPathNo
$LN243@xmlXPathNo:
	mov	DWORD PTR tv655[ebp], 0
$LN244@xmlXPathNo:
	mov	esi, esp
	mov	edx, DWORD PTR tv655[ebp]
	push	edx
	mov	eax, DWORD PTR _seq$[ebp]
	push	eax
	mov	ecx, DWORD PTR _outSeq$[ebp]
	push	ecx
	call	DWORD PTR _mergeAndClear$[ebp]
	add	esp, 12					; 0000000cH
	cmp	esi, esp
	call	__RTC_CheckEsp
	mov	DWORD PTR _outSeq$[ebp], eax
$LN227@xmlXPathNo:

; 12623: 			(size != newSize) ? 1: 0);
; 12624: 		/*
; 12625: 		* Break if only a true/false result was requested.
; 12626: 		*/
; 12627: 		if (toBool)

	cmp	DWORD PTR _toBool$[ebp], 0
	je	SHORT $LN224@xmlXPathNo

; 12628: 		    break;

	jmp	SHORT $error$255
$LN224@xmlXPathNo:

; 12629: 	    }

	jmp	SHORT $LN219@xmlXPathNo
$LN218@xmlXPathNo:

; 12630:         } else if (seq->nodeNr > 0) {

	mov	edx, DWORD PTR _seq$[ebp]
	cmp	DWORD PTR [edx], 0
	jle	SHORT $LN219@xmlXPathNo

; 12631: 	    /*
; 12632: 	    * Add to result set.
; 12633: 	    */
; 12634: 	    if (outSeq == NULL) {

	cmp	DWORD PTR _outSeq$[ebp], 0
	jne	SHORT $LN232@xmlXPathNo

; 12635: 		outSeq = seq;

	mov	eax, DWORD PTR _seq$[ebp]
	mov	DWORD PTR _outSeq$[ebp], eax

; 12636: 		seq = NULL;

	mov	DWORD PTR _seq$[ebp], 0

; 12637: 	    } else {

	jmp	SHORT $LN219@xmlXPathNo
$LN232@xmlXPathNo:

; 12638: 		outSeq = mergeAndClear(outSeq, seq, 0);

	mov	esi, esp
	push	0
	mov	ecx, DWORD PTR _seq$[ebp]
	push	ecx
	mov	edx, DWORD PTR _outSeq$[ebp]
	push	edx
	call	DWORD PTR _mergeAndClear$[ebp]
	add	esp, 12					; 0000000cH
	cmp	esi, esp
	call	__RTC_CheckEsp
	mov	DWORD PTR _outSeq$[ebp], eax
$LN219@xmlXPathNo:

; 12639: 	    }
; 12640: 	}
; 12641:     }

	jmp	$LN4@xmlXPathNo
$error$255:

; 12642: 
; 12643: error:
; 12644:     if ((obj->boolval) && (obj->user != NULL)) {

	mov	eax, DWORD PTR _obj$[ebp]
	cmp	DWORD PTR [eax+8], 0
	je	SHORT $LN234@xmlXPathNo
	mov	ecx, DWORD PTR _obj$[ebp]
	cmp	DWORD PTR [ecx+28], 0
	je	SHORT $LN234@xmlXPathNo

; 12645: 	/*
; 12646: 	* QUESTION TODO: What does this do and why?
; 12647: 	* TODO: Do we have to do this also for the "error"
; 12648: 	* cleanup further down?
; 12649: 	*/
; 12650: 	ctxt->value->boolval = 1;

	mov	edx, DWORD PTR _ctxt$[ebp]
	mov	eax, DWORD PTR [edx+16]
	mov	DWORD PTR [eax+8], 1

; 12651: 	ctxt->value->user = obj->user;

	mov	ecx, DWORD PTR _ctxt$[ebp]
	mov	edx, DWORD PTR [ecx+16]
	mov	eax, DWORD PTR _obj$[ebp]
	mov	ecx, DWORD PTR [eax+28]
	mov	DWORD PTR [edx+28], ecx

; 12652: 	obj->user = NULL;

	mov	edx, DWORD PTR _obj$[ebp]
	mov	DWORD PTR [edx+28], 0

; 12653: 	obj->boolval = 0;

	mov	eax, DWORD PTR _obj$[ebp]
	mov	DWORD PTR [eax+8], 0
$LN234@xmlXPathNo:

; 12654:     }
; 12655:     xmlXPathReleaseObject(xpctxt, obj);

	mov	ecx, DWORD PTR _obj$[ebp]
	push	ecx
	mov	edx, DWORD PTR _xpctxt$[ebp]
	push	edx
	call	_xmlXPathReleaseObject
	add	esp, 8

; 12656: 
; 12657:     /*
; 12658:     * Ensure we return at least an emtpy set.
; 12659:     */
; 12660:     if (outSeq == NULL) {

	cmp	DWORD PTR _outSeq$[ebp], 0
	jne	SHORT $LN235@xmlXPathNo

; 12661: 	if ((seq != NULL) && (seq->nodeNr == 0))

	cmp	DWORD PTR _seq$[ebp], 0
	je	SHORT $LN236@xmlXPathNo
	mov	eax, DWORD PTR _seq$[ebp]
	cmp	DWORD PTR [eax], 0
	jne	SHORT $LN236@xmlXPathNo

; 12662: 	    outSeq = seq;

	mov	ecx, DWORD PTR _seq$[ebp]
	mov	DWORD PTR _outSeq$[ebp], ecx
	jmp	SHORT $LN235@xmlXPathNo
$LN236@xmlXPathNo:

; 12663: 	else
; 12664: 	    outSeq = xmlXPathNodeSetCreate(NULL);

	push	0
	call	_xmlXPathNodeSetCreate
	add	esp, 4
	mov	DWORD PTR _outSeq$[ebp], eax
$LN235@xmlXPathNo:

; 12665:         /* XXX what if xmlXPathNodeSetCreate returned NULL here? */
; 12666:     }
; 12667:     if ((seq != NULL) && (seq != outSeq)) {

	cmp	DWORD PTR _seq$[ebp], 0
	je	SHORT $LN238@xmlXPathNo
	mov	edx, DWORD PTR _seq$[ebp]
	cmp	edx, DWORD PTR _outSeq$[ebp]
	je	SHORT $LN238@xmlXPathNo

; 12668: 	 xmlXPathFreeNodeSet(seq);

	mov	eax, DWORD PTR _seq$[ebp]
	push	eax
	call	_xmlXPathFreeNodeSet
	add	esp, 4
$LN238@xmlXPathNo:

; 12669:     }
; 12670:     /*
; 12671:     * Hand over the result. Better to push the set also in
; 12672:     * case of errors.
; 12673:     */
; 12674:     valuePush(ctxt, xmlXPathCacheWrapNodeSet(xpctxt, outSeq));

	mov	ecx, DWORD PTR _outSeq$[ebp]
	push	ecx
	mov	edx, DWORD PTR _xpctxt$[ebp]
	push	edx
	call	_xmlXPathCacheWrapNodeSet
	add	esp, 8
	push	eax
	mov	eax, DWORD PTR _ctxt$[ebp]
	push	eax
	call	_valuePush
	add	esp, 8

; 12675:     /*
; 12676:     * Reset the context node.
; 12677:     */
; 12678:     xpctxt->node = oldContextNode;

	mov	ecx, DWORD PTR _xpctxt$[ebp]
	mov	edx, DWORD PTR _oldContextNode$[ebp]
	mov	DWORD PTR [ecx+4], edx

; 12679:     /*
; 12680:     * When traversing the namespace axis in "toBool" mode, it's
; 12681:     * possible that tmpNsList wasn't freed.
; 12682:     */
; 12683:     if (xpctxt->tmpNsList != NULL) {

	mov	eax, DWORD PTR _xpctxt$[ebp]
	cmp	DWORD PTR [eax+120], 0
	je	SHORT $LN239@xmlXPathNo

; 12684:         xmlFree(xpctxt->tmpNsList);

	mov	esi, esp
	mov	ecx, DWORD PTR _xpctxt$[ebp]
	mov	edx, DWORD PTR [ecx+120]
	push	edx
	call	DWORD PTR _xmlFree
	add	esp, 4
	cmp	esi, esp
	call	__RTC_CheckEsp

; 12685:         xpctxt->tmpNsList = NULL;

	mov	eax, DWORD PTR _xpctxt$[ebp]
	mov	DWORD PTR [eax+120], 0
$LN239@xmlXPathNo:

; 12686:     }
; 12687: 
; 12688: #ifdef DEBUG_STEP
; 12689:     xmlGenericError(xmlGenericErrorContext,
; 12690: 	"\nExamined %d nodes, found %d nodes at that step\n",
; 12691: 	total, nbMatches);
; 12692: #endif
; 12693: 
; 12694:     return(total);

	mov	eax, DWORD PTR _total$[ebp]
$LN1@xmlXPathNo:

; 12695: }

	push	edx
	mov	ecx, ebp
	push	eax
	lea	edx, DWORD PTR $LN249@xmlXPathNo
	call	@_RTC_CheckStackVars@8
	pop	eax
	pop	edx
	pop	edi
	pop	esi
	add	esp, 152				; 00000098H
	cmp	ebp, esp
	call	__RTC_CheckEsp
	mov	esp, ebp
	pop	ebp
	ret	0
	npad	1
$LN249@xmlXPathNo:
	DD	1
	DD	$LN248@xmlXPathNo
$LN248@xmlXPathNo:
	DD	-72					; ffffffb8H
	DD	4
	DD	$LN247@xmlXPathNo
$LN247@xmlXPathNo:
	DB	109					; 0000006dH
	DB	97					; 00000061H
	DB	120					; 00000078H
	DB	80					; 00000050H
	DB	111					; 0000006fH
	DB	115					; 00000073H
	DB	0
	npad	1
$LN252@xmlXPathNo:
	DD	$LN19@xmlXPathNo
	DD	$LN20@xmlXPathNo
	DD	$LN21@xmlXPathNo
	DD	$LN22@xmlXPathNo
	DD	$LN26@xmlXPathNo
	DD	$LN27@xmlXPathNo
	DD	$LN28@xmlXPathNo
	DD	$LN29@xmlXPathNo
	DD	$LN30@xmlXPathNo
	DD	$LN31@xmlXPathNo
	DD	$LN32@xmlXPathNo
	DD	$LN33@xmlXPathNo
	DD	$LN34@xmlXPathNo
$LN253@xmlXPathNo:
	DD	$LN52@xmlXPathNo
	DD	$LN53@xmlXPathNo
	DD	$LN102@xmlXPathNo
	DD	$LN111@xmlXPathNo
	DD	$LN155@xmlXPathNo
	DD	$LN156@xmlXPathNo
$LN254@xmlXPathNo:
	DD	$LN56@xmlXPathNo
	DD	$LN63@xmlXPathNo
	DD	$LN11@xmlXPathNo
$LN246@xmlXPathNo:
	DB	0
	DB	0
	DB	0
	DB	0
	DB	2
	DB	2
	DB	0
	DB	0
	DB	0
	DB	2
	DB	2
	DB	2
	DB	0
	DB	2
	DB	2
	DB	2
	DB	2
	DB	1
	DB	2
	DB	2
	DB	0
_xmlXPathNodeCollectAndTest ENDP
_TEXT	ENDS
; Function compile flags: /Odtp /RTCsu
; File c:\users\dag\documents\_clients\codeproject authors group\windows on arm\libxml2\libxml2-2.9.9\xpath.c
;	COMDAT _xmlXPathIsPositionalPredicate
_TEXT	SEGMENT
_floatval$1 = -12					; size = 8
_exprOp$ = -4						; size = 4
_ctxt$ = 8						; size = 4
_op$ = 12						; size = 4
_maxPos$ = 16						; size = 4
_xmlXPathIsPositionalPredicate PROC			; COMDAT

; 12003: {

	push	ebp
	mov	ebp, esp
	sub	esp, 12					; 0000000cH
	mov	DWORD PTR [ebp-12], -858993460		; ccccccccH
	mov	DWORD PTR [ebp-8], -858993460		; ccccccccH
	mov	DWORD PTR [ebp-4], -858993460		; ccccccccH
	mov	ecx, OFFSET __9DBA2A81_xpath@c
	call	@__CheckForDebuggerJustMyCode@4

; 12004: 
; 12005:     xmlXPathStepOpPtr exprOp;
; 12006: 
; 12007:     /*
; 12008:     * BIG NOTE: This is not intended for XPATH_OP_FILTER yet!
; 12009:     */
; 12010: 
; 12011:     /*
; 12012:     * If not -1, then ch1 will point to:
; 12013:     * 1) For predicates (XPATH_OP_PREDICATE):
; 12014:     *    - an inner predicate operator
; 12015:     * 2) For filters (XPATH_OP_FILTER):
; 12016:     *    - an inner filter operater OR
; 12017:     *    - an expression selecting the node set.
; 12018:     *      E.g. "key('a', 'b')" or "(//foo | //bar)".
; 12019:     */
; 12020:     if ((op->op != XPATH_OP_PREDICATE) && (op->op != XPATH_OP_FILTER))

	mov	eax, DWORD PTR _op$[ebp]
	cmp	DWORD PTR [eax], 15			; 0000000fH
	je	SHORT $LN2@xmlXPathIs
	mov	ecx, DWORD PTR _op$[ebp]
	cmp	DWORD PTR [ecx], 16			; 00000010H
	je	SHORT $LN2@xmlXPathIs

; 12021: 	return(0);

	xor	eax, eax
	jmp	$LN1@xmlXPathIs
$LN2@xmlXPathIs:

; 12022: 
; 12023:     if (op->ch2 != -1) {

	mov	edx, DWORD PTR _op$[ebp]
	cmp	DWORD PTR [edx+8], -1
	je	SHORT $LN3@xmlXPathIs

; 12024: 	exprOp = &ctxt->comp->steps[op->ch2];

	mov	eax, DWORD PTR _ctxt$[ebp]
	mov	ecx, DWORD PTR [eax+32]
	mov	edx, DWORD PTR _op$[ebp]
	imul	eax, DWORD PTR [edx+8], 40
	add	eax, DWORD PTR [ecx+8]
	mov	DWORD PTR _exprOp$[ebp], eax

; 12025:     } else

	jmp	SHORT $LN4@xmlXPathIs
$LN3@xmlXPathIs:

; 12026: 	return(0);

	xor	eax, eax
	jmp	SHORT $LN1@xmlXPathIs
$LN4@xmlXPathIs:

; 12027: 
; 12028:     if ((exprOp != NULL) &&
; 12029: 	(exprOp->op == XPATH_OP_VALUE) &&
; 12030: 	(exprOp->value4 != NULL) &&

	cmp	DWORD PTR _exprOp$[ebp], 0
	je	SHORT $LN7@xmlXPathIs
	mov	ecx, DWORD PTR _exprOp$[ebp]
	cmp	DWORD PTR [ecx], 11			; 0000000bH
	jne	SHORT $LN7@xmlXPathIs
	mov	edx, DWORD PTR _exprOp$[ebp]
	cmp	DWORD PTR [edx+24], 0
	je	SHORT $LN7@xmlXPathIs
	mov	eax, DWORD PTR _exprOp$[ebp]
	mov	ecx, DWORD PTR [eax+24]
	cmp	DWORD PTR [ecx], 3
	jne	SHORT $LN7@xmlXPathIs

; 12031: 	(((xmlXPathObjectPtr) exprOp->value4)->type == XPATH_NUMBER))
; 12032:     {
; 12033:         double floatval = ((xmlXPathObjectPtr) exprOp->value4)->floatval;

	mov	edx, DWORD PTR _exprOp$[ebp]
	mov	eax, DWORD PTR [edx+24]
	movsd	xmm0, QWORD PTR [eax+16]
	movsd	QWORD PTR _floatval$1[ebp], xmm0

; 12034: 
; 12035: 	/*
; 12036: 	* We have a "[n]" predicate here.
; 12037: 	* TODO: Unfortunately this simplistic test here is not
; 12038: 	* able to detect a position() predicate in compound
; 12039: 	* expressions like "[@attr = 'a" and position() = 1],
; 12040: 	* and even not the usage of position() in
; 12041: 	* "[position() = 1]"; thus - obviously - a position-range,
; 12042: 	* like it "[position() < 5]", is also not detected.
; 12043: 	* Maybe we could rewrite the AST to ease the optimization.
; 12044: 	*/
; 12045: 
; 12046:         if ((floatval > INT_MIN) && (floatval < INT_MAX)) {

	movsd	xmm0, QWORD PTR _floatval$1[ebp]
	comisd	xmm0, QWORD PTR __real@c1e0000000000000
	jbe	SHORT $LN7@xmlXPathIs
	movsd	xmm0, QWORD PTR __real@41dfffffffc00000
	comisd	xmm0, QWORD PTR _floatval$1[ebp]
	jbe	SHORT $LN7@xmlXPathIs

; 12047: 	    *maxPos = (int) floatval;

	cvttsd2si ecx, QWORD PTR _floatval$1[ebp]
	mov	edx, DWORD PTR _maxPos$[ebp]
	mov	DWORD PTR [edx], ecx

; 12048:             if (floatval == (double) *maxPos)

	mov	eax, DWORD PTR _maxPos$[ebp]
	cvtsi2sd xmm0, DWORD PTR [eax]
	movsd	xmm1, QWORD PTR _floatval$1[ebp]
	ucomisd	xmm1, xmm0
	lahf
	test	ah, 68					; 00000044H
	jp	SHORT $LN7@xmlXPathIs

; 12049:                 return(1);

	mov	eax, 1
	jmp	SHORT $LN1@xmlXPathIs
$LN7@xmlXPathIs:

; 12050:         }
; 12051:     }
; 12052:     return(0);

	xor	eax, eax
$LN1@xmlXPathIs:

; 12053: }

	add	esp, 12					; 0000000cH
	cmp	ebp, esp
	call	__RTC_CheckEsp
	mov	esp, ebp
	pop	ebp
	ret	0
_xmlXPathIsPositionalPredicate ENDP
_TEXT	ENDS
; Function compile flags: /Odtp /RTCsu
; File c:\users\dag\documents\_clients\codeproject authors group\windows on arm\libxml2\libxml2-2.9.9\xpath.c
;	COMDAT _xmlXPathCompOpEvalPositionalPredicate
_TEXT	SEGMENT
_tmp$1 = -68						; size = 4
_frame$2 = -64						; size = 4
_xpctxt$3 = -60						; size = 4
_contextNode$4 = -56					; size = 4
_oldContextNode$5 = -52					; size = 4
_exprRes$6 = -48					; size = 4
_contextObj$7 = -44					; size = 4
_exprOp$8 = -40						; size = 4
_res$9 = -36						; size = 4
_contextPos$10 = -32					; size = 4
_newContextSize$11 = -28				; size = 4
_pos$12 = -24						; size = 4
_i$13 = -20						; size = 4
_oldpp$14 = -16						; size = 4
_oldcs$15 = -12						; size = 4
_oldContextDoc$16 = -8					; size = 4
_comp$17 = -4						; size = 4
_ctxt$ = 8						; size = 4
_op$ = 12						; size = 4
_set$ = 16						; size = 4
_contextSize$ = 20					; size = 4
_minPos$ = 24						; size = 4
_maxPos$ = 28						; size = 4
_hasNsNodes$ = 32					; size = 4
_xmlXPathCompOpEvalPositionalPredicate PROC		; COMDAT

; 11804: {

	push	ebp
	mov	ebp, esp
	sub	esp, 68					; 00000044H
	push	edi
	lea	edi, DWORD PTR [ebp-68]
	mov	ecx, 17					; 00000011H
	mov	eax, -858993460				; ccccccccH
	rep stosd
	mov	ecx, OFFSET __9DBA2A81_xpath@c
	call	@__CheckForDebuggerJustMyCode@4

; 11805:     if (op->ch1 != -1) {

	mov	eax, DWORD PTR _op$[ebp]
	cmp	DWORD PTR [eax+4], -1
	je	SHORT $LN7@xmlXPathCo

; 11806: 	xmlXPathCompExprPtr comp = ctxt->comp;

	mov	ecx, DWORD PTR _ctxt$[ebp]
	mov	edx, DWORD PTR [ecx+32]
	mov	DWORD PTR _comp$17[ebp], edx

; 11807: 	if (comp->steps[op->ch1].op != XPATH_OP_PREDICATE) {
; 11808: 	    /*
; 11809: 	    * TODO: raise an internal error.
; 11810: 	    */
; 11811: 	}
; 11812: 	contextSize = xmlXPathCompOpEvalPredicate(ctxt,

	mov	ecx, DWORD PTR _hasNsNodes$[ebp]
	push	ecx
	mov	edx, DWORD PTR _contextSize$[ebp]
	push	edx
	mov	eax, DWORD PTR _set$[ebp]
	push	eax
	mov	ecx, DWORD PTR _op$[ebp]
	imul	edx, DWORD PTR [ecx+4], 40
	mov	eax, DWORD PTR _comp$17[ebp]
	add	edx, DWORD PTR [eax+8]
	push	edx
	mov	ecx, DWORD PTR _ctxt$[ebp]
	push	ecx
	call	_xmlXPathCompOpEvalPredicate
	add	esp, 20					; 00000014H
	mov	DWORD PTR _contextSize$[ebp], eax

; 11813: 	    &comp->steps[op->ch1], set, contextSize, hasNsNodes);
; 11814: 	CHECK_ERROR0;

	mov	edx, DWORD PTR _ctxt$[ebp]
	cmp	DWORD PTR [edx+8], 0
	je	SHORT $LN9@xmlXPathCo
	xor	eax, eax
	jmp	$LN1@xmlXPathCo
$LN9@xmlXPathCo:

; 11815: 	if (contextSize <= 0)

	cmp	DWORD PTR _contextSize$[ebp], 0
	jg	SHORT $LN7@xmlXPathCo

; 11816: 	    return(0);

	xor	eax, eax
	jmp	$LN1@xmlXPathCo
$LN7@xmlXPathCo:

; 11817:     }
; 11818:     /*
; 11819:     * Check if the node set contains a sufficient number of nodes for
; 11820:     * the requested range.
; 11821:     */
; 11822:     if (contextSize < minPos) {

	mov	eax, DWORD PTR _contextSize$[ebp]
	cmp	eax, DWORD PTR _minPos$[ebp]
	jge	SHORT $LN11@xmlXPathCo

; 11823: 	xmlXPathNodeSetClear(set, hasNsNodes);

	mov	ecx, DWORD PTR _hasNsNodes$[ebp]
	push	ecx
	mov	edx, DWORD PTR _set$[ebp]
	push	edx
	call	_xmlXPathNodeSetClear
	add	esp, 8

; 11824: 	return(0);

	xor	eax, eax
	jmp	$LN1@xmlXPathCo
$LN11@xmlXPathCo:

; 11825:     }
; 11826:     if (op->ch2 == -1) {

	mov	eax, DWORD PTR _op$[ebp]
	cmp	DWORD PTR [eax+8], -1
	jne	SHORT $LN12@xmlXPathCo

; 11827: 	/*
; 11828: 	* TODO: Can this ever happen?
; 11829: 	*/
; 11830: 	return (contextSize);

	mov	eax, DWORD PTR _contextSize$[ebp]
	jmp	$LN1@xmlXPathCo

; 11831:     } else {

	jmp	$LN13@xmlXPathCo
$LN12@xmlXPathCo:

; 11832: 	xmlDocPtr oldContextDoc;
; 11833:         int oldcs, oldpp;
; 11834: 	int i, pos = 0, newContextSize = 0, contextPos = 0, res;

	mov	DWORD PTR _pos$12[ebp], 0
	mov	DWORD PTR _newContextSize$11[ebp], 0
	mov	DWORD PTR _contextPos$10[ebp], 0

; 11835: 	xmlXPathStepOpPtr exprOp;
; 11836: 	xmlXPathObjectPtr contextObj = NULL, exprRes = NULL;

	mov	DWORD PTR _contextObj$7[ebp], 0
	mov	DWORD PTR _exprRes$6[ebp], 0

; 11837: 	xmlNodePtr oldContextNode, contextNode = NULL;

	mov	DWORD PTR _contextNode$4[ebp], 0

; 11838: 	xmlXPathContextPtr xpctxt = ctxt->context;

	mov	ecx, DWORD PTR _ctxt$[ebp]
	mov	edx, DWORD PTR [ecx+12]
	mov	DWORD PTR _xpctxt$3[ebp], edx

; 11839:         int frame;
; 11840: 
; 11841: #ifdef LIBXML_XPTR_ENABLED
; 11842: 	    /*
; 11843: 	    * URGENT TODO: Check the following:
; 11844: 	    *  We don't expect location sets if evaluating prediates, right?
; 11845: 	    *  Only filters should expect location sets, right?
; 11846: 	*/
; 11847: #endif /* LIBXML_XPTR_ENABLED */
; 11848: 
; 11849: 	/*
; 11850: 	* Save old context.
; 11851: 	*/
; 11852: 	oldContextNode = xpctxt->node;

	mov	eax, DWORD PTR _xpctxt$3[ebp]
	mov	ecx, DWORD PTR [eax+4]
	mov	DWORD PTR _oldContextNode$5[ebp], ecx

; 11853: 	oldContextDoc = xpctxt->doc;

	mov	edx, DWORD PTR _xpctxt$3[ebp]
	mov	eax, DWORD PTR [edx]
	mov	DWORD PTR _oldContextDoc$16[ebp], eax

; 11854:         oldcs = xpctxt->contextSize;

	mov	ecx, DWORD PTR _xpctxt$3[ebp]
	mov	edx, DWORD PTR [ecx+68]
	mov	DWORD PTR _oldcs$15[ebp], edx

; 11855:         oldpp = xpctxt->proximityPosition;

	mov	eax, DWORD PTR _xpctxt$3[ebp]
	mov	ecx, DWORD PTR [eax+72]
	mov	DWORD PTR _oldpp$14[ebp], ecx

; 11856: 	/*
; 11857: 	* Get the expression of this predicate.
; 11858: 	*/
; 11859: 	exprOp = &ctxt->comp->steps[op->ch2];

	mov	edx, DWORD PTR _ctxt$[ebp]
	mov	eax, DWORD PTR [edx+32]
	mov	ecx, DWORD PTR _op$[ebp]
	imul	edx, DWORD PTR [ecx+8], 40
	add	edx, DWORD PTR [eax+8]
	mov	DWORD PTR _exprOp$8[ebp], edx

; 11860: 	for (i = 0; i < set->nodeNr; i++) {

	mov	DWORD PTR _i$13[ebp], 0
	jmp	SHORT $LN4@xmlXPathCo
$LN2@xmlXPathCo:
	mov	eax, DWORD PTR _i$13[ebp]
	add	eax, 1
	mov	DWORD PTR _i$13[ebp], eax
$LN4@xmlXPathCo:
	mov	ecx, DWORD PTR _set$[ebp]
	mov	edx, DWORD PTR _i$13[ebp]
	cmp	edx, DWORD PTR [ecx]
	jge	$LN3@xmlXPathCo

; 11861:             xmlXPathObjectPtr tmp;
; 11862: 
; 11863: 	    if (set->nodeTab[i] == NULL)

	mov	eax, DWORD PTR _set$[ebp]
	mov	ecx, DWORD PTR [eax+8]
	mov	edx, DWORD PTR _i$13[ebp]
	cmp	DWORD PTR [ecx+edx*4], 0
	jne	SHORT $LN14@xmlXPathCo

; 11864: 		continue;

	jmp	SHORT $LN2@xmlXPathCo
$LN14@xmlXPathCo:

; 11865: 
; 11866: 	    contextNode = set->nodeTab[i];

	mov	eax, DWORD PTR _set$[ebp]
	mov	ecx, DWORD PTR [eax+8]
	mov	edx, DWORD PTR _i$13[ebp]
	mov	eax, DWORD PTR [ecx+edx*4]
	mov	DWORD PTR _contextNode$4[ebp], eax

; 11867: 	    xpctxt->node = contextNode;

	mov	ecx, DWORD PTR _xpctxt$3[ebp]
	mov	edx, DWORD PTR _contextNode$4[ebp]
	mov	DWORD PTR [ecx+4], edx

; 11868: 	    xpctxt->contextSize = contextSize;

	mov	eax, DWORD PTR _xpctxt$3[ebp]
	mov	ecx, DWORD PTR _contextSize$[ebp]
	mov	DWORD PTR [eax+68], ecx

; 11869: 	    xpctxt->proximityPosition = ++contextPos;

	mov	edx, DWORD PTR _contextPos$10[ebp]
	add	edx, 1
	mov	DWORD PTR _contextPos$10[ebp], edx
	mov	eax, DWORD PTR _xpctxt$3[ebp]
	mov	ecx, DWORD PTR _contextPos$10[ebp]
	mov	DWORD PTR [eax+72], ecx

; 11870: 
; 11871: 	    /*
; 11872: 	    * Initialize the new set.
; 11873: 	    * Also set the xpath document in case things like
; 11874: 	    * key() evaluation are attempted on the predicate
; 11875: 	    */
; 11876: 	    if ((contextNode->type != XML_NAMESPACE_DECL) &&

	mov	edx, DWORD PTR _contextNode$4[ebp]
	cmp	DWORD PTR [edx+4], 18			; 00000012H
	je	SHORT $LN15@xmlXPathCo
	mov	eax, DWORD PTR _contextNode$4[ebp]
	cmp	DWORD PTR [eax+32], 0
	je	SHORT $LN15@xmlXPathCo

; 11877: 		(contextNode->doc != NULL))
; 11878: 		xpctxt->doc = contextNode->doc;

	mov	ecx, DWORD PTR _xpctxt$3[ebp]
	mov	edx, DWORD PTR _contextNode$4[ebp]
	mov	eax, DWORD PTR [edx+32]
	mov	DWORD PTR [ecx], eax
$LN15@xmlXPathCo:

; 11879: 	    /*
; 11880: 	    * Evaluate the predicate expression with 1 context node
; 11881: 	    * at a time; this node is packaged into a node set; this
; 11882: 	    * node set is handed over to the evaluation mechanism.
; 11883: 	    */
; 11884: 	    if (contextObj == NULL)

	cmp	DWORD PTR _contextObj$7[ebp], 0
	jne	SHORT $LN16@xmlXPathCo

; 11885: 		contextObj = xmlXPathCacheNewNodeSet(xpctxt, contextNode);

	mov	ecx, DWORD PTR _contextNode$4[ebp]
	push	ecx
	mov	edx, DWORD PTR _xpctxt$3[ebp]
	push	edx
	call	_xmlXPathCacheNewNodeSet
	add	esp, 8
	mov	DWORD PTR _contextObj$7[ebp], eax
	jmp	SHORT $LN17@xmlXPathCo
$LN16@xmlXPathCo:

; 11886: 	    else {
; 11887: 		if (xmlXPathNodeSetAddUnique(contextObj->nodesetval,
; 11888: 		    contextNode) < 0) {

	mov	eax, DWORD PTR _contextNode$4[ebp]
	push	eax
	mov	ecx, DWORD PTR _contextObj$7[ebp]
	mov	edx, DWORD PTR [ecx+4]
	push	edx
	call	_xmlXPathNodeSetAddUnique
	add	esp, 8
	test	eax, eax
	jge	SHORT $LN17@xmlXPathCo

; 11889: 		    ctxt->error = XPATH_MEMORY_ERROR;

	mov	eax, DWORD PTR _ctxt$[ebp]
	mov	DWORD PTR [eax+8], 15			; 0000000fH

; 11890: 		    goto evaluation_exit;

	jmp	$evaluation_exit$35
$LN17@xmlXPathCo:

; 11891: 		}
; 11892: 	    }
; 11893: 
; 11894: 	    valuePush(ctxt, contextObj);

	mov	ecx, DWORD PTR _contextObj$7[ebp]
	push	ecx
	mov	edx, DWORD PTR _ctxt$[ebp]
	push	edx
	call	_valuePush
	add	esp, 8

; 11895:             frame = xmlXPathSetFrame(ctxt);

	mov	eax, DWORD PTR _ctxt$[ebp]
	push	eax
	call	_xmlXPathSetFrame
	add	esp, 4
	mov	DWORD PTR _frame$2[ebp], eax

; 11896: 	    res = xmlXPathCompOpEvalToBoolean(ctxt, exprOp, 1);

	push	1
	mov	ecx, DWORD PTR _exprOp$8[ebp]
	push	ecx
	mov	edx, DWORD PTR _ctxt$[ebp]
	push	edx
	call	_xmlXPathCompOpEvalToBoolean
	add	esp, 12					; 0000000cH
	mov	DWORD PTR _res$9[ebp], eax

; 11897:             xmlXPathPopFrame(ctxt, frame);

	mov	eax, DWORD PTR _frame$2[ebp]
	push	eax
	mov	ecx, DWORD PTR _ctxt$[ebp]
	push	ecx
	call	_xmlXPathPopFrame
	add	esp, 8

; 11898:             tmp = valuePop(ctxt);

	mov	edx, DWORD PTR _ctxt$[ebp]
	push	edx
	call	_valuePop
	add	esp, 4
	mov	DWORD PTR _tmp$1[ebp], eax

; 11899: 
; 11900: 	    if ((ctxt->error != XPATH_EXPRESSION_OK) || (res == -1)) {

	mov	eax, DWORD PTR _ctxt$[ebp]
	cmp	DWORD PTR [eax+8], 0
	jne	SHORT $LN5@xmlXPathCo
	cmp	DWORD PTR _res$9[ebp], -1
	jne	SHORT $LN19@xmlXPathCo
$LN5@xmlXPathCo:

; 11901:                 while (tmp != contextObj) {

	mov	ecx, DWORD PTR _tmp$1[ebp]
	cmp	ecx, DWORD PTR _contextObj$7[ebp]
	je	SHORT $LN6@xmlXPathCo

; 11902:                     /*
; 11903:                      * Free up the result
; 11904:                      * then pop off contextObj, which will be freed later
; 11905:                      */
; 11906:                     xmlXPathReleaseObject(xpctxt, tmp);

	mov	edx, DWORD PTR _tmp$1[ebp]
	push	edx
	mov	eax, DWORD PTR _xpctxt$3[ebp]
	push	eax
	call	_xmlXPathReleaseObject
	add	esp, 8

; 11907:                     tmp = valuePop(ctxt);

	mov	ecx, DWORD PTR _ctxt$[ebp]
	push	ecx
	call	_valuePop
	add	esp, 4
	mov	DWORD PTR _tmp$1[ebp], eax

; 11908:                 }

	jmp	SHORT $LN5@xmlXPathCo
$LN6@xmlXPathCo:

; 11909: 		goto evaluation_error;

	jmp	$evaluation_error$36
$LN19@xmlXPathCo:

; 11910: 	    }
; 11911:             /* push the result back onto the stack */
; 11912:             valuePush(ctxt, tmp);

	mov	edx, DWORD PTR _tmp$1[ebp]
	push	edx
	mov	eax, DWORD PTR _ctxt$[ebp]
	push	eax
	call	_valuePush
	add	esp, 8

; 11913: 
; 11914: 	    if (res)

	cmp	DWORD PTR _res$9[ebp], 0
	je	SHORT $LN21@xmlXPathCo

; 11915: 		pos++;

	mov	ecx, DWORD PTR _pos$12[ebp]
	add	ecx, 1
	mov	DWORD PTR _pos$12[ebp], ecx
$LN21@xmlXPathCo:

; 11916: 
; 11917: 	    if (res && (pos >= minPos) && (pos <= maxPos)) {

	cmp	DWORD PTR _res$9[ebp], 0
	je	$LN22@xmlXPathCo
	mov	edx, DWORD PTR _pos$12[ebp]
	cmp	edx, DWORD PTR _minPos$[ebp]
	jl	$LN22@xmlXPathCo
	mov	eax, DWORD PTR _pos$12[ebp]
	cmp	eax, DWORD PTR _maxPos$[ebp]
	jg	$LN22@xmlXPathCo

; 11918: 		/*
; 11919: 		* Fits in the requested range.
; 11920: 		*/
; 11921: 		newContextSize++;

	mov	ecx, DWORD PTR _newContextSize$11[ebp]
	add	ecx, 1
	mov	DWORD PTR _newContextSize$11[ebp], ecx

; 11922: 		if (minPos == maxPos) {

	mov	edx, DWORD PTR _minPos$[ebp]
	cmp	edx, DWORD PTR _maxPos$[ebp]
	jne	SHORT $LN24@xmlXPathCo

; 11923: 		    /*
; 11924: 		    * Only 1 node was requested.
; 11925: 		    */
; 11926: 		    if (contextNode->type == XML_NAMESPACE_DECL) {

	mov	eax, DWORD PTR _contextNode$4[ebp]
	cmp	DWORD PTR [eax+4], 18			; 00000012H
	jne	SHORT $LN25@xmlXPathCo

; 11927: 			/*
; 11928: 			* As always: take care of those nasty
; 11929: 			* namespace nodes.
; 11930: 			*/
; 11931: 			set->nodeTab[i] = NULL;

	mov	ecx, DWORD PTR _set$[ebp]
	mov	edx, DWORD PTR [ecx+8]
	mov	eax, DWORD PTR _i$13[ebp]
	mov	DWORD PTR [edx+eax*4], 0
$LN25@xmlXPathCo:

; 11932: 		    }
; 11933: 		    xmlXPathNodeSetClear(set, hasNsNodes);

	mov	ecx, DWORD PTR _hasNsNodes$[ebp]
	push	ecx
	mov	edx, DWORD PTR _set$[ebp]
	push	edx
	call	_xmlXPathNodeSetClear
	add	esp, 8

; 11934: 		    set->nodeNr = 1;

	mov	eax, DWORD PTR _set$[ebp]
	mov	DWORD PTR [eax], 1

; 11935: 		    set->nodeTab[0] = contextNode;

	mov	ecx, 4
	imul	edx, ecx, 0
	mov	eax, DWORD PTR _set$[ebp]
	mov	ecx, DWORD PTR [eax+8]
	mov	eax, DWORD PTR _contextNode$4[ebp]
	mov	DWORD PTR [edx+ecx], eax

; 11936: 		    goto evaluation_exit;

	jmp	$evaluation_exit$35
$LN24@xmlXPathCo:

; 11937: 		}
; 11938: 		if (pos == maxPos) {

	mov	ecx, DWORD PTR _pos$12[ebp]
	cmp	ecx, DWORD PTR _maxPos$[ebp]
	jne	SHORT $LN26@xmlXPathCo

; 11939: 		    /*
; 11940: 		    * We are done.
; 11941: 		    */
; 11942: 		    xmlXPathNodeSetClearFromPos(set, i +1, hasNsNodes);

	mov	edx, DWORD PTR _hasNsNodes$[ebp]
	push	edx
	mov	eax, DWORD PTR _i$13[ebp]
	add	eax, 1
	push	eax
	mov	ecx, DWORD PTR _set$[ebp]
	push	ecx
	call	_xmlXPathNodeSetClearFromPos
	add	esp, 12					; 0000000cH

; 11943: 		    goto evaluation_exit;

	jmp	$evaluation_exit$35
$LN26@xmlXPathCo:

; 11944: 		}
; 11945: 	    } else {

	jmp	SHORT $LN23@xmlXPathCo
$LN22@xmlXPathCo:

; 11946: 		/*
; 11947: 		* Remove the entry from the initial node set.
; 11948: 		*/
; 11949: 		set->nodeTab[i] = NULL;

	mov	edx, DWORD PTR _set$[ebp]
	mov	eax, DWORD PTR [edx+8]
	mov	ecx, DWORD PTR _i$13[ebp]
	mov	DWORD PTR [eax+ecx*4], 0

; 11950: 		if (contextNode->type == XML_NAMESPACE_DECL)

	mov	edx, DWORD PTR _contextNode$4[ebp]
	cmp	DWORD PTR [edx+4], 18			; 00000012H
	jne	SHORT $LN23@xmlXPathCo

; 11951: 		    xmlXPathNodeSetFreeNs((xmlNsPtr) contextNode);

	mov	eax, DWORD PTR _contextNode$4[ebp]
	push	eax
	call	_xmlXPathNodeSetFreeNs
	add	esp, 4
$LN23@xmlXPathCo:

; 11952: 	    }
; 11953: 	    if (exprRes != NULL) {

	cmp	DWORD PTR _exprRes$6[ebp], 0
	je	SHORT $LN28@xmlXPathCo

; 11954: 		xmlXPathReleaseObject(ctxt->context, exprRes);

	mov	ecx, DWORD PTR _exprRes$6[ebp]
	push	ecx
	mov	edx, DWORD PTR _ctxt$[ebp]
	mov	eax, DWORD PTR [edx+12]
	push	eax
	call	_xmlXPathReleaseObject
	add	esp, 8

; 11955: 		exprRes = NULL;

